ARM GAS  C:\Users\admin\AppData\Local\Temp\cc3TavuX.s 			page 1


   1              		.cpu cortex-m4
   2              		.arch armv7e-m
   3              		.fpu fpv4-sp-d16
   4              		.eabi_attribute 27, 1	@ Tag_ABI_HardFP_use
   5              		.eabi_attribute 28, 1	@ Tag_ABI_VFP_args
   6              		.eabi_attribute 23, 1	@ Tag_ABI_FP_number_model
   7              		.eabi_attribute 24, 1	@ Tag_ABI_align8_needed
   8              		.eabi_attribute 25, 1	@ Tag_ABI_align8_preserved
   9              		.eabi_attribute 26, 1	@ Tag_ABI_enum_size
  10              		.eabi_attribute 30, 2	@ Tag_ABI_optimization_goals
  11              		.eabi_attribute 34, 1	@ Tag_CPU_unaligned_access
  12              		.eabi_attribute 18, 4	@ Tag_ABI_PCS_wchar_t
  13              		.file	"main.c"
  14              	@ GNU C89 (GNU Arm Embedded Toolchain 10.3-2021.10) version 10.3.1 20210824 (release) (arm-none-eab
  15              	@	compiled by GNU C version 7.3-win32 20180312, GMP version 6.1.0, MPFR version 3.1.4, MPC version 
  16              	
  17              	@ GGC heuristics: --param ggc-min-expand=100 --param ggc-min-heapsize=131072
  18              	@ options passed:  -I . -I . -I ../Utilities/STM32F4-Discovery/
  19              	@ -I ../Libraries/STM32_USB_Device_Library/Class/audio/inc/
  20              	@ -I ../Libraries/STM32_USB_Device_Library/Core/inc/
  21              	@ -I ../Libraries/STM32_USB_OTG_Driver/inc/
  22              	@ -I ../Utilities/STM32F4-Discovery/
  23              	@ -I ../Libraries/STM32F4xx_StdPeriph_Driver/inc/
  24              	@ -I ../Utilities/STM32F4-Discovery/
  25              	@ -I ../Libraries/CMSIS/ST/STM32F4xx/Include/
  26              	@ -I ../Libraries/CMSIS/Include/ -imultilib thumb/v7e-m+fp/hard
  27              	@ -iprefix c:\program files (x86)\gnu arm embedded toolchain\10 2021.10\bin\../lib/gcc/arm-none-eab
  28              	@ -isysroot c:\program files (x86)\gnu arm embedded toolchain\10 2021.10\bin\../arm-none-eabi
  29              	@ -MD out/main.d -MF out/main.d -MP -MQ out/main.o -D__USES_INITFINI__
  30              	@ -D STM32F4XX -D __VFP_FP__ -D USE_USB_OTG_FS main.c -mcpu=cortex-m4
  31              	@ -mthumb -mfloat-abi=hard -mfpu=fpv4-sp-d16 -mlibarch=armv7e-m+fp
  32              	@ -march=armv7e-m+fp -auxbase-strip out/main.o -g -ggdb3 -O3 -Wall
  33              	@ -Wstrict-prototypes -Wextra -std=gnu90 -ffast-math -ffunction-sections
  34              	@ -fdata-sections -fverbose-asm
  35              	@ options enabled:  -faggressive-loop-optimizations -falign-functions
  36              	@ -falign-jumps -falign-labels -falign-loops -fallocation-dce
  37              	@ -fassociative-math -fauto-inc-dec -fbranch-count-reg -fcaller-saves
  38              	@ -fcombine-stack-adjustments -fcompare-elim -fcprop-registers
  39              	@ -fcrossjumping -fcse-follow-jumps -fcx-limited-range -fdata-sections
  40              	@ -fdefer-pop -fdelete-null-pointer-checks -fdevirtualize
  41              	@ -fdevirtualize-speculatively -fdwarf2-cfi-asm -fearly-inlining
  42              	@ -feliminate-unused-debug-symbols -feliminate-unused-debug-types
  43              	@ -fexpensive-optimizations -ffinite-math-only -fforward-propagate
  44              	@ -ffp-int-builtin-inexact -ffunction-cse -ffunction-sections -fgcse
  45              	@ -fgcse-after-reload -fgcse-lm -fgnu-unique -fguess-branch-probability
  46              	@ -fhoist-adjacent-loads -fident -fif-conversion -fif-conversion2
  47              	@ -findirect-inlining -finline -finline-atomics -finline-functions
  48              	@ -finline-functions-called-once -finline-small-functions -fipa-bit-cp
  49              	@ -fipa-cp -fipa-cp-clone -fipa-icf -fipa-icf-functions -fipa-icf-variables
  50              	@ -fipa-profile -fipa-pure-const -fipa-ra -fipa-reference
  51              	@ -fipa-reference-addressable -fipa-sra -fipa-stack-alignment -fipa-vrp
  52              	@ -fira-hoist-pressure -fira-share-save-slots -fira-share-spill-slots
  53              	@ -fisolate-erroneous-paths-dereference -fivopts -fkeep-static-consts
  54              	@ -fleading-underscore -flifetime-dse -floop-interchange
  55              	@ -floop-unroll-and-jam -flra-remat -fmerge-constants -fmerge-debug-strings
  56              	@ -fmove-loop-invariants -fomit-frame-pointer -foptimize-sibling-calls
  57              	@ -foptimize-strlen -fpartial-inlining -fpeel-loops -fpeephole -fpeephole2
ARM GAS  C:\Users\admin\AppData\Local\Temp\cc3TavuX.s 			page 2


  58              	@ -fplt -fpredictive-commoning -fprefetch-loop-arrays -freciprocal-math
  59              	@ -freg-struct-return -freorder-blocks -freorder-functions
  60              	@ -frerun-cse-after-loop -fsched-critical-path-heuristic
  61              	@ -fsched-dep-count-heuristic -fsched-group-heuristic -fsched-interblock
  62              	@ -fsched-last-insn-heuristic -fsched-pressure -fsched-rank-heuristic
  63              	@ -fsched-spec -fsched-spec-insn-heuristic -fsched-stalled-insns-dep
  64              	@ -fschedule-insns -fschedule-insns2 -fsection-anchors
  65              	@ -fsemantic-interposition -fshow-column -fshrink-wrap
  66              	@ -fshrink-wrap-separate -fsplit-ivs-in-unroller -fsplit-loops
  67              	@ -fsplit-paths -fsplit-wide-types -fssa-backprop -fssa-phiopt -fstdarg-opt
  68              	@ -fstore-merging -fstrict-aliasing -fstrict-volatile-bitfields
  69              	@ -fsync-libcalls -fthread-jumps -ftoplevel-reorder -ftree-bit-ccp
  70              	@ -ftree-builtin-call-dce -ftree-ccp -ftree-ch -ftree-coalesce-vars
  71              	@ -ftree-copy-prop -ftree-cselim -ftree-dce -ftree-dominator-opts
  72              	@ -ftree-dse -ftree-forwprop -ftree-fre -ftree-loop-distribute-patterns
  73              	@ -ftree-loop-distribution -ftree-loop-if-convert -ftree-loop-im
  74              	@ -ftree-loop-ivcanon -ftree-loop-optimize -ftree-loop-vectorize
  75              	@ -ftree-parallelize-loops= -ftree-partial-pre -ftree-phiprop -ftree-pre
  76              	@ -ftree-pta -ftree-reassoc -ftree-scev-cprop -ftree-sink
  77              	@ -ftree-slp-vectorize -ftree-slsr -ftree-sra -ftree-switch-conversion
  78              	@ -ftree-tail-merge -ftree-ter -ftree-vrp -funit-at-a-time
  79              	@ -funsafe-math-optimizations -funswitch-loops -fvar-tracking
  80              	@ -fvar-tracking-assignments -fverbose-asm -fversion-loops-for-strides
  81              	@ -fzero-initialized-in-bss -masm-syntax-unified -mbe32 -mlittle-endian
  82              	@ -mpic-data-is-text-relative -msched-prolog -mthumb -munaligned-access
  83              	@ -mvectorize-with-neon-quad
  84              	
  85              		.text
  86              	.Ltext0:
  87              		.cfi_sections	.debug_frame
  88              		.section	.text.startup.main,"ax",%progbits
  89              		.align	1
  90              		.p2align 2,,3
  91              		.global	main
  92              		.syntax unified
  93              		.thumb
  94              		.thumb_func
  95              		.type	main, %function
  96              	main:
  97              	.LFB113:
  98              		.file 1 "main.c"
   1:main.c        **** //STM32F4 USB MICROPHONE
   2:main.c        **** //by ILIASAM
   3:main.c        **** 
   4:main.c        **** /* Includes ------------------------------------------------------------------*/
   5:main.c        **** #include "main.h"
   6:main.c        **** #include "stm32f4_discovery_audio_codec.h"
   7:main.c        **** #include "usbd_audio_core.h"
   8:main.c        **** #include "usbd_usr.h"
   9:main.c        **** #include "usbd_desc.h"
  10:main.c        **** #include "usbd_audio_core.h"
  11:main.c        **** #include "waverecorder.h"
  12:main.c        **** #include "stm32f4xx_spi.h"
  13:main.c        **** 
  14:main.c        **** __ALIGN_BEGIN USB_OTG_CORE_HANDLE  USB_OTG_dev __ALIGN_END;
  15:main.c        **** 
  16:main.c        **** __IO uint8_t UserButtonPressed = 0;
ARM GAS  C:\Users\admin\AppData\Local\Temp\cc3TavuX.s 			page 3


  17:main.c        **** 
  18:main.c        **** __IO uint32_t TimingDelay;
  19:main.c        **** 
  20:main.c        **** int16_t audiodata[64];//this data is playing by speaker
  21:main.c        **** 
  22:main.c        **** extern uint16_t RecBuf0[MIC_FILTER_RESULT_LENGTH]; //buffer for filtered PCM data from MIC
  23:main.c        **** extern uint16_t RecBuf1[MIC_FILTER_RESULT_LENGTH]; //buffer for filtered PCM data from MIC
  24:main.c        **** extern uint8_t buffer_ready;
  25:main.c        **** 
  26:main.c        **** void init_audio_dac(void);
  27:main.c        **** 
  28:main.c        **** int main(void)
  29:main.c        **** {
  99              		.loc 1 29 1 view -0
 100              		.cfi_startproc
 101              		@ Volatile: function does not return.
 102              		@ args = 0, pretend = 0, frame = 16
 103              		@ frame_needed = 0, uses_anonymous_args = 0
  30:main.c        ****   
  31:main.c        ****   RCC_ClocksTypeDef RCC_Clocks;
 104              		.loc 1 31 3 view .LVU1
  32:main.c        ****   
  33:main.c        ****   /* Initialize LEDs and User_Button on STM32F4-Discovery --------------------*/
  34:main.c        ****   STM_EVAL_PBInit(BUTTON_USER, BUTTON_MODE_GPIO); 
 105              		.loc 1 34 3 view .LVU2
 106              	@ main.c:29: {
  29:main.c        ****   
 107              		.loc 1 29 1 is_stmt 0 view .LVU3
 108 0000 00B5     		push	{lr}	@
 109              		.cfi_def_cfa_offset 4
 110              		.cfi_offset 14, -4
 111              	@ main.c:34:   STM_EVAL_PBInit(BUTTON_USER, BUTTON_MODE_GPIO); 
 112              		.loc 1 34 3 view .LVU4
 113 0002 0021     		movs	r1, #0	@,
 114              	@ main.c:29: {
  29:main.c        ****   
 115              		.loc 1 29 1 view .LVU5
 116 0004 87B0     		sub	sp, sp, #28	@,,
 117              		.cfi_def_cfa_offset 32
 118              	@ main.c:34:   STM_EVAL_PBInit(BUTTON_USER, BUTTON_MODE_GPIO); 
 119              		.loc 1 34 3 view .LVU6
 120 0006 0846     		mov	r0, r1	@,
 121 0008 FFF7FEFF 		bl	STM_EVAL_PBInit		@
 122              	.LVL0:
  35:main.c        ****   
  36:main.c        ****   STM_EVAL_LEDInit(LED4);
 123              		.loc 1 36 3 is_stmt 1 view .LVU7
 124 000c 0020     		movs	r0, #0	@,
 125 000e FFF7FEFF 		bl	STM_EVAL_LEDInit		@
 126              	.LVL1:
  37:main.c        ****   STM_EVAL_LEDInit(LED3);
 127              		.loc 1 37 3 view .LVU8
 128 0012 0120     		movs	r0, #1	@,
 129 0014 FFF7FEFF 		bl	STM_EVAL_LEDInit		@
 130              	.LVL2:
  38:main.c        ****   STM_EVAL_LEDInit(LED5);
 131              		.loc 1 38 3 view .LVU9
ARM GAS  C:\Users\admin\AppData\Local\Temp\cc3TavuX.s 			page 4


 132 0018 0220     		movs	r0, #2	@,
 133 001a FFF7FEFF 		bl	STM_EVAL_LEDInit		@
 134              	.LVL3:
  39:main.c        ****   STM_EVAL_LEDInit(LED6);
 135              		.loc 1 39 3 view .LVU10
 136 001e 0320     		movs	r0, #3	@,
 137 0020 FFF7FEFF 		bl	STM_EVAL_LEDInit		@
 138              	.LVL4:
  40:main.c        ****   
  41:main.c        ****   
  42:main.c        ****   RCC_GetClocksFreq(&RCC_Clocks);//test
 139              		.loc 1 42 3 view .LVU11
 140 0024 02A8     		add	r0, sp, #8	@,,
 141 0026 FFF7FEFF 		bl	RCC_GetClocksFreq		@
 142              	.LVL5:
  43:main.c        ****   
  44:main.c        ****   EVAL_AUDIO_Init(OUTPUT_DEVICE_HEADPHONE, 86, I2S_AudioFreq_16k);//init speaker (optional)
 143              		.loc 1 44 3 view .LVU12
 144              	@ main.c:46:   USBD_Init(&USB_OTG_dev,      
  45:main.c        ****   
  46:main.c        ****   USBD_Init(&USB_OTG_dev,      
 145              		.loc 1 46 3 is_stmt 0 view .LVU13
 146 002a 0B4C     		ldr	r4, .L5	@ tmp118,
 147              	@ main.c:44:   EVAL_AUDIO_Init(OUTPUT_DEVICE_HEADPHONE, 86, I2S_AudioFreq_16k);//init speaker (opti
  44:main.c        ****   
 148              		.loc 1 44 3 view .LVU14
 149 002c 4FF47A52 		mov	r2, #16000	@,
 150 0030 5621     		movs	r1, #86	@,
 151 0032 0220     		movs	r0, #2	@,
 152 0034 FFF7FEFF 		bl	EVAL_AUDIO_Init		@
 153              	.LVL6:
 154              		.loc 1 46 3 is_stmt 1 view .LVU15
 155 0038 0848     		ldr	r0, .L5+4	@,
 156 003a 094B     		ldr	r3, .L5+8	@,
 157 003c 094A     		ldr	r2, .L5+12	@,
 158 003e 0094     		str	r4, [sp]	@ tmp118,
 159 0040 0121     		movs	r1, #1	@,
 160 0042 FFF7FEFF 		bl	USBD_Init		@
 161              	.LVL7:
  47:main.c        ****             USB_OTG_FS_CORE_ID,
  48:main.c        ****             &USR_desc, 
  49:main.c        ****             &AUDIO_cb, 
  50:main.c        ****             &USR_cb);
  51:main.c        ****   
  52:main.c        ****   
  53:main.c        ****   simple_rec_start();//initialise MIC and start capture data from MIC
 162              		.loc 1 53 3 view .LVU16
 163 0046 FFF7FEFF 		bl	simple_rec_start		@
 164              	.LVL8:
  54:main.c        ****   
  55:main.c        ****   EVAL_AUDIO_Play((uint16_t*)(&audiodata[0]),MIC_FILTER_RESULT_LENGTH*2*2);//play data to speaker (
 165              		.loc 1 55 3 view .LVU17
 166 004a 0748     		ldr	r0, .L5+16	@,
 167 004c 4021     		movs	r1, #64	@,
 168 004e FFF7FEFF 		bl	EVAL_AUDIO_Play		@
 169              	.LVL9:
 170              	.L2:
ARM GAS  C:\Users\admin\AppData\Local\Temp\cc3TavuX.s 			page 5


  56:main.c        ****   
  57:main.c        ****   while(1)
 171              		.loc 1 57 3 discriminator 1 view .LVU18
  58:main.c        ****   {
  59:main.c        ****     asm("nop");
 172              		.loc 1 59 5 discriminator 1 view .LVU19
 173              		.syntax unified
 174              	@ 59 "main.c" 1
 175 0052 00BF     		nop
 176              	@ 0 "" 2
  57:main.c        ****   {
 177              		.loc 1 57 8 discriminator 1 view .LVU20
 178              		.thumb
 179              		.syntax unified
 180 0054 FDE7     		b	.L2		@
 181              	.L6:
 182 0056 00BF     		.align	2
 183              	.L5:
 184 0058 00000000 		.word	USR_cb
 185 005c 00000000 		.word	.LANCHOR0
 186 0060 00000000 		.word	AUDIO_cb
 187 0064 00000000 		.word	USR_desc
 188 0068 00000000 		.word	.LANCHOR1
 189              		.cfi_endproc
 190              	.LFE113:
 191              		.size	main, .-main
 192              		.section	.text.delay_ms,"ax",%progbits
 193              		.align	1
 194              		.p2align 2,,3
 195              		.global	delay_ms
 196              		.syntax unified
 197              		.thumb
 198              		.thumb_func
 199              		.type	delay_ms, %function
 200              	delay_ms:
 201              	.LVL10:
 202              	.LFB114:
  60:main.c        ****   }
  61:main.c        **** }
  62:main.c        **** 
  63:main.c        **** 
  64:main.c        **** void delay_ms(uint32_t ms)
  65:main.c        **** {
 203              		.loc 1 65 1 view -0
 204              		.cfi_startproc
 205              		@ args = 0, pretend = 0, frame = 24
 206              		@ frame_needed = 0, uses_anonymous_args = 0
  66:main.c        ****   volatile uint32_t nCount;
 207              		.loc 1 66 3 view .LVU22
  67:main.c        ****   RCC_ClocksTypeDef RCC_Clocks;
 208              		.loc 1 67 3 view .LVU23
  68:main.c        ****   RCC_GetClocksFreq (&RCC_Clocks);
 209              		.loc 1 68 3 view .LVU24
 210              	@ main.c:65: {
  65:main.c        ****   volatile uint32_t nCount;
 211              		.loc 1 65 1 is_stmt 0 view .LVU25
 212 0000 10B5     		push	{r4, lr}	@
ARM GAS  C:\Users\admin\AppData\Local\Temp\cc3TavuX.s 			page 6


 213              		.cfi_def_cfa_offset 8
 214              		.cfi_offset 4, -8
 215              		.cfi_offset 14, -4
 216 0002 86B0     		sub	sp, sp, #24	@,,
 217              		.cfi_def_cfa_offset 32
 218              	@ main.c:65: {
  65:main.c        ****   volatile uint32_t nCount;
 219              		.loc 1 65 1 view .LVU26
 220 0004 0446     		mov	r4, r0	@ tmp126, ms
 221              	@ main.c:68:   RCC_GetClocksFreq (&RCC_Clocks);
 222              		.loc 1 68 3 view .LVU27
 223 0006 02A8     		add	r0, sp, #8	@,,
 224              	.LVL11:
 225              		.loc 1 68 3 view .LVU28
 226 0008 FFF7FEFF 		bl	RCC_GetClocksFreq		@
 227              	.LVL12:
  69:main.c        ****   nCount=(RCC_Clocks.HCLK_Frequency/10000)*ms;
 228              		.loc 1 69 3 is_stmt 1 view .LVU29
 229              	@ main.c:69:   nCount=(RCC_Clocks.HCLK_Frequency/10000)*ms;
 230              		.loc 1 69 36 is_stmt 0 view .LVU30
 231 000c 039B     		ldr	r3, [sp, #12]	@ RCC_Clocks.HCLK_Frequency, RCC_Clocks.HCLK_Frequency
 232 000e 0848     		ldr	r0, .L15	@ tmp125,
 233 0010 A0FB0323 		umull	r2, r3, r0, r3	@ tmp128, tmp124, tmp125, RCC_Clocks.HCLK_Frequency
 234 0014 5B0B     		lsrs	r3, r3, #13	@ tmp122, tmp124,
 235              	@ main.c:69:   nCount=(RCC_Clocks.HCLK_Frequency/10000)*ms;
 236              		.loc 1 69 43 view .LVU31
 237 0016 04FB03F3 		mul	r3, r4, r3	@ _3, ms, tmp122
 238              	@ main.c:69:   nCount=(RCC_Clocks.HCLK_Frequency/10000)*ms;
 239              		.loc 1 69 9 view .LVU32
 240 001a 0193     		str	r3, [sp, #4]	@ _3, nCount
  70:main.c        ****   for (; nCount!=0; nCount--);
 241              		.loc 1 70 3 is_stmt 1 view .LVU33
 242              		.loc 1 70 10 view .LVU34
 243              	@ main.c:70:   for (; nCount!=0; nCount--);
 244              		.loc 1 70 16 is_stmt 0 view .LVU35
 245 001c 019B     		ldr	r3, [sp, #4]	@ nCount.1_15, nCount
 246              	@ main.c:70:   for (; nCount!=0; nCount--);
 247              		.loc 1 70 3 view .LVU36
 248 001e 2BB1     		cbz	r3, .L7	@ nCount.1_15,
 249              	.L9:
 250              		.loc 1 70 30 is_stmt 1 discriminator 2 view .LVU37
 251              		.loc 1 70 21 discriminator 2 view .LVU38
 252              	@ main.c:70:   for (; nCount!=0; nCount--);
 253              		.loc 1 70 27 is_stmt 0 discriminator 2 view .LVU39
 254 0020 019B     		ldr	r3, [sp, #4]	@ nCount.0_4, nCount
 255 0022 013B     		subs	r3, r3, #1	@ _5, nCount.0_4,
 256 0024 0193     		str	r3, [sp, #4]	@ _5, nCount
 257              		.loc 1 70 10 is_stmt 1 discriminator 2 view .LVU40
 258              	@ main.c:70:   for (; nCount!=0; nCount--);
 259              		.loc 1 70 16 is_stmt 0 discriminator 2 view .LVU41
 260 0026 019B     		ldr	r3, [sp, #4]	@ nCount.1_6, nCount
 261              	@ main.c:70:   for (; nCount!=0; nCount--);
 262              		.loc 1 70 3 discriminator 2 view .LVU42
 263 0028 002B     		cmp	r3, #0	@ nCount.1_6
 264 002a F9D1     		bne	.L9	@
 265              	.L7:
 266              	@ main.c:71: }
ARM GAS  C:\Users\admin\AppData\Local\Temp\cc3TavuX.s 			page 7


  71:main.c        **** }
 267              		.loc 1 71 1 view .LVU43
 268 002c 06B0     		add	sp, sp, #24	@,,
 269              		.cfi_def_cfa_offset 8
 270              		@ sp needed	@
 271 002e 10BD     		pop	{r4, pc}	@
 272              	.LVL13:
 273              	.L16:
 274              		.loc 1 71 1 view .LVU44
 275              		.align	2
 276              	.L15:
 277 0030 5917B7D1 		.word	-776530087
 278              		.cfi_endproc
 279              	.LFE114:
 280              		.size	delay_ms, .-delay_ms
 281              		.section	.text.Delay,"ax",%progbits
 282              		.align	1
 283              		.p2align 2,,3
 284              		.global	Delay
 285              		.syntax unified
 286              		.thumb
 287              		.thumb_func
 288              		.type	Delay, %function
 289              	Delay:
 290              	.LVL14:
 291              	.LFB115:
  72:main.c        **** 
  73:main.c        **** 
  74:main.c        **** void Delay(__IO uint32_t nTime)
  75:main.c        **** {
 292              		.loc 1 75 1 is_stmt 1 view -0
 293              		.cfi_startproc
 294              		@ args = 0, pretend = 0, frame = 8
 295              		@ frame_needed = 0, uses_anonymous_args = 0
 296              		@ link register save eliminated.
  76:main.c        ****   TimingDelay = nTime;
 297              		.loc 1 76 3 view .LVU46
 298              	@ main.c:75: {
  75:main.c        ****   TimingDelay = nTime;
 299              		.loc 1 75 1 is_stmt 0 view .LVU47
 300 0000 82B0     		sub	sp, sp, #8	@,,
 301              		.cfi_def_cfa_offset 8
 302              	@ main.c:76:   TimingDelay = nTime;
 303              		.loc 1 76 15 view .LVU48
 304 0002 044A     		ldr	r2, .L21	@ tmp117,
 305              	@ main.c:75: {
  75:main.c        ****   TimingDelay = nTime;
 306              		.loc 1 75 1 view .LVU49
 307 0004 0190     		str	r0, [sp, #4]	@ nTime, nTime
 308              	@ main.c:76:   TimingDelay = nTime;
 309              		.loc 1 76 15 view .LVU50
 310 0006 019B     		ldr	r3, [sp, #4]	@ nTime.2_1, nTime
 311 0008 1360     		str	r3, [r2]	@ nTime.2_1, TimingDelay
  77:main.c        **** 
  78:main.c        ****   while(TimingDelay != 0);
 312              		.loc 1 78 3 is_stmt 1 view .LVU51
 313              	.L18:
ARM GAS  C:\Users\admin\AppData\Local\Temp\cc3TavuX.s 			page 8


 314              		.loc 1 78 26 discriminator 1 view .LVU52
 315              		.loc 1 78 8 discriminator 1 view .LVU53
 316              	@ main.c:78:   while(TimingDelay != 0);
 317              		.loc 1 78 21 is_stmt 0 discriminator 1 view .LVU54
 318 000a 1368     		ldr	r3, [r2]	@ TimingDelay.3_2, TimingDelay
 319              	@ main.c:78:   while(TimingDelay != 0);
 320              		.loc 1 78 8 discriminator 1 view .LVU55
 321 000c 002B     		cmp	r3, #0	@ TimingDelay.3_2
 322 000e FCD1     		bne	.L18	@
 323              	@ main.c:79: }
  79:main.c        **** }
 324              		.loc 1 79 1 view .LVU56
 325 0010 02B0     		add	sp, sp, #8	@,,
 326              		.cfi_def_cfa_offset 0
 327              		@ sp needed	@
 328 0012 7047     		bx	lr	@
 329              	.L22:
 330              		.align	2
 331              	.L21:
 332 0014 00000000 		.word	.LANCHOR2
 333              		.cfi_endproc
 334              	.LFE115:
 335              		.size	Delay, .-Delay
 336              		.section	.text.TimingDelay_Decrement,"ax",%progbits
 337              		.align	1
 338              		.p2align 2,,3
 339              		.global	TimingDelay_Decrement
 340              		.syntax unified
 341              		.thumb
 342              		.thumb_func
 343              		.type	TimingDelay_Decrement, %function
 344              	TimingDelay_Decrement:
 345              	.LFB116:
  80:main.c        **** 
  81:main.c        **** 
  82:main.c        **** void TimingDelay_Decrement(void)
  83:main.c        **** {
 346              		.loc 1 83 1 is_stmt 1 view -0
 347              		.cfi_startproc
 348              		@ args = 0, pretend = 0, frame = 0
 349              		@ frame_needed = 0, uses_anonymous_args = 0
 350              		@ link register save eliminated.
  84:main.c        ****   if (TimingDelay != 0x00)
 351              		.loc 1 84 3 view .LVU58
 352              	@ main.c:84:   if (TimingDelay != 0x00)
 353              		.loc 1 84 19 is_stmt 0 view .LVU59
 354 0000 034B     		ldr	r3, .L28	@ tmp116,
 355 0002 1A68     		ldr	r2, [r3]	@ TimingDelay.4_1, TimingDelay
 356              	@ main.c:84:   if (TimingDelay != 0x00)
 357              		.loc 1 84 6 view .LVU60
 358 0004 12B1     		cbz	r2, .L23	@ TimingDelay.4_1,
  85:main.c        ****   {
  86:main.c        ****     TimingDelay--;
 359              		.loc 1 86 5 is_stmt 1 view .LVU61
 360              	@ main.c:86:     TimingDelay--;
 361              		.loc 1 86 16 is_stmt 0 view .LVU62
 362 0006 1A68     		ldr	r2, [r3]	@ TimingDelay.5_2, TimingDelay
ARM GAS  C:\Users\admin\AppData\Local\Temp\cc3TavuX.s 			page 9


 363 0008 013A     		subs	r2, r2, #1	@ _3, TimingDelay.5_2,
 364 000a 1A60     		str	r2, [r3]	@ _3, TimingDelay
 365              	.L23:
 366              	@ main.c:88: }
  87:main.c        ****   }
  88:main.c        **** }
 367              		.loc 1 88 1 view .LVU63
 368 000c 7047     		bx	lr	@
 369              	.L29:
 370 000e 00BF     		.align	2
 371              	.L28:
 372 0010 00000000 		.word	.LANCHOR2
 373              		.cfi_endproc
 374              	.LFE116:
 375              		.size	TimingDelay_Decrement, .-TimingDelay_Decrement
 376              		.section	.text.EVAL_AUDIO_TransferComplete_CallBack,"ax",%progbits
 377              		.align	1
 378              		.p2align 2,,3
 379              		.global	EVAL_AUDIO_TransferComplete_CallBack
 380              		.syntax unified
 381              		.thumb
 382              		.thumb_func
 383              		.type	EVAL_AUDIO_TransferComplete_CallBack, %function
 384              	EVAL_AUDIO_TransferComplete_CallBack:
 385              	.LVL15:
 386              	.LFB117:
  89:main.c        **** 
  90:main.c        **** //speaker CallBack - optional
  91:main.c        **** void EVAL_AUDIO_TransferComplete_CallBack(uint32_t* pBuffer, uint32_t Size)
  92:main.c        **** {
 387              		.loc 1 92 1 is_stmt 1 view -0
 388              		.cfi_startproc
 389              		@ args = 0, pretend = 0, frame = 0
 390              		@ frame_needed = 0, uses_anonymous_args = 0
 391              		@ link register save eliminated.
  93:main.c        ****   uint8_t i;
 392              		.loc 1 93 3 view .LVU65
  94:main.c        ****   //called after speaker data TransferComplete
  95:main.c        ****   asm("nop");
 393              		.loc 1 95 3 view .LVU66
 394              		.syntax unified
 395              	@ 95 "main.c" 1
 396 0000 00BF     		nop
 397              	@ 0 "" 2
  96:main.c        **** #ifdef AUDIO_MAL_MODE_NORMAL
  97:main.c        ****   for (i=0;i<(MIC_FILTER_RESULT_LENGTH*2);i++)
 398              		.loc 1 97 3 view .LVU67
 399              	.LVL16:
 400              		.loc 1 97 12 view .LVU68
 401              	@ main.c:99:     if (buffer_ready == 1) {
  98:main.c        ****   {
  99:main.c        ****     if (buffer_ready == 1) {
 402              		.loc 1 99 22 is_stmt 0 view .LVU69
 403              		.thumb
 404              		.syntax unified
 405 0002 0C4B     		ldr	r3, .L35	@ tmp124,
 406 0004 1B78     		ldrb	r3, [r3]	@ zero_extendqisi2	@ buffer_ready, buffer_ready
ARM GAS  C:\Users\admin\AppData\Local\Temp\cc3TavuX.s 			page 10


 407 0006 012B     		cmp	r3, #1	@ buffer_ready,
 408 0008 03D0     		beq	.L34		@,
 409              	.LVL17:
 100:main.c        ****        audiodata[i] = RecBuf1[i>>1];
 101:main.c        ****     } else { 
 102:main.c        **** 	RecBuf0[i>>1];
 103:main.c        ****     }//make pseudo-stereo
 104:main.c        ****   }
 105:main.c        ****   
 106:main.c        ****   EVAL_AUDIO_Play((uint16_t*)(&audiodata[0]),MIC_FILTER_RESULT_LENGTH*2*2);
 410              		.loc 1 106 3 is_stmt 1 view .LVU70
 411 000a 0B48     		ldr	r0, .L35+4	@,
 412              	.LVL18:
 413              		.loc 1 106 3 is_stmt 0 view .LVU71
 414 000c 4021     		movs	r1, #64	@,
 415              	.LVL19:
 416              		.loc 1 106 3 view .LVU72
 417 000e FFF7FEBF 		b	EVAL_AUDIO_Play		@
 418              	.LVL20:
 419              	.L34:
 420              		.loc 1 106 3 view .LVU73
 421 0012 0A4A     		ldr	r2, .L35+8	@ ivtmp.35,
 422 0014 0A48     		ldr	r0, .L35+12	@ tmp133,
 423              	.LVL21:
 424              	@ main.c:99:     if (buffer_ready == 1) {
  99:main.c        ****        audiodata[i] = RecBuf1[i>>1];
 425              		.loc 1 99 22 view .LVU74
 426 0016 0023     		movs	r3, #0	@ ivtmp.28,
 427              	.LVL22:
 428              	.L32:
  99:main.c        ****        audiodata[i] = RecBuf1[i>>1];
 429              		.loc 1 99 5 is_stmt 1 view .LVU75
 100:main.c        ****        audiodata[i] = RecBuf1[i>>1];
 430              		.loc 1 100 8 view .LVU76
 431              	@ main.c:100:        audiodata[i] = RecBuf1[i>>1];
 100:main.c        ****        audiodata[i] = RecBuf1[i>>1];
 432              		.loc 1 100 32 is_stmt 0 view .LVU77
 433 0018 C3F34601 		ubfx	r1, r3, #1, #7	@ tmp130, ivtmp.28,,
 434              	@ main.c:97:   for (i=0;i<(MIC_FILTER_RESULT_LENGTH*2);i++)
  97:main.c        ****   {
 435              		.loc 1 97 3 view .LVU78
 436 001c 0133     		adds	r3, r3, #1	@ ivtmp.28, ivtmp.28,
 437              	.LVL23:
 438              	@ main.c:100:        audiodata[i] = RecBuf1[i>>1];
 100:main.c        ****        audiodata[i] = RecBuf1[i>>1];
 439              		.loc 1 100 21 view .LVU79
 440 001e 30F81110 		ldrh	r1, [r0, r1, lsl #1]	@, RecBuf1[_3]
 441 0022 22F8021F 		strh	r1, [r2, #2]!	@ movhi	@ RecBuf1[_3], MEM[base: _21, offset: 0B]
  97:main.c        ****   {
 442              		.loc 1 97 43 is_stmt 1 view .LVU80
  97:main.c        ****   {
 443              		.loc 1 97 12 view .LVU81
 444              	@ main.c:97:   for (i=0;i<(MIC_FILTER_RESULT_LENGTH*2);i++)
  97:main.c        ****   {
 445              		.loc 1 97 3 is_stmt 0 view .LVU82
 446 0026 202B     		cmp	r3, #32	@ ivtmp.28,
 447 0028 F6D1     		bne	.L32		@,
ARM GAS  C:\Users\admin\AppData\Local\Temp\cc3TavuX.s 			page 11


 448              		.loc 1 106 3 is_stmt 1 view .LVU83
 449 002a 0348     		ldr	r0, .L35+4	@,
 450 002c 4021     		movs	r1, #64	@,
 451 002e FFF7FEBF 		b	EVAL_AUDIO_Play		@
 452              	.LVL24:
 453              	.L36:
 454 0032 00BF     		.align	2
 455              	.L35:
 456 0034 00000000 		.word	buffer_ready
 457 0038 00000000 		.word	.LANCHOR1
 458 003c FEFFFFFF 		.word	.LANCHOR1-2
 459 0040 00000000 		.word	RecBuf1
 460              		.cfi_endproc
 461              	.LFE117:
 462              		.size	EVAL_AUDIO_TransferComplete_CallBack, .-EVAL_AUDIO_TransferComplete_CallBack
 463              		.global	audiodata
 464              		.global	TimingDelay
 465              		.global	UserButtonPressed
 466              		.global	USB_OTG_dev
 467              		.section	.bss.TimingDelay,"aw",%nobits
 468              		.align	2
 469              		.set	.LANCHOR2,. + 0
 470              		.type	TimingDelay, %object
 471              		.size	TimingDelay, 4
 472              	TimingDelay:
 473 0000 00000000 		.space	4
 474              		.section	.bss.USB_OTG_dev,"aw",%nobits
 475              		.align	2
 476              		.set	.LANCHOR0,. + 0
 477              		.type	USB_OTG_dev, %object
 478              		.size	USB_OTG_dev, 1524
 479              	USB_OTG_dev:
 480 0000 00000000 		.space	1524
 480      00000000 
 480      00000000 
 480      00000000 
 480      00000000 
 481              		.section	.bss.UserButtonPressed,"aw",%nobits
 482              		.type	UserButtonPressed, %object
 483              		.size	UserButtonPressed, 1
 484              	UserButtonPressed:
 485 0000 00       		.space	1
 486              		.section	.bss.audiodata,"aw",%nobits
 487              		.align	2
 488              		.set	.LANCHOR1,. + 0
 489              		.type	audiodata, %object
 490              		.size	audiodata, 128
 491              	audiodata:
 492 0000 00000000 		.space	128
 492      00000000 
 492      00000000 
 492      00000000 
 492      00000000 
 493              		.text
 494              	.Letext0:
 495              		.file 2 "c:\\program files (x86)\\gnu arm embedded toolchain\\10 2021.10\\arm-none-eabi\\include\\
 496              		.file 3 "c:\\program files (x86)\\gnu arm embedded toolchain\\10 2021.10\\arm-none-eabi\\include\\
ARM GAS  C:\Users\admin\AppData\Local\Temp\cc3TavuX.s 			page 12


 497              		.file 4 "../Libraries/STM32F4xx_StdPeriph_Driver/inc/stm32f4xx_rcc.h"
 498              		.file 5 "../Utilities/STM32F4-Discovery/stm32f4_discovery.h"
 499              		.file 6 "../Libraries/STM32_USB_OTG_Driver/inc/usb_regs.h"
 500              		.file 7 "../Libraries/STM32_USB_OTG_Driver/inc/usb_defines.h"
 501              		.file 8 "../Libraries/STM32_USB_OTG_Driver/inc/usb_core.h"
 502              		.file 9 "./usbd_desc.h"
 503              		.file 10 "../Libraries/STM32_USB_Device_Library/Class/audio/inc/usbd_audio_core.h"
 504              		.file 11 "../Libraries/STM32_USB_Device_Library/Core/inc/usbd_usr.h"
 505              		.file 12 "../Utilities/STM32F4-Discovery/stm32f4_discovery_audio_codec.h"
 506              		.file 13 "../Libraries/STM32_USB_Device_Library/Core/inc/usbd_core.h"
 507              		.file 14 "waverecorder.h"