ARM GAS  C:\Users\admin\AppData\Local\Temp\ccvbMb1Q.s 			page 1


   1              		.cpu cortex-m4
   2              		.arch armv7e-m
   3              		.fpu fpv4-sp-d16
   4              		.eabi_attribute 27, 1	@ Tag_ABI_HardFP_use
   5              		.eabi_attribute 28, 1	@ Tag_ABI_VFP_args
   6              		.eabi_attribute 23, 1	@ Tag_ABI_FP_number_model
   7              		.eabi_attribute 24, 1	@ Tag_ABI_align8_needed
   8              		.eabi_attribute 25, 1	@ Tag_ABI_align8_preserved
   9              		.eabi_attribute 26, 1	@ Tag_ABI_enum_size
  10              		.eabi_attribute 30, 2	@ Tag_ABI_optimization_goals
  11              		.eabi_attribute 34, 1	@ Tag_CPU_unaligned_access
  12              		.eabi_attribute 18, 4	@ Tag_ABI_PCS_wchar_t
  13              		.file	"misc.c"
  14              	@ GNU C89 (GNU Arm Embedded Toolchain 10.3-2021.10) version 10.3.1 20210824 (release) (arm-none-eab
  15              	@	compiled by GNU C version 7.3-win32 20180312, GMP version 6.1.0, MPFR version 3.1.4, MPC version 
  16              	
  17              	@ GGC heuristics: --param ggc-min-expand=100 --param ggc-min-heapsize=131072
  18              	@ options passed:  -I . -I . -I ../Utilities/STM32F4-Discovery/
  19              	@ -I ../Libraries/STM32_USB_Device_Library/Class/audio/inc/
  20              	@ -I ../Libraries/STM32_USB_Device_Library/Core/inc/
  21              	@ -I ../Libraries/STM32_USB_OTG_Driver/inc/
  22              	@ -I ../Utilities/STM32F4-Discovery/
  23              	@ -I ../Libraries/STM32F4xx_StdPeriph_Driver/inc/
  24              	@ -I ../Utilities/STM32F4-Discovery/
  25              	@ -I ../Libraries/CMSIS/ST/STM32F4xx/Include/
  26              	@ -I ../Libraries/CMSIS/Include/ -imultilib thumb/v7e-m+fp/hard
  27              	@ -iprefix c:\program files (x86)\gnu arm embedded toolchain\10 2021.10\bin\../lib/gcc/arm-none-eab
  28              	@ -isysroot c:\program files (x86)\gnu arm embedded toolchain\10 2021.10\bin\../arm-none-eabi
  29              	@ -MD out/misc.d -MF out/misc.d -MP -MQ out/misc.o -D__USES_INITFINI__
  30              	@ -D STM32F4XX -D __VFP_FP__ -D USE_USB_OTG_FS
  31              	@ ../Libraries/STM32F4xx_StdPeriph_Driver/src/misc.c -mcpu=cortex-m4
  32              	@ -mthumb -mfloat-abi=hard -mfpu=fpv4-sp-d16 -mlibarch=armv7e-m+fp
  33              	@ -march=armv7e-m+fp -auxbase-strip out/misc.o -g -ggdb3 -O3 -Wall
  34              	@ -Wstrict-prototypes -Wextra -std=gnu90 -ffast-math -ffunction-sections
  35              	@ -fdata-sections -fverbose-asm
  36              	@ options enabled:  -faggressive-loop-optimizations -falign-functions
  37              	@ -falign-jumps -falign-labels -falign-loops -fallocation-dce
  38              	@ -fassociative-math -fauto-inc-dec -fbranch-count-reg -fcaller-saves
  39              	@ -fcombine-stack-adjustments -fcompare-elim -fcprop-registers
  40              	@ -fcrossjumping -fcse-follow-jumps -fcx-limited-range -fdata-sections
  41              	@ -fdefer-pop -fdelete-null-pointer-checks -fdevirtualize
  42              	@ -fdevirtualize-speculatively -fdwarf2-cfi-asm -fearly-inlining
  43              	@ -feliminate-unused-debug-symbols -feliminate-unused-debug-types
  44              	@ -fexpensive-optimizations -ffinite-math-only -fforward-propagate
  45              	@ -ffp-int-builtin-inexact -ffunction-cse -ffunction-sections -fgcse
  46              	@ -fgcse-after-reload -fgcse-lm -fgnu-unique -fguess-branch-probability
  47              	@ -fhoist-adjacent-loads -fident -fif-conversion -fif-conversion2
  48              	@ -findirect-inlining -finline -finline-atomics -finline-functions
  49              	@ -finline-functions-called-once -finline-small-functions -fipa-bit-cp
  50              	@ -fipa-cp -fipa-cp-clone -fipa-icf -fipa-icf-functions -fipa-icf-variables
  51              	@ -fipa-profile -fipa-pure-const -fipa-ra -fipa-reference
  52              	@ -fipa-reference-addressable -fipa-sra -fipa-stack-alignment -fipa-vrp
  53              	@ -fira-hoist-pressure -fira-share-save-slots -fira-share-spill-slots
  54              	@ -fisolate-erroneous-paths-dereference -fivopts -fkeep-static-consts
  55              	@ -fleading-underscore -flifetime-dse -floop-interchange
  56              	@ -floop-unroll-and-jam -flra-remat -fmerge-constants -fmerge-debug-strings
  57              	@ -fmove-loop-invariants -fomit-frame-pointer -foptimize-sibling-calls
ARM GAS  C:\Users\admin\AppData\Local\Temp\ccvbMb1Q.s 			page 2


  58              	@ -foptimize-strlen -fpartial-inlining -fpeel-loops -fpeephole -fpeephole2
  59              	@ -fplt -fpredictive-commoning -fprefetch-loop-arrays -freciprocal-math
  60              	@ -freg-struct-return -freorder-blocks -freorder-functions
  61              	@ -frerun-cse-after-loop -fsched-critical-path-heuristic
  62              	@ -fsched-dep-count-heuristic -fsched-group-heuristic -fsched-interblock
  63              	@ -fsched-last-insn-heuristic -fsched-pressure -fsched-rank-heuristic
  64              	@ -fsched-spec -fsched-spec-insn-heuristic -fsched-stalled-insns-dep
  65              	@ -fschedule-insns -fschedule-insns2 -fsection-anchors
  66              	@ -fsemantic-interposition -fshow-column -fshrink-wrap
  67              	@ -fshrink-wrap-separate -fsplit-ivs-in-unroller -fsplit-loops
  68              	@ -fsplit-paths -fsplit-wide-types -fssa-backprop -fssa-phiopt -fstdarg-opt
  69              	@ -fstore-merging -fstrict-aliasing -fstrict-volatile-bitfields
  70              	@ -fsync-libcalls -fthread-jumps -ftoplevel-reorder -ftree-bit-ccp
  71              	@ -ftree-builtin-call-dce -ftree-ccp -ftree-ch -ftree-coalesce-vars
  72              	@ -ftree-copy-prop -ftree-cselim -ftree-dce -ftree-dominator-opts
  73              	@ -ftree-dse -ftree-forwprop -ftree-fre -ftree-loop-distribute-patterns
  74              	@ -ftree-loop-distribution -ftree-loop-if-convert -ftree-loop-im
  75              	@ -ftree-loop-ivcanon -ftree-loop-optimize -ftree-loop-vectorize
  76              	@ -ftree-parallelize-loops= -ftree-partial-pre -ftree-phiprop -ftree-pre
  77              	@ -ftree-pta -ftree-reassoc -ftree-scev-cprop -ftree-sink
  78              	@ -ftree-slp-vectorize -ftree-slsr -ftree-sra -ftree-switch-conversion
  79              	@ -ftree-tail-merge -ftree-ter -ftree-vrp -funit-at-a-time
  80              	@ -funsafe-math-optimizations -funswitch-loops -fvar-tracking
  81              	@ -fvar-tracking-assignments -fverbose-asm -fversion-loops-for-strides
  82              	@ -fzero-initialized-in-bss -masm-syntax-unified -mbe32 -mlittle-endian
  83              	@ -mpic-data-is-text-relative -msched-prolog -mthumb -munaligned-access
  84              	@ -mvectorize-with-neon-quad
  85              	
  86              		.text
  87              	.Ltext0:
  88              		.cfi_sections	.debug_frame
  89              		.section	.text.NVIC_PriorityGroupConfig,"ax",%progbits
  90              		.align	1
  91              		.p2align 2,,3
  92              		.global	NVIC_PriorityGroupConfig
  93              		.syntax unified
  94              		.thumb
  95              		.thumb_func
  96              		.type	NVIC_PriorityGroupConfig, %function
  97              	NVIC_PriorityGroupConfig:
  98              	.LVL0:
  99              	.LFB110:
 100              		.file 1 "../Libraries/STM32F4xx_StdPeriph_Driver/src/misc.c"
   1:../Libraries/STM32F4xx_StdPeriph_Driver/src/misc.c **** /**
   2:../Libraries/STM32F4xx_StdPeriph_Driver/src/misc.c ****   ******************************************************************************
   3:../Libraries/STM32F4xx_StdPeriph_Driver/src/misc.c ****   * @file    misc.c
   4:../Libraries/STM32F4xx_StdPeriph_Driver/src/misc.c ****   * @author  MCD Application Team
   5:../Libraries/STM32F4xx_StdPeriph_Driver/src/misc.c ****   * @version V1.0.0
   6:../Libraries/STM32F4xx_StdPeriph_Driver/src/misc.c ****   * @date    30-September-2011
   7:../Libraries/STM32F4xx_StdPeriph_Driver/src/misc.c ****   * @brief   This file provides all the miscellaneous firmware functions (add-on
   8:../Libraries/STM32F4xx_StdPeriph_Driver/src/misc.c ****   *          to CMSIS functions).
   9:../Libraries/STM32F4xx_StdPeriph_Driver/src/misc.c ****   *          
  10:../Libraries/STM32F4xx_StdPeriph_Driver/src/misc.c ****   *  @verbatim   
  11:../Libraries/STM32F4xx_StdPeriph_Driver/src/misc.c ****   *                               
  12:../Libraries/STM32F4xx_StdPeriph_Driver/src/misc.c ****   *          ===================================================================      
  13:../Libraries/STM32F4xx_StdPeriph_Driver/src/misc.c ****   *                        How to configure Interrupts using driver 
  14:../Libraries/STM32F4xx_StdPeriph_Driver/src/misc.c ****   *          ===================================================================      
ARM GAS  C:\Users\admin\AppData\Local\Temp\ccvbMb1Q.s 			page 3


  15:../Libraries/STM32F4xx_StdPeriph_Driver/src/misc.c ****   * 
  16:../Libraries/STM32F4xx_StdPeriph_Driver/src/misc.c ****   *            This section provide functions allowing to configure the NVIC interrupts (IRQ).
  17:../Libraries/STM32F4xx_StdPeriph_Driver/src/misc.c ****   *            The Cortex-M4 exceptions are managed by CMSIS functions.
  18:../Libraries/STM32F4xx_StdPeriph_Driver/src/misc.c ****   *
  19:../Libraries/STM32F4xx_StdPeriph_Driver/src/misc.c ****   *            1. Configure the NVIC Priority Grouping using NVIC_PriorityGroupConfig()
  20:../Libraries/STM32F4xx_StdPeriph_Driver/src/misc.c ****   *                function according to the following table.
  21:../Libraries/STM32F4xx_StdPeriph_Driver/src/misc.c ****  
  22:../Libraries/STM32F4xx_StdPeriph_Driver/src/misc.c ****   *  The table below gives the allowed values of the pre-emption priority and subpriority according
  23:../Libraries/STM32F4xx_StdPeriph_Driver/src/misc.c ****   *  to the Priority Grouping configuration performed by NVIC_PriorityGroupConfig function
  24:../Libraries/STM32F4xx_StdPeriph_Driver/src/misc.c ****   *    ============================================================================================
  25:../Libraries/STM32F4xx_StdPeriph_Driver/src/misc.c ****   *      NVIC_PriorityGroup   | NVIC_IRQChannelPreemptionPriority | NVIC_IRQChannelSubPriority  |  
  26:../Libraries/STM32F4xx_StdPeriph_Driver/src/misc.c ****   *    ============================================================================================
  27:../Libraries/STM32F4xx_StdPeriph_Driver/src/misc.c ****   *     NVIC_PriorityGroup_0  |                0                  |            0-15             | 0
  28:../Libraries/STM32F4xx_StdPeriph_Driver/src/misc.c ****   *                           |                                   |                             | 4
  29:../Libraries/STM32F4xx_StdPeriph_Driver/src/misc.c ****   *    --------------------------------------------------------------------------------------------
  30:../Libraries/STM32F4xx_StdPeriph_Driver/src/misc.c ****   *     NVIC_PriorityGroup_1  |                0-1                |            0-7              | 1
  31:../Libraries/STM32F4xx_StdPeriph_Driver/src/misc.c ****   *                           |                                   |                             | 3
  32:../Libraries/STM32F4xx_StdPeriph_Driver/src/misc.c ****   *    --------------------------------------------------------------------------------------------
  33:../Libraries/STM32F4xx_StdPeriph_Driver/src/misc.c ****   *     NVIC_PriorityGroup_2  |                0-3                |            0-3              | 2
  34:../Libraries/STM32F4xx_StdPeriph_Driver/src/misc.c ****   *                           |                                   |                             | 2
  35:../Libraries/STM32F4xx_StdPeriph_Driver/src/misc.c ****   *    --------------------------------------------------------------------------------------------
  36:../Libraries/STM32F4xx_StdPeriph_Driver/src/misc.c ****   *     NVIC_PriorityGroup_3  |                0-7                |            0-1              | 3
  37:../Libraries/STM32F4xx_StdPeriph_Driver/src/misc.c ****   *                           |                                   |                             | 1
  38:../Libraries/STM32F4xx_StdPeriph_Driver/src/misc.c ****   *    --------------------------------------------------------------------------------------------
  39:../Libraries/STM32F4xx_StdPeriph_Driver/src/misc.c ****   *     NVIC_PriorityGroup_4  |                0-15               |            0                | 4
  40:../Libraries/STM32F4xx_StdPeriph_Driver/src/misc.c ****   *                           |                                   |                             | 0
  41:../Libraries/STM32F4xx_StdPeriph_Driver/src/misc.c ****   *    ============================================================================================
  42:../Libraries/STM32F4xx_StdPeriph_Driver/src/misc.c ****   *
  43:../Libraries/STM32F4xx_StdPeriph_Driver/src/misc.c ****   *            2. Enable and Configure the priority of the selected IRQ Channels using NVIC_Init() 
  44:../Libraries/STM32F4xx_StdPeriph_Driver/src/misc.c ****   *
  45:../Libraries/STM32F4xx_StdPeriph_Driver/src/misc.c ****   * @note  When the NVIC_PriorityGroup_0 is selected, IRQ pre-emption is no more possible. 
  46:../Libraries/STM32F4xx_StdPeriph_Driver/src/misc.c ****   *        The pending IRQ priority will be managed only by the subpriority.
  47:../Libraries/STM32F4xx_StdPeriph_Driver/src/misc.c ****   *
  48:../Libraries/STM32F4xx_StdPeriph_Driver/src/misc.c ****   * @note  IRQ priority order (sorted by highest to lowest priority):
  49:../Libraries/STM32F4xx_StdPeriph_Driver/src/misc.c ****   *         - Lowest pre-emption priority
  50:../Libraries/STM32F4xx_StdPeriph_Driver/src/misc.c ****   *         - Lowest subpriority
  51:../Libraries/STM32F4xx_StdPeriph_Driver/src/misc.c ****   *         - Lowest hardware priority (IRQ number)
  52:../Libraries/STM32F4xx_StdPeriph_Driver/src/misc.c ****   *
  53:../Libraries/STM32F4xx_StdPeriph_Driver/src/misc.c ****   *  @endverbatim
  54:../Libraries/STM32F4xx_StdPeriph_Driver/src/misc.c ****   *
  55:../Libraries/STM32F4xx_StdPeriph_Driver/src/misc.c ****   ******************************************************************************
  56:../Libraries/STM32F4xx_StdPeriph_Driver/src/misc.c ****   * @attention
  57:../Libraries/STM32F4xx_StdPeriph_Driver/src/misc.c ****   *
  58:../Libraries/STM32F4xx_StdPeriph_Driver/src/misc.c ****   * THE PRESENT FIRMWARE WHICH IS FOR GUIDANCE ONLY AIMS AT PROVIDING CUSTOMERS
  59:../Libraries/STM32F4xx_StdPeriph_Driver/src/misc.c ****   * WITH CODING INFORMATION REGARDING THEIR PRODUCTS IN ORDER FOR THEM TO SAVE
  60:../Libraries/STM32F4xx_StdPeriph_Driver/src/misc.c ****   * TIME. AS A RESULT, STMICROELECTRONICS SHALL NOT BE HELD LIABLE FOR ANY
  61:../Libraries/STM32F4xx_StdPeriph_Driver/src/misc.c ****   * DIRECT, INDIRECT OR CONSEQUENTIAL DAMAGES WITH RESPECT TO ANY CLAIMS ARISING
  62:../Libraries/STM32F4xx_StdPeriph_Driver/src/misc.c ****   * FROM THE CONTENT OF SUCH FIRMWARE AND/OR THE USE MADE BY CUSTOMERS OF THE
  63:../Libraries/STM32F4xx_StdPeriph_Driver/src/misc.c ****   * CODING INFORMATION CONTAINED HEREIN IN CONNECTION WITH THEIR PRODUCTS.
  64:../Libraries/STM32F4xx_StdPeriph_Driver/src/misc.c ****   *
  65:../Libraries/STM32F4xx_StdPeriph_Driver/src/misc.c ****   * <h2><center>&copy; COPYRIGHT 2011 STMicroelectronics</center></h2>
  66:../Libraries/STM32F4xx_StdPeriph_Driver/src/misc.c ****   ******************************************************************************
  67:../Libraries/STM32F4xx_StdPeriph_Driver/src/misc.c ****   */
  68:../Libraries/STM32F4xx_StdPeriph_Driver/src/misc.c **** 
  69:../Libraries/STM32F4xx_StdPeriph_Driver/src/misc.c **** /* Includes ------------------------------------------------------------------*/
  70:../Libraries/STM32F4xx_StdPeriph_Driver/src/misc.c **** #include "misc.h"
  71:../Libraries/STM32F4xx_StdPeriph_Driver/src/misc.c **** #include <stm32f4xx_conf.h>
ARM GAS  C:\Users\admin\AppData\Local\Temp\ccvbMb1Q.s 			page 4


  72:../Libraries/STM32F4xx_StdPeriph_Driver/src/misc.c **** /** @addtogroup STM32F4xx_StdPeriph_Driver
  73:../Libraries/STM32F4xx_StdPeriph_Driver/src/misc.c ****   * @{
  74:../Libraries/STM32F4xx_StdPeriph_Driver/src/misc.c ****   */
  75:../Libraries/STM32F4xx_StdPeriph_Driver/src/misc.c **** 
  76:../Libraries/STM32F4xx_StdPeriph_Driver/src/misc.c **** /** @defgroup MISC 
  77:../Libraries/STM32F4xx_StdPeriph_Driver/src/misc.c ****   * @brief MISC driver modules
  78:../Libraries/STM32F4xx_StdPeriph_Driver/src/misc.c ****   * @{
  79:../Libraries/STM32F4xx_StdPeriph_Driver/src/misc.c ****   */
  80:../Libraries/STM32F4xx_StdPeriph_Driver/src/misc.c **** 
  81:../Libraries/STM32F4xx_StdPeriph_Driver/src/misc.c **** /* Private typedef -----------------------------------------------------------*/
  82:../Libraries/STM32F4xx_StdPeriph_Driver/src/misc.c **** /* Private define ------------------------------------------------------------*/
  83:../Libraries/STM32F4xx_StdPeriph_Driver/src/misc.c **** #define AIRCR_VECTKEY_MASK    ((uint32_t)0x05FA0000)
  84:../Libraries/STM32F4xx_StdPeriph_Driver/src/misc.c **** 
  85:../Libraries/STM32F4xx_StdPeriph_Driver/src/misc.c **** /* Private macro -------------------------------------------------------------*/
  86:../Libraries/STM32F4xx_StdPeriph_Driver/src/misc.c **** /* Private variables ---------------------------------------------------------*/
  87:../Libraries/STM32F4xx_StdPeriph_Driver/src/misc.c **** /* Private function prototypes -----------------------------------------------*/
  88:../Libraries/STM32F4xx_StdPeriph_Driver/src/misc.c **** /* Private functions ---------------------------------------------------------*/
  89:../Libraries/STM32F4xx_StdPeriph_Driver/src/misc.c **** 
  90:../Libraries/STM32F4xx_StdPeriph_Driver/src/misc.c **** /** @defgroup MISC_Private_Functions
  91:../Libraries/STM32F4xx_StdPeriph_Driver/src/misc.c ****   * @{
  92:../Libraries/STM32F4xx_StdPeriph_Driver/src/misc.c ****   */
  93:../Libraries/STM32F4xx_StdPeriph_Driver/src/misc.c **** 
  94:../Libraries/STM32F4xx_StdPeriph_Driver/src/misc.c **** /**
  95:../Libraries/STM32F4xx_StdPeriph_Driver/src/misc.c ****   * @brief  Configures the priority grouping: pre-emption priority and subpriority.
  96:../Libraries/STM32F4xx_StdPeriph_Driver/src/misc.c ****   * @param  NVIC_PriorityGroup: specifies the priority grouping bits length. 
  97:../Libraries/STM32F4xx_StdPeriph_Driver/src/misc.c ****   *   This parameter can be one of the following values:
  98:../Libraries/STM32F4xx_StdPeriph_Driver/src/misc.c ****   *     @arg NVIC_PriorityGroup_0: 0 bits for pre-emption priority
  99:../Libraries/STM32F4xx_StdPeriph_Driver/src/misc.c ****   *                                4 bits for subpriority
 100:../Libraries/STM32F4xx_StdPeriph_Driver/src/misc.c ****   *     @arg NVIC_PriorityGroup_1: 1 bits for pre-emption priority
 101:../Libraries/STM32F4xx_StdPeriph_Driver/src/misc.c ****   *                                3 bits for subpriority
 102:../Libraries/STM32F4xx_StdPeriph_Driver/src/misc.c ****   *     @arg NVIC_PriorityGroup_2: 2 bits for pre-emption priority
 103:../Libraries/STM32F4xx_StdPeriph_Driver/src/misc.c ****   *                                2 bits for subpriority
 104:../Libraries/STM32F4xx_StdPeriph_Driver/src/misc.c ****   *     @arg NVIC_PriorityGroup_3: 3 bits for pre-emption priority
 105:../Libraries/STM32F4xx_StdPeriph_Driver/src/misc.c ****   *                                1 bits for subpriority
 106:../Libraries/STM32F4xx_StdPeriph_Driver/src/misc.c ****   *     @arg NVIC_PriorityGroup_4: 4 bits for pre-emption priority
 107:../Libraries/STM32F4xx_StdPeriph_Driver/src/misc.c ****   *                                0 bits for subpriority
 108:../Libraries/STM32F4xx_StdPeriph_Driver/src/misc.c ****   * @note   When the NVIC_PriorityGroup_0 is selected, IRQ pre-emption is no more possible. 
 109:../Libraries/STM32F4xx_StdPeriph_Driver/src/misc.c ****   *         The pending IRQ priority will be managed only by the subpriority. 
 110:../Libraries/STM32F4xx_StdPeriph_Driver/src/misc.c ****   * @retval None
 111:../Libraries/STM32F4xx_StdPeriph_Driver/src/misc.c ****   */
 112:../Libraries/STM32F4xx_StdPeriph_Driver/src/misc.c **** void NVIC_PriorityGroupConfig(uint32_t NVIC_PriorityGroup)
 113:../Libraries/STM32F4xx_StdPeriph_Driver/src/misc.c **** {
 101              		.loc 1 113 1 view -0
 102              		.cfi_startproc
 103              		@ args = 0, pretend = 0, frame = 0
 104              		@ frame_needed = 0, uses_anonymous_args = 0
 105              		@ link register save eliminated.
 114:../Libraries/STM32F4xx_StdPeriph_Driver/src/misc.c ****   /* Check the parameters */
 115:../Libraries/STM32F4xx_StdPeriph_Driver/src/misc.c ****   assert_param(IS_NVIC_PRIORITY_GROUP(NVIC_PriorityGroup));
 106              		.loc 1 115 3 view .LVU1
 116:../Libraries/STM32F4xx_StdPeriph_Driver/src/misc.c ****   
 117:../Libraries/STM32F4xx_StdPeriph_Driver/src/misc.c ****   /* Set the PRIGROUP[10:8] bits according to NVIC_PriorityGroup value */
 118:../Libraries/STM32F4xx_StdPeriph_Driver/src/misc.c ****   SCB->AIRCR = AIRCR_VECTKEY_MASK | NVIC_PriorityGroup;
 107              		.loc 1 118 3 view .LVU2
 108              	@ ../Libraries/STM32F4xx_StdPeriph_Driver/src/misc.c:118:   SCB->AIRCR = AIRCR_VECTKEY_MASK | NVIC_
 109              		.loc 1 118 14 is_stmt 0 view .LVU3
 110 0000 034B     		ldr	r3, .L3	@ tmp116,
ARM GAS  C:\Users\admin\AppData\Local\Temp\ccvbMb1Q.s 			page 5


 111              	@ ../Libraries/STM32F4xx_StdPeriph_Driver/src/misc.c:118:   SCB->AIRCR = AIRCR_VECTKEY_MASK | NVIC_
 112              		.loc 1 118 35 view .LVU4
 113 0002 40F0BF60 		orr	r0, r0, #100139008	@ _1, tmp117,
 114              	.LVL1:
 115              		.loc 1 118 35 view .LVU5
 116 0006 40F40030 		orr	r0, r0, #131072	@ _1, _1,
 117              	@ ../Libraries/STM32F4xx_StdPeriph_Driver/src/misc.c:118:   SCB->AIRCR = AIRCR_VECTKEY_MASK | NVIC_
 118              		.loc 1 118 14 view .LVU6
 119 000a D860     		str	r0, [r3, #12]	@ _1, MEM[(struct SCB_Type *)3758157056B].AIRCR
 120              	@ ../Libraries/STM32F4xx_StdPeriph_Driver/src/misc.c:119: }
 119:../Libraries/STM32F4xx_StdPeriph_Driver/src/misc.c **** }
 121              		.loc 1 119 1 view .LVU7
 122 000c 7047     		bx	lr	@
 123              	.L4:
 124 000e 00BF     		.align	2
 125              	.L3:
 126 0010 00ED00E0 		.word	-536810240
 127              		.cfi_endproc
 128              	.LFE110:
 129              		.size	NVIC_PriorityGroupConfig, .-NVIC_PriorityGroupConfig
 130              		.section	.text.NVIC_Init,"ax",%progbits
 131              		.align	1
 132              		.p2align 2,,3
 133              		.global	NVIC_Init
 134              		.syntax unified
 135              		.thumb
 136              		.thumb_func
 137              		.type	NVIC_Init, %function
 138              	NVIC_Init:
 139              	.LVL2:
 140              	.LFB111:
 120:../Libraries/STM32F4xx_StdPeriph_Driver/src/misc.c **** 
 121:../Libraries/STM32F4xx_StdPeriph_Driver/src/misc.c **** /**
 122:../Libraries/STM32F4xx_StdPeriph_Driver/src/misc.c ****   * @brief  Initializes the NVIC peripheral according to the specified
 123:../Libraries/STM32F4xx_StdPeriph_Driver/src/misc.c ****   *         parameters in the NVIC_InitStruct.
 124:../Libraries/STM32F4xx_StdPeriph_Driver/src/misc.c ****   * @note   To configure interrupts priority correctly, the NVIC_PriorityGroupConfig()
 125:../Libraries/STM32F4xx_StdPeriph_Driver/src/misc.c ****   *         function should be called before. 
 126:../Libraries/STM32F4xx_StdPeriph_Driver/src/misc.c ****   * @param  NVIC_InitStruct: pointer to a NVIC_InitTypeDef structure that contains
 127:../Libraries/STM32F4xx_StdPeriph_Driver/src/misc.c ****   *         the configuration information for the specified NVIC peripheral.
 128:../Libraries/STM32F4xx_StdPeriph_Driver/src/misc.c ****   * @retval None
 129:../Libraries/STM32F4xx_StdPeriph_Driver/src/misc.c ****   */
 130:../Libraries/STM32F4xx_StdPeriph_Driver/src/misc.c **** void NVIC_Init(NVIC_InitTypeDef* NVIC_InitStruct)
 131:../Libraries/STM32F4xx_StdPeriph_Driver/src/misc.c **** {
 141              		.loc 1 131 1 is_stmt 1 view -0
 142              		.cfi_startproc
 143              		@ args = 0, pretend = 0, frame = 0
 144              		@ frame_needed = 0, uses_anonymous_args = 0
 145              		@ link register save eliminated.
 132:../Libraries/STM32F4xx_StdPeriph_Driver/src/misc.c ****   uint8_t tmppriority = 0x00, tmppre = 0x00, tmpsub = 0x0F;
 146              		.loc 1 132 3 view .LVU9
 133:../Libraries/STM32F4xx_StdPeriph_Driver/src/misc.c ****   
 134:../Libraries/STM32F4xx_StdPeriph_Driver/src/misc.c ****   /* Check the parameters */
 135:../Libraries/STM32F4xx_StdPeriph_Driver/src/misc.c ****   assert_param(IS_FUNCTIONAL_STATE(NVIC_InitStruct->NVIC_IRQChannelCmd));
 147              		.loc 1 135 3 view .LVU10
 136:../Libraries/STM32F4xx_StdPeriph_Driver/src/misc.c ****   assert_param(IS_NVIC_PREEMPTION_PRIORITY(NVIC_InitStruct->NVIC_IRQChannelPreemptionPriority));  
 148              		.loc 1 136 3 view .LVU11
 137:../Libraries/STM32F4xx_StdPeriph_Driver/src/misc.c ****   assert_param(IS_NVIC_SUB_PRIORITY(NVIC_InitStruct->NVIC_IRQChannelSubPriority));
ARM GAS  C:\Users\admin\AppData\Local\Temp\ccvbMb1Q.s 			page 6


 149              		.loc 1 137 3 view .LVU12
 138:../Libraries/STM32F4xx_StdPeriph_Driver/src/misc.c ****     
 139:../Libraries/STM32F4xx_StdPeriph_Driver/src/misc.c ****   if (NVIC_InitStruct->NVIC_IRQChannelCmd != DISABLE)
 150              		.loc 1 139 3 view .LVU13
 151              	@ ../Libraries/STM32F4xx_StdPeriph_Driver/src/misc.c:139:   if (NVIC_InitStruct->NVIC_IRQChannelCmd
 152              		.loc 1 139 6 is_stmt 0 view .LVU14
 153 0000 C378     		ldrb	r3, [r0, #3]	@ zero_extendqisi2	@ NVIC_InitStruct_29(D)->NVIC_IRQChannelCmd, NVIC_InitStruct_
 154 0002 23B3     		cbz	r3, .L6	@ NVIC_InitStruct_29(D)->NVIC_IRQChannelCmd,
 140:../Libraries/STM32F4xx_StdPeriph_Driver/src/misc.c ****   {
 141:../Libraries/STM32F4xx_StdPeriph_Driver/src/misc.c ****     /* Compute the Corresponding IRQ Priority --------------------------------*/    
 142:../Libraries/STM32F4xx_StdPeriph_Driver/src/misc.c ****     tmppriority = (0x700 - ((SCB->AIRCR) & (uint32_t)0x700))>> 0x08;
 155              		.loc 1 142 5 is_stmt 1 view .LVU15
 156              	@ ../Libraries/STM32F4xx_StdPeriph_Driver/src/misc.c:142:     tmppriority = (0x700 - ((SCB->AIRCR) 
 157              		.loc 1 142 33 is_stmt 0 view .LVU16
 158 0004 184B     		ldr	r3, .L8	@ tmp147,
 159              	@ ../Libraries/STM32F4xx_StdPeriph_Driver/src/misc.c:146:     tmppriority = NVIC_InitStruct->NVIC_I
 143:../Libraries/STM32F4xx_StdPeriph_Driver/src/misc.c ****     tmppre = (0x4 - tmppriority);
 144:../Libraries/STM32F4xx_StdPeriph_Driver/src/misc.c ****     tmpsub = tmpsub >> tmppriority;
 145:../Libraries/STM32F4xx_StdPeriph_Driver/src/misc.c **** 
 146:../Libraries/STM32F4xx_StdPeriph_Driver/src/misc.c ****     tmppriority = NVIC_InitStruct->NVIC_IRQChannelPreemptionPriority << tmppre;
 160              		.loc 1 146 34 view .LVU17
 161 0006 90F801C0 		ldrb	ip, [r0, #1]	@ zero_extendqisi2	@ NVIC_InitStruct_29(D)->NVIC_IRQChannelPreemptionPriority, N
 162              	@ ../Libraries/STM32F4xx_StdPeriph_Driver/src/misc.c:142:     tmppriority = (0x700 - ((SCB->AIRCR) 
 142:../Libraries/STM32F4xx_StdPeriph_Driver/src/misc.c ****     tmppre = (0x4 - tmppriority);
 163              		.loc 1 142 33 view .LVU18
 164 000a D968     		ldr	r1, [r3, #12]	@ _2, MEM[(struct SCB_Type *)3758157056B].AIRCR
 165              	@ ../Libraries/STM32F4xx_StdPeriph_Driver/src/misc.c:147:     tmppriority |=  (uint8_t)(NVIC_InitSt
 147:../Libraries/STM32F4xx_StdPeriph_Driver/src/misc.c ****     tmppriority |=  (uint8_t)(NVIC_InitStruct->NVIC_IRQChannelSubPriority & tmpsub);
 166              		.loc 1 147 21 view .LVU19
 167 000c 8278     		ldrb	r2, [r0, #2]	@ zero_extendqisi2	@ NVIC_InitStruct_29(D)->NVIC_IRQChannelSubPriority, NVIC_Ini
 168              	@ ../Libraries/STM32F4xx_StdPeriph_Driver/src/misc.c:151:     NVIC->IP[NVIC_InitStruct->NVIC_IRQCha
 148:../Libraries/STM32F4xx_StdPeriph_Driver/src/misc.c ****         
 149:../Libraries/STM32F4xx_StdPeriph_Driver/src/misc.c ****     tmppriority = tmppriority << 0x04;
 150:../Libraries/STM32F4xx_StdPeriph_Driver/src/misc.c ****         
 151:../Libraries/STM32F4xx_StdPeriph_Driver/src/misc.c ****     NVIC->IP[NVIC_InitStruct->NVIC_IRQChannel] = tmppriority;
 169              		.loc 1 151 29 view .LVU20
 170 000e 0078     		ldrb	r0, [r0]	@ zero_extendqisi2	@ _14, NVIC_InitStruct_29(D)->NVIC_IRQChannel
 171              	.LVL3:
 172              	@ ../Libraries/STM32F4xx_StdPeriph_Driver/src/misc.c:142:     tmppriority = (0x700 - ((SCB->AIRCR) 
 142:../Libraries/STM32F4xx_StdPeriph_Driver/src/misc.c ****     tmppre = (0x4 - tmppriority);
 173              		.loc 1 142 26 view .LVU21
 174 0010 C943     		mvns	r1, r1	@ tmp148, _2
 175              	@ ../Libraries/STM32F4xx_StdPeriph_Driver/src/misc.c:142:     tmppriority = (0x700 - ((SCB->AIRCR) 
 142:../Libraries/STM32F4xx_StdPeriph_Driver/src/misc.c ****     tmppre = (0x4 - tmppriority);
 176              		.loc 1 142 17 view .LVU22
 177 0012 C1F30221 		ubfx	r1, r1, #8, #3	@ tmppriority, tmp148,,
 178              	.LVL4:
 143:../Libraries/STM32F4xx_StdPeriph_Driver/src/misc.c ****     tmpsub = tmpsub >> tmppriority;
 179              		.loc 1 143 5 is_stmt 1 view .LVU23
 144:../Libraries/STM32F4xx_StdPeriph_Driver/src/misc.c **** 
 180              		.loc 1 144 5 view .LVU24
 146:../Libraries/STM32F4xx_StdPeriph_Driver/src/misc.c ****     tmppriority |=  (uint8_t)(NVIC_InitStruct->NVIC_IRQChannelSubPriority & tmpsub);
 181              		.loc 1 146 5 view .LVU25
 182              	@ ../Libraries/STM32F4xx_StdPeriph_Driver/src/misc.c:143:     tmppre = (0x4 - tmppriority);
 143:../Libraries/STM32F4xx_StdPeriph_Driver/src/misc.c ****     tmpsub = tmpsub >> tmppriority;
 183              		.loc 1 143 12 is_stmt 0 view .LVU26
 184 0016 C1F10403 		rsb	r3, r1, #4	@ tmp153, tmppriority,
ARM GAS  C:\Users\admin\AppData\Local\Temp\ccvbMb1Q.s 			page 7


 185              	@ ../Libraries/STM32F4xx_StdPeriph_Driver/src/misc.c:146:     tmppriority = NVIC_InitStruct->NVIC_I
 146:../Libraries/STM32F4xx_StdPeriph_Driver/src/misc.c ****     tmppriority |=  (uint8_t)(NVIC_InitStruct->NVIC_IRQChannelSubPriority & tmpsub);
 186              		.loc 1 146 70 view .LVU27
 187 001a DBB2     		uxtb	r3, r3	@ tmp154, tmp153
 188 001c 0CFA03FC 		lsl	ip, ip, r3	@ _11, NVIC_InitStruct_29(D)->NVIC_IRQChannelPreemptionPriority, tmp154
 189              	@ ../Libraries/STM32F4xx_StdPeriph_Driver/src/misc.c:144:     tmpsub = tmpsub >> tmppriority;
 144:../Libraries/STM32F4xx_StdPeriph_Driver/src/misc.c **** 
 190              		.loc 1 144 21 view .LVU28
 191 0020 0F23     		movs	r3, #15	@ tmp156,
 192 0022 0B41     		asrs	r3, r3, r1	@ tmp155, tmp156, tmppriority
 193              	@ ../Libraries/STM32F4xx_StdPeriph_Driver/src/misc.c:146:     tmppriority = NVIC_InitStruct->NVIC_I
 146:../Libraries/STM32F4xx_StdPeriph_Driver/src/misc.c ****     tmppriority |=  (uint8_t)(NVIC_InitStruct->NVIC_IRQChannelSubPriority & tmpsub);
 194              		.loc 1 146 17 view .LVU29
 195 0024 5FFA8CFC 		uxtb	ip, ip	@ tmppriority, _11
 196              	.LVL5:
 147:../Libraries/STM32F4xx_StdPeriph_Driver/src/misc.c ****         
 197              		.loc 1 147 5 is_stmt 1 view .LVU30
 198              	@ ../Libraries/STM32F4xx_StdPeriph_Driver/src/misc.c:151:     NVIC->IP[NVIC_InitStruct->NVIC_IRQCha
 199              		.loc 1 151 48 is_stmt 0 view .LVU31
 200 0028 1049     		ldr	r1, .L8+4	@ tmp163,
 201              	.LVL6:
 202              	@ ../Libraries/STM32F4xx_StdPeriph_Driver/src/misc.c:147:     tmppriority |=  (uint8_t)(NVIC_InitSt
 147:../Libraries/STM32F4xx_StdPeriph_Driver/src/misc.c ****         
 203              		.loc 1 147 21 view .LVU32
 204 002a 1340     		ands	r3, r3, r2	@, _13, tmp155, NVIC_InitStruct_29(D)->NVIC_IRQChannelSubPriority
 205              	@ ../Libraries/STM32F4xx_StdPeriph_Driver/src/misc.c:147:     tmppriority |=  (uint8_t)(NVIC_InitSt
 147:../Libraries/STM32F4xx_StdPeriph_Driver/src/misc.c ****         
 206              		.loc 1 147 17 view .LVU33
 207 002c 43EA0C03 		orr	r3, r3, ip	@ tmppriority, _13, tmppriority
 208              	.LVL7:
 149:../Libraries/STM32F4xx_StdPeriph_Driver/src/misc.c ****         
 209              		.loc 1 149 5 is_stmt 1 view .LVU34
 210              	@ ../Libraries/STM32F4xx_StdPeriph_Driver/src/misc.c:149:     tmppriority = tmppriority << 0x04;
 149:../Libraries/STM32F4xx_StdPeriph_Driver/src/misc.c ****         
 211              		.loc 1 149 17 is_stmt 0 view .LVU35
 212 0030 1B01     		lsls	r3, r3, #4	@ tmp162, tmppriority,
 213              	.LVL8:
 214              	@ ../Libraries/STM32F4xx_StdPeriph_Driver/src/misc.c:151:     NVIC->IP[NVIC_InitStruct->NVIC_IRQCha
 215              		.loc 1 151 48 view .LVU36
 216 0032 01EB000C 		add	ip, r1, r0	@ tmp164, tmp163, _14
 217              	@ ../Libraries/STM32F4xx_StdPeriph_Driver/src/misc.c:149:     tmppriority = tmppriority << 0x04;
 149:../Libraries/STM32F4xx_StdPeriph_Driver/src/misc.c ****         
 218              		.loc 1 149 17 view .LVU37
 219 0036 DBB2     		uxtb	r3, r3	@ tmppriority, tmp162
 220              	.LVL9:
 221              		.loc 1 151 5 is_stmt 1 view .LVU38
 222              	@ ../Libraries/STM32F4xx_StdPeriph_Driver/src/misc.c:154:     NVIC->ISER[NVIC_InitStruct->NVIC_IRQC
 152:../Libraries/STM32F4xx_StdPeriph_Driver/src/misc.c ****     
 153:../Libraries/STM32F4xx_StdPeriph_Driver/src/misc.c ****     /* Enable the Selected IRQ Channels --------------------------------------*/
 154:../Libraries/STM32F4xx_StdPeriph_Driver/src/misc.c ****     NVIC->ISER[NVIC_InitStruct->NVIC_IRQChannel >> 0x05] =
 223              		.loc 1 154 49 is_stmt 0 view .LVU39
 224 0038 4209     		lsrs	r2, r0, #5	@ _18, _14,
 225              	@ ../Libraries/STM32F4xx_StdPeriph_Driver/src/misc.c:151:     NVIC->IP[NVIC_InitStruct->NVIC_IRQCha
 151:../Libraries/STM32F4xx_StdPeriph_Driver/src/misc.c ****     
 226              		.loc 1 151 48 view .LVU40
 227 003a 8CF80033 		strb	r3, [ip, #768]	@ tmppriority, MEM[(struct NVIC_Type *)3758153984B].IP[_15]
 228              		.loc 1 154 5 is_stmt 1 view .LVU41
ARM GAS  C:\Users\admin\AppData\Local\Temp\ccvbMb1Q.s 			page 8


 229              	@ ../Libraries/STM32F4xx_StdPeriph_Driver/src/misc.c:155:       (uint32_t)0x01 << (NVIC_InitStruct-
 155:../Libraries/STM32F4xx_StdPeriph_Driver/src/misc.c ****       (uint32_t)0x01 << (NVIC_InitStruct->NVIC_IRQChannel & (uint8_t)0x1F);
 230              		.loc 1 155 59 is_stmt 0 view .LVU42
 231 003e 00F01F00 		and	r0, r0, #31	@ tmp168, _14,
 232              	@ ../Libraries/STM32F4xx_StdPeriph_Driver/src/misc.c:155:       (uint32_t)0x01 << (NVIC_InitStruct-
 233              		.loc 1 155 22 view .LVU43
 234 0042 0123     		movs	r3, #1	@ tmp169,
 235              	.LVL10:
 236              		.loc 1 155 22 view .LVU44
 237 0044 03FA00F0 		lsl	r0, r3, r0	@ _19, tmp169, tmp168
 238              	@ ../Libraries/STM32F4xx_StdPeriph_Driver/src/misc.c:154:     NVIC->ISER[NVIC_InitStruct->NVIC_IRQC
 154:../Libraries/STM32F4xx_StdPeriph_Driver/src/misc.c ****       (uint32_t)0x01 << (NVIC_InitStruct->NVIC_IRQChannel & (uint8_t)0x1F);
 239              		.loc 1 154 58 view .LVU45
 240 0048 41F82200 		str	r0, [r1, r2, lsl #2]	@ _19, MEM[(struct NVIC_Type *)3758153984B].ISER[_18]
 241              	.LVL11:
 154:../Libraries/STM32F4xx_StdPeriph_Driver/src/misc.c ****       (uint32_t)0x01 << (NVIC_InitStruct->NVIC_IRQChannel & (uint8_t)0x1F);
 242              		.loc 1 154 58 view .LVU46
 243 004c 7047     		bx	lr	@
 244              	.LVL12:
 245              	.L6:
 156:../Libraries/STM32F4xx_StdPeriph_Driver/src/misc.c ****   }
 157:../Libraries/STM32F4xx_StdPeriph_Driver/src/misc.c ****   else
 158:../Libraries/STM32F4xx_StdPeriph_Driver/src/misc.c ****   {
 159:../Libraries/STM32F4xx_StdPeriph_Driver/src/misc.c ****     /* Disable the Selected IRQ Channels -------------------------------------*/
 160:../Libraries/STM32F4xx_StdPeriph_Driver/src/misc.c ****     NVIC->ICER[NVIC_InitStruct->NVIC_IRQChannel >> 0x05] =
 246              		.loc 1 160 5 is_stmt 1 view .LVU47
 247              	@ ../Libraries/STM32F4xx_StdPeriph_Driver/src/misc.c:161:       (uint32_t)0x01 << (NVIC_InitStruct-
 161:../Libraries/STM32F4xx_StdPeriph_Driver/src/misc.c ****       (uint32_t)0x01 << (NVIC_InitStruct->NVIC_IRQChannel & (uint8_t)0x1F);
 248              		.loc 1 161 41 is_stmt 0 view .LVU48
 249 004e 0378     		ldrb	r3, [r0]	@ zero_extendqisi2	@ _20, NVIC_InitStruct_29(D)->NVIC_IRQChannel
 250              	@ ../Libraries/STM32F4xx_StdPeriph_Driver/src/misc.c:160:     NVIC->ICER[NVIC_InitStruct->NVIC_IRQC
 160:../Libraries/STM32F4xx_StdPeriph_Driver/src/misc.c ****       (uint32_t)0x01 << (NVIC_InitStruct->NVIC_IRQChannel & (uint8_t)0x1F);
 251              		.loc 1 160 58 view .LVU49
 252 0050 0648     		ldr	r0, .L8+4	@ tmp175,
 253              	.LVL13:
 254              	@ ../Libraries/STM32F4xx_StdPeriph_Driver/src/misc.c:160:     NVIC->ICER[NVIC_InitStruct->NVIC_IRQC
 160:../Libraries/STM32F4xx_StdPeriph_Driver/src/misc.c ****       (uint32_t)0x01 << (NVIC_InitStruct->NVIC_IRQChannel & (uint8_t)0x1F);
 255              		.loc 1 160 49 view .LVU50
 256 0052 5A09     		lsrs	r2, r3, #5	@ _23, _20,
 257              	@ ../Libraries/STM32F4xx_StdPeriph_Driver/src/misc.c:161:       (uint32_t)0x01 << (NVIC_InitStruct-
 258              		.loc 1 161 22 view .LVU51
 259 0054 0121     		movs	r1, #1	@ tmp174,
 260              	@ ../Libraries/STM32F4xx_StdPeriph_Driver/src/misc.c:161:       (uint32_t)0x01 << (NVIC_InitStruct-
 261              		.loc 1 161 59 view .LVU52
 262 0056 03F01F03 		and	r3, r3, #31	@ tmp173, _20,
 263              	@ ../Libraries/STM32F4xx_StdPeriph_Driver/src/misc.c:160:     NVIC->ICER[NVIC_InitStruct->NVIC_IRQC
 160:../Libraries/STM32F4xx_StdPeriph_Driver/src/misc.c ****       (uint32_t)0x01 << (NVIC_InitStruct->NVIC_IRQChannel & (uint8_t)0x1F);
 264              		.loc 1 160 58 view .LVU53
 265 005a 2032     		adds	r2, r2, #32	@ tmp176, _23,
 266              	@ ../Libraries/STM32F4xx_StdPeriph_Driver/src/misc.c:161:       (uint32_t)0x01 << (NVIC_InitStruct-
 267              		.loc 1 161 22 view .LVU54
 268 005c 01FA03F3 		lsl	r3, r1, r3	@ _24, tmp174, tmp173
 269              	@ ../Libraries/STM32F4xx_StdPeriph_Driver/src/misc.c:160:     NVIC->ICER[NVIC_InitStruct->NVIC_IRQC
 160:../Libraries/STM32F4xx_StdPeriph_Driver/src/misc.c ****       (uint32_t)0x01 << (NVIC_InitStruct->NVIC_IRQChannel & (uint8_t)0x1F);
 270              		.loc 1 160 58 view .LVU55
 271 0060 40F82230 		str	r3, [r0, r2, lsl #2]	@ _24, MEM[(struct NVIC_Type *)3758153984B].ICER[_23]
 272              	@ ../Libraries/STM32F4xx_StdPeriph_Driver/src/misc.c:163: }
ARM GAS  C:\Users\admin\AppData\Local\Temp\ccvbMb1Q.s 			page 9


 162:../Libraries/STM32F4xx_StdPeriph_Driver/src/misc.c ****   }
 163:../Libraries/STM32F4xx_StdPeriph_Driver/src/misc.c **** }
 273              		.loc 1 163 1 view .LVU56
 274 0064 7047     		bx	lr	@
 275              	.L9:
 276 0066 00BF     		.align	2
 277              	.L8:
 278 0068 00ED00E0 		.word	-536810240
 279 006c 00E100E0 		.word	-536813312
 280              		.cfi_endproc
 281              	.LFE111:
 282              		.size	NVIC_Init, .-NVIC_Init
 283              		.section	.text.NVIC_SetVectorTable,"ax",%progbits
 284              		.align	1
 285              		.p2align 2,,3
 286              		.global	NVIC_SetVectorTable
 287              		.syntax unified
 288              		.thumb
 289              		.thumb_func
 290              		.type	NVIC_SetVectorTable, %function
 291              	NVIC_SetVectorTable:
 292              	.LVL14:
 293              	.LFB112:
 164:../Libraries/STM32F4xx_StdPeriph_Driver/src/misc.c **** 
 165:../Libraries/STM32F4xx_StdPeriph_Driver/src/misc.c **** /**
 166:../Libraries/STM32F4xx_StdPeriph_Driver/src/misc.c ****   * @brief  Sets the vector table location and Offset.
 167:../Libraries/STM32F4xx_StdPeriph_Driver/src/misc.c ****   * @param  NVIC_VectTab: specifies if the vector table is in RAM or FLASH memory.
 168:../Libraries/STM32F4xx_StdPeriph_Driver/src/misc.c ****   *   This parameter can be one of the following values:
 169:../Libraries/STM32F4xx_StdPeriph_Driver/src/misc.c ****   *     @arg NVIC_VectTab_RAM: Vector Table in internal SRAM.
 170:../Libraries/STM32F4xx_StdPeriph_Driver/src/misc.c ****   *     @arg NVIC_VectTab_FLASH: Vector Table in internal FLASH.
 171:../Libraries/STM32F4xx_StdPeriph_Driver/src/misc.c ****   * @param  Offset: Vector Table base offset field. This value must be a multiple of 0x200.
 172:../Libraries/STM32F4xx_StdPeriph_Driver/src/misc.c ****   * @retval None
 173:../Libraries/STM32F4xx_StdPeriph_Driver/src/misc.c ****   */
 174:../Libraries/STM32F4xx_StdPeriph_Driver/src/misc.c **** void NVIC_SetVectorTable(uint32_t NVIC_VectTab, uint32_t Offset)
 175:../Libraries/STM32F4xx_StdPeriph_Driver/src/misc.c **** { 
 294              		.loc 1 175 1 is_stmt 1 view -0
 295              		.cfi_startproc
 296              		@ args = 0, pretend = 0, frame = 0
 297              		@ frame_needed = 0, uses_anonymous_args = 0
 298              		@ link register save eliminated.
 176:../Libraries/STM32F4xx_StdPeriph_Driver/src/misc.c ****   /* Check the parameters */
 177:../Libraries/STM32F4xx_StdPeriph_Driver/src/misc.c ****   assert_param(IS_NVIC_VECTTAB(NVIC_VectTab));
 299              		.loc 1 177 3 view .LVU58
 178:../Libraries/STM32F4xx_StdPeriph_Driver/src/misc.c ****   assert_param(IS_NVIC_OFFSET(Offset));  
 300              		.loc 1 178 3 view .LVU59
 179:../Libraries/STM32F4xx_StdPeriph_Driver/src/misc.c ****    
 180:../Libraries/STM32F4xx_StdPeriph_Driver/src/misc.c ****   SCB->VTOR = NVIC_VectTab | (Offset & (uint32_t)0x1FFFFF80);
 301              		.loc 1 180 3 view .LVU60
 302              	@ ../Libraries/STM32F4xx_StdPeriph_Driver/src/misc.c:180:   SCB->VTOR = NVIC_VectTab | (Offset & (u
 303              		.loc 1 180 38 is_stmt 0 view .LVU61
 304 0000 21F06041 		bic	r1, r1, #-536870912	@ tmp117, tmp121,
 305              	.LVL15:
 306              	@ ../Libraries/STM32F4xx_StdPeriph_Driver/src/misc.c:180:   SCB->VTOR = NVIC_VectTab | (Offset & (u
 307              		.loc 1 180 13 view .LVU62
 308 0004 024B     		ldr	r3, .L11	@ tmp119,
 309              	@ ../Libraries/STM32F4xx_StdPeriph_Driver/src/misc.c:180:   SCB->VTOR = NVIC_VectTab | (Offset & (u
 310              		.loc 1 180 38 view .LVU63
ARM GAS  C:\Users\admin\AppData\Local\Temp\ccvbMb1Q.s 			page 10


 311 0006 21F07F01 		bic	r1, r1, #127	@ tmp117, tmp117,
 312              	@ ../Libraries/STM32F4xx_StdPeriph_Driver/src/misc.c:180:   SCB->VTOR = NVIC_VectTab | (Offset & (u
 313              		.loc 1 180 28 view .LVU64
 314 000a 0843     		orrs	r0, r0, r1	@, _2, tmp120, tmp117
 315              	.LVL16:
 316              	@ ../Libraries/STM32F4xx_StdPeriph_Driver/src/misc.c:180:   SCB->VTOR = NVIC_VectTab | (Offset & (u
 317              		.loc 1 180 13 view .LVU65
 318 000c 9860     		str	r0, [r3, #8]	@ _2, MEM[(struct SCB_Type *)3758157056B].VTOR
 319              	@ ../Libraries/STM32F4xx_StdPeriph_Driver/src/misc.c:181: }
 181:../Libraries/STM32F4xx_StdPeriph_Driver/src/misc.c **** }
 320              		.loc 1 181 1 view .LVU66
 321 000e 7047     		bx	lr	@
 322              	.L12:
 323              		.align	2
 324              	.L11:
 325 0010 00ED00E0 		.word	-536810240
 326              		.cfi_endproc
 327              	.LFE112:
 328              		.size	NVIC_SetVectorTable, .-NVIC_SetVectorTable
 329              		.section	.text.NVIC_SystemLPConfig,"ax",%progbits
 330              		.align	1
 331              		.p2align 2,,3
 332              		.global	NVIC_SystemLPConfig
 333              		.syntax unified
 334              		.thumb
 335              		.thumb_func
 336              		.type	NVIC_SystemLPConfig, %function
 337              	NVIC_SystemLPConfig:
 338              	.LVL17:
 339              	.LFB113:
 182:../Libraries/STM32F4xx_StdPeriph_Driver/src/misc.c **** 
 183:../Libraries/STM32F4xx_StdPeriph_Driver/src/misc.c **** /**
 184:../Libraries/STM32F4xx_StdPeriph_Driver/src/misc.c ****   * @brief  Selects the condition for the system to enter low power mode.
 185:../Libraries/STM32F4xx_StdPeriph_Driver/src/misc.c ****   * @param  LowPowerMode: Specifies the new mode for the system to enter low power mode.
 186:../Libraries/STM32F4xx_StdPeriph_Driver/src/misc.c ****   *   This parameter can be one of the following values:
 187:../Libraries/STM32F4xx_StdPeriph_Driver/src/misc.c ****   *     @arg NVIC_LP_SEVONPEND: Low Power SEV on Pend.
 188:../Libraries/STM32F4xx_StdPeriph_Driver/src/misc.c ****   *     @arg NVIC_LP_SLEEPDEEP: Low Power DEEPSLEEP request.
 189:../Libraries/STM32F4xx_StdPeriph_Driver/src/misc.c ****   *     @arg NVIC_LP_SLEEPONEXIT: Low Power Sleep on Exit.
 190:../Libraries/STM32F4xx_StdPeriph_Driver/src/misc.c ****   * @param  NewState: new state of LP condition. This parameter can be: ENABLE or DISABLE.
 191:../Libraries/STM32F4xx_StdPeriph_Driver/src/misc.c ****   * @retval None
 192:../Libraries/STM32F4xx_StdPeriph_Driver/src/misc.c ****   */
 193:../Libraries/STM32F4xx_StdPeriph_Driver/src/misc.c **** void NVIC_SystemLPConfig(uint8_t LowPowerMode, FunctionalState NewState)
 194:../Libraries/STM32F4xx_StdPeriph_Driver/src/misc.c **** {
 340              		.loc 1 194 1 is_stmt 1 view -0
 341              		.cfi_startproc
 342              		@ args = 0, pretend = 0, frame = 0
 343              		@ frame_needed = 0, uses_anonymous_args = 0
 344              		@ link register save eliminated.
 195:../Libraries/STM32F4xx_StdPeriph_Driver/src/misc.c ****   /* Check the parameters */
 196:../Libraries/STM32F4xx_StdPeriph_Driver/src/misc.c ****   assert_param(IS_NVIC_LP(LowPowerMode));
 345              		.loc 1 196 3 view .LVU68
 197:../Libraries/STM32F4xx_StdPeriph_Driver/src/misc.c ****   assert_param(IS_FUNCTIONAL_STATE(NewState));  
 346              		.loc 1 197 3 view .LVU69
 198:../Libraries/STM32F4xx_StdPeriph_Driver/src/misc.c ****   
 199:../Libraries/STM32F4xx_StdPeriph_Driver/src/misc.c ****   if (NewState != DISABLE)
 347              		.loc 1 199 3 view .LVU70
 348              	@ ../Libraries/STM32F4xx_StdPeriph_Driver/src/misc.c:199:   if (NewState != DISABLE)
ARM GAS  C:\Users\admin\AppData\Local\Temp\ccvbMb1Q.s 			page 11


 349              		.loc 1 199 6 is_stmt 0 view .LVU71
 350 0000 21B1     		cbz	r1, .L14	@ tmp128,
 200:../Libraries/STM32F4xx_StdPeriph_Driver/src/misc.c ****   {
 201:../Libraries/STM32F4xx_StdPeriph_Driver/src/misc.c ****     SCB->SCR |= LowPowerMode;
 351              		.loc 1 201 5 is_stmt 1 view .LVU72
 352              	@ ../Libraries/STM32F4xx_StdPeriph_Driver/src/misc.c:201:     SCB->SCR |= LowPowerMode;
 353              		.loc 1 201 14 is_stmt 0 view .LVU73
 354 0002 054B     		ldr	r3, .L16	@ tmp122,
 355 0004 1A69     		ldr	r2, [r3, #16]	@ _1, MEM[(struct SCB_Type *)3758157056B].SCR
 356 0006 1043     		orrs	r0, r0, r2	@, _3, LowPowerMode, _1
 357              	.LVL18:
 358              		.loc 1 201 14 view .LVU74
 359 0008 1861     		str	r0, [r3, #16]	@ _3, MEM[(struct SCB_Type *)3758157056B].SCR
 360 000a 7047     		bx	lr	@
 361              	.LVL19:
 362              	.L14:
 202:../Libraries/STM32F4xx_StdPeriph_Driver/src/misc.c ****   }
 203:../Libraries/STM32F4xx_StdPeriph_Driver/src/misc.c ****   else
 204:../Libraries/STM32F4xx_StdPeriph_Driver/src/misc.c ****   {
 205:../Libraries/STM32F4xx_StdPeriph_Driver/src/misc.c ****     SCB->SCR &= (uint32_t)(~(uint32_t)LowPowerMode);
 363              		.loc 1 205 5 is_stmt 1 view .LVU75
 364              	@ ../Libraries/STM32F4xx_StdPeriph_Driver/src/misc.c:205:     SCB->SCR &= (uint32_t)(~(uint32_t)Low
 365              		.loc 1 205 14 is_stmt 0 view .LVU76
 366 000c 024A     		ldr	r2, .L16	@ tmp124,
 367 000e 1369     		ldr	r3, [r2, #16]	@ _4, MEM[(struct SCB_Type *)3758157056B].SCR
 368 0010 23EA0000 		bic	r0, r3, r0	@ _7, _4, LowPowerMode
 369              	.LVL20:
 370              		.loc 1 205 14 view .LVU77
 371 0014 1061     		str	r0, [r2, #16]	@ _7, MEM[(struct SCB_Type *)3758157056B].SCR
 372              	@ ../Libraries/STM32F4xx_StdPeriph_Driver/src/misc.c:207: }
 206:../Libraries/STM32F4xx_StdPeriph_Driver/src/misc.c ****   }
 207:../Libraries/STM32F4xx_StdPeriph_Driver/src/misc.c **** }
 373              		.loc 1 207 1 view .LVU78
 374 0016 7047     		bx	lr	@
 375              	.L17:
 376              		.align	2
 377              	.L16:
 378 0018 00ED00E0 		.word	-536810240
 379              		.cfi_endproc
 380              	.LFE113:
 381              		.size	NVIC_SystemLPConfig, .-NVIC_SystemLPConfig
 382              		.section	.text.SysTick_CLKSourceConfig,"ax",%progbits
 383              		.align	1
 384              		.p2align 2,,3
 385              		.global	SysTick_CLKSourceConfig
 386              		.syntax unified
 387              		.thumb
 388              		.thumb_func
 389              		.type	SysTick_CLKSourceConfig, %function
 390              	SysTick_CLKSourceConfig:
 391              	.LVL21:
 392              	.LFB114:
 208:../Libraries/STM32F4xx_StdPeriph_Driver/src/misc.c **** 
 209:../Libraries/STM32F4xx_StdPeriph_Driver/src/misc.c **** /**
 210:../Libraries/STM32F4xx_StdPeriph_Driver/src/misc.c ****   * @brief  Configures the SysTick clock source.
 211:../Libraries/STM32F4xx_StdPeriph_Driver/src/misc.c ****   * @param  SysTick_CLKSource: specifies the SysTick clock source.
 212:../Libraries/STM32F4xx_StdPeriph_Driver/src/misc.c ****   *   This parameter can be one of the following values:
ARM GAS  C:\Users\admin\AppData\Local\Temp\ccvbMb1Q.s 			page 12


 213:../Libraries/STM32F4xx_StdPeriph_Driver/src/misc.c ****   *     @arg SysTick_CLKSource_HCLK_Div8: AHB clock divided by 8 selected as SysTick clock source.
 214:../Libraries/STM32F4xx_StdPeriph_Driver/src/misc.c ****   *     @arg SysTick_CLKSource_HCLK: AHB clock selected as SysTick clock source.
 215:../Libraries/STM32F4xx_StdPeriph_Driver/src/misc.c ****   * @retval None
 216:../Libraries/STM32F4xx_StdPeriph_Driver/src/misc.c ****   */
 217:../Libraries/STM32F4xx_StdPeriph_Driver/src/misc.c **** void SysTick_CLKSourceConfig(uint32_t SysTick_CLKSource)
 218:../Libraries/STM32F4xx_StdPeriph_Driver/src/misc.c **** {
 393              		.loc 1 218 1 is_stmt 1 view -0
 394              		.cfi_startproc
 395              		@ args = 0, pretend = 0, frame = 0
 396              		@ frame_needed = 0, uses_anonymous_args = 0
 397              		@ link register save eliminated.
 219:../Libraries/STM32F4xx_StdPeriph_Driver/src/misc.c ****   /* Check the parameters */
 220:../Libraries/STM32F4xx_StdPeriph_Driver/src/misc.c ****   assert_param(IS_SYSTICK_CLK_SOURCE(SysTick_CLKSource));
 398              		.loc 1 220 3 view .LVU80
 221:../Libraries/STM32F4xx_StdPeriph_Driver/src/misc.c ****   if (SysTick_CLKSource == SysTick_CLKSource_HCLK)
 399              		.loc 1 221 3 view .LVU81
 400              	@ ../Libraries/STM32F4xx_StdPeriph_Driver/src/misc.c:223:     SysTick->CTRL |= SysTick_CLKSource_HC
 222:../Libraries/STM32F4xx_StdPeriph_Driver/src/misc.c ****   {
 223:../Libraries/STM32F4xx_StdPeriph_Driver/src/misc.c ****     SysTick->CTRL |= SysTick_CLKSource_HCLK;
 401              		.loc 1 223 19 is_stmt 0 view .LVU82
 402 0000 4FF0E022 		mov	r2, #-536813568	@ tmp118,
 403              	@ ../Libraries/STM32F4xx_StdPeriph_Driver/src/misc.c:221:   if (SysTick_CLKSource == SysTick_CLKSou
 221:../Libraries/STM32F4xx_StdPeriph_Driver/src/misc.c ****   if (SysTick_CLKSource == SysTick_CLKSource_HCLK)
 404              		.loc 1 221 6 view .LVU83
 405 0004 0428     		cmp	r0, #4	@ tmp122,
 406              		.loc 1 223 5 is_stmt 1 view .LVU84
 407              	@ ../Libraries/STM32F4xx_StdPeriph_Driver/src/misc.c:223:     SysTick->CTRL |= SysTick_CLKSource_HC
 408              		.loc 1 223 19 is_stmt 0 view .LVU85
 409 0006 1369     		ldr	r3, [r2, #16]	@ _1,
 410 0008 0CBF     		ite	eq
 411 000a 43F00403 		orreq	r3, r3, #4	@ _2, _1,
 224:../Libraries/STM32F4xx_StdPeriph_Driver/src/misc.c ****   }
 225:../Libraries/STM32F4xx_StdPeriph_Driver/src/misc.c ****   else
 226:../Libraries/STM32F4xx_StdPeriph_Driver/src/misc.c ****   {
 227:../Libraries/STM32F4xx_StdPeriph_Driver/src/misc.c ****     SysTick->CTRL &= SysTick_CLKSource_HCLK_Div8;
 412              		.loc 1 227 5 is_stmt 1 view .LVU86
 413              	@ ../Libraries/STM32F4xx_StdPeriph_Driver/src/misc.c:227:     SysTick->CTRL &= SysTick_CLKSource_HC
 414              		.loc 1 227 19 is_stmt 0 view .LVU87
 415 000e 23F00403 		bicne	r3, r3, #4	@ _4, _3,
 416 0012 1361     		str	r3, [r2, #16]	@ _4,
 417              	@ ../Libraries/STM32F4xx_StdPeriph_Driver/src/misc.c:229: }
 228:../Libraries/STM32F4xx_StdPeriph_Driver/src/misc.c ****   }
 229:../Libraries/STM32F4xx_StdPeriph_Driver/src/misc.c **** }
 418              		.loc 1 229 1 view .LVU88
 419 0014 7047     		bx	lr	@
 420              		.cfi_endproc
 421              	.LFE114:
 422              		.size	SysTick_CLKSourceConfig, .-SysTick_CLKSourceConfig
 423 0016 00BF     		.text
 424              	.Letext0:
 425              		.file 2 "c:\\program files (x86)\\gnu arm embedded toolchain\\10 2021.10\\arm-none-eabi\\include\\
 426              		.file 3 "c:\\program files (x86)\\gnu arm embedded toolchain\\10 2021.10\\arm-none-eabi\\include\\
 427              		.file 4 "../Libraries/CMSIS/Include/core_cm4.h"
 428              		.file 5 "../Libraries/CMSIS/ST/STM32F4xx/Include/stm32f4xx.h"
 429              		.file 6 "../Libraries/STM32F4xx_StdPeriph_Driver/inc/misc.h"