ARM GAS  C:\Users\admin\AppData\Local\Temp\ccAkqsWz.s 			page 1


   1              		.cpu cortex-m4
   2              		.arch armv7e-m
   3              		.fpu fpv4-sp-d16
   4              		.eabi_attribute 27, 1	@ Tag_ABI_HardFP_use
   5              		.eabi_attribute 28, 1	@ Tag_ABI_VFP_args
   6              		.eabi_attribute 23, 1	@ Tag_ABI_FP_number_model
   7              		.eabi_attribute 24, 1	@ Tag_ABI_align8_needed
   8              		.eabi_attribute 25, 1	@ Tag_ABI_align8_preserved
   9              		.eabi_attribute 26, 1	@ Tag_ABI_enum_size
  10              		.eabi_attribute 30, 2	@ Tag_ABI_optimization_goals
  11              		.eabi_attribute 34, 1	@ Tag_CPU_unaligned_access
  12              		.eabi_attribute 18, 4	@ Tag_ABI_PCS_wchar_t
  13              		.file	"stm32f4xx_fsmc.c"
  14              	@ GNU C89 (GNU Arm Embedded Toolchain 10.3-2021.10) version 10.3.1 20210824 (release) (arm-none-eab
  15              	@	compiled by GNU C version 7.3-win32 20180312, GMP version 6.1.0, MPFR version 3.1.4, MPC version 
  16              	
  17              	@ GGC heuristics: --param ggc-min-expand=100 --param ggc-min-heapsize=131072
  18              	@ options passed:  -I . -I . -I ../Utilities/STM32F4-Discovery/
  19              	@ -I ../Libraries/STM32_USB_Device_Library/Class/audio/inc/
  20              	@ -I ../Libraries/STM32_USB_Device_Library/Core/inc/
  21              	@ -I ../Libraries/STM32_USB_OTG_Driver/inc/
  22              	@ -I ../Utilities/STM32F4-Discovery/
  23              	@ -I ../Libraries/STM32F4xx_StdPeriph_Driver/inc/
  24              	@ -I ../Utilities/STM32F4-Discovery/
  25              	@ -I ../Libraries/CMSIS/ST/STM32F4xx/Include/
  26              	@ -I ../Libraries/CMSIS/Include/ -imultilib thumb/v7e-m+fp/hard
  27              	@ -iprefix c:\program files (x86)\gnu arm embedded toolchain\10 2021.10\bin\../lib/gcc/arm-none-eab
  28              	@ -isysroot c:\program files (x86)\gnu arm embedded toolchain\10 2021.10\bin\../arm-none-eabi
  29              	@ -MD out/stm32f4xx_fsmc.d -MF out/stm32f4xx_fsmc.d -MP
  30              	@ -MQ out/stm32f4xx_fsmc.o -D__USES_INITFINI__ -D STM32F4XX -D __VFP_FP__
  31              	@ -D USE_USB_OTG_FS
  32              	@ ../Libraries/STM32F4xx_StdPeriph_Driver/src/stm32f4xx_fsmc.c
  33              	@ -mcpu=cortex-m4 -mthumb -mfloat-abi=hard -mfpu=fpv4-sp-d16
  34              	@ -mlibarch=armv7e-m+fp -march=armv7e-m+fp
  35              	@ -auxbase-strip out/stm32f4xx_fsmc.o -g -ggdb3 -O3 -Wall
  36              	@ -Wstrict-prototypes -Wextra -std=gnu90 -ffast-math -ffunction-sections
  37              	@ -fdata-sections -fverbose-asm
  38              	@ options enabled:  -faggressive-loop-optimizations -falign-functions
  39              	@ -falign-jumps -falign-labels -falign-loops -fallocation-dce
  40              	@ -fassociative-math -fauto-inc-dec -fbranch-count-reg -fcaller-saves
  41              	@ -fcombine-stack-adjustments -fcompare-elim -fcprop-registers
  42              	@ -fcrossjumping -fcse-follow-jumps -fcx-limited-range -fdata-sections
  43              	@ -fdefer-pop -fdelete-null-pointer-checks -fdevirtualize
  44              	@ -fdevirtualize-speculatively -fdwarf2-cfi-asm -fearly-inlining
  45              	@ -feliminate-unused-debug-symbols -feliminate-unused-debug-types
  46              	@ -fexpensive-optimizations -ffinite-math-only -fforward-propagate
  47              	@ -ffp-int-builtin-inexact -ffunction-cse -ffunction-sections -fgcse
  48              	@ -fgcse-after-reload -fgcse-lm -fgnu-unique -fguess-branch-probability
  49              	@ -fhoist-adjacent-loads -fident -fif-conversion -fif-conversion2
  50              	@ -findirect-inlining -finline -finline-atomics -finline-functions
  51              	@ -finline-functions-called-once -finline-small-functions -fipa-bit-cp
  52              	@ -fipa-cp -fipa-cp-clone -fipa-icf -fipa-icf-functions -fipa-icf-variables
  53              	@ -fipa-profile -fipa-pure-const -fipa-ra -fipa-reference
  54              	@ -fipa-reference-addressable -fipa-sra -fipa-stack-alignment -fipa-vrp
  55              	@ -fira-hoist-pressure -fira-share-save-slots -fira-share-spill-slots
  56              	@ -fisolate-erroneous-paths-dereference -fivopts -fkeep-static-consts
  57              	@ -fleading-underscore -flifetime-dse -floop-interchange
ARM GAS  C:\Users\admin\AppData\Local\Temp\ccAkqsWz.s 			page 2


  58              	@ -floop-unroll-and-jam -flra-remat -fmerge-constants -fmerge-debug-strings
  59              	@ -fmove-loop-invariants -fomit-frame-pointer -foptimize-sibling-calls
  60              	@ -foptimize-strlen -fpartial-inlining -fpeel-loops -fpeephole -fpeephole2
  61              	@ -fplt -fpredictive-commoning -fprefetch-loop-arrays -freciprocal-math
  62              	@ -freg-struct-return -freorder-blocks -freorder-functions
  63              	@ -frerun-cse-after-loop -fsched-critical-path-heuristic
  64              	@ -fsched-dep-count-heuristic -fsched-group-heuristic -fsched-interblock
  65              	@ -fsched-last-insn-heuristic -fsched-pressure -fsched-rank-heuristic
  66              	@ -fsched-spec -fsched-spec-insn-heuristic -fsched-stalled-insns-dep
  67              	@ -fschedule-insns -fschedule-insns2 -fsection-anchors
  68              	@ -fsemantic-interposition -fshow-column -fshrink-wrap
  69              	@ -fshrink-wrap-separate -fsplit-ivs-in-unroller -fsplit-loops
  70              	@ -fsplit-paths -fsplit-wide-types -fssa-backprop -fssa-phiopt -fstdarg-opt
  71              	@ -fstore-merging -fstrict-aliasing -fstrict-volatile-bitfields
  72              	@ -fsync-libcalls -fthread-jumps -ftoplevel-reorder -ftree-bit-ccp
  73              	@ -ftree-builtin-call-dce -ftree-ccp -ftree-ch -ftree-coalesce-vars
  74              	@ -ftree-copy-prop -ftree-cselim -ftree-dce -ftree-dominator-opts
  75              	@ -ftree-dse -ftree-forwprop -ftree-fre -ftree-loop-distribute-patterns
  76              	@ -ftree-loop-distribution -ftree-loop-if-convert -ftree-loop-im
  77              	@ -ftree-loop-ivcanon -ftree-loop-optimize -ftree-loop-vectorize
  78              	@ -ftree-parallelize-loops= -ftree-partial-pre -ftree-phiprop -ftree-pre
  79              	@ -ftree-pta -ftree-reassoc -ftree-scev-cprop -ftree-sink
  80              	@ -ftree-slp-vectorize -ftree-slsr -ftree-sra -ftree-switch-conversion
  81              	@ -ftree-tail-merge -ftree-ter -ftree-vrp -funit-at-a-time
  82              	@ -funsafe-math-optimizations -funswitch-loops -fvar-tracking
  83              	@ -fvar-tracking-assignments -fverbose-asm -fversion-loops-for-strides
  84              	@ -fzero-initialized-in-bss -masm-syntax-unified -mbe32 -mlittle-endian
  85              	@ -mpic-data-is-text-relative -msched-prolog -mthumb -munaligned-access
  86              	@ -mvectorize-with-neon-quad
  87              	
  88              		.text
  89              	.Ltext0:
  90              		.cfi_sections	.debug_frame
  91              		.section	.text.FSMC_NORSRAMDeInit,"ax",%progbits
  92              		.align	1
  93              		.p2align 2,,3
  94              		.global	FSMC_NORSRAMDeInit
  95              		.syntax unified
  96              		.thumb
  97              		.thumb_func
  98              		.type	FSMC_NORSRAMDeInit, %function
  99              	FSMC_NORSRAMDeInit:
 100              	.LVL0:
 101              	.LFB110:
 102              		.file 1 "../Libraries/STM32F4xx_StdPeriph_Driver/src/stm32f4xx_fsmc.c"
   1:../Libraries/STM32F4xx_StdPeriph_Driver/src/stm32f4xx_fsmc.c **** /**
   2:../Libraries/STM32F4xx_StdPeriph_Driver/src/stm32f4xx_fsmc.c ****   ******************************************************************************
   3:../Libraries/STM32F4xx_StdPeriph_Driver/src/stm32f4xx_fsmc.c ****   * @file    stm32f4xx_fsmc.c
   4:../Libraries/STM32F4xx_StdPeriph_Driver/src/stm32f4xx_fsmc.c ****   * @author  MCD Application Team
   5:../Libraries/STM32F4xx_StdPeriph_Driver/src/stm32f4xx_fsmc.c ****   * @version V1.0.0
   6:../Libraries/STM32F4xx_StdPeriph_Driver/src/stm32f4xx_fsmc.c ****   * @date    30-September-2011
   7:../Libraries/STM32F4xx_StdPeriph_Driver/src/stm32f4xx_fsmc.c ****  * @brief    This file provides firmware functions to manage the following 
   8:../Libraries/STM32F4xx_StdPeriph_Driver/src/stm32f4xx_fsmc.c ****   *          functionalities of the FSMC peripheral:           
   9:../Libraries/STM32F4xx_StdPeriph_Driver/src/stm32f4xx_fsmc.c ****   *           - Interface with SRAM, PSRAM, NOR and OneNAND memories
  10:../Libraries/STM32F4xx_StdPeriph_Driver/src/stm32f4xx_fsmc.c ****   *           - Interface with NAND memories
  11:../Libraries/STM32F4xx_StdPeriph_Driver/src/stm32f4xx_fsmc.c ****   *           - Interface with 16-bit PC Card compatible memories  
  12:../Libraries/STM32F4xx_StdPeriph_Driver/src/stm32f4xx_fsmc.c ****   *           - Interrupts and flags management   
ARM GAS  C:\Users\admin\AppData\Local\Temp\ccAkqsWz.s 			page 3


  13:../Libraries/STM32F4xx_StdPeriph_Driver/src/stm32f4xx_fsmc.c ****   *           
  14:../Libraries/STM32F4xx_StdPeriph_Driver/src/stm32f4xx_fsmc.c ****   ******************************************************************************
  15:../Libraries/STM32F4xx_StdPeriph_Driver/src/stm32f4xx_fsmc.c **** 
  16:../Libraries/STM32F4xx_StdPeriph_Driver/src/stm32f4xx_fsmc.c ****   * @attention
  17:../Libraries/STM32F4xx_StdPeriph_Driver/src/stm32f4xx_fsmc.c ****   *
  18:../Libraries/STM32F4xx_StdPeriph_Driver/src/stm32f4xx_fsmc.c ****   * THE PRESENT FIRMWARE WHICH IS FOR GUIDANCE ONLY AIMS AT PROVIDING CUSTOMERS
  19:../Libraries/STM32F4xx_StdPeriph_Driver/src/stm32f4xx_fsmc.c ****   * WITH CODING INFORMATION REGARDING THEIR PRODUCTS IN ORDER FOR THEM TO SAVE
  20:../Libraries/STM32F4xx_StdPeriph_Driver/src/stm32f4xx_fsmc.c ****   * TIME. AS A RESULT, STMICROELECTRONICS SHALL NOT BE HELD LIABLE FOR ANY
  21:../Libraries/STM32F4xx_StdPeriph_Driver/src/stm32f4xx_fsmc.c ****   * DIRECT, INDIRECT OR CONSEQUENTIAL DAMAGES WITH RESPECT TO ANY CLAIMS ARISING
  22:../Libraries/STM32F4xx_StdPeriph_Driver/src/stm32f4xx_fsmc.c ****   * FROM THE CONTENT OF SUCH FIRMWARE AND/OR THE USE MADE BY CUSTOMERS OF THE
  23:../Libraries/STM32F4xx_StdPeriph_Driver/src/stm32f4xx_fsmc.c ****   * CODING INFORMATION CONTAINED HEREIN IN CONNECTION WITH THEIR PRODUCTS.
  24:../Libraries/STM32F4xx_StdPeriph_Driver/src/stm32f4xx_fsmc.c ****   *
  25:../Libraries/STM32F4xx_StdPeriph_Driver/src/stm32f4xx_fsmc.c ****   * <h2><center>&copy; COPYRIGHT 2011 STMicroelectronics</center></h2>
  26:../Libraries/STM32F4xx_StdPeriph_Driver/src/stm32f4xx_fsmc.c ****   ******************************************************************************
  27:../Libraries/STM32F4xx_StdPeriph_Driver/src/stm32f4xx_fsmc.c ****   */
  28:../Libraries/STM32F4xx_StdPeriph_Driver/src/stm32f4xx_fsmc.c **** 
  29:../Libraries/STM32F4xx_StdPeriph_Driver/src/stm32f4xx_fsmc.c **** /* Includes ------------------------------------------------------------------*/
  30:../Libraries/STM32F4xx_StdPeriph_Driver/src/stm32f4xx_fsmc.c **** #include "stm32f4xx_fsmc.h"
  31:../Libraries/STM32F4xx_StdPeriph_Driver/src/stm32f4xx_fsmc.c **** #include "stm32f4xx_rcc.h"
  32:../Libraries/STM32F4xx_StdPeriph_Driver/src/stm32f4xx_fsmc.c **** 
  33:../Libraries/STM32F4xx_StdPeriph_Driver/src/stm32f4xx_fsmc.c **** /** @addtogroup STM32F4xx_StdPeriph_Driver
  34:../Libraries/STM32F4xx_StdPeriph_Driver/src/stm32f4xx_fsmc.c ****   * @{
  35:../Libraries/STM32F4xx_StdPeriph_Driver/src/stm32f4xx_fsmc.c ****   */
  36:../Libraries/STM32F4xx_StdPeriph_Driver/src/stm32f4xx_fsmc.c **** 
  37:../Libraries/STM32F4xx_StdPeriph_Driver/src/stm32f4xx_fsmc.c **** /** @defgroup FSMC 
  38:../Libraries/STM32F4xx_StdPeriph_Driver/src/stm32f4xx_fsmc.c ****   * @brief FSMC driver modules
  39:../Libraries/STM32F4xx_StdPeriph_Driver/src/stm32f4xx_fsmc.c ****   * @{
  40:../Libraries/STM32F4xx_StdPeriph_Driver/src/stm32f4xx_fsmc.c ****   */ 
  41:../Libraries/STM32F4xx_StdPeriph_Driver/src/stm32f4xx_fsmc.c **** 
  42:../Libraries/STM32F4xx_StdPeriph_Driver/src/stm32f4xx_fsmc.c **** /* Private typedef -----------------------------------------------------------*/
  43:../Libraries/STM32F4xx_StdPeriph_Driver/src/stm32f4xx_fsmc.c **** /* Private define ------------------------------------------------------------*/
  44:../Libraries/STM32F4xx_StdPeriph_Driver/src/stm32f4xx_fsmc.c **** 
  45:../Libraries/STM32F4xx_StdPeriph_Driver/src/stm32f4xx_fsmc.c **** /* --------------------- FSMC registers bit mask ---------------------------- */
  46:../Libraries/STM32F4xx_StdPeriph_Driver/src/stm32f4xx_fsmc.c **** /* FSMC BCRx Mask */
  47:../Libraries/STM32F4xx_StdPeriph_Driver/src/stm32f4xx_fsmc.c **** #define BCR_MBKEN_SET          ((uint32_t)0x00000001)
  48:../Libraries/STM32F4xx_StdPeriph_Driver/src/stm32f4xx_fsmc.c **** #define BCR_MBKEN_RESET        ((uint32_t)0x000FFFFE)
  49:../Libraries/STM32F4xx_StdPeriph_Driver/src/stm32f4xx_fsmc.c **** #define BCR_FACCEN_SET         ((uint32_t)0x00000040)
  50:../Libraries/STM32F4xx_StdPeriph_Driver/src/stm32f4xx_fsmc.c **** 
  51:../Libraries/STM32F4xx_StdPeriph_Driver/src/stm32f4xx_fsmc.c **** /* FSMC PCRx Mask */
  52:../Libraries/STM32F4xx_StdPeriph_Driver/src/stm32f4xx_fsmc.c **** #define PCR_PBKEN_SET          ((uint32_t)0x00000004)
  53:../Libraries/STM32F4xx_StdPeriph_Driver/src/stm32f4xx_fsmc.c **** #define PCR_PBKEN_RESET        ((uint32_t)0x000FFFFB)
  54:../Libraries/STM32F4xx_StdPeriph_Driver/src/stm32f4xx_fsmc.c **** #define PCR_ECCEN_SET          ((uint32_t)0x00000040)
  55:../Libraries/STM32F4xx_StdPeriph_Driver/src/stm32f4xx_fsmc.c **** #define PCR_ECCEN_RESET        ((uint32_t)0x000FFFBF)
  56:../Libraries/STM32F4xx_StdPeriph_Driver/src/stm32f4xx_fsmc.c **** #define PCR_MEMORYTYPE_NAND    ((uint32_t)0x00000008)
  57:../Libraries/STM32F4xx_StdPeriph_Driver/src/stm32f4xx_fsmc.c **** 
  58:../Libraries/STM32F4xx_StdPeriph_Driver/src/stm32f4xx_fsmc.c **** /* Private macro -------------------------------------------------------------*/
  59:../Libraries/STM32F4xx_StdPeriph_Driver/src/stm32f4xx_fsmc.c **** /* Private variables ---------------------------------------------------------*/
  60:../Libraries/STM32F4xx_StdPeriph_Driver/src/stm32f4xx_fsmc.c **** /* Private function prototypes -----------------------------------------------*/
  61:../Libraries/STM32F4xx_StdPeriph_Driver/src/stm32f4xx_fsmc.c **** /* Private functions ---------------------------------------------------------*/
  62:../Libraries/STM32F4xx_StdPeriph_Driver/src/stm32f4xx_fsmc.c **** 
  63:../Libraries/STM32F4xx_StdPeriph_Driver/src/stm32f4xx_fsmc.c **** /** @defgroup FSMC_Private_Functions
  64:../Libraries/STM32F4xx_StdPeriph_Driver/src/stm32f4xx_fsmc.c ****   * @{
  65:../Libraries/STM32F4xx_StdPeriph_Driver/src/stm32f4xx_fsmc.c ****   */
  66:../Libraries/STM32F4xx_StdPeriph_Driver/src/stm32f4xx_fsmc.c **** 
  67:../Libraries/STM32F4xx_StdPeriph_Driver/src/stm32f4xx_fsmc.c **** /** @defgroup FSMC_Group1 NOR/SRAM Controller functions
  68:../Libraries/STM32F4xx_StdPeriph_Driver/src/stm32f4xx_fsmc.c ****  *  @brief   NOR/SRAM Controller functions 
  69:../Libraries/STM32F4xx_StdPeriph_Driver/src/stm32f4xx_fsmc.c ****  *
ARM GAS  C:\Users\admin\AppData\Local\Temp\ccAkqsWz.s 			page 4


  70:../Libraries/STM32F4xx_StdPeriph_Driver/src/stm32f4xx_fsmc.c **** @verbatim   
  71:../Libraries/STM32F4xx_StdPeriph_Driver/src/stm32f4xx_fsmc.c ****  ===============================================================================
  72:../Libraries/STM32F4xx_StdPeriph_Driver/src/stm32f4xx_fsmc.c ****                     NOR/SRAM Controller functions
  73:../Libraries/STM32F4xx_StdPeriph_Driver/src/stm32f4xx_fsmc.c ****  ===============================================================================  
  74:../Libraries/STM32F4xx_StdPeriph_Driver/src/stm32f4xx_fsmc.c **** 
  75:../Libraries/STM32F4xx_StdPeriph_Driver/src/stm32f4xx_fsmc.c ****  The following sequence should be followed to configure the FSMC to interface with
  76:../Libraries/STM32F4xx_StdPeriph_Driver/src/stm32f4xx_fsmc.c ****  SRAM, PSRAM, NOR or OneNAND memory connected to the NOR/SRAM Bank:
  77:../Libraries/STM32F4xx_StdPeriph_Driver/src/stm32f4xx_fsmc.c ****  
  78:../Libraries/STM32F4xx_StdPeriph_Driver/src/stm32f4xx_fsmc.c ****    1. Enable the clock for the FSMC and associated GPIOs using the following functions:
  79:../Libraries/STM32F4xx_StdPeriph_Driver/src/stm32f4xx_fsmc.c ****           RCC_AHB3PeriphClockCmd(RCC_AHB3Periph_FSMC, ENABLE);
  80:../Libraries/STM32F4xx_StdPeriph_Driver/src/stm32f4xx_fsmc.c ****           RCC_AHB1PeriphClockCmd(RCC_AHB1Periph_GPIOx, ENABLE);
  81:../Libraries/STM32F4xx_StdPeriph_Driver/src/stm32f4xx_fsmc.c **** 
  82:../Libraries/STM32F4xx_StdPeriph_Driver/src/stm32f4xx_fsmc.c ****    2. FSMC pins configuration 
  83:../Libraries/STM32F4xx_StdPeriph_Driver/src/stm32f4xx_fsmc.c ****        - Connect the involved FSMC pins to AF12 using the following function 
  84:../Libraries/STM32F4xx_StdPeriph_Driver/src/stm32f4xx_fsmc.c ****           GPIO_PinAFConfig(GPIOx, GPIO_PinSourcex, GPIO_AF_FSMC); 
  85:../Libraries/STM32F4xx_StdPeriph_Driver/src/stm32f4xx_fsmc.c ****        - Configure these FSMC pins in alternate function mode by calling the function
  86:../Libraries/STM32F4xx_StdPeriph_Driver/src/stm32f4xx_fsmc.c ****           GPIO_Init();    
  87:../Libraries/STM32F4xx_StdPeriph_Driver/src/stm32f4xx_fsmc.c ****        
  88:../Libraries/STM32F4xx_StdPeriph_Driver/src/stm32f4xx_fsmc.c ****    3. Declare a FSMC_NORSRAMInitTypeDef structure, for example:
  89:../Libraries/STM32F4xx_StdPeriph_Driver/src/stm32f4xx_fsmc.c ****           FSMC_NORSRAMInitTypeDef  FSMC_NORSRAMInitStructure;
  90:../Libraries/STM32F4xx_StdPeriph_Driver/src/stm32f4xx_fsmc.c ****       and fill the FSMC_NORSRAMInitStructure variable with the allowed values of
  91:../Libraries/STM32F4xx_StdPeriph_Driver/src/stm32f4xx_fsmc.c ****       the structure member.
  92:../Libraries/STM32F4xx_StdPeriph_Driver/src/stm32f4xx_fsmc.c ****       
  93:../Libraries/STM32F4xx_StdPeriph_Driver/src/stm32f4xx_fsmc.c ****    4. Initialize the NOR/SRAM Controller by calling the function
  94:../Libraries/STM32F4xx_StdPeriph_Driver/src/stm32f4xx_fsmc.c ****           FSMC_NORSRAMInit(&FSMC_NORSRAMInitStructure); 
  95:../Libraries/STM32F4xx_StdPeriph_Driver/src/stm32f4xx_fsmc.c **** 
  96:../Libraries/STM32F4xx_StdPeriph_Driver/src/stm32f4xx_fsmc.c ****    5. Then enable the NOR/SRAM Bank, for example:
  97:../Libraries/STM32F4xx_StdPeriph_Driver/src/stm32f4xx_fsmc.c ****           FSMC_NORSRAMCmd(FSMC_Bank1_NORSRAM2, ENABLE);  
  98:../Libraries/STM32F4xx_StdPeriph_Driver/src/stm32f4xx_fsmc.c **** 
  99:../Libraries/STM32F4xx_StdPeriph_Driver/src/stm32f4xx_fsmc.c ****    6. At this stage you can read/write from/to the memory connected to the NOR/SRAM Bank. 
 100:../Libraries/STM32F4xx_StdPeriph_Driver/src/stm32f4xx_fsmc.c ****    
 101:../Libraries/STM32F4xx_StdPeriph_Driver/src/stm32f4xx_fsmc.c **** @endverbatim
 102:../Libraries/STM32F4xx_StdPeriph_Driver/src/stm32f4xx_fsmc.c ****   * @{
 103:../Libraries/STM32F4xx_StdPeriph_Driver/src/stm32f4xx_fsmc.c ****   */
 104:../Libraries/STM32F4xx_StdPeriph_Driver/src/stm32f4xx_fsmc.c **** 
 105:../Libraries/STM32F4xx_StdPeriph_Driver/src/stm32f4xx_fsmc.c **** /**
 106:../Libraries/STM32F4xx_StdPeriph_Driver/src/stm32f4xx_fsmc.c ****   * @brief  Deinitializes the FSMC NOR/SRAM Banks registers to their default 
 107:../Libraries/STM32F4xx_StdPeriph_Driver/src/stm32f4xx_fsmc.c ****   *   reset values.
 108:../Libraries/STM32F4xx_StdPeriph_Driver/src/stm32f4xx_fsmc.c ****   * @param  FSMC_Bank: specifies the FSMC Bank to be used
 109:../Libraries/STM32F4xx_StdPeriph_Driver/src/stm32f4xx_fsmc.c ****   *          This parameter can be one of the following values:
 110:../Libraries/STM32F4xx_StdPeriph_Driver/src/stm32f4xx_fsmc.c ****   *            @arg FSMC_Bank1_NORSRAM1: FSMC Bank1 NOR/SRAM1  
 111:../Libraries/STM32F4xx_StdPeriph_Driver/src/stm32f4xx_fsmc.c ****   *            @arg FSMC_Bank1_NORSRAM2: FSMC Bank1 NOR/SRAM2 
 112:../Libraries/STM32F4xx_StdPeriph_Driver/src/stm32f4xx_fsmc.c ****   *            @arg FSMC_Bank1_NORSRAM3: FSMC Bank1 NOR/SRAM3 
 113:../Libraries/STM32F4xx_StdPeriph_Driver/src/stm32f4xx_fsmc.c ****   *            @arg FSMC_Bank1_NORSRAM4: FSMC Bank1 NOR/SRAM4 
 114:../Libraries/STM32F4xx_StdPeriph_Driver/src/stm32f4xx_fsmc.c ****   * @retval None
 115:../Libraries/STM32F4xx_StdPeriph_Driver/src/stm32f4xx_fsmc.c ****   */
 116:../Libraries/STM32F4xx_StdPeriph_Driver/src/stm32f4xx_fsmc.c **** void FSMC_NORSRAMDeInit(uint32_t FSMC_Bank)
 117:../Libraries/STM32F4xx_StdPeriph_Driver/src/stm32f4xx_fsmc.c **** {
 103              		.loc 1 117 1 view -0
 104              		.cfi_startproc
 105              		@ args = 0, pretend = 0, frame = 0
 106              		@ frame_needed = 0, uses_anonymous_args = 0
 118:../Libraries/STM32F4xx_StdPeriph_Driver/src/stm32f4xx_fsmc.c ****   /* Check the parameter */
 119:../Libraries/STM32F4xx_StdPeriph_Driver/src/stm32f4xx_fsmc.c ****   assert_param(IS_FSMC_NORSRAM_BANK(FSMC_Bank));
 107              		.loc 1 119 3 view .LVU1
 108              	@ ../Libraries/STM32F4xx_StdPeriph_Driver/src/stm32f4xx_fsmc.c:117: {
 117:../Libraries/STM32F4xx_StdPeriph_Driver/src/stm32f4xx_fsmc.c ****   /* Check the parameter */
ARM GAS  C:\Users\admin\AppData\Local\Temp\ccAkqsWz.s 			page 5


 109              		.loc 1 117 1 is_stmt 0 view .LVU2
 110 0000 10B5     		push	{r4, lr}	@
 111              		.cfi_def_cfa_offset 8
 112              		.cfi_offset 4, -8
 113              		.cfi_offset 14, -4
 114              	@ ../Libraries/STM32F4xx_StdPeriph_Driver/src/stm32f4xx_fsmc.c:119:   assert_param(IS_FSMC_NORSRAM_
 115              		.loc 1 119 3 view .LVU3
 116 0002 0446     		mov	r4, r0	@ FSMC_Bank, tmp130
 117 0004 88B1     		cbz	r0, .L2	@ FSMC_Bank,
 118              	@ ../Libraries/STM32F4xx_StdPeriph_Driver/src/stm32f4xx_fsmc.c:119:   assert_param(IS_FSMC_NORSRAM_
 119              		.loc 1 119 16 discriminator 2 view .LVU4
 120 0006 20F00403 		bic	r3, r0, #4	@ tmp120, FSMC_Bank,
 121 000a 022B     		cmp	r3, #2	@ tmp120,
 122 000c 1ED0     		beq	.L5		@,
 123              	@ ../Libraries/STM32F4xx_StdPeriph_Driver/src/stm32f4xx_fsmc.c:119:   assert_param(IS_FSMC_NORSRAM_
 124              		.loc 1 119 16 discriminator 4 view .LVU5
 125 000e A0F10400 		sub	r0, #4	@ _20,
 126              	.LVL1:
 127              		.loc 1 119 16 discriminator 4 view .LVU6
 128 0012 B0FA80F0 		clz	r0, r0	@ _20, _20
 129 0016 4009     		lsrs	r0, r0, #5	@ _20, _20,
 130              	.L3:
 131              	@ ../Libraries/STM32F4xx_StdPeriph_Driver/src/stm32f4xx_fsmc.c:119:   assert_param(IS_FSMC_NORSRAM_
 132              		.loc 1 119 3 view .LVU7
 133 0018 FFF7FEFF 		bl	assert_param		@
 134              	.LVL2:
 120:../Libraries/STM32F4xx_StdPeriph_Driver/src/stm32f4xx_fsmc.c ****   
 121:../Libraries/STM32F4xx_StdPeriph_Driver/src/stm32f4xx_fsmc.c ****   /* FSMC_Bank1_NORSRAM1 */
 122:../Libraries/STM32F4xx_StdPeriph_Driver/src/stm32f4xx_fsmc.c ****   if(FSMC_Bank == FSMC_Bank1_NORSRAM1)
 135              		.loc 1 122 3 is_stmt 1 view .LVU8
 123:../Libraries/STM32F4xx_StdPeriph_Driver/src/stm32f4xx_fsmc.c ****   {
 124:../Libraries/STM32F4xx_StdPeriph_Driver/src/stm32f4xx_fsmc.c ****     FSMC_Bank1->BTCR[FSMC_Bank] = 0x000030DB;    
 125:../Libraries/STM32F4xx_StdPeriph_Driver/src/stm32f4xx_fsmc.c ****   }
 126:../Libraries/STM32F4xx_StdPeriph_Driver/src/stm32f4xx_fsmc.c ****   /* FSMC_Bank1_NORSRAM2,  FSMC_Bank1_NORSRAM3 or FSMC_Bank1_NORSRAM4 */
 127:../Libraries/STM32F4xx_StdPeriph_Driver/src/stm32f4xx_fsmc.c ****   else
 128:../Libraries/STM32F4xx_StdPeriph_Driver/src/stm32f4xx_fsmc.c ****   {   
 129:../Libraries/STM32F4xx_StdPeriph_Driver/src/stm32f4xx_fsmc.c ****     FSMC_Bank1->BTCR[FSMC_Bank] = 0x000030D2; 
 136              		.loc 1 129 5 view .LVU9
 137              	@ ../Libraries/STM32F4xx_StdPeriph_Driver/src/stm32f4xx_fsmc.c:129:     FSMC_Bank1->BTCR[FSMC_Bank]
 138              		.loc 1 129 33 is_stmt 0 view .LVU10
 139 001c 4FF02043 		mov	r3, #-1610612736	@ tmp128,
 140 0020 43F2D202 		movw	r2, #12498	@ tmp129,
 141 0024 43F82420 		str	r2, [r3, r4, lsl #2]	@ tmp129, MEM[(struct FSMC_Bank1_TypeDef *)2684354560B].BTCR[FSMC_Bank_4(
 142 0028 07E0     		b	.L4		@
 143              	.LVL3:
 144              	.L2:
 145              	@ ../Libraries/STM32F4xx_StdPeriph_Driver/src/stm32f4xx_fsmc.c:119:   assert_param(IS_FSMC_NORSRAM_
 119:../Libraries/STM32F4xx_StdPeriph_Driver/src/stm32f4xx_fsmc.c ****   
 146              		.loc 1 119 3 view .LVU11
 147 002a 0120     		movs	r0, #1	@,
 148              	.LVL4:
 119:../Libraries/STM32F4xx_StdPeriph_Driver/src/stm32f4xx_fsmc.c ****   
 149              		.loc 1 119 3 view .LVU12
 150 002c FFF7FEFF 		bl	assert_param		@
 151              	.LVL5:
 122:../Libraries/STM32F4xx_StdPeriph_Driver/src/stm32f4xx_fsmc.c ****   {
 152              		.loc 1 122 3 is_stmt 1 view .LVU13
ARM GAS  C:\Users\admin\AppData\Local\Temp\ccAkqsWz.s 			page 6


 124:../Libraries/STM32F4xx_StdPeriph_Driver/src/stm32f4xx_fsmc.c ****   }
 153              		.loc 1 124 5 view .LVU14
 154              	@ ../Libraries/STM32F4xx_StdPeriph_Driver/src/stm32f4xx_fsmc.c:124:     FSMC_Bank1->BTCR[FSMC_Bank]
 124:../Libraries/STM32F4xx_StdPeriph_Driver/src/stm32f4xx_fsmc.c ****   }
 155              		.loc 1 124 33 is_stmt 0 view .LVU15
 156 0030 4FF02043 		mov	r3, #-1610612736	@ tmp126,
 157 0034 43F2DB02 		movw	r2, #12507	@ tmp127,
 158 0038 1A60     		str	r2, [r3]	@ tmp127, MEM[(struct FSMC_Bank1_TypeDef *)2684354560B].BTCR[0]
 159              	.L4:
 130:../Libraries/STM32F4xx_StdPeriph_Driver/src/stm32f4xx_fsmc.c ****   }
 131:../Libraries/STM32F4xx_StdPeriph_Driver/src/stm32f4xx_fsmc.c ****   FSMC_Bank1->BTCR[FSMC_Bank + 1] = 0x0FFFFFFF;
 160              		.loc 1 131 3 is_stmt 1 view .LVU16
 161 003a A400     		lsls	r4, r4, #2	@ _21, FSMC_Bank,
 162              	.LVL6:
 163              		.loc 1 131 3 is_stmt 0 view .LVU17
 164 003c 04F12044 		add	r4, r4, #-1610612736	@ _6, _21,
 165              	@ ../Libraries/STM32F4xx_StdPeriph_Driver/src/stm32f4xx_fsmc.c:131:   FSMC_Bank1->BTCR[FSMC_Bank + 
 166              		.loc 1 131 35 view .LVU18
 167 0040 6FF07043 		mvn	r3, #-268435456	@ tmp123,
 168 0044 6360     		str	r3, [r4, #4]	@ tmp123, MEM <volatile uint32_t> [(struct FSMC_Bank1_TypeDef *)_6 + 4B]
 132:../Libraries/STM32F4xx_StdPeriph_Driver/src/stm32f4xx_fsmc.c ****   FSMC_Bank1E->BWTR[FSMC_Bank] = 0x0FFFFFFF;  
 169              		.loc 1 132 3 is_stmt 1 view .LVU19
 170              	@ ../Libraries/STM32F4xx_StdPeriph_Driver/src/stm32f4xx_fsmc.c:132:   FSMC_Bank1E->BWTR[FSMC_Bank] 
 171              		.loc 1 132 32 is_stmt 0 view .LVU20
 172 0046 C4F80431 		str	r3, [r4, #260]	@ tmp123, MEM <volatile uint32_t> [(struct FSMC_Bank1E_TypeDef *)_18]
 173              	@ ../Libraries/STM32F4xx_StdPeriph_Driver/src/stm32f4xx_fsmc.c:133: }
 133:../Libraries/STM32F4xx_StdPeriph_Driver/src/stm32f4xx_fsmc.c **** }
 174              		.loc 1 133 1 view .LVU21
 175 004a 10BD     		pop	{r4, pc}	@
 176              	.LVL7:
 177              	.L5:
 178              	@ ../Libraries/STM32F4xx_StdPeriph_Driver/src/stm32f4xx_fsmc.c:119:   assert_param(IS_FSMC_NORSRAM_
 119:../Libraries/STM32F4xx_StdPeriph_Driver/src/stm32f4xx_fsmc.c ****   
 179              		.loc 1 119 3 view .LVU22
 180 004c 0120     		movs	r0, #1	@ _20,
 181              	.LVL8:
 119:../Libraries/STM32F4xx_StdPeriph_Driver/src/stm32f4xx_fsmc.c ****   
 182              		.loc 1 119 3 view .LVU23
 183 004e E3E7     		b	.L3		@
 184              		.cfi_endproc
 185              	.LFE110:
 186              		.size	FSMC_NORSRAMDeInit, .-FSMC_NORSRAMDeInit
 187              		.section	.text.FSMC_NORSRAMInit,"ax",%progbits
 188              		.align	1
 189              		.p2align 2,,3
 190              		.global	FSMC_NORSRAMInit
 191              		.syntax unified
 192              		.thumb
 193              		.thumb_func
 194              		.type	FSMC_NORSRAMInit, %function
 195              	FSMC_NORSRAMInit:
 196              	.LVL9:
 197              	.LFB111:
 134:../Libraries/STM32F4xx_StdPeriph_Driver/src/stm32f4xx_fsmc.c **** 
 135:../Libraries/STM32F4xx_StdPeriph_Driver/src/stm32f4xx_fsmc.c **** /**
 136:../Libraries/STM32F4xx_StdPeriph_Driver/src/stm32f4xx_fsmc.c ****   * @brief  Initializes the FSMC NOR/SRAM Banks according to the specified
 137:../Libraries/STM32F4xx_StdPeriph_Driver/src/stm32f4xx_fsmc.c ****   *         parameters in the FSMC_NORSRAMInitStruct.
ARM GAS  C:\Users\admin\AppData\Local\Temp\ccAkqsWz.s 			page 7


 138:../Libraries/STM32F4xx_StdPeriph_Driver/src/stm32f4xx_fsmc.c ****   * @param  FSMC_NORSRAMInitStruct : pointer to a FSMC_NORSRAMInitTypeDef structure
 139:../Libraries/STM32F4xx_StdPeriph_Driver/src/stm32f4xx_fsmc.c ****   *         that contains the configuration information for the FSMC NOR/SRAM 
 140:../Libraries/STM32F4xx_StdPeriph_Driver/src/stm32f4xx_fsmc.c ****   *         specified Banks.                       
 141:../Libraries/STM32F4xx_StdPeriph_Driver/src/stm32f4xx_fsmc.c ****   * @retval None
 142:../Libraries/STM32F4xx_StdPeriph_Driver/src/stm32f4xx_fsmc.c ****   */
 143:../Libraries/STM32F4xx_StdPeriph_Driver/src/stm32f4xx_fsmc.c **** void FSMC_NORSRAMInit(FSMC_NORSRAMInitTypeDef* FSMC_NORSRAMInitStruct)
 144:../Libraries/STM32F4xx_StdPeriph_Driver/src/stm32f4xx_fsmc.c **** { 
 198              		.loc 1 144 1 is_stmt 1 view -0
 199              		.cfi_startproc
 200              		@ args = 0, pretend = 0, frame = 0
 201              		@ frame_needed = 0, uses_anonymous_args = 0
 145:../Libraries/STM32F4xx_StdPeriph_Driver/src/stm32f4xx_fsmc.c ****   /* Check the parameters */
 146:../Libraries/STM32F4xx_StdPeriph_Driver/src/stm32f4xx_fsmc.c ****   assert_param(IS_FSMC_NORSRAM_BANK(FSMC_NORSRAMInitStruct->FSMC_Bank));
 202              		.loc 1 146 3 view .LVU25
 203              	@ ../Libraries/STM32F4xx_StdPeriph_Driver/src/stm32f4xx_fsmc.c:144: { 
 144:../Libraries/STM32F4xx_StdPeriph_Driver/src/stm32f4xx_fsmc.c ****   /* Check the parameters */
 204              		.loc 1 144 1 is_stmt 0 view .LVU26
 205 0000 38B5     		push	{r3, r4, r5, lr}	@
 206              		.cfi_def_cfa_offset 16
 207              		.cfi_offset 3, -16
 208              		.cfi_offset 4, -12
 209              		.cfi_offset 5, -8
 210              		.cfi_offset 14, -4
 211              	@ ../Libraries/STM32F4xx_StdPeriph_Driver/src/stm32f4xx_fsmc.c:146:   assert_param(IS_FSMC_NORSRAM_
 212              		.loc 1 146 3 view .LVU27
 213 0002 0368     		ldr	r3, [r0]	@ FSMC_NORSRAMInitStruct_145(D)->FSMC_Bank, FSMC_NORSRAMInitStruct_145(D)->FSMC_Bank
 214              	@ ../Libraries/STM32F4xx_StdPeriph_Driver/src/stm32f4xx_fsmc.c:144: { 
 144:../Libraries/STM32F4xx_StdPeriph_Driver/src/stm32f4xx_fsmc.c ****   /* Check the parameters */
 215              		.loc 1 144 1 view .LVU28
 216 0004 0446     		mov	r4, r0	@ FSMC_NORSRAMInitStruct, tmp452
 217              	@ ../Libraries/STM32F4xx_StdPeriph_Driver/src/stm32f4xx_fsmc.c:146:   assert_param(IS_FSMC_NORSRAM_
 218              		.loc 1 146 3 view .LVU29
 219 0006 33F00603 		bics	r3, r3, #6	@ tmp454, FSMC_NORSRAMInitStruct_145(D)->FSMC_Bank,
 220 000a 0CBF     		ite	eq
 221 000c 0120     		moveq	r0, #1	@,
 222              	.LVL10:
 223              		.loc 1 146 3 view .LVU30
 224 000e 0020     		movne	r0, #0	@,
 225 0010 FFF7FEFF 		bl	assert_param		@
 226              	.LVL11:
 147:../Libraries/STM32F4xx_StdPeriph_Driver/src/stm32f4xx_fsmc.c ****   assert_param(IS_FSMC_MUX(FSMC_NORSRAMInitStruct->FSMC_DataAddressMux));
 227              		.loc 1 147 3 is_stmt 1 view .LVU31
 228 0014 6368     		ldr	r3, [r4, #4]	@ FSMC_NORSRAMInitStruct_145(D)->FSMC_DataAddressMux, FSMC_NORSRAMInitStruct_145(
 229 0016 33F00203 		bics	r3, r3, #2	@ tmp455, FSMC_NORSRAMInitStruct_145(D)->FSMC_DataAddressMux,
 230 001a 0CBF     		ite	eq
 231 001c 0120     		moveq	r0, #1	@,
 232 001e 0020     		movne	r0, #0	@,
 233 0020 FFF7FEFF 		bl	assert_param		@
 234              	.LVL12:
 148:../Libraries/STM32F4xx_StdPeriph_Driver/src/stm32f4xx_fsmc.c ****   assert_param(IS_FSMC_MEMORY(FSMC_NORSRAMInitStruct->FSMC_MemoryType));
 235              		.loc 1 148 3 view .LVU32
 236              	@ ../Libraries/STM32F4xx_StdPeriph_Driver/src/stm32f4xx_fsmc.c:148:   assert_param(IS_FSMC_MEMORY(F
 237              		.loc 1 148 16 is_stmt 0 view .LVU33
 238 0024 A068     		ldr	r0, [r4, #8]	@ _3, FSMC_NORSRAMInitStruct_145(D)->FSMC_MemoryType
 239              	@ ../Libraries/STM32F4xx_StdPeriph_Driver/src/stm32f4xx_fsmc.c:148:   assert_param(IS_FSMC_MEMORY(F
 240              		.loc 1 148 3 view .LVU34
 241 0026 30F00403 		bics	r3, r0, #4	@ tmp456, _3,
ARM GAS  C:\Users\admin\AppData\Local\Temp\ccAkqsWz.s 			page 8


 242 002a 1DBF     		ittte	ne
 243 002c 0838     		subne	r0, #8	@ iftmp.3_129,
 244 002e B0FA80F0 		clzne	r0, r0	@ iftmp.3_129, iftmp.3_129
 245 0032 4009     		lsrne	r0, r0, #5	@ iftmp.3_129, iftmp.3_129,
 246 0034 0120     		moveq	r0, #1	@ iftmp.3_129,
 247 0036 FFF7FEFF 		bl	assert_param		@
 248              	.LVL13:
 149:../Libraries/STM32F4xx_StdPeriph_Driver/src/stm32f4xx_fsmc.c ****   assert_param(IS_FSMC_MEMORY_WIDTH(FSMC_NORSRAMInitStruct->FSMC_MemoryDataWidth));
 249              		.loc 1 149 3 is_stmt 1 view .LVU35
 250 003a E368     		ldr	r3, [r4, #12]	@ FSMC_NORSRAMInitStruct_145(D)->FSMC_MemoryDataWidth, FSMC_NORSRAMInitStruct_14
 251 003c 33F01003 		bics	r3, r3, #16	@ tmp457, FSMC_NORSRAMInitStruct_145(D)->FSMC_MemoryDataWidth,
 252 0040 0CBF     		ite	eq
 253 0042 0120     		moveq	r0, #1	@,
 254 0044 0020     		movne	r0, #0	@,
 255 0046 FFF7FEFF 		bl	assert_param		@
 256              	.LVL14:
 150:../Libraries/STM32F4xx_StdPeriph_Driver/src/stm32f4xx_fsmc.c ****   assert_param(IS_FSMC_BURSTMODE(FSMC_NORSRAMInitStruct->FSMC_BurstAccessMode));
 257              		.loc 1 150 3 view .LVU36
 258 004a 2369     		ldr	r3, [r4, #16]	@ FSMC_NORSRAMInitStruct_145(D)->FSMC_BurstAccessMode, FSMC_NORSRAMInitStruct_14
 259 004c 33F48073 		bics	r3, r3, #256	@ tmp458, FSMC_NORSRAMInitStruct_145(D)->FSMC_BurstAccessMode,
 260 0050 0CBF     		ite	eq
 261 0052 0120     		moveq	r0, #1	@,
 262 0054 0020     		movne	r0, #0	@,
 263 0056 FFF7FEFF 		bl	assert_param		@
 264              	.LVL15:
 151:../Libraries/STM32F4xx_StdPeriph_Driver/src/stm32f4xx_fsmc.c ****   assert_param(IS_FSMC_ASYNWAIT(FSMC_NORSRAMInitStruct->FSMC_AsynchronousWait));
 265              		.loc 1 151 3 view .LVU37
 266 005a 6369     		ldr	r3, [r4, #20]	@ FSMC_NORSRAMInitStruct_145(D)->FSMC_AsynchronousWait, FSMC_NORSRAMInitStruct_1
 267 005c 33F40043 		bics	r3, r3, #32768	@ tmp459, FSMC_NORSRAMInitStruct_145(D)->FSMC_AsynchronousWait,
 268 0060 0CBF     		ite	eq
 269 0062 0120     		moveq	r0, #1	@,
 270 0064 0020     		movne	r0, #0	@,
 271 0066 FFF7FEFF 		bl	assert_param		@
 272              	.LVL16:
 152:../Libraries/STM32F4xx_StdPeriph_Driver/src/stm32f4xx_fsmc.c ****   assert_param(IS_FSMC_WAIT_POLARITY(FSMC_NORSRAMInitStruct->FSMC_WaitSignalPolarity));
 273              		.loc 1 152 3 view .LVU38
 274 006a A369     		ldr	r3, [r4, #24]	@ FSMC_NORSRAMInitStruct_145(D)->FSMC_WaitSignalPolarity, FSMC_NORSRAMInitStruct
 275 006c 33F40073 		bics	r3, r3, #512	@ tmp460, FSMC_NORSRAMInitStruct_145(D)->FSMC_WaitSignalPolarity,
 276 0070 0CBF     		ite	eq
 277 0072 0120     		moveq	r0, #1	@,
 278 0074 0020     		movne	r0, #0	@,
 279 0076 FFF7FEFF 		bl	assert_param		@
 280              	.LVL17:
 153:../Libraries/STM32F4xx_StdPeriph_Driver/src/stm32f4xx_fsmc.c ****   assert_param(IS_FSMC_WRAP_MODE(FSMC_NORSRAMInitStruct->FSMC_WrapMode));
 281              		.loc 1 153 3 view .LVU39
 282 007a E369     		ldr	r3, [r4, #28]	@ FSMC_NORSRAMInitStruct_145(D)->FSMC_WrapMode, FSMC_NORSRAMInitStruct_145(D)->F
 283 007c 33F48063 		bics	r3, r3, #1024	@ tmp461, FSMC_NORSRAMInitStruct_145(D)->FSMC_WrapMode,
 284 0080 0CBF     		ite	eq
 285 0082 0120     		moveq	r0, #1	@,
 286 0084 0020     		movne	r0, #0	@,
 287 0086 FFF7FEFF 		bl	assert_param		@
 288              	.LVL18:
 154:../Libraries/STM32F4xx_StdPeriph_Driver/src/stm32f4xx_fsmc.c ****   assert_param(IS_FSMC_WAIT_SIGNAL_ACTIVE(FSMC_NORSRAMInitStruct->FSMC_WaitSignalActive));
 289              		.loc 1 154 3 view .LVU40
 290 008a 236A     		ldr	r3, [r4, #32]	@ FSMC_NORSRAMInitStruct_145(D)->FSMC_WaitSignalActive, FSMC_NORSRAMInitStruct_1
 291 008c 33F40063 		bics	r3, r3, #2048	@ tmp462, FSMC_NORSRAMInitStruct_145(D)->FSMC_WaitSignalActive,
 292 0090 0CBF     		ite	eq
ARM GAS  C:\Users\admin\AppData\Local\Temp\ccAkqsWz.s 			page 9


 293 0092 0120     		moveq	r0, #1	@,
 294 0094 0020     		movne	r0, #0	@,
 295 0096 FFF7FEFF 		bl	assert_param		@
 296              	.LVL19:
 155:../Libraries/STM32F4xx_StdPeriph_Driver/src/stm32f4xx_fsmc.c ****   assert_param(IS_FSMC_WRITE_OPERATION(FSMC_NORSRAMInitStruct->FSMC_WriteOperation));
 297              		.loc 1 155 3 view .LVU41
 298 009a 636A     		ldr	r3, [r4, #36]	@ FSMC_NORSRAMInitStruct_145(D)->FSMC_WriteOperation, FSMC_NORSRAMInitStruct_145
 299 009c 33F48053 		bics	r3, r3, #4096	@ tmp463, FSMC_NORSRAMInitStruct_145(D)->FSMC_WriteOperation,
 300 00a0 0CBF     		ite	eq
 301 00a2 0120     		moveq	r0, #1	@,
 302 00a4 0020     		movne	r0, #0	@,
 303 00a6 FFF7FEFF 		bl	assert_param		@
 304              	.LVL20:
 156:../Libraries/STM32F4xx_StdPeriph_Driver/src/stm32f4xx_fsmc.c ****   assert_param(IS_FSMC_WAITE_SIGNAL(FSMC_NORSRAMInitStruct->FSMC_WaitSignal));
 305              		.loc 1 156 3 view .LVU42
 306 00aa A36A     		ldr	r3, [r4, #40]	@ FSMC_NORSRAMInitStruct_145(D)->FSMC_WaitSignal, FSMC_NORSRAMInitStruct_145(D)-
 307 00ac 33F40053 		bics	r3, r3, #8192	@ tmp464, FSMC_NORSRAMInitStruct_145(D)->FSMC_WaitSignal,
 308 00b0 0CBF     		ite	eq
 309 00b2 0120     		moveq	r0, #1	@,
 310 00b4 0020     		movne	r0, #0	@,
 311 00b6 FFF7FEFF 		bl	assert_param		@
 312              	.LVL21:
 157:../Libraries/STM32F4xx_StdPeriph_Driver/src/stm32f4xx_fsmc.c ****   assert_param(IS_FSMC_EXTENDED_MODE(FSMC_NORSRAMInitStruct->FSMC_ExtendedMode));
 313              		.loc 1 157 3 view .LVU43
 314 00ba E36A     		ldr	r3, [r4, #44]	@ FSMC_NORSRAMInitStruct_145(D)->FSMC_ExtendedMode, FSMC_NORSRAMInitStruct_145(D
 315 00bc 33F48043 		bics	r3, r3, #16384	@ tmp465, FSMC_NORSRAMInitStruct_145(D)->FSMC_ExtendedMode,
 316 00c0 0CBF     		ite	eq
 317 00c2 0120     		moveq	r0, #1	@,
 318 00c4 0020     		movne	r0, #0	@,
 319 00c6 FFF7FEFF 		bl	assert_param		@
 320              	.LVL22:
 158:../Libraries/STM32F4xx_StdPeriph_Driver/src/stm32f4xx_fsmc.c ****   assert_param(IS_FSMC_WRITE_BURST(FSMC_NORSRAMInitStruct->FSMC_WriteBurst));  
 321              		.loc 1 158 3 view .LVU44
 322 00ca 236B     		ldr	r3, [r4, #48]	@ FSMC_NORSRAMInitStruct_145(D)->FSMC_WriteBurst, FSMC_NORSRAMInitStruct_145(D)-
 323 00cc 33F40023 		bics	r3, r3, #524288	@ tmp466, FSMC_NORSRAMInitStruct_145(D)->FSMC_WriteBurst,
 324 00d0 0CBF     		ite	eq
 325 00d2 0120     		moveq	r0, #1	@,
 326 00d4 0020     		movne	r0, #0	@,
 327 00d6 FFF7FEFF 		bl	assert_param		@
 328              	.LVL23:
 159:../Libraries/STM32F4xx_StdPeriph_Driver/src/stm32f4xx_fsmc.c ****   assert_param(IS_FSMC_ADDRESS_SETUP_TIME(FSMC_NORSRAMInitStruct->FSMC_ReadWriteTimingStruct->FSMC_
 329              		.loc 1 159 3 view .LVU45
 330              	@ ../Libraries/STM32F4xx_StdPeriph_Driver/src/stm32f4xx_fsmc.c:159:   assert_param(IS_FSMC_ADDRESS_
 331              		.loc 1 159 16 is_stmt 0 view .LVU46
 332 00da 636B     		ldr	r3, [r4, #52]	@ FSMC_NORSRAMInitStruct_145(D)->FSMC_ReadWriteTimingStruct, FSMC_NORSRAMInitStr
 333              	@ ../Libraries/STM32F4xx_StdPeriph_Driver/src/stm32f4xx_fsmc.c:159:   assert_param(IS_FSMC_ADDRESS_
 334              		.loc 1 159 3 view .LVU47
 335 00dc 1868     		ldr	r0, [r3]	@ _14->FSMC_AddressSetupTime, _14->FSMC_AddressSetupTime
 336 00de 0F28     		cmp	r0, #15	@ _14->FSMC_AddressSetupTime,
 337 00e0 8CBF     		ite	hi
 338 00e2 0020     		movhi	r0, #0	@,
 339 00e4 0120     		movls	r0, #1	@,
 340 00e6 FFF7FEFF 		bl	assert_param		@
 341              	.LVL24:
 160:../Libraries/STM32F4xx_StdPeriph_Driver/src/stm32f4xx_fsmc.c ****   assert_param(IS_FSMC_ADDRESS_HOLD_TIME(FSMC_NORSRAMInitStruct->FSMC_ReadWriteTimingStruct->FSMC_A
 342              		.loc 1 160 3 is_stmt 1 view .LVU48
 343              	@ ../Libraries/STM32F4xx_StdPeriph_Driver/src/stm32f4xx_fsmc.c:160:   assert_param(IS_FSMC_ADDRESS_
ARM GAS  C:\Users\admin\AppData\Local\Temp\ccAkqsWz.s 			page 10


 344              		.loc 1 160 16 is_stmt 0 view .LVU49
 345 00ea 636B     		ldr	r3, [r4, #52]	@ FSMC_NORSRAMInitStruct_145(D)->FSMC_ReadWriteTimingStruct, FSMC_NORSRAMInitStr
 346              	@ ../Libraries/STM32F4xx_StdPeriph_Driver/src/stm32f4xx_fsmc.c:160:   assert_param(IS_FSMC_ADDRESS_
 347              		.loc 1 160 3 view .LVU50
 348 00ec 5868     		ldr	r0, [r3, #4]	@ _18->FSMC_AddressHoldTime, _18->FSMC_AddressHoldTime
 349 00ee 0F28     		cmp	r0, #15	@ _18->FSMC_AddressHoldTime,
 350 00f0 8CBF     		ite	hi
 351 00f2 0020     		movhi	r0, #0	@,
 352 00f4 0120     		movls	r0, #1	@,
 353 00f6 FFF7FEFF 		bl	assert_param		@
 354              	.LVL25:
 161:../Libraries/STM32F4xx_StdPeriph_Driver/src/stm32f4xx_fsmc.c ****   assert_param(IS_FSMC_DATASETUP_TIME(FSMC_NORSRAMInitStruct->FSMC_ReadWriteTimingStruct->FSMC_Data
 355              		.loc 1 161 3 is_stmt 1 view .LVU51
 356              	@ ../Libraries/STM32F4xx_StdPeriph_Driver/src/stm32f4xx_fsmc.c:161:   assert_param(IS_FSMC_DATASETU
 357              		.loc 1 161 16 is_stmt 0 view .LVU52
 358 00fa 636B     		ldr	r3, [r4, #52]	@ FSMC_NORSRAMInitStruct_145(D)->FSMC_ReadWriteTimingStruct, FSMC_NORSRAMInitStr
 359 00fc 9868     		ldr	r0, [r3, #8]	@ _22->FSMC_DataSetupTime, _22->FSMC_DataSetupTime
 360 00fe 0138     		subs	r0, r0, #1	@ tmp347, _22->FSMC_DataSetupTime,
 361              	@ ../Libraries/STM32F4xx_StdPeriph_Driver/src/stm32f4xx_fsmc.c:161:   assert_param(IS_FSMC_DATASETU
 362              		.loc 1 161 3 view .LVU53
 363 0100 FE28     		cmp	r0, #254	@ tmp347,
 364 0102 8CBF     		ite	hi
 365 0104 0020     		movhi	r0, #0	@,
 366 0106 0120     		movls	r0, #1	@,
 367 0108 FFF7FEFF 		bl	assert_param		@
 368              	.LVL26:
 162:../Libraries/STM32F4xx_StdPeriph_Driver/src/stm32f4xx_fsmc.c ****   assert_param(IS_FSMC_TURNAROUND_TIME(FSMC_NORSRAMInitStruct->FSMC_ReadWriteTimingStruct->FSMC_Bus
 369              		.loc 1 162 3 is_stmt 1 view .LVU54
 370              	@ ../Libraries/STM32F4xx_StdPeriph_Driver/src/stm32f4xx_fsmc.c:162:   assert_param(IS_FSMC_TURNAROU
 371              		.loc 1 162 16 is_stmt 0 view .LVU55
 372 010c 636B     		ldr	r3, [r4, #52]	@ FSMC_NORSRAMInitStruct_145(D)->FSMC_ReadWriteTimingStruct, FSMC_NORSRAMInitStr
 373              	@ ../Libraries/STM32F4xx_StdPeriph_Driver/src/stm32f4xx_fsmc.c:162:   assert_param(IS_FSMC_TURNAROU
 374              		.loc 1 162 3 view .LVU56
 375 010e D868     		ldr	r0, [r3, #12]	@ _27->FSMC_BusTurnAroundDuration, _27->FSMC_BusTurnAroundDuration
 376 0110 0F28     		cmp	r0, #15	@ _27->FSMC_BusTurnAroundDuration,
 377 0112 8CBF     		ite	hi
 378 0114 0020     		movhi	r0, #0	@,
 379 0116 0120     		movls	r0, #1	@,
 380 0118 FFF7FEFF 		bl	assert_param		@
 381              	.LVL27:
 163:../Libraries/STM32F4xx_StdPeriph_Driver/src/stm32f4xx_fsmc.c ****   assert_param(IS_FSMC_CLK_DIV(FSMC_NORSRAMInitStruct->FSMC_ReadWriteTimingStruct->FSMC_CLKDivision
 382              		.loc 1 163 3 is_stmt 1 view .LVU57
 383              	@ ../Libraries/STM32F4xx_StdPeriph_Driver/src/stm32f4xx_fsmc.c:163:   assert_param(IS_FSMC_CLK_DIV(
 384              		.loc 1 163 16 is_stmt 0 view .LVU58
 385 011c 636B     		ldr	r3, [r4, #52]	@ FSMC_NORSRAMInitStruct_145(D)->FSMC_ReadWriteTimingStruct, FSMC_NORSRAMInitStr
 386              	@ ../Libraries/STM32F4xx_StdPeriph_Driver/src/stm32f4xx_fsmc.c:163:   assert_param(IS_FSMC_CLK_DIV(
 387              		.loc 1 163 3 view .LVU59
 388 011e 1869     		ldr	r0, [r3, #16]	@ _31->FSMC_CLKDivision, _31->FSMC_CLKDivision
 389 0120 0F28     		cmp	r0, #15	@ _31->FSMC_CLKDivision,
 390 0122 8CBF     		ite	hi
 391 0124 0020     		movhi	r0, #0	@,
 392 0126 0120     		movls	r0, #1	@,
 393 0128 FFF7FEFF 		bl	assert_param		@
 394              	.LVL28:
 164:../Libraries/STM32F4xx_StdPeriph_Driver/src/stm32f4xx_fsmc.c ****   assert_param(IS_FSMC_DATA_LATENCY(FSMC_NORSRAMInitStruct->FSMC_ReadWriteTimingStruct->FSMC_DataLa
 395              		.loc 1 164 3 is_stmt 1 view .LVU60
 396              	@ ../Libraries/STM32F4xx_StdPeriph_Driver/src/stm32f4xx_fsmc.c:164:   assert_param(IS_FSMC_DATA_LAT
ARM GAS  C:\Users\admin\AppData\Local\Temp\ccAkqsWz.s 			page 11


 397              		.loc 1 164 16 is_stmt 0 view .LVU61
 398 012c 636B     		ldr	r3, [r4, #52]	@ FSMC_NORSRAMInitStruct_145(D)->FSMC_ReadWriteTimingStruct, FSMC_NORSRAMInitStr
 399              	@ ../Libraries/STM32F4xx_StdPeriph_Driver/src/stm32f4xx_fsmc.c:164:   assert_param(IS_FSMC_DATA_LAT
 400              		.loc 1 164 3 view .LVU62
 401 012e 5869     		ldr	r0, [r3, #20]	@ _35->FSMC_DataLatency, _35->FSMC_DataLatency
 402 0130 0F28     		cmp	r0, #15	@ _35->FSMC_DataLatency,
 403 0132 8CBF     		ite	hi
 404 0134 0020     		movhi	r0, #0	@,
 405 0136 0120     		movls	r0, #1	@,
 406 0138 FFF7FEFF 		bl	assert_param		@
 407              	.LVL29:
 165:../Libraries/STM32F4xx_StdPeriph_Driver/src/stm32f4xx_fsmc.c ****   assert_param(IS_FSMC_ACCESS_MODE(FSMC_NORSRAMInitStruct->FSMC_ReadWriteTimingStruct->FSMC_AccessM
 408              		.loc 1 165 3 is_stmt 1 view .LVU63
 409              	@ ../Libraries/STM32F4xx_StdPeriph_Driver/src/stm32f4xx_fsmc.c:165:   assert_param(IS_FSMC_ACCESS_M
 410              		.loc 1 165 16 is_stmt 0 view .LVU64
 411 013c 636B     		ldr	r3, [r4, #52]	@ FSMC_NORSRAMInitStruct_145(D)->FSMC_ReadWriteTimingStruct, FSMC_NORSRAMInitStr
 412              	@ ../Libraries/STM32F4xx_StdPeriph_Driver/src/stm32f4xx_fsmc.c:165:   assert_param(IS_FSMC_ACCESS_M
 413              		.loc 1 165 3 view .LVU65
 414 013e 9B69     		ldr	r3, [r3, #24]	@ _39->FSMC_AccessMode, _39->FSMC_AccessMode
 415 0140 33F04053 		bics	r3, r3, #805306368	@ tmp467, _39->FSMC_AccessMode,
 416 0144 0CBF     		ite	eq
 417 0146 0120     		moveq	r0, #1	@,
 418 0148 0020     		movne	r0, #0	@,
 419 014a FFF7FEFF 		bl	assert_param		@
 420              	.LVL30:
 166:../Libraries/STM32F4xx_StdPeriph_Driver/src/stm32f4xx_fsmc.c ****   
 167:../Libraries/STM32F4xx_StdPeriph_Driver/src/stm32f4xx_fsmc.c ****   /* Bank1 NOR/SRAM control register configuration */ 
 168:../Libraries/STM32F4xx_StdPeriph_Driver/src/stm32f4xx_fsmc.c ****   FSMC_Bank1->BTCR[FSMC_NORSRAMInitStruct->FSMC_Bank] = 
 421              		.loc 1 168 3 is_stmt 1 view .LVU66
 422              	@ ../Libraries/STM32F4xx_StdPeriph_Driver/src/stm32f4xx_fsmc.c:169:             (uint32_t)FSMC_NORS
 169:../Libraries/STM32F4xx_StdPeriph_Driver/src/stm32f4xx_fsmc.c ****             (uint32_t)FSMC_NORSRAMInitStruct->FSMC_DataAddressMux |
 423              		.loc 1 169 67 is_stmt 0 view .LVU67
 424 014e D4E90132 		ldrd	r3, r2, [r4, #4]	@ FSMC_NORSRAMInitStruct_145(D)->FSMC_DataAddressMux, _42, FSMC_NORSRAMInitS
 425              	@ ../Libraries/STM32F4xx_StdPeriph_Driver/src/stm32f4xx_fsmc.c:171:             FSMC_NORSRAMInitStr
 170:../Libraries/STM32F4xx_StdPeriph_Driver/src/stm32f4xx_fsmc.c ****             FSMC_NORSRAMInitStruct->FSMC_MemoryType |
 171:../Libraries/STM32F4xx_StdPeriph_Driver/src/stm32f4xx_fsmc.c ****             FSMC_NORSRAMInitStruct->FSMC_MemoryDataWidth |
 426              		.loc 1 171 58 view .LVU68
 427 0152 D4E90301 		ldrd	r0, r1, [r4, #12]	@ FSMC_NORSRAMInitStruct_145(D)->FSMC_MemoryDataWidth, FSMC_NORSRAMInitStru
 428              	@ ../Libraries/STM32F4xx_StdPeriph_Driver/src/stm32f4xx_fsmc.c:169:             (uint32_t)FSMC_NORS
 169:../Libraries/STM32F4xx_StdPeriph_Driver/src/stm32f4xx_fsmc.c ****             (uint32_t)FSMC_NORSRAMInitStruct->FSMC_DataAddressMux |
 429              		.loc 1 169 67 view .LVU69
 430 0156 1343     		orrs	r3, r3, r2	@, tmp368, FSMC_NORSRAMInitStruct_145(D)->FSMC_DataAddressMux, _42
 431              	@ ../Libraries/STM32F4xx_StdPeriph_Driver/src/stm32f4xx_fsmc.c:170:             FSMC_NORSRAMInitStr
 170:../Libraries/STM32F4xx_StdPeriph_Driver/src/stm32f4xx_fsmc.c ****             FSMC_NORSRAMInitStruct->FSMC_MemoryType |
 432              		.loc 1 170 53 view .LVU70
 433 0158 0343     		orrs	r3, r3, r0	@, tmp370, tmp368, FSMC_NORSRAMInitStruct_145(D)->FSMC_MemoryDataWidth
 434              	@ ../Libraries/STM32F4xx_StdPeriph_Driver/src/stm32f4xx_fsmc.c:171:             FSMC_NORSRAMInitStr
 435              		.loc 1 171 58 view .LVU71
 436 015a 0B43     		orrs	r3, r3, r1	@, tmp372, tmp370, FSMC_NORSRAMInitStruct_145(D)->FSMC_BurstAccessMode
 437              	@ ../Libraries/STM32F4xx_StdPeriph_Driver/src/stm32f4xx_fsmc.c:173:             FSMC_NORSRAMInitStr
 172:../Libraries/STM32F4xx_StdPeriph_Driver/src/stm32f4xx_fsmc.c ****             FSMC_NORSRAMInitStruct->FSMC_BurstAccessMode |
 173:../Libraries/STM32F4xx_StdPeriph_Driver/src/stm32f4xx_fsmc.c ****             FSMC_NORSRAMInitStruct->FSMC_AsynchronousWait |
 438              		.loc 1 173 59 view .LVU72
 439 015c D4E90501 		ldrd	r0, r1, [r4, #20]	@ FSMC_NORSRAMInitStruct_145(D)->FSMC_AsynchronousWait, FSMC_NORSRAMInitStr
 440              	@ ../Libraries/STM32F4xx_StdPeriph_Driver/src/stm32f4xx_fsmc.c:172:             FSMC_NORSRAMInitStr
 172:../Libraries/STM32F4xx_StdPeriph_Driver/src/stm32f4xx_fsmc.c ****             FSMC_NORSRAMInitStruct->FSMC_BurstAccessMode |
 441              		.loc 1 172 58 view .LVU73
ARM GAS  C:\Users\admin\AppData\Local\Temp\ccAkqsWz.s 			page 12


 442 0160 0343     		orrs	r3, r3, r0	@, tmp374, tmp372, FSMC_NORSRAMInitStruct_145(D)->FSMC_AsynchronousWait
 443              	@ ../Libraries/STM32F4xx_StdPeriph_Driver/src/stm32f4xx_fsmc.c:173:             FSMC_NORSRAMInitStr
 444              		.loc 1 173 59 view .LVU74
 445 0162 0B43     		orrs	r3, r3, r1	@, tmp376, tmp374, FSMC_NORSRAMInitStruct_145(D)->FSMC_WaitSignalPolarity
 446              	@ ../Libraries/STM32F4xx_StdPeriph_Driver/src/stm32f4xx_fsmc.c:175:             FSMC_NORSRAMInitStr
 174:../Libraries/STM32F4xx_StdPeriph_Driver/src/stm32f4xx_fsmc.c ****             FSMC_NORSRAMInitStruct->FSMC_WaitSignalPolarity |
 175:../Libraries/STM32F4xx_StdPeriph_Driver/src/stm32f4xx_fsmc.c ****             FSMC_NORSRAMInitStruct->FSMC_WrapMode |
 447              		.loc 1 175 51 view .LVU75
 448 0164 D4E90701 		ldrd	r0, r1, [r4, #28]	@ FSMC_NORSRAMInitStruct_145(D)->FSMC_WrapMode, FSMC_NORSRAMInitStruct_145(
 449              	@ ../Libraries/STM32F4xx_StdPeriph_Driver/src/stm32f4xx_fsmc.c:174:             FSMC_NORSRAMInitStr
 174:../Libraries/STM32F4xx_StdPeriph_Driver/src/stm32f4xx_fsmc.c ****             FSMC_NORSRAMInitStruct->FSMC_WaitSignalPolarity |
 450              		.loc 1 174 61 view .LVU76
 451 0168 0343     		orrs	r3, r3, r0	@, tmp378, tmp376, FSMC_NORSRAMInitStruct_145(D)->FSMC_WrapMode
 452              	@ ../Libraries/STM32F4xx_StdPeriph_Driver/src/stm32f4xx_fsmc.c:176:             FSMC_NORSRAMInitStr
 176:../Libraries/STM32F4xx_StdPeriph_Driver/src/stm32f4xx_fsmc.c ****             FSMC_NORSRAMInitStruct->FSMC_WaitSignalActive |
 453              		.loc 1 176 59 view .LVU77
 454 016a 656A     		ldr	r5, [r4, #36]	@ tmp469, FSMC_NORSRAMInitStruct_145(D)->FSMC_WriteOperation
 455              	@ ../Libraries/STM32F4xx_StdPeriph_Driver/src/stm32f4xx_fsmc.c:175:             FSMC_NORSRAMInitStr
 175:../Libraries/STM32F4xx_StdPeriph_Driver/src/stm32f4xx_fsmc.c ****             FSMC_NORSRAMInitStruct->FSMC_WaitSignalActive |
 456              		.loc 1 175 51 view .LVU78
 457 016c 0B43     		orrs	r3, r3, r1	@, tmp380, tmp378, FSMC_NORSRAMInitStruct_145(D)->FSMC_WaitSignalActive
 458              	@ ../Libraries/STM32F4xx_StdPeriph_Driver/src/stm32f4xx_fsmc.c:179:             FSMC_NORSRAMInitStr
 177:../Libraries/STM32F4xx_StdPeriph_Driver/src/stm32f4xx_fsmc.c ****             FSMC_NORSRAMInitStruct->FSMC_WriteOperation |
 178:../Libraries/STM32F4xx_StdPeriph_Driver/src/stm32f4xx_fsmc.c ****             FSMC_NORSRAMInitStruct->FSMC_WaitSignal |
 179:../Libraries/STM32F4xx_StdPeriph_Driver/src/stm32f4xx_fsmc.c ****             FSMC_NORSRAMInitStruct->FSMC_ExtendedMode |
 459              		.loc 1 179 35 view .LVU79
 460 016e D4E90A01 		ldrd	r0, r1, [r4, #40]	@ FSMC_NORSRAMInitStruct_145(D)->FSMC_WaitSignal, _60, FSMC_NORSRAMInitStru
 461              	@ ../Libraries/STM32F4xx_StdPeriph_Driver/src/stm32f4xx_fsmc.c:176:             FSMC_NORSRAMInitStr
 176:../Libraries/STM32F4xx_StdPeriph_Driver/src/stm32f4xx_fsmc.c ****             FSMC_NORSRAMInitStruct->FSMC_WriteOperation |
 462              		.loc 1 176 59 view .LVU80
 463 0172 2B43     		orrs	r3, r3, r5	@, tmp382, tmp380, tmp469
 464              	@ ../Libraries/STM32F4xx_StdPeriph_Driver/src/stm32f4xx_fsmc.c:177:             FSMC_NORSRAMInitStr
 177:../Libraries/STM32F4xx_StdPeriph_Driver/src/stm32f4xx_fsmc.c ****             FSMC_NORSRAMInitStruct->FSMC_WriteOperation |
 465              		.loc 1 177 57 view .LVU81
 466 0174 0343     		orrs	r3, r3, r0	@, tmp384, tmp382, FSMC_NORSRAMInitStruct_145(D)->FSMC_WaitSignal
 467              	@ ../Libraries/STM32F4xx_StdPeriph_Driver/src/stm32f4xx_fsmc.c:179:             FSMC_NORSRAMInitStr
 468              		.loc 1 179 55 view .LVU82
 469 0176 206B     		ldr	r0, [r4, #48]	@ FSMC_NORSRAMInitStruct_145(D)->FSMC_WriteBurst, FSMC_NORSRAMInitStruct_145(D)-
 470              	@ ../Libraries/STM32F4xx_StdPeriph_Driver/src/stm32f4xx_fsmc.c:178:             FSMC_NORSRAMInitStr
 178:../Libraries/STM32F4xx_StdPeriph_Driver/src/stm32f4xx_fsmc.c ****             FSMC_NORSRAMInitStruct->FSMC_ExtendedMode |
 471              		.loc 1 178 53 view .LVU83
 472 0178 0B43     		orrs	r3, r3, r1	@, tmp386, tmp384, _60
 473              	@ ../Libraries/STM32F4xx_StdPeriph_Driver/src/stm32f4xx_fsmc.c:179:             FSMC_NORSRAMInitStr
 474              		.loc 1 179 55 view .LVU84
 475 017a 0343     		orrs	r3, r3, r0	@, _64, tmp386, FSMC_NORSRAMInitStruct_145(D)->FSMC_WriteBurst
 476 017c 2068     		ldr	r0, [r4]	@ FSMC_NORSRAMInitStruct_145(D)->FSMC_Bank, FSMC_NORSRAMInitStruct_145(D)->FSMC_Bank
 477 017e 8000     		lsls	r0, r0, #2	@ _254, FSMC_NORSRAMInitStruct_145(D)->FSMC_Bank,
 478 0180 00F12040 		add	r0, r0, #-1610612736	@ tmp451, _254,
 479              	@ ../Libraries/STM32F4xx_StdPeriph_Driver/src/stm32f4xx_fsmc.c:181:   if(FSMC_NORSRAMInitStruct->FS
 180:../Libraries/STM32F4xx_StdPeriph_Driver/src/stm32f4xx_fsmc.c ****             FSMC_NORSRAMInitStruct->FSMC_WriteBurst;
 181:../Libraries/STM32F4xx_StdPeriph_Driver/src/stm32f4xx_fsmc.c ****   if(FSMC_NORSRAMInitStruct->FSMC_MemoryType == FSMC_MemoryType_NOR)
 480              		.loc 1 181 5 view .LVU85
 481 0184 082A     		cmp	r2, #8	@ _42,
 482              	@ ../Libraries/STM32F4xx_StdPeriph_Driver/src/stm32f4xx_fsmc.c:168:   FSMC_Bank1->BTCR[FSMC_NORSRAM
 168:../Libraries/STM32F4xx_StdPeriph_Driver/src/stm32f4xx_fsmc.c ****             (uint32_t)FSMC_NORSRAMInitStruct->FSMC_DataAddressMux |
 483              		.loc 1 168 55 view .LVU86
 484 0186 0360     		str	r3, [r0]	@ _64, MEM <volatile uint32_t> [(struct FSMC_Bank1_TypeDef *)_252]
ARM GAS  C:\Users\admin\AppData\Local\Temp\ccAkqsWz.s 			page 13


 485              		.loc 1 181 3 is_stmt 1 view .LVU87
 486              	@ ../Libraries/STM32F4xx_StdPeriph_Driver/src/stm32f4xx_fsmc.c:181:   if(FSMC_NORSRAMInitStruct->FS
 487              		.loc 1 181 5 is_stmt 0 view .LVU88
 488 0188 03D1     		bne	.L11		@,
 182:../Libraries/STM32F4xx_StdPeriph_Driver/src/stm32f4xx_fsmc.c ****   {
 183:../Libraries/STM32F4xx_StdPeriph_Driver/src/stm32f4xx_fsmc.c ****     FSMC_Bank1->BTCR[FSMC_NORSRAMInitStruct->FSMC_Bank] |= (uint32_t)BCR_FACCEN_SET;
 489              		.loc 1 183 5 is_stmt 1 view .LVU89
 490              	@ ../Libraries/STM32F4xx_StdPeriph_Driver/src/stm32f4xx_fsmc.c:183:     FSMC_Bank1->BTCR[FSMC_NORSR
 491              		.loc 1 183 57 is_stmt 0 view .LVU90
 492 018a 0368     		ldr	r3, [r0]	@ _65, MEM <volatile uint32_t> [(struct FSMC_Bank1_TypeDef *)_252]
 493 018c 43F04003 		orr	r3, r3, #64	@ _66, _65,
 494 0190 0360     		str	r3, [r0]	@ _66, MEM <volatile uint32_t> [(struct FSMC_Bank1_TypeDef *)_252]
 495              	.L11:
 184:../Libraries/STM32F4xx_StdPeriph_Driver/src/stm32f4xx_fsmc.c ****   }
 185:../Libraries/STM32F4xx_StdPeriph_Driver/src/stm32f4xx_fsmc.c ****   /* Bank1 NOR/SRAM timing register configuration */
 186:../Libraries/STM32F4xx_StdPeriph_Driver/src/stm32f4xx_fsmc.c ****   FSMC_Bank1->BTCR[FSMC_NORSRAMInitStruct->FSMC_Bank+1] = 
 496              		.loc 1 186 3 is_stmt 1 view .LVU91
 497              	@ ../Libraries/STM32F4xx_StdPeriph_Driver/src/stm32f4xx_fsmc.c:187:             (uint32_t)FSMC_NORS
 187:../Libraries/STM32F4xx_StdPeriph_Driver/src/stm32f4xx_fsmc.c ****             (uint32_t)FSMC_NORSRAMInitStruct->FSMC_ReadWriteTimingStruct->FSMC_AddressSetupTime |
 498              		.loc 1 187 45 is_stmt 0 view .LVU92
 499 0192 626B     		ldr	r2, [r4, #52]	@ _67, FSMC_NORSRAMInitStruct_145(D)->FSMC_ReadWriteTimingStruct
 500              	@ ../Libraries/STM32F4xx_StdPeriph_Driver/src/stm32f4xx_fsmc.c:192:             (FSMC_NORSRAMInitSt
 188:../Libraries/STM32F4xx_StdPeriph_Driver/src/stm32f4xx_fsmc.c ****             (FSMC_NORSRAMInitStruct->FSMC_ReadWriteTimingStruct->FSMC_AddressHoldTime << 4) |
 189:../Libraries/STM32F4xx_StdPeriph_Driver/src/stm32f4xx_fsmc.c ****             (FSMC_NORSRAMInitStruct->FSMC_ReadWriteTimingStruct->FSMC_DataSetupTime << 8) |
 190:../Libraries/STM32F4xx_StdPeriph_Driver/src/stm32f4xx_fsmc.c ****             (FSMC_NORSRAMInitStruct->FSMC_ReadWriteTimingStruct->FSMC_BusTurnAroundDuration << 16) 
 191:../Libraries/STM32F4xx_StdPeriph_Driver/src/stm32f4xx_fsmc.c ****             (FSMC_NORSRAMInitStruct->FSMC_ReadWriteTimingStruct->FSMC_CLKDivision << 20) |
 192:../Libraries/STM32F4xx_StdPeriph_Driver/src/stm32f4xx_fsmc.c ****             (FSMC_NORSRAMInitStruct->FSMC_ReadWriteTimingStruct->FSMC_DataLatency << 24) |
 501              		.loc 1 192 90 view .LVU93
 502 0194 9569     		ldr	r5, [r2, #24]	@ tmp470, _67->FSMC_AccessMode
 503 0196 1368     		ldr	r3, [r2]	@ _67->FSMC_AddressSetupTime, _67->FSMC_AddressSetupTime
 504 0198 2B43     		orrs	r3, r3, r5	@, tmp389, _67->FSMC_AddressSetupTime, tmp470
 505 019a 5568     		ldr	r5, [r2, #4]	@ tmp471, _67->FSMC_AddressHoldTime
 506 019c 43EA0513 		orr	r3, r3, r5, lsl #4	@ tmp394, tmp389, tmp471,
 507 01a0 9568     		ldr	r5, [r2, #8]	@ tmp472, _67->FSMC_DataSetupTime
 508 01a2 43EA0523 		orr	r3, r3, r5, lsl #8	@ tmp397, tmp394, tmp472,
 509 01a6 D568     		ldr	r5, [r2, #12]	@ tmp473, _67->FSMC_BusTurnAroundDuration
 510 01a8 43EA0543 		orr	r3, r3, r5, lsl #16	@ tmp400, tmp397, tmp473,
 511 01ac 1569     		ldr	r5, [r2, #16]	@ tmp474, _67->FSMC_CLKDivision
 512              	@ ../Libraries/STM32F4xx_StdPeriph_Driver/src/stm32f4xx_fsmc.c:192:             (FSMC_NORSRAMInitSt
 513              		.loc 1 192 83 view .LVU94
 514 01ae 5269     		ldr	r2, [r2, #20]	@ _67->FSMC_DataLatency, _67->FSMC_DataLatency
 515              	@ ../Libraries/STM32F4xx_StdPeriph_Driver/src/stm32f4xx_fsmc.c:192:             (FSMC_NORSRAMInitSt
 516              		.loc 1 192 90 view .LVU95
 517 01b0 43EA0553 		orr	r3, r3, r5, lsl #20	@ tmp403, tmp400, tmp474,
 518 01b4 43EA0263 		orr	r3, r3, r2, lsl #24	@ _86, tmp403, _67->FSMC_DataLatency,
 519              	@ ../Libraries/STM32F4xx_StdPeriph_Driver/src/stm32f4xx_fsmc.c:197:   if(FSMC_NORSRAMInitStruct->FS
 193:../Libraries/STM32F4xx_StdPeriph_Driver/src/stm32f4xx_fsmc.c ****              FSMC_NORSRAMInitStruct->FSMC_ReadWriteTimingStruct->FSMC_AccessMode;
 194:../Libraries/STM32F4xx_StdPeriph_Driver/src/stm32f4xx_fsmc.c ****             
 195:../Libraries/STM32F4xx_StdPeriph_Driver/src/stm32f4xx_fsmc.c ****     
 196:../Libraries/STM32F4xx_StdPeriph_Driver/src/stm32f4xx_fsmc.c ****   /* Bank1 NOR/SRAM timing register for write configuration, if extended mode is used */
 197:../Libraries/STM32F4xx_StdPeriph_Driver/src/stm32f4xx_fsmc.c ****   if(FSMC_NORSRAMInitStruct->FSMC_ExtendedMode == FSMC_ExtendedMode_Enable)
 520              		.loc 1 197 5 view .LVU96
 521 01b8 B1F5804F 		cmp	r1, #16384	@ _60,
 522              	@ ../Libraries/STM32F4xx_StdPeriph_Driver/src/stm32f4xx_fsmc.c:186:   FSMC_Bank1->BTCR[FSMC_NORSRAM
 186:../Libraries/STM32F4xx_StdPeriph_Driver/src/stm32f4xx_fsmc.c ****             (uint32_t)FSMC_NORSRAMInitStruct->FSMC_ReadWriteTimingStruct->FSMC_AddressSetupTime |
 523              		.loc 1 186 57 view .LVU97
 524 01bc 4360     		str	r3, [r0, #4]	@ _86, MEM <volatile uint32_t> [(struct FSMC_Bank1_TypeDef *)_252 + 4B]
ARM GAS  C:\Users\admin\AppData\Local\Temp\ccAkqsWz.s 			page 14


 525              		.loc 1 197 3 is_stmt 1 view .LVU98
 526              	@ ../Libraries/STM32F4xx_StdPeriph_Driver/src/stm32f4xx_fsmc.c:197:   if(FSMC_NORSRAMInitStruct->FS
 527              		.loc 1 197 5 is_stmt 0 view .LVU99
 528 01be 04D0     		beq	.L16		@,
 198:../Libraries/STM32F4xx_StdPeriph_Driver/src/stm32f4xx_fsmc.c ****   {
 199:../Libraries/STM32F4xx_StdPeriph_Driver/src/stm32f4xx_fsmc.c ****     assert_param(IS_FSMC_ADDRESS_SETUP_TIME(FSMC_NORSRAMInitStruct->FSMC_WriteTimingStruct->FSMC_Ad
 200:../Libraries/STM32F4xx_StdPeriph_Driver/src/stm32f4xx_fsmc.c ****     assert_param(IS_FSMC_ADDRESS_HOLD_TIME(FSMC_NORSRAMInitStruct->FSMC_WriteTimingStruct->FSMC_Add
 201:../Libraries/STM32F4xx_StdPeriph_Driver/src/stm32f4xx_fsmc.c ****     assert_param(IS_FSMC_DATASETUP_TIME(FSMC_NORSRAMInitStruct->FSMC_WriteTimingStruct->FSMC_DataSe
 202:../Libraries/STM32F4xx_StdPeriph_Driver/src/stm32f4xx_fsmc.c ****     assert_param(IS_FSMC_CLK_DIV(FSMC_NORSRAMInitStruct->FSMC_WriteTimingStruct->FSMC_CLKDivision))
 203:../Libraries/STM32F4xx_StdPeriph_Driver/src/stm32f4xx_fsmc.c ****     assert_param(IS_FSMC_DATA_LATENCY(FSMC_NORSRAMInitStruct->FSMC_WriteTimingStruct->FSMC_DataLate
 204:../Libraries/STM32F4xx_StdPeriph_Driver/src/stm32f4xx_fsmc.c ****     assert_param(IS_FSMC_ACCESS_MODE(FSMC_NORSRAMInitStruct->FSMC_WriteTimingStruct->FSMC_AccessMod
 205:../Libraries/STM32F4xx_StdPeriph_Driver/src/stm32f4xx_fsmc.c ****     FSMC_Bank1E->BWTR[FSMC_NORSRAMInitStruct->FSMC_Bank] = 
 206:../Libraries/STM32F4xx_StdPeriph_Driver/src/stm32f4xx_fsmc.c ****               (uint32_t)FSMC_NORSRAMInitStruct->FSMC_WriteTimingStruct->FSMC_AddressSetupTime |
 207:../Libraries/STM32F4xx_StdPeriph_Driver/src/stm32f4xx_fsmc.c ****               (FSMC_NORSRAMInitStruct->FSMC_WriteTimingStruct->FSMC_AddressHoldTime << 4 )|
 208:../Libraries/STM32F4xx_StdPeriph_Driver/src/stm32f4xx_fsmc.c ****               (FSMC_NORSRAMInitStruct->FSMC_WriteTimingStruct->FSMC_DataSetupTime << 8) |
 209:../Libraries/STM32F4xx_StdPeriph_Driver/src/stm32f4xx_fsmc.c ****               (FSMC_NORSRAMInitStruct->FSMC_WriteTimingStruct->FSMC_CLKDivision << 20) |
 210:../Libraries/STM32F4xx_StdPeriph_Driver/src/stm32f4xx_fsmc.c ****               (FSMC_NORSRAMInitStruct->FSMC_WriteTimingStruct->FSMC_DataLatency << 24) |
 211:../Libraries/STM32F4xx_StdPeriph_Driver/src/stm32f4xx_fsmc.c ****                FSMC_NORSRAMInitStruct->FSMC_WriteTimingStruct->FSMC_AccessMode;
 212:../Libraries/STM32F4xx_StdPeriph_Driver/src/stm32f4xx_fsmc.c ****   }
 213:../Libraries/STM32F4xx_StdPeriph_Driver/src/stm32f4xx_fsmc.c ****   else
 214:../Libraries/STM32F4xx_StdPeriph_Driver/src/stm32f4xx_fsmc.c ****   {
 215:../Libraries/STM32F4xx_StdPeriph_Driver/src/stm32f4xx_fsmc.c ****     FSMC_Bank1E->BWTR[FSMC_NORSRAMInitStruct->FSMC_Bank] = 0x0FFFFFFF;
 529              		.loc 1 215 5 is_stmt 1 view .LVU100
 530              	@ ../Libraries/STM32F4xx_StdPeriph_Driver/src/stm32f4xx_fsmc.c:215:     FSMC_Bank1E->BWTR[FSMC_NORS
 531              		.loc 1 215 58 is_stmt 0 view .LVU101
 532 01c0 6FF07043 		mvn	r3, #-268435456	@ tmp450,
 533 01c4 C0F80431 		str	r3, [r0, #260]	@ tmp450, MEM <volatile uint32_t> [(struct FSMC_Bank1E_TypeDef *)_259]
 534              	@ ../Libraries/STM32F4xx_StdPeriph_Driver/src/stm32f4xx_fsmc.c:217: }
 216:../Libraries/STM32F4xx_StdPeriph_Driver/src/stm32f4xx_fsmc.c ****   }
 217:../Libraries/STM32F4xx_StdPeriph_Driver/src/stm32f4xx_fsmc.c **** }
 535              		.loc 1 217 1 view .LVU102
 536 01c8 38BD     		pop	{r3, r4, r5, pc}	@
 537              	.LVL31:
 538              	.L16:
 199:../Libraries/STM32F4xx_StdPeriph_Driver/src/stm32f4xx_fsmc.c ****     assert_param(IS_FSMC_ADDRESS_HOLD_TIME(FSMC_NORSRAMInitStruct->FSMC_WriteTimingStruct->FSMC_Add
 539              		.loc 1 199 5 is_stmt 1 view .LVU103
 540              	@ ../Libraries/STM32F4xx_StdPeriph_Driver/src/stm32f4xx_fsmc.c:199:     assert_param(IS_FSMC_ADDRES
 199:../Libraries/STM32F4xx_StdPeriph_Driver/src/stm32f4xx_fsmc.c ****     assert_param(IS_FSMC_ADDRESS_HOLD_TIME(FSMC_NORSRAMInitStruct->FSMC_WriteTimingStruct->FSMC_Add
 541              		.loc 1 199 18 is_stmt 0 view .LVU104
 542 01ca A36B     		ldr	r3, [r4, #56]	@ FSMC_NORSRAMInitStruct_145(D)->FSMC_WriteTimingStruct, FSMC_NORSRAMInitStruct_
 543              	@ ../Libraries/STM32F4xx_StdPeriph_Driver/src/stm32f4xx_fsmc.c:199:     assert_param(IS_FSMC_ADDRES
 199:../Libraries/STM32F4xx_StdPeriph_Driver/src/stm32f4xx_fsmc.c ****     assert_param(IS_FSMC_ADDRESS_HOLD_TIME(FSMC_NORSRAMInitStruct->FSMC_WriteTimingStruct->FSMC_Add
 544              		.loc 1 199 5 view .LVU105
 545 01cc 1868     		ldr	r0, [r3]	@ _87->FSMC_AddressSetupTime, _87->FSMC_AddressSetupTime
 546 01ce 0F28     		cmp	r0, #15	@ _87->FSMC_AddressSetupTime,
 547 01d0 8CBF     		ite	hi
 548 01d2 0020     		movhi	r0, #0	@,
 549 01d4 0120     		movls	r0, #1	@,
 550 01d6 FFF7FEFF 		bl	assert_param		@
 551              	.LVL32:
 200:../Libraries/STM32F4xx_StdPeriph_Driver/src/stm32f4xx_fsmc.c ****     assert_param(IS_FSMC_DATASETUP_TIME(FSMC_NORSRAMInitStruct->FSMC_WriteTimingStruct->FSMC_DataSe
 552              		.loc 1 200 5 is_stmt 1 view .LVU106
 553              	@ ../Libraries/STM32F4xx_StdPeriph_Driver/src/stm32f4xx_fsmc.c:200:     assert_param(IS_FSMC_ADDRES
 200:../Libraries/STM32F4xx_StdPeriph_Driver/src/stm32f4xx_fsmc.c ****     assert_param(IS_FSMC_DATASETUP_TIME(FSMC_NORSRAMInitStruct->FSMC_WriteTimingStruct->FSMC_DataSe
 554              		.loc 1 200 18 is_stmt 0 view .LVU107
 555 01da A36B     		ldr	r3, [r4, #56]	@ FSMC_NORSRAMInitStruct_145(D)->FSMC_WriteTimingStruct, FSMC_NORSRAMInitStruct_
 556              	@ ../Libraries/STM32F4xx_StdPeriph_Driver/src/stm32f4xx_fsmc.c:200:     assert_param(IS_FSMC_ADDRES
ARM GAS  C:\Users\admin\AppData\Local\Temp\ccAkqsWz.s 			page 15


 200:../Libraries/STM32F4xx_StdPeriph_Driver/src/stm32f4xx_fsmc.c ****     assert_param(IS_FSMC_DATASETUP_TIME(FSMC_NORSRAMInitStruct->FSMC_WriteTimingStruct->FSMC_DataSe
 557              		.loc 1 200 5 view .LVU108
 558 01dc 5868     		ldr	r0, [r3, #4]	@ _91->FSMC_AddressHoldTime, _91->FSMC_AddressHoldTime
 559 01de 0F28     		cmp	r0, #15	@ _91->FSMC_AddressHoldTime,
 560 01e0 8CBF     		ite	hi
 561 01e2 0020     		movhi	r0, #0	@,
 562 01e4 0120     		movls	r0, #1	@,
 563 01e6 FFF7FEFF 		bl	assert_param		@
 564              	.LVL33:
 201:../Libraries/STM32F4xx_StdPeriph_Driver/src/stm32f4xx_fsmc.c ****     assert_param(IS_FSMC_CLK_DIV(FSMC_NORSRAMInitStruct->FSMC_WriteTimingStruct->FSMC_CLKDivision))
 565              		.loc 1 201 5 is_stmt 1 view .LVU109
 566              	@ ../Libraries/STM32F4xx_StdPeriph_Driver/src/stm32f4xx_fsmc.c:201:     assert_param(IS_FSMC_DATASE
 201:../Libraries/STM32F4xx_StdPeriph_Driver/src/stm32f4xx_fsmc.c ****     assert_param(IS_FSMC_CLK_DIV(FSMC_NORSRAMInitStruct->FSMC_WriteTimingStruct->FSMC_CLKDivision))
 567              		.loc 1 201 18 is_stmt 0 view .LVU110
 568 01ea A36B     		ldr	r3, [r4, #56]	@ FSMC_NORSRAMInitStruct_145(D)->FSMC_WriteTimingStruct, FSMC_NORSRAMInitStruct_
 569 01ec 9868     		ldr	r0, [r3, #8]	@ _95->FSMC_DataSetupTime, _95->FSMC_DataSetupTime
 570 01ee 0138     		subs	r0, r0, #1	@ tmp415, _95->FSMC_DataSetupTime,
 571              	@ ../Libraries/STM32F4xx_StdPeriph_Driver/src/stm32f4xx_fsmc.c:201:     assert_param(IS_FSMC_DATASE
 201:../Libraries/STM32F4xx_StdPeriph_Driver/src/stm32f4xx_fsmc.c ****     assert_param(IS_FSMC_CLK_DIV(FSMC_NORSRAMInitStruct->FSMC_WriteTimingStruct->FSMC_CLKDivision))
 572              		.loc 1 201 5 view .LVU111
 573 01f0 FE28     		cmp	r0, #254	@ tmp415,
 574 01f2 8CBF     		ite	hi
 575 01f4 0020     		movhi	r0, #0	@,
 576 01f6 0120     		movls	r0, #1	@,
 577 01f8 FFF7FEFF 		bl	assert_param		@
 578              	.LVL34:
 202:../Libraries/STM32F4xx_StdPeriph_Driver/src/stm32f4xx_fsmc.c ****     assert_param(IS_FSMC_DATA_LATENCY(FSMC_NORSRAMInitStruct->FSMC_WriteTimingStruct->FSMC_DataLate
 579              		.loc 1 202 5 is_stmt 1 view .LVU112
 580              	@ ../Libraries/STM32F4xx_StdPeriph_Driver/src/stm32f4xx_fsmc.c:202:     assert_param(IS_FSMC_CLK_DI
 202:../Libraries/STM32F4xx_StdPeriph_Driver/src/stm32f4xx_fsmc.c ****     assert_param(IS_FSMC_DATA_LATENCY(FSMC_NORSRAMInitStruct->FSMC_WriteTimingStruct->FSMC_DataLate
 581              		.loc 1 202 18 is_stmt 0 view .LVU113
 582 01fc A36B     		ldr	r3, [r4, #56]	@ FSMC_NORSRAMInitStruct_145(D)->FSMC_WriteTimingStruct, FSMC_NORSRAMInitStruct_
 583              	@ ../Libraries/STM32F4xx_StdPeriph_Driver/src/stm32f4xx_fsmc.c:202:     assert_param(IS_FSMC_CLK_DI
 202:../Libraries/STM32F4xx_StdPeriph_Driver/src/stm32f4xx_fsmc.c ****     assert_param(IS_FSMC_DATA_LATENCY(FSMC_NORSRAMInitStruct->FSMC_WriteTimingStruct->FSMC_DataLate
 584              		.loc 1 202 5 view .LVU114
 585 01fe 1869     		ldr	r0, [r3, #16]	@ _100->FSMC_CLKDivision, _100->FSMC_CLKDivision
 586 0200 0F28     		cmp	r0, #15	@ _100->FSMC_CLKDivision,
 587 0202 8CBF     		ite	hi
 588 0204 0020     		movhi	r0, #0	@,
 589 0206 0120     		movls	r0, #1	@,
 590 0208 FFF7FEFF 		bl	assert_param		@
 591              	.LVL35:
 203:../Libraries/STM32F4xx_StdPeriph_Driver/src/stm32f4xx_fsmc.c ****     assert_param(IS_FSMC_ACCESS_MODE(FSMC_NORSRAMInitStruct->FSMC_WriteTimingStruct->FSMC_AccessMod
 592              		.loc 1 203 5 is_stmt 1 view .LVU115
 593              	@ ../Libraries/STM32F4xx_StdPeriph_Driver/src/stm32f4xx_fsmc.c:203:     assert_param(IS_FSMC_DATA_L
 203:../Libraries/STM32F4xx_StdPeriph_Driver/src/stm32f4xx_fsmc.c ****     assert_param(IS_FSMC_ACCESS_MODE(FSMC_NORSRAMInitStruct->FSMC_WriteTimingStruct->FSMC_AccessMod
 594              		.loc 1 203 18 is_stmt 0 view .LVU116
 595 020c A36B     		ldr	r3, [r4, #56]	@ FSMC_NORSRAMInitStruct_145(D)->FSMC_WriteTimingStruct, FSMC_NORSRAMInitStruct_
 596              	@ ../Libraries/STM32F4xx_StdPeriph_Driver/src/stm32f4xx_fsmc.c:203:     assert_param(IS_FSMC_DATA_L
 203:../Libraries/STM32F4xx_StdPeriph_Driver/src/stm32f4xx_fsmc.c ****     assert_param(IS_FSMC_ACCESS_MODE(FSMC_NORSRAMInitStruct->FSMC_WriteTimingStruct->FSMC_AccessMod
 597              		.loc 1 203 5 view .LVU117
 598 020e 5869     		ldr	r0, [r3, #20]	@ _104->FSMC_DataLatency, _104->FSMC_DataLatency
 599 0210 0F28     		cmp	r0, #15	@ _104->FSMC_DataLatency,
 600 0212 8CBF     		ite	hi
 601 0214 0020     		movhi	r0, #0	@,
 602 0216 0120     		movls	r0, #1	@,
 603 0218 FFF7FEFF 		bl	assert_param		@
ARM GAS  C:\Users\admin\AppData\Local\Temp\ccAkqsWz.s 			page 16


 604              	.LVL36:
 204:../Libraries/STM32F4xx_StdPeriph_Driver/src/stm32f4xx_fsmc.c ****     FSMC_Bank1E->BWTR[FSMC_NORSRAMInitStruct->FSMC_Bank] = 
 605              		.loc 1 204 5 is_stmt 1 view .LVU118
 606              	@ ../Libraries/STM32F4xx_StdPeriph_Driver/src/stm32f4xx_fsmc.c:204:     assert_param(IS_FSMC_ACCESS
 204:../Libraries/STM32F4xx_StdPeriph_Driver/src/stm32f4xx_fsmc.c ****     FSMC_Bank1E->BWTR[FSMC_NORSRAMInitStruct->FSMC_Bank] = 
 607              		.loc 1 204 18 is_stmt 0 view .LVU119
 608 021c A36B     		ldr	r3, [r4, #56]	@ FSMC_NORSRAMInitStruct_145(D)->FSMC_WriteTimingStruct, FSMC_NORSRAMInitStruct_
 609              	@ ../Libraries/STM32F4xx_StdPeriph_Driver/src/stm32f4xx_fsmc.c:204:     assert_param(IS_FSMC_ACCESS
 204:../Libraries/STM32F4xx_StdPeriph_Driver/src/stm32f4xx_fsmc.c ****     FSMC_Bank1E->BWTR[FSMC_NORSRAMInitStruct->FSMC_Bank] = 
 610              		.loc 1 204 5 view .LVU120
 611 021e 9B69     		ldr	r3, [r3, #24]	@ _108->FSMC_AccessMode, _108->FSMC_AccessMode
 612 0220 33F04053 		bics	r3, r3, #805306368	@ tmp468, _108->FSMC_AccessMode,
 613 0224 0CBF     		ite	eq
 614 0226 0120     		moveq	r0, #1	@,
 615 0228 0020     		movne	r0, #0	@,
 616 022a FFF7FEFF 		bl	assert_param		@
 617              	.LVL37:
 205:../Libraries/STM32F4xx_StdPeriph_Driver/src/stm32f4xx_fsmc.c ****               (uint32_t)FSMC_NORSRAMInitStruct->FSMC_WriteTimingStruct->FSMC_AddressSetupTime |
 618              		.loc 1 205 5 is_stmt 1 view .LVU121
 619              	@ ../Libraries/STM32F4xx_StdPeriph_Driver/src/stm32f4xx_fsmc.c:206:               (uint32_t)FSMC_NO
 206:../Libraries/STM32F4xx_StdPeriph_Driver/src/stm32f4xx_fsmc.c ****               (FSMC_NORSRAMInitStruct->FSMC_WriteTimingStruct->FSMC_AddressHoldTime << 4 )|
 620              		.loc 1 206 47 is_stmt 0 view .LVU122
 621 022e A16B     		ldr	r1, [r4, #56]	@ _110, FSMC_NORSRAMInitStruct_145(D)->FSMC_WriteTimingStruct
 622              	@ ../Libraries/STM32F4xx_StdPeriph_Driver/src/stm32f4xx_fsmc.c:205:     FSMC_Bank1E->BWTR[FSMC_NORS
 205:../Libraries/STM32F4xx_StdPeriph_Driver/src/stm32f4xx_fsmc.c ****               (uint32_t)FSMC_NORSRAMInitStruct->FSMC_WriteTimingStruct->FSMC_AddressSetupTime |
 623              		.loc 1 205 45 view .LVU123
 624 0230 2268     		ldr	r2, [r4]	@ _125, FSMC_NORSRAMInitStruct_145(D)->FSMC_Bank
 625              	@ ../Libraries/STM32F4xx_StdPeriph_Driver/src/stm32f4xx_fsmc.c:210:               (FSMC_NORSRAMInit
 210:../Libraries/STM32F4xx_StdPeriph_Driver/src/stm32f4xx_fsmc.c ****                FSMC_NORSRAMInitStruct->FSMC_WriteTimingStruct->FSMC_AccessMode;
 626              		.loc 1 210 88 view .LVU124
 627 0232 0B68     		ldr	r3, [r1]	@ _110->FSMC_AddressSetupTime, _110->FSMC_AddressSetupTime
 628 0234 8C69     		ldr	r4, [r1, #24]	@ _110->FSMC_AccessMode, _110->FSMC_AccessMode
 629              	.LVL38:
 630              	@ ../Libraries/STM32F4xx_StdPeriph_Driver/src/stm32f4xx_fsmc.c:207:               (FSMC_NORSRAMInit
 207:../Libraries/STM32F4xx_StdPeriph_Driver/src/stm32f4xx_fsmc.c ****               (FSMC_NORSRAMInitStruct->FSMC_WriteTimingStruct->FSMC_DataSetupTime << 8) |
 631              		.loc 1 207 85 view .LVU125
 632 0236 4868     		ldr	r0, [r1, #4]	@ _110->FSMC_AddressHoldTime, _110->FSMC_AddressHoldTime
 633              	@ ../Libraries/STM32F4xx_StdPeriph_Driver/src/stm32f4xx_fsmc.c:210:               (FSMC_NORSRAMInit
 210:../Libraries/STM32F4xx_StdPeriph_Driver/src/stm32f4xx_fsmc.c ****                FSMC_NORSRAMInitStruct->FSMC_WriteTimingStruct->FSMC_AccessMode;
 634              		.loc 1 210 88 view .LVU126
 635 0238 2343     		orrs	r3, r3, r4	@, tmp432, _110->FSMC_AddressSetupTime, _110->FSMC_AccessMode
 636              	@ ../Libraries/STM32F4xx_StdPeriph_Driver/src/stm32f4xx_fsmc.c:208:               (FSMC_NORSRAMInit
 208:../Libraries/STM32F4xx_StdPeriph_Driver/src/stm32f4xx_fsmc.c ****               (FSMC_NORSRAMInitStruct->FSMC_WriteTimingStruct->FSMC_CLKDivision << 20) |
 637              		.loc 1 208 83 view .LVU127
 638 023a 8C68     		ldr	r4, [r1, #8]	@ _110->FSMC_DataSetupTime, _110->FSMC_DataSetupTime
 639              	@ ../Libraries/STM32F4xx_StdPeriph_Driver/src/stm32f4xx_fsmc.c:210:               (FSMC_NORSRAMInit
 210:../Libraries/STM32F4xx_StdPeriph_Driver/src/stm32f4xx_fsmc.c ****                FSMC_NORSRAMInitStruct->FSMC_WriteTimingStruct->FSMC_AccessMode;
 640              		.loc 1 210 88 view .LVU128
 641 023c 43EA0013 		orr	r3, r3, r0, lsl #4	@ tmp437, tmp432, _110->FSMC_AddressHoldTime,
 642              	@ ../Libraries/STM32F4xx_StdPeriph_Driver/src/stm32f4xx_fsmc.c:209:               (FSMC_NORSRAMInit
 209:../Libraries/STM32F4xx_StdPeriph_Driver/src/stm32f4xx_fsmc.c ****               (FSMC_NORSRAMInitStruct->FSMC_WriteTimingStruct->FSMC_DataLatency << 24) |
 643              		.loc 1 209 81 view .LVU129
 644 0240 0869     		ldr	r0, [r1, #16]	@ _110->FSMC_CLKDivision, _110->FSMC_CLKDivision
 645              	@ ../Libraries/STM32F4xx_StdPeriph_Driver/src/stm32f4xx_fsmc.c:210:               (FSMC_NORSRAMInit
 210:../Libraries/STM32F4xx_StdPeriph_Driver/src/stm32f4xx_fsmc.c ****                FSMC_NORSRAMInitStruct->FSMC_WriteTimingStruct->FSMC_AccessMode;
 646              		.loc 1 210 81 view .LVU130
 647 0242 4969     		ldr	r1, [r1, #20]	@ _110->FSMC_DataLatency, _110->FSMC_DataLatency
ARM GAS  C:\Users\admin\AppData\Local\Temp\ccAkqsWz.s 			page 17


 648              	@ ../Libraries/STM32F4xx_StdPeriph_Driver/src/stm32f4xx_fsmc.c:205:     FSMC_Bank1E->BWTR[FSMC_NORS
 205:../Libraries/STM32F4xx_StdPeriph_Driver/src/stm32f4xx_fsmc.c ****               (uint32_t)FSMC_NORSRAMInitStruct->FSMC_WriteTimingStruct->FSMC_AddressSetupTime |
 649              		.loc 1 205 58 view .LVU131
 650 0244 9200     		lsls	r2, r2, #2	@ tmp448, _125,
 651              	@ ../Libraries/STM32F4xx_StdPeriph_Driver/src/stm32f4xx_fsmc.c:210:               (FSMC_NORSRAMInit
 210:../Libraries/STM32F4xx_StdPeriph_Driver/src/stm32f4xx_fsmc.c ****                FSMC_NORSRAMInitStruct->FSMC_WriteTimingStruct->FSMC_AccessMode;
 652              		.loc 1 210 88 view .LVU132
 653 0246 43EA0423 		orr	r3, r3, r4, lsl #8	@ tmp440, tmp437, _110->FSMC_DataSetupTime,
 654              	@ ../Libraries/STM32F4xx_StdPeriph_Driver/src/stm32f4xx_fsmc.c:205:     FSMC_Bank1E->BWTR[FSMC_NORS
 205:../Libraries/STM32F4xx_StdPeriph_Driver/src/stm32f4xx_fsmc.c ****               (uint32_t)FSMC_NORSRAMInitStruct->FSMC_WriteTimingStruct->FSMC_AddressSetupTime |
 655              		.loc 1 205 58 view .LVU133
 656 024a 02F12042 		add	r2, r2, #-1610612736	@ tmp447, tmp448,
 657              	@ ../Libraries/STM32F4xx_StdPeriph_Driver/src/stm32f4xx_fsmc.c:210:               (FSMC_NORSRAMInit
 210:../Libraries/STM32F4xx_StdPeriph_Driver/src/stm32f4xx_fsmc.c ****                FSMC_NORSRAMInitStruct->FSMC_WriteTimingStruct->FSMC_AccessMode;
 658              		.loc 1 210 88 view .LVU134
 659 024e 43EA0053 		orr	r3, r3, r0, lsl #20	@ tmp443, tmp440, _110->FSMC_CLKDivision,
 660 0252 43EA0163 		orr	r3, r3, r1, lsl #24	@ _126, tmp443, _110->FSMC_DataLatency,
 661              	@ ../Libraries/STM32F4xx_StdPeriph_Driver/src/stm32f4xx_fsmc.c:205:     FSMC_Bank1E->BWTR[FSMC_NORS
 205:../Libraries/STM32F4xx_StdPeriph_Driver/src/stm32f4xx_fsmc.c ****               (uint32_t)FSMC_NORSRAMInitStruct->FSMC_WriteTimingStruct->FSMC_AddressSetupTime |
 662              		.loc 1 205 58 view .LVU135
 663 0256 C2F80431 		str	r3, [r2, #260]	@ _126, MEM[(struct FSMC_Bank1E_TypeDef *)2684354820B].BWTR[_125]
 664              	@ ../Libraries/STM32F4xx_StdPeriph_Driver/src/stm32f4xx_fsmc.c:217: }
 665              		.loc 1 217 1 view .LVU136
 666 025a 38BD     		pop	{r3, r4, r5, pc}	@
 667              		.cfi_endproc
 668              	.LFE111:
 669              		.size	FSMC_NORSRAMInit, .-FSMC_NORSRAMInit
 670              		.section	.text.FSMC_NORSRAMStructInit,"ax",%progbits
 671              		.align	1
 672              		.p2align 2,,3
 673              		.global	FSMC_NORSRAMStructInit
 674              		.syntax unified
 675              		.thumb
 676              		.thumb_func
 677              		.type	FSMC_NORSRAMStructInit, %function
 678              	FSMC_NORSRAMStructInit:
 679              	.LVL39:
 680              	.LFB112:
 218:../Libraries/STM32F4xx_StdPeriph_Driver/src/stm32f4xx_fsmc.c **** 
 219:../Libraries/STM32F4xx_StdPeriph_Driver/src/stm32f4xx_fsmc.c **** /**
 220:../Libraries/STM32F4xx_StdPeriph_Driver/src/stm32f4xx_fsmc.c ****   * @brief  Fills each FSMC_NORSRAMInitStruct member with its default value.
 221:../Libraries/STM32F4xx_StdPeriph_Driver/src/stm32f4xx_fsmc.c ****   * @param  FSMC_NORSRAMInitStruct: pointer to a FSMC_NORSRAMInitTypeDef structure 
 222:../Libraries/STM32F4xx_StdPeriph_Driver/src/stm32f4xx_fsmc.c ****   *         which will be initialized.
 223:../Libraries/STM32F4xx_StdPeriph_Driver/src/stm32f4xx_fsmc.c ****   * @retval None
 224:../Libraries/STM32F4xx_StdPeriph_Driver/src/stm32f4xx_fsmc.c ****   */
 225:../Libraries/STM32F4xx_StdPeriph_Driver/src/stm32f4xx_fsmc.c **** void FSMC_NORSRAMStructInit(FSMC_NORSRAMInitTypeDef* FSMC_NORSRAMInitStruct)
 226:../Libraries/STM32F4xx_StdPeriph_Driver/src/stm32f4xx_fsmc.c **** {  
 681              		.loc 1 226 1 is_stmt 1 view -0
 682              		.cfi_startproc
 683              		@ args = 0, pretend = 0, frame = 0
 684              		@ frame_needed = 0, uses_anonymous_args = 0
 685              		@ link register save eliminated.
 227:../Libraries/STM32F4xx_StdPeriph_Driver/src/stm32f4xx_fsmc.c ****   /* Reset NOR/SRAM Init structure parameters values */
 228:../Libraries/STM32F4xx_StdPeriph_Driver/src/stm32f4xx_fsmc.c ****   FSMC_NORSRAMInitStruct->FSMC_Bank = FSMC_Bank1_NORSRAM1;
 686              		.loc 1 228 3 view .LVU138
 687              	@ ../Libraries/STM32F4xx_StdPeriph_Driver/src/stm32f4xx_fsmc.c:226: {  
 226:../Libraries/STM32F4xx_StdPeriph_Driver/src/stm32f4xx_fsmc.c ****   /* Reset NOR/SRAM Init structure parameters values */
ARM GAS  C:\Users\admin\AppData\Local\Temp\ccAkqsWz.s 			page 18


 688              		.loc 1 226 1 is_stmt 0 view .LVU139
 689 0000 70B4     		push	{r4, r5, r6}	@
 690              		.cfi_def_cfa_offset 12
 691              		.cfi_offset 4, -12
 692              		.cfi_offset 5, -8
 693              		.cfi_offset 6, -4
 694              	@ ../Libraries/STM32F4xx_StdPeriph_Driver/src/stm32f4xx_fsmc.c:228:   FSMC_NORSRAMInitStruct->FSMC_
 695              		.loc 1 228 37 view .LVU140
 696 0002 0023     		movs	r3, #0	@ tmp116,
 697              	@ ../Libraries/STM32F4xx_StdPeriph_Driver/src/stm32f4xx_fsmc.c:229:   FSMC_NORSRAMInitStruct->FSMC_
 229:../Libraries/STM32F4xx_StdPeriph_Driver/src/stm32f4xx_fsmc.c ****   FSMC_NORSRAMInitStruct->FSMC_DataAddressMux = FSMC_DataAddressMux_Enable;
 698              		.loc 1 229 47 view .LVU141
 699 0004 0221     		movs	r1, #2	@ tmp117,
 700              	@ ../Libraries/STM32F4xx_StdPeriph_Driver/src/stm32f4xx_fsmc.c:228:   FSMC_NORSRAMInitStruct->FSMC_
 228:../Libraries/STM32F4xx_StdPeriph_Driver/src/stm32f4xx_fsmc.c ****   FSMC_NORSRAMInitStruct->FSMC_DataAddressMux = FSMC_DataAddressMux_Enable;
 701              		.loc 1 228 37 view .LVU142
 702 0006 C0E90031 		strd	r3, r1, [r0]	@ tmp116, tmp117, FSMC_NORSRAMInitStruct
 703              		.loc 1 229 3 is_stmt 1 view .LVU143
 230:../Libraries/STM32F4xx_StdPeriph_Driver/src/stm32f4xx_fsmc.c ****   FSMC_NORSRAMInitStruct->FSMC_MemoryType = FSMC_MemoryType_SRAM;
 704              		.loc 1 230 3 view .LVU144
 705              	@ ../Libraries/STM32F4xx_StdPeriph_Driver/src/stm32f4xx_fsmc.c:241:   FSMC_NORSRAMInitStruct->FSMC_
 231:../Libraries/STM32F4xx_StdPeriph_Driver/src/stm32f4xx_fsmc.c ****   FSMC_NORSRAMInitStruct->FSMC_MemoryDataWidth = FSMC_MemoryDataWidth_8b;
 232:../Libraries/STM32F4xx_StdPeriph_Driver/src/stm32f4xx_fsmc.c ****   FSMC_NORSRAMInitStruct->FSMC_BurstAccessMode = FSMC_BurstAccessMode_Disable;
 233:../Libraries/STM32F4xx_StdPeriph_Driver/src/stm32f4xx_fsmc.c ****   FSMC_NORSRAMInitStruct->FSMC_AsynchronousWait = FSMC_AsynchronousWait_Disable;
 234:../Libraries/STM32F4xx_StdPeriph_Driver/src/stm32f4xx_fsmc.c ****   FSMC_NORSRAMInitStruct->FSMC_WaitSignalPolarity = FSMC_WaitSignalPolarity_Low;
 235:../Libraries/STM32F4xx_StdPeriph_Driver/src/stm32f4xx_fsmc.c ****   FSMC_NORSRAMInitStruct->FSMC_WrapMode = FSMC_WrapMode_Disable;
 236:../Libraries/STM32F4xx_StdPeriph_Driver/src/stm32f4xx_fsmc.c ****   FSMC_NORSRAMInitStruct->FSMC_WaitSignalActive = FSMC_WaitSignalActive_BeforeWaitState;
 237:../Libraries/STM32F4xx_StdPeriph_Driver/src/stm32f4xx_fsmc.c ****   FSMC_NORSRAMInitStruct->FSMC_WriteOperation = FSMC_WriteOperation_Enable;
 238:../Libraries/STM32F4xx_StdPeriph_Driver/src/stm32f4xx_fsmc.c ****   FSMC_NORSRAMInitStruct->FSMC_WaitSignal = FSMC_WaitSignal_Enable;
 239:../Libraries/STM32F4xx_StdPeriph_Driver/src/stm32f4xx_fsmc.c ****   FSMC_NORSRAMInitStruct->FSMC_ExtendedMode = FSMC_ExtendedMode_Disable;
 240:../Libraries/STM32F4xx_StdPeriph_Driver/src/stm32f4xx_fsmc.c ****   FSMC_NORSRAMInitStruct->FSMC_WriteBurst = FSMC_WriteBurst_Disable;
 241:../Libraries/STM32F4xx_StdPeriph_Driver/src/stm32f4xx_fsmc.c ****   FSMC_NORSRAMInitStruct->FSMC_ReadWriteTimingStruct->FSMC_AddressSetupTime = 0xF;
 706              		.loc 1 241 25 is_stmt 0 view .LVU145
 707 000a 446B     		ldr	r4, [r0, #52]	@ _1, FSMC_NORSRAMInitStruct_4(D)->FSMC_ReadWriteTimingStruct
 708              	@ ../Libraries/STM32F4xx_StdPeriph_Driver/src/stm32f4xx_fsmc.c:248:   FSMC_NORSRAMInitStruct->FSMC_
 242:../Libraries/STM32F4xx_StdPeriph_Driver/src/stm32f4xx_fsmc.c ****   FSMC_NORSRAMInitStruct->FSMC_ReadWriteTimingStruct->FSMC_AddressHoldTime = 0xF;
 243:../Libraries/STM32F4xx_StdPeriph_Driver/src/stm32f4xx_fsmc.c ****   FSMC_NORSRAMInitStruct->FSMC_ReadWriteTimingStruct->FSMC_DataSetupTime = 0xFF;
 244:../Libraries/STM32F4xx_StdPeriph_Driver/src/stm32f4xx_fsmc.c ****   FSMC_NORSRAMInitStruct->FSMC_ReadWriteTimingStruct->FSMC_BusTurnAroundDuration = 0xF;
 245:../Libraries/STM32F4xx_StdPeriph_Driver/src/stm32f4xx_fsmc.c ****   FSMC_NORSRAMInitStruct->FSMC_ReadWriteTimingStruct->FSMC_CLKDivision = 0xF;
 246:../Libraries/STM32F4xx_StdPeriph_Driver/src/stm32f4xx_fsmc.c ****   FSMC_NORSRAMInitStruct->FSMC_ReadWriteTimingStruct->FSMC_DataLatency = 0xF;
 247:../Libraries/STM32F4xx_StdPeriph_Driver/src/stm32f4xx_fsmc.c ****   FSMC_NORSRAMInitStruct->FSMC_ReadWriteTimingStruct->FSMC_AccessMode = FSMC_AccessMode_A; 
 248:../Libraries/STM32F4xx_StdPeriph_Driver/src/stm32f4xx_fsmc.c ****   FSMC_NORSRAMInitStruct->FSMC_WriteTimingStruct->FSMC_AddressSetupTime = 0xF;
 709              		.loc 1 248 25 view .LVU146
 710 000c 816B     		ldr	r1, [r0, #56]	@ _2, FSMC_NORSRAMInitStruct_4(D)->FSMC_WriteTimingStruct
 711              	@ ../Libraries/STM32F4xx_StdPeriph_Driver/src/stm32f4xx_fsmc.c:236:   FSMC_NORSRAMInitStruct->FSMC_
 236:../Libraries/STM32F4xx_StdPeriph_Driver/src/stm32f4xx_fsmc.c ****   FSMC_NORSRAMInitStruct->FSMC_WriteOperation = FSMC_WriteOperation_Enable;
 712              		.loc 1 236 49 view .LVU147
 713 000e 0362     		str	r3, [r0, #32]	@ tmp116, FSMC_NORSRAMInitStruct_4(D)->FSMC_WaitSignalActive
 714              	@ ../Libraries/STM32F4xx_StdPeriph_Driver/src/stm32f4xx_fsmc.c:241:   FSMC_NORSRAMInitStruct->FSMC_
 241:../Libraries/STM32F4xx_StdPeriph_Driver/src/stm32f4xx_fsmc.c ****   FSMC_NORSRAMInitStruct->FSMC_ReadWriteTimingStruct->FSMC_AddressHoldTime = 0xF;
 715              		.loc 1 241 77 view .LVU148
 716 0010 0F22     		movs	r2, #15	@ tmp129,
 717              	@ ../Libraries/STM32F4xx_StdPeriph_Driver/src/stm32f4xx_fsmc.c:243:   FSMC_NORSRAMInitStruct->FSMC_
 243:../Libraries/STM32F4xx_StdPeriph_Driver/src/stm32f4xx_fsmc.c ****   FSMC_NORSRAMInitStruct->FSMC_ReadWriteTimingStruct->FSMC_BusTurnAroundDuration = 0xF;
 718              		.loc 1 243 74 view .LVU149
 719 0012 FF25     		movs	r5, #255	@ tmp131,
 720              	@ ../Libraries/STM32F4xx_StdPeriph_Driver/src/stm32f4xx_fsmc.c:238:   FSMC_NORSRAMInitStruct->FSMC_
ARM GAS  C:\Users\admin\AppData\Local\Temp\ccAkqsWz.s 			page 19


 238:../Libraries/STM32F4xx_StdPeriph_Driver/src/stm32f4xx_fsmc.c ****   FSMC_NORSRAMInitStruct->FSMC_ExtendedMode = FSMC_ExtendedMode_Disable;
 721              		.loc 1 238 43 view .LVU150
 722 0014 4FF40056 		mov	r6, #8192	@ tmp126,
 723 0018 4FF4805C 		mov	ip, #4096	@,
 724              	@ ../Libraries/STM32F4xx_StdPeriph_Driver/src/stm32f4xx_fsmc.c:231:   FSMC_NORSRAMInitStruct->FSMC_
 231:../Libraries/STM32F4xx_StdPeriph_Driver/src/stm32f4xx_fsmc.c ****   FSMC_NORSRAMInitStruct->FSMC_BurstAccessMode = FSMC_BurstAccessMode_Disable;
 725              		.loc 1 231 48 view .LVU151
 726 001c C0E90233 		strd	r3, r3, [r0, #8]	@ tmp116, tmp116, FSMC_NORSRAMInitStruct,
 232:../Libraries/STM32F4xx_StdPeriph_Driver/src/stm32f4xx_fsmc.c ****   FSMC_NORSRAMInitStruct->FSMC_AsynchronousWait = FSMC_AsynchronousWait_Disable;
 727              		.loc 1 232 3 is_stmt 1 view .LVU152
 728              	@ ../Libraries/STM32F4xx_StdPeriph_Driver/src/stm32f4xx_fsmc.c:233:   FSMC_NORSRAMInitStruct->FSMC_
 233:../Libraries/STM32F4xx_StdPeriph_Driver/src/stm32f4xx_fsmc.c ****   FSMC_NORSRAMInitStruct->FSMC_WaitSignalPolarity = FSMC_WaitSignalPolarity_Low;
 729              		.loc 1 233 49 is_stmt 0 view .LVU153
 730 0020 C0E90433 		strd	r3, r3, [r0, #16]	@ tmp116, tmp116, FSMC_NORSRAMInitStruct,
 234:../Libraries/STM32F4xx_StdPeriph_Driver/src/stm32f4xx_fsmc.c ****   FSMC_NORSRAMInitStruct->FSMC_WrapMode = FSMC_WrapMode_Disable;
 731              		.loc 1 234 3 is_stmt 1 view .LVU154
 732              	@ ../Libraries/STM32F4xx_StdPeriph_Driver/src/stm32f4xx_fsmc.c:235:   FSMC_NORSRAMInitStruct->FSMC_
 235:../Libraries/STM32F4xx_StdPeriph_Driver/src/stm32f4xx_fsmc.c ****   FSMC_NORSRAMInitStruct->FSMC_WaitSignalActive = FSMC_WaitSignalActive_BeforeWaitState;
 733              		.loc 1 235 41 is_stmt 0 view .LVU155
 734 0024 C0E90633 		strd	r3, r3, [r0, #24]	@ tmp116, tmp116, FSMC_NORSRAMInitStruct,
 236:../Libraries/STM32F4xx_StdPeriph_Driver/src/stm32f4xx_fsmc.c ****   FSMC_NORSRAMInitStruct->FSMC_WriteOperation = FSMC_WriteOperation_Enable;
 735              		.loc 1 236 3 is_stmt 1 view .LVU156
 237:../Libraries/STM32F4xx_StdPeriph_Driver/src/stm32f4xx_fsmc.c ****   FSMC_NORSRAMInitStruct->FSMC_WaitSignal = FSMC_WaitSignal_Enable;
 736              		.loc 1 237 3 view .LVU157
 737              	@ ../Libraries/STM32F4xx_StdPeriph_Driver/src/stm32f4xx_fsmc.c:240:   FSMC_NORSRAMInitStruct->FSMC_
 240:../Libraries/STM32F4xx_StdPeriph_Driver/src/stm32f4xx_fsmc.c ****   FSMC_NORSRAMInitStruct->FSMC_ReadWriteTimingStruct->FSMC_AddressSetupTime = 0xF;
 738              		.loc 1 240 43 is_stmt 0 view .LVU158
 739 0028 C0E90B33 		strd	r3, r3, [r0, #44]	@ tmp116, tmp116, FSMC_NORSRAMInitStruct,
 740              	@ ../Libraries/STM32F4xx_StdPeriph_Driver/src/stm32f4xx_fsmc.c:238:   FSMC_NORSRAMInitStruct->FSMC_
 238:../Libraries/STM32F4xx_StdPeriph_Driver/src/stm32f4xx_fsmc.c ****   FSMC_NORSRAMInitStruct->FSMC_ExtendedMode = FSMC_ExtendedMode_Disable;
 741              		.loc 1 238 43 view .LVU159
 742 002c C0E909C6 		strd	ip, r6, [r0, #36]	@, tmp126, FSMC_NORSRAMInitStruct,
 239:../Libraries/STM32F4xx_StdPeriph_Driver/src/stm32f4xx_fsmc.c ****   FSMC_NORSRAMInitStruct->FSMC_WriteBurst = FSMC_WriteBurst_Disable;
 743              		.loc 1 239 3 is_stmt 1 view .LVU160
 240:../Libraries/STM32F4xx_StdPeriph_Driver/src/stm32f4xx_fsmc.c ****   FSMC_NORSRAMInitStruct->FSMC_ReadWriteTimingStruct->FSMC_AddressSetupTime = 0xF;
 744              		.loc 1 240 3 view .LVU161
 241:../Libraries/STM32F4xx_StdPeriph_Driver/src/stm32f4xx_fsmc.c ****   FSMC_NORSRAMInitStruct->FSMC_ReadWriteTimingStruct->FSMC_AddressHoldTime = 0xF;
 745              		.loc 1 241 3 view .LVU162
 746              	@ ../Libraries/STM32F4xx_StdPeriph_Driver/src/stm32f4xx_fsmc.c:242:   FSMC_NORSRAMInitStruct->FSMC_
 242:../Libraries/STM32F4xx_StdPeriph_Driver/src/stm32f4xx_fsmc.c ****   FSMC_NORSRAMInitStruct->FSMC_ReadWriteTimingStruct->FSMC_DataSetupTime = 0xFF;
 747              		.loc 1 242 76 is_stmt 0 view .LVU163
 748 0030 C4E90022 		strd	r2, r2, [r4]	@ tmp129, tmp129, _1
 243:../Libraries/STM32F4xx_StdPeriph_Driver/src/stm32f4xx_fsmc.c ****   FSMC_NORSRAMInitStruct->FSMC_ReadWriteTimingStruct->FSMC_BusTurnAroundDuration = 0xF;
 749              		.loc 1 243 3 is_stmt 1 view .LVU164
 750              	@ ../Libraries/STM32F4xx_StdPeriph_Driver/src/stm32f4xx_fsmc.c:244:   FSMC_NORSRAMInitStruct->FSMC_
 244:../Libraries/STM32F4xx_StdPeriph_Driver/src/stm32f4xx_fsmc.c ****   FSMC_NORSRAMInitStruct->FSMC_ReadWriteTimingStruct->FSMC_CLKDivision = 0xF;
 751              		.loc 1 244 82 is_stmt 0 view .LVU165
 752 0034 C4E90252 		strd	r5, r2, [r4, #8]	@ tmp131, tmp129, _1,
 245:../Libraries/STM32F4xx_StdPeriph_Driver/src/stm32f4xx_fsmc.c ****   FSMC_NORSRAMInitStruct->FSMC_ReadWriteTimingStruct->FSMC_DataLatency = 0xF;
 753              		.loc 1 245 3 is_stmt 1 view .LVU166
 754              	@ ../Libraries/STM32F4xx_StdPeriph_Driver/src/stm32f4xx_fsmc.c:246:   FSMC_NORSRAMInitStruct->FSMC_
 246:../Libraries/STM32F4xx_StdPeriph_Driver/src/stm32f4xx_fsmc.c ****   FSMC_NORSRAMInitStruct->FSMC_ReadWriteTimingStruct->FSMC_AccessMode = FSMC_AccessMode_A; 
 755              		.loc 1 246 72 is_stmt 0 view .LVU167
 756 0038 C4E90422 		strd	r2, r2, [r4, #16]	@ tmp129, tmp129, _1,
 247:../Libraries/STM32F4xx_StdPeriph_Driver/src/stm32f4xx_fsmc.c ****   FSMC_NORSRAMInitStruct->FSMC_WriteTimingStruct->FSMC_AddressSetupTime = 0xF;
 757              		.loc 1 247 3 is_stmt 1 view .LVU168
 758              	@ ../Libraries/STM32F4xx_StdPeriph_Driver/src/stm32f4xx_fsmc.c:247:   FSMC_NORSRAMInitStruct->FSMC_
ARM GAS  C:\Users\admin\AppData\Local\Temp\ccAkqsWz.s 			page 20


 247:../Libraries/STM32F4xx_StdPeriph_Driver/src/stm32f4xx_fsmc.c ****   FSMC_NORSRAMInitStruct->FSMC_WriteTimingStruct->FSMC_AddressSetupTime = 0xF;
 759              		.loc 1 247 71 is_stmt 0 view .LVU169
 760 003c A361     		str	r3, [r4, #24]	@ tmp116, _1->FSMC_AccessMode
 761              		.loc 1 248 3 is_stmt 1 view .LVU170
 762              	@ ../Libraries/STM32F4xx_StdPeriph_Driver/src/stm32f4xx_fsmc.c:249:   FSMC_NORSRAMInitStruct->FSMC_
 249:../Libraries/STM32F4xx_StdPeriph_Driver/src/stm32f4xx_fsmc.c ****   FSMC_NORSRAMInitStruct->FSMC_WriteTimingStruct->FSMC_AddressHoldTime = 0xF;
 763              		.loc 1 249 72 is_stmt 0 view .LVU171
 764 003e C1E90022 		strd	r2, r2, [r1]	@ tmp129, tmp129, _2
 250:../Libraries/STM32F4xx_StdPeriph_Driver/src/stm32f4xx_fsmc.c ****   FSMC_NORSRAMInitStruct->FSMC_WriteTimingStruct->FSMC_DataSetupTime = 0xFF;
 765              		.loc 1 250 3 is_stmt 1 view .LVU172
 766              	@ ../Libraries/STM32F4xx_StdPeriph_Driver/src/stm32f4xx_fsmc.c:251:   FSMC_NORSRAMInitStruct->FSMC_
 251:../Libraries/STM32F4xx_StdPeriph_Driver/src/stm32f4xx_fsmc.c ****   FSMC_NORSRAMInitStruct->FSMC_WriteTimingStruct->FSMC_BusTurnAroundDuration = 0xF;
 767              		.loc 1 251 78 is_stmt 0 view .LVU173
 768 0042 C1E90252 		strd	r5, r2, [r1, #8]	@ tmp131, tmp129, _2,
 252:../Libraries/STM32F4xx_StdPeriph_Driver/src/stm32f4xx_fsmc.c ****   FSMC_NORSRAMInitStruct->FSMC_WriteTimingStruct->FSMC_CLKDivision = 0xF;
 769              		.loc 1 252 3 is_stmt 1 view .LVU174
 770              	@ ../Libraries/STM32F4xx_StdPeriph_Driver/src/stm32f4xx_fsmc.c:253:   FSMC_NORSRAMInitStruct->FSMC_
 253:../Libraries/STM32F4xx_StdPeriph_Driver/src/stm32f4xx_fsmc.c ****   FSMC_NORSRAMInitStruct->FSMC_WriteTimingStruct->FSMC_DataLatency = 0xF;
 771              		.loc 1 253 68 is_stmt 0 view .LVU175
 772 0046 C1E90422 		strd	r2, r2, [r1, #16]	@ tmp129, tmp129, _2,
 254:../Libraries/STM32F4xx_StdPeriph_Driver/src/stm32f4xx_fsmc.c ****   FSMC_NORSRAMInitStruct->FSMC_WriteTimingStruct->FSMC_AccessMode = FSMC_AccessMode_A;
 773              		.loc 1 254 3 is_stmt 1 view .LVU176
 774              	@ ../Libraries/STM32F4xx_StdPeriph_Driver/src/stm32f4xx_fsmc.c:254:   FSMC_NORSRAMInitStruct->FSMC_
 775              		.loc 1 254 67 is_stmt 0 view .LVU177
 776 004a 8B61     		str	r3, [r1, #24]	@ tmp116, _2->FSMC_AccessMode
 777              	@ ../Libraries/STM32F4xx_StdPeriph_Driver/src/stm32f4xx_fsmc.c:255: }
 255:../Libraries/STM32F4xx_StdPeriph_Driver/src/stm32f4xx_fsmc.c **** }
 778              		.loc 1 255 1 view .LVU178
 779 004c 70BC     		pop	{r4, r5, r6}	@
 780              		.cfi_restore 6
 781              		.cfi_restore 5
 782              		.cfi_restore 4
 783              		.cfi_def_cfa_offset 0
 784 004e 7047     		bx	lr	@
 785              		.cfi_endproc
 786              	.LFE112:
 787              		.size	FSMC_NORSRAMStructInit, .-FSMC_NORSRAMStructInit
 788              		.section	.text.FSMC_NORSRAMCmd,"ax",%progbits
 789              		.align	1
 790              		.p2align 2,,3
 791              		.global	FSMC_NORSRAMCmd
 792              		.syntax unified
 793              		.thumb
 794              		.thumb_func
 795              		.type	FSMC_NORSRAMCmd, %function
 796              	FSMC_NORSRAMCmd:
 797              	.LVL40:
 798              	.LFB113:
 256:../Libraries/STM32F4xx_StdPeriph_Driver/src/stm32f4xx_fsmc.c **** 
 257:../Libraries/STM32F4xx_StdPeriph_Driver/src/stm32f4xx_fsmc.c **** /**
 258:../Libraries/STM32F4xx_StdPeriph_Driver/src/stm32f4xx_fsmc.c ****   * @brief  Enables or disables the specified NOR/SRAM Memory Bank.
 259:../Libraries/STM32F4xx_StdPeriph_Driver/src/stm32f4xx_fsmc.c ****   * @param  FSMC_Bank: specifies the FSMC Bank to be used
 260:../Libraries/STM32F4xx_StdPeriph_Driver/src/stm32f4xx_fsmc.c ****   *          This parameter can be one of the following values:
 261:../Libraries/STM32F4xx_StdPeriph_Driver/src/stm32f4xx_fsmc.c ****   *            @arg FSMC_Bank1_NORSRAM1: FSMC Bank1 NOR/SRAM1  
 262:../Libraries/STM32F4xx_StdPeriph_Driver/src/stm32f4xx_fsmc.c ****   *            @arg FSMC_Bank1_NORSRAM2: FSMC Bank1 NOR/SRAM2 
 263:../Libraries/STM32F4xx_StdPeriph_Driver/src/stm32f4xx_fsmc.c ****   *            @arg FSMC_Bank1_NORSRAM3: FSMC Bank1 NOR/SRAM3 
 264:../Libraries/STM32F4xx_StdPeriph_Driver/src/stm32f4xx_fsmc.c ****   *            @arg FSMC_Bank1_NORSRAM4: FSMC Bank1 NOR/SRAM4 
ARM GAS  C:\Users\admin\AppData\Local\Temp\ccAkqsWz.s 			page 21


 265:../Libraries/STM32F4xx_StdPeriph_Driver/src/stm32f4xx_fsmc.c ****   * @param  NewState: new state of the FSMC_Bank. This parameter can be: ENABLE or DISABLE.
 266:../Libraries/STM32F4xx_StdPeriph_Driver/src/stm32f4xx_fsmc.c ****   * @retval None
 267:../Libraries/STM32F4xx_StdPeriph_Driver/src/stm32f4xx_fsmc.c ****   */
 268:../Libraries/STM32F4xx_StdPeriph_Driver/src/stm32f4xx_fsmc.c **** void FSMC_NORSRAMCmd(uint32_t FSMC_Bank, FunctionalState NewState)
 269:../Libraries/STM32F4xx_StdPeriph_Driver/src/stm32f4xx_fsmc.c **** {
 799              		.loc 1 269 1 is_stmt 1 view -0
 800              		.cfi_startproc
 801              		@ args = 0, pretend = 0, frame = 0
 802              		@ frame_needed = 0, uses_anonymous_args = 0
 270:../Libraries/STM32F4xx_StdPeriph_Driver/src/stm32f4xx_fsmc.c ****   assert_param(IS_FSMC_NORSRAM_BANK(FSMC_Bank));
 803              		.loc 1 270 3 view .LVU180
 804              	@ ../Libraries/STM32F4xx_StdPeriph_Driver/src/stm32f4xx_fsmc.c:269: {
 269:../Libraries/STM32F4xx_StdPeriph_Driver/src/stm32f4xx_fsmc.c ****   assert_param(IS_FSMC_NORSRAM_BANK(FSMC_Bank));
 805              		.loc 1 269 1 is_stmt 0 view .LVU181
 806 0000 38B5     		push	{r3, r4, r5, lr}	@
 807              		.cfi_def_cfa_offset 16
 808              		.cfi_offset 3, -16
 809              		.cfi_offset 4, -12
 810              		.cfi_offset 5, -8
 811              		.cfi_offset 14, -4
 812              	@ ../Libraries/STM32F4xx_StdPeriph_Driver/src/stm32f4xx_fsmc.c:270:   assert_param(IS_FSMC_NORSRAM_
 813              		.loc 1 270 3 view .LVU182
 814 0002 30F00603 		bics	r3, r0, #6	@ tmp139, FSMC_Bank,
 815              	@ ../Libraries/STM32F4xx_StdPeriph_Driver/src/stm32f4xx_fsmc.c:269: {
 269:../Libraries/STM32F4xx_StdPeriph_Driver/src/stm32f4xx_fsmc.c ****   assert_param(IS_FSMC_NORSRAM_BANK(FSMC_Bank));
 816              		.loc 1 269 1 view .LVU183
 817 0006 0446     		mov	r4, r0	@ FSMC_Bank, tmp136
 818 0008 0D46     		mov	r5, r1	@ NewState, tmp137
 819              	@ ../Libraries/STM32F4xx_StdPeriph_Driver/src/stm32f4xx_fsmc.c:270:   assert_param(IS_FSMC_NORSRAM_
 820              		.loc 1 270 3 view .LVU184
 821 000a 0CBF     		ite	eq
 822 000c 0120     		moveq	r0, #1	@,
 823              	.LVL41:
 824              		.loc 1 270 3 view .LVU185
 825 000e 0020     		movne	r0, #0	@,
 826 0010 FFF7FEFF 		bl	assert_param		@
 827              	.LVL42:
 271:../Libraries/STM32F4xx_StdPeriph_Driver/src/stm32f4xx_fsmc.c ****   assert_param(IS_FUNCTIONAL_STATE(NewState));
 828              		.loc 1 271 3 is_stmt 1 view .LVU186
 829 0014 012D     		cmp	r5, #1	@ NewState,
 830 0016 8CBF     		ite	hi
 831 0018 0020     		movhi	r0, #0	@,
 832 001a 0120     		movls	r0, #1	@,
 833 001c FFF7FEFF 		bl	assert_param		@
 834              	.LVL43:
 272:../Libraries/STM32F4xx_StdPeriph_Driver/src/stm32f4xx_fsmc.c ****   
 273:../Libraries/STM32F4xx_StdPeriph_Driver/src/stm32f4xx_fsmc.c ****   if (NewState != DISABLE)
 835              		.loc 1 273 3 view .LVU187
 836              	@ ../Libraries/STM32F4xx_StdPeriph_Driver/src/stm32f4xx_fsmc.c:276:     FSMC_Bank1->BTCR[FSMC_Bank]
 274:../Libraries/STM32F4xx_StdPeriph_Driver/src/stm32f4xx_fsmc.c ****   {
 275:../Libraries/STM32F4xx_StdPeriph_Driver/src/stm32f4xx_fsmc.c ****     /* Enable the selected NOR/SRAM Bank by setting the PBKEN bit in the BCRx register */
 276:../Libraries/STM32F4xx_StdPeriph_Driver/src/stm32f4xx_fsmc.c ****     FSMC_Bank1->BTCR[FSMC_Bank] |= BCR_MBKEN_SET;
 837              		.loc 1 276 33 is_stmt 0 view .LVU188
 838 0020 4FF02042 		mov	r2, #-1610612736	@ tmp131,
 839              	@ ../Libraries/STM32F4xx_StdPeriph_Driver/src/stm32f4xx_fsmc.c:273:   if (NewState != DISABLE)
 273:../Libraries/STM32F4xx_StdPeriph_Driver/src/stm32f4xx_fsmc.c ****   {
 840              		.loc 1 273 6 view .LVU189
ARM GAS  C:\Users\admin\AppData\Local\Temp\ccAkqsWz.s 			page 22


 841 0024 35B1     		cbz	r5, .L20	@ NewState,
 842              		.loc 1 276 5 is_stmt 1 view .LVU190
 843              	@ ../Libraries/STM32F4xx_StdPeriph_Driver/src/stm32f4xx_fsmc.c:276:     FSMC_Bank1->BTCR[FSMC_Bank]
 844              		.loc 1 276 33 is_stmt 0 view .LVU191
 845 0026 52F82430 		ldr	r3, [r2, r4, lsl #2]	@ _3, MEM[(struct FSMC_Bank1_TypeDef *)2684354560B].BTCR[FSMC_Bank_9(D)]
 846 002a 43F00103 		orr	r3, r3, #1	@ _4, _3,
 847 002e 42F82430 		str	r3, [r2, r4, lsl #2]	@ _4,
 848              	@ ../Libraries/STM32F4xx_StdPeriph_Driver/src/stm32f4xx_fsmc.c:283: }
 277:../Libraries/STM32F4xx_StdPeriph_Driver/src/stm32f4xx_fsmc.c ****   }
 278:../Libraries/STM32F4xx_StdPeriph_Driver/src/stm32f4xx_fsmc.c ****   else
 279:../Libraries/STM32F4xx_StdPeriph_Driver/src/stm32f4xx_fsmc.c ****   {
 280:../Libraries/STM32F4xx_StdPeriph_Driver/src/stm32f4xx_fsmc.c ****     /* Disable the selected NOR/SRAM Bank by clearing the PBKEN bit in the BCRx register */
 281:../Libraries/STM32F4xx_StdPeriph_Driver/src/stm32f4xx_fsmc.c ****     FSMC_Bank1->BTCR[FSMC_Bank] &= BCR_MBKEN_RESET;
 282:../Libraries/STM32F4xx_StdPeriph_Driver/src/stm32f4xx_fsmc.c ****   }
 283:../Libraries/STM32F4xx_StdPeriph_Driver/src/stm32f4xx_fsmc.c **** }
 849              		.loc 1 283 1 view .LVU192
 850 0032 38BD     		pop	{r3, r4, r5, pc}	@
 851              	.LVL44:
 852              	.L20:
 281:../Libraries/STM32F4xx_StdPeriph_Driver/src/stm32f4xx_fsmc.c ****   }
 853              		.loc 1 281 5 is_stmt 1 view .LVU193
 854              	@ ../Libraries/STM32F4xx_StdPeriph_Driver/src/stm32f4xx_fsmc.c:281:     FSMC_Bank1->BTCR[FSMC_Bank]
 281:../Libraries/STM32F4xx_StdPeriph_Driver/src/stm32f4xx_fsmc.c ****   }
 855              		.loc 1 281 33 is_stmt 0 view .LVU194
 856 0034 52F82410 		ldr	r1, [r2, r4, lsl #2]	@ _5, MEM[(struct FSMC_Bank1_TypeDef *)2684354560B].BTCR[FSMC_Bank_9(D)]
 857 0038 024B     		ldr	r3, .L23	@ _6,
 858 003a 0B40     		ands	r3, r3, r1	@, _6, _6, _5
 859 003c 42F82430 		str	r3, [r2, r4, lsl #2]	@ _6,
 860              	@ ../Libraries/STM32F4xx_StdPeriph_Driver/src/stm32f4xx_fsmc.c:283: }
 861              		.loc 1 283 1 view .LVU195
 862 0040 38BD     		pop	{r3, r4, r5, pc}	@
 863              	.LVL45:
 864              	.L24:
 865              		.loc 1 283 1 view .LVU196
 866 0042 00BF     		.align	2
 867              	.L23:
 868 0044 FEFF0F00 		.word	1048574
 869              		.cfi_endproc
 870              	.LFE113:
 871              		.size	FSMC_NORSRAMCmd, .-FSMC_NORSRAMCmd
 872              		.section	.text.FSMC_NANDDeInit,"ax",%progbits
 873              		.align	1
 874              		.p2align 2,,3
 875              		.global	FSMC_NANDDeInit
 876              		.syntax unified
 877              		.thumb
 878              		.thumb_func
 879              		.type	FSMC_NANDDeInit, %function
 880              	FSMC_NANDDeInit:
 881              	.LVL46:
 882              	.LFB114:
 284:../Libraries/STM32F4xx_StdPeriph_Driver/src/stm32f4xx_fsmc.c **** /**
 285:../Libraries/STM32F4xx_StdPeriph_Driver/src/stm32f4xx_fsmc.c ****   * @}
 286:../Libraries/STM32F4xx_StdPeriph_Driver/src/stm32f4xx_fsmc.c ****   */
 287:../Libraries/STM32F4xx_StdPeriph_Driver/src/stm32f4xx_fsmc.c **** 
 288:../Libraries/STM32F4xx_StdPeriph_Driver/src/stm32f4xx_fsmc.c **** /** @defgroup FSMC_Group2 NAND Controller functions
 289:../Libraries/STM32F4xx_StdPeriph_Driver/src/stm32f4xx_fsmc.c ****  *  @brief   NAND Controller functions 
ARM GAS  C:\Users\admin\AppData\Local\Temp\ccAkqsWz.s 			page 23


 290:../Libraries/STM32F4xx_StdPeriph_Driver/src/stm32f4xx_fsmc.c ****  *
 291:../Libraries/STM32F4xx_StdPeriph_Driver/src/stm32f4xx_fsmc.c **** @verbatim   
 292:../Libraries/STM32F4xx_StdPeriph_Driver/src/stm32f4xx_fsmc.c ****  ===============================================================================
 293:../Libraries/STM32F4xx_StdPeriph_Driver/src/stm32f4xx_fsmc.c ****                     NAND Controller functions
 294:../Libraries/STM32F4xx_StdPeriph_Driver/src/stm32f4xx_fsmc.c ****  ===============================================================================  
 295:../Libraries/STM32F4xx_StdPeriph_Driver/src/stm32f4xx_fsmc.c **** 
 296:../Libraries/STM32F4xx_StdPeriph_Driver/src/stm32f4xx_fsmc.c ****  The following sequence should be followed to configure the FSMC to interface with
 297:../Libraries/STM32F4xx_StdPeriph_Driver/src/stm32f4xx_fsmc.c ****  8-bit or 16-bit NAND memory connected to the NAND Bank:
 298:../Libraries/STM32F4xx_StdPeriph_Driver/src/stm32f4xx_fsmc.c ****  
 299:../Libraries/STM32F4xx_StdPeriph_Driver/src/stm32f4xx_fsmc.c ****    1. Enable the clock for the FSMC and associated GPIOs using the following functions:
 300:../Libraries/STM32F4xx_StdPeriph_Driver/src/stm32f4xx_fsmc.c ****           RCC_AHB3PeriphClockCmd(RCC_AHB3Periph_FSMC, ENABLE);
 301:../Libraries/STM32F4xx_StdPeriph_Driver/src/stm32f4xx_fsmc.c ****           RCC_AHB1PeriphClockCmd(RCC_AHB1Periph_GPIOx, ENABLE);
 302:../Libraries/STM32F4xx_StdPeriph_Driver/src/stm32f4xx_fsmc.c **** 
 303:../Libraries/STM32F4xx_StdPeriph_Driver/src/stm32f4xx_fsmc.c ****    2. FSMC pins configuration 
 304:../Libraries/STM32F4xx_StdPeriph_Driver/src/stm32f4xx_fsmc.c ****        - Connect the involved FSMC pins to AF12 using the following function 
 305:../Libraries/STM32F4xx_StdPeriph_Driver/src/stm32f4xx_fsmc.c ****           GPIO_PinAFConfig(GPIOx, GPIO_PinSourcex, GPIO_AF_FSMC); 
 306:../Libraries/STM32F4xx_StdPeriph_Driver/src/stm32f4xx_fsmc.c ****        - Configure these FSMC pins in alternate function mode by calling the function
 307:../Libraries/STM32F4xx_StdPeriph_Driver/src/stm32f4xx_fsmc.c ****           GPIO_Init();    
 308:../Libraries/STM32F4xx_StdPeriph_Driver/src/stm32f4xx_fsmc.c ****        
 309:../Libraries/STM32F4xx_StdPeriph_Driver/src/stm32f4xx_fsmc.c ****    3. Declare a FSMC_NANDInitTypeDef structure, for example:
 310:../Libraries/STM32F4xx_StdPeriph_Driver/src/stm32f4xx_fsmc.c ****           FSMC_NANDInitTypeDef  FSMC_NANDInitStructure;
 311:../Libraries/STM32F4xx_StdPeriph_Driver/src/stm32f4xx_fsmc.c ****       and fill the FSMC_NANDInitStructure variable with the allowed values of
 312:../Libraries/STM32F4xx_StdPeriph_Driver/src/stm32f4xx_fsmc.c ****       the structure member.
 313:../Libraries/STM32F4xx_StdPeriph_Driver/src/stm32f4xx_fsmc.c ****       
 314:../Libraries/STM32F4xx_StdPeriph_Driver/src/stm32f4xx_fsmc.c ****    4. Initialize the NAND Controller by calling the function
 315:../Libraries/STM32F4xx_StdPeriph_Driver/src/stm32f4xx_fsmc.c ****           FSMC_NANDInit(&FSMC_NANDInitStructure); 
 316:../Libraries/STM32F4xx_StdPeriph_Driver/src/stm32f4xx_fsmc.c **** 
 317:../Libraries/STM32F4xx_StdPeriph_Driver/src/stm32f4xx_fsmc.c ****    5. Then enable the NAND Bank, for example:
 318:../Libraries/STM32F4xx_StdPeriph_Driver/src/stm32f4xx_fsmc.c ****           FSMC_NANDCmd(FSMC_Bank3_NAND, ENABLE);  
 319:../Libraries/STM32F4xx_StdPeriph_Driver/src/stm32f4xx_fsmc.c **** 
 320:../Libraries/STM32F4xx_StdPeriph_Driver/src/stm32f4xx_fsmc.c ****    6. At this stage you can read/write from/to the memory connected to the NAND Bank. 
 321:../Libraries/STM32F4xx_StdPeriph_Driver/src/stm32f4xx_fsmc.c ****    
 322:../Libraries/STM32F4xx_StdPeriph_Driver/src/stm32f4xx_fsmc.c **** @note To enable the Error Correction Code (ECC), you have to use the function
 323:../Libraries/STM32F4xx_StdPeriph_Driver/src/stm32f4xx_fsmc.c ****           FSMC_NANDECCCmd(FSMC_Bank3_NAND, ENABLE);  
 324:../Libraries/STM32F4xx_StdPeriph_Driver/src/stm32f4xx_fsmc.c ****       and to get the current ECC value you have to use the function
 325:../Libraries/STM32F4xx_StdPeriph_Driver/src/stm32f4xx_fsmc.c ****           ECCval = FSMC_GetECC(FSMC_Bank3_NAND); 
 326:../Libraries/STM32F4xx_StdPeriph_Driver/src/stm32f4xx_fsmc.c **** 
 327:../Libraries/STM32F4xx_StdPeriph_Driver/src/stm32f4xx_fsmc.c **** @endverbatim
 328:../Libraries/STM32F4xx_StdPeriph_Driver/src/stm32f4xx_fsmc.c ****   * @{
 329:../Libraries/STM32F4xx_StdPeriph_Driver/src/stm32f4xx_fsmc.c ****   */
 330:../Libraries/STM32F4xx_StdPeriph_Driver/src/stm32f4xx_fsmc.c ****   
 331:../Libraries/STM32F4xx_StdPeriph_Driver/src/stm32f4xx_fsmc.c **** /**
 332:../Libraries/STM32F4xx_StdPeriph_Driver/src/stm32f4xx_fsmc.c ****   * @brief  Deinitializes the FSMC NAND Banks registers to their default reset values.
 333:../Libraries/STM32F4xx_StdPeriph_Driver/src/stm32f4xx_fsmc.c ****   * @param  FSMC_Bank: specifies the FSMC Bank to be used
 334:../Libraries/STM32F4xx_StdPeriph_Driver/src/stm32f4xx_fsmc.c ****   *          This parameter can be one of the following values:
 335:../Libraries/STM32F4xx_StdPeriph_Driver/src/stm32f4xx_fsmc.c ****   *            @arg FSMC_Bank2_NAND: FSMC Bank2 NAND 
 336:../Libraries/STM32F4xx_StdPeriph_Driver/src/stm32f4xx_fsmc.c ****   *            @arg FSMC_Bank3_NAND: FSMC Bank3 NAND 
 337:../Libraries/STM32F4xx_StdPeriph_Driver/src/stm32f4xx_fsmc.c ****   * @retval None
 338:../Libraries/STM32F4xx_StdPeriph_Driver/src/stm32f4xx_fsmc.c ****   */
 339:../Libraries/STM32F4xx_StdPeriph_Driver/src/stm32f4xx_fsmc.c **** void FSMC_NANDDeInit(uint32_t FSMC_Bank)
 340:../Libraries/STM32F4xx_StdPeriph_Driver/src/stm32f4xx_fsmc.c **** {
 883              		.loc 1 340 1 is_stmt 1 view -0
 884              		.cfi_startproc
 885              		@ args = 0, pretend = 0, frame = 0
 886              		@ frame_needed = 0, uses_anonymous_args = 0
 341:../Libraries/STM32F4xx_StdPeriph_Driver/src/stm32f4xx_fsmc.c ****   /* Check the parameter */
 342:../Libraries/STM32F4xx_StdPeriph_Driver/src/stm32f4xx_fsmc.c ****   assert_param(IS_FSMC_NAND_BANK(FSMC_Bank));
ARM GAS  C:\Users\admin\AppData\Local\Temp\ccAkqsWz.s 			page 24


 887              		.loc 1 342 3 view .LVU198
 888 0000 1028     		cmp	r0, #16	@ FSMC_Bank,
 889              	@ ../Libraries/STM32F4xx_StdPeriph_Driver/src/stm32f4xx_fsmc.c:340: {
 340:../Libraries/STM32F4xx_StdPeriph_Driver/src/stm32f4xx_fsmc.c ****   /* Check the parameter */
 890              		.loc 1 340 1 is_stmt 0 view .LVU199
 891 0002 08B5     		push	{r3, lr}	@
 892              		.cfi_def_cfa_offset 8
 893              		.cfi_offset 3, -8
 894              		.cfi_offset 14, -4
 895              	@ ../Libraries/STM32F4xx_StdPeriph_Driver/src/stm32f4xx_fsmc.c:342:   assert_param(IS_FSMC_NAND_BAN
 896              		.loc 1 342 3 view .LVU200
 897 0004 15D0     		beq	.L26		@,
 898              	@ ../Libraries/STM32F4xx_StdPeriph_Driver/src/stm32f4xx_fsmc.c:342:   assert_param(IS_FSMC_NAND_BAN
 899              		.loc 1 342 3 discriminator 2 view .LVU201
 900 0006 A0F58070 		sub	r0, r0, #256	@, FSMC_Bank,
 901              	.LVL47:
 902              		.loc 1 342 3 discriminator 2 view .LVU202
 903 000a B0FA80F0 		clz	r0, r0	@,
 904              	.LVL48:
 905              		.loc 1 342 3 discriminator 2 view .LVU203
 906 000e 4009     		lsrs	r0, r0, #5	@,,
 907 0010 FFF7FEFF 		bl	assert_param		@
 908              	.LVL49:
 343:../Libraries/STM32F4xx_StdPeriph_Driver/src/stm32f4xx_fsmc.c ****   
 344:../Libraries/STM32F4xx_StdPeriph_Driver/src/stm32f4xx_fsmc.c ****   if(FSMC_Bank == FSMC_Bank2_NAND)
 909              		.loc 1 344 3 is_stmt 1 discriminator 2 view .LVU204
 345:../Libraries/STM32F4xx_StdPeriph_Driver/src/stm32f4xx_fsmc.c ****   {
 346:../Libraries/STM32F4xx_StdPeriph_Driver/src/stm32f4xx_fsmc.c ****     /* Set the FSMC_Bank2 registers to their reset values */
 347:../Libraries/STM32F4xx_StdPeriph_Driver/src/stm32f4xx_fsmc.c ****     FSMC_Bank2->PCR2 = 0x00000018;
 348:../Libraries/STM32F4xx_StdPeriph_Driver/src/stm32f4xx_fsmc.c ****     FSMC_Bank2->SR2 = 0x00000040;
 349:../Libraries/STM32F4xx_StdPeriph_Driver/src/stm32f4xx_fsmc.c ****     FSMC_Bank2->PMEM2 = 0xFCFCFCFC;
 350:../Libraries/STM32F4xx_StdPeriph_Driver/src/stm32f4xx_fsmc.c ****     FSMC_Bank2->PATT2 = 0xFCFCFCFC;  
 351:../Libraries/STM32F4xx_StdPeriph_Driver/src/stm32f4xx_fsmc.c ****   }
 352:../Libraries/STM32F4xx_StdPeriph_Driver/src/stm32f4xx_fsmc.c ****   /* FSMC_Bank3_NAND */  
 353:../Libraries/STM32F4xx_StdPeriph_Driver/src/stm32f4xx_fsmc.c ****   else
 354:../Libraries/STM32F4xx_StdPeriph_Driver/src/stm32f4xx_fsmc.c ****   {
 355:../Libraries/STM32F4xx_StdPeriph_Driver/src/stm32f4xx_fsmc.c ****     /* Set the FSMC_Bank3 registers to their reset values */
 356:../Libraries/STM32F4xx_StdPeriph_Driver/src/stm32f4xx_fsmc.c ****     FSMC_Bank3->PCR3 = 0x00000018;
 910              		.loc 1 356 5 discriminator 2 view .LVU205
 911              	@ ../Libraries/STM32F4xx_StdPeriph_Driver/src/stm32f4xx_fsmc.c:356:     FSMC_Bank3->PCR3 = 0x000000
 912              		.loc 1 356 22 is_stmt 0 discriminator 2 view .LVU206
 913 0014 4FF02043 		mov	r3, #-1610612736	@ tmp118,
 914              	@ ../Libraries/STM32F4xx_StdPeriph_Driver/src/stm32f4xx_fsmc.c:358:     FSMC_Bank3->PMEM3 = 0xFCFCF
 357:../Libraries/STM32F4xx_StdPeriph_Driver/src/stm32f4xx_fsmc.c ****     FSMC_Bank3->SR3 = 0x00000040;
 358:../Libraries/STM32F4xx_StdPeriph_Driver/src/stm32f4xx_fsmc.c ****     FSMC_Bank3->PMEM3 = 0xFCFCFCFC;
 915              		.loc 1 358 23 discriminator 2 view .LVU207
 916 0018 4FF0FC32 		mov	r2, #-50529028	@ tmp123,
 917              	@ ../Libraries/STM32F4xx_StdPeriph_Driver/src/stm32f4xx_fsmc.c:356:     FSMC_Bank3->PCR3 = 0x000000
 356:../Libraries/STM32F4xx_StdPeriph_Driver/src/stm32f4xx_fsmc.c ****     FSMC_Bank3->SR3 = 0x00000040;
 918              		.loc 1 356 22 discriminator 2 view .LVU208
 919 001c 1820     		movs	r0, #24	@ tmp119,
 920              	@ ../Libraries/STM32F4xx_StdPeriph_Driver/src/stm32f4xx_fsmc.c:357:     FSMC_Bank3->SR3 = 0x0000004
 357:../Libraries/STM32F4xx_StdPeriph_Driver/src/stm32f4xx_fsmc.c ****     FSMC_Bank3->SR3 = 0x00000040;
 921              		.loc 1 357 21 discriminator 2 view .LVU209
 922 001e 4021     		movs	r1, #64	@ tmp121,
 923              	@ ../Libraries/STM32F4xx_StdPeriph_Driver/src/stm32f4xx_fsmc.c:356:     FSMC_Bank3->PCR3 = 0x000000
 356:../Libraries/STM32F4xx_StdPeriph_Driver/src/stm32f4xx_fsmc.c ****     FSMC_Bank3->SR3 = 0x00000040;
ARM GAS  C:\Users\admin\AppData\Local\Temp\ccAkqsWz.s 			page 25


 924              		.loc 1 356 22 discriminator 2 view .LVU210
 925 0020 C3F88000 		str	r0, [r3, #128]	@ tmp119, MEM[(struct FSMC_Bank3_TypeDef *)2684354688B].PCR3
 357:../Libraries/STM32F4xx_StdPeriph_Driver/src/stm32f4xx_fsmc.c ****     FSMC_Bank3->SR3 = 0x00000040;
 926              		.loc 1 357 5 is_stmt 1 discriminator 2 view .LVU211
 927              	@ ../Libraries/STM32F4xx_StdPeriph_Driver/src/stm32f4xx_fsmc.c:357:     FSMC_Bank3->SR3 = 0x0000004
 357:../Libraries/STM32F4xx_StdPeriph_Driver/src/stm32f4xx_fsmc.c ****     FSMC_Bank3->SR3 = 0x00000040;
 928              		.loc 1 357 21 is_stmt 0 discriminator 2 view .LVU212
 929 0024 C3F88410 		str	r1, [r3, #132]	@ tmp121, MEM[(struct FSMC_Bank3_TypeDef *)2684354688B].SR3
 930              		.loc 1 358 5 is_stmt 1 discriminator 2 view .LVU213
 931              	@ ../Libraries/STM32F4xx_StdPeriph_Driver/src/stm32f4xx_fsmc.c:358:     FSMC_Bank3->PMEM3 = 0xFCFCF
 932              		.loc 1 358 23 is_stmt 0 discriminator 2 view .LVU214
 933 0028 C3F88820 		str	r2, [r3, #136]	@ tmp123, MEM[(struct FSMC_Bank3_TypeDef *)2684354688B].PMEM3
 359:../Libraries/STM32F4xx_StdPeriph_Driver/src/stm32f4xx_fsmc.c ****     FSMC_Bank3->PATT3 = 0xFCFCFCFC; 
 934              		.loc 1 359 5 is_stmt 1 discriminator 2 view .LVU215
 935              	@ ../Libraries/STM32F4xx_StdPeriph_Driver/src/stm32f4xx_fsmc.c:359:     FSMC_Bank3->PATT3 = 0xFCFCF
 936              		.loc 1 359 23 is_stmt 0 discriminator 2 view .LVU216
 937 002c C3F88C20 		str	r2, [r3, #140]	@ tmp123, MEM[(struct FSMC_Bank3_TypeDef *)2684354688B].PATT3
 938              	@ ../Libraries/STM32F4xx_StdPeriph_Driver/src/stm32f4xx_fsmc.c:361: }
 360:../Libraries/STM32F4xx_StdPeriph_Driver/src/stm32f4xx_fsmc.c ****   }  
 361:../Libraries/STM32F4xx_StdPeriph_Driver/src/stm32f4xx_fsmc.c **** }
 939              		.loc 1 361 1 discriminator 2 view .LVU217
 940 0030 08BD     		pop	{r3, pc}	@
 941              	.LVL50:
 942              	.L26:
 943              	@ ../Libraries/STM32F4xx_StdPeriph_Driver/src/stm32f4xx_fsmc.c:342:   assert_param(IS_FSMC_NAND_BAN
 342:../Libraries/STM32F4xx_StdPeriph_Driver/src/stm32f4xx_fsmc.c ****   
 944              		.loc 1 342 3 view .LVU218
 945 0032 0120     		movs	r0, #1	@,
 946              	.LVL51:
 342:../Libraries/STM32F4xx_StdPeriph_Driver/src/stm32f4xx_fsmc.c ****   
 947              		.loc 1 342 3 view .LVU219
 948 0034 FFF7FEFF 		bl	assert_param		@
 949              	.LVL52:
 344:../Libraries/STM32F4xx_StdPeriph_Driver/src/stm32f4xx_fsmc.c ****   {
 950              		.loc 1 344 3 is_stmt 1 view .LVU220
 347:../Libraries/STM32F4xx_StdPeriph_Driver/src/stm32f4xx_fsmc.c ****     FSMC_Bank2->SR2 = 0x00000040;
 951              		.loc 1 347 5 view .LVU221
 952              	@ ../Libraries/STM32F4xx_StdPeriph_Driver/src/stm32f4xx_fsmc.c:347:     FSMC_Bank2->PCR2 = 0x000000
 347:../Libraries/STM32F4xx_StdPeriph_Driver/src/stm32f4xx_fsmc.c ****     FSMC_Bank2->SR2 = 0x00000040;
 953              		.loc 1 347 22 is_stmt 0 view .LVU222
 954 0038 4FF02043 		mov	r3, #-1610612736	@ tmp126,
 955              	@ ../Libraries/STM32F4xx_StdPeriph_Driver/src/stm32f4xx_fsmc.c:349:     FSMC_Bank2->PMEM2 = 0xFCFCF
 349:../Libraries/STM32F4xx_StdPeriph_Driver/src/stm32f4xx_fsmc.c ****     FSMC_Bank2->PATT2 = 0xFCFCFCFC;  
 956              		.loc 1 349 23 view .LVU223
 957 003c 4FF0FC32 		mov	r2, #-50529028	@ tmp131,
 958              	@ ../Libraries/STM32F4xx_StdPeriph_Driver/src/stm32f4xx_fsmc.c:347:     FSMC_Bank2->PCR2 = 0x000000
 347:../Libraries/STM32F4xx_StdPeriph_Driver/src/stm32f4xx_fsmc.c ****     FSMC_Bank2->SR2 = 0x00000040;
 959              		.loc 1 347 22 view .LVU224
 960 0040 1820     		movs	r0, #24	@ tmp127,
 961              	@ ../Libraries/STM32F4xx_StdPeriph_Driver/src/stm32f4xx_fsmc.c:348:     FSMC_Bank2->SR2 = 0x0000004
 348:../Libraries/STM32F4xx_StdPeriph_Driver/src/stm32f4xx_fsmc.c ****     FSMC_Bank2->PMEM2 = 0xFCFCFCFC;
 962              		.loc 1 348 21 view .LVU225
 963 0042 4021     		movs	r1, #64	@ tmp129,
 964              	@ ../Libraries/STM32F4xx_StdPeriph_Driver/src/stm32f4xx_fsmc.c:347:     FSMC_Bank2->PCR2 = 0x000000
 347:../Libraries/STM32F4xx_StdPeriph_Driver/src/stm32f4xx_fsmc.c ****     FSMC_Bank2->SR2 = 0x00000040;
 965              		.loc 1 347 22 view .LVU226
 966 0044 1866     		str	r0, [r3, #96]	@ tmp127, MEM[(struct FSMC_Bank2_TypeDef *)2684354656B].PCR2
ARM GAS  C:\Users\admin\AppData\Local\Temp\ccAkqsWz.s 			page 26


 348:../Libraries/STM32F4xx_StdPeriph_Driver/src/stm32f4xx_fsmc.c ****     FSMC_Bank2->PMEM2 = 0xFCFCFCFC;
 967              		.loc 1 348 5 is_stmt 1 view .LVU227
 968              	@ ../Libraries/STM32F4xx_StdPeriph_Driver/src/stm32f4xx_fsmc.c:348:     FSMC_Bank2->SR2 = 0x0000004
 348:../Libraries/STM32F4xx_StdPeriph_Driver/src/stm32f4xx_fsmc.c ****     FSMC_Bank2->PMEM2 = 0xFCFCFCFC;
 969              		.loc 1 348 21 is_stmt 0 view .LVU228
 970 0046 5966     		str	r1, [r3, #100]	@ tmp129, MEM[(struct FSMC_Bank2_TypeDef *)2684354656B].SR2
 349:../Libraries/STM32F4xx_StdPeriph_Driver/src/stm32f4xx_fsmc.c ****     FSMC_Bank2->PATT2 = 0xFCFCFCFC;  
 971              		.loc 1 349 5 is_stmt 1 view .LVU229
 972              	@ ../Libraries/STM32F4xx_StdPeriph_Driver/src/stm32f4xx_fsmc.c:349:     FSMC_Bank2->PMEM2 = 0xFCFCF
 349:../Libraries/STM32F4xx_StdPeriph_Driver/src/stm32f4xx_fsmc.c ****     FSMC_Bank2->PATT2 = 0xFCFCFCFC;  
 973              		.loc 1 349 23 is_stmt 0 view .LVU230
 974 0048 9A66     		str	r2, [r3, #104]	@ tmp131, MEM[(struct FSMC_Bank2_TypeDef *)2684354656B].PMEM2
 350:../Libraries/STM32F4xx_StdPeriph_Driver/src/stm32f4xx_fsmc.c ****   }
 975              		.loc 1 350 5 is_stmt 1 view .LVU231
 976              	@ ../Libraries/STM32F4xx_StdPeriph_Driver/src/stm32f4xx_fsmc.c:350:     FSMC_Bank2->PATT2 = 0xFCFCF
 350:../Libraries/STM32F4xx_StdPeriph_Driver/src/stm32f4xx_fsmc.c ****   }
 977              		.loc 1 350 23 is_stmt 0 view .LVU232
 978 004a DA66     		str	r2, [r3, #108]	@ tmp131, MEM[(struct FSMC_Bank2_TypeDef *)2684354656B].PATT2
 979              	@ ../Libraries/STM32F4xx_StdPeriph_Driver/src/stm32f4xx_fsmc.c:361: }
 980              		.loc 1 361 1 view .LVU233
 981 004c 08BD     		pop	{r3, pc}	@
 982              		.cfi_endproc
 983              	.LFE114:
 984              		.size	FSMC_NANDDeInit, .-FSMC_NANDDeInit
 985 004e 00BF     		.section	.text.FSMC_NANDInit,"ax",%progbits
 986              		.align	1
 987              		.p2align 2,,3
 988              		.global	FSMC_NANDInit
 989              		.syntax unified
 990              		.thumb
 991              		.thumb_func
 992              		.type	FSMC_NANDInit, %function
 993              	FSMC_NANDInit:
 994              	.LVL53:
 995              	.LFB115:
 362:../Libraries/STM32F4xx_StdPeriph_Driver/src/stm32f4xx_fsmc.c **** 
 363:../Libraries/STM32F4xx_StdPeriph_Driver/src/stm32f4xx_fsmc.c **** /**
 364:../Libraries/STM32F4xx_StdPeriph_Driver/src/stm32f4xx_fsmc.c ****   * @brief  Initializes the FSMC NAND Banks according to the specified parameters
 365:../Libraries/STM32F4xx_StdPeriph_Driver/src/stm32f4xx_fsmc.c ****   *         in the FSMC_NANDInitStruct.
 366:../Libraries/STM32F4xx_StdPeriph_Driver/src/stm32f4xx_fsmc.c ****   * @param  FSMC_NANDInitStruct : pointer to a FSMC_NANDInitTypeDef structure that
 367:../Libraries/STM32F4xx_StdPeriph_Driver/src/stm32f4xx_fsmc.c ****   *         contains the configuration information for the FSMC NAND specified Banks.              
 368:../Libraries/STM32F4xx_StdPeriph_Driver/src/stm32f4xx_fsmc.c ****   * @retval None
 369:../Libraries/STM32F4xx_StdPeriph_Driver/src/stm32f4xx_fsmc.c ****   */
 370:../Libraries/STM32F4xx_StdPeriph_Driver/src/stm32f4xx_fsmc.c **** void FSMC_NANDInit(FSMC_NANDInitTypeDef* FSMC_NANDInitStruct)
 371:../Libraries/STM32F4xx_StdPeriph_Driver/src/stm32f4xx_fsmc.c **** {
 996              		.loc 1 371 1 is_stmt 1 view -0
 997              		.cfi_startproc
 998              		@ args = 0, pretend = 0, frame = 0
 999              		@ frame_needed = 0, uses_anonymous_args = 0
 372:../Libraries/STM32F4xx_StdPeriph_Driver/src/stm32f4xx_fsmc.c ****   uint32_t tmppcr = 0x00000000, tmppmem = 0x00000000, tmppatt = 0x00000000; 
 1000              		.loc 1 372 3 view .LVU235
 373:../Libraries/STM32F4xx_StdPeriph_Driver/src/stm32f4xx_fsmc.c ****     
 374:../Libraries/STM32F4xx_StdPeriph_Driver/src/stm32f4xx_fsmc.c ****   /* Check the parameters */
 375:../Libraries/STM32F4xx_StdPeriph_Driver/src/stm32f4xx_fsmc.c ****   assert_param( IS_FSMC_NAND_BANK(FSMC_NANDInitStruct->FSMC_Bank));
 1001              		.loc 1 375 3 view .LVU236
 1002              	@ ../Libraries/STM32F4xx_StdPeriph_Driver/src/stm32f4xx_fsmc.c:371: {
 371:../Libraries/STM32F4xx_StdPeriph_Driver/src/stm32f4xx_fsmc.c ****   uint32_t tmppcr = 0x00000000, tmppmem = 0x00000000, tmppatt = 0x00000000; 
ARM GAS  C:\Users\admin\AppData\Local\Temp\ccAkqsWz.s 			page 27


 1003              		.loc 1 371 1 is_stmt 0 view .LVU237
 1004 0000 70B5     		push	{r4, r5, r6, lr}	@
 1005              		.cfi_def_cfa_offset 16
 1006              		.cfi_offset 4, -16
 1007              		.cfi_offset 5, -12
 1008              		.cfi_offset 6, -8
 1009              		.cfi_offset 14, -4
 1010              	@ ../Libraries/STM32F4xx_StdPeriph_Driver/src/stm32f4xx_fsmc.c:371: {
 371:../Libraries/STM32F4xx_StdPeriph_Driver/src/stm32f4xx_fsmc.c ****   uint32_t tmppcr = 0x00000000, tmppmem = 0x00000000, tmppatt = 0x00000000; 
 1011              		.loc 1 371 1 view .LVU238
 1012 0002 0446     		mov	r4, r0	@ FSMC_NANDInitStruct, tmp302
 1013              	@ ../Libraries/STM32F4xx_StdPeriph_Driver/src/stm32f4xx_fsmc.c:375:   assert_param( IS_FSMC_NAND_BA
 1014              		.loc 1 375 17 view .LVU239
 1015 0004 0068     		ldr	r0, [r0]	@ _1, FSMC_NANDInitStruct_85(D)->FSMC_Bank
 1016              	.LVL54:
 1017              	@ ../Libraries/STM32F4xx_StdPeriph_Driver/src/stm32f4xx_fsmc.c:375:   assert_param( IS_FSMC_NAND_BA
 1018              		.loc 1 375 3 view .LVU240
 1019 0006 1028     		cmp	r0, #16	@ _1,
 1020 0008 1DBF     		ittte	ne
 1021 000a A0F58070 		subne	r0, r0, #256	@ iftmp.18_78, _1,
 1022 000e B0FA80F0 		clzne	r0, r0	@ iftmp.18_78, iftmp.18_78
 1023 0012 4009     		lsrne	r0, r0, #5	@ iftmp.18_78, iftmp.18_78,
 1024 0014 0120     		moveq	r0, #1	@ iftmp.18_78,
 1025 0016 FFF7FEFF 		bl	assert_param		@
 1026              	.LVL55:
 376:../Libraries/STM32F4xx_StdPeriph_Driver/src/stm32f4xx_fsmc.c ****   assert_param( IS_FSMC_WAIT_FEATURE(FSMC_NANDInitStruct->FSMC_Waitfeature));
 1027              		.loc 1 376 3 is_stmt 1 view .LVU241
 1028 001a 6368     		ldr	r3, [r4, #4]	@ FSMC_NANDInitStruct_85(D)->FSMC_Waitfeature, FSMC_NANDInitStruct_85(D)->FSMC_Wa
 1029 001c 33F00203 		bics	r3, r3, #2	@ tmp304, FSMC_NANDInitStruct_85(D)->FSMC_Waitfeature,
 1030 0020 0CBF     		ite	eq
 1031 0022 0120     		moveq	r0, #1	@,
 1032 0024 0020     		movne	r0, #0	@,
 1033 0026 FFF7FEFF 		bl	assert_param		@
 1034              	.LVL56:
 377:../Libraries/STM32F4xx_StdPeriph_Driver/src/stm32f4xx_fsmc.c ****   assert_param( IS_FSMC_MEMORY_WIDTH(FSMC_NANDInitStruct->FSMC_MemoryDataWidth));
 1035              		.loc 1 377 3 view .LVU242
 1036 002a A368     		ldr	r3, [r4, #8]	@ FSMC_NANDInitStruct_85(D)->FSMC_MemoryDataWidth, FSMC_NANDInitStruct_85(D)->FSM
 1037 002c 33F01003 		bics	r3, r3, #16	@ tmp305, FSMC_NANDInitStruct_85(D)->FSMC_MemoryDataWidth,
 1038 0030 0CBF     		ite	eq
 1039 0032 0120     		moveq	r0, #1	@,
 1040 0034 0020     		movne	r0, #0	@,
 1041 0036 FFF7FEFF 		bl	assert_param		@
 1042              	.LVL57:
 378:../Libraries/STM32F4xx_StdPeriph_Driver/src/stm32f4xx_fsmc.c ****   assert_param( IS_FSMC_ECC_STATE(FSMC_NANDInitStruct->FSMC_ECC));
 1043              		.loc 1 378 3 view .LVU243
 1044 003a E368     		ldr	r3, [r4, #12]	@ FSMC_NANDInitStruct_85(D)->FSMC_ECC, FSMC_NANDInitStruct_85(D)->FSMC_ECC
 1045 003c 33F04003 		bics	r3, r3, #64	@ tmp306, FSMC_NANDInitStruct_85(D)->FSMC_ECC,
 1046 0040 0CBF     		ite	eq
 1047 0042 0120     		moveq	r0, #1	@,
 1048 0044 0020     		movne	r0, #0	@,
 1049 0046 FFF7FEFF 		bl	assert_param		@
 1050              	.LVL58:
 379:../Libraries/STM32F4xx_StdPeriph_Driver/src/stm32f4xx_fsmc.c ****   assert_param( IS_FSMC_ECCPAGE_SIZE(FSMC_NANDInitStruct->FSMC_ECCPageSize));
 1051              		.loc 1 379 3 view .LVU244
 1052              	@ ../Libraries/STM32F4xx_StdPeriph_Driver/src/stm32f4xx_fsmc.c:379:   assert_param( IS_FSMC_ECCPAGE
 1053              		.loc 1 379 17 is_stmt 0 view .LVU245
 1054 004a 2369     		ldr	r3, [r4, #16]	@ _5, FSMC_NANDInitStruct_85(D)->FSMC_ECCPageSize
ARM GAS  C:\Users\admin\AppData\Local\Temp\ccAkqsWz.s 			page 28


 1055              	@ ../Libraries/STM32F4xx_StdPeriph_Driver/src/stm32f4xx_fsmc.c:379:   assert_param( IS_FSMC_ECCPAGE
 1056              		.loc 1 379 3 view .LVU246
 1057 004c 23F40030 		bic	r0, r3, #131072	@ _125, _5,
 1058 0050 33F4C023 		bics	r3, r3, #393216	@ tmp307, _5,
 1059              	@ ../Libraries/STM32F4xx_StdPeriph_Driver/src/stm32f4xx_fsmc.c:379:   assert_param( IS_FSMC_ECCPAGE
 1060              		.loc 1 379 17 view .LVU247
 1061 0054 1DBF     		ittte	ne
 1062 0056 A0F50020 		subne	r0, r0, #524288	@ iftmp.22_82, _125,
 1063 005a B0FA80F0 		clzne	r0, r0	@ iftmp.22_82, iftmp.22_82
 1064 005e 4009     		lsrne	r0, r0, #5	@ iftmp.22_82, iftmp.22_82,
 1065              	@ ../Libraries/STM32F4xx_StdPeriph_Driver/src/stm32f4xx_fsmc.c:379:   assert_param( IS_FSMC_ECCPAGE
 1066              		.loc 1 379 3 view .LVU248
 1067 0060 0120     		moveq	r0, #1	@ iftmp.22_82,
 1068 0062 FFF7FEFF 		bl	assert_param		@
 1069              	.LVL59:
 380:../Libraries/STM32F4xx_StdPeriph_Driver/src/stm32f4xx_fsmc.c ****   assert_param( IS_FSMC_TCLR_TIME(FSMC_NANDInitStruct->FSMC_TCLRSetupTime));
 1070              		.loc 1 380 3 is_stmt 1 view .LVU249
 1071 0066 6069     		ldr	r0, [r4, #20]	@ FSMC_NANDInitStruct_85(D)->FSMC_TCLRSetupTime, FSMC_NANDInitStruct_85(D)->FSMC
 1072 0068 FF28     		cmp	r0, #255	@ FSMC_NANDInitStruct_85(D)->FSMC_TCLRSetupTime,
 1073 006a 8CBF     		ite	hi
 1074 006c 0020     		movhi	r0, #0	@,
 1075 006e 0120     		movls	r0, #1	@,
 1076 0070 FFF7FEFF 		bl	assert_param		@
 1077              	.LVL60:
 381:../Libraries/STM32F4xx_StdPeriph_Driver/src/stm32f4xx_fsmc.c ****   assert_param( IS_FSMC_TAR_TIME(FSMC_NANDInitStruct->FSMC_TARSetupTime));
 1078              		.loc 1 381 3 view .LVU250
 1079 0074 A069     		ldr	r0, [r4, #24]	@ FSMC_NANDInitStruct_85(D)->FSMC_TARSetupTime, FSMC_NANDInitStruct_85(D)->FSMC_
 1080 0076 FF28     		cmp	r0, #255	@ FSMC_NANDInitStruct_85(D)->FSMC_TARSetupTime,
 1081 0078 8CBF     		ite	hi
 1082 007a 0020     		movhi	r0, #0	@,
 1083 007c 0120     		movls	r0, #1	@,
 1084 007e FFF7FEFF 		bl	assert_param		@
 1085              	.LVL61:
 382:../Libraries/STM32F4xx_StdPeriph_Driver/src/stm32f4xx_fsmc.c ****   assert_param(IS_FSMC_SETUP_TIME(FSMC_NANDInitStruct->FSMC_CommonSpaceTimingStruct->FSMC_SetupTime
 1086              		.loc 1 382 3 view .LVU251
 1087              	@ ../Libraries/STM32F4xx_StdPeriph_Driver/src/stm32f4xx_fsmc.c:382:   assert_param(IS_FSMC_SETUP_TI
 1088              		.loc 1 382 16 is_stmt 0 view .LVU252
 1089 0082 E369     		ldr	r3, [r4, #28]	@ FSMC_NANDInitStruct_85(D)->FSMC_CommonSpaceTimingStruct, FSMC_NANDInitStruct_8
 1090              	@ ../Libraries/STM32F4xx_StdPeriph_Driver/src/stm32f4xx_fsmc.c:382:   assert_param(IS_FSMC_SETUP_TI
 1091              		.loc 1 382 3 view .LVU253
 1092 0084 1868     		ldr	r0, [r3]	@ _12->FSMC_SetupTime, _12->FSMC_SetupTime
 1093 0086 FF28     		cmp	r0, #255	@ _12->FSMC_SetupTime,
 1094 0088 8CBF     		ite	hi
 1095 008a 0020     		movhi	r0, #0	@,
 1096 008c 0120     		movls	r0, #1	@,
 1097 008e FFF7FEFF 		bl	assert_param		@
 1098              	.LVL62:
 383:../Libraries/STM32F4xx_StdPeriph_Driver/src/stm32f4xx_fsmc.c ****   assert_param(IS_FSMC_WAIT_TIME(FSMC_NANDInitStruct->FSMC_CommonSpaceTimingStruct->FSMC_WaitSetupT
 1099              		.loc 1 383 3 is_stmt 1 view .LVU254
 1100              	@ ../Libraries/STM32F4xx_StdPeriph_Driver/src/stm32f4xx_fsmc.c:383:   assert_param(IS_FSMC_WAIT_TIM
 1101              		.loc 1 383 16 is_stmt 0 view .LVU255
 1102 0092 E369     		ldr	r3, [r4, #28]	@ FSMC_NANDInitStruct_85(D)->FSMC_CommonSpaceTimingStruct, FSMC_NANDInitStruct_8
 1103              	@ ../Libraries/STM32F4xx_StdPeriph_Driver/src/stm32f4xx_fsmc.c:383:   assert_param(IS_FSMC_WAIT_TIM
 1104              		.loc 1 383 3 view .LVU256
 1105 0094 5868     		ldr	r0, [r3, #4]	@ _16->FSMC_WaitSetupTime, _16->FSMC_WaitSetupTime
 1106 0096 FF28     		cmp	r0, #255	@ _16->FSMC_WaitSetupTime,
 1107 0098 8CBF     		ite	hi
ARM GAS  C:\Users\admin\AppData\Local\Temp\ccAkqsWz.s 			page 29


 1108 009a 0020     		movhi	r0, #0	@,
 1109 009c 0120     		movls	r0, #1	@,
 1110 009e FFF7FEFF 		bl	assert_param		@
 1111              	.LVL63:
 384:../Libraries/STM32F4xx_StdPeriph_Driver/src/stm32f4xx_fsmc.c ****   assert_param(IS_FSMC_HOLD_TIME(FSMC_NANDInitStruct->FSMC_CommonSpaceTimingStruct->FSMC_HoldSetupT
 1112              		.loc 1 384 3 is_stmt 1 view .LVU257
 1113              	@ ../Libraries/STM32F4xx_StdPeriph_Driver/src/stm32f4xx_fsmc.c:384:   assert_param(IS_FSMC_HOLD_TIM
 1114              		.loc 1 384 16 is_stmt 0 view .LVU258
 1115 00a2 E369     		ldr	r3, [r4, #28]	@ FSMC_NANDInitStruct_85(D)->FSMC_CommonSpaceTimingStruct, FSMC_NANDInitStruct_8
 1116              	@ ../Libraries/STM32F4xx_StdPeriph_Driver/src/stm32f4xx_fsmc.c:384:   assert_param(IS_FSMC_HOLD_TIM
 1117              		.loc 1 384 3 view .LVU259
 1118 00a4 9868     		ldr	r0, [r3, #8]	@ _20->FSMC_HoldSetupTime, _20->FSMC_HoldSetupTime
 1119 00a6 FF28     		cmp	r0, #255	@ _20->FSMC_HoldSetupTime,
 1120 00a8 8CBF     		ite	hi
 1121 00aa 0020     		movhi	r0, #0	@,
 1122 00ac 0120     		movls	r0, #1	@,
 1123 00ae FFF7FEFF 		bl	assert_param		@
 1124              	.LVL64:
 385:../Libraries/STM32F4xx_StdPeriph_Driver/src/stm32f4xx_fsmc.c ****   assert_param(IS_FSMC_HIZ_TIME(FSMC_NANDInitStruct->FSMC_CommonSpaceTimingStruct->FSMC_HiZSetupTim
 1125              		.loc 1 385 3 is_stmt 1 view .LVU260
 1126              	@ ../Libraries/STM32F4xx_StdPeriph_Driver/src/stm32f4xx_fsmc.c:385:   assert_param(IS_FSMC_HIZ_TIME
 1127              		.loc 1 385 16 is_stmt 0 view .LVU261
 1128 00b2 E369     		ldr	r3, [r4, #28]	@ FSMC_NANDInitStruct_85(D)->FSMC_CommonSpaceTimingStruct, FSMC_NANDInitStruct_8
 1129              	@ ../Libraries/STM32F4xx_StdPeriph_Driver/src/stm32f4xx_fsmc.c:385:   assert_param(IS_FSMC_HIZ_TIME
 1130              		.loc 1 385 3 view .LVU262
 1131 00b4 D868     		ldr	r0, [r3, #12]	@ _24->FSMC_HiZSetupTime, _24->FSMC_HiZSetupTime
 1132 00b6 FF28     		cmp	r0, #255	@ _24->FSMC_HiZSetupTime,
 1133 00b8 8CBF     		ite	hi
 1134 00ba 0020     		movhi	r0, #0	@,
 1135 00bc 0120     		movls	r0, #1	@,
 1136 00be FFF7FEFF 		bl	assert_param		@
 1137              	.LVL65:
 386:../Libraries/STM32F4xx_StdPeriph_Driver/src/stm32f4xx_fsmc.c ****   assert_param(IS_FSMC_SETUP_TIME(FSMC_NANDInitStruct->FSMC_AttributeSpaceTimingStruct->FSMC_SetupT
 1138              		.loc 1 386 3 is_stmt 1 view .LVU263
 1139              	@ ../Libraries/STM32F4xx_StdPeriph_Driver/src/stm32f4xx_fsmc.c:386:   assert_param(IS_FSMC_SETUP_TI
 1140              		.loc 1 386 16 is_stmt 0 view .LVU264
 1141 00c2 236A     		ldr	r3, [r4, #32]	@ FSMC_NANDInitStruct_85(D)->FSMC_AttributeSpaceTimingStruct, FSMC_NANDInitStruc
 1142              	@ ../Libraries/STM32F4xx_StdPeriph_Driver/src/stm32f4xx_fsmc.c:386:   assert_param(IS_FSMC_SETUP_TI
 1143              		.loc 1 386 3 view .LVU265
 1144 00c4 1868     		ldr	r0, [r3]	@ _28->FSMC_SetupTime, _28->FSMC_SetupTime
 1145 00c6 FF28     		cmp	r0, #255	@ _28->FSMC_SetupTime,
 1146 00c8 8CBF     		ite	hi
 1147 00ca 0020     		movhi	r0, #0	@,
 1148 00cc 0120     		movls	r0, #1	@,
 1149 00ce FFF7FEFF 		bl	assert_param		@
 1150              	.LVL66:
 387:../Libraries/STM32F4xx_StdPeriph_Driver/src/stm32f4xx_fsmc.c ****   assert_param(IS_FSMC_WAIT_TIME(FSMC_NANDInitStruct->FSMC_AttributeSpaceTimingStruct->FSMC_WaitSet
 1151              		.loc 1 387 3 is_stmt 1 view .LVU266
 1152              	@ ../Libraries/STM32F4xx_StdPeriph_Driver/src/stm32f4xx_fsmc.c:387:   assert_param(IS_FSMC_WAIT_TIM
 1153              		.loc 1 387 16 is_stmt 0 view .LVU267
 1154 00d2 236A     		ldr	r3, [r4, #32]	@ FSMC_NANDInitStruct_85(D)->FSMC_AttributeSpaceTimingStruct, FSMC_NANDInitStruc
 1155              	@ ../Libraries/STM32F4xx_StdPeriph_Driver/src/stm32f4xx_fsmc.c:387:   assert_param(IS_FSMC_WAIT_TIM
 1156              		.loc 1 387 3 view .LVU268
 1157 00d4 5868     		ldr	r0, [r3, #4]	@ _32->FSMC_WaitSetupTime, _32->FSMC_WaitSetupTime
 1158 00d6 FF28     		cmp	r0, #255	@ _32->FSMC_WaitSetupTime,
 1159 00d8 8CBF     		ite	hi
 1160 00da 0020     		movhi	r0, #0	@,
ARM GAS  C:\Users\admin\AppData\Local\Temp\ccAkqsWz.s 			page 30


 1161 00dc 0120     		movls	r0, #1	@,
 1162 00de FFF7FEFF 		bl	assert_param		@
 1163              	.LVL67:
 388:../Libraries/STM32F4xx_StdPeriph_Driver/src/stm32f4xx_fsmc.c ****   assert_param(IS_FSMC_HOLD_TIME(FSMC_NANDInitStruct->FSMC_AttributeSpaceTimingStruct->FSMC_HoldSet
 1164              		.loc 1 388 3 is_stmt 1 view .LVU269
 1165              	@ ../Libraries/STM32F4xx_StdPeriph_Driver/src/stm32f4xx_fsmc.c:388:   assert_param(IS_FSMC_HOLD_TIM
 1166              		.loc 1 388 16 is_stmt 0 view .LVU270
 1167 00e2 236A     		ldr	r3, [r4, #32]	@ FSMC_NANDInitStruct_85(D)->FSMC_AttributeSpaceTimingStruct, FSMC_NANDInitStruc
 1168              	@ ../Libraries/STM32F4xx_StdPeriph_Driver/src/stm32f4xx_fsmc.c:388:   assert_param(IS_FSMC_HOLD_TIM
 1169              		.loc 1 388 3 view .LVU271
 1170 00e4 9868     		ldr	r0, [r3, #8]	@ _36->FSMC_HoldSetupTime, _36->FSMC_HoldSetupTime
 1171 00e6 FF28     		cmp	r0, #255	@ _36->FSMC_HoldSetupTime,
 1172 00e8 8CBF     		ite	hi
 1173 00ea 0020     		movhi	r0, #0	@,
 1174 00ec 0120     		movls	r0, #1	@,
 1175 00ee FFF7FEFF 		bl	assert_param		@
 1176              	.LVL68:
 389:../Libraries/STM32F4xx_StdPeriph_Driver/src/stm32f4xx_fsmc.c ****   assert_param(IS_FSMC_HIZ_TIME(FSMC_NANDInitStruct->FSMC_AttributeSpaceTimingStruct->FSMC_HiZSetup
 1177              		.loc 1 389 3 is_stmt 1 view .LVU272
 1178              	@ ../Libraries/STM32F4xx_StdPeriph_Driver/src/stm32f4xx_fsmc.c:389:   assert_param(IS_FSMC_HIZ_TIME
 1179              		.loc 1 389 16 is_stmt 0 view .LVU273
 1180 00f2 236A     		ldr	r3, [r4, #32]	@ FSMC_NANDInitStruct_85(D)->FSMC_AttributeSpaceTimingStruct, FSMC_NANDInitStruc
 1181              	@ ../Libraries/STM32F4xx_StdPeriph_Driver/src/stm32f4xx_fsmc.c:389:   assert_param(IS_FSMC_HIZ_TIME
 1182              		.loc 1 389 3 view .LVU274
 1183 00f4 D868     		ldr	r0, [r3, #12]	@ _40->FSMC_HiZSetupTime, _40->FSMC_HiZSetupTime
 1184 00f6 FF28     		cmp	r0, #255	@ _40->FSMC_HiZSetupTime,
 1185 00f8 8CBF     		ite	hi
 1186 00fa 0020     		movhi	r0, #0	@,
 1187 00fc 0120     		movls	r0, #1	@,
 1188 00fe FFF7FEFF 		bl	assert_param		@
 1189              	.LVL69:
 390:../Libraries/STM32F4xx_StdPeriph_Driver/src/stm32f4xx_fsmc.c ****   
 391:../Libraries/STM32F4xx_StdPeriph_Driver/src/stm32f4xx_fsmc.c ****   /* Set the tmppcr value according to FSMC_NANDInitStruct parameters */
 392:../Libraries/STM32F4xx_StdPeriph_Driver/src/stm32f4xx_fsmc.c ****   tmppcr = (uint32_t)FSMC_NANDInitStruct->FSMC_Waitfeature |
 1190              		.loc 1 392 3 is_stmt 1 view .LVU275
 1191              	@ ../Libraries/STM32F4xx_StdPeriph_Driver/src/stm32f4xx_fsmc.c:393:             PCR_MEMORYTYPE_NAND
 393:../Libraries/STM32F4xx_StdPeriph_Driver/src/stm32f4xx_fsmc.c ****             PCR_MEMORYTYPE_NAND |
 1192              		.loc 1 393 33 is_stmt 0 view .LVU276
 1193 0102 D4E90132 		ldrd	r3, r2, [r4, #4]	@ FSMC_NANDInitStruct_85(D)->FSMC_Waitfeature, FSMC_NANDInitStruct_85(D)->FS
 1194 0106 1343     		orrs	r3, r3, r2	@, tmp264, FSMC_NANDInitStruct_85(D)->FSMC_Waitfeature, FSMC_NANDInitStruct_85(D)-
 1195              	@ ../Libraries/STM32F4xx_StdPeriph_Driver/src/stm32f4xx_fsmc.c:398:             (FSMC_NANDInitStruc
 394:../Libraries/STM32F4xx_StdPeriph_Driver/src/stm32f4xx_fsmc.c ****             FSMC_NANDInitStruct->FSMC_MemoryDataWidth |
 395:../Libraries/STM32F4xx_StdPeriph_Driver/src/stm32f4xx_fsmc.c ****             FSMC_NANDInitStruct->FSMC_ECC |
 396:../Libraries/STM32F4xx_StdPeriph_Driver/src/stm32f4xx_fsmc.c ****             FSMC_NANDInitStruct->FSMC_ECCPageSize |
 397:../Libraries/STM32F4xx_StdPeriph_Driver/src/stm32f4xx_fsmc.c ****             (FSMC_NANDInitStruct->FSMC_TCLRSetupTime << 9 )|
 398:../Libraries/STM32F4xx_StdPeriph_Driver/src/stm32f4xx_fsmc.c ****             (FSMC_NANDInitStruct->FSMC_TARSetupTime << 13);
 1196              		.loc 1 398 53 view .LVU277
 1197 0108 A269     		ldr	r2, [r4, #24]	@ FSMC_NANDInitStruct_85(D)->FSMC_TARSetupTime, FSMC_NANDInitStruct_85(D)->FSMC_
 1198              	@ ../Libraries/STM32F4xx_StdPeriph_Driver/src/stm32f4xx_fsmc.c:397:             (FSMC_NANDInitStruc
 397:../Libraries/STM32F4xx_StdPeriph_Driver/src/stm32f4xx_fsmc.c ****             (FSMC_NANDInitStruct->FSMC_TARSetupTime << 13);
 1199              		.loc 1 397 60 view .LVU278
 1200 010a 43EA4233 		orr	r3, r3, r2, lsl #13	@ tmp269, tmp264, FSMC_NANDInitStruct_85(D)->FSMC_TARSetupTime,
 1201 010e E268     		ldr	r2, [r4, #12]	@ FSMC_NANDInitStruct_85(D)->FSMC_ECC, FSMC_NANDInitStruct_85(D)->FSMC_ECC
 1202 0110 1343     		orrs	r3, r3, r2	@, tmp270, tmp269, FSMC_NANDInitStruct_85(D)->FSMC_ECC
 1203 0112 2269     		ldr	r2, [r4, #16]	@ FSMC_NANDInitStruct_85(D)->FSMC_ECCPageSize, FSMC_NANDInitStruct_85(D)->FSMC_E
 1204              	@ ../Libraries/STM32F4xx_StdPeriph_Driver/src/stm32f4xx_fsmc.c:407:   tmppatt = (uint32_t)FSMC_NAND
 399:../Libraries/STM32F4xx_StdPeriph_Driver/src/stm32f4xx_fsmc.c ****             
ARM GAS  C:\Users\admin\AppData\Local\Temp\ccAkqsWz.s 			page 31


 400:../Libraries/STM32F4xx_StdPeriph_Driver/src/stm32f4xx_fsmc.c ****   /* Set tmppmem value according to FSMC_CommonSpaceTimingStructure parameters */
 401:../Libraries/STM32F4xx_StdPeriph_Driver/src/stm32f4xx_fsmc.c ****   tmppmem = (uint32_t)FSMC_NANDInitStruct->FSMC_CommonSpaceTimingStruct->FSMC_SetupTime |
 402:../Libraries/STM32F4xx_StdPeriph_Driver/src/stm32f4xx_fsmc.c ****             (FSMC_NANDInitStruct->FSMC_CommonSpaceTimingStruct->FSMC_WaitSetupTime << 8) |
 403:../Libraries/STM32F4xx_StdPeriph_Driver/src/stm32f4xx_fsmc.c ****             (FSMC_NANDInitStruct->FSMC_CommonSpaceTimingStruct->FSMC_HoldSetupTime << 16)|
 404:../Libraries/STM32F4xx_StdPeriph_Driver/src/stm32f4xx_fsmc.c ****             (FSMC_NANDInitStruct->FSMC_CommonSpaceTimingStruct->FSMC_HiZSetupTime << 24); 
 405:../Libraries/STM32F4xx_StdPeriph_Driver/src/stm32f4xx_fsmc.c ****             
 406:../Libraries/STM32F4xx_StdPeriph_Driver/src/stm32f4xx_fsmc.c ****   /* Set tmppatt value according to FSMC_AttributeSpaceTimingStructure parameters */
 407:../Libraries/STM32F4xx_StdPeriph_Driver/src/stm32f4xx_fsmc.c ****   tmppatt = (uint32_t)FSMC_NANDInitStruct->FSMC_AttributeSpaceTimingStruct->FSMC_SetupTime |
 1205              		.loc 1 407 42 view .LVU279
 1206 0114 D4E90751 		ldrd	r5, r1, [r4, #28]	@ _57, _67, FSMC_NANDInitStruct,
 1207              	@ ../Libraries/STM32F4xx_StdPeriph_Driver/src/stm32f4xx_fsmc.c:397:             (FSMC_NANDInitStruc
 397:../Libraries/STM32F4xx_StdPeriph_Driver/src/stm32f4xx_fsmc.c ****             (FSMC_NANDInitStruct->FSMC_TARSetupTime << 13);
 1208              		.loc 1 397 60 view .LVU280
 1209 0118 1343     		orrs	r3, r3, r2	@, tmp272, tmp270, FSMC_NANDInitStruct_85(D)->FSMC_ECCPageSize
 1210              	@ ../Libraries/STM32F4xx_StdPeriph_Driver/src/stm32f4xx_fsmc.c:397:             (FSMC_NANDInitStruc
 397:../Libraries/STM32F4xx_StdPeriph_Driver/src/stm32f4xx_fsmc.c ****             (FSMC_NANDInitStruct->FSMC_TARSetupTime << 13);
 1211              		.loc 1 397 54 view .LVU281
 1212 011a 6269     		ldr	r2, [r4, #20]	@ FSMC_NANDInitStruct_85(D)->FSMC_TCLRSetupTime, FSMC_NANDInitStruct_85(D)->FSMC
 1213              	@ ../Libraries/STM32F4xx_StdPeriph_Driver/src/stm32f4xx_fsmc.c:408:             (FSMC_NANDInitStruc
 408:../Libraries/STM32F4xx_StdPeriph_Driver/src/stm32f4xx_fsmc.c ****             (FSMC_NANDInitStruct->FSMC_AttributeSpaceTimingStruct->FSMC_WaitSetupTime << 8) |
 1214              		.loc 1 408 93 view .LVU282
 1215 011c 4E68     		ldr	r6, [r1, #4]	@ tmp309, _67->FSMC_WaitSetupTime
 1216              	@ ../Libraries/STM32F4xx_StdPeriph_Driver/src/stm32f4xx_fsmc.c:412:   if(FSMC_NANDInitStruct->FSMC_
 409:../Libraries/STM32F4xx_StdPeriph_Driver/src/stm32f4xx_fsmc.c ****             (FSMC_NANDInitStruct->FSMC_AttributeSpaceTimingStruct->FSMC_HoldSetupTime << 16)|
 410:../Libraries/STM32F4xx_StdPeriph_Driver/src/stm32f4xx_fsmc.c ****             (FSMC_NANDInitStruct->FSMC_AttributeSpaceTimingStruct->FSMC_HiZSetupTime << 24);
 411:../Libraries/STM32F4xx_StdPeriph_Driver/src/stm32f4xx_fsmc.c ****   
 412:../Libraries/STM32F4xx_StdPeriph_Driver/src/stm32f4xx_fsmc.c ****   if(FSMC_NANDInitStruct->FSMC_Bank == FSMC_Bank2_NAND)
 1217              		.loc 1 412 5 view .LVU283
 1218 011e 2468     		ldr	r4, [r4]	@ FSMC_NANDInitStruct_85(D)->FSMC_Bank, FSMC_NANDInitStruct_85(D)->FSMC_Bank
 1219              	.LVL70:
 1220              	@ ../Libraries/STM32F4xx_StdPeriph_Driver/src/stm32f4xx_fsmc.c:397:             (FSMC_NANDInitStruc
 397:../Libraries/STM32F4xx_StdPeriph_Driver/src/stm32f4xx_fsmc.c ****             (FSMC_NANDInitStruct->FSMC_TARSetupTime << 13);
 1221              		.loc 1 397 60 view .LVU284
 1222 0120 43EA4223 		orr	r3, r3, r2, lsl #9	@ tmp276, tmp272, FSMC_NANDInitStruct_85(D)->FSMC_TCLRSetupTime,
 1223              	@ ../Libraries/STM32F4xx_StdPeriph_Driver/src/stm32f4xx_fsmc.c:403:             (FSMC_NANDInitStruc
 403:../Libraries/STM32F4xx_StdPeriph_Driver/src/stm32f4xx_fsmc.c ****             (FSMC_NANDInitStruct->FSMC_CommonSpaceTimingStruct->FSMC_HiZSetupTime << 24); 
 1224              		.loc 1 403 84 view .LVU285
 1225 0124 AA68     		ldr	r2, [r5, #8]	@ _57->FSMC_HoldSetupTime, _57->FSMC_HoldSetupTime
 1226 0126 1004     		lsls	r0, r2, #16	@ tmp279, _57->FSMC_HoldSetupTime,
 1227              	@ ../Libraries/STM32F4xx_StdPeriph_Driver/src/stm32f4xx_fsmc.c:402:             (FSMC_NANDInitStruc
 402:../Libraries/STM32F4xx_StdPeriph_Driver/src/stm32f4xx_fsmc.c ****             (FSMC_NANDInitStruct->FSMC_CommonSpaceTimingStruct->FSMC_HoldSetupTime << 16)|
 1228              		.loc 1 402 90 view .LVU286
 1229 0128 6A68     		ldr	r2, [r5, #4]	@ tmp308, _57->FSMC_WaitSetupTime
 1230 012a 40EA0220 		orr	r0, r0, r2, lsl #8	@ tmp281, tmp279, tmp308,
 1231              	@ ../Libraries/STM32F4xx_StdPeriph_Driver/src/stm32f4xx_fsmc.c:409:             (FSMC_NANDInitStruc
 409:../Libraries/STM32F4xx_StdPeriph_Driver/src/stm32f4xx_fsmc.c ****             (FSMC_NANDInitStruct->FSMC_AttributeSpaceTimingStruct->FSMC_HiZSetupTime << 24);
 1232              		.loc 1 409 87 view .LVU287
 1233 012e 8A68     		ldr	r2, [r1, #8]	@ _67->FSMC_HoldSetupTime, _67->FSMC_HoldSetupTime
 1234 0130 1204     		lsls	r2, r2, #16	@ tmp288, _67->FSMC_HoldSetupTime,
 1235              	@ ../Libraries/STM32F4xx_StdPeriph_Driver/src/stm32f4xx_fsmc.c:408:             (FSMC_NANDInitStruc
 408:../Libraries/STM32F4xx_StdPeriph_Driver/src/stm32f4xx_fsmc.c ****             (FSMC_NANDInitStruct->FSMC_AttributeSpaceTimingStruct->FSMC_HoldSetupTime << 16)|
 1236              		.loc 1 408 93 view .LVU288
 1237 0132 42EA0622 		orr	r2, r2, r6, lsl #8	@ tmp290, tmp288, tmp309,
 1238              	@ ../Libraries/STM32F4xx_StdPeriph_Driver/src/stm32f4xx_fsmc.c:402:             (FSMC_NANDInitStruc
 402:../Libraries/STM32F4xx_StdPeriph_Driver/src/stm32f4xx_fsmc.c ****             (FSMC_NANDInitStruct->FSMC_CommonSpaceTimingStruct->FSMC_HoldSetupTime << 16)|
 1239              		.loc 1 402 90 view .LVU289
 1240 0136 2E68     		ldr	r6, [r5]	@ tmp310, _57->FSMC_SetupTime
ARM GAS  C:\Users\admin\AppData\Local\Temp\ccAkqsWz.s 			page 32


 1241              	@ ../Libraries/STM32F4xx_StdPeriph_Driver/src/stm32f4xx_fsmc.c:404:             (FSMC_NANDInitStruc
 404:../Libraries/STM32F4xx_StdPeriph_Driver/src/stm32f4xx_fsmc.c ****             
 1242              		.loc 1 404 83 view .LVU290
 1243 0138 ED68     		ldr	r5, [r5, #12]	@ _57->FSMC_HiZSetupTime, _57->FSMC_HiZSetupTime
 1244              	@ ../Libraries/STM32F4xx_StdPeriph_Driver/src/stm32f4xx_fsmc.c:402:             (FSMC_NANDInitStruc
 402:../Libraries/STM32F4xx_StdPeriph_Driver/src/stm32f4xx_fsmc.c ****             (FSMC_NANDInitStruct->FSMC_CommonSpaceTimingStruct->FSMC_HoldSetupTime << 16)|
 1245              		.loc 1 402 90 view .LVU291
 1246 013a 3043     		orrs	r0, r0, r6	@, tmp282, tmp281, tmp310
 1247              	@ ../Libraries/STM32F4xx_StdPeriph_Driver/src/stm32f4xx_fsmc.c:401:   tmppmem = (uint32_t)FSMC_NAND
 401:../Libraries/STM32F4xx_StdPeriph_Driver/src/stm32f4xx_fsmc.c ****             (FSMC_NANDInitStruct->FSMC_CommonSpaceTimingStruct->FSMC_WaitSetupTime << 8) |
 1248              		.loc 1 401 11 view .LVU292
 1249 013c 40EA0560 		orr	r0, r0, r5, lsl #24	@ tmppmem, tmp282, _57->FSMC_HiZSetupTime,
 1250              	@ ../Libraries/STM32F4xx_StdPeriph_Driver/src/stm32f4xx_fsmc.c:408:             (FSMC_NANDInitStruc
 408:../Libraries/STM32F4xx_StdPeriph_Driver/src/stm32f4xx_fsmc.c ****             (FSMC_NANDInitStruct->FSMC_AttributeSpaceTimingStruct->FSMC_HoldSetupTime << 16)|
 1251              		.loc 1 408 93 view .LVU293
 1252 0140 0D68     		ldr	r5, [r1]	@ _67->FSMC_SetupTime, _67->FSMC_SetupTime
 1253              	@ ../Libraries/STM32F4xx_StdPeriph_Driver/src/stm32f4xx_fsmc.c:410:             (FSMC_NANDInitStruc
 410:../Libraries/STM32F4xx_StdPeriph_Driver/src/stm32f4xx_fsmc.c ****   
 1254              		.loc 1 410 86 view .LVU294
 1255 0142 C968     		ldr	r1, [r1, #12]	@ _67->FSMC_HiZSetupTime, _67->FSMC_HiZSetupTime
 1256              	@ ../Libraries/STM32F4xx_StdPeriph_Driver/src/stm32f4xx_fsmc.c:408:             (FSMC_NANDInitStruc
 408:../Libraries/STM32F4xx_StdPeriph_Driver/src/stm32f4xx_fsmc.c ****             (FSMC_NANDInitStruct->FSMC_AttributeSpaceTimingStruct->FSMC_HoldSetupTime << 16)|
 1257              		.loc 1 408 93 view .LVU295
 1258 0144 2A43     		orrs	r2, r2, r5	@, tmp291, tmp290, _67->FSMC_SetupTime
 1259              	@ ../Libraries/STM32F4xx_StdPeriph_Driver/src/stm32f4xx_fsmc.c:412:   if(FSMC_NANDInitStruct->FSMC_
 1260              		.loc 1 412 5 view .LVU296
 1261 0146 102C     		cmp	r4, #16	@ FSMC_NANDInitStruct_85(D)->FSMC_Bank,
 1262              	@ ../Libraries/STM32F4xx_StdPeriph_Driver/src/stm32f4xx_fsmc.c:407:   tmppatt = (uint32_t)FSMC_NAND
 407:../Libraries/STM32F4xx_StdPeriph_Driver/src/stm32f4xx_fsmc.c ****             (FSMC_NANDInitStruct->FSMC_AttributeSpaceTimingStruct->FSMC_WaitSetupTime << 8) |
 1263              		.loc 1 407 11 view .LVU297
 1264 0148 42EA0162 		orr	r2, r2, r1, lsl #24	@ tmppatt, tmp291, _67->FSMC_HiZSetupTime,
 1265              	@ ../Libraries/STM32F4xx_StdPeriph_Driver/src/stm32f4xx_fsmc.c:392:   tmppcr = (uint32_t)FSMC_NANDI
 392:../Libraries/STM32F4xx_StdPeriph_Driver/src/stm32f4xx_fsmc.c ****             PCR_MEMORYTYPE_NAND |
 1266              		.loc 1 392 10 view .LVU298
 1267 014c 43F00803 		orr	r3, r3, #8	@ tmppcr, tmp276,
 1268              	.LVL71:
 401:../Libraries/STM32F4xx_StdPeriph_Driver/src/stm32f4xx_fsmc.c ****             (FSMC_NANDInitStruct->FSMC_CommonSpaceTimingStruct->FSMC_WaitSetupTime << 8) |
 1269              		.loc 1 401 3 is_stmt 1 view .LVU299
 407:../Libraries/STM32F4xx_StdPeriph_Driver/src/stm32f4xx_fsmc.c ****             (FSMC_NANDInitStruct->FSMC_AttributeSpaceTimingStruct->FSMC_WaitSetupTime << 8) |
 1270              		.loc 1 407 3 view .LVU300
 1271              		.loc 1 412 3 view .LVU301
 1272              	@ ../Libraries/STM32F4xx_StdPeriph_Driver/src/stm32f4xx_fsmc.c:415:     FSMC_Bank2->PCR2 = tmppcr;
 413:../Libraries/STM32F4xx_StdPeriph_Driver/src/stm32f4xx_fsmc.c ****   {
 414:../Libraries/STM32F4xx_StdPeriph_Driver/src/stm32f4xx_fsmc.c ****     /* FSMC_Bank2_NAND registers configuration */
 415:../Libraries/STM32F4xx_StdPeriph_Driver/src/stm32f4xx_fsmc.c ****     FSMC_Bank2->PCR2 = tmppcr;
 1273              		.loc 1 415 22 is_stmt 0 view .LVU302
 1274 0150 4FF02041 		mov	r1, #-1610612736	@ tmp296,
 1275              	@ ../Libraries/STM32F4xx_StdPeriph_Driver/src/stm32f4xx_fsmc.c:412:   if(FSMC_NANDInitStruct->FSMC_
 412:../Libraries/STM32F4xx_StdPeriph_Driver/src/stm32f4xx_fsmc.c ****   {
 1276              		.loc 1 412 5 view .LVU303
 1277 0154 06D0     		beq	.L37		@,
 416:../Libraries/STM32F4xx_StdPeriph_Driver/src/stm32f4xx_fsmc.c ****     FSMC_Bank2->PMEM2 = tmppmem;
 417:../Libraries/STM32F4xx_StdPeriph_Driver/src/stm32f4xx_fsmc.c ****     FSMC_Bank2->PATT2 = tmppatt;
 418:../Libraries/STM32F4xx_StdPeriph_Driver/src/stm32f4xx_fsmc.c ****   }
 419:../Libraries/STM32F4xx_StdPeriph_Driver/src/stm32f4xx_fsmc.c ****   else
 420:../Libraries/STM32F4xx_StdPeriph_Driver/src/stm32f4xx_fsmc.c ****   {
 421:../Libraries/STM32F4xx_StdPeriph_Driver/src/stm32f4xx_fsmc.c ****     /* FSMC_Bank3_NAND registers configuration */
ARM GAS  C:\Users\admin\AppData\Local\Temp\ccAkqsWz.s 			page 33


 422:../Libraries/STM32F4xx_StdPeriph_Driver/src/stm32f4xx_fsmc.c ****     FSMC_Bank3->PCR3 = tmppcr;
 1278              		.loc 1 422 5 is_stmt 1 view .LVU304
 1279              	@ ../Libraries/STM32F4xx_StdPeriph_Driver/src/stm32f4xx_fsmc.c:422:     FSMC_Bank3->PCR3 = tmppcr;
 1280              		.loc 1 422 22 is_stmt 0 view .LVU305
 1281 0156 C1F88030 		str	r3, [r1, #128]	@ tmppcr, MEM[(struct FSMC_Bank3_TypeDef *)2684354688B].PCR3
 423:../Libraries/STM32F4xx_StdPeriph_Driver/src/stm32f4xx_fsmc.c ****     FSMC_Bank3->PMEM3 = tmppmem;
 1282              		.loc 1 423 5 is_stmt 1 view .LVU306
 1283              	@ ../Libraries/STM32F4xx_StdPeriph_Driver/src/stm32f4xx_fsmc.c:423:     FSMC_Bank3->PMEM3 = tmppmem
 1284              		.loc 1 423 23 is_stmt 0 view .LVU307
 1285 015a C1F88800 		str	r0, [r1, #136]	@ tmppmem, MEM[(struct FSMC_Bank3_TypeDef *)2684354688B].PMEM3
 424:../Libraries/STM32F4xx_StdPeriph_Driver/src/stm32f4xx_fsmc.c ****     FSMC_Bank3->PATT3 = tmppatt;
 1286              		.loc 1 424 5 is_stmt 1 view .LVU308
 1287              	@ ../Libraries/STM32F4xx_StdPeriph_Driver/src/stm32f4xx_fsmc.c:424:     FSMC_Bank3->PATT3 = tmppatt
 1288              		.loc 1 424 23 is_stmt 0 view .LVU309
 1289 015e C1F88C20 		str	r2, [r1, #140]	@ tmppatt, MEM[(struct FSMC_Bank3_TypeDef *)2684354688B].PATT3
 1290              	@ ../Libraries/STM32F4xx_StdPeriph_Driver/src/stm32f4xx_fsmc.c:426: }
 425:../Libraries/STM32F4xx_StdPeriph_Driver/src/stm32f4xx_fsmc.c ****   }
 426:../Libraries/STM32F4xx_StdPeriph_Driver/src/stm32f4xx_fsmc.c **** }
 1291              		.loc 1 426 1 view .LVU310
 1292 0162 70BD     		pop	{r4, r5, r6, pc}	@
 1293              	.L37:
 415:../Libraries/STM32F4xx_StdPeriph_Driver/src/stm32f4xx_fsmc.c ****     FSMC_Bank2->PMEM2 = tmppmem;
 1294              		.loc 1 415 5 is_stmt 1 view .LVU311
 1295              	@ ../Libraries/STM32F4xx_StdPeriph_Driver/src/stm32f4xx_fsmc.c:415:     FSMC_Bank2->PCR2 = tmppcr;
 415:../Libraries/STM32F4xx_StdPeriph_Driver/src/stm32f4xx_fsmc.c ****     FSMC_Bank2->PMEM2 = tmppmem;
 1296              		.loc 1 415 22 is_stmt 0 view .LVU312
 1297 0164 0B66     		str	r3, [r1, #96]	@ tmppcr, MEM[(struct FSMC_Bank2_TypeDef *)2684354656B].PCR2
 416:../Libraries/STM32F4xx_StdPeriph_Driver/src/stm32f4xx_fsmc.c ****     FSMC_Bank2->PATT2 = tmppatt;
 1298              		.loc 1 416 5 is_stmt 1 view .LVU313
 1299              	@ ../Libraries/STM32F4xx_StdPeriph_Driver/src/stm32f4xx_fsmc.c:416:     FSMC_Bank2->PMEM2 = tmppmem
 416:../Libraries/STM32F4xx_StdPeriph_Driver/src/stm32f4xx_fsmc.c ****     FSMC_Bank2->PATT2 = tmppatt;
 1300              		.loc 1 416 23 is_stmt 0 view .LVU314
 1301 0166 8866     		str	r0, [r1, #104]	@ tmppmem, MEM[(struct FSMC_Bank2_TypeDef *)2684354656B].PMEM2
 417:../Libraries/STM32F4xx_StdPeriph_Driver/src/stm32f4xx_fsmc.c ****   }
 1302              		.loc 1 417 5 is_stmt 1 view .LVU315
 1303              	@ ../Libraries/STM32F4xx_StdPeriph_Driver/src/stm32f4xx_fsmc.c:417:     FSMC_Bank2->PATT2 = tmppatt
 417:../Libraries/STM32F4xx_StdPeriph_Driver/src/stm32f4xx_fsmc.c ****   }
 1304              		.loc 1 417 23 is_stmt 0 view .LVU316
 1305 0168 CA66     		str	r2, [r1, #108]	@ tmppatt, MEM[(struct FSMC_Bank2_TypeDef *)2684354656B].PATT2
 1306              	@ ../Libraries/STM32F4xx_StdPeriph_Driver/src/stm32f4xx_fsmc.c:426: }
 1307              		.loc 1 426 1 view .LVU317
 1308 016a 70BD     		pop	{r4, r5, r6, pc}	@
 1309              		.cfi_endproc
 1310              	.LFE115:
 1311              		.size	FSMC_NANDInit, .-FSMC_NANDInit
 1312              		.section	.text.FSMC_NANDStructInit,"ax",%progbits
 1313              		.align	1
 1314              		.p2align 2,,3
 1315              		.global	FSMC_NANDStructInit
 1316              		.syntax unified
 1317              		.thumb
 1318              		.thumb_func
 1319              		.type	FSMC_NANDStructInit, %function
 1320              	FSMC_NANDStructInit:
 1321              	.LVL72:
 1322              	.LFB116:
 427:../Libraries/STM32F4xx_StdPeriph_Driver/src/stm32f4xx_fsmc.c **** 
ARM GAS  C:\Users\admin\AppData\Local\Temp\ccAkqsWz.s 			page 34


 428:../Libraries/STM32F4xx_StdPeriph_Driver/src/stm32f4xx_fsmc.c **** 
 429:../Libraries/STM32F4xx_StdPeriph_Driver/src/stm32f4xx_fsmc.c **** /**
 430:../Libraries/STM32F4xx_StdPeriph_Driver/src/stm32f4xx_fsmc.c ****   * @brief  Fills each FSMC_NANDInitStruct member with its default value.
 431:../Libraries/STM32F4xx_StdPeriph_Driver/src/stm32f4xx_fsmc.c ****   * @param  FSMC_NANDInitStruct: pointer to a FSMC_NANDInitTypeDef structure which
 432:../Libraries/STM32F4xx_StdPeriph_Driver/src/stm32f4xx_fsmc.c ****   *         will be initialized.
 433:../Libraries/STM32F4xx_StdPeriph_Driver/src/stm32f4xx_fsmc.c ****   * @retval None
 434:../Libraries/STM32F4xx_StdPeriph_Driver/src/stm32f4xx_fsmc.c ****   */
 435:../Libraries/STM32F4xx_StdPeriph_Driver/src/stm32f4xx_fsmc.c **** void FSMC_NANDStructInit(FSMC_NANDInitTypeDef* FSMC_NANDInitStruct)
 436:../Libraries/STM32F4xx_StdPeriph_Driver/src/stm32f4xx_fsmc.c **** { 
 1323              		.loc 1 436 1 is_stmt 1 view -0
 1324              		.cfi_startproc
 1325              		@ args = 0, pretend = 0, frame = 0
 1326              		@ frame_needed = 0, uses_anonymous_args = 0
 1327              		@ link register save eliminated.
 437:../Libraries/STM32F4xx_StdPeriph_Driver/src/stm32f4xx_fsmc.c ****   /* Reset NAND Init structure parameters values */
 438:../Libraries/STM32F4xx_StdPeriph_Driver/src/stm32f4xx_fsmc.c ****   FSMC_NANDInitStruct->FSMC_Bank = FSMC_Bank2_NAND;
 1328              		.loc 1 438 3 view .LVU319
 1329              	@ ../Libraries/STM32F4xx_StdPeriph_Driver/src/stm32f4xx_fsmc.c:436: { 
 436:../Libraries/STM32F4xx_StdPeriph_Driver/src/stm32f4xx_fsmc.c ****   /* Reset NAND Init structure parameters values */
 1330              		.loc 1 436 1 is_stmt 0 view .LVU320
 1331 0000 30B4     		push	{r4, r5}	@
 1332              		.cfi_def_cfa_offset 8
 1333              		.cfi_offset 4, -8
 1334              		.cfi_offset 5, -4
 1335              	@ ../Libraries/STM32F4xx_StdPeriph_Driver/src/stm32f4xx_fsmc.c:449:   FSMC_NANDInitStruct->FSMC_Att
 439:../Libraries/STM32F4xx_StdPeriph_Driver/src/stm32f4xx_fsmc.c ****   FSMC_NANDInitStruct->FSMC_Waitfeature = FSMC_Waitfeature_Disable;
 440:../Libraries/STM32F4xx_StdPeriph_Driver/src/stm32f4xx_fsmc.c ****   FSMC_NANDInitStruct->FSMC_MemoryDataWidth = FSMC_MemoryDataWidth_8b;
 441:../Libraries/STM32F4xx_StdPeriph_Driver/src/stm32f4xx_fsmc.c ****   FSMC_NANDInitStruct->FSMC_ECC = FSMC_ECC_Disable;
 442:../Libraries/STM32F4xx_StdPeriph_Driver/src/stm32f4xx_fsmc.c ****   FSMC_NANDInitStruct->FSMC_ECCPageSize = FSMC_ECCPageSize_256Bytes;
 443:../Libraries/STM32F4xx_StdPeriph_Driver/src/stm32f4xx_fsmc.c ****   FSMC_NANDInitStruct->FSMC_TCLRSetupTime = 0x0;
 444:../Libraries/STM32F4xx_StdPeriph_Driver/src/stm32f4xx_fsmc.c ****   FSMC_NANDInitStruct->FSMC_TARSetupTime = 0x0;
 445:../Libraries/STM32F4xx_StdPeriph_Driver/src/stm32f4xx_fsmc.c ****   FSMC_NANDInitStruct->FSMC_CommonSpaceTimingStruct->FSMC_SetupTime = 0xFC;
 446:../Libraries/STM32F4xx_StdPeriph_Driver/src/stm32f4xx_fsmc.c ****   FSMC_NANDInitStruct->FSMC_CommonSpaceTimingStruct->FSMC_WaitSetupTime = 0xFC;
 447:../Libraries/STM32F4xx_StdPeriph_Driver/src/stm32f4xx_fsmc.c ****   FSMC_NANDInitStruct->FSMC_CommonSpaceTimingStruct->FSMC_HoldSetupTime = 0xFC;
 448:../Libraries/STM32F4xx_StdPeriph_Driver/src/stm32f4xx_fsmc.c ****   FSMC_NANDInitStruct->FSMC_CommonSpaceTimingStruct->FSMC_HiZSetupTime = 0xFC;
 449:../Libraries/STM32F4xx_StdPeriph_Driver/src/stm32f4xx_fsmc.c ****   FSMC_NANDInitStruct->FSMC_AttributeSpaceTimingStruct->FSMC_SetupTime = 0xFC;
 1336              		.loc 1 449 22 view .LVU321
 1337 0002 D0E90741 		ldrd	r4, r1, [r0, #28]	@ _1, _2, FSMC_NANDInitStruct,
 1338              	@ ../Libraries/STM32F4xx_StdPeriph_Driver/src/stm32f4xx_fsmc.c:445:   FSMC_NANDInitStruct->FSMC_Com
 445:../Libraries/STM32F4xx_StdPeriph_Driver/src/stm32f4xx_fsmc.c ****   FSMC_NANDInitStruct->FSMC_CommonSpaceTimingStruct->FSMC_WaitSetupTime = 0xFC;
 1339              		.loc 1 445 69 view .LVU322
 1340 0006 FC23     		movs	r3, #252	@ tmp123,
 1341              	@ ../Libraries/STM32F4xx_StdPeriph_Driver/src/stm32f4xx_fsmc.c:439:   FSMC_NANDInitStruct->FSMC_Wai
 439:../Libraries/STM32F4xx_StdPeriph_Driver/src/stm32f4xx_fsmc.c ****   FSMC_NANDInitStruct->FSMC_Waitfeature = FSMC_Waitfeature_Disable;
 1342              		.loc 1 439 41 view .LVU323
 1343 0008 0022     		movs	r2, #0	@ tmp117,
 1344              	@ ../Libraries/STM32F4xx_StdPeriph_Driver/src/stm32f4xx_fsmc.c:438:   FSMC_NANDInitStruct->FSMC_Ban
 438:../Libraries/STM32F4xx_StdPeriph_Driver/src/stm32f4xx_fsmc.c ****   FSMC_NANDInitStruct->FSMC_Waitfeature = FSMC_Waitfeature_Disable;
 1345              		.loc 1 438 34 view .LVU324
 1346 000a 1025     		movs	r5, #16	@ tmp116,
 1347              	@ ../Libraries/STM32F4xx_StdPeriph_Driver/src/stm32f4xx_fsmc.c:439:   FSMC_NANDInitStruct->FSMC_Wai
 439:../Libraries/STM32F4xx_StdPeriph_Driver/src/stm32f4xx_fsmc.c ****   FSMC_NANDInitStruct->FSMC_Waitfeature = FSMC_Waitfeature_Disable;
 1348              		.loc 1 439 41 view .LVU325
 1349 000c C0E90052 		strd	r5, r2, [r0]	@ tmp116, tmp117, FSMC_NANDInitStruct
 440:../Libraries/STM32F4xx_StdPeriph_Driver/src/stm32f4xx_fsmc.c ****   FSMC_NANDInitStruct->FSMC_ECC = FSMC_ECC_Disable;
 1350              		.loc 1 440 3 is_stmt 1 view .LVU326
 1351              	@ ../Libraries/STM32F4xx_StdPeriph_Driver/src/stm32f4xx_fsmc.c:441:   FSMC_NANDInitStruct->FSMC_ECC
ARM GAS  C:\Users\admin\AppData\Local\Temp\ccAkqsWz.s 			page 35


 441:../Libraries/STM32F4xx_StdPeriph_Driver/src/stm32f4xx_fsmc.c ****   FSMC_NANDInitStruct->FSMC_ECCPageSize = FSMC_ECCPageSize_256Bytes;
 1352              		.loc 1 441 33 is_stmt 0 view .LVU327
 1353 0010 C0E90222 		strd	r2, r2, [r0, #8]	@ tmp117, tmp117, FSMC_NANDInitStruct,
 442:../Libraries/STM32F4xx_StdPeriph_Driver/src/stm32f4xx_fsmc.c ****   FSMC_NANDInitStruct->FSMC_TCLRSetupTime = 0x0;
 1354              		.loc 1 442 3 is_stmt 1 view .LVU328
 1355              	@ ../Libraries/STM32F4xx_StdPeriph_Driver/src/stm32f4xx_fsmc.c:443:   FSMC_NANDInitStruct->FSMC_TCL
 443:../Libraries/STM32F4xx_StdPeriph_Driver/src/stm32f4xx_fsmc.c ****   FSMC_NANDInitStruct->FSMC_TARSetupTime = 0x0;
 1356              		.loc 1 443 43 is_stmt 0 view .LVU329
 1357 0014 C0E90422 		strd	r2, r2, [r0, #16]	@ tmp117, tmp117, FSMC_NANDInitStruct,
 444:../Libraries/STM32F4xx_StdPeriph_Driver/src/stm32f4xx_fsmc.c ****   FSMC_NANDInitStruct->FSMC_CommonSpaceTimingStruct->FSMC_SetupTime = 0xFC;
 1358              		.loc 1 444 3 is_stmt 1 view .LVU330
 1359              	@ ../Libraries/STM32F4xx_StdPeriph_Driver/src/stm32f4xx_fsmc.c:444:   FSMC_NANDInitStruct->FSMC_TAR
 444:../Libraries/STM32F4xx_StdPeriph_Driver/src/stm32f4xx_fsmc.c ****   FSMC_NANDInitStruct->FSMC_CommonSpaceTimingStruct->FSMC_SetupTime = 0xFC;
 1360              		.loc 1 444 42 is_stmt 0 view .LVU331
 1361 0018 8261     		str	r2, [r0, #24]	@ tmp117, FSMC_NANDInitStruct_4(D)->FSMC_TARSetupTime
 445:../Libraries/STM32F4xx_StdPeriph_Driver/src/stm32f4xx_fsmc.c ****   FSMC_NANDInitStruct->FSMC_CommonSpaceTimingStruct->FSMC_WaitSetupTime = 0xFC;
 1362              		.loc 1 445 3 is_stmt 1 view .LVU332
 1363              	@ ../Libraries/STM32F4xx_StdPeriph_Driver/src/stm32f4xx_fsmc.c:446:   FSMC_NANDInitStruct->FSMC_Com
 446:../Libraries/STM32F4xx_StdPeriph_Driver/src/stm32f4xx_fsmc.c ****   FSMC_NANDInitStruct->FSMC_CommonSpaceTimingStruct->FSMC_HoldSetupTime = 0xFC;
 1364              		.loc 1 446 73 is_stmt 0 view .LVU333
 1365 001a C4E90033 		strd	r3, r3, [r4]	@ tmp123, tmp123, _1
 447:../Libraries/STM32F4xx_StdPeriph_Driver/src/stm32f4xx_fsmc.c ****   FSMC_NANDInitStruct->FSMC_CommonSpaceTimingStruct->FSMC_HiZSetupTime = 0xFC;
 1366              		.loc 1 447 3 is_stmt 1 view .LVU334
 1367              	@ ../Libraries/STM32F4xx_StdPeriph_Driver/src/stm32f4xx_fsmc.c:448:   FSMC_NANDInitStruct->FSMC_Com
 448:../Libraries/STM32F4xx_StdPeriph_Driver/src/stm32f4xx_fsmc.c ****   FSMC_NANDInitStruct->FSMC_AttributeSpaceTimingStruct->FSMC_SetupTime = 0xFC;
 1368              		.loc 1 448 72 is_stmt 0 view .LVU335
 1369 001e C4E90233 		strd	r3, r3, [r4, #8]	@ tmp123, tmp123, _1,
 1370              		.loc 1 449 3 is_stmt 1 view .LVU336
 1371              	@ ../Libraries/STM32F4xx_StdPeriph_Driver/src/stm32f4xx_fsmc.c:453: }
 450:../Libraries/STM32F4xx_StdPeriph_Driver/src/stm32f4xx_fsmc.c ****   FSMC_NANDInitStruct->FSMC_AttributeSpaceTimingStruct->FSMC_WaitSetupTime = 0xFC;
 451:../Libraries/STM32F4xx_StdPeriph_Driver/src/stm32f4xx_fsmc.c ****   FSMC_NANDInitStruct->FSMC_AttributeSpaceTimingStruct->FSMC_HoldSetupTime = 0xFC;
 452:../Libraries/STM32F4xx_StdPeriph_Driver/src/stm32f4xx_fsmc.c ****   FSMC_NANDInitStruct->FSMC_AttributeSpaceTimingStruct->FSMC_HiZSetupTime = 0xFC;	  
 453:../Libraries/STM32F4xx_StdPeriph_Driver/src/stm32f4xx_fsmc.c **** }
 1372              		.loc 1 453 1 is_stmt 0 view .LVU337
 1373 0022 30BC     		pop	{r4, r5}	@
 1374              		.cfi_restore 5
 1375              		.cfi_restore 4
 1376              		.cfi_def_cfa_offset 0
 1377              	@ ../Libraries/STM32F4xx_StdPeriph_Driver/src/stm32f4xx_fsmc.c:450:   FSMC_NANDInitStruct->FSMC_Att
 450:../Libraries/STM32F4xx_StdPeriph_Driver/src/stm32f4xx_fsmc.c ****   FSMC_NANDInitStruct->FSMC_AttributeSpaceTimingStruct->FSMC_WaitSetupTime = 0xFC;
 1378              		.loc 1 450 76 view .LVU338
 1379 0024 C1E90033 		strd	r3, r3, [r1]	@ tmp123, tmp123, _2
 451:../Libraries/STM32F4xx_StdPeriph_Driver/src/stm32f4xx_fsmc.c ****   FSMC_NANDInitStruct->FSMC_AttributeSpaceTimingStruct->FSMC_HiZSetupTime = 0xFC;	  
 1380              		.loc 1 451 3 is_stmt 1 view .LVU339
 1381              	@ ../Libraries/STM32F4xx_StdPeriph_Driver/src/stm32f4xx_fsmc.c:452:   FSMC_NANDInitStruct->FSMC_Att
 452:../Libraries/STM32F4xx_StdPeriph_Driver/src/stm32f4xx_fsmc.c **** }
 1382              		.loc 1 452 75 is_stmt 0 view .LVU340
 1383 0028 C1E90233 		strd	r3, r3, [r1, #8]	@ tmp123, tmp123, _2,
 1384              	@ ../Libraries/STM32F4xx_StdPeriph_Driver/src/stm32f4xx_fsmc.c:453: }
 1385              		.loc 1 453 1 view .LVU341
 1386 002c 7047     		bx	lr	@
 1387              		.cfi_endproc
 1388              	.LFE116:
 1389              		.size	FSMC_NANDStructInit, .-FSMC_NANDStructInit
 1390 002e 00BF     		.section	.text.FSMC_NANDCmd,"ax",%progbits
 1391              		.align	1
 1392              		.p2align 2,,3
ARM GAS  C:\Users\admin\AppData\Local\Temp\ccAkqsWz.s 			page 36


 1393              		.global	FSMC_NANDCmd
 1394              		.syntax unified
 1395              		.thumb
 1396              		.thumb_func
 1397              		.type	FSMC_NANDCmd, %function
 1398              	FSMC_NANDCmd:
 1399              	.LVL73:
 1400              	.LFB117:
 454:../Libraries/STM32F4xx_StdPeriph_Driver/src/stm32f4xx_fsmc.c **** 
 455:../Libraries/STM32F4xx_StdPeriph_Driver/src/stm32f4xx_fsmc.c **** /**
 456:../Libraries/STM32F4xx_StdPeriph_Driver/src/stm32f4xx_fsmc.c ****   * @brief  Enables or disables the specified NAND Memory Bank.
 457:../Libraries/STM32F4xx_StdPeriph_Driver/src/stm32f4xx_fsmc.c ****   * @param  FSMC_Bank: specifies the FSMC Bank to be used
 458:../Libraries/STM32F4xx_StdPeriph_Driver/src/stm32f4xx_fsmc.c ****   *          This parameter can be one of the following values:
 459:../Libraries/STM32F4xx_StdPeriph_Driver/src/stm32f4xx_fsmc.c ****   *            @arg FSMC_Bank2_NAND: FSMC Bank2 NAND 
 460:../Libraries/STM32F4xx_StdPeriph_Driver/src/stm32f4xx_fsmc.c ****   *            @arg FSMC_Bank3_NAND: FSMC Bank3 NAND
 461:../Libraries/STM32F4xx_StdPeriph_Driver/src/stm32f4xx_fsmc.c ****   * @param  NewState: new state of the FSMC_Bank. This parameter can be: ENABLE or DISABLE.
 462:../Libraries/STM32F4xx_StdPeriph_Driver/src/stm32f4xx_fsmc.c ****   * @retval None
 463:../Libraries/STM32F4xx_StdPeriph_Driver/src/stm32f4xx_fsmc.c ****   */
 464:../Libraries/STM32F4xx_StdPeriph_Driver/src/stm32f4xx_fsmc.c **** void FSMC_NANDCmd(uint32_t FSMC_Bank, FunctionalState NewState)
 465:../Libraries/STM32F4xx_StdPeriph_Driver/src/stm32f4xx_fsmc.c **** {
 1401              		.loc 1 465 1 is_stmt 1 view -0
 1402              		.cfi_startproc
 1403              		@ args = 0, pretend = 0, frame = 0
 1404              		@ frame_needed = 0, uses_anonymous_args = 0
 466:../Libraries/STM32F4xx_StdPeriph_Driver/src/stm32f4xx_fsmc.c ****   assert_param(IS_FSMC_NAND_BANK(FSMC_Bank));
 1405              		.loc 1 466 3 view .LVU343
 1406 0000 1028     		cmp	r0, #16	@ FSMC_Bank,
 1407              	@ ../Libraries/STM32F4xx_StdPeriph_Driver/src/stm32f4xx_fsmc.c:465: {
 465:../Libraries/STM32F4xx_StdPeriph_Driver/src/stm32f4xx_fsmc.c ****   assert_param(IS_FSMC_NAND_BANK(FSMC_Bank));
 1408              		.loc 1 465 1 is_stmt 0 view .LVU344
 1409 0002 10B5     		push	{r4, lr}	@
 1410              		.cfi_def_cfa_offset 8
 1411              		.cfi_offset 4, -8
 1412              		.cfi_offset 14, -4
 1413              	@ ../Libraries/STM32F4xx_StdPeriph_Driver/src/stm32f4xx_fsmc.c:465: {
 465:../Libraries/STM32F4xx_StdPeriph_Driver/src/stm32f4xx_fsmc.c ****   assert_param(IS_FSMC_NAND_BANK(FSMC_Bank));
 1414              		.loc 1 465 1 view .LVU345
 1415 0004 0C46     		mov	r4, r1	@ NewState, tmp150
 1416              	@ ../Libraries/STM32F4xx_StdPeriph_Driver/src/stm32f4xx_fsmc.c:466:   assert_param(IS_FSMC_NAND_BAN
 1417              		.loc 1 466 3 view .LVU346
 1418 0006 1FD0     		beq	.L41		@,
 1419              	@ ../Libraries/STM32F4xx_StdPeriph_Driver/src/stm32f4xx_fsmc.c:466:   assert_param(IS_FSMC_NAND_BAN
 1420              		.loc 1 466 3 discriminator 2 view .LVU347
 1421 0008 A0F58070 		sub	r0, r0, #256	@, FSMC_Bank,
 1422              	.LVL74:
 1423              		.loc 1 466 3 discriminator 2 view .LVU348
 1424 000c B0FA80F0 		clz	r0, r0	@,
 1425              	.LVL75:
 1426              		.loc 1 466 3 discriminator 2 view .LVU349
 1427 0010 4009     		lsrs	r0, r0, #5	@,,
 1428 0012 FFF7FEFF 		bl	assert_param		@
 1429              	.LVL76:
 467:../Libraries/STM32F4xx_StdPeriph_Driver/src/stm32f4xx_fsmc.c ****   assert_param(IS_FUNCTIONAL_STATE(NewState));
 1430              		.loc 1 467 3 is_stmt 1 discriminator 2 view .LVU350
 1431 0016 012C     		cmp	r4, #1	@ NewState,
 1432 0018 8CBF     		ite	hi
 1433 001a 0020     		movhi	r0, #0	@,
ARM GAS  C:\Users\admin\AppData\Local\Temp\ccAkqsWz.s 			page 37


 1434 001c 0120     		movls	r0, #1	@,
 1435 001e FFF7FEFF 		bl	assert_param		@
 1436              	.LVL77:
 468:../Libraries/STM32F4xx_StdPeriph_Driver/src/stm32f4xx_fsmc.c ****   
 469:../Libraries/STM32F4xx_StdPeriph_Driver/src/stm32f4xx_fsmc.c ****   if (NewState != DISABLE)
 1437              		.loc 1 469 3 discriminator 2 view .LVU351
 1438              	@ ../Libraries/STM32F4xx_StdPeriph_Driver/src/stm32f4xx_fsmc.c:469:   if (NewState != DISABLE)
 1439              		.loc 1 469 6 is_stmt 0 discriminator 2 view .LVU352
 1440 0022 44B1     		cbz	r4, .L50	@ NewState,
 470:../Libraries/STM32F4xx_StdPeriph_Driver/src/stm32f4xx_fsmc.c ****   {
 471:../Libraries/STM32F4xx_StdPeriph_Driver/src/stm32f4xx_fsmc.c ****     /* Enable the selected NAND Bank by setting the PBKEN bit in the PCRx register */
 472:../Libraries/STM32F4xx_StdPeriph_Driver/src/stm32f4xx_fsmc.c ****     if(FSMC_Bank == FSMC_Bank2_NAND)
 473:../Libraries/STM32F4xx_StdPeriph_Driver/src/stm32f4xx_fsmc.c ****     {
 474:../Libraries/STM32F4xx_StdPeriph_Driver/src/stm32f4xx_fsmc.c ****       FSMC_Bank2->PCR2 |= PCR_PBKEN_SET;
 475:../Libraries/STM32F4xx_StdPeriph_Driver/src/stm32f4xx_fsmc.c ****     }
 476:../Libraries/STM32F4xx_StdPeriph_Driver/src/stm32f4xx_fsmc.c ****     else
 477:../Libraries/STM32F4xx_StdPeriph_Driver/src/stm32f4xx_fsmc.c ****     {
 478:../Libraries/STM32F4xx_StdPeriph_Driver/src/stm32f4xx_fsmc.c ****       FSMC_Bank3->PCR3 |= PCR_PBKEN_SET;
 1441              		.loc 1 478 7 is_stmt 1 view .LVU353
 1442              	@ ../Libraries/STM32F4xx_StdPeriph_Driver/src/stm32f4xx_fsmc.c:478:       FSMC_Bank3->PCR3 |= PCR_P
 1443              		.loc 1 478 24 is_stmt 0 view .LVU354
 1444 0024 4FF02042 		mov	r2, #-1610612736	@ tmp137,
 1445 0028 D2F88030 		ldr	r3, [r2, #128]	@ _5, MEM[(struct FSMC_Bank3_TypeDef *)2684354688B].PCR3
 1446 002c 43F00403 		orr	r3, r3, #4	@ _6, _5,
 1447 0030 C2F88030 		str	r3, [r2, #128]	@ _6,
 1448              	@ ../Libraries/STM32F4xx_StdPeriph_Driver/src/stm32f4xx_fsmc.c:493: }
 479:../Libraries/STM32F4xx_StdPeriph_Driver/src/stm32f4xx_fsmc.c ****     }
 480:../Libraries/STM32F4xx_StdPeriph_Driver/src/stm32f4xx_fsmc.c ****   }
 481:../Libraries/STM32F4xx_StdPeriph_Driver/src/stm32f4xx_fsmc.c ****   else
 482:../Libraries/STM32F4xx_StdPeriph_Driver/src/stm32f4xx_fsmc.c ****   {
 483:../Libraries/STM32F4xx_StdPeriph_Driver/src/stm32f4xx_fsmc.c ****     /* Disable the selected NAND Bank by clearing the PBKEN bit in the PCRx register */
 484:../Libraries/STM32F4xx_StdPeriph_Driver/src/stm32f4xx_fsmc.c ****     if(FSMC_Bank == FSMC_Bank2_NAND)
 485:../Libraries/STM32F4xx_StdPeriph_Driver/src/stm32f4xx_fsmc.c ****     {
 486:../Libraries/STM32F4xx_StdPeriph_Driver/src/stm32f4xx_fsmc.c ****       FSMC_Bank2->PCR2 &= PCR_PBKEN_RESET;
 487:../Libraries/STM32F4xx_StdPeriph_Driver/src/stm32f4xx_fsmc.c ****     }
 488:../Libraries/STM32F4xx_StdPeriph_Driver/src/stm32f4xx_fsmc.c ****     else
 489:../Libraries/STM32F4xx_StdPeriph_Driver/src/stm32f4xx_fsmc.c ****     {
 490:../Libraries/STM32F4xx_StdPeriph_Driver/src/stm32f4xx_fsmc.c ****       FSMC_Bank3->PCR3 &= PCR_PBKEN_RESET;
 491:../Libraries/STM32F4xx_StdPeriph_Driver/src/stm32f4xx_fsmc.c ****     }
 492:../Libraries/STM32F4xx_StdPeriph_Driver/src/stm32f4xx_fsmc.c ****   }
 493:../Libraries/STM32F4xx_StdPeriph_Driver/src/stm32f4xx_fsmc.c **** }
 1449              		.loc 1 493 1 view .LVU355
 1450 0034 10BD     		pop	{r4, pc}	@
 1451              	.L50:
 484:../Libraries/STM32F4xx_StdPeriph_Driver/src/stm32f4xx_fsmc.c ****     {
 1452              		.loc 1 484 5 is_stmt 1 view .LVU356
 490:../Libraries/STM32F4xx_StdPeriph_Driver/src/stm32f4xx_fsmc.c ****     }
 1453              		.loc 1 490 7 view .LVU357
 1454              	@ ../Libraries/STM32F4xx_StdPeriph_Driver/src/stm32f4xx_fsmc.c:490:       FSMC_Bank3->PCR3 &= PCR_P
 490:../Libraries/STM32F4xx_StdPeriph_Driver/src/stm32f4xx_fsmc.c ****     }
 1455              		.loc 1 490 24 is_stmt 0 view .LVU358
 1456 0036 4FF02042 		mov	r2, #-1610612736	@ tmp142,
 1457 003a 0F4B     		ldr	r3, .L52	@ _10,
 1458 003c D2F88010 		ldr	r1, [r2, #128]	@ _9, MEM[(struct FSMC_Bank3_TypeDef *)2684354688B].PCR3
 1459 0040 0B40     		ands	r3, r3, r1	@, _10, _10, _9
 1460 0042 C2F88030 		str	r3, [r2, #128]	@ _10,
 1461              	@ ../Libraries/STM32F4xx_StdPeriph_Driver/src/stm32f4xx_fsmc.c:493: }
ARM GAS  C:\Users\admin\AppData\Local\Temp\ccAkqsWz.s 			page 38


 1462              		.loc 1 493 1 view .LVU359
 1463 0046 10BD     		pop	{r4, pc}	@
 1464              	.LVL78:
 1465              	.L41:
 1466              	@ ../Libraries/STM32F4xx_StdPeriph_Driver/src/stm32f4xx_fsmc.c:466:   assert_param(IS_FSMC_NAND_BAN
 466:../Libraries/STM32F4xx_StdPeriph_Driver/src/stm32f4xx_fsmc.c ****   assert_param(IS_FUNCTIONAL_STATE(NewState));
 1467              		.loc 1 466 3 view .LVU360
 1468 0048 0120     		movs	r0, #1	@,
 1469              	.LVL79:
 466:../Libraries/STM32F4xx_StdPeriph_Driver/src/stm32f4xx_fsmc.c ****   assert_param(IS_FUNCTIONAL_STATE(NewState));
 1470              		.loc 1 466 3 view .LVU361
 1471 004a FFF7FEFF 		bl	assert_param		@
 1472              	.LVL80:
 467:../Libraries/STM32F4xx_StdPeriph_Driver/src/stm32f4xx_fsmc.c ****   
 1473              		.loc 1 467 3 is_stmt 1 view .LVU362
 1474 004e 012C     		cmp	r4, #1	@ NewState,
 1475 0050 8CBF     		ite	hi
 1476 0052 0020     		movhi	r0, #0	@,
 1477 0054 0120     		movls	r0, #1	@,
 1478 0056 FFF7FEFF 		bl	assert_param		@
 1479              	.LVL81:
 469:../Libraries/STM32F4xx_StdPeriph_Driver/src/stm32f4xx_fsmc.c ****   {
 1480              		.loc 1 469 3 view .LVU363
 1481              	@ ../Libraries/STM32F4xx_StdPeriph_Driver/src/stm32f4xx_fsmc.c:469:   if (NewState != DISABLE)
 469:../Libraries/STM32F4xx_StdPeriph_Driver/src/stm32f4xx_fsmc.c ****   {
 1482              		.loc 1 469 6 is_stmt 0 view .LVU364
 1483 005a 34B1     		cbz	r4, .L51	@ NewState,
 472:../Libraries/STM32F4xx_StdPeriph_Driver/src/stm32f4xx_fsmc.c ****     {
 1484              		.loc 1 472 5 is_stmt 1 view .LVU365
 474:../Libraries/STM32F4xx_StdPeriph_Driver/src/stm32f4xx_fsmc.c ****     }
 1485              		.loc 1 474 7 view .LVU366
 1486              	@ ../Libraries/STM32F4xx_StdPeriph_Driver/src/stm32f4xx_fsmc.c:474:       FSMC_Bank2->PCR2 |= PCR_P
 474:../Libraries/STM32F4xx_StdPeriph_Driver/src/stm32f4xx_fsmc.c ****     }
 1487              		.loc 1 474 24 is_stmt 0 view .LVU367
 1488 005c 4FF02042 		mov	r2, #-1610612736	@ tmp135,
 1489 0060 136E     		ldr	r3, [r2, #96]	@ _3, MEM[(struct FSMC_Bank2_TypeDef *)2684354656B].PCR2
 1490 0062 43F00403 		orr	r3, r3, #4	@ _4, _3,
 1491 0066 1366     		str	r3, [r2, #96]	@ _4,
 1492              	@ ../Libraries/STM32F4xx_StdPeriph_Driver/src/stm32f4xx_fsmc.c:493: }
 1493              		.loc 1 493 1 view .LVU368
 1494 0068 10BD     		pop	{r4, pc}	@
 1495              	.L51:
 486:../Libraries/STM32F4xx_StdPeriph_Driver/src/stm32f4xx_fsmc.c ****     }
 1496              		.loc 1 486 7 is_stmt 1 view .LVU369
 1497              	@ ../Libraries/STM32F4xx_StdPeriph_Driver/src/stm32f4xx_fsmc.c:486:       FSMC_Bank2->PCR2 &= PCR_P
 486:../Libraries/STM32F4xx_StdPeriph_Driver/src/stm32f4xx_fsmc.c ****     }
 1498              		.loc 1 486 24 is_stmt 0 view .LVU370
 1499 006a 4FF02042 		mov	r2, #-1610612736	@ tmp139,
 1500 006e 024B     		ldr	r3, .L52	@ _8,
 1501 0070 116E     		ldr	r1, [r2, #96]	@ _7, MEM[(struct FSMC_Bank2_TypeDef *)2684354656B].PCR2
 1502 0072 0B40     		ands	r3, r3, r1	@, _8, _8, _7
 1503 0074 1366     		str	r3, [r2, #96]	@ _8,
 1504              	@ ../Libraries/STM32F4xx_StdPeriph_Driver/src/stm32f4xx_fsmc.c:493: }
 1505              		.loc 1 493 1 view .LVU371
 1506 0076 10BD     		pop	{r4, pc}	@
 1507              	.L53:
 1508              		.align	2
ARM GAS  C:\Users\admin\AppData\Local\Temp\ccAkqsWz.s 			page 39


 1509              	.L52:
 1510 0078 FBFF0F00 		.word	1048571
 1511              		.cfi_endproc
 1512              	.LFE117:
 1513              		.size	FSMC_NANDCmd, .-FSMC_NANDCmd
 1514              		.section	.text.FSMC_NANDECCCmd,"ax",%progbits
 1515              		.align	1
 1516              		.p2align 2,,3
 1517              		.global	FSMC_NANDECCCmd
 1518              		.syntax unified
 1519              		.thumb
 1520              		.thumb_func
 1521              		.type	FSMC_NANDECCCmd, %function
 1522              	FSMC_NANDECCCmd:
 1523              	.LVL82:
 1524              	.LFB118:
 494:../Libraries/STM32F4xx_StdPeriph_Driver/src/stm32f4xx_fsmc.c **** /**
 495:../Libraries/STM32F4xx_StdPeriph_Driver/src/stm32f4xx_fsmc.c ****   * @brief  Enables or disables the FSMC NAND ECC feature.
 496:../Libraries/STM32F4xx_StdPeriph_Driver/src/stm32f4xx_fsmc.c ****   * @param  FSMC_Bank: specifies the FSMC Bank to be used
 497:../Libraries/STM32F4xx_StdPeriph_Driver/src/stm32f4xx_fsmc.c ****   *          This parameter can be one of the following values:
 498:../Libraries/STM32F4xx_StdPeriph_Driver/src/stm32f4xx_fsmc.c ****   *            @arg FSMC_Bank2_NAND: FSMC Bank2 NAND 
 499:../Libraries/STM32F4xx_StdPeriph_Driver/src/stm32f4xx_fsmc.c ****   *            @arg FSMC_Bank3_NAND: FSMC Bank3 NAND
 500:../Libraries/STM32F4xx_StdPeriph_Driver/src/stm32f4xx_fsmc.c ****   * @param  NewState: new state of the FSMC NAND ECC feature.  
 501:../Libraries/STM32F4xx_StdPeriph_Driver/src/stm32f4xx_fsmc.c ****   *          This parameter can be: ENABLE or DISABLE.
 502:../Libraries/STM32F4xx_StdPeriph_Driver/src/stm32f4xx_fsmc.c ****   * @retval None
 503:../Libraries/STM32F4xx_StdPeriph_Driver/src/stm32f4xx_fsmc.c ****   */
 504:../Libraries/STM32F4xx_StdPeriph_Driver/src/stm32f4xx_fsmc.c **** void FSMC_NANDECCCmd(uint32_t FSMC_Bank, FunctionalState NewState)
 505:../Libraries/STM32F4xx_StdPeriph_Driver/src/stm32f4xx_fsmc.c **** {
 1525              		.loc 1 505 1 is_stmt 1 view -0
 1526              		.cfi_startproc
 1527              		@ args = 0, pretend = 0, frame = 0
 1528              		@ frame_needed = 0, uses_anonymous_args = 0
 506:../Libraries/STM32F4xx_StdPeriph_Driver/src/stm32f4xx_fsmc.c ****   assert_param(IS_FSMC_NAND_BANK(FSMC_Bank));
 1529              		.loc 1 506 3 view .LVU373
 1530 0000 1028     		cmp	r0, #16	@ FSMC_Bank,
 1531              	@ ../Libraries/STM32F4xx_StdPeriph_Driver/src/stm32f4xx_fsmc.c:505: {
 505:../Libraries/STM32F4xx_StdPeriph_Driver/src/stm32f4xx_fsmc.c ****   assert_param(IS_FSMC_NAND_BANK(FSMC_Bank));
 1532              		.loc 1 505 1 is_stmt 0 view .LVU374
 1533 0002 10B5     		push	{r4, lr}	@
 1534              		.cfi_def_cfa_offset 8
 1535              		.cfi_offset 4, -8
 1536              		.cfi_offset 14, -4
 1537              	@ ../Libraries/STM32F4xx_StdPeriph_Driver/src/stm32f4xx_fsmc.c:505: {
 505:../Libraries/STM32F4xx_StdPeriph_Driver/src/stm32f4xx_fsmc.c ****   assert_param(IS_FSMC_NAND_BANK(FSMC_Bank));
 1538              		.loc 1 505 1 view .LVU375
 1539 0004 0C46     		mov	r4, r1	@ NewState, tmp150
 1540              	@ ../Libraries/STM32F4xx_StdPeriph_Driver/src/stm32f4xx_fsmc.c:506:   assert_param(IS_FSMC_NAND_BAN
 1541              		.loc 1 506 3 view .LVU376
 1542 0006 1FD0     		beq	.L55		@,
 1543              	@ ../Libraries/STM32F4xx_StdPeriph_Driver/src/stm32f4xx_fsmc.c:506:   assert_param(IS_FSMC_NAND_BAN
 1544              		.loc 1 506 3 discriminator 2 view .LVU377
 1545 0008 A0F58070 		sub	r0, r0, #256	@, FSMC_Bank,
 1546              	.LVL83:
 1547              		.loc 1 506 3 discriminator 2 view .LVU378
 1548 000c B0FA80F0 		clz	r0, r0	@,
 1549              	.LVL84:
 1550              		.loc 1 506 3 discriminator 2 view .LVU379
ARM GAS  C:\Users\admin\AppData\Local\Temp\ccAkqsWz.s 			page 40


 1551 0010 4009     		lsrs	r0, r0, #5	@,,
 1552 0012 FFF7FEFF 		bl	assert_param		@
 1553              	.LVL85:
 507:../Libraries/STM32F4xx_StdPeriph_Driver/src/stm32f4xx_fsmc.c ****   assert_param(IS_FUNCTIONAL_STATE(NewState));
 1554              		.loc 1 507 3 is_stmt 1 discriminator 2 view .LVU380
 1555 0016 012C     		cmp	r4, #1	@ NewState,
 1556 0018 8CBF     		ite	hi
 1557 001a 0020     		movhi	r0, #0	@,
 1558 001c 0120     		movls	r0, #1	@,
 1559 001e FFF7FEFF 		bl	assert_param		@
 1560              	.LVL86:
 508:../Libraries/STM32F4xx_StdPeriph_Driver/src/stm32f4xx_fsmc.c ****   
 509:../Libraries/STM32F4xx_StdPeriph_Driver/src/stm32f4xx_fsmc.c ****   if (NewState != DISABLE)
 1561              		.loc 1 509 3 discriminator 2 view .LVU381
 1562              	@ ../Libraries/STM32F4xx_StdPeriph_Driver/src/stm32f4xx_fsmc.c:509:   if (NewState != DISABLE)
 1563              		.loc 1 509 6 is_stmt 0 discriminator 2 view .LVU382
 1564 0022 44B1     		cbz	r4, .L64	@ NewState,
 510:../Libraries/STM32F4xx_StdPeriph_Driver/src/stm32f4xx_fsmc.c ****   {
 511:../Libraries/STM32F4xx_StdPeriph_Driver/src/stm32f4xx_fsmc.c ****     /* Enable the selected NAND Bank ECC function by setting the ECCEN bit in the PCRx register */
 512:../Libraries/STM32F4xx_StdPeriph_Driver/src/stm32f4xx_fsmc.c ****     if(FSMC_Bank == FSMC_Bank2_NAND)
 513:../Libraries/STM32F4xx_StdPeriph_Driver/src/stm32f4xx_fsmc.c ****     {
 514:../Libraries/STM32F4xx_StdPeriph_Driver/src/stm32f4xx_fsmc.c ****       FSMC_Bank2->PCR2 |= PCR_ECCEN_SET;
 515:../Libraries/STM32F4xx_StdPeriph_Driver/src/stm32f4xx_fsmc.c ****     }
 516:../Libraries/STM32F4xx_StdPeriph_Driver/src/stm32f4xx_fsmc.c ****     else
 517:../Libraries/STM32F4xx_StdPeriph_Driver/src/stm32f4xx_fsmc.c ****     {
 518:../Libraries/STM32F4xx_StdPeriph_Driver/src/stm32f4xx_fsmc.c ****       FSMC_Bank3->PCR3 |= PCR_ECCEN_SET;
 1565              		.loc 1 518 7 is_stmt 1 view .LVU383
 1566              	@ ../Libraries/STM32F4xx_StdPeriph_Driver/src/stm32f4xx_fsmc.c:518:       FSMC_Bank3->PCR3 |= PCR_E
 1567              		.loc 1 518 24 is_stmt 0 view .LVU384
 1568 0024 4FF02042 		mov	r2, #-1610612736	@ tmp137,
 1569 0028 D2F88030 		ldr	r3, [r2, #128]	@ _5, MEM[(struct FSMC_Bank3_TypeDef *)2684354688B].PCR3
 1570 002c 43F04003 		orr	r3, r3, #64	@ _6, _5,
 1571 0030 C2F88030 		str	r3, [r2, #128]	@ _6,
 1572              	@ ../Libraries/STM32F4xx_StdPeriph_Driver/src/stm32f4xx_fsmc.c:533: }
 519:../Libraries/STM32F4xx_StdPeriph_Driver/src/stm32f4xx_fsmc.c ****     }
 520:../Libraries/STM32F4xx_StdPeriph_Driver/src/stm32f4xx_fsmc.c ****   }
 521:../Libraries/STM32F4xx_StdPeriph_Driver/src/stm32f4xx_fsmc.c ****   else
 522:../Libraries/STM32F4xx_StdPeriph_Driver/src/stm32f4xx_fsmc.c ****   {
 523:../Libraries/STM32F4xx_StdPeriph_Driver/src/stm32f4xx_fsmc.c ****     /* Disable the selected NAND Bank ECC function by clearing the ECCEN bit in the PCRx register *
 524:../Libraries/STM32F4xx_StdPeriph_Driver/src/stm32f4xx_fsmc.c ****     if(FSMC_Bank == FSMC_Bank2_NAND)
 525:../Libraries/STM32F4xx_StdPeriph_Driver/src/stm32f4xx_fsmc.c ****     {
 526:../Libraries/STM32F4xx_StdPeriph_Driver/src/stm32f4xx_fsmc.c ****       FSMC_Bank2->PCR2 &= PCR_ECCEN_RESET;
 527:../Libraries/STM32F4xx_StdPeriph_Driver/src/stm32f4xx_fsmc.c ****     }
 528:../Libraries/STM32F4xx_StdPeriph_Driver/src/stm32f4xx_fsmc.c ****     else
 529:../Libraries/STM32F4xx_StdPeriph_Driver/src/stm32f4xx_fsmc.c ****     {
 530:../Libraries/STM32F4xx_StdPeriph_Driver/src/stm32f4xx_fsmc.c ****       FSMC_Bank3->PCR3 &= PCR_ECCEN_RESET;
 531:../Libraries/STM32F4xx_StdPeriph_Driver/src/stm32f4xx_fsmc.c ****     }
 532:../Libraries/STM32F4xx_StdPeriph_Driver/src/stm32f4xx_fsmc.c ****   }
 533:../Libraries/STM32F4xx_StdPeriph_Driver/src/stm32f4xx_fsmc.c **** }
 1573              		.loc 1 533 1 view .LVU385
 1574 0034 10BD     		pop	{r4, pc}	@
 1575              	.L64:
 524:../Libraries/STM32F4xx_StdPeriph_Driver/src/stm32f4xx_fsmc.c ****     {
 1576              		.loc 1 524 5 is_stmt 1 view .LVU386
 530:../Libraries/STM32F4xx_StdPeriph_Driver/src/stm32f4xx_fsmc.c ****     }
 1577              		.loc 1 530 7 view .LVU387
 1578              	@ ../Libraries/STM32F4xx_StdPeriph_Driver/src/stm32f4xx_fsmc.c:530:       FSMC_Bank3->PCR3 &= PCR_E
ARM GAS  C:\Users\admin\AppData\Local\Temp\ccAkqsWz.s 			page 41


 530:../Libraries/STM32F4xx_StdPeriph_Driver/src/stm32f4xx_fsmc.c ****     }
 1579              		.loc 1 530 24 is_stmt 0 view .LVU388
 1580 0036 4FF02042 		mov	r2, #-1610612736	@ tmp142,
 1581 003a 0F4B     		ldr	r3, .L66	@ _10,
 1582 003c D2F88010 		ldr	r1, [r2, #128]	@ _9, MEM[(struct FSMC_Bank3_TypeDef *)2684354688B].PCR3
 1583 0040 0B40     		ands	r3, r3, r1	@, _10, _10, _9
 1584 0042 C2F88030 		str	r3, [r2, #128]	@ _10,
 1585              	@ ../Libraries/STM32F4xx_StdPeriph_Driver/src/stm32f4xx_fsmc.c:533: }
 1586              		.loc 1 533 1 view .LVU389
 1587 0046 10BD     		pop	{r4, pc}	@
 1588              	.LVL87:
 1589              	.L55:
 1590              	@ ../Libraries/STM32F4xx_StdPeriph_Driver/src/stm32f4xx_fsmc.c:506:   assert_param(IS_FSMC_NAND_BAN
 506:../Libraries/STM32F4xx_StdPeriph_Driver/src/stm32f4xx_fsmc.c ****   assert_param(IS_FUNCTIONAL_STATE(NewState));
 1591              		.loc 1 506 3 view .LVU390
 1592 0048 0120     		movs	r0, #1	@,
 1593              	.LVL88:
 506:../Libraries/STM32F4xx_StdPeriph_Driver/src/stm32f4xx_fsmc.c ****   assert_param(IS_FUNCTIONAL_STATE(NewState));
 1594              		.loc 1 506 3 view .LVU391
 1595 004a FFF7FEFF 		bl	assert_param		@
 1596              	.LVL89:
 507:../Libraries/STM32F4xx_StdPeriph_Driver/src/stm32f4xx_fsmc.c ****   
 1597              		.loc 1 507 3 is_stmt 1 view .LVU392
 1598 004e 012C     		cmp	r4, #1	@ NewState,
 1599 0050 8CBF     		ite	hi
 1600 0052 0020     		movhi	r0, #0	@,
 1601 0054 0120     		movls	r0, #1	@,
 1602 0056 FFF7FEFF 		bl	assert_param		@
 1603              	.LVL90:
 509:../Libraries/STM32F4xx_StdPeriph_Driver/src/stm32f4xx_fsmc.c ****   {
 1604              		.loc 1 509 3 view .LVU393
 1605              	@ ../Libraries/STM32F4xx_StdPeriph_Driver/src/stm32f4xx_fsmc.c:509:   if (NewState != DISABLE)
 509:../Libraries/STM32F4xx_StdPeriph_Driver/src/stm32f4xx_fsmc.c ****   {
 1606              		.loc 1 509 6 is_stmt 0 view .LVU394
 1607 005a 34B1     		cbz	r4, .L65	@ NewState,
 512:../Libraries/STM32F4xx_StdPeriph_Driver/src/stm32f4xx_fsmc.c ****     {
 1608              		.loc 1 512 5 is_stmt 1 view .LVU395
 514:../Libraries/STM32F4xx_StdPeriph_Driver/src/stm32f4xx_fsmc.c ****     }
 1609              		.loc 1 514 7 view .LVU396
 1610              	@ ../Libraries/STM32F4xx_StdPeriph_Driver/src/stm32f4xx_fsmc.c:514:       FSMC_Bank2->PCR2 |= PCR_E
 514:../Libraries/STM32F4xx_StdPeriph_Driver/src/stm32f4xx_fsmc.c ****     }
 1611              		.loc 1 514 24 is_stmt 0 view .LVU397
 1612 005c 4FF02042 		mov	r2, #-1610612736	@ tmp135,
 1613 0060 136E     		ldr	r3, [r2, #96]	@ _3, MEM[(struct FSMC_Bank2_TypeDef *)2684354656B].PCR2
 1614 0062 43F04003 		orr	r3, r3, #64	@ _4, _3,
 1615 0066 1366     		str	r3, [r2, #96]	@ _4,
 1616              	@ ../Libraries/STM32F4xx_StdPeriph_Driver/src/stm32f4xx_fsmc.c:533: }
 1617              		.loc 1 533 1 view .LVU398
 1618 0068 10BD     		pop	{r4, pc}	@
 1619              	.L65:
 526:../Libraries/STM32F4xx_StdPeriph_Driver/src/stm32f4xx_fsmc.c ****     }
 1620              		.loc 1 526 7 is_stmt 1 view .LVU399
 1621              	@ ../Libraries/STM32F4xx_StdPeriph_Driver/src/stm32f4xx_fsmc.c:526:       FSMC_Bank2->PCR2 &= PCR_E
 526:../Libraries/STM32F4xx_StdPeriph_Driver/src/stm32f4xx_fsmc.c ****     }
 1622              		.loc 1 526 24 is_stmt 0 view .LVU400
 1623 006a 4FF02042 		mov	r2, #-1610612736	@ tmp139,
 1624 006e 024B     		ldr	r3, .L66	@ _8,
ARM GAS  C:\Users\admin\AppData\Local\Temp\ccAkqsWz.s 			page 42


 1625 0070 116E     		ldr	r1, [r2, #96]	@ _7, MEM[(struct FSMC_Bank2_TypeDef *)2684354656B].PCR2
 1626 0072 0B40     		ands	r3, r3, r1	@, _8, _8, _7
 1627 0074 1366     		str	r3, [r2, #96]	@ _8,
 1628              	@ ../Libraries/STM32F4xx_StdPeriph_Driver/src/stm32f4xx_fsmc.c:533: }
 1629              		.loc 1 533 1 view .LVU401
 1630 0076 10BD     		pop	{r4, pc}	@
 1631              	.L67:
 1632              		.align	2
 1633              	.L66:
 1634 0078 BFFF0F00 		.word	1048511
 1635              		.cfi_endproc
 1636              	.LFE118:
 1637              		.size	FSMC_NANDECCCmd, .-FSMC_NANDECCCmd
 1638              		.section	.text.FSMC_GetECC,"ax",%progbits
 1639              		.align	1
 1640              		.p2align 2,,3
 1641              		.global	FSMC_GetECC
 1642              		.syntax unified
 1643              		.thumb
 1644              		.thumb_func
 1645              		.type	FSMC_GetECC, %function
 1646              	FSMC_GetECC:
 1647              	.LVL91:
 1648              	.LFB119:
 534:../Libraries/STM32F4xx_StdPeriph_Driver/src/stm32f4xx_fsmc.c **** 
 535:../Libraries/STM32F4xx_StdPeriph_Driver/src/stm32f4xx_fsmc.c **** /**
 536:../Libraries/STM32F4xx_StdPeriph_Driver/src/stm32f4xx_fsmc.c ****   * @brief  Returns the error correction code register value.
 537:../Libraries/STM32F4xx_StdPeriph_Driver/src/stm32f4xx_fsmc.c ****   * @param  FSMC_Bank: specifies the FSMC Bank to be used
 538:../Libraries/STM32F4xx_StdPeriph_Driver/src/stm32f4xx_fsmc.c ****   *          This parameter can be one of the following values:
 539:../Libraries/STM32F4xx_StdPeriph_Driver/src/stm32f4xx_fsmc.c ****   *            @arg FSMC_Bank2_NAND: FSMC Bank2 NAND 
 540:../Libraries/STM32F4xx_StdPeriph_Driver/src/stm32f4xx_fsmc.c ****   *            @arg FSMC_Bank3_NAND: FSMC Bank3 NAND
 541:../Libraries/STM32F4xx_StdPeriph_Driver/src/stm32f4xx_fsmc.c ****   * @retval The Error Correction Code (ECC) value.
 542:../Libraries/STM32F4xx_StdPeriph_Driver/src/stm32f4xx_fsmc.c ****   */
 543:../Libraries/STM32F4xx_StdPeriph_Driver/src/stm32f4xx_fsmc.c **** uint32_t FSMC_GetECC(uint32_t FSMC_Bank)
 544:../Libraries/STM32F4xx_StdPeriph_Driver/src/stm32f4xx_fsmc.c **** {
 1649              		.loc 1 544 1 is_stmt 1 view -0
 1650              		.cfi_startproc
 1651              		@ args = 0, pretend = 0, frame = 0
 1652              		@ frame_needed = 0, uses_anonymous_args = 0
 1653              		@ link register save eliminated.
 545:../Libraries/STM32F4xx_StdPeriph_Driver/src/stm32f4xx_fsmc.c ****   uint32_t eccval = 0x00000000;
 1654              		.loc 1 545 3 view .LVU403
 546:../Libraries/STM32F4xx_StdPeriph_Driver/src/stm32f4xx_fsmc.c ****   
 547:../Libraries/STM32F4xx_StdPeriph_Driver/src/stm32f4xx_fsmc.c ****   if(FSMC_Bank == FSMC_Bank2_NAND)
 1655              		.loc 1 547 3 view .LVU404
 1656              	@ ../Libraries/STM32F4xx_StdPeriph_Driver/src/stm32f4xx_fsmc.c:550:     eccval = FSMC_Bank2->ECCR2;
 548:../Libraries/STM32F4xx_StdPeriph_Driver/src/stm32f4xx_fsmc.c ****   {
 549:../Libraries/STM32F4xx_StdPeriph_Driver/src/stm32f4xx_fsmc.c ****     /* Get the ECCR2 register value */
 550:../Libraries/STM32F4xx_StdPeriph_Driver/src/stm32f4xx_fsmc.c ****     eccval = FSMC_Bank2->ECCR2;
 1657              		.loc 1 550 12 is_stmt 0 view .LVU405
 1658 0000 4FF02043 		mov	r3, #-1610612736	@ tmp115,
 1659              	@ ../Libraries/STM32F4xx_StdPeriph_Driver/src/stm32f4xx_fsmc.c:547:   if(FSMC_Bank == FSMC_Bank2_NA
 547:../Libraries/STM32F4xx_StdPeriph_Driver/src/stm32f4xx_fsmc.c ****   {
 1660              		.loc 1 547 5 view .LVU406
 1661 0004 1028     		cmp	r0, #16	@ tmp118,
 1662              		.loc 1 550 5 is_stmt 1 view .LVU407
 1663              	@ ../Libraries/STM32F4xx_StdPeriph_Driver/src/stm32f4xx_fsmc.c:550:     eccval = FSMC_Bank2->ECCR2;
ARM GAS  C:\Users\admin\AppData\Local\Temp\ccAkqsWz.s 			page 43


 1664              		.loc 1 550 12 is_stmt 0 view .LVU408
 1665 0006 0CBF     		ite	eq
 1666 0008 586F     		ldreq	r0, [r3, #116]	@ <retval>, MEM[(struct FSMC_Bank2_TypeDef *)2684354656B].ECCR2
 1667              	.LVL92:
 551:../Libraries/STM32F4xx_StdPeriph_Driver/src/stm32f4xx_fsmc.c ****   }
 552:../Libraries/STM32F4xx_StdPeriph_Driver/src/stm32f4xx_fsmc.c ****   else
 553:../Libraries/STM32F4xx_StdPeriph_Driver/src/stm32f4xx_fsmc.c ****   {
 554:../Libraries/STM32F4xx_StdPeriph_Driver/src/stm32f4xx_fsmc.c ****     /* Get the ECCR3 register value */
 555:../Libraries/STM32F4xx_StdPeriph_Driver/src/stm32f4xx_fsmc.c ****     eccval = FSMC_Bank3->ECCR3;
 1668              		.loc 1 555 5 is_stmt 1 view .LVU409
 1669              	@ ../Libraries/STM32F4xx_StdPeriph_Driver/src/stm32f4xx_fsmc.c:555:     eccval = FSMC_Bank3->ECCR3;
 1670              		.loc 1 555 12 is_stmt 0 view .LVU410
 1671 000a D3F89400 		ldrne	r0, [r3, #148]	@ <retval>, MEM[(struct FSMC_Bank3_TypeDef *)2684354688B].ECCR3
 1672              	.LVL93:
 556:../Libraries/STM32F4xx_StdPeriph_Driver/src/stm32f4xx_fsmc.c ****   }
 557:../Libraries/STM32F4xx_StdPeriph_Driver/src/stm32f4xx_fsmc.c ****   /* Return the error correction code value */
 558:../Libraries/STM32F4xx_StdPeriph_Driver/src/stm32f4xx_fsmc.c ****   return(eccval);
 1673              		.loc 1 558 3 is_stmt 1 view .LVU411
 1674              	@ ../Libraries/STM32F4xx_StdPeriph_Driver/src/stm32f4xx_fsmc.c:559: }
 559:../Libraries/STM32F4xx_StdPeriph_Driver/src/stm32f4xx_fsmc.c **** }
 1675              		.loc 1 559 1 is_stmt 0 view .LVU412
 1676 000e 7047     		bx	lr	@
 1677              		.cfi_endproc
 1678              	.LFE119:
 1679              		.size	FSMC_GetECC, .-FSMC_GetECC
 1680              		.section	.text.FSMC_PCCARDDeInit,"ax",%progbits
 1681              		.align	1
 1682              		.p2align 2,,3
 1683              		.global	FSMC_PCCARDDeInit
 1684              		.syntax unified
 1685              		.thumb
 1686              		.thumb_func
 1687              		.type	FSMC_PCCARDDeInit, %function
 1688              	FSMC_PCCARDDeInit:
 1689              	.LFB120:
 560:../Libraries/STM32F4xx_StdPeriph_Driver/src/stm32f4xx_fsmc.c **** /**
 561:../Libraries/STM32F4xx_StdPeriph_Driver/src/stm32f4xx_fsmc.c ****   * @}
 562:../Libraries/STM32F4xx_StdPeriph_Driver/src/stm32f4xx_fsmc.c ****   */
 563:../Libraries/STM32F4xx_StdPeriph_Driver/src/stm32f4xx_fsmc.c **** 
 564:../Libraries/STM32F4xx_StdPeriph_Driver/src/stm32f4xx_fsmc.c **** /** @defgroup FSMC_Group3 PCCARD Controller functions
 565:../Libraries/STM32F4xx_StdPeriph_Driver/src/stm32f4xx_fsmc.c ****  *  @brief   PCCARD Controller functions 
 566:../Libraries/STM32F4xx_StdPeriph_Driver/src/stm32f4xx_fsmc.c ****  *
 567:../Libraries/STM32F4xx_StdPeriph_Driver/src/stm32f4xx_fsmc.c **** @verbatim   
 568:../Libraries/STM32F4xx_StdPeriph_Driver/src/stm32f4xx_fsmc.c ****  ===============================================================================
 569:../Libraries/STM32F4xx_StdPeriph_Driver/src/stm32f4xx_fsmc.c ****                     PCCARD Controller functions
 570:../Libraries/STM32F4xx_StdPeriph_Driver/src/stm32f4xx_fsmc.c ****  ===============================================================================  
 571:../Libraries/STM32F4xx_StdPeriph_Driver/src/stm32f4xx_fsmc.c **** 
 572:../Libraries/STM32F4xx_StdPeriph_Driver/src/stm32f4xx_fsmc.c ****  The following sequence should be followed to configure the FSMC to interface with
 573:../Libraries/STM32F4xx_StdPeriph_Driver/src/stm32f4xx_fsmc.c ****  16-bit PC Card compatible memory connected to the PCCARD Bank:
 574:../Libraries/STM32F4xx_StdPeriph_Driver/src/stm32f4xx_fsmc.c ****  
 575:../Libraries/STM32F4xx_StdPeriph_Driver/src/stm32f4xx_fsmc.c ****    1. Enable the clock for the FSMC and associated GPIOs using the following functions:
 576:../Libraries/STM32F4xx_StdPeriph_Driver/src/stm32f4xx_fsmc.c ****           RCC_AHB3PeriphClockCmd(RCC_AHB3Periph_FSMC, ENABLE);
 577:../Libraries/STM32F4xx_StdPeriph_Driver/src/stm32f4xx_fsmc.c ****           RCC_AHB1PeriphClockCmd(RCC_AHB1Periph_GPIOx, ENABLE);
 578:../Libraries/STM32F4xx_StdPeriph_Driver/src/stm32f4xx_fsmc.c **** 
 579:../Libraries/STM32F4xx_StdPeriph_Driver/src/stm32f4xx_fsmc.c ****    2. FSMC pins configuration 
 580:../Libraries/STM32F4xx_StdPeriph_Driver/src/stm32f4xx_fsmc.c ****        - Connect the involved FSMC pins to AF12 using the following function 
 581:../Libraries/STM32F4xx_StdPeriph_Driver/src/stm32f4xx_fsmc.c ****           GPIO_PinAFConfig(GPIOx, GPIO_PinSourcex, GPIO_AF_FSMC); 
ARM GAS  C:\Users\admin\AppData\Local\Temp\ccAkqsWz.s 			page 44


 582:../Libraries/STM32F4xx_StdPeriph_Driver/src/stm32f4xx_fsmc.c ****        - Configure these FSMC pins in alternate function mode by calling the function
 583:../Libraries/STM32F4xx_StdPeriph_Driver/src/stm32f4xx_fsmc.c ****           GPIO_Init();    
 584:../Libraries/STM32F4xx_StdPeriph_Driver/src/stm32f4xx_fsmc.c ****        
 585:../Libraries/STM32F4xx_StdPeriph_Driver/src/stm32f4xx_fsmc.c ****    3. Declare a FSMC_PCCARDInitTypeDef structure, for example:
 586:../Libraries/STM32F4xx_StdPeriph_Driver/src/stm32f4xx_fsmc.c ****           FSMC_PCCARDInitTypeDef  FSMC_PCCARDInitStructure;
 587:../Libraries/STM32F4xx_StdPeriph_Driver/src/stm32f4xx_fsmc.c ****       and fill the FSMC_PCCARDInitStructure variable with the allowed values of
 588:../Libraries/STM32F4xx_StdPeriph_Driver/src/stm32f4xx_fsmc.c ****       the structure member.
 589:../Libraries/STM32F4xx_StdPeriph_Driver/src/stm32f4xx_fsmc.c ****       
 590:../Libraries/STM32F4xx_StdPeriph_Driver/src/stm32f4xx_fsmc.c ****    4. Initialize the PCCARD Controller by calling the function
 591:../Libraries/STM32F4xx_StdPeriph_Driver/src/stm32f4xx_fsmc.c ****           FSMC_PCCARDInit(&FSMC_PCCARDInitStructure); 
 592:../Libraries/STM32F4xx_StdPeriph_Driver/src/stm32f4xx_fsmc.c **** 
 593:../Libraries/STM32F4xx_StdPeriph_Driver/src/stm32f4xx_fsmc.c ****    5. Then enable the PCCARD Bank:
 594:../Libraries/STM32F4xx_StdPeriph_Driver/src/stm32f4xx_fsmc.c ****           FSMC_PCCARDCmd(ENABLE);  
 595:../Libraries/STM32F4xx_StdPeriph_Driver/src/stm32f4xx_fsmc.c **** 
 596:../Libraries/STM32F4xx_StdPeriph_Driver/src/stm32f4xx_fsmc.c ****    6. At this stage you can read/write from/to the memory connected to the PCCARD Bank. 
 597:../Libraries/STM32F4xx_StdPeriph_Driver/src/stm32f4xx_fsmc.c ****  
 598:../Libraries/STM32F4xx_StdPeriph_Driver/src/stm32f4xx_fsmc.c **** @endverbatim
 599:../Libraries/STM32F4xx_StdPeriph_Driver/src/stm32f4xx_fsmc.c ****   * @{
 600:../Libraries/STM32F4xx_StdPeriph_Driver/src/stm32f4xx_fsmc.c ****   */
 601:../Libraries/STM32F4xx_StdPeriph_Driver/src/stm32f4xx_fsmc.c **** 
 602:../Libraries/STM32F4xx_StdPeriph_Driver/src/stm32f4xx_fsmc.c **** /**
 603:../Libraries/STM32F4xx_StdPeriph_Driver/src/stm32f4xx_fsmc.c ****   * @brief  Deinitializes the FSMC PCCARD Bank registers to their default reset values.
 604:../Libraries/STM32F4xx_StdPeriph_Driver/src/stm32f4xx_fsmc.c ****   * @param  None                       
 605:../Libraries/STM32F4xx_StdPeriph_Driver/src/stm32f4xx_fsmc.c ****   * @retval None
 606:../Libraries/STM32F4xx_StdPeriph_Driver/src/stm32f4xx_fsmc.c ****   */
 607:../Libraries/STM32F4xx_StdPeriph_Driver/src/stm32f4xx_fsmc.c **** void FSMC_PCCARDDeInit(void)
 608:../Libraries/STM32F4xx_StdPeriph_Driver/src/stm32f4xx_fsmc.c **** {
 1690              		.loc 1 608 1 is_stmt 1 view -0
 1691              		.cfi_startproc
 1692              		@ args = 0, pretend = 0, frame = 0
 1693              		@ frame_needed = 0, uses_anonymous_args = 0
 1694              		@ link register save eliminated.
 609:../Libraries/STM32F4xx_StdPeriph_Driver/src/stm32f4xx_fsmc.c ****   /* Set the FSMC_Bank4 registers to their reset values */
 610:../Libraries/STM32F4xx_StdPeriph_Driver/src/stm32f4xx_fsmc.c ****   FSMC_Bank4->PCR4 = 0x00000018; 
 1695              		.loc 1 610 3 view .LVU414
 1696              	@ ../Libraries/STM32F4xx_StdPeriph_Driver/src/stm32f4xx_fsmc.c:610:   FSMC_Bank4->PCR4 = 0x00000018
 1697              		.loc 1 610 20 is_stmt 0 view .LVU415
 1698 0000 4FF02043 		mov	r3, #-1610612736	@ tmp113,
 1699              	@ ../Libraries/STM32F4xx_StdPeriph_Driver/src/stm32f4xx_fsmc.c:612:   FSMC_Bank4->PMEM4 = 0xFCFCFCF
 611:../Libraries/STM32F4xx_StdPeriph_Driver/src/stm32f4xx_fsmc.c ****   FSMC_Bank4->SR4 = 0x00000000;	
 612:../Libraries/STM32F4xx_StdPeriph_Driver/src/stm32f4xx_fsmc.c ****   FSMC_Bank4->PMEM4 = 0xFCFCFCFC;
 1700              		.loc 1 612 21 view .LVU416
 1701 0004 4FF0FC32 		mov	r2, #-50529028	@ tmp118,
 1702              	@ ../Libraries/STM32F4xx_StdPeriph_Driver/src/stm32f4xx_fsmc.c:610:   FSMC_Bank4->PCR4 = 0x00000018
 610:../Libraries/STM32F4xx_StdPeriph_Driver/src/stm32f4xx_fsmc.c ****   FSMC_Bank4->SR4 = 0x00000000;	
 1703              		.loc 1 610 20 view .LVU417
 1704 0008 1820     		movs	r0, #24	@ tmp114,
 1705              	@ ../Libraries/STM32F4xx_StdPeriph_Driver/src/stm32f4xx_fsmc.c:611:   FSMC_Bank4->SR4 = 0x00000000;
 611:../Libraries/STM32F4xx_StdPeriph_Driver/src/stm32f4xx_fsmc.c ****   FSMC_Bank4->SR4 = 0x00000000;	
 1706              		.loc 1 611 19 view .LVU418
 1707 000a 0021     		movs	r1, #0	@ tmp116,
 1708              	@ ../Libraries/STM32F4xx_StdPeriph_Driver/src/stm32f4xx_fsmc.c:610:   FSMC_Bank4->PCR4 = 0x00000018
 610:../Libraries/STM32F4xx_StdPeriph_Driver/src/stm32f4xx_fsmc.c ****   FSMC_Bank4->SR4 = 0x00000000;	
 1709              		.loc 1 610 20 view .LVU419
 1710 000c C3F8A000 		str	r0, [r3, #160]	@ tmp114, MEM[(struct FSMC_Bank4_TypeDef *)2684354720B].PCR4
 611:../Libraries/STM32F4xx_StdPeriph_Driver/src/stm32f4xx_fsmc.c ****   FSMC_Bank4->SR4 = 0x00000000;	
 1711              		.loc 1 611 3 is_stmt 1 view .LVU420
ARM GAS  C:\Users\admin\AppData\Local\Temp\ccAkqsWz.s 			page 45


 1712              	@ ../Libraries/STM32F4xx_StdPeriph_Driver/src/stm32f4xx_fsmc.c:611:   FSMC_Bank4->SR4 = 0x00000000;
 611:../Libraries/STM32F4xx_StdPeriph_Driver/src/stm32f4xx_fsmc.c ****   FSMC_Bank4->SR4 = 0x00000000;	
 1713              		.loc 1 611 19 is_stmt 0 view .LVU421
 1714 0010 C3F8A410 		str	r1, [r3, #164]	@ tmp116, MEM[(struct FSMC_Bank4_TypeDef *)2684354720B].SR4
 1715              		.loc 1 612 3 is_stmt 1 view .LVU422
 1716              	@ ../Libraries/STM32F4xx_StdPeriph_Driver/src/stm32f4xx_fsmc.c:612:   FSMC_Bank4->PMEM4 = 0xFCFCFCF
 1717              		.loc 1 612 21 is_stmt 0 view .LVU423
 1718 0014 C3F8A820 		str	r2, [r3, #168]	@ tmp118, MEM[(struct FSMC_Bank4_TypeDef *)2684354720B].PMEM4
 613:../Libraries/STM32F4xx_StdPeriph_Driver/src/stm32f4xx_fsmc.c ****   FSMC_Bank4->PATT4 = 0xFCFCFCFC;
 1719              		.loc 1 613 3 is_stmt 1 view .LVU424
 1720              	@ ../Libraries/STM32F4xx_StdPeriph_Driver/src/stm32f4xx_fsmc.c:613:   FSMC_Bank4->PATT4 = 0xFCFCFCF
 1721              		.loc 1 613 21 is_stmt 0 view .LVU425
 1722 0018 C3F8AC20 		str	r2, [r3, #172]	@ tmp118, MEM[(struct FSMC_Bank4_TypeDef *)2684354720B].PATT4
 614:../Libraries/STM32F4xx_StdPeriph_Driver/src/stm32f4xx_fsmc.c ****   FSMC_Bank4->PIO4 = 0xFCFCFCFC;
 1723              		.loc 1 614 3 is_stmt 1 view .LVU426
 1724              	@ ../Libraries/STM32F4xx_StdPeriph_Driver/src/stm32f4xx_fsmc.c:614:   FSMC_Bank4->PIO4 = 0xFCFCFCFC
 1725              		.loc 1 614 20 is_stmt 0 view .LVU427
 1726 001c C3F8B020 		str	r2, [r3, #176]	@ tmp118, MEM[(struct FSMC_Bank4_TypeDef *)2684354720B].PIO4
 1727              	@ ../Libraries/STM32F4xx_StdPeriph_Driver/src/stm32f4xx_fsmc.c:615: }
 615:../Libraries/STM32F4xx_StdPeriph_Driver/src/stm32f4xx_fsmc.c **** }
 1728              		.loc 1 615 1 view .LVU428
 1729 0020 7047     		bx	lr	@
 1730              		.cfi_endproc
 1731              	.LFE120:
 1732              		.size	FSMC_PCCARDDeInit, .-FSMC_PCCARDDeInit
 1733 0022 00BF     		.section	.text.FSMC_PCCARDInit,"ax",%progbits
 1734              		.align	1
 1735              		.p2align 2,,3
 1736              		.global	FSMC_PCCARDInit
 1737              		.syntax unified
 1738              		.thumb
 1739              		.thumb_func
 1740              		.type	FSMC_PCCARDInit, %function
 1741              	FSMC_PCCARDInit:
 1742              	.LVL94:
 1743              	.LFB121:
 616:../Libraries/STM32F4xx_StdPeriph_Driver/src/stm32f4xx_fsmc.c **** 
 617:../Libraries/STM32F4xx_StdPeriph_Driver/src/stm32f4xx_fsmc.c **** /**
 618:../Libraries/STM32F4xx_StdPeriph_Driver/src/stm32f4xx_fsmc.c ****   * @brief  Initializes the FSMC PCCARD Bank according to the specified parameters
 619:../Libraries/STM32F4xx_StdPeriph_Driver/src/stm32f4xx_fsmc.c ****   *         in the FSMC_PCCARDInitStruct.
 620:../Libraries/STM32F4xx_StdPeriph_Driver/src/stm32f4xx_fsmc.c ****   * @param  FSMC_PCCARDInitStruct : pointer to a FSMC_PCCARDInitTypeDef structure
 621:../Libraries/STM32F4xx_StdPeriph_Driver/src/stm32f4xx_fsmc.c ****   *         that contains the configuration information for the FSMC PCCARD Bank.                  
 622:../Libraries/STM32F4xx_StdPeriph_Driver/src/stm32f4xx_fsmc.c ****   * @retval None
 623:../Libraries/STM32F4xx_StdPeriph_Driver/src/stm32f4xx_fsmc.c ****   */
 624:../Libraries/STM32F4xx_StdPeriph_Driver/src/stm32f4xx_fsmc.c **** void FSMC_PCCARDInit(FSMC_PCCARDInitTypeDef* FSMC_PCCARDInitStruct)
 625:../Libraries/STM32F4xx_StdPeriph_Driver/src/stm32f4xx_fsmc.c **** {
 1744              		.loc 1 625 1 is_stmt 1 view -0
 1745              		.cfi_startproc
 1746              		@ args = 0, pretend = 0, frame = 0
 1747              		@ frame_needed = 0, uses_anonymous_args = 0
 626:../Libraries/STM32F4xx_StdPeriph_Driver/src/stm32f4xx_fsmc.c ****   /* Check the parameters */
 627:../Libraries/STM32F4xx_StdPeriph_Driver/src/stm32f4xx_fsmc.c ****   assert_param(IS_FSMC_WAIT_FEATURE(FSMC_PCCARDInitStruct->FSMC_Waitfeature));
 1748              		.loc 1 627 3 view .LVU430
 1749              	@ ../Libraries/STM32F4xx_StdPeriph_Driver/src/stm32f4xx_fsmc.c:625: {
 625:../Libraries/STM32F4xx_StdPeriph_Driver/src/stm32f4xx_fsmc.c ****   /* Check the parameters */
 1750              		.loc 1 625 1 is_stmt 0 view .LVU431
 1751 0000 38B5     		push	{r3, r4, r5, lr}	@
ARM GAS  C:\Users\admin\AppData\Local\Temp\ccAkqsWz.s 			page 46


 1752              		.cfi_def_cfa_offset 16
 1753              		.cfi_offset 3, -16
 1754              		.cfi_offset 4, -12
 1755              		.cfi_offset 5, -8
 1756              		.cfi_offset 14, -4
 1757              	@ ../Libraries/STM32F4xx_StdPeriph_Driver/src/stm32f4xx_fsmc.c:627:   assert_param(IS_FSMC_WAIT_FEA
 1758              		.loc 1 627 3 view .LVU432
 1759 0002 0368     		ldr	r3, [r0]	@ FSMC_PCCARDInitStruct_99(D)->FSMC_Waitfeature, FSMC_PCCARDInitStruct_99(D)->FSMC_Wa
 1760              	@ ../Libraries/STM32F4xx_StdPeriph_Driver/src/stm32f4xx_fsmc.c:625: {
 625:../Libraries/STM32F4xx_StdPeriph_Driver/src/stm32f4xx_fsmc.c ****   /* Check the parameters */
 1761              		.loc 1 625 1 view .LVU433
 1762 0004 0446     		mov	r4, r0	@ FSMC_PCCARDInitStruct, tmp309
 1763              	@ ../Libraries/STM32F4xx_StdPeriph_Driver/src/stm32f4xx_fsmc.c:627:   assert_param(IS_FSMC_WAIT_FEA
 1764              		.loc 1 627 3 view .LVU434
 1765 0006 33F00203 		bics	r3, r3, #2	@ tmp311, FSMC_PCCARDInitStruct_99(D)->FSMC_Waitfeature,
 1766 000a 0CBF     		ite	eq
 1767 000c 0120     		moveq	r0, #1	@,
 1768              	.LVL95:
 1769              		.loc 1 627 3 view .LVU435
 1770 000e 0020     		movne	r0, #0	@,
 1771 0010 FFF7FEFF 		bl	assert_param		@
 1772              	.LVL96:
 628:../Libraries/STM32F4xx_StdPeriph_Driver/src/stm32f4xx_fsmc.c ****   assert_param(IS_FSMC_TCLR_TIME(FSMC_PCCARDInitStruct->FSMC_TCLRSetupTime));
 1773              		.loc 1 628 3 is_stmt 1 view .LVU436
 1774 0014 6068     		ldr	r0, [r4, #4]	@ FSMC_PCCARDInitStruct_99(D)->FSMC_TCLRSetupTime, FSMC_PCCARDInitStruct_99(D)->F
 1775 0016 FF28     		cmp	r0, #255	@ FSMC_PCCARDInitStruct_99(D)->FSMC_TCLRSetupTime,
 1776 0018 8CBF     		ite	hi
 1777 001a 0020     		movhi	r0, #0	@,
 1778 001c 0120     		movls	r0, #1	@,
 1779 001e FFF7FEFF 		bl	assert_param		@
 1780              	.LVL97:
 629:../Libraries/STM32F4xx_StdPeriph_Driver/src/stm32f4xx_fsmc.c ****   assert_param(IS_FSMC_TAR_TIME(FSMC_PCCARDInitStruct->FSMC_TARSetupTime));
 1781              		.loc 1 629 3 view .LVU437
 1782 0022 A068     		ldr	r0, [r4, #8]	@ FSMC_PCCARDInitStruct_99(D)->FSMC_TARSetupTime, FSMC_PCCARDInitStruct_99(D)->FS
 1783 0024 FF28     		cmp	r0, #255	@ FSMC_PCCARDInitStruct_99(D)->FSMC_TARSetupTime,
 1784 0026 8CBF     		ite	hi
 1785 0028 0020     		movhi	r0, #0	@,
 1786 002a 0120     		movls	r0, #1	@,
 1787 002c FFF7FEFF 		bl	assert_param		@
 1788              	.LVL98:
 630:../Libraries/STM32F4xx_StdPeriph_Driver/src/stm32f4xx_fsmc.c ****  
 631:../Libraries/STM32F4xx_StdPeriph_Driver/src/stm32f4xx_fsmc.c ****   assert_param(IS_FSMC_SETUP_TIME(FSMC_PCCARDInitStruct->FSMC_CommonSpaceTimingStruct->FSMC_SetupTi
 1789              		.loc 1 631 3 view .LVU438
 1790              	@ ../Libraries/STM32F4xx_StdPeriph_Driver/src/stm32f4xx_fsmc.c:631:   assert_param(IS_FSMC_SETUP_TI
 1791              		.loc 1 631 16 is_stmt 0 view .LVU439
 1792 0030 E368     		ldr	r3, [r4, #12]	@ FSMC_PCCARDInitStruct_99(D)->FSMC_CommonSpaceTimingStruct, FSMC_PCCARDInitStru
 1793              	@ ../Libraries/STM32F4xx_StdPeriph_Driver/src/stm32f4xx_fsmc.c:631:   assert_param(IS_FSMC_SETUP_TI
 1794              		.loc 1 631 3 view .LVU440
 1795 0032 1868     		ldr	r0, [r3]	@ _8->FSMC_SetupTime, _8->FSMC_SetupTime
 1796 0034 FF28     		cmp	r0, #255	@ _8->FSMC_SetupTime,
 1797 0036 8CBF     		ite	hi
 1798 0038 0020     		movhi	r0, #0	@,
 1799 003a 0120     		movls	r0, #1	@,
 1800 003c FFF7FEFF 		bl	assert_param		@
 1801              	.LVL99:
 632:../Libraries/STM32F4xx_StdPeriph_Driver/src/stm32f4xx_fsmc.c ****   assert_param(IS_FSMC_WAIT_TIME(FSMC_PCCARDInitStruct->FSMC_CommonSpaceTimingStruct->FSMC_WaitSetu
 1802              		.loc 1 632 3 is_stmt 1 view .LVU441
ARM GAS  C:\Users\admin\AppData\Local\Temp\ccAkqsWz.s 			page 47


 1803              	@ ../Libraries/STM32F4xx_StdPeriph_Driver/src/stm32f4xx_fsmc.c:632:   assert_param(IS_FSMC_WAIT_TIM
 1804              		.loc 1 632 16 is_stmt 0 view .LVU442
 1805 0040 E368     		ldr	r3, [r4, #12]	@ FSMC_PCCARDInitStruct_99(D)->FSMC_CommonSpaceTimingStruct, FSMC_PCCARDInitStru
 1806              	@ ../Libraries/STM32F4xx_StdPeriph_Driver/src/stm32f4xx_fsmc.c:632:   assert_param(IS_FSMC_WAIT_TIM
 1807              		.loc 1 632 3 view .LVU443
 1808 0042 5868     		ldr	r0, [r3, #4]	@ _12->FSMC_WaitSetupTime, _12->FSMC_WaitSetupTime
 1809 0044 FF28     		cmp	r0, #255	@ _12->FSMC_WaitSetupTime,
 1810 0046 8CBF     		ite	hi
 1811 0048 0020     		movhi	r0, #0	@,
 1812 004a 0120     		movls	r0, #1	@,
 1813 004c FFF7FEFF 		bl	assert_param		@
 1814              	.LVL100:
 633:../Libraries/STM32F4xx_StdPeriph_Driver/src/stm32f4xx_fsmc.c ****   assert_param(IS_FSMC_HOLD_TIME(FSMC_PCCARDInitStruct->FSMC_CommonSpaceTimingStruct->FSMC_HoldSetu
 1815              		.loc 1 633 3 is_stmt 1 view .LVU444
 1816              	@ ../Libraries/STM32F4xx_StdPeriph_Driver/src/stm32f4xx_fsmc.c:633:   assert_param(IS_FSMC_HOLD_TIM
 1817              		.loc 1 633 16 is_stmt 0 view .LVU445
 1818 0050 E368     		ldr	r3, [r4, #12]	@ FSMC_PCCARDInitStruct_99(D)->FSMC_CommonSpaceTimingStruct, FSMC_PCCARDInitStru
 1819              	@ ../Libraries/STM32F4xx_StdPeriph_Driver/src/stm32f4xx_fsmc.c:633:   assert_param(IS_FSMC_HOLD_TIM
 1820              		.loc 1 633 3 view .LVU446
 1821 0052 9868     		ldr	r0, [r3, #8]	@ _16->FSMC_HoldSetupTime, _16->FSMC_HoldSetupTime
 1822 0054 FF28     		cmp	r0, #255	@ _16->FSMC_HoldSetupTime,
 1823 0056 8CBF     		ite	hi
 1824 0058 0020     		movhi	r0, #0	@,
 1825 005a 0120     		movls	r0, #1	@,
 1826 005c FFF7FEFF 		bl	assert_param		@
 1827              	.LVL101:
 634:../Libraries/STM32F4xx_StdPeriph_Driver/src/stm32f4xx_fsmc.c ****   assert_param(IS_FSMC_HIZ_TIME(FSMC_PCCARDInitStruct->FSMC_CommonSpaceTimingStruct->FSMC_HiZSetupT
 1828              		.loc 1 634 3 is_stmt 1 view .LVU447
 1829              	@ ../Libraries/STM32F4xx_StdPeriph_Driver/src/stm32f4xx_fsmc.c:634:   assert_param(IS_FSMC_HIZ_TIME
 1830              		.loc 1 634 16 is_stmt 0 view .LVU448
 1831 0060 E368     		ldr	r3, [r4, #12]	@ FSMC_PCCARDInitStruct_99(D)->FSMC_CommonSpaceTimingStruct, FSMC_PCCARDInitStru
 1832              	@ ../Libraries/STM32F4xx_StdPeriph_Driver/src/stm32f4xx_fsmc.c:634:   assert_param(IS_FSMC_HIZ_TIME
 1833              		.loc 1 634 3 view .LVU449
 1834 0062 D868     		ldr	r0, [r3, #12]	@ _20->FSMC_HiZSetupTime, _20->FSMC_HiZSetupTime
 1835 0064 FF28     		cmp	r0, #255	@ _20->FSMC_HiZSetupTime,
 1836 0066 8CBF     		ite	hi
 1837 0068 0020     		movhi	r0, #0	@,
 1838 006a 0120     		movls	r0, #1	@,
 1839 006c FFF7FEFF 		bl	assert_param		@
 1840              	.LVL102:
 635:../Libraries/STM32F4xx_StdPeriph_Driver/src/stm32f4xx_fsmc.c ****   
 636:../Libraries/STM32F4xx_StdPeriph_Driver/src/stm32f4xx_fsmc.c ****   assert_param(IS_FSMC_SETUP_TIME(FSMC_PCCARDInitStruct->FSMC_AttributeSpaceTimingStruct->FSMC_Setu
 1841              		.loc 1 636 3 is_stmt 1 view .LVU450
 1842              	@ ../Libraries/STM32F4xx_StdPeriph_Driver/src/stm32f4xx_fsmc.c:636:   assert_param(IS_FSMC_SETUP_TI
 1843              		.loc 1 636 16 is_stmt 0 view .LVU451
 1844 0070 2369     		ldr	r3, [r4, #16]	@ FSMC_PCCARDInitStruct_99(D)->FSMC_AttributeSpaceTimingStruct, FSMC_PCCARDInitS
 1845              	@ ../Libraries/STM32F4xx_StdPeriph_Driver/src/stm32f4xx_fsmc.c:636:   assert_param(IS_FSMC_SETUP_TI
 1846              		.loc 1 636 3 view .LVU452
 1847 0072 1868     		ldr	r0, [r3]	@ _24->FSMC_SetupTime, _24->FSMC_SetupTime
 1848 0074 FF28     		cmp	r0, #255	@ _24->FSMC_SetupTime,
 1849 0076 8CBF     		ite	hi
 1850 0078 0020     		movhi	r0, #0	@,
 1851 007a 0120     		movls	r0, #1	@,
 1852 007c FFF7FEFF 		bl	assert_param		@
 1853              	.LVL103:
 637:../Libraries/STM32F4xx_StdPeriph_Driver/src/stm32f4xx_fsmc.c ****   assert_param(IS_FSMC_WAIT_TIME(FSMC_PCCARDInitStruct->FSMC_AttributeSpaceTimingStruct->FSMC_WaitS
 1854              		.loc 1 637 3 is_stmt 1 view .LVU453
ARM GAS  C:\Users\admin\AppData\Local\Temp\ccAkqsWz.s 			page 48


 1855              	@ ../Libraries/STM32F4xx_StdPeriph_Driver/src/stm32f4xx_fsmc.c:637:   assert_param(IS_FSMC_WAIT_TIM
 1856              		.loc 1 637 16 is_stmt 0 view .LVU454
 1857 0080 2369     		ldr	r3, [r4, #16]	@ FSMC_PCCARDInitStruct_99(D)->FSMC_AttributeSpaceTimingStruct, FSMC_PCCARDInitS
 1858              	@ ../Libraries/STM32F4xx_StdPeriph_Driver/src/stm32f4xx_fsmc.c:637:   assert_param(IS_FSMC_WAIT_TIM
 1859              		.loc 1 637 3 view .LVU455
 1860 0082 5868     		ldr	r0, [r3, #4]	@ _28->FSMC_WaitSetupTime, _28->FSMC_WaitSetupTime
 1861 0084 FF28     		cmp	r0, #255	@ _28->FSMC_WaitSetupTime,
 1862 0086 8CBF     		ite	hi
 1863 0088 0020     		movhi	r0, #0	@,
 1864 008a 0120     		movls	r0, #1	@,
 1865 008c FFF7FEFF 		bl	assert_param		@
 1866              	.LVL104:
 638:../Libraries/STM32F4xx_StdPeriph_Driver/src/stm32f4xx_fsmc.c ****   assert_param(IS_FSMC_HOLD_TIME(FSMC_PCCARDInitStruct->FSMC_AttributeSpaceTimingStruct->FSMC_HoldS
 1867              		.loc 1 638 3 is_stmt 1 view .LVU456
 1868              	@ ../Libraries/STM32F4xx_StdPeriph_Driver/src/stm32f4xx_fsmc.c:638:   assert_param(IS_FSMC_HOLD_TIM
 1869              		.loc 1 638 16 is_stmt 0 view .LVU457
 1870 0090 2369     		ldr	r3, [r4, #16]	@ FSMC_PCCARDInitStruct_99(D)->FSMC_AttributeSpaceTimingStruct, FSMC_PCCARDInitS
 1871              	@ ../Libraries/STM32F4xx_StdPeriph_Driver/src/stm32f4xx_fsmc.c:638:   assert_param(IS_FSMC_HOLD_TIM
 1872              		.loc 1 638 3 view .LVU458
 1873 0092 9868     		ldr	r0, [r3, #8]	@ _32->FSMC_HoldSetupTime, _32->FSMC_HoldSetupTime
 1874 0094 FF28     		cmp	r0, #255	@ _32->FSMC_HoldSetupTime,
 1875 0096 8CBF     		ite	hi
 1876 0098 0020     		movhi	r0, #0	@,
 1877 009a 0120     		movls	r0, #1	@,
 1878 009c FFF7FEFF 		bl	assert_param		@
 1879              	.LVL105:
 639:../Libraries/STM32F4xx_StdPeriph_Driver/src/stm32f4xx_fsmc.c ****   assert_param(IS_FSMC_HIZ_TIME(FSMC_PCCARDInitStruct->FSMC_AttributeSpaceTimingStruct->FSMC_HiZSet
 1880              		.loc 1 639 3 is_stmt 1 view .LVU459
 1881              	@ ../Libraries/STM32F4xx_StdPeriph_Driver/src/stm32f4xx_fsmc.c:639:   assert_param(IS_FSMC_HIZ_TIME
 1882              		.loc 1 639 16 is_stmt 0 view .LVU460
 1883 00a0 2369     		ldr	r3, [r4, #16]	@ FSMC_PCCARDInitStruct_99(D)->FSMC_AttributeSpaceTimingStruct, FSMC_PCCARDInitS
 1884              	@ ../Libraries/STM32F4xx_StdPeriph_Driver/src/stm32f4xx_fsmc.c:639:   assert_param(IS_FSMC_HIZ_TIME
 1885              		.loc 1 639 3 view .LVU461
 1886 00a2 D868     		ldr	r0, [r3, #12]	@ _36->FSMC_HiZSetupTime, _36->FSMC_HiZSetupTime
 1887 00a4 FF28     		cmp	r0, #255	@ _36->FSMC_HiZSetupTime,
 1888 00a6 8CBF     		ite	hi
 1889 00a8 0020     		movhi	r0, #0	@,
 1890 00aa 0120     		movls	r0, #1	@,
 1891 00ac FFF7FEFF 		bl	assert_param		@
 1892              	.LVL106:
 640:../Libraries/STM32F4xx_StdPeriph_Driver/src/stm32f4xx_fsmc.c ****   assert_param(IS_FSMC_SETUP_TIME(FSMC_PCCARDInitStruct->FSMC_IOSpaceTimingStruct->FSMC_SetupTime))
 1893              		.loc 1 640 3 is_stmt 1 view .LVU462
 1894              	@ ../Libraries/STM32F4xx_StdPeriph_Driver/src/stm32f4xx_fsmc.c:640:   assert_param(IS_FSMC_SETUP_TI
 1895              		.loc 1 640 16 is_stmt 0 view .LVU463
 1896 00b0 6369     		ldr	r3, [r4, #20]	@ FSMC_PCCARDInitStruct_99(D)->FSMC_IOSpaceTimingStruct, FSMC_PCCARDInitStruct_9
 1897              	@ ../Libraries/STM32F4xx_StdPeriph_Driver/src/stm32f4xx_fsmc.c:640:   assert_param(IS_FSMC_SETUP_TI
 1898              		.loc 1 640 3 view .LVU464
 1899 00b2 1868     		ldr	r0, [r3]	@ _40->FSMC_SetupTime, _40->FSMC_SetupTime
 1900 00b4 FF28     		cmp	r0, #255	@ _40->FSMC_SetupTime,
 1901 00b6 8CBF     		ite	hi
 1902 00b8 0020     		movhi	r0, #0	@,
 1903 00ba 0120     		movls	r0, #1	@,
 1904 00bc FFF7FEFF 		bl	assert_param		@
 1905              	.LVL107:
 641:../Libraries/STM32F4xx_StdPeriph_Driver/src/stm32f4xx_fsmc.c ****   assert_param(IS_FSMC_WAIT_TIME(FSMC_PCCARDInitStruct->FSMC_IOSpaceTimingStruct->FSMC_WaitSetupTim
 1906              		.loc 1 641 3 is_stmt 1 view .LVU465
 1907              	@ ../Libraries/STM32F4xx_StdPeriph_Driver/src/stm32f4xx_fsmc.c:641:   assert_param(IS_FSMC_WAIT_TIM
ARM GAS  C:\Users\admin\AppData\Local\Temp\ccAkqsWz.s 			page 49


 1908              		.loc 1 641 16 is_stmt 0 view .LVU466
 1909 00c0 6369     		ldr	r3, [r4, #20]	@ FSMC_PCCARDInitStruct_99(D)->FSMC_IOSpaceTimingStruct, FSMC_PCCARDInitStruct_9
 1910              	@ ../Libraries/STM32F4xx_StdPeriph_Driver/src/stm32f4xx_fsmc.c:641:   assert_param(IS_FSMC_WAIT_TIM
 1911              		.loc 1 641 3 view .LVU467
 1912 00c2 5868     		ldr	r0, [r3, #4]	@ _44->FSMC_WaitSetupTime, _44->FSMC_WaitSetupTime
 1913 00c4 FF28     		cmp	r0, #255	@ _44->FSMC_WaitSetupTime,
 1914 00c6 8CBF     		ite	hi
 1915 00c8 0020     		movhi	r0, #0	@,
 1916 00ca 0120     		movls	r0, #1	@,
 1917 00cc FFF7FEFF 		bl	assert_param		@
 1918              	.LVL108:
 642:../Libraries/STM32F4xx_StdPeriph_Driver/src/stm32f4xx_fsmc.c ****   assert_param(IS_FSMC_HOLD_TIME(FSMC_PCCARDInitStruct->FSMC_IOSpaceTimingStruct->FSMC_HoldSetupTim
 1919              		.loc 1 642 3 is_stmt 1 view .LVU468
 1920              	@ ../Libraries/STM32F4xx_StdPeriph_Driver/src/stm32f4xx_fsmc.c:642:   assert_param(IS_FSMC_HOLD_TIM
 1921              		.loc 1 642 16 is_stmt 0 view .LVU469
 1922 00d0 6369     		ldr	r3, [r4, #20]	@ FSMC_PCCARDInitStruct_99(D)->FSMC_IOSpaceTimingStruct, FSMC_PCCARDInitStruct_9
 1923              	@ ../Libraries/STM32F4xx_StdPeriph_Driver/src/stm32f4xx_fsmc.c:642:   assert_param(IS_FSMC_HOLD_TIM
 1924              		.loc 1 642 3 view .LVU470
 1925 00d2 9868     		ldr	r0, [r3, #8]	@ _48->FSMC_HoldSetupTime, _48->FSMC_HoldSetupTime
 1926 00d4 FF28     		cmp	r0, #255	@ _48->FSMC_HoldSetupTime,
 1927 00d6 8CBF     		ite	hi
 1928 00d8 0020     		movhi	r0, #0	@,
 1929 00da 0120     		movls	r0, #1	@,
 1930 00dc FFF7FEFF 		bl	assert_param		@
 1931              	.LVL109:
 643:../Libraries/STM32F4xx_StdPeriph_Driver/src/stm32f4xx_fsmc.c ****   assert_param(IS_FSMC_HIZ_TIME(FSMC_PCCARDInitStruct->FSMC_IOSpaceTimingStruct->FSMC_HiZSetupTime)
 1932              		.loc 1 643 3 is_stmt 1 view .LVU471
 1933              	@ ../Libraries/STM32F4xx_StdPeriph_Driver/src/stm32f4xx_fsmc.c:643:   assert_param(IS_FSMC_HIZ_TIME
 1934              		.loc 1 643 16 is_stmt 0 view .LVU472
 1935 00e0 6369     		ldr	r3, [r4, #20]	@ FSMC_PCCARDInitStruct_99(D)->FSMC_IOSpaceTimingStruct, FSMC_PCCARDInitStruct_9
 1936              	@ ../Libraries/STM32F4xx_StdPeriph_Driver/src/stm32f4xx_fsmc.c:643:   assert_param(IS_FSMC_HIZ_TIME
 1937              		.loc 1 643 3 view .LVU473
 1938 00e2 D868     		ldr	r0, [r3, #12]	@ _52->FSMC_HiZSetupTime, _52->FSMC_HiZSetupTime
 1939 00e4 FF28     		cmp	r0, #255	@ _52->FSMC_HiZSetupTime,
 1940 00e6 8CBF     		ite	hi
 1941 00e8 0020     		movhi	r0, #0	@,
 1942 00ea 0120     		movls	r0, #1	@,
 1943 00ec FFF7FEFF 		bl	assert_param		@
 1944              	.LVL110:
 644:../Libraries/STM32F4xx_StdPeriph_Driver/src/stm32f4xx_fsmc.c ****   
 645:../Libraries/STM32F4xx_StdPeriph_Driver/src/stm32f4xx_fsmc.c ****   /* Set the PCR4 register value according to FSMC_PCCARDInitStruct parameters */
 646:../Libraries/STM32F4xx_StdPeriph_Driver/src/stm32f4xx_fsmc.c ****   FSMC_Bank4->PCR4 = (uint32_t)FSMC_PCCARDInitStruct->FSMC_Waitfeature |
 1945              		.loc 1 646 3 is_stmt 1 view .LVU474
 1946              	@ ../Libraries/STM32F4xx_StdPeriph_Driver/src/stm32f4xx_fsmc.c:648:                      (FSMC_PCCA
 647:../Libraries/STM32F4xx_StdPeriph_Driver/src/stm32f4xx_fsmc.c ****                      FSMC_MemoryDataWidth_16b |  
 648:../Libraries/STM32F4xx_StdPeriph_Driver/src/stm32f4xx_fsmc.c ****                      (FSMC_PCCARDInitStruct->FSMC_TCLRSetupTime << 9) |
 1947              		.loc 1 648 65 is_stmt 0 view .LVU475
 1948 00f0 D4E90123 		ldrd	r2, r3, [r4, #4]	@ FSMC_PCCARDInitStruct_99(D)->FSMC_TCLRSetupTime, FSMC_PCCARDInitStruct_99(
 1949              	@ ../Libraries/STM32F4xx_StdPeriph_Driver/src/stm32f4xx_fsmc.c:648:                      (FSMC_PCCA
 1950              		.loc 1 648 71 view .LVU476
 1951 00f4 2168     		ldr	r1, [r4]	@ FSMC_PCCARDInitStruct_99(D)->FSMC_Waitfeature, FSMC_PCCARDInitStruct_99(D)->FSMC_Wa
 1952              	@ ../Libraries/STM32F4xx_StdPeriph_Driver/src/stm32f4xx_fsmc.c:649:                      (FSMC_PCCA
 649:../Libraries/STM32F4xx_StdPeriph_Driver/src/stm32f4xx_fsmc.c ****                      (FSMC_PCCARDInitStruct->FSMC_TARSetupTime << 13);
 1953              		.loc 1 649 64 view .LVU477
 1954 00f6 5B03     		lsls	r3, r3, #13	@ tmp273, FSMC_PCCARDInitStruct_99(D)->FSMC_TARSetupTime,
 1955              	@ ../Libraries/STM32F4xx_StdPeriph_Driver/src/stm32f4xx_fsmc.c:648:                      (FSMC_PCCA
 648:../Libraries/STM32F4xx_StdPeriph_Driver/src/stm32f4xx_fsmc.c ****                      (FSMC_PCCARDInitStruct->FSMC_TARSetupTime << 13);
ARM GAS  C:\Users\admin\AppData\Local\Temp\ccAkqsWz.s 			page 50


 1956              		.loc 1 648 71 view .LVU478
 1957 00f8 43EA4223 		orr	r3, r3, r2, lsl #9	@ tmp275, tmp273, FSMC_PCCARDInitStruct_99(D)->FSMC_TCLRSetupTime,
 1958 00fc 0B43     		orrs	r3, r3, r1	@, tmp276, tmp275, FSMC_PCCARDInitStruct_99(D)->FSMC_Waitfeature
 1959              	@ ../Libraries/STM32F4xx_StdPeriph_Driver/src/stm32f4xx_fsmc.c:646:   FSMC_Bank4->PCR4 = (uint32_t)
 646:../Libraries/STM32F4xx_StdPeriph_Driver/src/stm32f4xx_fsmc.c ****                      FSMC_MemoryDataWidth_16b |  
 1960              		.loc 1 646 20 view .LVU479
 1961 00fe 4FF02042 		mov	r2, #-1610612736	@ tmp278,
 1962              	@ ../Libraries/STM32F4xx_StdPeriph_Driver/src/stm32f4xx_fsmc.c:652:   FSMC_Bank4->PMEM4 = (uint32_t
 650:../Libraries/STM32F4xx_StdPeriph_Driver/src/stm32f4xx_fsmc.c ****             
 651:../Libraries/STM32F4xx_StdPeriph_Driver/src/stm32f4xx_fsmc.c ****   /* Set PMEM4 register value according to FSMC_CommonSpaceTimingStructure parameters */
 652:../Libraries/STM32F4xx_StdPeriph_Driver/src/stm32f4xx_fsmc.c ****   FSMC_Bank4->PMEM4 = (uint32_t)FSMC_PCCARDInitStruct->FSMC_CommonSpaceTimingStruct->FSMC_SetupTime
 1963              		.loc 1 652 54 view .LVU480
 1964 0102 E168     		ldr	r1, [r4, #12]	@ _64, FSMC_PCCARDInitStruct_99(D)->FSMC_CommonSpaceTimingStruct
 1965              	@ ../Libraries/STM32F4xx_StdPeriph_Driver/src/stm32f4xx_fsmc.c:648:                      (FSMC_PCCA
 648:../Libraries/STM32F4xx_StdPeriph_Driver/src/stm32f4xx_fsmc.c ****                      (FSMC_PCCARDInitStruct->FSMC_TARSetupTime << 13);
 1966              		.loc 1 648 71 view .LVU481
 1967 0104 43F01003 		orr	r3, r3, #16	@ _63, tmp276,
 1968              	@ ../Libraries/STM32F4xx_StdPeriph_Driver/src/stm32f4xx_fsmc.c:646:   FSMC_Bank4->PCR4 = (uint32_t)
 646:../Libraries/STM32F4xx_StdPeriph_Driver/src/stm32f4xx_fsmc.c ****                      FSMC_MemoryDataWidth_16b |  
 1969              		.loc 1 646 20 view .LVU482
 1970 0108 C2F8A030 		str	r3, [r2, #160]	@ _63, MEM[(struct FSMC_Bank4_TypeDef *)2684354720B].PCR4
 1971              		.loc 1 652 3 is_stmt 1 view .LVU483
 1972              	@ ../Libraries/STM32F4xx_StdPeriph_Driver/src/stm32f4xx_fsmc.c:654:                       (FSMC_PCC
 653:../Libraries/STM32F4xx_StdPeriph_Driver/src/stm32f4xx_fsmc.c ****                       (FSMC_PCCARDInitStruct->FSMC_CommonSpaceTimingStruct->FSMC_WaitSetupTime << 8
 654:../Libraries/STM32F4xx_StdPeriph_Driver/src/stm32f4xx_fsmc.c ****                       (FSMC_PCCARDInitStruct->FSMC_CommonSpaceTimingStruct->FSMC_HoldSetupTime << 1
 1973              		.loc 1 654 96 is_stmt 0 view .LVU484
 1974 010c D1E90103 		ldrd	r0, r3, [r1, #4]	@ _64->FSMC_WaitSetupTime, _64->FSMC_HoldSetupTime, _64,
 1975              	@ ../Libraries/STM32F4xx_StdPeriph_Driver/src/stm32f4xx_fsmc.c:653:                       (FSMC_PCC
 653:../Libraries/STM32F4xx_StdPeriph_Driver/src/stm32f4xx_fsmc.c ****                       (FSMC_PCCARDInitStruct->FSMC_CommonSpaceTimingStruct->FSMC_WaitSetupTime << 8
 1976              		.loc 1 653 102 view .LVU485
 1977 0110 0D68     		ldr	r5, [r1]	@ _64->FSMC_SetupTime, _64->FSMC_SetupTime
 1978              	@ ../Libraries/STM32F4xx_StdPeriph_Driver/src/stm32f4xx_fsmc.c:654:                       (FSMC_PCC
 1979              		.loc 1 654 96 view .LVU486
 1980 0112 1B04     		lsls	r3, r3, #16	@ tmp281, _64->FSMC_HoldSetupTime,
 1981              	@ ../Libraries/STM32F4xx_StdPeriph_Driver/src/stm32f4xx_fsmc.c:653:                       (FSMC_PCC
 653:../Libraries/STM32F4xx_StdPeriph_Driver/src/stm32f4xx_fsmc.c ****                       (FSMC_PCCARDInitStruct->FSMC_CommonSpaceTimingStruct->FSMC_WaitSetupTime << 8
 1982              		.loc 1 653 102 view .LVU487
 1983 0114 43EA0023 		orr	r3, r3, r0, lsl #8	@ tmp283, tmp281, _64->FSMC_WaitSetupTime,
 1984              	@ ../Libraries/STM32F4xx_StdPeriph_Driver/src/stm32f4xx_fsmc.c:655:                       (FSMC_PCC
 655:../Libraries/STM32F4xx_StdPeriph_Driver/src/stm32f4xx_fsmc.c ****                       (FSMC_PCCARDInitStruct->FSMC_CommonSpaceTimingStruct->FSMC_HiZSetupTime << 24
 1985              		.loc 1 655 95 view .LVU488
 1986 0118 C868     		ldr	r0, [r1, #12]	@ _64->FSMC_HiZSetupTime, _64->FSMC_HiZSetupTime
 1987              	@ ../Libraries/STM32F4xx_StdPeriph_Driver/src/stm32f4xx_fsmc.c:658:   FSMC_Bank4->PATT4 = (uint32_t
 656:../Libraries/STM32F4xx_StdPeriph_Driver/src/stm32f4xx_fsmc.c ****             
 657:../Libraries/STM32F4xx_StdPeriph_Driver/src/stm32f4xx_fsmc.c ****   /* Set PATT4 register value according to FSMC_AttributeSpaceTimingStructure parameters */
 658:../Libraries/STM32F4xx_StdPeriph_Driver/src/stm32f4xx_fsmc.c ****   FSMC_Bank4->PATT4 = (uint32_t)FSMC_PCCARDInitStruct->FSMC_AttributeSpaceTimingStruct->FSMC_SetupT
 1988              		.loc 1 658 54 view .LVU489
 1989 011a 2169     		ldr	r1, [r4, #16]	@ _75, FSMC_PCCARDInitStruct_99(D)->FSMC_AttributeSpaceTimingStruct
 1990              	@ ../Libraries/STM32F4xx_StdPeriph_Driver/src/stm32f4xx_fsmc.c:653:                       (FSMC_PCC
 653:../Libraries/STM32F4xx_StdPeriph_Driver/src/stm32f4xx_fsmc.c ****                       (FSMC_PCCARDInitStruct->FSMC_CommonSpaceTimingStruct->FSMC_HoldSetupTime << 1
 1991              		.loc 1 653 102 view .LVU490
 1992 011c 2B43     		orrs	r3, r3, r5	@, tmp284, tmp283, _64->FSMC_SetupTime
 1993              	@ ../Libraries/STM32F4xx_StdPeriph_Driver/src/stm32f4xx_fsmc.c:654:                       (FSMC_PCC
 654:../Libraries/STM32F4xx_StdPeriph_Driver/src/stm32f4xx_fsmc.c ****                       (FSMC_PCCARDInitStruct->FSMC_CommonSpaceTimingStruct->FSMC_HiZSetupTime << 24
 1994              		.loc 1 654 102 view .LVU491
 1995 011e 43EA0063 		orr	r3, r3, r0, lsl #24	@ _74, tmp284, _64->FSMC_HiZSetupTime,
 1996              	@ ../Libraries/STM32F4xx_StdPeriph_Driver/src/stm32f4xx_fsmc.c:652:   FSMC_Bank4->PMEM4 = (uint32_t
ARM GAS  C:\Users\admin\AppData\Local\Temp\ccAkqsWz.s 			page 51


 652:../Libraries/STM32F4xx_StdPeriph_Driver/src/stm32f4xx_fsmc.c ****                       (FSMC_PCCARDInitStruct->FSMC_CommonSpaceTimingStruct->FSMC_WaitSetupTime << 8
 1997              		.loc 1 652 21 view .LVU492
 1998 0122 C2F8A830 		str	r3, [r2, #168]	@ _74, MEM[(struct FSMC_Bank4_TypeDef *)2684354720B].PMEM4
 1999              		.loc 1 658 3 is_stmt 1 view .LVU493
 2000              	@ ../Libraries/STM32F4xx_StdPeriph_Driver/src/stm32f4xx_fsmc.c:659:                       (FSMC_PCC
 659:../Libraries/STM32F4xx_StdPeriph_Driver/src/stm32f4xx_fsmc.c ****                       (FSMC_PCCARDInitStruct->FSMC_AttributeSpaceTimingStruct->FSMC_WaitSetupTime <
 2001              		.loc 1 659 99 is_stmt 0 view .LVU494
 2002 0126 D1E90103 		ldrd	r0, r3, [r1, #4]	@ _75->FSMC_WaitSetupTime, _75->FSMC_HoldSetupTime, _75,
 2003              	@ ../Libraries/STM32F4xx_StdPeriph_Driver/src/stm32f4xx_fsmc.c:659:                       (FSMC_PCC
 2004              		.loc 1 659 105 view .LVU495
 2005 012a 0D68     		ldr	r5, [r1]	@ _75->FSMC_SetupTime, _75->FSMC_SetupTime
 2006              	@ ../Libraries/STM32F4xx_StdPeriph_Driver/src/stm32f4xx_fsmc.c:660:                       (FSMC_PCC
 660:../Libraries/STM32F4xx_StdPeriph_Driver/src/stm32f4xx_fsmc.c ****                       (FSMC_PCCARDInitStruct->FSMC_AttributeSpaceTimingStruct->FSMC_HoldSetupTime <
 2007              		.loc 1 660 99 view .LVU496
 2008 012c 1B04     		lsls	r3, r3, #16	@ tmp291, _75->FSMC_HoldSetupTime,
 2009              	@ ../Libraries/STM32F4xx_StdPeriph_Driver/src/stm32f4xx_fsmc.c:659:                       (FSMC_PCC
 659:../Libraries/STM32F4xx_StdPeriph_Driver/src/stm32f4xx_fsmc.c ****                       (FSMC_PCCARDInitStruct->FSMC_AttributeSpaceTimingStruct->FSMC_WaitSetupTime <
 2010              		.loc 1 659 105 view .LVU497
 2011 012e 43EA0023 		orr	r3, r3, r0, lsl #8	@ tmp293, tmp291, _75->FSMC_WaitSetupTime,
 2012              	@ ../Libraries/STM32F4xx_StdPeriph_Driver/src/stm32f4xx_fsmc.c:661:                       (FSMC_PCC
 661:../Libraries/STM32F4xx_StdPeriph_Driver/src/stm32f4xx_fsmc.c ****                       (FSMC_PCCARDInitStruct->FSMC_AttributeSpaceTimingStruct->FSMC_HiZSetupTime <<
 2013              		.loc 1 661 98 view .LVU498
 2014 0132 C868     		ldr	r0, [r1, #12]	@ _75->FSMC_HiZSetupTime, _75->FSMC_HiZSetupTime
 2015              	@ ../Libraries/STM32F4xx_StdPeriph_Driver/src/stm32f4xx_fsmc.c:664:   FSMC_Bank4->PIO4 = (uint32_t)
 662:../Libraries/STM32F4xx_StdPeriph_Driver/src/stm32f4xx_fsmc.c ****             
 663:../Libraries/STM32F4xx_StdPeriph_Driver/src/stm32f4xx_fsmc.c ****   /* Set PIO4 register value according to FSMC_IOSpaceTimingStructure parameters */
 664:../Libraries/STM32F4xx_StdPeriph_Driver/src/stm32f4xx_fsmc.c ****   FSMC_Bank4->PIO4 = (uint32_t)FSMC_PCCARDInitStruct->FSMC_IOSpaceTimingStruct->FSMC_SetupTime |
 2016              		.loc 1 664 53 view .LVU499
 2017 0134 6169     		ldr	r1, [r4, #20]	@ _86, FSMC_PCCARDInitStruct_99(D)->FSMC_IOSpaceTimingStruct
 2018              	@ ../Libraries/STM32F4xx_StdPeriph_Driver/src/stm32f4xx_fsmc.c:659:                       (FSMC_PCC
 659:../Libraries/STM32F4xx_StdPeriph_Driver/src/stm32f4xx_fsmc.c ****                       (FSMC_PCCARDInitStruct->FSMC_AttributeSpaceTimingStruct->FSMC_HoldSetupTime <
 2019              		.loc 1 659 105 view .LVU500
 2020 0136 2B43     		orrs	r3, r3, r5	@, tmp294, tmp293, _75->FSMC_SetupTime
 2021              	@ ../Libraries/STM32F4xx_StdPeriph_Driver/src/stm32f4xx_fsmc.c:660:                       (FSMC_PCC
 660:../Libraries/STM32F4xx_StdPeriph_Driver/src/stm32f4xx_fsmc.c ****                       (FSMC_PCCARDInitStruct->FSMC_AttributeSpaceTimingStruct->FSMC_HiZSetupTime <<
 2022              		.loc 1 660 105 view .LVU501
 2023 0138 43EA0063 		orr	r3, r3, r0, lsl #24	@ _85, tmp294, _75->FSMC_HiZSetupTime,
 2024              	@ ../Libraries/STM32F4xx_StdPeriph_Driver/src/stm32f4xx_fsmc.c:658:   FSMC_Bank4->PATT4 = (uint32_t
 658:../Libraries/STM32F4xx_StdPeriph_Driver/src/stm32f4xx_fsmc.c ****                       (FSMC_PCCARDInitStruct->FSMC_AttributeSpaceTimingStruct->FSMC_WaitSetupTime <
 2025              		.loc 1 658 21 view .LVU502
 2026 013c C2F8AC30 		str	r3, [r2, #172]	@ _85, MEM[(struct FSMC_Bank4_TypeDef *)2684354720B].PATT4
 2027              		.loc 1 664 3 is_stmt 1 view .LVU503
 2028              	@ ../Libraries/STM32F4xx_StdPeriph_Driver/src/stm32f4xx_fsmc.c:665:                      (FSMC_PCCA
 665:../Libraries/STM32F4xx_StdPeriph_Driver/src/stm32f4xx_fsmc.c ****                      (FSMC_PCCARDInitStruct->FSMC_IOSpaceTimingStruct->FSMC_WaitSetupTime << 8) |
 2029              		.loc 1 665 91 is_stmt 0 view .LVU504
 2030 0140 D1E90143 		ldrd	r4, r3, [r1, #4]	@ _86->FSMC_WaitSetupTime, _86->FSMC_HoldSetupTime, _86,
 2031              	.LVL111:
 2032              	@ ../Libraries/STM32F4xx_StdPeriph_Driver/src/stm32f4xx_fsmc.c:665:                      (FSMC_PCCA
 2033              		.loc 1 665 97 view .LVU505
 2034 0144 0868     		ldr	r0, [r1]	@ _86->FSMC_SetupTime, _86->FSMC_SetupTime
 2035              	@ ../Libraries/STM32F4xx_StdPeriph_Driver/src/stm32f4xx_fsmc.c:667:                      (FSMC_PCCA
 666:../Libraries/STM32F4xx_StdPeriph_Driver/src/stm32f4xx_fsmc.c ****                      (FSMC_PCCARDInitStruct->FSMC_IOSpaceTimingStruct->FSMC_HoldSetupTime << 16)|
 667:../Libraries/STM32F4xx_StdPeriph_Driver/src/stm32f4xx_fsmc.c ****                      (FSMC_PCCARDInitStruct->FSMC_IOSpaceTimingStruct->FSMC_HiZSetupTime << 24);   
 2036              		.loc 1 667 90 view .LVU506
 2037 0146 C968     		ldr	r1, [r1, #12]	@ _86->FSMC_HiZSetupTime, _86->FSMC_HiZSetupTime
 2038              	@ ../Libraries/STM32F4xx_StdPeriph_Driver/src/stm32f4xx_fsmc.c:666:                      (FSMC_PCCA
 666:../Libraries/STM32F4xx_StdPeriph_Driver/src/stm32f4xx_fsmc.c ****                      (FSMC_PCCARDInitStruct->FSMC_IOSpaceTimingStruct->FSMC_HoldSetupTime << 16)|
ARM GAS  C:\Users\admin\AppData\Local\Temp\ccAkqsWz.s 			page 52


 2039              		.loc 1 666 91 view .LVU507
 2040 0148 1B04     		lsls	r3, r3, #16	@ tmp301, _86->FSMC_HoldSetupTime,
 2041              	@ ../Libraries/STM32F4xx_StdPeriph_Driver/src/stm32f4xx_fsmc.c:665:                      (FSMC_PCCA
 665:../Libraries/STM32F4xx_StdPeriph_Driver/src/stm32f4xx_fsmc.c ****                      (FSMC_PCCARDInitStruct->FSMC_IOSpaceTimingStruct->FSMC_WaitSetupTime << 8) |
 2042              		.loc 1 665 97 view .LVU508
 2043 014a 43EA0423 		orr	r3, r3, r4, lsl #8	@ tmp303, tmp301, _86->FSMC_WaitSetupTime,
 2044 014e 0343     		orrs	r3, r3, r0	@, tmp304, tmp303, _86->FSMC_SetupTime
 2045              	@ ../Libraries/STM32F4xx_StdPeriph_Driver/src/stm32f4xx_fsmc.c:666:                      (FSMC_PCCA
 666:../Libraries/STM32F4xx_StdPeriph_Driver/src/stm32f4xx_fsmc.c ****                      (FSMC_PCCARDInitStruct->FSMC_IOSpaceTimingStruct->FSMC_HoldSetupTime << 16)|
 2046              		.loc 1 666 97 view .LVU509
 2047 0150 43EA0163 		orr	r3, r3, r1, lsl #24	@ _96, tmp304, _86->FSMC_HiZSetupTime,
 2048              	@ ../Libraries/STM32F4xx_StdPeriph_Driver/src/stm32f4xx_fsmc.c:664:   FSMC_Bank4->PIO4 = (uint32_t)
 664:../Libraries/STM32F4xx_StdPeriph_Driver/src/stm32f4xx_fsmc.c ****                      (FSMC_PCCARDInitStruct->FSMC_IOSpaceTimingStruct->FSMC_WaitSetupTime << 8) |
 2049              		.loc 1 664 20 view .LVU510
 2050 0154 C2F8B030 		str	r3, [r2, #176]	@ _96, MEM[(struct FSMC_Bank4_TypeDef *)2684354720B].PIO4
 2051              	@ ../Libraries/STM32F4xx_StdPeriph_Driver/src/stm32f4xx_fsmc.c:668: }
 668:../Libraries/STM32F4xx_StdPeriph_Driver/src/stm32f4xx_fsmc.c **** }
 2052              		.loc 1 668 1 view .LVU511
 2053 0158 38BD     		pop	{r3, r4, r5, pc}	@
 2054              		.cfi_endproc
 2055              	.LFE121:
 2056              		.size	FSMC_PCCARDInit, .-FSMC_PCCARDInit
 2057 015a 00BF     		.section	.text.FSMC_PCCARDStructInit,"ax",%progbits
 2058              		.align	1
 2059              		.p2align 2,,3
 2060              		.global	FSMC_PCCARDStructInit
 2061              		.syntax unified
 2062              		.thumb
 2063              		.thumb_func
 2064              		.type	FSMC_PCCARDStructInit, %function
 2065              	FSMC_PCCARDStructInit:
 2066              	.LVL112:
 2067              	.LFB122:
 669:../Libraries/STM32F4xx_StdPeriph_Driver/src/stm32f4xx_fsmc.c **** 
 670:../Libraries/STM32F4xx_StdPeriph_Driver/src/stm32f4xx_fsmc.c **** /**
 671:../Libraries/STM32F4xx_StdPeriph_Driver/src/stm32f4xx_fsmc.c ****   * @brief  Fills each FSMC_PCCARDInitStruct member with its default value.
 672:../Libraries/STM32F4xx_StdPeriph_Driver/src/stm32f4xx_fsmc.c ****   * @param  FSMC_PCCARDInitStruct: pointer to a FSMC_PCCARDInitTypeDef structure
 673:../Libraries/STM32F4xx_StdPeriph_Driver/src/stm32f4xx_fsmc.c ****   *         which will be initialized.
 674:../Libraries/STM32F4xx_StdPeriph_Driver/src/stm32f4xx_fsmc.c ****   * @retval None
 675:../Libraries/STM32F4xx_StdPeriph_Driver/src/stm32f4xx_fsmc.c ****   */
 676:../Libraries/STM32F4xx_StdPeriph_Driver/src/stm32f4xx_fsmc.c **** void FSMC_PCCARDStructInit(FSMC_PCCARDInitTypeDef* FSMC_PCCARDInitStruct)
 677:../Libraries/STM32F4xx_StdPeriph_Driver/src/stm32f4xx_fsmc.c **** {
 2068              		.loc 1 677 1 is_stmt 1 view -0
 2069              		.cfi_startproc
 2070              		@ args = 0, pretend = 0, frame = 0
 2071              		@ frame_needed = 0, uses_anonymous_args = 0
 2072              		@ link register save eliminated.
 678:../Libraries/STM32F4xx_StdPeriph_Driver/src/stm32f4xx_fsmc.c ****   /* Reset PCCARD Init structure parameters values */
 679:../Libraries/STM32F4xx_StdPeriph_Driver/src/stm32f4xx_fsmc.c ****   FSMC_PCCARDInitStruct->FSMC_Waitfeature = FSMC_Waitfeature_Disable;
 2073              		.loc 1 679 3 view .LVU513
 2074              	@ ../Libraries/STM32F4xx_StdPeriph_Driver/src/stm32f4xx_fsmc.c:677: {
 677:../Libraries/STM32F4xx_StdPeriph_Driver/src/stm32f4xx_fsmc.c ****   /* Reset PCCARD Init structure parameters values */
 2075              		.loc 1 677 1 is_stmt 0 view .LVU514
 2076 0000 30B4     		push	{r4, r5}	@
 2077              		.cfi_def_cfa_offset 8
 2078              		.cfi_offset 4, -8
 2079              		.cfi_offset 5, -4
ARM GAS  C:\Users\admin\AppData\Local\Temp\ccAkqsWz.s 			page 53


 2080              	@ ../Libraries/STM32F4xx_StdPeriph_Driver/src/stm32f4xx_fsmc.c:686:   FSMC_PCCARDInitStruct->FSMC_A
 680:../Libraries/STM32F4xx_StdPeriph_Driver/src/stm32f4xx_fsmc.c ****   FSMC_PCCARDInitStruct->FSMC_TCLRSetupTime = 0x0;
 681:../Libraries/STM32F4xx_StdPeriph_Driver/src/stm32f4xx_fsmc.c ****   FSMC_PCCARDInitStruct->FSMC_TARSetupTime = 0x0;
 682:../Libraries/STM32F4xx_StdPeriph_Driver/src/stm32f4xx_fsmc.c ****   FSMC_PCCARDInitStruct->FSMC_CommonSpaceTimingStruct->FSMC_SetupTime = 0xFC;
 683:../Libraries/STM32F4xx_StdPeriph_Driver/src/stm32f4xx_fsmc.c ****   FSMC_PCCARDInitStruct->FSMC_CommonSpaceTimingStruct->FSMC_WaitSetupTime = 0xFC;
 684:../Libraries/STM32F4xx_StdPeriph_Driver/src/stm32f4xx_fsmc.c ****   FSMC_PCCARDInitStruct->FSMC_CommonSpaceTimingStruct->FSMC_HoldSetupTime = 0xFC;
 685:../Libraries/STM32F4xx_StdPeriph_Driver/src/stm32f4xx_fsmc.c ****   FSMC_PCCARDInitStruct->FSMC_CommonSpaceTimingStruct->FSMC_HiZSetupTime = 0xFC;
 686:../Libraries/STM32F4xx_StdPeriph_Driver/src/stm32f4xx_fsmc.c ****   FSMC_PCCARDInitStruct->FSMC_AttributeSpaceTimingStruct->FSMC_SetupTime = 0xFC;
 2081              		.loc 1 686 24 view .LVU515
 2082 0002 D0E90341 		ldrd	r4, r1, [r0, #12]	@ _1, _2, FSMC_PCCARDInitStruct,
 2083              	@ ../Libraries/STM32F4xx_StdPeriph_Driver/src/stm32f4xx_fsmc.c:690:   FSMC_PCCARDInitStruct->FSMC_I
 687:../Libraries/STM32F4xx_StdPeriph_Driver/src/stm32f4xx_fsmc.c ****   FSMC_PCCARDInitStruct->FSMC_AttributeSpaceTimingStruct->FSMC_WaitSetupTime = 0xFC;
 688:../Libraries/STM32F4xx_StdPeriph_Driver/src/stm32f4xx_fsmc.c ****   FSMC_PCCARDInitStruct->FSMC_AttributeSpaceTimingStruct->FSMC_HoldSetupTime = 0xFC;
 689:../Libraries/STM32F4xx_StdPeriph_Driver/src/stm32f4xx_fsmc.c ****   FSMC_PCCARDInitStruct->FSMC_AttributeSpaceTimingStruct->FSMC_HiZSetupTime = 0xFC;	
 690:../Libraries/STM32F4xx_StdPeriph_Driver/src/stm32f4xx_fsmc.c ****   FSMC_PCCARDInitStruct->FSMC_IOSpaceTimingStruct->FSMC_SetupTime = 0xFC;
 2084              		.loc 1 690 24 view .LVU516
 2085 0006 4269     		ldr	r2, [r0, #20]	@ _3, FSMC_PCCARDInitStruct_5(D)->FSMC_IOSpaceTimingStruct
 2086              	@ ../Libraries/STM32F4xx_StdPeriph_Driver/src/stm32f4xx_fsmc.c:682:   FSMC_PCCARDInitStruct->FSMC_C
 682:../Libraries/STM32F4xx_StdPeriph_Driver/src/stm32f4xx_fsmc.c ****   FSMC_PCCARDInitStruct->FSMC_CommonSpaceTimingStruct->FSMC_WaitSetupTime = 0xFC;
 2087              		.loc 1 682 71 view .LVU517
 2088 0008 FC23     		movs	r3, #252	@ tmp120,
 2089              	@ ../Libraries/STM32F4xx_StdPeriph_Driver/src/stm32f4xx_fsmc.c:679:   FSMC_PCCARDInitStruct->FSMC_W
 679:../Libraries/STM32F4xx_StdPeriph_Driver/src/stm32f4xx_fsmc.c ****   FSMC_PCCARDInitStruct->FSMC_TCLRSetupTime = 0x0;
 2090              		.loc 1 679 43 view .LVU518
 2091 000a 0025     		movs	r5, #0	@ tmp117,
 2092              	@ ../Libraries/STM32F4xx_StdPeriph_Driver/src/stm32f4xx_fsmc.c:680:   FSMC_PCCARDInitStruct->FSMC_T
 680:../Libraries/STM32F4xx_StdPeriph_Driver/src/stm32f4xx_fsmc.c ****   FSMC_PCCARDInitStruct->FSMC_TARSetupTime = 0x0;
 2093              		.loc 1 680 45 view .LVU519
 2094 000c C0E90055 		strd	r5, r5, [r0]	@ tmp117, tmp117, FSMC_PCCARDInitStruct
 681:../Libraries/STM32F4xx_StdPeriph_Driver/src/stm32f4xx_fsmc.c ****   FSMC_PCCARDInitStruct->FSMC_CommonSpaceTimingStruct->FSMC_SetupTime = 0xFC;
 2095              		.loc 1 681 3 is_stmt 1 view .LVU520
 2096              	@ ../Libraries/STM32F4xx_StdPeriph_Driver/src/stm32f4xx_fsmc.c:681:   FSMC_PCCARDInitStruct->FSMC_T
 681:../Libraries/STM32F4xx_StdPeriph_Driver/src/stm32f4xx_fsmc.c ****   FSMC_PCCARDInitStruct->FSMC_CommonSpaceTimingStruct->FSMC_SetupTime = 0xFC;
 2097              		.loc 1 681 44 is_stmt 0 view .LVU521
 2098 0010 8560     		str	r5, [r0, #8]	@ tmp117, FSMC_PCCARDInitStruct_5(D)->FSMC_TARSetupTime
 682:../Libraries/STM32F4xx_StdPeriph_Driver/src/stm32f4xx_fsmc.c ****   FSMC_PCCARDInitStruct->FSMC_CommonSpaceTimingStruct->FSMC_WaitSetupTime = 0xFC;
 2099              		.loc 1 682 3 is_stmt 1 view .LVU522
 2100              	@ ../Libraries/STM32F4xx_StdPeriph_Driver/src/stm32f4xx_fsmc.c:683:   FSMC_PCCARDInitStruct->FSMC_C
 683:../Libraries/STM32F4xx_StdPeriph_Driver/src/stm32f4xx_fsmc.c ****   FSMC_PCCARDInitStruct->FSMC_CommonSpaceTimingStruct->FSMC_HoldSetupTime = 0xFC;
 2101              		.loc 1 683 75 is_stmt 0 view .LVU523
 2102 0012 C4E90033 		strd	r3, r3, [r4]	@ tmp120, tmp120, _1
 684:../Libraries/STM32F4xx_StdPeriph_Driver/src/stm32f4xx_fsmc.c ****   FSMC_PCCARDInitStruct->FSMC_CommonSpaceTimingStruct->FSMC_HiZSetupTime = 0xFC;
 2103              		.loc 1 684 3 is_stmt 1 view .LVU524
 2104              	@ ../Libraries/STM32F4xx_StdPeriph_Driver/src/stm32f4xx_fsmc.c:685:   FSMC_PCCARDInitStruct->FSMC_C
 685:../Libraries/STM32F4xx_StdPeriph_Driver/src/stm32f4xx_fsmc.c ****   FSMC_PCCARDInitStruct->FSMC_AttributeSpaceTimingStruct->FSMC_SetupTime = 0xFC;
 2105              		.loc 1 685 74 is_stmt 0 view .LVU525
 2106 0016 C4E90233 		strd	r3, r3, [r4, #8]	@ tmp120, tmp120, _1,
 686:../Libraries/STM32F4xx_StdPeriph_Driver/src/stm32f4xx_fsmc.c ****   FSMC_PCCARDInitStruct->FSMC_AttributeSpaceTimingStruct->FSMC_WaitSetupTime = 0xFC;
 2107              		.loc 1 686 3 is_stmt 1 view .LVU526
 2108              	@ ../Libraries/STM32F4xx_StdPeriph_Driver/src/stm32f4xx_fsmc.c:687:   FSMC_PCCARDInitStruct->FSMC_A
 687:../Libraries/STM32F4xx_StdPeriph_Driver/src/stm32f4xx_fsmc.c ****   FSMC_PCCARDInitStruct->FSMC_AttributeSpaceTimingStruct->FSMC_HoldSetupTime = 0xFC;
 2109              		.loc 1 687 78 is_stmt 0 view .LVU527
 2110 001a C1E90033 		strd	r3, r3, [r1]	@ tmp120, tmp120, _2
 688:../Libraries/STM32F4xx_StdPeriph_Driver/src/stm32f4xx_fsmc.c ****   FSMC_PCCARDInitStruct->FSMC_AttributeSpaceTimingStruct->FSMC_HiZSetupTime = 0xFC;	
 2111              		.loc 1 688 3 is_stmt 1 view .LVU528
 2112              	@ ../Libraries/STM32F4xx_StdPeriph_Driver/src/stm32f4xx_fsmc.c:689:   FSMC_PCCARDInitStruct->FSMC_A
 689:../Libraries/STM32F4xx_StdPeriph_Driver/src/stm32f4xx_fsmc.c ****   FSMC_PCCARDInitStruct->FSMC_IOSpaceTimingStruct->FSMC_SetupTime = 0xFC;
ARM GAS  C:\Users\admin\AppData\Local\Temp\ccAkqsWz.s 			page 54


 2113              		.loc 1 689 77 is_stmt 0 view .LVU529
 2114 001e C1E90233 		strd	r3, r3, [r1, #8]	@ tmp120, tmp120, _2,
 2115              		.loc 1 690 3 is_stmt 1 view .LVU530
 2116              	@ ../Libraries/STM32F4xx_StdPeriph_Driver/src/stm32f4xx_fsmc.c:694: }
 691:../Libraries/STM32F4xx_StdPeriph_Driver/src/stm32f4xx_fsmc.c ****   FSMC_PCCARDInitStruct->FSMC_IOSpaceTimingStruct->FSMC_WaitSetupTime = 0xFC;
 692:../Libraries/STM32F4xx_StdPeriph_Driver/src/stm32f4xx_fsmc.c ****   FSMC_PCCARDInitStruct->FSMC_IOSpaceTimingStruct->FSMC_HoldSetupTime = 0xFC;
 693:../Libraries/STM32F4xx_StdPeriph_Driver/src/stm32f4xx_fsmc.c ****   FSMC_PCCARDInitStruct->FSMC_IOSpaceTimingStruct->FSMC_HiZSetupTime = 0xFC;
 694:../Libraries/STM32F4xx_StdPeriph_Driver/src/stm32f4xx_fsmc.c **** }
 2117              		.loc 1 694 1 is_stmt 0 view .LVU531
 2118 0022 30BC     		pop	{r4, r5}	@
 2119              		.cfi_restore 5
 2120              		.cfi_restore 4
 2121              		.cfi_def_cfa_offset 0
 2122              	@ ../Libraries/STM32F4xx_StdPeriph_Driver/src/stm32f4xx_fsmc.c:691:   FSMC_PCCARDInitStruct->FSMC_I
