ARM GAS  C:\Users\admin\AppData\Local\Temp\ccEnfkEC.s 			page 1


   1              		.cpu cortex-m4
   2              		.arch armv7e-m
   3              		.fpu fpv4-sp-d16
   4              		.eabi_attribute 27, 1	@ Tag_ABI_HardFP_use
   5              		.eabi_attribute 28, 1	@ Tag_ABI_VFP_args
   6              		.eabi_attribute 23, 1	@ Tag_ABI_FP_number_model
   7              		.eabi_attribute 24, 1	@ Tag_ABI_align8_needed
   8              		.eabi_attribute 25, 1	@ Tag_ABI_align8_preserved
   9              		.eabi_attribute 26, 1	@ Tag_ABI_enum_size
  10              		.eabi_attribute 30, 2	@ Tag_ABI_optimization_goals
  11              		.eabi_attribute 34, 1	@ Tag_CPU_unaligned_access
  12              		.eabi_attribute 18, 4	@ Tag_ABI_PCS_wchar_t
  13              		.file	"stm32f4xx_dcmi.c"
  14              	@ GNU C89 (GNU Arm Embedded Toolchain 10.3-2021.10) version 10.3.1 20210824 (release) (arm-none-eab
  15              	@	compiled by GNU C version 7.3-win32 20180312, GMP version 6.1.0, MPFR version 3.1.4, MPC version 
  16              	
  17              	@ GGC heuristics: --param ggc-min-expand=100 --param ggc-min-heapsize=131072
  18              	@ options passed:  -I . -I . -I ../Utilities/STM32F4-Discovery/
  19              	@ -I ../Libraries/STM32_USB_Device_Library/Class/audio/inc/
  20              	@ -I ../Libraries/STM32_USB_Device_Library/Core/inc/
  21              	@ -I ../Libraries/STM32_USB_OTG_Driver/inc/
  22              	@ -I ../Utilities/STM32F4-Discovery/
  23              	@ -I ../Libraries/STM32F4xx_StdPeriph_Driver/inc/
  24              	@ -I ../Utilities/STM32F4-Discovery/
  25              	@ -I ../Libraries/CMSIS/ST/STM32F4xx/Include/
  26              	@ -I ../Libraries/CMSIS/Include/ -imultilib thumb/v7e-m+fp/hard
  27              	@ -iprefix c:\program files (x86)\gnu arm embedded toolchain\10 2021.10\bin\../lib/gcc/arm-none-eab
  28              	@ -isysroot c:\program files (x86)\gnu arm embedded toolchain\10 2021.10\bin\../arm-none-eabi
  29              	@ -MD out/stm32f4xx_dcmi.d -MF out/stm32f4xx_dcmi.d -MP
  30              	@ -MQ out/stm32f4xx_dcmi.o -D__USES_INITFINI__ -D STM32F4XX -D __VFP_FP__
  31              	@ -D USE_USB_OTG_FS
  32              	@ ../Libraries/STM32F4xx_StdPeriph_Driver/src/stm32f4xx_dcmi.c
  33              	@ -mcpu=cortex-m4 -mthumb -mfloat-abi=hard -mfpu=fpv4-sp-d16
  34              	@ -mlibarch=armv7e-m+fp -march=armv7e-m+fp
  35              	@ -auxbase-strip out/stm32f4xx_dcmi.o -g -ggdb3 -O3 -Wall
  36              	@ -Wstrict-prototypes -Wextra -std=gnu90 -ffast-math -ffunction-sections
  37              	@ -fdata-sections -fverbose-asm
  38              	@ options enabled:  -faggressive-loop-optimizations -falign-functions
  39              	@ -falign-jumps -falign-labels -falign-loops -fallocation-dce
  40              	@ -fassociative-math -fauto-inc-dec -fbranch-count-reg -fcaller-saves
  41              	@ -fcombine-stack-adjustments -fcompare-elim -fcprop-registers
  42              	@ -fcrossjumping -fcse-follow-jumps -fcx-limited-range -fdata-sections
  43              	@ -fdefer-pop -fdelete-null-pointer-checks -fdevirtualize
  44              	@ -fdevirtualize-speculatively -fdwarf2-cfi-asm -fearly-inlining
  45              	@ -feliminate-unused-debug-symbols -feliminate-unused-debug-types
  46              	@ -fexpensive-optimizations -ffinite-math-only -fforward-propagate
  47              	@ -ffp-int-builtin-inexact -ffunction-cse -ffunction-sections -fgcse
  48              	@ -fgcse-after-reload -fgcse-lm -fgnu-unique -fguess-branch-probability
  49              	@ -fhoist-adjacent-loads -fident -fif-conversion -fif-conversion2
  50              	@ -findirect-inlining -finline -finline-atomics -finline-functions
  51              	@ -finline-functions-called-once -finline-small-functions -fipa-bit-cp
  52              	@ -fipa-cp -fipa-cp-clone -fipa-icf -fipa-icf-functions -fipa-icf-variables
  53              	@ -fipa-profile -fipa-pure-const -fipa-ra -fipa-reference
  54              	@ -fipa-reference-addressable -fipa-sra -fipa-stack-alignment -fipa-vrp
  55              	@ -fira-hoist-pressure -fira-share-save-slots -fira-share-spill-slots
  56              	@ -fisolate-erroneous-paths-dereference -fivopts -fkeep-static-consts
  57              	@ -fleading-underscore -flifetime-dse -floop-interchange
ARM GAS  C:\Users\admin\AppData\Local\Temp\ccEnfkEC.s 			page 2


  58              	@ -floop-unroll-and-jam -flra-remat -fmerge-constants -fmerge-debug-strings
  59              	@ -fmove-loop-invariants -fomit-frame-pointer -foptimize-sibling-calls
  60              	@ -foptimize-strlen -fpartial-inlining -fpeel-loops -fpeephole -fpeephole2
  61              	@ -fplt -fpredictive-commoning -fprefetch-loop-arrays -freciprocal-math
  62              	@ -freg-struct-return -freorder-blocks -freorder-functions
  63              	@ -frerun-cse-after-loop -fsched-critical-path-heuristic
  64              	@ -fsched-dep-count-heuristic -fsched-group-heuristic -fsched-interblock
  65              	@ -fsched-last-insn-heuristic -fsched-pressure -fsched-rank-heuristic
  66              	@ -fsched-spec -fsched-spec-insn-heuristic -fsched-stalled-insns-dep
  67              	@ -fschedule-insns -fschedule-insns2 -fsection-anchors
  68              	@ -fsemantic-interposition -fshow-column -fshrink-wrap
  69              	@ -fshrink-wrap-separate -fsplit-ivs-in-unroller -fsplit-loops
  70              	@ -fsplit-paths -fsplit-wide-types -fssa-backprop -fssa-phiopt -fstdarg-opt
  71              	@ -fstore-merging -fstrict-aliasing -fstrict-volatile-bitfields
  72              	@ -fsync-libcalls -fthread-jumps -ftoplevel-reorder -ftree-bit-ccp
  73              	@ -ftree-builtin-call-dce -ftree-ccp -ftree-ch -ftree-coalesce-vars
  74              	@ -ftree-copy-prop -ftree-cselim -ftree-dce -ftree-dominator-opts
  75              	@ -ftree-dse -ftree-forwprop -ftree-fre -ftree-loop-distribute-patterns
  76              	@ -ftree-loop-distribution -ftree-loop-if-convert -ftree-loop-im
  77              	@ -ftree-loop-ivcanon -ftree-loop-optimize -ftree-loop-vectorize
  78              	@ -ftree-parallelize-loops= -ftree-partial-pre -ftree-phiprop -ftree-pre
  79              	@ -ftree-pta -ftree-reassoc -ftree-scev-cprop -ftree-sink
  80              	@ -ftree-slp-vectorize -ftree-slsr -ftree-sra -ftree-switch-conversion
  81              	@ -ftree-tail-merge -ftree-ter -ftree-vrp -funit-at-a-time
  82              	@ -funsafe-math-optimizations -funswitch-loops -fvar-tracking
  83              	@ -fvar-tracking-assignments -fverbose-asm -fversion-loops-for-strides
  84              	@ -fzero-initialized-in-bss -masm-syntax-unified -mbe32 -mlittle-endian
  85              	@ -mpic-data-is-text-relative -msched-prolog -mthumb -munaligned-access
  86              	@ -mvectorize-with-neon-quad
  87              	
  88              		.text
  89              	.Ltext0:
  90              		.cfi_sections	.debug_frame
  91              		.section	.text.DCMI_DeInit,"ax",%progbits
  92              		.align	1
  93              		.p2align 2,,3
  94              		.global	DCMI_DeInit
  95              		.syntax unified
  96              		.thumb
  97              		.thumb_func
  98              		.type	DCMI_DeInit, %function
  99              	DCMI_DeInit:
 100              	.LFB110:
 101              		.file 1 "../Libraries/STM32F4xx_StdPeriph_Driver/src/stm32f4xx_dcmi.c"
   1:../Libraries/STM32F4xx_StdPeriph_Driver/src/stm32f4xx_dcmi.c **** /**
   2:../Libraries/STM32F4xx_StdPeriph_Driver/src/stm32f4xx_dcmi.c ****   ******************************************************************************
   3:../Libraries/STM32F4xx_StdPeriph_Driver/src/stm32f4xx_dcmi.c ****   * @file    stm32f4xx_dcmi.c
   4:../Libraries/STM32F4xx_StdPeriph_Driver/src/stm32f4xx_dcmi.c ****   * @author  MCD Application Team
   5:../Libraries/STM32F4xx_StdPeriph_Driver/src/stm32f4xx_dcmi.c ****   * @version V1.0.0
   6:../Libraries/STM32F4xx_StdPeriph_Driver/src/stm32f4xx_dcmi.c ****   * @date    30-September-2011
   7:../Libraries/STM32F4xx_StdPeriph_Driver/src/stm32f4xx_dcmi.c ****   * @brief   This file provides firmware functions to manage the following 
   8:../Libraries/STM32F4xx_StdPeriph_Driver/src/stm32f4xx_dcmi.c ****   *          functionalities of the DCMI peripheral:           
   9:../Libraries/STM32F4xx_StdPeriph_Driver/src/stm32f4xx_dcmi.c ****   *           - Initialization and Configuration
  10:../Libraries/STM32F4xx_StdPeriph_Driver/src/stm32f4xx_dcmi.c ****   *           - Image capture functions  
  11:../Libraries/STM32F4xx_StdPeriph_Driver/src/stm32f4xx_dcmi.c ****   *           - Interrupts and flags management
  12:../Libraries/STM32F4xx_StdPeriph_Driver/src/stm32f4xx_dcmi.c ****   *
  13:../Libraries/STM32F4xx_StdPeriph_Driver/src/stm32f4xx_dcmi.c ****   *  @verbatim  
ARM GAS  C:\Users\admin\AppData\Local\Temp\ccEnfkEC.s 			page 3


  14:../Libraries/STM32F4xx_StdPeriph_Driver/src/stm32f4xx_dcmi.c ****   *  
  15:../Libraries/STM32F4xx_StdPeriph_Driver/src/stm32f4xx_dcmi.c ****   *        
  16:../Libraries/STM32F4xx_StdPeriph_Driver/src/stm32f4xx_dcmi.c ****   *          ===================================================================
  17:../Libraries/STM32F4xx_StdPeriph_Driver/src/stm32f4xx_dcmi.c ****   *                                 How to use this driver
  18:../Libraries/STM32F4xx_StdPeriph_Driver/src/stm32f4xx_dcmi.c ****   *          ===================================================================  
  19:../Libraries/STM32F4xx_StdPeriph_Driver/src/stm32f4xx_dcmi.c ****   *         
  20:../Libraries/STM32F4xx_StdPeriph_Driver/src/stm32f4xx_dcmi.c ****   *         The sequence below describes how to use this driver to capture image
  21:../Libraries/STM32F4xx_StdPeriph_Driver/src/stm32f4xx_dcmi.c ****   *         from a camera module connected to the DCMI Interface.
  22:../Libraries/STM32F4xx_StdPeriph_Driver/src/stm32f4xx_dcmi.c ****   *         This sequence does not take into account the configuration of the  
  23:../Libraries/STM32F4xx_StdPeriph_Driver/src/stm32f4xx_dcmi.c ****   *         camera module, which should be made before to configure and enable
  24:../Libraries/STM32F4xx_StdPeriph_Driver/src/stm32f4xx_dcmi.c ****   *         the DCMI to capture images.
  25:../Libraries/STM32F4xx_StdPeriph_Driver/src/stm32f4xx_dcmi.c ****   *           
  26:../Libraries/STM32F4xx_StdPeriph_Driver/src/stm32f4xx_dcmi.c ****   *          1. Enable the clock for the DCMI and associated GPIOs using the following functions:
  27:../Libraries/STM32F4xx_StdPeriph_Driver/src/stm32f4xx_dcmi.c ****   *                 RCC_AHB2PeriphClockCmd(RCC_AHB2Periph_DCMI, ENABLE);
  28:../Libraries/STM32F4xx_StdPeriph_Driver/src/stm32f4xx_dcmi.c ****   *                 RCC_AHB1PeriphClockCmd(RCC_AHB1Periph_GPIOx, ENABLE);
  29:../Libraries/STM32F4xx_StdPeriph_Driver/src/stm32f4xx_dcmi.c ****   *
  30:../Libraries/STM32F4xx_StdPeriph_Driver/src/stm32f4xx_dcmi.c ****   *          2. DCMI pins configuration 
  31:../Libraries/STM32F4xx_StdPeriph_Driver/src/stm32f4xx_dcmi.c ****   *             - Connect the involved DCMI pins to AF13 using the following function 
  32:../Libraries/STM32F4xx_StdPeriph_Driver/src/stm32f4xx_dcmi.c ****   *                 GPIO_PinAFConfig(GPIOx, GPIO_PinSourcex, GPIO_AF_DCMI); 
  33:../Libraries/STM32F4xx_StdPeriph_Driver/src/stm32f4xx_dcmi.c ****   *             - Configure these DCMI pins in alternate function mode by calling the function
  34:../Libraries/STM32F4xx_StdPeriph_Driver/src/stm32f4xx_dcmi.c ****   *                 GPIO_Init();
  35:../Libraries/STM32F4xx_StdPeriph_Driver/src/stm32f4xx_dcmi.c ****   *    
  36:../Libraries/STM32F4xx_StdPeriph_Driver/src/stm32f4xx_dcmi.c ****   *          3. Declare a DCMI_InitTypeDef structure, for example:
  37:../Libraries/STM32F4xx_StdPeriph_Driver/src/stm32f4xx_dcmi.c ****   *                 DCMI_InitTypeDef  DCMI_InitStructure;
  38:../Libraries/STM32F4xx_StdPeriph_Driver/src/stm32f4xx_dcmi.c ****   *             and fill the DCMI_InitStructure variable with the allowed values
  39:../Libraries/STM32F4xx_StdPeriph_Driver/src/stm32f4xx_dcmi.c ****   *             of the structure member.
  40:../Libraries/STM32F4xx_StdPeriph_Driver/src/stm32f4xx_dcmi.c ****   *  
  41:../Libraries/STM32F4xx_StdPeriph_Driver/src/stm32f4xx_dcmi.c ****   *          4. Initialize the DCMI interface by calling the function
  42:../Libraries/STM32F4xx_StdPeriph_Driver/src/stm32f4xx_dcmi.c ****   *                 DCMI_Init(&DCMI_InitStructure); 
  43:../Libraries/STM32F4xx_StdPeriph_Driver/src/stm32f4xx_dcmi.c ****   *  
  44:../Libraries/STM32F4xx_StdPeriph_Driver/src/stm32f4xx_dcmi.c ****   *          5. Configure the DMA2_Stream1 channel1 to transfer Data from DCMI DR
  45:../Libraries/STM32F4xx_StdPeriph_Driver/src/stm32f4xx_dcmi.c ****   *             register to the destination memory buffer.
  46:../Libraries/STM32F4xx_StdPeriph_Driver/src/stm32f4xx_dcmi.c ****   *  
  47:../Libraries/STM32F4xx_StdPeriph_Driver/src/stm32f4xx_dcmi.c ****   *          6. Enable DCMI interface using the function
  48:../Libraries/STM32F4xx_StdPeriph_Driver/src/stm32f4xx_dcmi.c ****   *                 DCMI_Cmd(ENABLE);
  49:../Libraries/STM32F4xx_StdPeriph_Driver/src/stm32f4xx_dcmi.c ****   *                 
  50:../Libraries/STM32F4xx_StdPeriph_Driver/src/stm32f4xx_dcmi.c ****   *         7. Start the image capture using the function
  51:../Libraries/STM32F4xx_StdPeriph_Driver/src/stm32f4xx_dcmi.c ****   *                 DCMI_CaptureCmd(ENABLE);
  52:../Libraries/STM32F4xx_StdPeriph_Driver/src/stm32f4xx_dcmi.c ****   *                 
  53:../Libraries/STM32F4xx_StdPeriph_Driver/src/stm32f4xx_dcmi.c ****   *         8. At this stage the DCMI interface waits for the first start of frame,
  54:../Libraries/STM32F4xx_StdPeriph_Driver/src/stm32f4xx_dcmi.c ****   *            then a DMA request is generated continuously/once (depending on the
  55:../Libraries/STM32F4xx_StdPeriph_Driver/src/stm32f4xx_dcmi.c ****   *            mode used, Continuous/Snapshot) to transfer the received data into
  56:../Libraries/STM32F4xx_StdPeriph_Driver/src/stm32f4xx_dcmi.c ****   *            the destination memory. 
  57:../Libraries/STM32F4xx_StdPeriph_Driver/src/stm32f4xx_dcmi.c ****   *   
  58:../Libraries/STM32F4xx_StdPeriph_Driver/src/stm32f4xx_dcmi.c ****   *  @note  If you need to capture only a rectangular window from the received
  59:../Libraries/STM32F4xx_StdPeriph_Driver/src/stm32f4xx_dcmi.c ****   *         image, you have to use the DCMI_CROPConfig() function to configure 
  60:../Libraries/STM32F4xx_StdPeriph_Driver/src/stm32f4xx_dcmi.c ****   *         the coordinates and size of the window to be captured, then enable 
  61:../Libraries/STM32F4xx_StdPeriph_Driver/src/stm32f4xx_dcmi.c ****   *         the Crop feature using DCMI_CROPCmd(ENABLE);  
  62:../Libraries/STM32F4xx_StdPeriph_Driver/src/stm32f4xx_dcmi.c ****   *         In this case, the Crop configuration should be made before to enable
  63:../Libraries/STM32F4xx_StdPeriph_Driver/src/stm32f4xx_dcmi.c ****   *         and start the DCMI interface. 
  64:../Libraries/STM32F4xx_StdPeriph_Driver/src/stm32f4xx_dcmi.c ****   *        
  65:../Libraries/STM32F4xx_StdPeriph_Driver/src/stm32f4xx_dcmi.c ****   *  @endverbatim   
  66:../Libraries/STM32F4xx_StdPeriph_Driver/src/stm32f4xx_dcmi.c ****   *  
  67:../Libraries/STM32F4xx_StdPeriph_Driver/src/stm32f4xx_dcmi.c ****   ******************************************************************************
  68:../Libraries/STM32F4xx_StdPeriph_Driver/src/stm32f4xx_dcmi.c ****   * @attention
  69:../Libraries/STM32F4xx_StdPeriph_Driver/src/stm32f4xx_dcmi.c ****   *
  70:../Libraries/STM32F4xx_StdPeriph_Driver/src/stm32f4xx_dcmi.c ****   * THE PRESENT FIRMWARE WHICH IS FOR GUIDANCE ONLY AIMS AT PROVIDING CUSTOMERS
ARM GAS  C:\Users\admin\AppData\Local\Temp\ccEnfkEC.s 			page 4


  71:../Libraries/STM32F4xx_StdPeriph_Driver/src/stm32f4xx_dcmi.c ****   * WITH CODING INFORMATION REGARDING THEIR PRODUCTS IN ORDER FOR THEM TO SAVE
  72:../Libraries/STM32F4xx_StdPeriph_Driver/src/stm32f4xx_dcmi.c ****   * TIME. AS A RESULT, STMICROELECTRONICS SHALL NOT BE HELD LIABLE FOR ANY
  73:../Libraries/STM32F4xx_StdPeriph_Driver/src/stm32f4xx_dcmi.c ****   * DIRECT, INDIRECT OR CONSEQUENTIAL DAMAGES WITH RESPECT TO ANY CLAIMS ARISING
  74:../Libraries/STM32F4xx_StdPeriph_Driver/src/stm32f4xx_dcmi.c ****   * FROM THE CONTENT OF SUCH FIRMWARE AND/OR THE USE MADE BY CUSTOMERS OF THE
  75:../Libraries/STM32F4xx_StdPeriph_Driver/src/stm32f4xx_dcmi.c ****   * CODING INFORMATION CONTAINED HEREIN IN CONNECTION WITH THEIR PRODUCTS.
  76:../Libraries/STM32F4xx_StdPeriph_Driver/src/stm32f4xx_dcmi.c ****   *
  77:../Libraries/STM32F4xx_StdPeriph_Driver/src/stm32f4xx_dcmi.c ****   * <h2><center>&copy; COPYRIGHT 2011 STMicroelectronics</center></h2>
  78:../Libraries/STM32F4xx_StdPeriph_Driver/src/stm32f4xx_dcmi.c ****   ******************************************************************************
  79:../Libraries/STM32F4xx_StdPeriph_Driver/src/stm32f4xx_dcmi.c ****   */
  80:../Libraries/STM32F4xx_StdPeriph_Driver/src/stm32f4xx_dcmi.c **** 
  81:../Libraries/STM32F4xx_StdPeriph_Driver/src/stm32f4xx_dcmi.c **** /* Includes ------------------------------------------------------------------*/
  82:../Libraries/STM32F4xx_StdPeriph_Driver/src/stm32f4xx_dcmi.c **** #include "stm32f4xx_dcmi.h"
  83:../Libraries/STM32F4xx_StdPeriph_Driver/src/stm32f4xx_dcmi.c **** #include "stm32f4xx_rcc.h"
  84:../Libraries/STM32F4xx_StdPeriph_Driver/src/stm32f4xx_dcmi.c **** 
  85:../Libraries/STM32F4xx_StdPeriph_Driver/src/stm32f4xx_dcmi.c **** /** @addtogroup STM32F4xx_StdPeriph_Driver
  86:../Libraries/STM32F4xx_StdPeriph_Driver/src/stm32f4xx_dcmi.c ****   * @{
  87:../Libraries/STM32F4xx_StdPeriph_Driver/src/stm32f4xx_dcmi.c ****   */
  88:../Libraries/STM32F4xx_StdPeriph_Driver/src/stm32f4xx_dcmi.c **** 
  89:../Libraries/STM32F4xx_StdPeriph_Driver/src/stm32f4xx_dcmi.c **** /** @defgroup DCMI 
  90:../Libraries/STM32F4xx_StdPeriph_Driver/src/stm32f4xx_dcmi.c ****   * @brief DCMI driver modules
  91:../Libraries/STM32F4xx_StdPeriph_Driver/src/stm32f4xx_dcmi.c ****   * @{
  92:../Libraries/STM32F4xx_StdPeriph_Driver/src/stm32f4xx_dcmi.c ****   */ 
  93:../Libraries/STM32F4xx_StdPeriph_Driver/src/stm32f4xx_dcmi.c **** 
  94:../Libraries/STM32F4xx_StdPeriph_Driver/src/stm32f4xx_dcmi.c **** /* Private typedef -----------------------------------------------------------*/
  95:../Libraries/STM32F4xx_StdPeriph_Driver/src/stm32f4xx_dcmi.c **** /* Private define ------------------------------------------------------------*/
  96:../Libraries/STM32F4xx_StdPeriph_Driver/src/stm32f4xx_dcmi.c **** /* Private macro -------------------------------------------------------------*/
  97:../Libraries/STM32F4xx_StdPeriph_Driver/src/stm32f4xx_dcmi.c **** /* Private variables ---------------------------------------------------------*/
  98:../Libraries/STM32F4xx_StdPeriph_Driver/src/stm32f4xx_dcmi.c **** /* Private function prototypes -----------------------------------------------*/
  99:../Libraries/STM32F4xx_StdPeriph_Driver/src/stm32f4xx_dcmi.c **** /* Private functions ---------------------------------------------------------*/
 100:../Libraries/STM32F4xx_StdPeriph_Driver/src/stm32f4xx_dcmi.c **** 
 101:../Libraries/STM32F4xx_StdPeriph_Driver/src/stm32f4xx_dcmi.c **** /** @defgroup DCMI_Private_Functions
 102:../Libraries/STM32F4xx_StdPeriph_Driver/src/stm32f4xx_dcmi.c ****   * @{
 103:../Libraries/STM32F4xx_StdPeriph_Driver/src/stm32f4xx_dcmi.c ****   */ 
 104:../Libraries/STM32F4xx_StdPeriph_Driver/src/stm32f4xx_dcmi.c **** 
 105:../Libraries/STM32F4xx_StdPeriph_Driver/src/stm32f4xx_dcmi.c **** /** @defgroup DCMI_Group1 Initialization and Configuration functions
 106:../Libraries/STM32F4xx_StdPeriph_Driver/src/stm32f4xx_dcmi.c ****  *  @brief   Initialization and Configuration functions 
 107:../Libraries/STM32F4xx_StdPeriph_Driver/src/stm32f4xx_dcmi.c ****  *
 108:../Libraries/STM32F4xx_StdPeriph_Driver/src/stm32f4xx_dcmi.c **** @verbatim   
 109:../Libraries/STM32F4xx_StdPeriph_Driver/src/stm32f4xx_dcmi.c ****  ===============================================================================
 110:../Libraries/STM32F4xx_StdPeriph_Driver/src/stm32f4xx_dcmi.c ****                   Initialization and Configuration functions
 111:../Libraries/STM32F4xx_StdPeriph_Driver/src/stm32f4xx_dcmi.c ****  ===============================================================================  
 112:../Libraries/STM32F4xx_StdPeriph_Driver/src/stm32f4xx_dcmi.c **** 
 113:../Libraries/STM32F4xx_StdPeriph_Driver/src/stm32f4xx_dcmi.c **** @endverbatim
 114:../Libraries/STM32F4xx_StdPeriph_Driver/src/stm32f4xx_dcmi.c ****   * @{
 115:../Libraries/STM32F4xx_StdPeriph_Driver/src/stm32f4xx_dcmi.c ****   */
 116:../Libraries/STM32F4xx_StdPeriph_Driver/src/stm32f4xx_dcmi.c **** 
 117:../Libraries/STM32F4xx_StdPeriph_Driver/src/stm32f4xx_dcmi.c **** /**
 118:../Libraries/STM32F4xx_StdPeriph_Driver/src/stm32f4xx_dcmi.c ****   * @brief  Deinitializes the DCMI registers to their default reset values.
 119:../Libraries/STM32F4xx_StdPeriph_Driver/src/stm32f4xx_dcmi.c ****   * @param  None
 120:../Libraries/STM32F4xx_StdPeriph_Driver/src/stm32f4xx_dcmi.c ****   * @retval None
 121:../Libraries/STM32F4xx_StdPeriph_Driver/src/stm32f4xx_dcmi.c ****   */
 122:../Libraries/STM32F4xx_StdPeriph_Driver/src/stm32f4xx_dcmi.c **** void DCMI_DeInit(void)
 123:../Libraries/STM32F4xx_StdPeriph_Driver/src/stm32f4xx_dcmi.c **** {
 102              		.loc 1 123 1 view -0
 103              		.cfi_startproc
 104              		@ args = 0, pretend = 0, frame = 0
 105              		@ frame_needed = 0, uses_anonymous_args = 0
ARM GAS  C:\Users\admin\AppData\Local\Temp\ccEnfkEC.s 			page 5


 106              		@ link register save eliminated.
 124:../Libraries/STM32F4xx_StdPeriph_Driver/src/stm32f4xx_dcmi.c ****   DCMI->CR = 0x0;
 107              		.loc 1 124 3 view .LVU1
 108              	@ ../Libraries/STM32F4xx_StdPeriph_Driver/src/stm32f4xx_dcmi.c:124:   DCMI->CR = 0x0;
 109              		.loc 1 124 12 is_stmt 0 view .LVU2
 110 0000 054B     		ldr	r3, .L3	@ tmp113,
 111 0002 0022     		movs	r2, #0	@ tmp114,
 112              	@ ../Libraries/STM32F4xx_StdPeriph_Driver/src/stm32f4xx_dcmi.c:126:   DCMI->ICR = 0x1F;
 125:../Libraries/STM32F4xx_StdPeriph_Driver/src/stm32f4xx_dcmi.c ****   DCMI->IER = 0x0;
 126:../Libraries/STM32F4xx_StdPeriph_Driver/src/stm32f4xx_dcmi.c ****   DCMI->ICR = 0x1F;
 113              		.loc 1 126 13 view .LVU3
 114 0004 1F21     		movs	r1, #31	@ tmp118,
 115              	@ ../Libraries/STM32F4xx_StdPeriph_Driver/src/stm32f4xx_dcmi.c:124:   DCMI->CR = 0x0;
 124:../Libraries/STM32F4xx_StdPeriph_Driver/src/stm32f4xx_dcmi.c ****   DCMI->CR = 0x0;
 116              		.loc 1 124 12 view .LVU4
 117 0006 1A60     		str	r2, [r3]	@ tmp114, MEM[(struct DCMI_TypeDef *)1342504960B].CR
 125:../Libraries/STM32F4xx_StdPeriph_Driver/src/stm32f4xx_dcmi.c ****   DCMI->IER = 0x0;
 118              		.loc 1 125 3 is_stmt 1 view .LVU5
 119              	@ ../Libraries/STM32F4xx_StdPeriph_Driver/src/stm32f4xx_dcmi.c:125:   DCMI->IER = 0x0;
 125:../Libraries/STM32F4xx_StdPeriph_Driver/src/stm32f4xx_dcmi.c ****   DCMI->IER = 0x0;
 120              		.loc 1 125 13 is_stmt 0 view .LVU6
 121 0008 DA60     		str	r2, [r3, #12]	@ tmp114, MEM[(struct DCMI_TypeDef *)1342504960B].IER
 122              		.loc 1 126 3 is_stmt 1 view .LVU7
 123              	@ ../Libraries/STM32F4xx_StdPeriph_Driver/src/stm32f4xx_dcmi.c:126:   DCMI->ICR = 0x1F;
 124              		.loc 1 126 13 is_stmt 0 view .LVU8
 125 000a 5961     		str	r1, [r3, #20]	@ tmp118, MEM[(struct DCMI_TypeDef *)1342504960B].ICR
 127:../Libraries/STM32F4xx_StdPeriph_Driver/src/stm32f4xx_dcmi.c ****   DCMI->ESCR = 0x0;
 126              		.loc 1 127 3 is_stmt 1 view .LVU9
 127              	@ ../Libraries/STM32F4xx_StdPeriph_Driver/src/stm32f4xx_dcmi.c:127:   DCMI->ESCR = 0x0;
 128              		.loc 1 127 14 is_stmt 0 view .LVU10
 129 000c 9A61     		str	r2, [r3, #24]	@ tmp114, MEM[(struct DCMI_TypeDef *)1342504960B].ESCR
 128:../Libraries/STM32F4xx_StdPeriph_Driver/src/stm32f4xx_dcmi.c ****   DCMI->ESUR = 0x0;
 130              		.loc 1 128 3 is_stmt 1 view .LVU11
 131              	@ ../Libraries/STM32F4xx_StdPeriph_Driver/src/stm32f4xx_dcmi.c:128:   DCMI->ESUR = 0x0;
 132              		.loc 1 128 14 is_stmt 0 view .LVU12
 133 000e DA61     		str	r2, [r3, #28]	@ tmp114, MEM[(struct DCMI_TypeDef *)1342504960B].ESUR
 129:../Libraries/STM32F4xx_StdPeriph_Driver/src/stm32f4xx_dcmi.c ****   DCMI->CWSTRTR = 0x0;
 134              		.loc 1 129 3 is_stmt 1 view .LVU13
 135              	@ ../Libraries/STM32F4xx_StdPeriph_Driver/src/stm32f4xx_dcmi.c:129:   DCMI->CWSTRTR = 0x0;
 136              		.loc 1 129 17 is_stmt 0 view .LVU14
 137 0010 1A62     		str	r2, [r3, #32]	@ tmp114, MEM[(struct DCMI_TypeDef *)1342504960B].CWSTRTR
 130:../Libraries/STM32F4xx_StdPeriph_Driver/src/stm32f4xx_dcmi.c ****   DCMI->CWSIZER = 0x0;
 138              		.loc 1 130 3 is_stmt 1 view .LVU15
 139              	@ ../Libraries/STM32F4xx_StdPeriph_Driver/src/stm32f4xx_dcmi.c:130:   DCMI->CWSIZER = 0x0;
 140              		.loc 1 130 17 is_stmt 0 view .LVU16
 141 0012 5A62     		str	r2, [r3, #36]	@ tmp114, MEM[(struct DCMI_TypeDef *)1342504960B].CWSIZER
 142              	@ ../Libraries/STM32F4xx_StdPeriph_Driver/src/stm32f4xx_dcmi.c:131: }
 131:../Libraries/STM32F4xx_StdPeriph_Driver/src/stm32f4xx_dcmi.c **** }
 143              		.loc 1 131 1 view .LVU17
 144 0014 7047     		bx	lr	@
 145              	.L4:
 146 0016 00BF     		.align	2
 147              	.L3:
 148 0018 00000550 		.word	1342504960
 149              		.cfi_endproc
 150              	.LFE110:
 151              		.size	DCMI_DeInit, .-DCMI_DeInit
ARM GAS  C:\Users\admin\AppData\Local\Temp\ccEnfkEC.s 			page 6


 152              		.section	.text.DCMI_Init,"ax",%progbits
 153              		.align	1
 154              		.p2align 2,,3
 155              		.global	DCMI_Init
 156              		.syntax unified
 157              		.thumb
 158              		.thumb_func
 159              		.type	DCMI_Init, %function
 160              	DCMI_Init:
 161              	.LVL0:
 162              	.LFB111:
 132:../Libraries/STM32F4xx_StdPeriph_Driver/src/stm32f4xx_dcmi.c **** 
 133:../Libraries/STM32F4xx_StdPeriph_Driver/src/stm32f4xx_dcmi.c **** /**
 134:../Libraries/STM32F4xx_StdPeriph_Driver/src/stm32f4xx_dcmi.c ****   * @brief  Initializes the DCMI according to the specified parameters in the DCMI_InitStruct.
 135:../Libraries/STM32F4xx_StdPeriph_Driver/src/stm32f4xx_dcmi.c ****   * @param  DCMI_InitStruct: pointer to a DCMI_InitTypeDef structure that contains 
 136:../Libraries/STM32F4xx_StdPeriph_Driver/src/stm32f4xx_dcmi.c ****   *         the configuration information for the DCMI.
 137:../Libraries/STM32F4xx_StdPeriph_Driver/src/stm32f4xx_dcmi.c ****   * @retval None
 138:../Libraries/STM32F4xx_StdPeriph_Driver/src/stm32f4xx_dcmi.c ****   */
 139:../Libraries/STM32F4xx_StdPeriph_Driver/src/stm32f4xx_dcmi.c **** void DCMI_Init(DCMI_InitTypeDef* DCMI_InitStruct)
 140:../Libraries/STM32F4xx_StdPeriph_Driver/src/stm32f4xx_dcmi.c **** {
 163              		.loc 1 140 1 is_stmt 1 view -0
 164              		.cfi_startproc
 165              		@ args = 0, pretend = 0, frame = 0
 166              		@ frame_needed = 0, uses_anonymous_args = 0
 141:../Libraries/STM32F4xx_StdPeriph_Driver/src/stm32f4xx_dcmi.c ****   uint32_t temp = 0x0;
 167              		.loc 1 141 3 view .LVU19
 142:../Libraries/STM32F4xx_StdPeriph_Driver/src/stm32f4xx_dcmi.c ****   
 143:../Libraries/STM32F4xx_StdPeriph_Driver/src/stm32f4xx_dcmi.c ****   /* Check the parameters */
 144:../Libraries/STM32F4xx_StdPeriph_Driver/src/stm32f4xx_dcmi.c ****   assert_param(IS_DCMI_CAPTURE_MODE(DCMI_InitStruct->DCMI_CaptureMode));
 168              		.loc 1 144 3 view .LVU20
 169              	@ ../Libraries/STM32F4xx_StdPeriph_Driver/src/stm32f4xx_dcmi.c:140: {
 140:../Libraries/STM32F4xx_StdPeriph_Driver/src/stm32f4xx_dcmi.c ****   uint32_t temp = 0x0;
 170              		.loc 1 140 1 is_stmt 0 view .LVU21
 171 0000 10B5     		push	{r4, lr}	@
 172              		.cfi_def_cfa_offset 8
 173              		.cfi_offset 4, -8
 174              		.cfi_offset 14, -4
 175              	@ ../Libraries/STM32F4xx_StdPeriph_Driver/src/stm32f4xx_dcmi.c:140: {
 140:../Libraries/STM32F4xx_StdPeriph_Driver/src/stm32f4xx_dcmi.c ****   uint32_t temp = 0x0;
 176              		.loc 1 140 1 view .LVU22
 177 0002 0446     		mov	r4, r0	@ DCMI_InitStruct, tmp221
 178              	@ ../Libraries/STM32F4xx_StdPeriph_Driver/src/stm32f4xx_dcmi.c:144:   assert_param(IS_DCMI_CAPTURE_
 179              		.loc 1 144 3 view .LVU23
 180 0004 0088     		ldrh	r0, [r0]	@, DCMI_InitStruct_32(D)->DCMI_CaptureMode
 181              	.LVL1:
 182              		.loc 1 144 3 view .LVU24
 183 0006 20F00200 		bic	r0, r0, #2	@ tmp162, DCMI_InitStruct_32(D)->DCMI_CaptureMode,
 184 000a 80B2     		uxth	r0, r0	@ tmp164, tmp162
 185 000c B0FA80F0 		clz	r0, r0	@, tmp164
 186 0010 4009     		lsrs	r0, r0, #5	@,,
 187 0012 FFF7FEFF 		bl	assert_param		@
 188              	.LVL2:
 145:../Libraries/STM32F4xx_StdPeriph_Driver/src/stm32f4xx_dcmi.c ****   assert_param(IS_DCMI_SYNCHRO(DCMI_InitStruct->DCMI_SynchroMode));
 189              		.loc 1 145 3 is_stmt 1 view .LVU25
 190 0016 6088     		ldrh	r0, [r4, #2]	@, DCMI_InitStruct_32(D)->DCMI_SynchroMode
 191 0018 20F01000 		bic	r0, r0, #16	@ tmp167, DCMI_InitStruct_32(D)->DCMI_SynchroMode,
 192 001c 80B2     		uxth	r0, r0	@ tmp169, tmp167
ARM GAS  C:\Users\admin\AppData\Local\Temp\ccEnfkEC.s 			page 7


 193 001e B0FA80F0 		clz	r0, r0	@, tmp169
 194 0022 4009     		lsrs	r0, r0, #5	@,,
 195 0024 FFF7FEFF 		bl	assert_param		@
 196              	.LVL3:
 146:../Libraries/STM32F4xx_StdPeriph_Driver/src/stm32f4xx_dcmi.c ****   assert_param(IS_DCMI_PCKPOLARITY(DCMI_InitStruct->DCMI_PCKPolarity));
 197              		.loc 1 146 3 view .LVU26
 198 0028 A088     		ldrh	r0, [r4, #4]	@, DCMI_InitStruct_32(D)->DCMI_PCKPolarity
 199 002a 20F02000 		bic	r0, r0, #32	@ tmp172, DCMI_InitStruct_32(D)->DCMI_PCKPolarity,
 200 002e 80B2     		uxth	r0, r0	@ tmp174, tmp172
 201 0030 B0FA80F0 		clz	r0, r0	@, tmp174
 202 0034 4009     		lsrs	r0, r0, #5	@,,
 203 0036 FFF7FEFF 		bl	assert_param		@
 204              	.LVL4:
 147:../Libraries/STM32F4xx_StdPeriph_Driver/src/stm32f4xx_dcmi.c ****   assert_param(IS_DCMI_VSPOLARITY(DCMI_InitStruct->DCMI_VSPolarity));
 205              		.loc 1 147 3 view .LVU27
 206 003a E088     		ldrh	r0, [r4, #6]	@, DCMI_InitStruct_32(D)->DCMI_VSPolarity
 207 003c 20F08000 		bic	r0, r0, #128	@ tmp177, DCMI_InitStruct_32(D)->DCMI_VSPolarity,
 208 0040 80B2     		uxth	r0, r0	@ tmp179, tmp177
 209 0042 B0FA80F0 		clz	r0, r0	@, tmp179
 210 0046 4009     		lsrs	r0, r0, #5	@,,
 211 0048 FFF7FEFF 		bl	assert_param		@
 212              	.LVL5:
 148:../Libraries/STM32F4xx_StdPeriph_Driver/src/stm32f4xx_dcmi.c ****   assert_param(IS_DCMI_HSPOLARITY(DCMI_InitStruct->DCMI_HSPolarity));
 213              		.loc 1 148 3 view .LVU28
 214 004c 2089     		ldrh	r0, [r4, #8]	@, DCMI_InitStruct_32(D)->DCMI_HSPolarity
 215 004e 20F04000 		bic	r0, r0, #64	@ tmp182, DCMI_InitStruct_32(D)->DCMI_HSPolarity,
 216 0052 80B2     		uxth	r0, r0	@ tmp184, tmp182
 217 0054 B0FA80F0 		clz	r0, r0	@, tmp184
 218 0058 4009     		lsrs	r0, r0, #5	@,,
 219 005a FFF7FEFF 		bl	assert_param		@
 220              	.LVL6:
 149:../Libraries/STM32F4xx_StdPeriph_Driver/src/stm32f4xx_dcmi.c ****   assert_param(IS_DCMI_CAPTURE_RATE(DCMI_InitStruct->DCMI_CaptureRate));
 221              		.loc 1 149 3 view .LVU29
 222              	@ ../Libraries/STM32F4xx_StdPeriph_Driver/src/stm32f4xx_dcmi.c:149:   assert_param(IS_DCMI_CAPTURE_
 223              		.loc 1 149 16 is_stmt 0 view .LVU30
 224 005e 6089     		ldrh	r0, [r4, #10]	@ _6, DCMI_InitStruct_32(D)->DCMI_CaptureRate
 225              	@ ../Libraries/STM32F4xx_StdPeriph_Driver/src/stm32f4xx_dcmi.c:149:   assert_param(IS_DCMI_CAPTURE_
 226              		.loc 1 149 3 view .LVU31
 227 0060 20F48073 		bic	r3, r0, #256	@ tmp186, _6,
 228 0064 73B3     		cbz	r3, .L7	@ tmp186,
 229              	@ ../Libraries/STM32F4xx_StdPeriph_Driver/src/stm32f4xx_dcmi.c:149:   assert_param(IS_DCMI_CAPTURE_
 230              		.loc 1 149 3 discriminator 4 view .LVU32
 231 0066 A0F50070 		sub	r0, r0, #512	@ iftmp.5_29, _6,
 232 006a B0FA80F0 		clz	r0, r0	@ iftmp.5_29, iftmp.5_29
 233 006e 4009     		lsrs	r0, r0, #5	@ iftmp.5_29, iftmp.5_29,
 234              	.L6:
 235              	@ ../Libraries/STM32F4xx_StdPeriph_Driver/src/stm32f4xx_dcmi.c:149:   assert_param(IS_DCMI_CAPTURE_
 236              		.loc 1 149 3 discriminator 8 view .LVU33
 237 0070 FFF7FEFF 		bl	assert_param		@
 238              	.LVL7:
 150:../Libraries/STM32F4xx_StdPeriph_Driver/src/stm32f4xx_dcmi.c ****   assert_param(IS_DCMI_EXTENDED_DATA(DCMI_InitStruct->DCMI_ExtendedDataMode));
 239              		.loc 1 150 3 is_stmt 1 discriminator 8 view .LVU34
 240 0074 A089     		ldrh	r0, [r4, #12]	@, DCMI_InitStruct_32(D)->DCMI_ExtendedDataMode
 241 0076 20F44060 		bic	r0, r0, #3072	@ tmp192, DCMI_InitStruct_32(D)->DCMI_ExtendedDataMode,
 242 007a 80B2     		uxth	r0, r0	@ tmp194, tmp192
 243 007c B0FA80F0 		clz	r0, r0	@, tmp194
 244 0080 4009     		lsrs	r0, r0, #5	@,,
ARM GAS  C:\Users\admin\AppData\Local\Temp\ccEnfkEC.s 			page 8


 245 0082 FFF7FEFF 		bl	assert_param		@
 246              	.LVL8:
 151:../Libraries/STM32F4xx_StdPeriph_Driver/src/stm32f4xx_dcmi.c **** 
 152:../Libraries/STM32F4xx_StdPeriph_Driver/src/stm32f4xx_dcmi.c ****   /* The DCMI configuration registers should be programmed correctly before 
 153:../Libraries/STM32F4xx_StdPeriph_Driver/src/stm32f4xx_dcmi.c ****   enabling the CR_ENABLE Bit and the CR_CAPTURE Bit */
 154:../Libraries/STM32F4xx_StdPeriph_Driver/src/stm32f4xx_dcmi.c ****   DCMI->CR &= ~(DCMI_CR_ENABLE | DCMI_CR_CAPTURE);
 247              		.loc 1 154 3 discriminator 8 view .LVU35
 248              	@ ../Libraries/STM32F4xx_StdPeriph_Driver/src/stm32f4xx_dcmi.c:169:                      DCMI_InitS
 155:../Libraries/STM32F4xx_StdPeriph_Driver/src/stm32f4xx_dcmi.c ****    
 156:../Libraries/STM32F4xx_StdPeriph_Driver/src/stm32f4xx_dcmi.c ****   /* Reset the old DCMI configuration */
 157:../Libraries/STM32F4xx_StdPeriph_Driver/src/stm32f4xx_dcmi.c ****   temp = DCMI->CR;
 158:../Libraries/STM32F4xx_StdPeriph_Driver/src/stm32f4xx_dcmi.c ****   
 159:../Libraries/STM32F4xx_StdPeriph_Driver/src/stm32f4xx_dcmi.c ****   temp &= ~((uint32_t)DCMI_CR_CM     | DCMI_CR_ESS   | DCMI_CR_PCKPOL |
 160:../Libraries/STM32F4xx_StdPeriph_Driver/src/stm32f4xx_dcmi.c ****                       DCMI_CR_HSPOL  | DCMI_CR_VSPOL | DCMI_CR_FCRC_0 | 
 161:../Libraries/STM32F4xx_StdPeriph_Driver/src/stm32f4xx_dcmi.c ****                       DCMI_CR_FCRC_1 | DCMI_CR_EDM_0 | DCMI_CR_EDM_1); 
 162:../Libraries/STM32F4xx_StdPeriph_Driver/src/stm32f4xx_dcmi.c ****                   
 163:../Libraries/STM32F4xx_StdPeriph_Driver/src/stm32f4xx_dcmi.c ****   /* Sets the new configuration of the DCMI peripheral */
 164:../Libraries/STM32F4xx_StdPeriph_Driver/src/stm32f4xx_dcmi.c ****   temp |= ((uint32_t)DCMI_InitStruct->DCMI_CaptureMode |
 165:../Libraries/STM32F4xx_StdPeriph_Driver/src/stm32f4xx_dcmi.c ****                      DCMI_InitStruct->DCMI_SynchroMode |
 166:../Libraries/STM32F4xx_StdPeriph_Driver/src/stm32f4xx_dcmi.c ****                      DCMI_InitStruct->DCMI_PCKPolarity |
 167:../Libraries/STM32F4xx_StdPeriph_Driver/src/stm32f4xx_dcmi.c ****                      DCMI_InitStruct->DCMI_VSPolarity |
 168:../Libraries/STM32F4xx_StdPeriph_Driver/src/stm32f4xx_dcmi.c ****                      DCMI_InitStruct->DCMI_HSPolarity |
 169:../Libraries/STM32F4xx_StdPeriph_Driver/src/stm32f4xx_dcmi.c ****                      DCMI_InitStruct->DCMI_CaptureRate |
 249              		.loc 1 169 56 is_stmt 0 discriminator 8 view .LVU36
 250 0086 6088     		ldrh	r0, [r4, #2]	@, DCMI_InitStruct_32(D)->DCMI_SynchroMode
 251 0088 2388     		ldrh	r3, [r4]	@, DCMI_InitStruct_32(D)->DCMI_CaptureMode
 252              	@ ../Libraries/STM32F4xx_StdPeriph_Driver/src/stm32f4xx_dcmi.c:154:   DCMI->CR &= ~(DCMI_CR_ENABLE 
 154:../Libraries/STM32F4xx_StdPeriph_Driver/src/stm32f4xx_dcmi.c ****    
 253              		.loc 1 154 12 discriminator 8 view .LVU37
 254 008a 0F49     		ldr	r1, .L9	@ tmp196,
 255              	@ ../Libraries/STM32F4xx_StdPeriph_Driver/src/stm32f4xx_dcmi.c:169:                      DCMI_InitS
 256              		.loc 1 169 56 discriminator 8 view .LVU38
 257 008c B4F80AC0 		ldrh	ip, [r4, #10]	@, DCMI_InitStruct_32(D)->DCMI_CaptureRate
 258              	@ ../Libraries/STM32F4xx_StdPeriph_Driver/src/stm32f4xx_dcmi.c:154:   DCMI->CR &= ~(DCMI_CR_ENABLE 
 154:../Libraries/STM32F4xx_StdPeriph_Driver/src/stm32f4xx_dcmi.c ****    
 259              		.loc 1 154 12 discriminator 8 view .LVU39
 260 0090 0A68     		ldr	r2, [r1]	@ _8, MEM[(struct DCMI_TypeDef *)1342504960B].CR
 261              	@ ../Libraries/STM32F4xx_StdPeriph_Driver/src/stm32f4xx_dcmi.c:169:                      DCMI_InitS
 262              		.loc 1 169 56 discriminator 8 view .LVU40
 263 0092 0343     		orrs	r3, r3, r0	@, tmp203, DCMI_InitStruct_32(D)->DCMI_CaptureMode, DCMI_InitStruct_32(D)->DCMI_Sy
 264 0094 A088     		ldrh	r0, [r4, #4]	@, DCMI_InitStruct_32(D)->DCMI_PCKPolarity
 265 0096 0343     		orrs	r3, r3, r0	@, tmp206, tmp203, DCMI_InitStruct_32(D)->DCMI_PCKPolarity
 266 0098 E088     		ldrh	r0, [r4, #6]	@, DCMI_InitStruct_32(D)->DCMI_VSPolarity
 267              	@ ../Libraries/STM32F4xx_StdPeriph_Driver/src/stm32f4xx_dcmi.c:154:   DCMI->CR &= ~(DCMI_CR_ENABLE 
 154:../Libraries/STM32F4xx_StdPeriph_Driver/src/stm32f4xx_dcmi.c ****    
 268              		.loc 1 154 12 discriminator 8 view .LVU41
 269 009a 22F48042 		bic	r2, r2, #16384	@ _9, _8,
 270 009e 22F00102 		bic	r2, r2, #1	@ _9, _9,
 271              	@ ../Libraries/STM32F4xx_StdPeriph_Driver/src/stm32f4xx_dcmi.c:169:                      DCMI_InitS
 272              		.loc 1 169 56 discriminator 8 view .LVU42
 273 00a2 0343     		orrs	r3, r3, r0	@, tmp209, tmp206, DCMI_InitStruct_32(D)->DCMI_VSPolarity
 274 00a4 2089     		ldrh	r0, [r4, #8]	@, DCMI_InitStruct_32(D)->DCMI_HSPolarity
 275              	@ ../Libraries/STM32F4xx_StdPeriph_Driver/src/stm32f4xx_dcmi.c:154:   DCMI->CR &= ~(DCMI_CR_ENABLE 
 154:../Libraries/STM32F4xx_StdPeriph_Driver/src/stm32f4xx_dcmi.c ****    
 276              		.loc 1 154 12 discriminator 8 view .LVU43
 277 00a6 0A60     		str	r2, [r1]	@ _9, MEM[(struct DCMI_TypeDef *)1342504960B].CR
 157:../Libraries/STM32F4xx_StdPeriph_Driver/src/stm32f4xx_dcmi.c ****   
ARM GAS  C:\Users\admin\AppData\Local\Temp\ccEnfkEC.s 			page 9


 278              		.loc 1 157 3 is_stmt 1 discriminator 8 view .LVU44
 279              	@ ../Libraries/STM32F4xx_StdPeriph_Driver/src/stm32f4xx_dcmi.c:157:   temp = DCMI->CR;
 157:../Libraries/STM32F4xx_StdPeriph_Driver/src/stm32f4xx_dcmi.c ****   
 280              		.loc 1 157 8 is_stmt 0 discriminator 8 view .LVU45
 281 00a8 0A68     		ldr	r2, [r1]	@ temp, MEM[(struct DCMI_TypeDef *)1342504960B].CR
 282              	.LVL9:
 159:../Libraries/STM32F4xx_StdPeriph_Driver/src/stm32f4xx_dcmi.c ****                       DCMI_CR_HSPOL  | DCMI_CR_VSPOL | DCMI_CR_FCRC_0 | 
 283              		.loc 1 159 3 is_stmt 1 discriminator 8 view .LVU46
 284              	@ ../Libraries/STM32F4xx_StdPeriph_Driver/src/stm32f4xx_dcmi.c:169:                      DCMI_InitS
 285              		.loc 1 169 56 is_stmt 0 discriminator 8 view .LVU47
 286 00aa 0343     		orrs	r3, r3, r0	@, tmp212, tmp209, DCMI_InitStruct_32(D)->DCMI_HSPolarity
 287 00ac A089     		ldrh	r0, [r4, #12]	@, DCMI_InitStruct_32(D)->DCMI_ExtendedDataMode
 288 00ae 43EA0C03 		orr	r3, r3, ip	@ tmp215, tmp212, DCMI_InitStruct_32(D)->DCMI_CaptureRate
 289              	@ ../Libraries/STM32F4xx_StdPeriph_Driver/src/stm32f4xx_dcmi.c:159:   temp &= ~((uint32_t)DCMI_CR_C
 159:../Libraries/STM32F4xx_StdPeriph_Driver/src/stm32f4xx_dcmi.c ****                       DCMI_CR_HSPOL  | DCMI_CR_VSPOL | DCMI_CR_FCRC_0 | 
 290              		.loc 1 159 8 discriminator 8 view .LVU48
 291 00b2 22F47F62 		bic	r2, r2, #4080	@ temp, temp,
 292              	.LVL10:
 293              	@ ../Libraries/STM32F4xx_StdPeriph_Driver/src/stm32f4xx_dcmi.c:169:                      DCMI_InitS
 294              		.loc 1 169 56 discriminator 8 view .LVU49
 295 00b6 0343     		orrs	r3, r3, r0	@, tmp218, tmp215, DCMI_InitStruct_32(D)->DCMI_ExtendedDataMode
 296              	@ ../Libraries/STM32F4xx_StdPeriph_Driver/src/stm32f4xx_dcmi.c:159:   temp &= ~((uint32_t)DCMI_CR_C
 159:../Libraries/STM32F4xx_StdPeriph_Driver/src/stm32f4xx_dcmi.c ****                       DCMI_CR_HSPOL  | DCMI_CR_VSPOL | DCMI_CR_FCRC_0 | 
 297              		.loc 1 159 8 discriminator 8 view .LVU50
 298 00b8 22F00202 		bic	r2, r2, #2	@ temp, temp,
 299              	.LVL11:
 164:../Libraries/STM32F4xx_StdPeriph_Driver/src/stm32f4xx_dcmi.c ****                      DCMI_InitStruct->DCMI_SynchroMode |
 300              		.loc 1 164 3 is_stmt 1 discriminator 8 view .LVU51
 301              	@ ../Libraries/STM32F4xx_StdPeriph_Driver/src/stm32f4xx_dcmi.c:169:                      DCMI_InitS
 302              		.loc 1 169 56 is_stmt 0 discriminator 8 view .LVU52
 303 00bc 9BB2     		uxth	r3, r3	@ tmp219, tmp218
 304              	@ ../Libraries/STM32F4xx_StdPeriph_Driver/src/stm32f4xx_dcmi.c:164:   temp |= ((uint32_t)DCMI_InitS
 164:../Libraries/STM32F4xx_StdPeriph_Driver/src/stm32f4xx_dcmi.c ****                      DCMI_InitStruct->DCMI_SynchroMode |
 305              		.loc 1 164 8 discriminator 8 view .LVU53
 306 00be 1343     		orrs	r3, r3, r2	@, temp, tmp219, temp
 307              	.LVL12:
 170:../Libraries/STM32F4xx_StdPeriph_Driver/src/stm32f4xx_dcmi.c ****                      DCMI_InitStruct->DCMI_ExtendedDataMode);
 171:../Libraries/STM32F4xx_StdPeriph_Driver/src/stm32f4xx_dcmi.c **** 
 172:../Libraries/STM32F4xx_StdPeriph_Driver/src/stm32f4xx_dcmi.c ****   DCMI->CR = temp;                              
 308              		.loc 1 172 3 is_stmt 1 discriminator 8 view .LVU54
 309              	@ ../Libraries/STM32F4xx_StdPeriph_Driver/src/stm32f4xx_dcmi.c:172:   DCMI->CR = temp;             
 310              		.loc 1 172 12 is_stmt 0 discriminator 8 view .LVU55
 311 00c0 0B60     		str	r3, [r1]	@ temp, MEM[(struct DCMI_TypeDef *)1342504960B].CR
 312              	@ ../Libraries/STM32F4xx_StdPeriph_Driver/src/stm32f4xx_dcmi.c:173: }
 173:../Libraries/STM32F4xx_StdPeriph_Driver/src/stm32f4xx_dcmi.c **** }
 313              		.loc 1 173 1 discriminator 8 view .LVU56
 314 00c2 10BD     		pop	{r4, pc}	@
 315              	.LVL13:
 316              	.L7:
 317              	@ ../Libraries/STM32F4xx_StdPeriph_Driver/src/stm32f4xx_dcmi.c:149:   assert_param(IS_DCMI_CAPTURE_
 149:../Libraries/STM32F4xx_StdPeriph_Driver/src/stm32f4xx_dcmi.c ****   assert_param(IS_DCMI_EXTENDED_DATA(DCMI_InitStruct->DCMI_ExtendedDataMode));
 318              		.loc 1 149 3 view .LVU57
 319 00c4 0120     		movs	r0, #1	@ iftmp.5_29,
 320 00c6 D3E7     		b	.L6		@
 321              	.L10:
 322              		.align	2
 323              	.L9:
ARM GAS  C:\Users\admin\AppData\Local\Temp\ccEnfkEC.s 			page 10


 324 00c8 00000550 		.word	1342504960
 325              		.cfi_endproc
 326              	.LFE111:
 327              		.size	DCMI_Init, .-DCMI_Init
 328              		.section	.text.DCMI_StructInit,"ax",%progbits
 329              		.align	1
 330              		.p2align 2,,3
 331              		.global	DCMI_StructInit
 332              		.syntax unified
 333              		.thumb
 334              		.thumb_func
 335              		.type	DCMI_StructInit, %function
 336              	DCMI_StructInit:
 337              	.LVL14:
 338              	.LFB112:
 174:../Libraries/STM32F4xx_StdPeriph_Driver/src/stm32f4xx_dcmi.c **** 
 175:../Libraries/STM32F4xx_StdPeriph_Driver/src/stm32f4xx_dcmi.c **** /**
 176:../Libraries/STM32F4xx_StdPeriph_Driver/src/stm32f4xx_dcmi.c ****   * @brief  Fills each DCMI_InitStruct member with its default value.
 177:../Libraries/STM32F4xx_StdPeriph_Driver/src/stm32f4xx_dcmi.c ****   * @param  DCMI_InitStruct : pointer to a DCMI_InitTypeDef structure which will
 178:../Libraries/STM32F4xx_StdPeriph_Driver/src/stm32f4xx_dcmi.c ****   *         be initialized.
 179:../Libraries/STM32F4xx_StdPeriph_Driver/src/stm32f4xx_dcmi.c ****   * @retval None
 180:../Libraries/STM32F4xx_StdPeriph_Driver/src/stm32f4xx_dcmi.c ****   */
 181:../Libraries/STM32F4xx_StdPeriph_Driver/src/stm32f4xx_dcmi.c **** void DCMI_StructInit(DCMI_InitTypeDef* DCMI_InitStruct)
 182:../Libraries/STM32F4xx_StdPeriph_Driver/src/stm32f4xx_dcmi.c **** {
 339              		.loc 1 182 1 is_stmt 1 view -0
 340              		.cfi_startproc
 341              		@ args = 0, pretend = 0, frame = 0
 342              		@ frame_needed = 0, uses_anonymous_args = 0
 343              		@ link register save eliminated.
 183:../Libraries/STM32F4xx_StdPeriph_Driver/src/stm32f4xx_dcmi.c ****   /* Set the default configuration */
 184:../Libraries/STM32F4xx_StdPeriph_Driver/src/stm32f4xx_dcmi.c ****   DCMI_InitStruct->DCMI_CaptureMode = DCMI_CaptureMode_Continuous;
 344              		.loc 1 184 3 view .LVU59
 185:../Libraries/STM32F4xx_StdPeriph_Driver/src/stm32f4xx_dcmi.c ****   DCMI_InitStruct->DCMI_SynchroMode = DCMI_SynchroMode_Hardware;
 345              		.loc 1 185 3 view .LVU60
 186:../Libraries/STM32F4xx_StdPeriph_Driver/src/stm32f4xx_dcmi.c ****   DCMI_InitStruct->DCMI_PCKPolarity = DCMI_PCKPolarity_Falling;
 346              		.loc 1 186 3 view .LVU61
 187:../Libraries/STM32F4xx_StdPeriph_Driver/src/stm32f4xx_dcmi.c ****   DCMI_InitStruct->DCMI_VSPolarity = DCMI_VSPolarity_Low;
 347              		.loc 1 187 3 view .LVU62
 188:../Libraries/STM32F4xx_StdPeriph_Driver/src/stm32f4xx_dcmi.c ****   DCMI_InitStruct->DCMI_HSPolarity = DCMI_HSPolarity_Low;
 348              		.loc 1 188 3 view .LVU63
 189:../Libraries/STM32F4xx_StdPeriph_Driver/src/stm32f4xx_dcmi.c ****   DCMI_InitStruct->DCMI_CaptureRate = DCMI_CaptureRate_All_Frame;
 349              		.loc 1 189 3 view .LVU64
 350              	@ ../Libraries/STM32F4xx_StdPeriph_Driver/src/stm32f4xx_dcmi.c:184:   DCMI_InitStruct->DCMI_Capture
 184:../Libraries/STM32F4xx_StdPeriph_Driver/src/stm32f4xx_dcmi.c ****   DCMI_InitStruct->DCMI_SynchroMode = DCMI_SynchroMode_Hardware;
 351              		.loc 1 184 37 is_stmt 0 view .LVU65
 352 0000 0023     		movs	r3, #0	@ tmp114,
 353 0002 0360     		str	r3, [r0]	@ unaligned	@ tmp114, MEM <vector(2) short unsigned int> [(short unsigned int *)DCMI_
 354 0004 4360     		str	r3, [r0, #4]	@ unaligned	@ tmp114, MEM <vector(2) short unsigned int> [(short unsigned int *)D
 355 0006 8360     		str	r3, [r0, #8]	@ unaligned	@ tmp114, MEM <vector(2) short unsigned int> [(short unsigned int *)D
 190:../Libraries/STM32F4xx_StdPeriph_Driver/src/stm32f4xx_dcmi.c ****   DCMI_InitStruct->DCMI_ExtendedDataMode = DCMI_ExtendedDataMode_8b;
 356              		.loc 1 190 3 is_stmt 1 view .LVU66
 357              	@ ../Libraries/STM32F4xx_StdPeriph_Driver/src/stm32f4xx_dcmi.c:190:   DCMI_InitStruct->DCMI_Extende
 358              		.loc 1 190 42 is_stmt 0 view .LVU67
 359 0008 8381     		strh	r3, [r0, #12]	@ movhi	@ tmp114, DCMI_InitStruct_2(D)->DCMI_ExtendedDataMode
 360              	@ ../Libraries/STM32F4xx_StdPeriph_Driver/src/stm32f4xx_dcmi.c:191: }
 191:../Libraries/STM32F4xx_StdPeriph_Driver/src/stm32f4xx_dcmi.c **** }
 361              		.loc 1 191 1 view .LVU68
ARM GAS  C:\Users\admin\AppData\Local\Temp\ccEnfkEC.s 			page 11


 362 000a 7047     		bx	lr	@
 363              		.cfi_endproc
 364              	.LFE112:
 365              		.size	DCMI_StructInit, .-DCMI_StructInit
 366              		.section	.text.DCMI_CROPConfig,"ax",%progbits
 367              		.align	1
 368              		.p2align 2,,3
 369              		.global	DCMI_CROPConfig
 370              		.syntax unified
 371              		.thumb
 372              		.thumb_func
 373              		.type	DCMI_CROPConfig, %function
 374              	DCMI_CROPConfig:
 375              	.LVL15:
 376              	.LFB113:
 192:../Libraries/STM32F4xx_StdPeriph_Driver/src/stm32f4xx_dcmi.c **** 
 193:../Libraries/STM32F4xx_StdPeriph_Driver/src/stm32f4xx_dcmi.c **** /**
 194:../Libraries/STM32F4xx_StdPeriph_Driver/src/stm32f4xx_dcmi.c ****   * @brief  Initializes the DCMI peripheral CROP mode according to the specified
 195:../Libraries/STM32F4xx_StdPeriph_Driver/src/stm32f4xx_dcmi.c ****   *         parameters in the DCMI_CROPInitStruct.
 196:../Libraries/STM32F4xx_StdPeriph_Driver/src/stm32f4xx_dcmi.c ****   * @note   This function should be called before to enable and start the DCMI interface.   
 197:../Libraries/STM32F4xx_StdPeriph_Driver/src/stm32f4xx_dcmi.c ****   * @param  DCMI_CROPInitStruct:  pointer to a DCMI_CROPInitTypeDef structure that 
 198:../Libraries/STM32F4xx_StdPeriph_Driver/src/stm32f4xx_dcmi.c ****   *         contains the configuration information for the DCMI peripheral CROP mode.
 199:../Libraries/STM32F4xx_StdPeriph_Driver/src/stm32f4xx_dcmi.c ****   * @retval None
 200:../Libraries/STM32F4xx_StdPeriph_Driver/src/stm32f4xx_dcmi.c ****   */
 201:../Libraries/STM32F4xx_StdPeriph_Driver/src/stm32f4xx_dcmi.c **** void DCMI_CROPConfig(DCMI_CROPInitTypeDef* DCMI_CROPInitStruct)
 202:../Libraries/STM32F4xx_StdPeriph_Driver/src/stm32f4xx_dcmi.c **** {  
 377              		.loc 1 202 1 is_stmt 1 view -0
 378              		.cfi_startproc
 379              		@ args = 0, pretend = 0, frame = 0
 380              		@ frame_needed = 0, uses_anonymous_args = 0
 203:../Libraries/STM32F4xx_StdPeriph_Driver/src/stm32f4xx_dcmi.c ****   /* Sets the CROP window coordinates */
 204:../Libraries/STM32F4xx_StdPeriph_Driver/src/stm32f4xx_dcmi.c ****   DCMI->CWSTRTR = (uint32_t)((uint32_t)DCMI_CROPInitStruct->DCMI_HorizontalOffsetCount |
 381              		.loc 1 204 3 view .LVU70
 382              	@ ../Libraries/STM32F4xx_StdPeriph_Driver/src/stm32f4xx_dcmi.c:202: {  
 202:../Libraries/STM32F4xx_StdPeriph_Driver/src/stm32f4xx_dcmi.c ****   /* Sets the CROP window coordinates */
 383              		.loc 1 202 1 is_stmt 0 view .LVU71
 384 0000 00B5     		push	{lr}	@
 385              		.cfi_def_cfa_offset 4
 386              		.cfi_offset 14, -4
 387              	@ ../Libraries/STM32F4xx_StdPeriph_Driver/src/stm32f4xx_dcmi.c:205:                   ((uint32_t)DC
 205:../Libraries/STM32F4xx_StdPeriph_Driver/src/stm32f4xx_dcmi.c ****                   ((uint32_t)DCMI_CROPInitStruct->DCMI_VerticalStartLine << 16));
 388              		.loc 1 205 20 view .LVU72
 389 0002 B0F800C0 		ldrh	ip, [r0]	@ DCMI_CROPInitStruct_14(D)->DCMI_VerticalStartLine, DCMI_CROPInitStruct_14(D)->DCMI
 390              	@ ../Libraries/STM32F4xx_StdPeriph_Driver/src/stm32f4xx_dcmi.c:204:   DCMI->CWSTRTR = (uint32_t)((u
 204:../Libraries/STM32F4xx_StdPeriph_Driver/src/stm32f4xx_dcmi.c ****                   ((uint32_t)DCMI_CROPInitStruct->DCMI_VerticalStartLine << 16));
 391              		.loc 1 204 30 view .LVU73
 392 0006 4288     		ldrh	r2, [r0, #2]	@ DCMI_CROPInitStruct_14(D)->DCMI_HorizontalOffsetCount, DCMI_CROPInitStruct_14(
 393              	@ ../Libraries/STM32F4xx_StdPeriph_Driver/src/stm32f4xx_dcmi.c:209:                   ((uint32_t)DC
 206:../Libraries/STM32F4xx_StdPeriph_Driver/src/stm32f4xx_dcmi.c **** 
 207:../Libraries/STM32F4xx_StdPeriph_Driver/src/stm32f4xx_dcmi.c ****   /* Sets the CROP window size */
 208:../Libraries/STM32F4xx_StdPeriph_Driver/src/stm32f4xx_dcmi.c ****   DCMI->CWSIZER = (uint32_t)(DCMI_CROPInitStruct->DCMI_CaptureCount |
 209:../Libraries/STM32F4xx_StdPeriph_Driver/src/stm32f4xx_dcmi.c ****                   ((uint32_t)DCMI_CROPInitStruct->DCMI_VerticalLineCount << 16));
 394              		.loc 1 209 20 view .LVU74
 395 0008 B0F804E0 		ldrh	lr, [r0, #4]	@ DCMI_CROPInitStruct_14(D)->DCMI_VerticalLineCount, DCMI_CROPInitStruct_14(D)->
 396              	@ ../Libraries/STM32F4xx_StdPeriph_Driver/src/stm32f4xx_dcmi.c:208:   DCMI->CWSIZER = (uint32_t)(DC
 208:../Libraries/STM32F4xx_StdPeriph_Driver/src/stm32f4xx_dcmi.c ****                   ((uint32_t)DCMI_CROPInitStruct->DCMI_VerticalLineCount << 16));
 397              		.loc 1 208 49 view .LVU75
ARM GAS  C:\Users\admin\AppData\Local\Temp\ccEnfkEC.s 			page 12


 398 000c C388     		ldrh	r3, [r0, #6]	@ DCMI_CROPInitStruct_14(D)->DCMI_CaptureCount, DCMI_CROPInitStruct_14(D)->DCMI_
 399              	@ ../Libraries/STM32F4xx_StdPeriph_Driver/src/stm32f4xx_dcmi.c:204:   DCMI->CWSTRTR = (uint32_t)((u
 204:../Libraries/STM32F4xx_StdPeriph_Driver/src/stm32f4xx_dcmi.c ****                   ((uint32_t)DCMI_CROPInitStruct->DCMI_VerticalStartLine << 16));
 400              		.loc 1 204 17 view .LVU76
 401 000e 0449     		ldr	r1, .L14	@ tmp129,
 402              	@ ../Libraries/STM32F4xx_StdPeriph_Driver/src/stm32f4xx_dcmi.c:208:   DCMI->CWSIZER = (uint32_t)(DC
 208:../Libraries/STM32F4xx_StdPeriph_Driver/src/stm32f4xx_dcmi.c ****                   ((uint32_t)DCMI_CROPInitStruct->DCMI_VerticalLineCount << 16));
 403              		.loc 1 208 19 view .LVU77
 404 0010 43EA0E43 		orr	r3, r3, lr, lsl #16	@ _12, DCMI_CROPInitStruct_14(D)->DCMI_CaptureCount, DCMI_CROPInitStruct_1
 405              	@ ../Libraries/STM32F4xx_StdPeriph_Driver/src/stm32f4xx_dcmi.c:204:   DCMI->CWSTRTR = (uint32_t)((u
 204:../Libraries/STM32F4xx_StdPeriph_Driver/src/stm32f4xx_dcmi.c ****                   ((uint32_t)DCMI_CROPInitStruct->DCMI_VerticalStartLine << 16));
 406              		.loc 1 204 19 view .LVU78
 407 0014 42EA0C42 		orr	r2, r2, ip, lsl #16	@ _6, DCMI_CROPInitStruct_14(D)->DCMI_HorizontalOffsetCount, DCMI_CROPInit
 408              	@ ../Libraries/STM32F4xx_StdPeriph_Driver/src/stm32f4xx_dcmi.c:204:   DCMI->CWSTRTR = (uint32_t)((u
 204:../Libraries/STM32F4xx_StdPeriph_Driver/src/stm32f4xx_dcmi.c ****                   ((uint32_t)DCMI_CROPInitStruct->DCMI_VerticalStartLine << 16));
 409              		.loc 1 204 17 view .LVU79
 410 0018 0A62     		str	r2, [r1, #32]	@ _6, MEM[(struct DCMI_TypeDef *)1342504960B].CWSTRTR
 208:../Libraries/STM32F4xx_StdPeriph_Driver/src/stm32f4xx_dcmi.c ****                   ((uint32_t)DCMI_CROPInitStruct->DCMI_VerticalLineCount << 16));
 411              		.loc 1 208 3 is_stmt 1 view .LVU80
 412              	@ ../Libraries/STM32F4xx_StdPeriph_Driver/src/stm32f4xx_dcmi.c:208:   DCMI->CWSIZER = (uint32_t)(DC
 208:../Libraries/STM32F4xx_StdPeriph_Driver/src/stm32f4xx_dcmi.c ****                   ((uint32_t)DCMI_CROPInitStruct->DCMI_VerticalLineCount << 16));
 413              		.loc 1 208 17 is_stmt 0 view .LVU81
 414 001a 4B62     		str	r3, [r1, #36]	@ _12, MEM[(struct DCMI_TypeDef *)1342504960B].CWSIZER
 415              	@ ../Libraries/STM32F4xx_StdPeriph_Driver/src/stm32f4xx_dcmi.c:210: }
 210:../Libraries/STM32F4xx_StdPeriph_Driver/src/stm32f4xx_dcmi.c **** }
 416              		.loc 1 210 1 view .LVU82
 417 001c 5DF804FB 		ldr	pc, [sp], #4	@
 418              	.L15:
 419              		.align	2
 420              	.L14:
 421 0020 00000550 		.word	1342504960
 422              		.cfi_endproc
 423              	.LFE113:
 424              		.size	DCMI_CROPConfig, .-DCMI_CROPConfig
 425              		.section	.text.DCMI_CROPCmd,"ax",%progbits
 426              		.align	1
 427              		.p2align 2,,3
 428              		.global	DCMI_CROPCmd
 429              		.syntax unified
 430              		.thumb
 431              		.thumb_func
 432              		.type	DCMI_CROPCmd, %function
 433              	DCMI_CROPCmd:
 434              	.LVL16:
 435              	.LFB114:
 211:../Libraries/STM32F4xx_StdPeriph_Driver/src/stm32f4xx_dcmi.c **** 
 212:../Libraries/STM32F4xx_StdPeriph_Driver/src/stm32f4xx_dcmi.c **** /**
 213:../Libraries/STM32F4xx_StdPeriph_Driver/src/stm32f4xx_dcmi.c ****   * @brief  Enables or disables the DCMI Crop feature.
 214:../Libraries/STM32F4xx_StdPeriph_Driver/src/stm32f4xx_dcmi.c ****   * @note   This function should be called before to enable and start the DCMI interface.
 215:../Libraries/STM32F4xx_StdPeriph_Driver/src/stm32f4xx_dcmi.c ****   * @param  NewState: new state of the DCMI Crop feature. 
 216:../Libraries/STM32F4xx_StdPeriph_Driver/src/stm32f4xx_dcmi.c ****   *          This parameter can be: ENABLE or DISABLE.
 217:../Libraries/STM32F4xx_StdPeriph_Driver/src/stm32f4xx_dcmi.c ****   * @retval None
 218:../Libraries/STM32F4xx_StdPeriph_Driver/src/stm32f4xx_dcmi.c ****   */
 219:../Libraries/STM32F4xx_StdPeriph_Driver/src/stm32f4xx_dcmi.c **** void DCMI_CROPCmd(FunctionalState NewState)
 220:../Libraries/STM32F4xx_StdPeriph_Driver/src/stm32f4xx_dcmi.c **** {
 436              		.loc 1 220 1 is_stmt 1 view -0
 437              		.cfi_startproc
ARM GAS  C:\Users\admin\AppData\Local\Temp\ccEnfkEC.s 			page 13


 438              		@ args = 0, pretend = 0, frame = 0
 439              		@ frame_needed = 0, uses_anonymous_args = 0
 221:../Libraries/STM32F4xx_StdPeriph_Driver/src/stm32f4xx_dcmi.c ****   /* Check the parameters */
 222:../Libraries/STM32F4xx_StdPeriph_Driver/src/stm32f4xx_dcmi.c ****   assert_param(IS_FUNCTIONAL_STATE(NewState));
 440              		.loc 1 222 3 view .LVU84
 441 0000 0128     		cmp	r0, #1	@ NewState,
 442              	@ ../Libraries/STM32F4xx_StdPeriph_Driver/src/stm32f4xx_dcmi.c:220: {
 220:../Libraries/STM32F4xx_StdPeriph_Driver/src/stm32f4xx_dcmi.c ****   /* Check the parameters */
 443              		.loc 1 220 1 is_stmt 0 view .LVU85
 444 0002 10B5     		push	{r4, lr}	@
 445              		.cfi_def_cfa_offset 8
 446              		.cfi_offset 4, -8
 447              		.cfi_offset 14, -4
 448              	@ ../Libraries/STM32F4xx_StdPeriph_Driver/src/stm32f4xx_dcmi.c:220: {
 220:../Libraries/STM32F4xx_StdPeriph_Driver/src/stm32f4xx_dcmi.c ****   /* Check the parameters */
 449              		.loc 1 220 1 view .LVU86
 450 0004 0446     		mov	r4, r0	@ NewState, tmp128
 451              	@ ../Libraries/STM32F4xx_StdPeriph_Driver/src/stm32f4xx_dcmi.c:222:   assert_param(IS_FUNCTIONAL_ST
 452              		.loc 1 222 3 view .LVU87
 453 0006 8CBF     		ite	hi
 454 0008 0020     		movhi	r0, #0	@,
 455              	.LVL17:
 456              		.loc 1 222 3 view .LVU88
 457 000a 0120     		movls	r0, #1	@,
 458 000c FFF7FEFF 		bl	assert_param		@
 459              	.LVL18:
 223:../Libraries/STM32F4xx_StdPeriph_Driver/src/stm32f4xx_dcmi.c ****     
 224:../Libraries/STM32F4xx_StdPeriph_Driver/src/stm32f4xx_dcmi.c ****   if (NewState != DISABLE)
 460              		.loc 1 224 3 is_stmt 1 view .LVU89
 461              	@ ../Libraries/STM32F4xx_StdPeriph_Driver/src/stm32f4xx_dcmi.c:227:     DCMI->CR |= (uint32_t)DCMI_
 225:../Libraries/STM32F4xx_StdPeriph_Driver/src/stm32f4xx_dcmi.c ****   {
 226:../Libraries/STM32F4xx_StdPeriph_Driver/src/stm32f4xx_dcmi.c ****     /* Enable the DCMI Crop feature */
 227:../Libraries/STM32F4xx_StdPeriph_Driver/src/stm32f4xx_dcmi.c ****     DCMI->CR |= (uint32_t)DCMI_CR_CROP;
 462              		.loc 1 227 14 is_stmt 0 view .LVU90
 463 0010 054A     		ldr	r2, .L20	@ tmp124,
 464 0012 1368     		ldr	r3, [r2]	@ _3,
 465              	@ ../Libraries/STM32F4xx_StdPeriph_Driver/src/stm32f4xx_dcmi.c:224:   if (NewState != DISABLE)
 224:../Libraries/STM32F4xx_StdPeriph_Driver/src/stm32f4xx_dcmi.c ****   {
 466              		.loc 1 224 6 view .LVU91
 467 0014 1CB1     		cbz	r4, .L17	@ NewState,
 468              		.loc 1 227 5 is_stmt 1 view .LVU92
 469              	@ ../Libraries/STM32F4xx_StdPeriph_Driver/src/stm32f4xx_dcmi.c:227:     DCMI->CR |= (uint32_t)DCMI_
 470              		.loc 1 227 14 is_stmt 0 view .LVU93
 471 0016 43F00403 		orr	r3, r3, #4	@ _4, _3,
 472 001a 1360     		str	r3, [r2]	@ _4,
 473              	@ ../Libraries/STM32F4xx_StdPeriph_Driver/src/stm32f4xx_dcmi.c:234: }
 228:../Libraries/STM32F4xx_StdPeriph_Driver/src/stm32f4xx_dcmi.c ****   }
 229:../Libraries/STM32F4xx_StdPeriph_Driver/src/stm32f4xx_dcmi.c ****   else
 230:../Libraries/STM32F4xx_StdPeriph_Driver/src/stm32f4xx_dcmi.c ****   {
 231:../Libraries/STM32F4xx_StdPeriph_Driver/src/stm32f4xx_dcmi.c ****     /* Disable the DCMI Crop feature */
 232:../Libraries/STM32F4xx_StdPeriph_Driver/src/stm32f4xx_dcmi.c ****     DCMI->CR &= ~(uint32_t)DCMI_CR_CROP;
 233:../Libraries/STM32F4xx_StdPeriph_Driver/src/stm32f4xx_dcmi.c ****   }
 234:../Libraries/STM32F4xx_StdPeriph_Driver/src/stm32f4xx_dcmi.c **** }
 474              		.loc 1 234 1 view .LVU94
 475 001c 10BD     		pop	{r4, pc}	@
 476              	.L17:
 232:../Libraries/STM32F4xx_StdPeriph_Driver/src/stm32f4xx_dcmi.c ****   }
ARM GAS  C:\Users\admin\AppData\Local\Temp\ccEnfkEC.s 			page 14


 477              		.loc 1 232 5 is_stmt 1 view .LVU95
 478              	@ ../Libraries/STM32F4xx_StdPeriph_Driver/src/stm32f4xx_dcmi.c:232:     DCMI->CR &= ~(uint32_t)DCMI
 232:../Libraries/STM32F4xx_StdPeriph_Driver/src/stm32f4xx_dcmi.c ****   }
 479              		.loc 1 232 14 is_stmt 0 view .LVU96
 480 001e 23F00403 		bic	r3, r3, #4	@ _6, _5,
 481 0022 1360     		str	r3, [r2]	@ _6,
 482              	@ ../Libraries/STM32F4xx_StdPeriph_Driver/src/stm32f4xx_dcmi.c:234: }
 483              		.loc 1 234 1 view .LVU97
 484 0024 10BD     		pop	{r4, pc}	@
 485              	.L21:
 486 0026 00BF     		.align	2
 487              	.L20:
 488 0028 00000550 		.word	1342504960
 489              		.cfi_endproc
 490              	.LFE114:
 491              		.size	DCMI_CROPCmd, .-DCMI_CROPCmd
 492              		.section	.text.DCMI_SetEmbeddedSynchroCodes,"ax",%progbits
 493              		.align	1
 494              		.p2align 2,,3
 495              		.global	DCMI_SetEmbeddedSynchroCodes
 496              		.syntax unified
 497              		.thumb
 498              		.thumb_func
 499              		.type	DCMI_SetEmbeddedSynchroCodes, %function
 500              	DCMI_SetEmbeddedSynchroCodes:
 501              	.LVL19:
 502              	.LFB115:
 235:../Libraries/STM32F4xx_StdPeriph_Driver/src/stm32f4xx_dcmi.c **** 
 236:../Libraries/STM32F4xx_StdPeriph_Driver/src/stm32f4xx_dcmi.c **** /**
 237:../Libraries/STM32F4xx_StdPeriph_Driver/src/stm32f4xx_dcmi.c ****   * @brief  Sets the embedded synchronization codes
 238:../Libraries/STM32F4xx_StdPeriph_Driver/src/stm32f4xx_dcmi.c ****   * @param  DCMI_CodesInitTypeDef: pointer to a DCMI_CodesInitTypeDef structure that
 239:../Libraries/STM32F4xx_StdPeriph_Driver/src/stm32f4xx_dcmi.c ****   *         contains the embedded synchronization codes for the DCMI peripheral.
 240:../Libraries/STM32F4xx_StdPeriph_Driver/src/stm32f4xx_dcmi.c ****   * @retval None
 241:../Libraries/STM32F4xx_StdPeriph_Driver/src/stm32f4xx_dcmi.c ****   */
 242:../Libraries/STM32F4xx_StdPeriph_Driver/src/stm32f4xx_dcmi.c **** void DCMI_SetEmbeddedSynchroCodes(DCMI_CodesInitTypeDef* DCMI_CodesInitStruct)
 243:../Libraries/STM32F4xx_StdPeriph_Driver/src/stm32f4xx_dcmi.c **** {
 503              		.loc 1 243 1 is_stmt 1 view -0
 504              		.cfi_startproc
 505              		@ args = 0, pretend = 0, frame = 0
 506              		@ frame_needed = 0, uses_anonymous_args = 0
 507              		@ link register save eliminated.
 244:../Libraries/STM32F4xx_StdPeriph_Driver/src/stm32f4xx_dcmi.c ****   DCMI->ESCR = (uint32_t)(DCMI_CodesInitStruct->DCMI_FrameStartCode |
 508              		.loc 1 244 3 view .LVU99
 509              	@ ../Libraries/STM32F4xx_StdPeriph_Driver/src/stm32f4xx_dcmi.c:244:   DCMI->ESCR = (uint32_t)(DCMI_
 510              		.loc 1 244 14 is_stmt 0 view .LVU100
 511 0000 014B     		ldr	r3, .L23	@ tmp116,
 512              	@ ../Libraries/STM32F4xx_StdPeriph_Driver/src/stm32f4xx_dcmi.c:244:   DCMI->ESCR = (uint32_t)(DCMI_
 513              		.loc 1 244 16 view .LVU101
 514 0002 0268     		ldr	r2, [r0]	@ unaligned	@ tmp115, MEM <long unsigned int> [(unsigned char *)DCMI_CodesInitStruct_
 515              	@ ../Libraries/STM32F4xx_StdPeriph_Driver/src/stm32f4xx_dcmi.c:244:   DCMI->ESCR = (uint32_t)(DCMI_
 516              		.loc 1 244 14 view .LVU102
 517 0004 9A61     		str	r2, [r3, #24]	@ tmp115, MEM[(struct DCMI_TypeDef *)1342504960B].ESCR
 518              	@ ../Libraries/STM32F4xx_StdPeriph_Driver/src/stm32f4xx_dcmi.c:248: }
 245:../Libraries/STM32F4xx_StdPeriph_Driver/src/stm32f4xx_dcmi.c ****                           ((uint32_t)DCMI_CodesInitStruct->DCMI_LineStartCode << 8)|
 246:../Libraries/STM32F4xx_StdPeriph_Driver/src/stm32f4xx_dcmi.c ****                           ((uint32_t)DCMI_CodesInitStruct->DCMI_LineEndCode << 16)|
 247:../Libraries/STM32F4xx_StdPeriph_Driver/src/stm32f4xx_dcmi.c ****                           ((uint32_t)DCMI_CodesInitStruct->DCMI_FrameEndCode << 24));
 248:../Libraries/STM32F4xx_StdPeriph_Driver/src/stm32f4xx_dcmi.c **** }
ARM GAS  C:\Users\admin\AppData\Local\Temp\ccEnfkEC.s 			page 15


 519              		.loc 1 248 1 view .LVU103
 520 0006 7047     		bx	lr	@
 521              	.L24:
 522              		.align	2
 523              	.L23:
 524 0008 00000550 		.word	1342504960
 525              		.cfi_endproc
 526              	.LFE115:
 527              		.size	DCMI_SetEmbeddedSynchroCodes, .-DCMI_SetEmbeddedSynchroCodes
 528              		.section	.text.DCMI_JPEGCmd,"ax",%progbits
 529              		.align	1
 530              		.p2align 2,,3
 531              		.global	DCMI_JPEGCmd
 532              		.syntax unified
 533              		.thumb
 534              		.thumb_func
 535              		.type	DCMI_JPEGCmd, %function
 536              	DCMI_JPEGCmd:
 537              	.LVL20:
 538              	.LFB116:
 249:../Libraries/STM32F4xx_StdPeriph_Driver/src/stm32f4xx_dcmi.c **** 
 250:../Libraries/STM32F4xx_StdPeriph_Driver/src/stm32f4xx_dcmi.c **** /**
 251:../Libraries/STM32F4xx_StdPeriph_Driver/src/stm32f4xx_dcmi.c ****   * @brief  Enables or disables the DCMI JPEG format.
 252:../Libraries/STM32F4xx_StdPeriph_Driver/src/stm32f4xx_dcmi.c ****   * @note   The Crop and Embedded Synchronization features cannot be used in this mode.  
 253:../Libraries/STM32F4xx_StdPeriph_Driver/src/stm32f4xx_dcmi.c ****   * @param  NewState: new state of the DCMI JPEG format. 
 254:../Libraries/STM32F4xx_StdPeriph_Driver/src/stm32f4xx_dcmi.c ****   *          This parameter can be: ENABLE or DISABLE.
 255:../Libraries/STM32F4xx_StdPeriph_Driver/src/stm32f4xx_dcmi.c ****   * @retval None
 256:../Libraries/STM32F4xx_StdPeriph_Driver/src/stm32f4xx_dcmi.c ****   */
 257:../Libraries/STM32F4xx_StdPeriph_Driver/src/stm32f4xx_dcmi.c **** void DCMI_JPEGCmd(FunctionalState NewState)
 258:../Libraries/STM32F4xx_StdPeriph_Driver/src/stm32f4xx_dcmi.c **** {
 539              		.loc 1 258 1 is_stmt 1 view -0
 540              		.cfi_startproc
 541              		@ args = 0, pretend = 0, frame = 0
 542              		@ frame_needed = 0, uses_anonymous_args = 0
 259:../Libraries/STM32F4xx_StdPeriph_Driver/src/stm32f4xx_dcmi.c ****   /* Check the parameters */
 260:../Libraries/STM32F4xx_StdPeriph_Driver/src/stm32f4xx_dcmi.c ****   assert_param(IS_FUNCTIONAL_STATE(NewState));
 543              		.loc 1 260 3 view .LVU105
 544 0000 0128     		cmp	r0, #1	@ NewState,
 545              	@ ../Libraries/STM32F4xx_StdPeriph_Driver/src/stm32f4xx_dcmi.c:258: {
 258:../Libraries/STM32F4xx_StdPeriph_Driver/src/stm32f4xx_dcmi.c ****   /* Check the parameters */
 546              		.loc 1 258 1 is_stmt 0 view .LVU106
 547 0002 10B5     		push	{r4, lr}	@
 548              		.cfi_def_cfa_offset 8
 549              		.cfi_offset 4, -8
 550              		.cfi_offset 14, -4
 551              	@ ../Libraries/STM32F4xx_StdPeriph_Driver/src/stm32f4xx_dcmi.c:258: {
 258:../Libraries/STM32F4xx_StdPeriph_Driver/src/stm32f4xx_dcmi.c ****   /* Check the parameters */
 552              		.loc 1 258 1 view .LVU107
 553 0004 0446     		mov	r4, r0	@ NewState, tmp128
 554              	@ ../Libraries/STM32F4xx_StdPeriph_Driver/src/stm32f4xx_dcmi.c:260:   assert_param(IS_FUNCTIONAL_ST
 555              		.loc 1 260 3 view .LVU108
 556 0006 8CBF     		ite	hi
 557 0008 0020     		movhi	r0, #0	@,
 558              	.LVL21:
 559              		.loc 1 260 3 view .LVU109
 560 000a 0120     		movls	r0, #1	@,
 561 000c FFF7FEFF 		bl	assert_param		@
ARM GAS  C:\Users\admin\AppData\Local\Temp\ccEnfkEC.s 			page 16


 562              	.LVL22:
 261:../Libraries/STM32F4xx_StdPeriph_Driver/src/stm32f4xx_dcmi.c ****  
 262:../Libraries/STM32F4xx_StdPeriph_Driver/src/stm32f4xx_dcmi.c ****   if (NewState != DISABLE)
 563              		.loc 1 262 3 is_stmt 1 view .LVU110
 564              	@ ../Libraries/STM32F4xx_StdPeriph_Driver/src/stm32f4xx_dcmi.c:265:     DCMI->CR |= (uint32_t)DCMI_
 263:../Libraries/STM32F4xx_StdPeriph_Driver/src/stm32f4xx_dcmi.c ****   {
 264:../Libraries/STM32F4xx_StdPeriph_Driver/src/stm32f4xx_dcmi.c ****     /* Enable the DCMI JPEG format */
 265:../Libraries/STM32F4xx_StdPeriph_Driver/src/stm32f4xx_dcmi.c ****     DCMI->CR |= (uint32_t)DCMI_CR_JPEG;
 565              		.loc 1 265 14 is_stmt 0 view .LVU111
 566 0010 054A     		ldr	r2, .L29	@ tmp124,
 567 0012 1368     		ldr	r3, [r2]	@ _3,
 568              	@ ../Libraries/STM32F4xx_StdPeriph_Driver/src/stm32f4xx_dcmi.c:262:   if (NewState != DISABLE)
 262:../Libraries/STM32F4xx_StdPeriph_Driver/src/stm32f4xx_dcmi.c ****   {
 569              		.loc 1 262 6 view .LVU112
 570 0014 1CB1     		cbz	r4, .L26	@ NewState,
 571              		.loc 1 265 5 is_stmt 1 view .LVU113
 572              	@ ../Libraries/STM32F4xx_StdPeriph_Driver/src/stm32f4xx_dcmi.c:265:     DCMI->CR |= (uint32_t)DCMI_
 573              		.loc 1 265 14 is_stmt 0 view .LVU114
 574 0016 43F00803 		orr	r3, r3, #8	@ _4, _3,
 575 001a 1360     		str	r3, [r2]	@ _4,
 576              	@ ../Libraries/STM32F4xx_StdPeriph_Driver/src/stm32f4xx_dcmi.c:272: }
 266:../Libraries/STM32F4xx_StdPeriph_Driver/src/stm32f4xx_dcmi.c ****   }
 267:../Libraries/STM32F4xx_StdPeriph_Driver/src/stm32f4xx_dcmi.c ****   else
 268:../Libraries/STM32F4xx_StdPeriph_Driver/src/stm32f4xx_dcmi.c ****   {
 269:../Libraries/STM32F4xx_StdPeriph_Driver/src/stm32f4xx_dcmi.c ****     /* Disable the DCMI JPEG format */
 270:../Libraries/STM32F4xx_StdPeriph_Driver/src/stm32f4xx_dcmi.c ****     DCMI->CR &= ~(uint32_t)DCMI_CR_JPEG;
 271:../Libraries/STM32F4xx_StdPeriph_Driver/src/stm32f4xx_dcmi.c ****   }
 272:../Libraries/STM32F4xx_StdPeriph_Driver/src/stm32f4xx_dcmi.c **** }
 577              		.loc 1 272 1 view .LVU115
 578 001c 10BD     		pop	{r4, pc}	@
 579              	.L26:
 270:../Libraries/STM32F4xx_StdPeriph_Driver/src/stm32f4xx_dcmi.c ****   }
 580              		.loc 1 270 5 is_stmt 1 view .LVU116
 581              	@ ../Libraries/STM32F4xx_StdPeriph_Driver/src/stm32f4xx_dcmi.c:270:     DCMI->CR &= ~(uint32_t)DCMI
 270:../Libraries/STM32F4xx_StdPeriph_Driver/src/stm32f4xx_dcmi.c ****   }
 582              		.loc 1 270 14 is_stmt 0 view .LVU117
 583 001e 23F00803 		bic	r3, r3, #8	@ _6, _5,
 584 0022 1360     		str	r3, [r2]	@ _6,
 585              	@ ../Libraries/STM32F4xx_StdPeriph_Driver/src/stm32f4xx_dcmi.c:272: }
 586              		.loc 1 272 1 view .LVU118
 587 0024 10BD     		pop	{r4, pc}	@
 588              	.L30:
 589 0026 00BF     		.align	2
 590              	.L29:
 591 0028 00000550 		.word	1342504960
 592              		.cfi_endproc
 593              	.LFE116:
 594              		.size	DCMI_JPEGCmd, .-DCMI_JPEGCmd
 595              		.section	.text.DCMI_Cmd,"ax",%progbits
 596              		.align	1
 597              		.p2align 2,,3
 598              		.global	DCMI_Cmd
 599              		.syntax unified
 600              		.thumb
 601              		.thumb_func
 602              		.type	DCMI_Cmd, %function
 603              	DCMI_Cmd:
ARM GAS  C:\Users\admin\AppData\Local\Temp\ccEnfkEC.s 			page 17


 604              	.LVL23:
 605              	.LFB117:
 273:../Libraries/STM32F4xx_StdPeriph_Driver/src/stm32f4xx_dcmi.c **** /**
 274:../Libraries/STM32F4xx_StdPeriph_Driver/src/stm32f4xx_dcmi.c ****   * @}
 275:../Libraries/STM32F4xx_StdPeriph_Driver/src/stm32f4xx_dcmi.c ****   */
 276:../Libraries/STM32F4xx_StdPeriph_Driver/src/stm32f4xx_dcmi.c **** 
 277:../Libraries/STM32F4xx_StdPeriph_Driver/src/stm32f4xx_dcmi.c **** /** @defgroup DCMI_Group2 Image capture functions
 278:../Libraries/STM32F4xx_StdPeriph_Driver/src/stm32f4xx_dcmi.c ****  *  @brief   Image capture functions
 279:../Libraries/STM32F4xx_StdPeriph_Driver/src/stm32f4xx_dcmi.c ****  *
 280:../Libraries/STM32F4xx_StdPeriph_Driver/src/stm32f4xx_dcmi.c **** @verbatim   
 281:../Libraries/STM32F4xx_StdPeriph_Driver/src/stm32f4xx_dcmi.c ****  ===============================================================================
 282:../Libraries/STM32F4xx_StdPeriph_Driver/src/stm32f4xx_dcmi.c ****                                  Image capture functions
 283:../Libraries/STM32F4xx_StdPeriph_Driver/src/stm32f4xx_dcmi.c ****  ===============================================================================  
 284:../Libraries/STM32F4xx_StdPeriph_Driver/src/stm32f4xx_dcmi.c **** 
 285:../Libraries/STM32F4xx_StdPeriph_Driver/src/stm32f4xx_dcmi.c **** @endverbatim
 286:../Libraries/STM32F4xx_StdPeriph_Driver/src/stm32f4xx_dcmi.c ****   * @{
 287:../Libraries/STM32F4xx_StdPeriph_Driver/src/stm32f4xx_dcmi.c ****   */
 288:../Libraries/STM32F4xx_StdPeriph_Driver/src/stm32f4xx_dcmi.c ****   
 289:../Libraries/STM32F4xx_StdPeriph_Driver/src/stm32f4xx_dcmi.c **** /**
 290:../Libraries/STM32F4xx_StdPeriph_Driver/src/stm32f4xx_dcmi.c ****   * @brief  Enables or disables the DCMI interface.
 291:../Libraries/STM32F4xx_StdPeriph_Driver/src/stm32f4xx_dcmi.c ****   * @param  NewState: new state of the DCMI interface. 
 292:../Libraries/STM32F4xx_StdPeriph_Driver/src/stm32f4xx_dcmi.c ****   *          This parameter can be: ENABLE or DISABLE.
 293:../Libraries/STM32F4xx_StdPeriph_Driver/src/stm32f4xx_dcmi.c ****   * @retval None
 294:../Libraries/STM32F4xx_StdPeriph_Driver/src/stm32f4xx_dcmi.c ****   */
 295:../Libraries/STM32F4xx_StdPeriph_Driver/src/stm32f4xx_dcmi.c **** void DCMI_Cmd(FunctionalState NewState)
 296:../Libraries/STM32F4xx_StdPeriph_Driver/src/stm32f4xx_dcmi.c **** {
 606              		.loc 1 296 1 is_stmt 1 view -0
 607              		.cfi_startproc
 608              		@ args = 0, pretend = 0, frame = 0
 609              		@ frame_needed = 0, uses_anonymous_args = 0
 297:../Libraries/STM32F4xx_StdPeriph_Driver/src/stm32f4xx_dcmi.c ****   /* Check the parameters */
 298:../Libraries/STM32F4xx_StdPeriph_Driver/src/stm32f4xx_dcmi.c ****   assert_param(IS_FUNCTIONAL_STATE(NewState));
 610              		.loc 1 298 3 view .LVU120
 611 0000 0128     		cmp	r0, #1	@ NewState,
 612              	@ ../Libraries/STM32F4xx_StdPeriph_Driver/src/stm32f4xx_dcmi.c:296: {
 296:../Libraries/STM32F4xx_StdPeriph_Driver/src/stm32f4xx_dcmi.c ****   /* Check the parameters */
 613              		.loc 1 296 1 is_stmt 0 view .LVU121
 614 0002 10B5     		push	{r4, lr}	@
 615              		.cfi_def_cfa_offset 8
 616              		.cfi_offset 4, -8
 617              		.cfi_offset 14, -4
 618              	@ ../Libraries/STM32F4xx_StdPeriph_Driver/src/stm32f4xx_dcmi.c:296: {
 296:../Libraries/STM32F4xx_StdPeriph_Driver/src/stm32f4xx_dcmi.c ****   /* Check the parameters */
 619              		.loc 1 296 1 view .LVU122
 620 0004 0446     		mov	r4, r0	@ NewState, tmp128
 621              	@ ../Libraries/STM32F4xx_StdPeriph_Driver/src/stm32f4xx_dcmi.c:298:   assert_param(IS_FUNCTIONAL_ST
 622              		.loc 1 298 3 view .LVU123
 623 0006 8CBF     		ite	hi
 624 0008 0020     		movhi	r0, #0	@,
 625              	.LVL24:
 626              		.loc 1 298 3 view .LVU124
 627 000a 0120     		movls	r0, #1	@,
 628 000c FFF7FEFF 		bl	assert_param		@
 629              	.LVL25:
 299:../Libraries/STM32F4xx_StdPeriph_Driver/src/stm32f4xx_dcmi.c ****   
 300:../Libraries/STM32F4xx_StdPeriph_Driver/src/stm32f4xx_dcmi.c ****   if (NewState != DISABLE)
 630              		.loc 1 300 3 is_stmt 1 view .LVU125
ARM GAS  C:\Users\admin\AppData\Local\Temp\ccEnfkEC.s 			page 18


 631              	@ ../Libraries/STM32F4xx_StdPeriph_Driver/src/stm32f4xx_dcmi.c:303:     DCMI->CR |= (uint32_t)DCMI_
 301:../Libraries/STM32F4xx_StdPeriph_Driver/src/stm32f4xx_dcmi.c ****   {
 302:../Libraries/STM32F4xx_StdPeriph_Driver/src/stm32f4xx_dcmi.c ****     /* Enable the DCMI by setting ENABLE bit */
 303:../Libraries/STM32F4xx_StdPeriph_Driver/src/stm32f4xx_dcmi.c ****     DCMI->CR |= (uint32_t)DCMI_CR_ENABLE;
 632              		.loc 1 303 14 is_stmt 0 view .LVU126
 633 0010 054A     		ldr	r2, .L35	@ tmp124,
 634 0012 1368     		ldr	r3, [r2]	@ _3,
 635              	@ ../Libraries/STM32F4xx_StdPeriph_Driver/src/stm32f4xx_dcmi.c:300:   if (NewState != DISABLE)
 300:../Libraries/STM32F4xx_StdPeriph_Driver/src/stm32f4xx_dcmi.c ****   {
 636              		.loc 1 300 6 view .LVU127
 637 0014 1CB1     		cbz	r4, .L32	@ NewState,
 638              		.loc 1 303 5 is_stmt 1 view .LVU128
 639              	@ ../Libraries/STM32F4xx_StdPeriph_Driver/src/stm32f4xx_dcmi.c:303:     DCMI->CR |= (uint32_t)DCMI_
 640              		.loc 1 303 14 is_stmt 0 view .LVU129
 641 0016 43F48043 		orr	r3, r3, #16384	@ _4, _3,
 642 001a 1360     		str	r3, [r2]	@ _4,
 643              	@ ../Libraries/STM32F4xx_StdPeriph_Driver/src/stm32f4xx_dcmi.c:310: }
 304:../Libraries/STM32F4xx_StdPeriph_Driver/src/stm32f4xx_dcmi.c ****   }
 305:../Libraries/STM32F4xx_StdPeriph_Driver/src/stm32f4xx_dcmi.c ****   else
 306:../Libraries/STM32F4xx_StdPeriph_Driver/src/stm32f4xx_dcmi.c ****   {
 307:../Libraries/STM32F4xx_StdPeriph_Driver/src/stm32f4xx_dcmi.c ****     /* Disable the DCMI by clearing ENABLE bit */
 308:../Libraries/STM32F4xx_StdPeriph_Driver/src/stm32f4xx_dcmi.c ****     DCMI->CR &= ~(uint32_t)DCMI_CR_ENABLE;
 309:../Libraries/STM32F4xx_StdPeriph_Driver/src/stm32f4xx_dcmi.c ****   }
 310:../Libraries/STM32F4xx_StdPeriph_Driver/src/stm32f4xx_dcmi.c **** }
 644              		.loc 1 310 1 view .LVU130
 645 001c 10BD     		pop	{r4, pc}	@
 646              	.L32:
 308:../Libraries/STM32F4xx_StdPeriph_Driver/src/stm32f4xx_dcmi.c ****   }
 647              		.loc 1 308 5 is_stmt 1 view .LVU131
 648              	@ ../Libraries/STM32F4xx_StdPeriph_Driver/src/stm32f4xx_dcmi.c:308:     DCMI->CR &= ~(uint32_t)DCMI
 308:../Libraries/STM32F4xx_StdPeriph_Driver/src/stm32f4xx_dcmi.c ****   }
 649              		.loc 1 308 14 is_stmt 0 view .LVU132
 650 001e 23F48043 		bic	r3, r3, #16384	@ _6, _5,
 651 0022 1360     		str	r3, [r2]	@ _6,
 652              	@ ../Libraries/STM32F4xx_StdPeriph_Driver/src/stm32f4xx_dcmi.c:310: }
 653              		.loc 1 310 1 view .LVU133
 654 0024 10BD     		pop	{r4, pc}	@
 655              	.L36:
 656 0026 00BF     		.align	2
 657              	.L35:
 658 0028 00000550 		.word	1342504960
 659              		.cfi_endproc
 660              	.LFE117:
 661              		.size	DCMI_Cmd, .-DCMI_Cmd
 662              		.section	.text.DCMI_CaptureCmd,"ax",%progbits
 663              		.align	1
 664              		.p2align 2,,3
 665              		.global	DCMI_CaptureCmd
 666              		.syntax unified
 667              		.thumb
 668              		.thumb_func
 669              		.type	DCMI_CaptureCmd, %function
 670              	DCMI_CaptureCmd:
 671              	.LVL26:
 672              	.LFB118:
 311:../Libraries/STM32F4xx_StdPeriph_Driver/src/stm32f4xx_dcmi.c **** 
 312:../Libraries/STM32F4xx_StdPeriph_Driver/src/stm32f4xx_dcmi.c **** /**
ARM GAS  C:\Users\admin\AppData\Local\Temp\ccEnfkEC.s 			page 19


 313:../Libraries/STM32F4xx_StdPeriph_Driver/src/stm32f4xx_dcmi.c ****   * @brief  Enables or disables the DCMI Capture.
 314:../Libraries/STM32F4xx_StdPeriph_Driver/src/stm32f4xx_dcmi.c ****   * @param  NewState: new state of the DCMI capture. 
 315:../Libraries/STM32F4xx_StdPeriph_Driver/src/stm32f4xx_dcmi.c ****   *          This parameter can be: ENABLE or DISABLE.
 316:../Libraries/STM32F4xx_StdPeriph_Driver/src/stm32f4xx_dcmi.c ****   * @retval None
 317:../Libraries/STM32F4xx_StdPeriph_Driver/src/stm32f4xx_dcmi.c ****   */
 318:../Libraries/STM32F4xx_StdPeriph_Driver/src/stm32f4xx_dcmi.c **** void DCMI_CaptureCmd(FunctionalState NewState)
 319:../Libraries/STM32F4xx_StdPeriph_Driver/src/stm32f4xx_dcmi.c **** {
 673              		.loc 1 319 1 is_stmt 1 view -0
 674              		.cfi_startproc
 675              		@ args = 0, pretend = 0, frame = 0
 676              		@ frame_needed = 0, uses_anonymous_args = 0
 320:../Libraries/STM32F4xx_StdPeriph_Driver/src/stm32f4xx_dcmi.c ****   /* Check the parameters */
 321:../Libraries/STM32F4xx_StdPeriph_Driver/src/stm32f4xx_dcmi.c ****   assert_param(IS_FUNCTIONAL_STATE(NewState));
 677              		.loc 1 321 3 view .LVU135
 678 0000 0128     		cmp	r0, #1	@ NewState,
 679              	@ ../Libraries/STM32F4xx_StdPeriph_Driver/src/stm32f4xx_dcmi.c:319: {
 319:../Libraries/STM32F4xx_StdPeriph_Driver/src/stm32f4xx_dcmi.c ****   /* Check the parameters */
 680              		.loc 1 319 1 is_stmt 0 view .LVU136
 681 0002 10B5     		push	{r4, lr}	@
 682              		.cfi_def_cfa_offset 8
 683              		.cfi_offset 4, -8
 684              		.cfi_offset 14, -4
 685              	@ ../Libraries/STM32F4xx_StdPeriph_Driver/src/stm32f4xx_dcmi.c:319: {
 319:../Libraries/STM32F4xx_StdPeriph_Driver/src/stm32f4xx_dcmi.c ****   /* Check the parameters */
 686              		.loc 1 319 1 view .LVU137
 687 0004 0446     		mov	r4, r0	@ NewState, tmp128
 688              	@ ../Libraries/STM32F4xx_StdPeriph_Driver/src/stm32f4xx_dcmi.c:321:   assert_param(IS_FUNCTIONAL_ST
 689              		.loc 1 321 3 view .LVU138
 690 0006 8CBF     		ite	hi
 691 0008 0020     		movhi	r0, #0	@,
 692              	.LVL27:
 693              		.loc 1 321 3 view .LVU139
 694 000a 0120     		movls	r0, #1	@,
 695 000c FFF7FEFF 		bl	assert_param		@
 696              	.LVL28:
 322:../Libraries/STM32F4xx_StdPeriph_Driver/src/stm32f4xx_dcmi.c ****     
 323:../Libraries/STM32F4xx_StdPeriph_Driver/src/stm32f4xx_dcmi.c ****   if (NewState != DISABLE)
 697              		.loc 1 323 3 is_stmt 1 view .LVU140
 698              	@ ../Libraries/STM32F4xx_StdPeriph_Driver/src/stm32f4xx_dcmi.c:326:     DCMI->CR |= (uint32_t)DCMI_
 324:../Libraries/STM32F4xx_StdPeriph_Driver/src/stm32f4xx_dcmi.c ****   {
 325:../Libraries/STM32F4xx_StdPeriph_Driver/src/stm32f4xx_dcmi.c ****     /* Enable the DCMI Capture */
 326:../Libraries/STM32F4xx_StdPeriph_Driver/src/stm32f4xx_dcmi.c ****     DCMI->CR |= (uint32_t)DCMI_CR_CAPTURE;
 699              		.loc 1 326 14 is_stmt 0 view .LVU141
 700 0010 054A     		ldr	r2, .L41	@ tmp124,
 701 0012 1368     		ldr	r3, [r2]	@ _3,
 702              	@ ../Libraries/STM32F4xx_StdPeriph_Driver/src/stm32f4xx_dcmi.c:323:   if (NewState != DISABLE)
 323:../Libraries/STM32F4xx_StdPeriph_Driver/src/stm32f4xx_dcmi.c ****   {
 703              		.loc 1 323 6 view .LVU142
 704 0014 1CB1     		cbz	r4, .L38	@ NewState,
 705              		.loc 1 326 5 is_stmt 1 view .LVU143
 706              	@ ../Libraries/STM32F4xx_StdPeriph_Driver/src/stm32f4xx_dcmi.c:326:     DCMI->CR |= (uint32_t)DCMI_
 707              		.loc 1 326 14 is_stmt 0 view .LVU144
 708 0016 43F00103 		orr	r3, r3, #1	@ _4, _3,
 709 001a 1360     		str	r3, [r2]	@ _4,
 710              	@ ../Libraries/STM32F4xx_StdPeriph_Driver/src/stm32f4xx_dcmi.c:333: }
 327:../Libraries/STM32F4xx_StdPeriph_Driver/src/stm32f4xx_dcmi.c ****   }
 328:../Libraries/STM32F4xx_StdPeriph_Driver/src/stm32f4xx_dcmi.c ****   else
ARM GAS  C:\Users\admin\AppData\Local\Temp\ccEnfkEC.s 			page 20


 329:../Libraries/STM32F4xx_StdPeriph_Driver/src/stm32f4xx_dcmi.c ****   {
 330:../Libraries/STM32F4xx_StdPeriph_Driver/src/stm32f4xx_dcmi.c ****     /* Disable the DCMI Capture */
 331:../Libraries/STM32F4xx_StdPeriph_Driver/src/stm32f4xx_dcmi.c ****     DCMI->CR &= ~(uint32_t)DCMI_CR_CAPTURE;
 332:../Libraries/STM32F4xx_StdPeriph_Driver/src/stm32f4xx_dcmi.c ****   }
 333:../Libraries/STM32F4xx_StdPeriph_Driver/src/stm32f4xx_dcmi.c **** }
 711              		.loc 1 333 1 view .LVU145
 712 001c 10BD     		pop	{r4, pc}	@
 713              	.L38:
 331:../Libraries/STM32F4xx_StdPeriph_Driver/src/stm32f4xx_dcmi.c ****   }
 714              		.loc 1 331 5 is_stmt 1 view .LVU146
 715              	@ ../Libraries/STM32F4xx_StdPeriph_Driver/src/stm32f4xx_dcmi.c:331:     DCMI->CR &= ~(uint32_t)DCMI
 331:../Libraries/STM32F4xx_StdPeriph_Driver/src/stm32f4xx_dcmi.c ****   }
 716              		.loc 1 331 14 is_stmt 0 view .LVU147
 717 001e 23F00103 		bic	r3, r3, #1	@ _6, _5,
 718 0022 1360     		str	r3, [r2]	@ _6,
 719              	@ ../Libraries/STM32F4xx_StdPeriph_Driver/src/stm32f4xx_dcmi.c:333: }
 720              		.loc 1 333 1 view .LVU148
 721 0024 10BD     		pop	{r4, pc}	@
 722              	.L42:
 723 0026 00BF     		.align	2
 724              	.L41:
 725 0028 00000550 		.word	1342504960
 726              		.cfi_endproc
 727              	.LFE118:
 728              		.size	DCMI_CaptureCmd, .-DCMI_CaptureCmd
 729              		.section	.text.DCMI_ReadData,"ax",%progbits
 730              		.align	1
 731              		.p2align 2,,3
 732              		.global	DCMI_ReadData
 733              		.syntax unified
 734              		.thumb
 735              		.thumb_func
 736              		.type	DCMI_ReadData, %function
 737              	DCMI_ReadData:
 738              	.LFB119:
 334:../Libraries/STM32F4xx_StdPeriph_Driver/src/stm32f4xx_dcmi.c **** 
 335:../Libraries/STM32F4xx_StdPeriph_Driver/src/stm32f4xx_dcmi.c **** /**
 336:../Libraries/STM32F4xx_StdPeriph_Driver/src/stm32f4xx_dcmi.c ****   * @brief  Reads the data stored in the DR register.
 337:../Libraries/STM32F4xx_StdPeriph_Driver/src/stm32f4xx_dcmi.c ****   * @param  None 
 338:../Libraries/STM32F4xx_StdPeriph_Driver/src/stm32f4xx_dcmi.c ****   * @retval Data register value
 339:../Libraries/STM32F4xx_StdPeriph_Driver/src/stm32f4xx_dcmi.c ****   */
 340:../Libraries/STM32F4xx_StdPeriph_Driver/src/stm32f4xx_dcmi.c **** uint32_t DCMI_ReadData(void)
 341:../Libraries/STM32F4xx_StdPeriph_Driver/src/stm32f4xx_dcmi.c **** {
 739              		.loc 1 341 1 is_stmt 1 view -0
 740              		.cfi_startproc
 741              		@ args = 0, pretend = 0, frame = 0
 742              		@ frame_needed = 0, uses_anonymous_args = 0
 743              		@ link register save eliminated.
 342:../Libraries/STM32F4xx_StdPeriph_Driver/src/stm32f4xx_dcmi.c ****   return DCMI->DR;
 744              		.loc 1 342 3 view .LVU150
 745              	@ ../Libraries/STM32F4xx_StdPeriph_Driver/src/stm32f4xx_dcmi.c:342:   return DCMI->DR;
 746              		.loc 1 342 14 is_stmt 0 view .LVU151
 747 0000 014B     		ldr	r3, .L44	@ tmp114,
 748 0002 986A     		ldr	r0, [r3, #40]	@ <retval>, MEM[(struct DCMI_TypeDef *)1342504960B].DR
 749              	@ ../Libraries/STM32F4xx_StdPeriph_Driver/src/stm32f4xx_dcmi.c:343: }
 343:../Libraries/STM32F4xx_StdPeriph_Driver/src/stm32f4xx_dcmi.c **** }
 750              		.loc 1 343 1 view .LVU152
ARM GAS  C:\Users\admin\AppData\Local\Temp\ccEnfkEC.s 			page 21


 751 0004 7047     		bx	lr	@
 752              	.L45:
 753 0006 00BF     		.align	2
 754              	.L44:
 755 0008 00000550 		.word	1342504960
 756              		.cfi_endproc
 757              	.LFE119:
 758              		.size	DCMI_ReadData, .-DCMI_ReadData
 759              		.section	.text.DCMI_ITConfig,"ax",%progbits
 760              		.align	1
 761              		.p2align 2,,3
 762              		.global	DCMI_ITConfig
 763              		.syntax unified
 764              		.thumb
 765              		.thumb_func
 766              		.type	DCMI_ITConfig, %function
 767              	DCMI_ITConfig:
 768              	.LVL29:
 769              	.LFB120:
 344:../Libraries/STM32F4xx_StdPeriph_Driver/src/stm32f4xx_dcmi.c **** /**
 345:../Libraries/STM32F4xx_StdPeriph_Driver/src/stm32f4xx_dcmi.c ****   * @}
 346:../Libraries/STM32F4xx_StdPeriph_Driver/src/stm32f4xx_dcmi.c ****   */
 347:../Libraries/STM32F4xx_StdPeriph_Driver/src/stm32f4xx_dcmi.c **** 
 348:../Libraries/STM32F4xx_StdPeriph_Driver/src/stm32f4xx_dcmi.c **** /** @defgroup DCMI_Group3 Interrupts and flags management functions
 349:../Libraries/STM32F4xx_StdPeriph_Driver/src/stm32f4xx_dcmi.c ****  *  @brief   Interrupts and flags management functions
 350:../Libraries/STM32F4xx_StdPeriph_Driver/src/stm32f4xx_dcmi.c ****  *
 351:../Libraries/STM32F4xx_StdPeriph_Driver/src/stm32f4xx_dcmi.c **** @verbatim   
 352:../Libraries/STM32F4xx_StdPeriph_Driver/src/stm32f4xx_dcmi.c ****  ===============================================================================
 353:../Libraries/STM32F4xx_StdPeriph_Driver/src/stm32f4xx_dcmi.c ****                   Interrupts and flags management functions
 354:../Libraries/STM32F4xx_StdPeriph_Driver/src/stm32f4xx_dcmi.c ****  ===============================================================================  
 355:../Libraries/STM32F4xx_StdPeriph_Driver/src/stm32f4xx_dcmi.c **** 
 356:../Libraries/STM32F4xx_StdPeriph_Driver/src/stm32f4xx_dcmi.c **** @endverbatim
 357:../Libraries/STM32F4xx_StdPeriph_Driver/src/stm32f4xx_dcmi.c ****   * @{
 358:../Libraries/STM32F4xx_StdPeriph_Driver/src/stm32f4xx_dcmi.c ****   */
 359:../Libraries/STM32F4xx_StdPeriph_Driver/src/stm32f4xx_dcmi.c **** 
 360:../Libraries/STM32F4xx_StdPeriph_Driver/src/stm32f4xx_dcmi.c **** /**
 361:../Libraries/STM32F4xx_StdPeriph_Driver/src/stm32f4xx_dcmi.c ****   * @brief  Enables or disables the DCMI interface interrupts.
 362:../Libraries/STM32F4xx_StdPeriph_Driver/src/stm32f4xx_dcmi.c ****   * @param  DCMI_IT: specifies the DCMI interrupt sources to be enabled or disabled. 
 363:../Libraries/STM32F4xx_StdPeriph_Driver/src/stm32f4xx_dcmi.c ****   *          This parameter can be any combination of the following values:
 364:../Libraries/STM32F4xx_StdPeriph_Driver/src/stm32f4xx_dcmi.c ****   *            @arg DCMI_IT_FRAME: Frame capture complete interrupt mask
 365:../Libraries/STM32F4xx_StdPeriph_Driver/src/stm32f4xx_dcmi.c ****   *            @arg DCMI_IT_OVF: Overflow interrupt mask
 366:../Libraries/STM32F4xx_StdPeriph_Driver/src/stm32f4xx_dcmi.c ****   *            @arg DCMI_IT_ERR: Synchronization error interrupt mask
 367:../Libraries/STM32F4xx_StdPeriph_Driver/src/stm32f4xx_dcmi.c ****   *            @arg DCMI_IT_VSYNC: VSYNC interrupt mask
 368:../Libraries/STM32F4xx_StdPeriph_Driver/src/stm32f4xx_dcmi.c ****   *            @arg DCMI_IT_LINE: Line interrupt mask
 369:../Libraries/STM32F4xx_StdPeriph_Driver/src/stm32f4xx_dcmi.c ****   * @param  NewState: new state of the specified DCMI interrupts.
 370:../Libraries/STM32F4xx_StdPeriph_Driver/src/stm32f4xx_dcmi.c ****   *          This parameter can be: ENABLE or DISABLE.
 371:../Libraries/STM32F4xx_StdPeriph_Driver/src/stm32f4xx_dcmi.c ****   * @retval None
 372:../Libraries/STM32F4xx_StdPeriph_Driver/src/stm32f4xx_dcmi.c ****   */
 373:../Libraries/STM32F4xx_StdPeriph_Driver/src/stm32f4xx_dcmi.c **** void DCMI_ITConfig(uint16_t DCMI_IT, FunctionalState NewState)
 374:../Libraries/STM32F4xx_StdPeriph_Driver/src/stm32f4xx_dcmi.c **** {
 770              		.loc 1 374 1 is_stmt 1 view -0
 771              		.cfi_startproc
 772              		@ args = 0, pretend = 0, frame = 0
 773              		@ frame_needed = 0, uses_anonymous_args = 0
 375:../Libraries/STM32F4xx_StdPeriph_Driver/src/stm32f4xx_dcmi.c ****   /* Check the parameters */
 376:../Libraries/STM32F4xx_StdPeriph_Driver/src/stm32f4xx_dcmi.c ****   assert_param(IS_DCMI_CONFIG_IT(DCMI_IT));
 774              		.loc 1 376 3 view .LVU154
ARM GAS  C:\Users\admin\AppData\Local\Temp\ccEnfkEC.s 			page 22


 775              	@ ../Libraries/STM32F4xx_StdPeriph_Driver/src/stm32f4xx_dcmi.c:374: {
 374:../Libraries/STM32F4xx_StdPeriph_Driver/src/stm32f4xx_dcmi.c ****   /* Check the parameters */
 776              		.loc 1 374 1 is_stmt 0 view .LVU155
 777 0000 38B5     		push	{r3, r4, r5, lr}	@
 778              		.cfi_def_cfa_offset 16
 779              		.cfi_offset 3, -16
 780              		.cfi_offset 4, -12
 781              		.cfi_offset 5, -8
 782              		.cfi_offset 14, -4
 783              	@ ../Libraries/STM32F4xx_StdPeriph_Driver/src/stm32f4xx_dcmi.c:376:   assert_param(IS_DCMI_CONFIG_I
 784              		.loc 1 376 3 view .LVU156
 785 0002 20F01F03 		bic	r3, r0, #31	@ tmp127, DCMI_IT,
 786              	@ ../Libraries/STM32F4xx_StdPeriph_Driver/src/stm32f4xx_dcmi.c:374: {
 374:../Libraries/STM32F4xx_StdPeriph_Driver/src/stm32f4xx_dcmi.c ****   /* Check the parameters */
 787              		.loc 1 374 1 view .LVU157
 788 0006 0446     		mov	r4, r0	@ DCMI_IT, tmp142
 789 0008 0D46     		mov	r5, r1	@ NewState, tmp143
 790              	@ ../Libraries/STM32F4xx_StdPeriph_Driver/src/stm32f4xx_dcmi.c:376:   assert_param(IS_DCMI_CONFIG_I
 791              		.loc 1 376 3 view .LVU158
 792 000a B3B9     		cbnz	r3, .L50	@ tmp127,
 793              	@ ../Libraries/STM32F4xx_StdPeriph_Driver/src/stm32f4xx_dcmi.c:376:   assert_param(IS_DCMI_CONFIG_I
 794              		.loc 1 376 3 discriminator 1 view .LVU159
 795 000c 0038     		subs	r0, r0, #0	@ iftmp.7_10, DCMI_IT,
 796              	.LVL30:
 797              		.loc 1 376 3 discriminator 1 view .LVU160
 798 000e 18BF     		it	ne
 799 0010 0120     		movne	r0, #1	@ iftmp.7_10,
 800              	.L47:
 801              	@ ../Libraries/STM32F4xx_StdPeriph_Driver/src/stm32f4xx_dcmi.c:376:   assert_param(IS_DCMI_CONFIG_I
 802              		.loc 1 376 3 discriminator 6 view .LVU161
 803 0012 FFF7FEFF 		bl	assert_param		@
 804              	.LVL31:
 377:../Libraries/STM32F4xx_StdPeriph_Driver/src/stm32f4xx_dcmi.c ****   assert_param(IS_FUNCTIONAL_STATE(NewState));
 805              		.loc 1 377 3 is_stmt 1 discriminator 6 view .LVU162
 806 0016 012D     		cmp	r5, #1	@ NewState,
 807 0018 8CBF     		ite	hi
 808 001a 0020     		movhi	r0, #0	@,
 809 001c 0120     		movls	r0, #1	@,
 810 001e FFF7FEFF 		bl	assert_param		@
 811              	.LVL32:
 378:../Libraries/STM32F4xx_StdPeriph_Driver/src/stm32f4xx_dcmi.c ****   
 379:../Libraries/STM32F4xx_StdPeriph_Driver/src/stm32f4xx_dcmi.c ****   if (NewState != DISABLE)
 812              		.loc 1 379 3 discriminator 6 view .LVU163
 813              	@ ../Libraries/STM32F4xx_StdPeriph_Driver/src/stm32f4xx_dcmi.c:382:     DCMI->IER |= DCMI_IT;
 380:../Libraries/STM32F4xx_StdPeriph_Driver/src/stm32f4xx_dcmi.c ****   {
 381:../Libraries/STM32F4xx_StdPeriph_Driver/src/stm32f4xx_dcmi.c ****     /* Enable the Interrupt sources */
 382:../Libraries/STM32F4xx_StdPeriph_Driver/src/stm32f4xx_dcmi.c ****     DCMI->IER |= DCMI_IT;
 814              		.loc 1 382 15 is_stmt 0 discriminator 6 view .LVU164
 815 0022 074B     		ldr	r3, .L52	@ tmp136,
 816              	@ ../Libraries/STM32F4xx_StdPeriph_Driver/src/stm32f4xx_dcmi.c:379:   if (NewState != DISABLE)
 379:../Libraries/STM32F4xx_StdPeriph_Driver/src/stm32f4xx_dcmi.c ****   {
 817              		.loc 1 379 6 discriminator 6 view .LVU165
 818 0024 1DB1     		cbz	r5, .L48	@ NewState,
 819              		.loc 1 382 5 is_stmt 1 view .LVU166
 820              	@ ../Libraries/STM32F4xx_StdPeriph_Driver/src/stm32f4xx_dcmi.c:382:     DCMI->IER |= DCMI_IT;
 821              		.loc 1 382 15 is_stmt 0 view .LVU167
 822 0026 D868     		ldr	r0, [r3, #12]	@ _3, MEM[(struct DCMI_TypeDef *)1342504960B].IER
ARM GAS  C:\Users\admin\AppData\Local\Temp\ccEnfkEC.s 			page 23


 823 0028 0443     		orrs	r4, r4, r0	@, _5, DCMI_IT, _3
 824 002a DC60     		str	r4, [r3, #12]	@ _5,
 825              	@ ../Libraries/STM32F4xx_StdPeriph_Driver/src/stm32f4xx_dcmi.c:389: }
 383:../Libraries/STM32F4xx_StdPeriph_Driver/src/stm32f4xx_dcmi.c ****   }
 384:../Libraries/STM32F4xx_StdPeriph_Driver/src/stm32f4xx_dcmi.c ****   else
 385:../Libraries/STM32F4xx_StdPeriph_Driver/src/stm32f4xx_dcmi.c ****   {
 386:../Libraries/STM32F4xx_StdPeriph_Driver/src/stm32f4xx_dcmi.c ****     /* Disable the Interrupt sources */
 387:../Libraries/STM32F4xx_StdPeriph_Driver/src/stm32f4xx_dcmi.c ****     DCMI->IER &= (uint16_t)(~DCMI_IT);
 388:../Libraries/STM32F4xx_StdPeriph_Driver/src/stm32f4xx_dcmi.c ****   }  
 389:../Libraries/STM32F4xx_StdPeriph_Driver/src/stm32f4xx_dcmi.c **** }
 826              		.loc 1 389 1 view .LVU168
 827 002c 38BD     		pop	{r3, r4, r5, pc}	@
 828              	.L48:
 387:../Libraries/STM32F4xx_StdPeriph_Driver/src/stm32f4xx_dcmi.c ****   }  
 829              		.loc 1 387 5 is_stmt 1 view .LVU169
 830              	@ ../Libraries/STM32F4xx_StdPeriph_Driver/src/stm32f4xx_dcmi.c:387:     DCMI->IER &= (uint16_t)(~DC
 387:../Libraries/STM32F4xx_StdPeriph_Driver/src/stm32f4xx_dcmi.c ****   }  
 831              		.loc 1 387 15 is_stmt 0 view .LVU170
 832 002e DA68     		ldr	r2, [r3, #12]	@ _6, MEM[(struct DCMI_TypeDef *)1342504960B].IER
 833              	@ ../Libraries/STM32F4xx_StdPeriph_Driver/src/stm32f4xx_dcmi.c:387:     DCMI->IER &= (uint16_t)(~DC
 387:../Libraries/STM32F4xx_StdPeriph_Driver/src/stm32f4xx_dcmi.c ****   }  
 834              		.loc 1 387 18 view .LVU171
 835 0030 E443     		mvns	r4, r4	@ tmp139, DCMI_IT
 836 0032 A4B2     		uxth	r4, r4	@ tmp140, tmp139
 837              	@ ../Libraries/STM32F4xx_StdPeriph_Driver/src/stm32f4xx_dcmi.c:387:     DCMI->IER &= (uint16_t)(~DC
 387:../Libraries/STM32F4xx_StdPeriph_Driver/src/stm32f4xx_dcmi.c ****   }  
 838              		.loc 1 387 15 view .LVU172
 839 0034 1440     		ands	r4, r4, r2	@, _9, tmp140, _6
 840 0036 DC60     		str	r4, [r3, #12]	@ _9,
 841              	@ ../Libraries/STM32F4xx_StdPeriph_Driver/src/stm32f4xx_dcmi.c:389: }
 842              		.loc 1 389 1 view .LVU173
 843 0038 38BD     		pop	{r3, r4, r5, pc}	@
 844              	.LVL33:
 845              	.L50:
 846              	@ ../Libraries/STM32F4xx_StdPeriph_Driver/src/stm32f4xx_dcmi.c:376:   assert_param(IS_DCMI_CONFIG_I
 376:../Libraries/STM32F4xx_StdPeriph_Driver/src/stm32f4xx_dcmi.c ****   assert_param(IS_FUNCTIONAL_STATE(NewState));
 847              		.loc 1 376 3 view .LVU174
 848 003a 0020     		movs	r0, #0	@ iftmp.7_10,
 849              	.LVL34:
 376:../Libraries/STM32F4xx_StdPeriph_Driver/src/stm32f4xx_dcmi.c ****   assert_param(IS_FUNCTIONAL_STATE(NewState));
 850              		.loc 1 376 3 view .LVU175
 851 003c E9E7     		b	.L47		@
 852              	.L53:
 853 003e 00BF     		.align	2
 854              	.L52:
 855 0040 00000550 		.word	1342504960
 856              		.cfi_endproc
 857              	.LFE120:
 858              		.size	DCMI_ITConfig, .-DCMI_ITConfig
 859              		.section	.text.DCMI_GetFlagStatus,"ax",%progbits
 860              		.align	1
 861              		.p2align 2,,3
 862              		.global	DCMI_GetFlagStatus
 863              		.syntax unified
 864              		.thumb
 865              		.thumb_func
 866              		.type	DCMI_GetFlagStatus, %function
ARM GAS  C:\Users\admin\AppData\Local\Temp\ccEnfkEC.s 			page 24


 867              	DCMI_GetFlagStatus:
 868              	.LVL35:
 869              	.LFB121:
 390:../Libraries/STM32F4xx_StdPeriph_Driver/src/stm32f4xx_dcmi.c **** 
 391:../Libraries/STM32F4xx_StdPeriph_Driver/src/stm32f4xx_dcmi.c **** /**
 392:../Libraries/STM32F4xx_StdPeriph_Driver/src/stm32f4xx_dcmi.c ****   * @brief  Checks whether the  DCMI interface flag is set or not.
 393:../Libraries/STM32F4xx_StdPeriph_Driver/src/stm32f4xx_dcmi.c ****   * @param  DCMI_FLAG: specifies the flag to check.
 394:../Libraries/STM32F4xx_StdPeriph_Driver/src/stm32f4xx_dcmi.c ****   *          This parameter can be one of the following values:
 395:../Libraries/STM32F4xx_StdPeriph_Driver/src/stm32f4xx_dcmi.c ****   *            @arg DCMI_FLAG_FRAMERI: Frame capture complete Raw flag mask
 396:../Libraries/STM32F4xx_StdPeriph_Driver/src/stm32f4xx_dcmi.c ****   *            @arg DCMI_FLAG_OVFRI: Overflow Raw flag mask
 397:../Libraries/STM32F4xx_StdPeriph_Driver/src/stm32f4xx_dcmi.c ****   *            @arg DCMI_FLAG_ERRRI: Synchronization error Raw flag mask
 398:../Libraries/STM32F4xx_StdPeriph_Driver/src/stm32f4xx_dcmi.c ****   *            @arg DCMI_FLAG_VSYNCRI: VSYNC Raw flag mask
 399:../Libraries/STM32F4xx_StdPeriph_Driver/src/stm32f4xx_dcmi.c ****   *            @arg DCMI_FLAG_LINERI: Line Raw flag mask
 400:../Libraries/STM32F4xx_StdPeriph_Driver/src/stm32f4xx_dcmi.c ****   *            @arg DCMI_FLAG_FRAMEMI: Frame capture complete Masked flag mask
 401:../Libraries/STM32F4xx_StdPeriph_Driver/src/stm32f4xx_dcmi.c ****   *            @arg DCMI_FLAG_OVFMI: Overflow Masked flag mask
 402:../Libraries/STM32F4xx_StdPeriph_Driver/src/stm32f4xx_dcmi.c ****   *            @arg DCMI_FLAG_ERRMI: Synchronization error Masked flag mask
 403:../Libraries/STM32F4xx_StdPeriph_Driver/src/stm32f4xx_dcmi.c ****   *            @arg DCMI_FLAG_VSYNCMI: VSYNC Masked flag mask
 404:../Libraries/STM32F4xx_StdPeriph_Driver/src/stm32f4xx_dcmi.c ****   *            @arg DCMI_FLAG_LINEMI: Line Masked flag mask
 405:../Libraries/STM32F4xx_StdPeriph_Driver/src/stm32f4xx_dcmi.c ****   *            @arg DCMI_FLAG_HSYNC: HSYNC flag mask
 406:../Libraries/STM32F4xx_StdPeriph_Driver/src/stm32f4xx_dcmi.c ****   *            @arg DCMI_FLAG_VSYNC: VSYNC flag mask
 407:../Libraries/STM32F4xx_StdPeriph_Driver/src/stm32f4xx_dcmi.c ****   *            @arg DCMI_FLAG_FNE: Fifo not empty flag mask
 408:../Libraries/STM32F4xx_StdPeriph_Driver/src/stm32f4xx_dcmi.c ****   * @retval The new state of DCMI_FLAG (SET or RESET).
 409:../Libraries/STM32F4xx_StdPeriph_Driver/src/stm32f4xx_dcmi.c ****   */
 410:../Libraries/STM32F4xx_StdPeriph_Driver/src/stm32f4xx_dcmi.c **** FlagStatus DCMI_GetFlagStatus(uint16_t DCMI_FLAG)
 411:../Libraries/STM32F4xx_StdPeriph_Driver/src/stm32f4xx_dcmi.c **** {
 870              		.loc 1 411 1 is_stmt 1 view -0
 871              		.cfi_startproc
 872              		@ args = 0, pretend = 0, frame = 0
 873              		@ frame_needed = 0, uses_anonymous_args = 0
 412:../Libraries/STM32F4xx_StdPeriph_Driver/src/stm32f4xx_dcmi.c ****   FlagStatus bitstatus = RESET;
 874              		.loc 1 412 3 view .LVU177
 413:../Libraries/STM32F4xx_StdPeriph_Driver/src/stm32f4xx_dcmi.c ****   uint32_t dcmireg, tempreg = 0;
 875              		.loc 1 413 3 view .LVU178
 414:../Libraries/STM32F4xx_StdPeriph_Driver/src/stm32f4xx_dcmi.c **** 
 415:../Libraries/STM32F4xx_StdPeriph_Driver/src/stm32f4xx_dcmi.c ****   /* Check the parameters */
 416:../Libraries/STM32F4xx_StdPeriph_Driver/src/stm32f4xx_dcmi.c ****   assert_param(IS_DCMI_GET_FLAG(DCMI_FLAG));
 876              		.loc 1 416 3 view .LVU179
 877              	@ ../Libraries/STM32F4xx_StdPeriph_Driver/src/stm32f4xx_dcmi.c:416:   assert_param(IS_DCMI_GET_FLAG
 878              		.loc 1 416 16 is_stmt 0 view .LVU180
 879 0000 00F55F43 		add	r3, r0, #57088	@ tmp134, DCMI_FLAG,
 880 0004 FF33     		adds	r3, r3, #255	@ tmp134, tmp134,
 881              	@ ../Libraries/STM32F4xx_StdPeriph_Driver/src/stm32f4xx_dcmi.c:416:   assert_param(IS_DCMI_GET_FLAG
 882              		.loc 1 416 3 view .LVU181
 883 0006 9BB2     		uxth	r3, r3	@ tmp137, tmp134
 884 0008 012B     		cmp	r3, #1	@ tmp137,
 885              	@ ../Libraries/STM32F4xx_StdPeriph_Driver/src/stm32f4xx_dcmi.c:411: {
 411:../Libraries/STM32F4xx_StdPeriph_Driver/src/stm32f4xx_dcmi.c ****   FlagStatus bitstatus = RESET;
 886              		.loc 1 411 1 view .LVU182
 887 000a 10B5     		push	{r4, lr}	@
 888              		.cfi_def_cfa_offset 8
 889              		.cfi_offset 4, -8
 890              		.cfi_offset 14, -4
 891              	@ ../Libraries/STM32F4xx_StdPeriph_Driver/src/stm32f4xx_dcmi.c:411: {
 411:../Libraries/STM32F4xx_StdPeriph_Driver/src/stm32f4xx_dcmi.c ****   FlagStatus bitstatus = RESET;
 892              		.loc 1 411 1 view .LVU183
 893 000c 0446     		mov	r4, r0	@ DCMI_FLAG, tmp171
 894              	@ ../Libraries/STM32F4xx_StdPeriph_Driver/src/stm32f4xx_dcmi.c:416:   assert_param(IS_DCMI_GET_FLAG
ARM GAS  C:\Users\admin\AppData\Local\Temp\ccEnfkEC.s 			page 25


 895              		.loc 1 416 3 view .LVU184
 896 000e 19D9     		bls	.L67		@,
 897              	@ ../Libraries/STM32F4xx_StdPeriph_Driver/src/stm32f4xx_dcmi.c:416:   assert_param(IS_DCMI_GET_FLAG
 898              		.loc 1 416 16 discriminator 2 view .LVU185
 899 0010 42F20403 		movw	r3, #8196	@ tmp138,
 900 0014 9842     		cmp	r0, r3	@ DCMI_FLAG, tmp138
 901 0016 0BD0     		beq	.L56		@,
 902              	@ ../Libraries/STM32F4xx_StdPeriph_Driver/src/stm32f4xx_dcmi.c:416:   assert_param(IS_DCMI_GET_FLAG
 903              		.loc 1 416 16 discriminator 4 view .LVU186
 904 0018 1028     		cmp	r0, #16	@ DCMI_FLAG,
 905 001a 1CD8     		bhi	.L72		@,
 906 001c 1A4B     		ldr	r3, .L73	@ tmp147,
 907 001e C340     		lsrs	r3, r3, r0	@ tmp146, tmp147, DCMI_FLAG
 908 0020 DA07     		lsls	r2, r3, #31	@, tmp146,
 909 0022 2AD5     		bpl	.L58		@,
 910              	@ ../Libraries/STM32F4xx_StdPeriph_Driver/src/stm32f4xx_dcmi.c:416:   assert_param(IS_DCMI_GET_FLAG
 911              		.loc 1 416 3 view .LVU187
 912 0024 0120     		movs	r0, #1	@,
 913              	.LVL36:
 914              		.loc 1 416 3 view .LVU188
 915 0026 FFF7FEFF 		bl	assert_param		@
 916              	.LVL37:
 417:../Libraries/STM32F4xx_StdPeriph_Driver/src/stm32f4xx_dcmi.c ****   
 418:../Libraries/STM32F4xx_StdPeriph_Driver/src/stm32f4xx_dcmi.c ****   /* Get the DCMI register index */
 419:../Libraries/STM32F4xx_StdPeriph_Driver/src/stm32f4xx_dcmi.c ****   dcmireg = (((uint16_t)DCMI_FLAG) >> 12);
 917              		.loc 1 419 3 is_stmt 1 view .LVU189
 420:../Libraries/STM32F4xx_StdPeriph_Driver/src/stm32f4xx_dcmi.c ****   
 421:../Libraries/STM32F4xx_StdPeriph_Driver/src/stm32f4xx_dcmi.c ****   if (dcmireg == 0x01) /* The FLAG is in RISR register */
 918              		.loc 1 421 3 view .LVU190
 422:../Libraries/STM32F4xx_StdPeriph_Driver/src/stm32f4xx_dcmi.c ****   {
 423:../Libraries/STM32F4xx_StdPeriph_Driver/src/stm32f4xx_dcmi.c ****     tempreg= DCMI->RISR;
 424:../Libraries/STM32F4xx_StdPeriph_Driver/src/stm32f4xx_dcmi.c ****   }
 425:../Libraries/STM32F4xx_StdPeriph_Driver/src/stm32f4xx_dcmi.c ****   else if (dcmireg == 0x02) /* The FLAG is in SR register */
 919              		.loc 1 425 8 view .LVU191
 920              	.L64:
 426:../Libraries/STM32F4xx_StdPeriph_Driver/src/stm32f4xx_dcmi.c ****   {
 427:../Libraries/STM32F4xx_StdPeriph_Driver/src/stm32f4xx_dcmi.c ****     tempreg = DCMI->SR;
 428:../Libraries/STM32F4xx_StdPeriph_Driver/src/stm32f4xx_dcmi.c ****   }
 429:../Libraries/STM32F4xx_StdPeriph_Driver/src/stm32f4xx_dcmi.c ****   else /* The FLAG is in MISR register */
 430:../Libraries/STM32F4xx_StdPeriph_Driver/src/stm32f4xx_dcmi.c ****   {
 431:../Libraries/STM32F4xx_StdPeriph_Driver/src/stm32f4xx_dcmi.c ****     tempreg = DCMI->MISR;
 921              		.loc 1 431 5 view .LVU192
 922              	@ ../Libraries/STM32F4xx_StdPeriph_Driver/src/stm32f4xx_dcmi.c:431:     tempreg = DCMI->MISR;
 923              		.loc 1 431 13 is_stmt 0 view .LVU193
 924 002a 184B     		ldr	r3, .L73+4	@ tmp166,
 925 002c 1B69     		ldr	r3, [r3, #16]	@ tempreg, MEM[(struct DCMI_TypeDef *)1342504960B].MISR
 926              	.LVL38:
 927              		.loc 1 431 13 view .LVU194
 928 002e 04E0     		b	.L63		@
 929              	.LVL39:
 930              	.L56:
 931              	@ ../Libraries/STM32F4xx_StdPeriph_Driver/src/stm32f4xx_dcmi.c:416:   assert_param(IS_DCMI_GET_FLAG
 416:../Libraries/STM32F4xx_StdPeriph_Driver/src/stm32f4xx_dcmi.c ****   
 932              		.loc 1 416 3 view .LVU195
 933 0030 0120     		movs	r0, #1	@,
 934              	.LVL40:
 416:../Libraries/STM32F4xx_StdPeriph_Driver/src/stm32f4xx_dcmi.c ****   
ARM GAS  C:\Users\admin\AppData\Local\Temp\ccEnfkEC.s 			page 26


 935              		.loc 1 416 3 view .LVU196
 936 0032 FFF7FEFF 		bl	assert_param		@
 937              	.LVL41:
 419:../Libraries/STM32F4xx_StdPeriph_Driver/src/stm32f4xx_dcmi.c ****   
 938              		.loc 1 419 3 is_stmt 1 view .LVU197
 421:../Libraries/STM32F4xx_StdPeriph_Driver/src/stm32f4xx_dcmi.c ****   {
 939              		.loc 1 421 3 view .LVU198
 425:../Libraries/STM32F4xx_StdPeriph_Driver/src/stm32f4xx_dcmi.c ****   {
 940              		.loc 1 425 8 view .LVU199
 941              	.L66:
 427:../Libraries/STM32F4xx_StdPeriph_Driver/src/stm32f4xx_dcmi.c ****   }
 942              		.loc 1 427 5 view .LVU200
 943              	@ ../Libraries/STM32F4xx_StdPeriph_Driver/src/stm32f4xx_dcmi.c:427:     tempreg = DCMI->SR;
 427:../Libraries/STM32F4xx_StdPeriph_Driver/src/stm32f4xx_dcmi.c ****   }
 944              		.loc 1 427 13 is_stmt 0 view .LVU201
 945 0036 154B     		ldr	r3, .L73+4	@ tmp165,
 946 0038 5B68     		ldr	r3, [r3, #4]	@ tempreg, MEM[(struct DCMI_TypeDef *)1342504960B].SR
 947              	.LVL42:
 948              	.L63:
 432:../Libraries/STM32F4xx_StdPeriph_Driver/src/stm32f4xx_dcmi.c ****   }
 433:../Libraries/STM32F4xx_StdPeriph_Driver/src/stm32f4xx_dcmi.c ****   
 434:../Libraries/STM32F4xx_StdPeriph_Driver/src/stm32f4xx_dcmi.c ****   if ((tempreg & DCMI_FLAG) != (uint16_t)RESET )
 949              		.loc 1 434 3 is_stmt 1 view .LVU202
 435:../Libraries/STM32F4xx_StdPeriph_Driver/src/stm32f4xx_dcmi.c ****   {
 436:../Libraries/STM32F4xx_StdPeriph_Driver/src/stm32f4xx_dcmi.c ****     bitstatus = SET;
 437:../Libraries/STM32F4xx_StdPeriph_Driver/src/stm32f4xx_dcmi.c ****   }
 438:../Libraries/STM32F4xx_StdPeriph_Driver/src/stm32f4xx_dcmi.c ****   else
 439:../Libraries/STM32F4xx_StdPeriph_Driver/src/stm32f4xx_dcmi.c ****   {
 440:../Libraries/STM32F4xx_StdPeriph_Driver/src/stm32f4xx_dcmi.c ****     bitstatus = RESET;
 441:../Libraries/STM32F4xx_StdPeriph_Driver/src/stm32f4xx_dcmi.c ****   }
 442:../Libraries/STM32F4xx_StdPeriph_Driver/src/stm32f4xx_dcmi.c ****   /* Return the DCMI_FLAG status */
 443:../Libraries/STM32F4xx_StdPeriph_Driver/src/stm32f4xx_dcmi.c ****   return  bitstatus;
 950              		.loc 1 443 3 view .LVU203
 951              	@ ../Libraries/STM32F4xx_StdPeriph_Driver/src/stm32f4xx_dcmi.c:434:   if ((tempreg & DCMI_FLAG) != 
 434:../Libraries/STM32F4xx_StdPeriph_Driver/src/stm32f4xx_dcmi.c ****   {
 952              		.loc 1 434 6 is_stmt 0 view .LVU204
 953 003a 1C42     		tst	r4, r3	@ DCMI_FLAG, tempreg
 954              	@ ../Libraries/STM32F4xx_StdPeriph_Driver/src/stm32f4xx_dcmi.c:443:   return  bitstatus;
 955              		.loc 1 443 11 view .LVU205
 956 003c 14BF     		ite	ne
 957 003e 0120     		movne	r0, #1	@ tmp170,
 958 0040 0020     		moveq	r0, #0	@ tmp170,
 959              	@ ../Libraries/STM32F4xx_StdPeriph_Driver/src/stm32f4xx_dcmi.c:444: }
 444:../Libraries/STM32F4xx_StdPeriph_Driver/src/stm32f4xx_dcmi.c **** }
 960              		.loc 1 444 1 view .LVU206
 961 0042 10BD     		pop	{r4, pc}	@
 962              	.LVL43:
 963              	.L67:
 964              	@ ../Libraries/STM32F4xx_StdPeriph_Driver/src/stm32f4xx_dcmi.c:416:   assert_param(IS_DCMI_GET_FLAG
 416:../Libraries/STM32F4xx_StdPeriph_Driver/src/stm32f4xx_dcmi.c ****   
 965              		.loc 1 416 3 view .LVU207
 966 0044 0120     		movs	r0, #1	@ iftmp.8_7,
 967              	.LVL44:
 968              	.L55:
 969              	@ ../Libraries/STM32F4xx_StdPeriph_Driver/src/stm32f4xx_dcmi.c:416:   assert_param(IS_DCMI_GET_FLAG
 416:../Libraries/STM32F4xx_StdPeriph_Driver/src/stm32f4xx_dcmi.c ****   
 970              		.loc 1 416 3 discriminator 26 view .LVU208
ARM GAS  C:\Users\admin\AppData\Local\Temp\ccEnfkEC.s 			page 27


 971 0046 FFF7FEFF 		bl	assert_param		@
 972              	.LVL45:
 419:../Libraries/STM32F4xx_StdPeriph_Driver/src/stm32f4xx_dcmi.c ****   
 973              		.loc 1 419 3 is_stmt 1 discriminator 26 view .LVU209
 974              	@ ../Libraries/STM32F4xx_StdPeriph_Driver/src/stm32f4xx_dcmi.c:419:   dcmireg = (((uint16_t)DCMI_FL
 419:../Libraries/STM32F4xx_StdPeriph_Driver/src/stm32f4xx_dcmi.c ****   
 975              		.loc 1 419 36 is_stmt 0 discriminator 26 view .LVU210
 976 004a 230B     		lsrs	r3, r4, #12	@ _2, DCMI_FLAG,
 977              	.LVL46:
 421:../Libraries/STM32F4xx_StdPeriph_Driver/src/stm32f4xx_dcmi.c ****   {
 978              		.loc 1 421 3 is_stmt 1 discriminator 26 view .LVU211
 979              	@ ../Libraries/STM32F4xx_StdPeriph_Driver/src/stm32f4xx_dcmi.c:421:   if (dcmireg == 0x01) /* The F
 421:../Libraries/STM32F4xx_StdPeriph_Driver/src/stm32f4xx_dcmi.c ****   {
 980              		.loc 1 421 6 is_stmt 0 discriminator 26 view .LVU212
 981 004c 012B     		cmp	r3, #1	@ _2,
 982 004e 11D1     		bne	.L62		@,
 983              	.LVL47:
 984              	.L65:
 423:../Libraries/STM32F4xx_StdPeriph_Driver/src/stm32f4xx_dcmi.c ****   }
 985              		.loc 1 423 5 is_stmt 1 view .LVU213
 986              	@ ../Libraries/STM32F4xx_StdPeriph_Driver/src/stm32f4xx_dcmi.c:423:     tempreg= DCMI->RISR;
 423:../Libraries/STM32F4xx_StdPeriph_Driver/src/stm32f4xx_dcmi.c ****   }
 987              		.loc 1 423 12 is_stmt 0 view .LVU214
 988 0050 0E4B     		ldr	r3, .L73+4	@ tmp164,
 989 0052 9B68     		ldr	r3, [r3, #8]	@ tempreg, MEM[(struct DCMI_TypeDef *)1342504960B].RISR
 990              	.LVL48:
 423:../Libraries/STM32F4xx_StdPeriph_Driver/src/stm32f4xx_dcmi.c ****   }
 991              		.loc 1 423 12 view .LVU215
 992 0054 F1E7     		b	.L63		@
 993              	.LVL49:
 994              	.L72:
 995              	@ ../Libraries/STM32F4xx_StdPeriph_Driver/src/stm32f4xx_dcmi.c:416:   assert_param(IS_DCMI_GET_FLAG
 416:../Libraries/STM32F4xx_StdPeriph_Driver/src/stm32f4xx_dcmi.c ****   
 996              		.loc 1 416 16 view .LVU216
 997 0056 00F56F43 		add	r3, r0, #61184	@ tmp143, DCMI_FLAG,
 998 005a FF33     		adds	r3, r3, #255	@ tmp143, tmp143,
 999 005c 9BB2     		uxth	r3, r3	@ _23, tmp143
 1000 005e 072B     		cmp	r3, #7	@ _23,
 1001 0060 0BD8     		bhi	.L58		@,
 1002              	@ ../Libraries/STM32F4xx_StdPeriph_Driver/src/stm32f4xx_dcmi.c:416:   assert_param(IS_DCMI_GET_FLAG
 416:../Libraries/STM32F4xx_StdPeriph_Driver/src/stm32f4xx_dcmi.c ****   
 1003              		.loc 1 416 16 discriminator 14 view .LVU217
 1004 0062 8B22     		movs	r2, #139	@ tmp154,
 1005 0064 22FA03F3 		lsr	r3, r2, r3	@ tmp153, tmp154, _23
 1006 0068 DB07     		lsls	r3, r3, #31	@, tmp153,
 1007 006a 06D5     		bpl	.L58		@,
 1008              	@ ../Libraries/STM32F4xx_StdPeriph_Driver/src/stm32f4xx_dcmi.c:416:   assert_param(IS_DCMI_GET_FLAG
 416:../Libraries/STM32F4xx_StdPeriph_Driver/src/stm32f4xx_dcmi.c ****   
 1009              		.loc 1 416 3 view .LVU218
 1010 006c 0120     		movs	r0, #1	@,
 1011              	.LVL50:
 416:../Libraries/STM32F4xx_StdPeriph_Driver/src/stm32f4xx_dcmi.c ****   
 1012              		.loc 1 416 3 view .LVU219
 1013 006e FFF7FEFF 		bl	assert_param		@
 1014              	.LVL51:
 419:../Libraries/STM32F4xx_StdPeriph_Driver/src/stm32f4xx_dcmi.c ****   
 1015              		.loc 1 419 3 is_stmt 1 view .LVU220
ARM GAS  C:\Users\admin\AppData\Local\Temp\ccEnfkEC.s 			page 28


 421:../Libraries/STM32F4xx_StdPeriph_Driver/src/stm32f4xx_dcmi.c ****   {
 1016              		.loc 1 421 3 view .LVU221
 1017 0072 EDE7     		b	.L65		@
 1018              	.LVL52:
 1019              	.L62:
 425:../Libraries/STM32F4xx_StdPeriph_Driver/src/stm32f4xx_dcmi.c ****   {
 1020              		.loc 1 425 8 view .LVU222
 1021              	@ ../Libraries/STM32F4xx_StdPeriph_Driver/src/stm32f4xx_dcmi.c:425:   else if (dcmireg == 0x02) /* 
 425:../Libraries/STM32F4xx_StdPeriph_Driver/src/stm32f4xx_dcmi.c ****   {
 1022              		.loc 1 425 11 is_stmt 0 view .LVU223
 1023 0074 022B     		cmp	r3, #2	@ _2,
 1024 0076 D8D1     		bne	.L64		@,
 1025 0078 DDE7     		b	.L66		@
 1026              	.LVL53:
 1027              	.L58:
 1028              	@ ../Libraries/STM32F4xx_StdPeriph_Driver/src/stm32f4xx_dcmi.c:416:   assert_param(IS_DCMI_GET_FLAG
 416:../Libraries/STM32F4xx_StdPeriph_Driver/src/stm32f4xx_dcmi.c ****   
 1029              		.loc 1 416 3 discriminator 22 view .LVU224
 1030 007a 41F21000 		movw	r0, #4112	@ tmp162,
 1031              	.LVL54:
 416:../Libraries/STM32F4xx_StdPeriph_Driver/src/stm32f4xx_dcmi.c ****   
 1032              		.loc 1 416 3 discriminator 22 view .LVU225
 1033 007e 201A     		subs	r0, r4, r0	@ iftmp.8_7, DCMI_FLAG, tmp162
 1034 0080 B0FA80F0 		clz	r0, r0	@ iftmp.8_7, iftmp.8_7
 1035 0084 4009     		lsrs	r0, r0, #5	@ iftmp.8_7, iftmp.8_7,
 1036 0086 DEE7     		b	.L55		@
 1037              	.L74:
 1038              		.align	2
 1039              	.L73:
 1040 0088 16010100 		.word	65814
 1041 008c 00000550 		.word	1342504960
 1042              		.cfi_endproc
 1043              	.LFE121:
 1044              		.size	DCMI_GetFlagStatus, .-DCMI_GetFlagStatus
 1045              		.section	.text.DCMI_ClearFlag,"ax",%progbits
 1046              		.align	1
 1047              		.p2align 2,,3
 1048              		.global	DCMI_ClearFlag
 1049              		.syntax unified
 1050              		.thumb
 1051              		.thumb_func
 1052              		.type	DCMI_ClearFlag, %function
 1053              	DCMI_ClearFlag:
 1054              	.LVL55:
 1055              	.LFB122:
 445:../Libraries/STM32F4xx_StdPeriph_Driver/src/stm32f4xx_dcmi.c **** 
 446:../Libraries/STM32F4xx_StdPeriph_Driver/src/stm32f4xx_dcmi.c **** /**
 447:../Libraries/STM32F4xx_StdPeriph_Driver/src/stm32f4xx_dcmi.c ****   * @brief  Clears the DCMI's pending flags.
 448:../Libraries/STM32F4xx_StdPeriph_Driver/src/stm32f4xx_dcmi.c ****   * @param  DCMI_FLAG: specifies the flag to clear.
 449:../Libraries/STM32F4xx_StdPeriph_Driver/src/stm32f4xx_dcmi.c ****   *          This parameter can be any combination of the following values:
 450:../Libraries/STM32F4xx_StdPeriph_Driver/src/stm32f4xx_dcmi.c ****   *            @arg DCMI_FLAG_FRAMERI: Frame capture complete Raw flag mask
 451:../Libraries/STM32F4xx_StdPeriph_Driver/src/stm32f4xx_dcmi.c ****   *            @arg DCMI_FLAG_OVFRI: Overflow Raw flag mask
 452:../Libraries/STM32F4xx_StdPeriph_Driver/src/stm32f4xx_dcmi.c ****   *            @arg DCMI_FLAG_ERRRI: Synchronization error Raw flag mask
 453:../Libraries/STM32F4xx_StdPeriph_Driver/src/stm32f4xx_dcmi.c ****   *            @arg DCMI_FLAG_VSYNCRI: VSYNC Raw flag mask
 454:../Libraries/STM32F4xx_StdPeriph_Driver/src/stm32f4xx_dcmi.c ****   *            @arg DCMI_FLAG_LINERI: Line Raw flag mask
 455:../Libraries/STM32F4xx_StdPeriph_Driver/src/stm32f4xx_dcmi.c ****   * @retval None
 456:../Libraries/STM32F4xx_StdPeriph_Driver/src/stm32f4xx_dcmi.c ****   */
ARM GAS  C:\Users\admin\AppData\Local\Temp\ccEnfkEC.s 			page 29


 457:../Libraries/STM32F4xx_StdPeriph_Driver/src/stm32f4xx_dcmi.c **** void DCMI_ClearFlag(uint16_t DCMI_FLAG)
 458:../Libraries/STM32F4xx_StdPeriph_Driver/src/stm32f4xx_dcmi.c **** {
 1056              		.loc 1 458 1 is_stmt 1 view -0
 1057              		.cfi_startproc
 1058              		@ args = 0, pretend = 0, frame = 0
 1059              		@ frame_needed = 0, uses_anonymous_args = 0
 459:../Libraries/STM32F4xx_StdPeriph_Driver/src/stm32f4xx_dcmi.c ****   /* Check the parameters */
 460:../Libraries/STM32F4xx_StdPeriph_Driver/src/stm32f4xx_dcmi.c ****   assert_param(IS_DCMI_CLEAR_FLAG(DCMI_FLAG));
 1060              		.loc 1 460 3 view .LVU227
 1061 0000 20F01F03 		bic	r3, r0, #31	@ tmp118, DCMI_FLAG,
 1062              	@ ../Libraries/STM32F4xx_StdPeriph_Driver/src/stm32f4xx_dcmi.c:458: {
 458:../Libraries/STM32F4xx_StdPeriph_Driver/src/stm32f4xx_dcmi.c ****   /* Check the parameters */
 1063              		.loc 1 458 1 is_stmt 0 view .LVU228
 1064 0004 10B5     		push	{r4, lr}	@
 1065              		.cfi_def_cfa_offset 8
 1066              		.cfi_offset 4, -8
 1067              		.cfi_offset 14, -4
 1068              	@ ../Libraries/STM32F4xx_StdPeriph_Driver/src/stm32f4xx_dcmi.c:458: {
 458:../Libraries/STM32F4xx_StdPeriph_Driver/src/stm32f4xx_dcmi.c ****   /* Check the parameters */
 1069              		.loc 1 458 1 view .LVU229
 1070 0006 0446     		mov	r4, r0	@ DCMI_FLAG, tmp124
 1071              	@ ../Libraries/STM32F4xx_StdPeriph_Driver/src/stm32f4xx_dcmi.c:460:   assert_param(IS_DCMI_CLEAR_FL
 1072              		.loc 1 460 3 view .LVU230
 1073 0008 3BB9     		cbnz	r3, .L77	@ tmp118,
 1074              	@ ../Libraries/STM32F4xx_StdPeriph_Driver/src/stm32f4xx_dcmi.c:460:   assert_param(IS_DCMI_CLEAR_FL
 1075              		.loc 1 460 3 discriminator 1 view .LVU231
 1076 000a 0038     		subs	r0, r0, #0	@ iftmp.9_2, DCMI_FLAG,
 1077              	.LVL56:
 1078              		.loc 1 460 3 discriminator 1 view .LVU232
 1079 000c 18BF     		it	ne
 1080 000e 0120     		movne	r0, #1	@ iftmp.9_2,
 1081 0010 FFF7FEFF 		bl	assert_param		@
 1082              	.LVL57:
 461:../Libraries/STM32F4xx_StdPeriph_Driver/src/stm32f4xx_dcmi.c ****   
 462:../Libraries/STM32F4xx_StdPeriph_Driver/src/stm32f4xx_dcmi.c ****   /* Clear the flag by writing in the ICR register 1 in the corresponding 
 463:../Libraries/STM32F4xx_StdPeriph_Driver/src/stm32f4xx_dcmi.c ****   Flag position*/
 464:../Libraries/STM32F4xx_StdPeriph_Driver/src/stm32f4xx_dcmi.c ****   
 465:../Libraries/STM32F4xx_StdPeriph_Driver/src/stm32f4xx_dcmi.c ****   DCMI->ICR = DCMI_FLAG;
 1083              		.loc 1 465 3 is_stmt 1 discriminator 1 view .LVU233
 1084              	@ ../Libraries/STM32F4xx_StdPeriph_Driver/src/stm32f4xx_dcmi.c:465:   DCMI->ICR = DCMI_FLAG;
 1085              		.loc 1 465 13 is_stmt 0 discriminator 1 view .LVU234
 1086 0014 044B     		ldr	r3, .L79	@ tmp123,
 1087 0016 5C61     		str	r4, [r3, #20]	@ DCMI_FLAG, MEM[(struct DCMI_TypeDef *)1342504960B].ICR
 1088              	@ ../Libraries/STM32F4xx_StdPeriph_Driver/src/stm32f4xx_dcmi.c:466: }
 466:../Libraries/STM32F4xx_StdPeriph_Driver/src/stm32f4xx_dcmi.c **** }
 1089              		.loc 1 466 1 discriminator 1 view .LVU235
 1090 0018 10BD     		pop	{r4, pc}	@
 1091              	.LVL58:
 1092              	.L77:
 1093              	@ ../Libraries/STM32F4xx_StdPeriph_Driver/src/stm32f4xx_dcmi.c:460:   assert_param(IS_DCMI_CLEAR_FL
 460:../Libraries/STM32F4xx_StdPeriph_Driver/src/stm32f4xx_dcmi.c ****   
 1094              		.loc 1 460 3 view .LVU236
 1095 001a 0020     		movs	r0, #0	@ iftmp.9_2,
 1096              	.LVL59:
 460:../Libraries/STM32F4xx_StdPeriph_Driver/src/stm32f4xx_dcmi.c ****   
 1097              		.loc 1 460 3 view .LVU237
 1098 001c FFF7FEFF 		bl	assert_param		@
ARM GAS  C:\Users\admin\AppData\Local\Temp\ccEnfkEC.s 			page 30


 1099              	.LVL60:
 465:../Libraries/STM32F4xx_StdPeriph_Driver/src/stm32f4xx_dcmi.c **** }
 1100              		.loc 1 465 3 is_stmt 1 view .LVU238
 1101              	@ ../Libraries/STM32F4xx_StdPeriph_Driver/src/stm32f4xx_dcmi.c:465:   DCMI->ICR = DCMI_FLAG;
 465:../Libraries/STM32F4xx_StdPeriph_Driver/src/stm32f4xx_dcmi.c **** }
 1102              		.loc 1 465 13 is_stmt 0 view .LVU239
 1103 0020 014B     		ldr	r3, .L79	@ tmp123,
 1104 0022 5C61     		str	r4, [r3, #20]	@ DCMI_FLAG, MEM[(struct DCMI_TypeDef *)1342504960B].ICR
 1105              	@ ../Libraries/STM32F4xx_StdPeriph_Driver/src/stm32f4xx_dcmi.c:466: }
 1106              		.loc 1 466 1 view .LVU240
 1107 0024 10BD     		pop	{r4, pc}	@
 1108              	.L80:
 1109 0026 00BF     		.align	2
 1110              	.L79:
 1111 0028 00000550 		.word	1342504960
 1112              		.cfi_endproc
 1113              	.LFE122:
 1114              		.size	DCMI_ClearFlag, .-DCMI_ClearFlag
 1115              		.section	.text.DCMI_GetITStatus,"ax",%progbits
 1116              		.align	1
 1117              		.p2align 2,,3
 1118              		.global	DCMI_GetITStatus
 1119              		.syntax unified
 1120              		.thumb
 1121              		.thumb_func
 1122              		.type	DCMI_GetITStatus, %function
 1123              	DCMI_GetITStatus:
 1124              	.LVL61:
 1125              	.LFB123:
 467:../Libraries/STM32F4xx_StdPeriph_Driver/src/stm32f4xx_dcmi.c **** 
 468:../Libraries/STM32F4xx_StdPeriph_Driver/src/stm32f4xx_dcmi.c **** /**
 469:../Libraries/STM32F4xx_StdPeriph_Driver/src/stm32f4xx_dcmi.c ****   * @brief  Checks whether the DCMI interrupt has occurred or not.
 470:../Libraries/STM32F4xx_StdPeriph_Driver/src/stm32f4xx_dcmi.c ****   * @param  DCMI_IT: specifies the DCMI interrupt source to check.
 471:../Libraries/STM32F4xx_StdPeriph_Driver/src/stm32f4xx_dcmi.c ****   *          This parameter can be one of the following values:
 472:../Libraries/STM32F4xx_StdPeriph_Driver/src/stm32f4xx_dcmi.c ****   *            @arg DCMI_IT_FRAME: Frame capture complete interrupt mask
 473:../Libraries/STM32F4xx_StdPeriph_Driver/src/stm32f4xx_dcmi.c ****   *            @arg DCMI_IT_OVF: Overflow interrupt mask
 474:../Libraries/STM32F4xx_StdPeriph_Driver/src/stm32f4xx_dcmi.c ****   *            @arg DCMI_IT_ERR: Synchronization error interrupt mask
 475:../Libraries/STM32F4xx_StdPeriph_Driver/src/stm32f4xx_dcmi.c ****   *            @arg DCMI_IT_VSYNC: VSYNC interrupt mask
 476:../Libraries/STM32F4xx_StdPeriph_Driver/src/stm32f4xx_dcmi.c ****   *            @arg DCMI_IT_LINE: Line interrupt mask
 477:../Libraries/STM32F4xx_StdPeriph_Driver/src/stm32f4xx_dcmi.c ****   * @retval The new state of DCMI_IT (SET or RESET).
 478:../Libraries/STM32F4xx_StdPeriph_Driver/src/stm32f4xx_dcmi.c ****   */
 479:../Libraries/STM32F4xx_StdPeriph_Driver/src/stm32f4xx_dcmi.c **** ITStatus DCMI_GetITStatus(uint16_t DCMI_IT)
 480:../Libraries/STM32F4xx_StdPeriph_Driver/src/stm32f4xx_dcmi.c **** {
 1126              		.loc 1 480 1 is_stmt 1 view -0
 1127              		.cfi_startproc
 1128              		@ args = 0, pretend = 0, frame = 0
 1129              		@ frame_needed = 0, uses_anonymous_args = 0
 481:../Libraries/STM32F4xx_StdPeriph_Driver/src/stm32f4xx_dcmi.c ****   ITStatus bitstatus = RESET;
 1130              		.loc 1 481 3 view .LVU242
 482:../Libraries/STM32F4xx_StdPeriph_Driver/src/stm32f4xx_dcmi.c ****   uint32_t itstatus = 0;
 1131              		.loc 1 482 3 view .LVU243
 483:../Libraries/STM32F4xx_StdPeriph_Driver/src/stm32f4xx_dcmi.c ****   
 484:../Libraries/STM32F4xx_StdPeriph_Driver/src/stm32f4xx_dcmi.c ****   /* Check the parameters */
 485:../Libraries/STM32F4xx_StdPeriph_Driver/src/stm32f4xx_dcmi.c ****   assert_param(IS_DCMI_GET_IT(DCMI_IT));
 1132              		.loc 1 485 3 view .LVU244
 1133 0000 1028     		cmp	r0, #16	@ DCMI_IT,
 1134              	@ ../Libraries/STM32F4xx_StdPeriph_Driver/src/stm32f4xx_dcmi.c:480: {
ARM GAS  C:\Users\admin\AppData\Local\Temp\ccEnfkEC.s 			page 31


 480:../Libraries/STM32F4xx_StdPeriph_Driver/src/stm32f4xx_dcmi.c ****   ITStatus bitstatus = RESET;
 1135              		.loc 1 480 1 is_stmt 0 view .LVU245
 1136 0002 10B5     		push	{r4, lr}	@
 1137              		.cfi_def_cfa_offset 8
 1138              		.cfi_offset 4, -8
 1139              		.cfi_offset 14, -4
 1140              	@ ../Libraries/STM32F4xx_StdPeriph_Driver/src/stm32f4xx_dcmi.c:480: {
 480:../Libraries/STM32F4xx_StdPeriph_Driver/src/stm32f4xx_dcmi.c ****   ITStatus bitstatus = RESET;
 1141              		.loc 1 480 1 view .LVU246
 1142 0004 0446     		mov	r4, r0	@ DCMI_IT, tmp139
 1143              	@ ../Libraries/STM32F4xx_StdPeriph_Driver/src/stm32f4xx_dcmi.c:485:   assert_param(IS_DCMI_GET_IT(D
 1144              		.loc 1 485 3 view .LVU247
 1145 0006 9DBF     		ittte	ls
 1146 0008 0648     		ldrls	r0, .L85	@ tmp128,
 1147              	.LVL62:
 1148              		.loc 1 485 3 view .LVU248
 1149 000a E040     		lsrls	r0, r0, r4	@ tmp127, tmp128, DCMI_IT
 1150 000c 00F00100 		andls	r0, r0, #1	@ _12, tmp127,
 1151 0010 0020     		movhi	r0, #0	@ _12,
 1152 0012 FFF7FEFF 		bl	assert_param		@
 1153              	.LVL63:
 486:../Libraries/STM32F4xx_StdPeriph_Driver/src/stm32f4xx_dcmi.c ****   
 487:../Libraries/STM32F4xx_StdPeriph_Driver/src/stm32f4xx_dcmi.c ****   itstatus = DCMI->MISR & DCMI_IT; /* Only masked interrupts are checked */
 1154              		.loc 1 487 3 is_stmt 1 view .LVU249
 1155              	@ ../Libraries/STM32F4xx_StdPeriph_Driver/src/stm32f4xx_dcmi.c:487:   itstatus = DCMI->MISR & DCMI_
 1156              		.loc 1 487 18 is_stmt 0 view .LVU250
 1157 0016 044B     		ldr	r3, .L85+4	@ tmp134,
 1158 0018 1B69     		ldr	r3, [r3, #16]	@ _2, MEM[(struct DCMI_TypeDef *)1342504960B].MISR
 1159              	.LVL64:
 488:../Libraries/STM32F4xx_StdPeriph_Driver/src/stm32f4xx_dcmi.c ****   
 489:../Libraries/STM32F4xx_StdPeriph_Driver/src/stm32f4xx_dcmi.c ****   if ((itstatus != (uint16_t)RESET))
 1160              		.loc 1 489 3 is_stmt 1 view .LVU251
 490:../Libraries/STM32F4xx_StdPeriph_Driver/src/stm32f4xx_dcmi.c ****   {
 491:../Libraries/STM32F4xx_StdPeriph_Driver/src/stm32f4xx_dcmi.c ****     bitstatus = SET;
 492:../Libraries/STM32F4xx_StdPeriph_Driver/src/stm32f4xx_dcmi.c ****   }
 493:../Libraries/STM32F4xx_StdPeriph_Driver/src/stm32f4xx_dcmi.c ****   else
 494:../Libraries/STM32F4xx_StdPeriph_Driver/src/stm32f4xx_dcmi.c ****   {
 495:../Libraries/STM32F4xx_StdPeriph_Driver/src/stm32f4xx_dcmi.c ****     bitstatus = RESET;
 496:../Libraries/STM32F4xx_StdPeriph_Driver/src/stm32f4xx_dcmi.c ****   }
 497:../Libraries/STM32F4xx_StdPeriph_Driver/src/stm32f4xx_dcmi.c ****   return bitstatus;
 1161              		.loc 1 497 3 view .LVU252
 1162              	@ ../Libraries/STM32F4xx_StdPeriph_Driver/src/stm32f4xx_dcmi.c:489:   if ((itstatus != (uint16_t)RE
 489:../Libraries/STM32F4xx_StdPeriph_Driver/src/stm32f4xx_dcmi.c ****   {
 1163              		.loc 1 489 6 is_stmt 0 view .LVU253
 1164 001a 1C42     		tst	r4, r3	@ DCMI_IT, _2
 1165              	@ ../Libraries/STM32F4xx_StdPeriph_Driver/src/stm32f4xx_dcmi.c:498: }
 498:../Libraries/STM32F4xx_StdPeriph_Driver/src/stm32f4xx_dcmi.c **** }
 1166              		.loc 1 498 1 view .LVU254
 1167 001c 14BF     		ite	ne
 1168 001e 0120     		movne	r0, #1	@,
 1169 0020 0020     		moveq	r0, #0	@,
 1170 0022 10BD     		pop	{r4, pc}	@
 1171              	.LVL65:
 1172              	.L86:
 1173              		.loc 1 498 1 view .LVU255
 1174              		.align	2
 1175              	.L85:
ARM GAS  C:\Users\admin\AppData\Local\Temp\ccEnfkEC.s 			page 32


 1176 0024 16010100 		.word	65814
 1177 0028 00000550 		.word	1342504960
 1178              		.cfi_endproc
 1179              	.LFE123:
 1180              		.size	DCMI_GetITStatus, .-DCMI_GetITStatus
 1181              		.section	.text.DCMI_ClearITPendingBit,"ax",%progbits
 1182              		.align	1
 1183              		.p2align 2,,3
 1184              		.global	DCMI_ClearITPendingBit
 1185              		.syntax unified
 1186              		.thumb
 1187              		.thumb_func
 1188              		.type	DCMI_ClearITPendingBit, %function
 1189              	DCMI_ClearITPendingBit:
 1190              	.LVL66:
 1191              	.LFB124:
 499:../Libraries/STM32F4xx_StdPeriph_Driver/src/stm32f4xx_dcmi.c **** 
 500:../Libraries/STM32F4xx_StdPeriph_Driver/src/stm32f4xx_dcmi.c **** /**
 501:../Libraries/STM32F4xx_StdPeriph_Driver/src/stm32f4xx_dcmi.c ****   * @brief  Clears the DCMI's interrupt pending bits.
 502:../Libraries/STM32F4xx_StdPeriph_Driver/src/stm32f4xx_dcmi.c ****   * @param  DCMI_IT: specifies the DCMI interrupt pending bit to clear.
 503:../Libraries/STM32F4xx_StdPeriph_Driver/src/stm32f4xx_dcmi.c ****   *          This parameter can be any combination of the following values:
 504:../Libraries/STM32F4xx_StdPeriph_Driver/src/stm32f4xx_dcmi.c ****   *            @arg DCMI_IT_FRAME: Frame capture complete interrupt mask
 505:../Libraries/STM32F4xx_StdPeriph_Driver/src/stm32f4xx_dcmi.c ****   *            @arg DCMI_IT_OVF: Overflow interrupt mask
 506:../Libraries/STM32F4xx_StdPeriph_Driver/src/stm32f4xx_dcmi.c ****   *            @arg DCMI_IT_ERR: Synchronization error interrupt mask
 507:../Libraries/STM32F4xx_StdPeriph_Driver/src/stm32f4xx_dcmi.c ****   *            @arg DCMI_IT_VSYNC: VSYNC interrupt mask
 508:../Libraries/STM32F4xx_StdPeriph_Driver/src/stm32f4xx_dcmi.c ****   *            @arg DCMI_IT_LINE: Line interrupt mask
 509:../Libraries/STM32F4xx_StdPeriph_Driver/src/stm32f4xx_dcmi.c ****   * @retval None
 510:../Libraries/STM32F4xx_StdPeriph_Driver/src/stm32f4xx_dcmi.c ****   */
 511:../Libraries/STM32F4xx_StdPeriph_Driver/src/stm32f4xx_dcmi.c **** void DCMI_ClearITPendingBit(uint16_t DCMI_IT)
 512:../Libraries/STM32F4xx_StdPeriph_Driver/src/stm32f4xx_dcmi.c **** {
 1192              		.loc 1 512 1 is_stmt 1 view -0
 1193              		.cfi_startproc
 1194              		@ args = 0, pretend = 0, frame = 0
 1195              		@ frame_needed = 0, uses_anonymous_args = 0
 1196              		@ link register save eliminated.
 513:../Libraries/STM32F4xx_StdPeriph_Driver/src/stm32f4xx_dcmi.c ****   /* Clear the interrupt pending Bit by writing in the ICR register 1 in the 
 514:../Libraries/STM32F4xx_StdPeriph_Driver/src/stm32f4xx_dcmi.c ****   corresponding pending Bit position*/
 515:../Libraries/STM32F4xx_StdPeriph_Driver/src/stm32f4xx_dcmi.c ****   
 516:../Libraries/STM32F4xx_StdPeriph_Driver/src/stm32f4xx_dcmi.c ****   DCMI->ICR = DCMI_IT;
 1197              		.loc 1 516 3 view .LVU257
 1198              	@ ../Libraries/STM32F4xx_StdPeriph_Driver/src/stm32f4xx_dcmi.c:516:   DCMI->ICR = DCMI_IT;
 1199              		.loc 1 516 13 is_stmt 0 view .LVU258
 1200 0000 014B     		ldr	r3, .L88	@ tmp115,
 1201 0002 5861     		str	r0, [r3, #20]	@ DCMI_IT, MEM[(struct DCMI_TypeDef *)1342504960B].ICR
 1202              	@ ../Libraries/STM32F4xx_StdPeriph_Driver/src/stm32f4xx_dcmi.c:517: }
 517:../Libraries/STM32F4xx_StdPeriph_Driver/src/stm32f4xx_dcmi.c **** }
 1203              		.loc 1 517 1 view .LVU259
 1204 0004 7047     		bx	lr	@
 1205              	.L89:
 1206 0006 00BF     		.align	2
 1207              	.L88:
 1208 0008 00000550 		.word	1342504960
 1209              		.cfi_endproc
 1210              	.LFE124:
 1211              		.size	DCMI_ClearITPendingBit, .-DCMI_ClearITPendingBit
 1212              		.text
 1213              	.Letext0:
ARM GAS  C:\Users\admin\AppData\Local\Temp\ccEnfkEC.s 			page 33


 1214              		.file 2 "c:\\program files (x86)\\gnu arm embedded toolchain\\10 2021.10\\arm-none-eabi\\include\\
 1215              		.file 3 "c:\\program files (x86)\\gnu arm embedded toolchain\\10 2021.10\\arm-none-eabi\\include\\
 1216              		.file 4 "../Libraries/CMSIS/ST/STM32F4xx/Include/stm32f4xx.h"
 1217              		.file 5 "../Libraries/STM32F4xx_StdPeriph_Driver/inc/stm32f4xx_dcmi.h"