ARM GAS  C:\Users\admin\AppData\Local\Temp\cctdxl0y.s 			page 1


   1              		.cpu cortex-m4
   2              		.arch armv7e-m
   3              		.fpu fpv4-sp-d16
   4              		.eabi_attribute 27, 1	@ Tag_ABI_HardFP_use
   5              		.eabi_attribute 28, 1	@ Tag_ABI_VFP_args
   6              		.eabi_attribute 23, 1	@ Tag_ABI_FP_number_model
   7              		.eabi_attribute 24, 1	@ Tag_ABI_align8_needed
   8              		.eabi_attribute 25, 1	@ Tag_ABI_align8_preserved
   9              		.eabi_attribute 26, 1	@ Tag_ABI_enum_size
  10              		.eabi_attribute 30, 2	@ Tag_ABI_optimization_goals
  11              		.eabi_attribute 34, 1	@ Tag_CPU_unaligned_access
  12              		.eabi_attribute 18, 4	@ Tag_ABI_PCS_wchar_t
  13              		.file	"stm32f4xx_exti.c"
  14              	@ GNU C89 (GNU Arm Embedded Toolchain 10.3-2021.10) version 10.3.1 20210824 (release) (arm-none-eab
  15              	@	compiled by GNU C version 7.3-win32 20180312, GMP version 6.1.0, MPFR version 3.1.4, MPC version 
  16              	
  17              	@ GGC heuristics: --param ggc-min-expand=100 --param ggc-min-heapsize=131072
  18              	@ options passed:  -I . -I . -I ../Utilities/STM32F4-Discovery/
  19              	@ -I ../Libraries/STM32_USB_Device_Library/Class/audio/inc/
  20              	@ -I ../Libraries/STM32_USB_Device_Library/Core/inc/
  21              	@ -I ../Libraries/STM32_USB_OTG_Driver/inc/
  22              	@ -I ../Utilities/STM32F4-Discovery/
  23              	@ -I ../Libraries/STM32F4xx_StdPeriph_Driver/inc/
  24              	@ -I ../Utilities/STM32F4-Discovery/
  25              	@ -I ../Libraries/CMSIS/ST/STM32F4xx/Include/
  26              	@ -I ../Libraries/CMSIS/Include/ -imultilib thumb/v7e-m+fp/hard
  27              	@ -iprefix c:\program files (x86)\gnu arm embedded toolchain\10 2021.10\bin\../lib/gcc/arm-none-eab
  28              	@ -isysroot c:\program files (x86)\gnu arm embedded toolchain\10 2021.10\bin\../arm-none-eabi
  29              	@ -MD out/stm32f4xx_exti.d -MF out/stm32f4xx_exti.d -MP
  30              	@ -MQ out/stm32f4xx_exti.o -D__USES_INITFINI__ -D STM32F4XX -D __VFP_FP__
  31              	@ -D USE_USB_OTG_FS
  32              	@ ../Libraries/STM32F4xx_StdPeriph_Driver/src/stm32f4xx_exti.c
  33              	@ -mcpu=cortex-m4 -mthumb -mfloat-abi=hard -mfpu=fpv4-sp-d16
  34              	@ -mlibarch=armv7e-m+fp -march=armv7e-m+fp
  35              	@ -auxbase-strip out/stm32f4xx_exti.o -g -ggdb3 -O3 -Wall
  36              	@ -Wstrict-prototypes -Wextra -std=gnu90 -ffast-math -ffunction-sections
  37              	@ -fdata-sections -fverbose-asm
  38              	@ options enabled:  -faggressive-loop-optimizations -falign-functions
  39              	@ -falign-jumps -falign-labels -falign-loops -fallocation-dce
  40              	@ -fassociative-math -fauto-inc-dec -fbranch-count-reg -fcaller-saves
  41              	@ -fcombine-stack-adjustments -fcompare-elim -fcprop-registers
  42              	@ -fcrossjumping -fcse-follow-jumps -fcx-limited-range -fdata-sections
  43              	@ -fdefer-pop -fdelete-null-pointer-checks -fdevirtualize
  44              	@ -fdevirtualize-speculatively -fdwarf2-cfi-asm -fearly-inlining
  45              	@ -feliminate-unused-debug-symbols -feliminate-unused-debug-types
  46              	@ -fexpensive-optimizations -ffinite-math-only -fforward-propagate
  47              	@ -ffp-int-builtin-inexact -ffunction-cse -ffunction-sections -fgcse
  48              	@ -fgcse-after-reload -fgcse-lm -fgnu-unique -fguess-branch-probability
  49              	@ -fhoist-adjacent-loads -fident -fif-conversion -fif-conversion2
  50              	@ -findirect-inlining -finline -finline-atomics -finline-functions
  51              	@ -finline-functions-called-once -finline-small-functions -fipa-bit-cp
  52              	@ -fipa-cp -fipa-cp-clone -fipa-icf -fipa-icf-functions -fipa-icf-variables
  53              	@ -fipa-profile -fipa-pure-const -fipa-ra -fipa-reference
  54              	@ -fipa-reference-addressable -fipa-sra -fipa-stack-alignment -fipa-vrp
  55              	@ -fira-hoist-pressure -fira-share-save-slots -fira-share-spill-slots
  56              	@ -fisolate-erroneous-paths-dereference -fivopts -fkeep-static-consts
  57              	@ -fleading-underscore -flifetime-dse -floop-interchange
ARM GAS  C:\Users\admin\AppData\Local\Temp\cctdxl0y.s 			page 2


  58              	@ -floop-unroll-and-jam -flra-remat -fmerge-constants -fmerge-debug-strings
  59              	@ -fmove-loop-invariants -fomit-frame-pointer -foptimize-sibling-calls
  60              	@ -foptimize-strlen -fpartial-inlining -fpeel-loops -fpeephole -fpeephole2
  61              	@ -fplt -fpredictive-commoning -fprefetch-loop-arrays -freciprocal-math
  62              	@ -freg-struct-return -freorder-blocks -freorder-functions
  63              	@ -frerun-cse-after-loop -fsched-critical-path-heuristic
  64              	@ -fsched-dep-count-heuristic -fsched-group-heuristic -fsched-interblock
  65              	@ -fsched-last-insn-heuristic -fsched-pressure -fsched-rank-heuristic
  66              	@ -fsched-spec -fsched-spec-insn-heuristic -fsched-stalled-insns-dep
  67              	@ -fschedule-insns -fschedule-insns2 -fsection-anchors
  68              	@ -fsemantic-interposition -fshow-column -fshrink-wrap
  69              	@ -fshrink-wrap-separate -fsplit-ivs-in-unroller -fsplit-loops
  70              	@ -fsplit-paths -fsplit-wide-types -fssa-backprop -fssa-phiopt -fstdarg-opt
  71              	@ -fstore-merging -fstrict-aliasing -fstrict-volatile-bitfields
  72              	@ -fsync-libcalls -fthread-jumps -ftoplevel-reorder -ftree-bit-ccp
  73              	@ -ftree-builtin-call-dce -ftree-ccp -ftree-ch -ftree-coalesce-vars
  74              	@ -ftree-copy-prop -ftree-cselim -ftree-dce -ftree-dominator-opts
  75              	@ -ftree-dse -ftree-forwprop -ftree-fre -ftree-loop-distribute-patterns
  76              	@ -ftree-loop-distribution -ftree-loop-if-convert -ftree-loop-im
  77              	@ -ftree-loop-ivcanon -ftree-loop-optimize -ftree-loop-vectorize
  78              	@ -ftree-parallelize-loops= -ftree-partial-pre -ftree-phiprop -ftree-pre
  79              	@ -ftree-pta -ftree-reassoc -ftree-scev-cprop -ftree-sink
  80              	@ -ftree-slp-vectorize -ftree-slsr -ftree-sra -ftree-switch-conversion
  81              	@ -ftree-tail-merge -ftree-ter -ftree-vrp -funit-at-a-time
  82              	@ -funsafe-math-optimizations -funswitch-loops -fvar-tracking
  83              	@ -fvar-tracking-assignments -fverbose-asm -fversion-loops-for-strides
  84              	@ -fzero-initialized-in-bss -masm-syntax-unified -mbe32 -mlittle-endian
  85              	@ -mpic-data-is-text-relative -msched-prolog -mthumb -munaligned-access
  86              	@ -mvectorize-with-neon-quad
  87              	
  88              		.text
  89              	.Ltext0:
  90              		.cfi_sections	.debug_frame
  91              		.section	.text.EXTI_DeInit,"ax",%progbits
  92              		.align	1
  93              		.p2align 2,,3
  94              		.global	EXTI_DeInit
  95              		.syntax unified
  96              		.thumb
  97              		.thumb_func
  98              		.type	EXTI_DeInit, %function
  99              	EXTI_DeInit:
 100              	.LFB110:
 101              		.file 1 "../Libraries/STM32F4xx_StdPeriph_Driver/src/stm32f4xx_exti.c"
   1:../Libraries/STM32F4xx_StdPeriph_Driver/src/stm32f4xx_exti.c **** /**
   2:../Libraries/STM32F4xx_StdPeriph_Driver/src/stm32f4xx_exti.c ****   ******************************************************************************
   3:../Libraries/STM32F4xx_StdPeriph_Driver/src/stm32f4xx_exti.c ****   * @file    stm32f4xx_exti.c
   4:../Libraries/STM32F4xx_StdPeriph_Driver/src/stm32f4xx_exti.c ****   * @author  MCD Application Team
   5:../Libraries/STM32F4xx_StdPeriph_Driver/src/stm32f4xx_exti.c ****   * @version V1.0.0
   6:../Libraries/STM32F4xx_StdPeriph_Driver/src/stm32f4xx_exti.c ****   * @date    30-September-2011
   7:../Libraries/STM32F4xx_StdPeriph_Driver/src/stm32f4xx_exti.c ****   * @brief   This file provides firmware functions to manage the following 
   8:../Libraries/STM32F4xx_StdPeriph_Driver/src/stm32f4xx_exti.c ****   *          functionalities of the EXTI peripheral:           
   9:../Libraries/STM32F4xx_StdPeriph_Driver/src/stm32f4xx_exti.c ****   *           - Initialization and Configuration
  10:../Libraries/STM32F4xx_StdPeriph_Driver/src/stm32f4xx_exti.c ****   *           - Interrupts and flags management
  11:../Libraries/STM32F4xx_StdPeriph_Driver/src/stm32f4xx_exti.c ****   *
  12:../Libraries/STM32F4xx_StdPeriph_Driver/src/stm32f4xx_exti.c ****   *  @verbatim  
  13:../Libraries/STM32F4xx_StdPeriph_Driver/src/stm32f4xx_exti.c ****   *  
ARM GAS  C:\Users\admin\AppData\Local\Temp\cctdxl0y.s 			page 3


  14:../Libraries/STM32F4xx_StdPeriph_Driver/src/stm32f4xx_exti.c ****   *          ===================================================================
  15:../Libraries/STM32F4xx_StdPeriph_Driver/src/stm32f4xx_exti.c ****   *                                     EXTI features
  16:../Libraries/STM32F4xx_StdPeriph_Driver/src/stm32f4xx_exti.c ****   *          ===================================================================
  17:../Libraries/STM32F4xx_StdPeriph_Driver/src/stm32f4xx_exti.c ****   *    
  18:../Libraries/STM32F4xx_StdPeriph_Driver/src/stm32f4xx_exti.c ****   *          External interrupt/event lines are mapped as following:
  19:../Libraries/STM32F4xx_StdPeriph_Driver/src/stm32f4xx_exti.c ****   *            1- All available GPIO pins are connected to the 16 external 
  20:../Libraries/STM32F4xx_StdPeriph_Driver/src/stm32f4xx_exti.c ****   *               interrupt/event lines from EXTI0 to EXTI15.
  21:../Libraries/STM32F4xx_StdPeriph_Driver/src/stm32f4xx_exti.c ****   *            2- EXTI line 16 is connected to the PVD Output
  22:../Libraries/STM32F4xx_StdPeriph_Driver/src/stm32f4xx_exti.c ****   *            3- EXTI line 17 is connected to the RTC Alarm event
  23:../Libraries/STM32F4xx_StdPeriph_Driver/src/stm32f4xx_exti.c ****   *            4- EXTI line 18 is connected to the USB OTG FS Wakeup from suspend event            
  24:../Libraries/STM32F4xx_StdPeriph_Driver/src/stm32f4xx_exti.c ****   *            5- EXTI line 19 is connected to the Ethernet Wakeup event
  25:../Libraries/STM32F4xx_StdPeriph_Driver/src/stm32f4xx_exti.c ****   *            6- EXTI line 20 is connected to the USB OTG HS (configured in FS) Wakeup event 
  26:../Libraries/STM32F4xx_StdPeriph_Driver/src/stm32f4xx_exti.c ****   *            7- EXTI line 21 is connected to the RTC Tamper and Time Stamp events                
  27:../Libraries/STM32F4xx_StdPeriph_Driver/src/stm32f4xx_exti.c ****   *            8- EXTI line 22 is connected to the RTC Wakeup event
  28:../Libraries/STM32F4xx_StdPeriph_Driver/src/stm32f4xx_exti.c ****   *        
  29:../Libraries/STM32F4xx_StdPeriph_Driver/src/stm32f4xx_exti.c ****   *          ===================================================================
  30:../Libraries/STM32F4xx_StdPeriph_Driver/src/stm32f4xx_exti.c ****   *                                 How to use this driver
  31:../Libraries/STM32F4xx_StdPeriph_Driver/src/stm32f4xx_exti.c ****   *          ===================================================================  
  32:../Libraries/STM32F4xx_StdPeriph_Driver/src/stm32f4xx_exti.c ****   *              
  33:../Libraries/STM32F4xx_StdPeriph_Driver/src/stm32f4xx_exti.c ****   *          In order to use an I/O pin as an external interrupt source, follow
  34:../Libraries/STM32F4xx_StdPeriph_Driver/src/stm32f4xx_exti.c ****   *          steps below:
  35:../Libraries/STM32F4xx_StdPeriph_Driver/src/stm32f4xx_exti.c ****   *            1- Configure the I/O in input mode using GPIO_Init()
  36:../Libraries/STM32F4xx_StdPeriph_Driver/src/stm32f4xx_exti.c ****   *            2- Select the input source pin for the EXTI line using SYSCFG_EXTILineConfig()
  37:../Libraries/STM32F4xx_StdPeriph_Driver/src/stm32f4xx_exti.c ****   *            3- Select the mode(interrupt, event) and configure the trigger 
  38:../Libraries/STM32F4xx_StdPeriph_Driver/src/stm32f4xx_exti.c ****   *               selection (Rising, falling or both) using EXTI_Init()
  39:../Libraries/STM32F4xx_StdPeriph_Driver/src/stm32f4xx_exti.c ****   *            4- Configure NVIC IRQ channel mapped to the EXTI line using NVIC_Init()
  40:../Libraries/STM32F4xx_StdPeriph_Driver/src/stm32f4xx_exti.c ****   *   
  41:../Libraries/STM32F4xx_StdPeriph_Driver/src/stm32f4xx_exti.c ****   *  @note  SYSCFG APB clock must be enabled to get write access to SYSCFG_EXTICRx
  42:../Libraries/STM32F4xx_StdPeriph_Driver/src/stm32f4xx_exti.c ****   *         registers using RCC_APB2PeriphClockCmd(RCC_APB2Periph_SYSCFG, ENABLE);
  43:../Libraries/STM32F4xx_StdPeriph_Driver/src/stm32f4xx_exti.c ****   *          
  44:../Libraries/STM32F4xx_StdPeriph_Driver/src/stm32f4xx_exti.c ****   *  @endverbatim                  
  45:../Libraries/STM32F4xx_StdPeriph_Driver/src/stm32f4xx_exti.c ****   *
  46:../Libraries/STM32F4xx_StdPeriph_Driver/src/stm32f4xx_exti.c ****   ******************************************************************************
  47:../Libraries/STM32F4xx_StdPeriph_Driver/src/stm32f4xx_exti.c ****   * @attention
  48:../Libraries/STM32F4xx_StdPeriph_Driver/src/stm32f4xx_exti.c ****   *
  49:../Libraries/STM32F4xx_StdPeriph_Driver/src/stm32f4xx_exti.c ****   * THE PRESENT FIRMWARE WHICH IS FOR GUIDANCE ONLY AIMS AT PROVIDING CUSTOMERS
  50:../Libraries/STM32F4xx_StdPeriph_Driver/src/stm32f4xx_exti.c ****   * WITH CODING INFORMATION REGARDING THEIR PRODUCTS IN ORDER FOR THEM TO SAVE
  51:../Libraries/STM32F4xx_StdPeriph_Driver/src/stm32f4xx_exti.c ****   * TIME. AS A RESULT, STMICROELECTRONICS SHALL NOT BE HELD LIABLE FOR ANY
  52:../Libraries/STM32F4xx_StdPeriph_Driver/src/stm32f4xx_exti.c ****   * DIRECT, INDIRECT OR CONSEQUENTIAL DAMAGES WITH RESPECT TO ANY CLAIMS ARISING
  53:../Libraries/STM32F4xx_StdPeriph_Driver/src/stm32f4xx_exti.c ****   * FROM THE CONTENT OF SUCH FIRMWARE AND/OR THE USE MADE BY CUSTOMERS OF THE
  54:../Libraries/STM32F4xx_StdPeriph_Driver/src/stm32f4xx_exti.c ****   * CODING INFORMATION CONTAINED HEREIN IN CONNECTION WITH THEIR PRODUCTS.
  55:../Libraries/STM32F4xx_StdPeriph_Driver/src/stm32f4xx_exti.c ****   *
  56:../Libraries/STM32F4xx_StdPeriph_Driver/src/stm32f4xx_exti.c ****   * <h2><center>&copy; COPYRIGHT 2011 STMicroelectronics</center></h2>
  57:../Libraries/STM32F4xx_StdPeriph_Driver/src/stm32f4xx_exti.c ****   ******************************************************************************
  58:../Libraries/STM32F4xx_StdPeriph_Driver/src/stm32f4xx_exti.c ****   */
  59:../Libraries/STM32F4xx_StdPeriph_Driver/src/stm32f4xx_exti.c **** 
  60:../Libraries/STM32F4xx_StdPeriph_Driver/src/stm32f4xx_exti.c **** /* Includes ------------------------------------------------------------------*/
  61:../Libraries/STM32F4xx_StdPeriph_Driver/src/stm32f4xx_exti.c **** #include "stm32f4xx_exti.h"
  62:../Libraries/STM32F4xx_StdPeriph_Driver/src/stm32f4xx_exti.c **** #include <stm32f4xx_conf.h>
  63:../Libraries/STM32F4xx_StdPeriph_Driver/src/stm32f4xx_exti.c **** 
  64:../Libraries/STM32F4xx_StdPeriph_Driver/src/stm32f4xx_exti.c **** /** @addtogroup STM32F4xx_StdPeriph_Driver
  65:../Libraries/STM32F4xx_StdPeriph_Driver/src/stm32f4xx_exti.c ****   * @{
  66:../Libraries/STM32F4xx_StdPeriph_Driver/src/stm32f4xx_exti.c ****   */
  67:../Libraries/STM32F4xx_StdPeriph_Driver/src/stm32f4xx_exti.c **** 
  68:../Libraries/STM32F4xx_StdPeriph_Driver/src/stm32f4xx_exti.c **** /** @defgroup EXTI 
  69:../Libraries/STM32F4xx_StdPeriph_Driver/src/stm32f4xx_exti.c ****   * @brief EXTI driver modules
  70:../Libraries/STM32F4xx_StdPeriph_Driver/src/stm32f4xx_exti.c ****   * @{
ARM GAS  C:\Users\admin\AppData\Local\Temp\cctdxl0y.s 			page 4


  71:../Libraries/STM32F4xx_StdPeriph_Driver/src/stm32f4xx_exti.c ****   */
  72:../Libraries/STM32F4xx_StdPeriph_Driver/src/stm32f4xx_exti.c **** 
  73:../Libraries/STM32F4xx_StdPeriph_Driver/src/stm32f4xx_exti.c **** /* Private typedef -----------------------------------------------------------*/
  74:../Libraries/STM32F4xx_StdPeriph_Driver/src/stm32f4xx_exti.c **** /* Private define ------------------------------------------------------------*/
  75:../Libraries/STM32F4xx_StdPeriph_Driver/src/stm32f4xx_exti.c **** 
  76:../Libraries/STM32F4xx_StdPeriph_Driver/src/stm32f4xx_exti.c **** #define EXTI_LINENONE    ((uint32_t)0x00000)  /* No interrupt selected */
  77:../Libraries/STM32F4xx_StdPeriph_Driver/src/stm32f4xx_exti.c **** 
  78:../Libraries/STM32F4xx_StdPeriph_Driver/src/stm32f4xx_exti.c **** /* Private macro -------------------------------------------------------------*/
  79:../Libraries/STM32F4xx_StdPeriph_Driver/src/stm32f4xx_exti.c **** /* Private variables ---------------------------------------------------------*/
  80:../Libraries/STM32F4xx_StdPeriph_Driver/src/stm32f4xx_exti.c **** /* Private function prototypes -----------------------------------------------*/
  81:../Libraries/STM32F4xx_StdPeriph_Driver/src/stm32f4xx_exti.c **** /* Private functions ---------------------------------------------------------*/
  82:../Libraries/STM32F4xx_StdPeriph_Driver/src/stm32f4xx_exti.c **** 
  83:../Libraries/STM32F4xx_StdPeriph_Driver/src/stm32f4xx_exti.c **** /** @defgroup EXTI_Private_Functions
  84:../Libraries/STM32F4xx_StdPeriph_Driver/src/stm32f4xx_exti.c ****   * @{
  85:../Libraries/STM32F4xx_StdPeriph_Driver/src/stm32f4xx_exti.c ****   */
  86:../Libraries/STM32F4xx_StdPeriph_Driver/src/stm32f4xx_exti.c **** 
  87:../Libraries/STM32F4xx_StdPeriph_Driver/src/stm32f4xx_exti.c **** /** @defgroup EXTI_Group1 Initialization and Configuration functions
  88:../Libraries/STM32F4xx_StdPeriph_Driver/src/stm32f4xx_exti.c ****  *  @brief   Initialization and Configuration functions 
  89:../Libraries/STM32F4xx_StdPeriph_Driver/src/stm32f4xx_exti.c ****  *
  90:../Libraries/STM32F4xx_StdPeriph_Driver/src/stm32f4xx_exti.c **** @verbatim   
  91:../Libraries/STM32F4xx_StdPeriph_Driver/src/stm32f4xx_exti.c ****  ===============================================================================
  92:../Libraries/STM32F4xx_StdPeriph_Driver/src/stm32f4xx_exti.c ****                   Initialization and Configuration functions
  93:../Libraries/STM32F4xx_StdPeriph_Driver/src/stm32f4xx_exti.c ****  ===============================================================================  
  94:../Libraries/STM32F4xx_StdPeriph_Driver/src/stm32f4xx_exti.c **** 
  95:../Libraries/STM32F4xx_StdPeriph_Driver/src/stm32f4xx_exti.c **** @endverbatim
  96:../Libraries/STM32F4xx_StdPeriph_Driver/src/stm32f4xx_exti.c ****   * @{
  97:../Libraries/STM32F4xx_StdPeriph_Driver/src/stm32f4xx_exti.c ****   */
  98:../Libraries/STM32F4xx_StdPeriph_Driver/src/stm32f4xx_exti.c **** 
  99:../Libraries/STM32F4xx_StdPeriph_Driver/src/stm32f4xx_exti.c **** /**
 100:../Libraries/STM32F4xx_StdPeriph_Driver/src/stm32f4xx_exti.c ****   * @brief  Deinitializes the EXTI peripheral registers to their default reset values.
 101:../Libraries/STM32F4xx_StdPeriph_Driver/src/stm32f4xx_exti.c ****   * @param  None
 102:../Libraries/STM32F4xx_StdPeriph_Driver/src/stm32f4xx_exti.c ****   * @retval None
 103:../Libraries/STM32F4xx_StdPeriph_Driver/src/stm32f4xx_exti.c ****   */
 104:../Libraries/STM32F4xx_StdPeriph_Driver/src/stm32f4xx_exti.c **** void EXTI_DeInit(void)
 105:../Libraries/STM32F4xx_StdPeriph_Driver/src/stm32f4xx_exti.c **** {
 102              		.loc 1 105 1 view -0
 103              		.cfi_startproc
 104              		@ args = 0, pretend = 0, frame = 0
 105              		@ frame_needed = 0, uses_anonymous_args = 0
 106              		@ link register save eliminated.
 106:../Libraries/STM32F4xx_StdPeriph_Driver/src/stm32f4xx_exti.c ****   EXTI->IMR = 0x00000000;
 107              		.loc 1 106 3 view .LVU1
 108              	@ ../Libraries/STM32F4xx_StdPeriph_Driver/src/stm32f4xx_exti.c:106:   EXTI->IMR = 0x00000000;
 109              		.loc 1 106 13 is_stmt 0 view .LVU2
 110 0000 044B     		ldr	r3, .L3	@ tmp113,
 111              	@ ../Libraries/STM32F4xx_StdPeriph_Driver/src/stm32f4xx_exti.c:110:   EXTI->PR = 0x007FFFFF;
 107:../Libraries/STM32F4xx_StdPeriph_Driver/src/stm32f4xx_exti.c ****   EXTI->EMR = 0x00000000;
 108:../Libraries/STM32F4xx_StdPeriph_Driver/src/stm32f4xx_exti.c ****   EXTI->RTSR = 0x00000000;
 109:../Libraries/STM32F4xx_StdPeriph_Driver/src/stm32f4xx_exti.c ****   EXTI->FTSR = 0x00000000;
 110:../Libraries/STM32F4xx_StdPeriph_Driver/src/stm32f4xx_exti.c ****   EXTI->PR = 0x007FFFFF;
 112              		.loc 1 110 12 view .LVU3
 113 0002 0549     		ldr	r1, .L3+4	@ tmp122,
 114              	@ ../Libraries/STM32F4xx_StdPeriph_Driver/src/stm32f4xx_exti.c:106:   EXTI->IMR = 0x00000000;
 106:../Libraries/STM32F4xx_StdPeriph_Driver/src/stm32f4xx_exti.c ****   EXTI->IMR = 0x00000000;
 115              		.loc 1 106 13 view .LVU4
 116 0004 0022     		movs	r2, #0	@ tmp114,
 117 0006 1A60     		str	r2, [r3]	@ tmp114, MEM[(struct EXTI_TypeDef *)1073822720B].IMR
ARM GAS  C:\Users\admin\AppData\Local\Temp\cctdxl0y.s 			page 5


 107:../Libraries/STM32F4xx_StdPeriph_Driver/src/stm32f4xx_exti.c ****   EXTI->EMR = 0x00000000;
 118              		.loc 1 107 3 is_stmt 1 view .LVU5
 119              	@ ../Libraries/STM32F4xx_StdPeriph_Driver/src/stm32f4xx_exti.c:107:   EXTI->EMR = 0x00000000;
 107:../Libraries/STM32F4xx_StdPeriph_Driver/src/stm32f4xx_exti.c ****   EXTI->EMR = 0x00000000;
 120              		.loc 1 107 13 is_stmt 0 view .LVU6
 121 0008 5A60     		str	r2, [r3, #4]	@ tmp114, MEM[(struct EXTI_TypeDef *)1073822720B].EMR
 108:../Libraries/STM32F4xx_StdPeriph_Driver/src/stm32f4xx_exti.c ****   EXTI->FTSR = 0x00000000;
 122              		.loc 1 108 3 is_stmt 1 view .LVU7
 123              	@ ../Libraries/STM32F4xx_StdPeriph_Driver/src/stm32f4xx_exti.c:108:   EXTI->RTSR = 0x00000000;
 108:../Libraries/STM32F4xx_StdPeriph_Driver/src/stm32f4xx_exti.c ****   EXTI->FTSR = 0x00000000;
 124              		.loc 1 108 14 is_stmt 0 view .LVU8
 125 000a 9A60     		str	r2, [r3, #8]	@ tmp114, MEM[(struct EXTI_TypeDef *)1073822720B].RTSR
 109:../Libraries/STM32F4xx_StdPeriph_Driver/src/stm32f4xx_exti.c ****   EXTI->PR = 0x007FFFFF;
 126              		.loc 1 109 3 is_stmt 1 view .LVU9
 127              	@ ../Libraries/STM32F4xx_StdPeriph_Driver/src/stm32f4xx_exti.c:109:   EXTI->FTSR = 0x00000000;
 109:../Libraries/STM32F4xx_StdPeriph_Driver/src/stm32f4xx_exti.c ****   EXTI->PR = 0x007FFFFF;
 128              		.loc 1 109 14 is_stmt 0 view .LVU10
 129 000c DA60     		str	r2, [r3, #12]	@ tmp114, MEM[(struct EXTI_TypeDef *)1073822720B].FTSR
 130              		.loc 1 110 3 is_stmt 1 view .LVU11
 131              	@ ../Libraries/STM32F4xx_StdPeriph_Driver/src/stm32f4xx_exti.c:110:   EXTI->PR = 0x007FFFFF;
 132              		.loc 1 110 12 is_stmt 0 view .LVU12
 133 000e 5961     		str	r1, [r3, #20]	@ tmp122, MEM[(struct EXTI_TypeDef *)1073822720B].PR
 134              	@ ../Libraries/STM32F4xx_StdPeriph_Driver/src/stm32f4xx_exti.c:111: }
 111:../Libraries/STM32F4xx_StdPeriph_Driver/src/stm32f4xx_exti.c **** }
 135              		.loc 1 111 1 view .LVU13
 136 0010 7047     		bx	lr	@
 137              	.L4:
 138 0012 00BF     		.align	2
 139              	.L3:
 140 0014 003C0140 		.word	1073822720
 141 0018 FFFF7F00 		.word	8388607
 142              		.cfi_endproc
 143              	.LFE110:
 144              		.size	EXTI_DeInit, .-EXTI_DeInit
 145              		.section	.text.EXTI_Init,"ax",%progbits
 146              		.align	1
 147              		.p2align 2,,3
 148              		.global	EXTI_Init
 149              		.syntax unified
 150              		.thumb
 151              		.thumb_func
 152              		.type	EXTI_Init, %function
 153              	EXTI_Init:
 154              	.LVL0:
 155              	.LFB111:
 112:../Libraries/STM32F4xx_StdPeriph_Driver/src/stm32f4xx_exti.c **** 
 113:../Libraries/STM32F4xx_StdPeriph_Driver/src/stm32f4xx_exti.c **** /**
 114:../Libraries/STM32F4xx_StdPeriph_Driver/src/stm32f4xx_exti.c ****   * @brief  Initializes the EXTI peripheral according to the specified
 115:../Libraries/STM32F4xx_StdPeriph_Driver/src/stm32f4xx_exti.c ****   *         parameters in the EXTI_InitStruct.
 116:../Libraries/STM32F4xx_StdPeriph_Driver/src/stm32f4xx_exti.c ****   * @param  EXTI_InitStruct: pointer to a EXTI_InitTypeDef structure
 117:../Libraries/STM32F4xx_StdPeriph_Driver/src/stm32f4xx_exti.c ****   *         that contains the configuration information for the EXTI peripheral.
 118:../Libraries/STM32F4xx_StdPeriph_Driver/src/stm32f4xx_exti.c ****   * @retval None
 119:../Libraries/STM32F4xx_StdPeriph_Driver/src/stm32f4xx_exti.c ****   */
 120:../Libraries/STM32F4xx_StdPeriph_Driver/src/stm32f4xx_exti.c **** void EXTI_Init(EXTI_InitTypeDef* EXTI_InitStruct)
 121:../Libraries/STM32F4xx_StdPeriph_Driver/src/stm32f4xx_exti.c **** {
 156              		.loc 1 121 1 is_stmt 1 view -0
 157              		.cfi_startproc
ARM GAS  C:\Users\admin\AppData\Local\Temp\cctdxl0y.s 			page 6


 158              		@ args = 0, pretend = 0, frame = 0
 159              		@ frame_needed = 0, uses_anonymous_args = 0
 160              		@ link register save eliminated.
 122:../Libraries/STM32F4xx_StdPeriph_Driver/src/stm32f4xx_exti.c ****   uint32_t tmp = 0;
 161              		.loc 1 122 3 view .LVU15
 123:../Libraries/STM32F4xx_StdPeriph_Driver/src/stm32f4xx_exti.c **** 
 124:../Libraries/STM32F4xx_StdPeriph_Driver/src/stm32f4xx_exti.c ****   /* Check the parameters */
 125:../Libraries/STM32F4xx_StdPeriph_Driver/src/stm32f4xx_exti.c ****   assert_param(IS_EXTI_MODE(EXTI_InitStruct->EXTI_Mode));
 162              		.loc 1 125 3 view .LVU16
 126:../Libraries/STM32F4xx_StdPeriph_Driver/src/stm32f4xx_exti.c ****   assert_param(IS_EXTI_TRIGGER(EXTI_InitStruct->EXTI_Trigger));
 163              		.loc 1 126 3 view .LVU17
 127:../Libraries/STM32F4xx_StdPeriph_Driver/src/stm32f4xx_exti.c ****   assert_param(IS_EXTI_LINE(EXTI_InitStruct->EXTI_Line));  
 164              		.loc 1 127 3 view .LVU18
 128:../Libraries/STM32F4xx_StdPeriph_Driver/src/stm32f4xx_exti.c ****   assert_param(IS_FUNCTIONAL_STATE(EXTI_InitStruct->EXTI_LineCmd));
 165              		.loc 1 128 3 view .LVU19
 129:../Libraries/STM32F4xx_StdPeriph_Driver/src/stm32f4xx_exti.c **** 
 130:../Libraries/STM32F4xx_StdPeriph_Driver/src/stm32f4xx_exti.c ****   tmp = (uint32_t)EXTI_BASE;
 166              		.loc 1 130 3 view .LVU20
 131:../Libraries/STM32F4xx_StdPeriph_Driver/src/stm32f4xx_exti.c ****      
 132:../Libraries/STM32F4xx_StdPeriph_Driver/src/stm32f4xx_exti.c ****   if (EXTI_InitStruct->EXTI_LineCmd != DISABLE)
 167              		.loc 1 132 3 view .LVU21
 168              	@ ../Libraries/STM32F4xx_StdPeriph_Driver/src/stm32f4xx_exti.c:132:   if (EXTI_InitStruct->EXTI_Lin
 169              		.loc 1 132 6 is_stmt 0 view .LVU22
 170 0000 8379     		ldrb	r3, [r0, #6]	@ zero_extendqisi2	@ EXTI_InitStruct_37(D)->EXTI_LineCmd, EXTI_InitStruct_37(D)-
 171 0002 43B3     		cbz	r3, .L6	@ EXTI_InitStruct_37(D)->EXTI_LineCmd,
 133:../Libraries/STM32F4xx_StdPeriph_Driver/src/stm32f4xx_exti.c ****   {
 134:../Libraries/STM32F4xx_StdPeriph_Driver/src/stm32f4xx_exti.c ****     /* Clear EXTI line configuration */
 135:../Libraries/STM32F4xx_StdPeriph_Driver/src/stm32f4xx_exti.c ****     EXTI->IMR &= ~EXTI_InitStruct->EXTI_Line;
 172              		.loc 1 135 5 is_stmt 1 view .LVU23
 173              	@ ../Libraries/STM32F4xx_StdPeriph_Driver/src/stm32f4xx_exti.c:135:     EXTI->IMR &= ~EXTI_InitStru
 174              		.loc 1 135 15 is_stmt 0 view .LVU24
 175 0004 1E4B     		ldr	r3, .L14	@ tmp152,
 176              	@ ../Libraries/STM32F4xx_StdPeriph_Driver/src/stm32f4xx_exti.c:135:     EXTI->IMR &= ~EXTI_InitStru
 177              		.loc 1 135 34 view .LVU25
 178 0006 0168     		ldr	r1, [r0]	@ _3, EXTI_InitStruct_37(D)->EXTI_Line
 179              	@ ../Libraries/STM32F4xx_StdPeriph_Driver/src/stm32f4xx_exti.c:135:     EXTI->IMR &= ~EXTI_InitStru
 180              		.loc 1 135 15 view .LVU26
 181 0008 1A68     		ldr	r2, [r3]	@ _2, MEM[(struct EXTI_TypeDef *)1073822720B].IMR
 182 000a 22EA0102 		bic	r2, r2, r1	@ _5, _2, _3
 183              	@ ../Libraries/STM32F4xx_StdPeriph_Driver/src/stm32f4xx_exti.c:121: {
 121:../Libraries/STM32F4xx_StdPeriph_Driver/src/stm32f4xx_exti.c ****   uint32_t tmp = 0;
 184              		.loc 1 121 1 view .LVU27
 185 000e 10B4     		push	{r4}	@
 186              		.cfi_def_cfa_offset 4
 187              		.cfi_offset 4, -4
 188              	@ ../Libraries/STM32F4xx_StdPeriph_Driver/src/stm32f4xx_exti.c:135:     EXTI->IMR &= ~EXTI_InitStru
 189              		.loc 1 135 15 view .LVU28
 190 0010 1A60     		str	r2, [r3]	@ _5, MEM[(struct EXTI_TypeDef *)1073822720B].IMR
 136:../Libraries/STM32F4xx_StdPeriph_Driver/src/stm32f4xx_exti.c ****     EXTI->EMR &= ~EXTI_InitStruct->EXTI_Line;
 191              		.loc 1 136 5 is_stmt 1 view .LVU29
 192              	@ ../Libraries/STM32F4xx_StdPeriph_Driver/src/stm32f4xx_exti.c:136:     EXTI->EMR &= ~EXTI_InitStru
 193              		.loc 1 136 15 is_stmt 0 view .LVU30
 194 0012 5A68     		ldr	r2, [r3, #4]	@ _6, MEM[(struct EXTI_TypeDef *)1073822720B].EMR
 195 0014 22EA0102 		bic	r2, r2, r1	@ _7, _6, _3
 196 0018 5A60     		str	r2, [r3, #4]	@ _7, MEM[(struct EXTI_TypeDef *)1073822720B].EMR
 137:../Libraries/STM32F4xx_StdPeriph_Driver/src/stm32f4xx_exti.c ****     
 138:../Libraries/STM32F4xx_StdPeriph_Driver/src/stm32f4xx_exti.c ****     tmp += EXTI_InitStruct->EXTI_Mode;
ARM GAS  C:\Users\admin\AppData\Local\Temp\cctdxl0y.s 			page 7


 197              		.loc 1 138 5 is_stmt 1 view .LVU31
 198              	.LVL1:
 139:../Libraries/STM32F4xx_StdPeriph_Driver/src/stm32f4xx_exti.c **** 
 140:../Libraries/STM32F4xx_StdPeriph_Driver/src/stm32f4xx_exti.c ****     *(__IO uint32_t *) tmp |= EXTI_InitStruct->EXTI_Line;
 199              		.loc 1 140 5 view .LVU32
 200              	@ ../Libraries/STM32F4xx_StdPeriph_Driver/src/stm32f4xx_exti.c:138:     tmp += EXTI_InitStruct->EXT
 138:../Libraries/STM32F4xx_StdPeriph_Driver/src/stm32f4xx_exti.c **** 
 201              		.loc 1 138 27 is_stmt 0 view .LVU33
 202 001a 0279     		ldrb	r2, [r0, #4]	@ zero_extendqisi2	@ EXTI_InitStruct_37(D)->EXTI_Mode, EXTI_InitStruct_37(D)->EX
 203              	@ ../Libraries/STM32F4xx_StdPeriph_Driver/src/stm32f4xx_exti.c:138:     tmp += EXTI_InitStruct->EXT
 138:../Libraries/STM32F4xx_StdPeriph_Driver/src/stm32f4xx_exti.c **** 
 204              		.loc 1 138 9 view .LVU34
 205 001c 02F18042 		add	r2, r2, #1073741824	@ tmp.0_10, EXTI_InitStruct_37(D)->EXTI_Mode,
 206 0020 02F59E32 		add	r2, r2, #80896	@ tmp.0_10, tmp.0_10,
 207              	@ ../Libraries/STM32F4xx_StdPeriph_Driver/src/stm32f4xx_exti.c:140:     *(__IO uint32_t *) tmp |= E
 208              		.loc 1 140 28 view .LVU35
 209 0024 1468     		ldr	r4, [r2]	@ _11, *tmp.0_10
 210 0026 2143     		orrs	r1, r1, r4	@, _12, _3, _11
 211 0028 1160     		str	r1, [r2]	@ _12, *tmp.0_10
 212              	.LVL2:
 141:../Libraries/STM32F4xx_StdPeriph_Driver/src/stm32f4xx_exti.c **** 
 142:../Libraries/STM32F4xx_StdPeriph_Driver/src/stm32f4xx_exti.c ****     /* Clear Rising Falling edge configuration */
 143:../Libraries/STM32F4xx_StdPeriph_Driver/src/stm32f4xx_exti.c ****     EXTI->RTSR &= ~EXTI_InitStruct->EXTI_Line;
 213              		.loc 1 143 5 is_stmt 1 view .LVU36
 214              	@ ../Libraries/STM32F4xx_StdPeriph_Driver/src/stm32f4xx_exti.c:143:     EXTI->RTSR &= ~EXTI_InitStr
 215              		.loc 1 143 16 is_stmt 0 view .LVU37
 216 002a 9968     		ldr	r1, [r3, #8]	@ _13, MEM[(struct EXTI_TypeDef *)1073822720B].RTSR
 217              	@ ../Libraries/STM32F4xx_StdPeriph_Driver/src/stm32f4xx_exti.c:143:     EXTI->RTSR &= ~EXTI_InitStr
 218              		.loc 1 143 35 view .LVU38
 219 002c 0268     		ldr	r2, [r0]	@ _14, EXTI_InitStruct_37(D)->EXTI_Line
 220              	.LVL3:
 221              	@ ../Libraries/STM32F4xx_StdPeriph_Driver/src/stm32f4xx_exti.c:143:     EXTI->RTSR &= ~EXTI_InitStr
 222              		.loc 1 143 16 view .LVU39
 223 002e 21EA0201 		bic	r1, r1, r2	@ _16, _13, _14
 224 0032 9960     		str	r1, [r3, #8]	@ _16, MEM[(struct EXTI_TypeDef *)1073822720B].RTSR
 144:../Libraries/STM32F4xx_StdPeriph_Driver/src/stm32f4xx_exti.c ****     EXTI->FTSR &= ~EXTI_InitStruct->EXTI_Line;
 225              		.loc 1 144 5 is_stmt 1 view .LVU40
 226              	@ ../Libraries/STM32F4xx_StdPeriph_Driver/src/stm32f4xx_exti.c:144:     EXTI->FTSR &= ~EXTI_InitStr
 227              		.loc 1 144 16 is_stmt 0 view .LVU41
 228 0034 D968     		ldr	r1, [r3, #12]	@ _17, MEM[(struct EXTI_TypeDef *)1073822720B].FTSR
 229 0036 21EA0201 		bic	r1, r1, r2	@ _18, _17, _14
 230 003a D960     		str	r1, [r3, #12]	@ _18, MEM[(struct EXTI_TypeDef *)1073822720B].FTSR
 145:../Libraries/STM32F4xx_StdPeriph_Driver/src/stm32f4xx_exti.c ****     
 146:../Libraries/STM32F4xx_StdPeriph_Driver/src/stm32f4xx_exti.c ****     /* Select the trigger for the selected external interrupts */
 147:../Libraries/STM32F4xx_StdPeriph_Driver/src/stm32f4xx_exti.c ****     if (EXTI_InitStruct->EXTI_Trigger == EXTI_Trigger_Rising_Falling)
 231              		.loc 1 147 5 is_stmt 1 view .LVU42
 232              	@ ../Libraries/STM32F4xx_StdPeriph_Driver/src/stm32f4xx_exti.c:147:     if (EXTI_InitStruct->EXTI_T
 233              		.loc 1 147 24 is_stmt 0 view .LVU43
 234 003c 4179     		ldrb	r1, [r0, #5]	@ zero_extendqisi2	@ _19, EXTI_InitStruct_37(D)->EXTI_Trigger
 235              	@ ../Libraries/STM32F4xx_StdPeriph_Driver/src/stm32f4xx_exti.c:147:     if (EXTI_InitStruct->EXTI_T
 236              		.loc 1 147 8 view .LVU44
 237 003e 1029     		cmp	r1, #16	@ _19,
 238 0040 14D0     		beq	.L13		@,
 148:../Libraries/STM32F4xx_StdPeriph_Driver/src/stm32f4xx_exti.c ****     {
 149:../Libraries/STM32F4xx_StdPeriph_Driver/src/stm32f4xx_exti.c ****       /* Rising Falling edge */
 150:../Libraries/STM32F4xx_StdPeriph_Driver/src/stm32f4xx_exti.c ****       EXTI->RTSR |= EXTI_InitStruct->EXTI_Line;
 151:../Libraries/STM32F4xx_StdPeriph_Driver/src/stm32f4xx_exti.c ****       EXTI->FTSR |= EXTI_InitStruct->EXTI_Line;
ARM GAS  C:\Users\admin\AppData\Local\Temp\cctdxl0y.s 			page 8


 152:../Libraries/STM32F4xx_StdPeriph_Driver/src/stm32f4xx_exti.c ****     }
 153:../Libraries/STM32F4xx_StdPeriph_Driver/src/stm32f4xx_exti.c ****     else
 154:../Libraries/STM32F4xx_StdPeriph_Driver/src/stm32f4xx_exti.c ****     {
 155:../Libraries/STM32F4xx_StdPeriph_Driver/src/stm32f4xx_exti.c ****       tmp = (uint32_t)EXTI_BASE;
 239              		.loc 1 155 7 is_stmt 1 view .LVU45
 240              	.LVL4:
 156:../Libraries/STM32F4xx_StdPeriph_Driver/src/stm32f4xx_exti.c ****       tmp += EXTI_InitStruct->EXTI_Trigger;
 241              		.loc 1 156 7 view .LVU46
 157:../Libraries/STM32F4xx_StdPeriph_Driver/src/stm32f4xx_exti.c **** 
 158:../Libraries/STM32F4xx_StdPeriph_Driver/src/stm32f4xx_exti.c ****       *(__IO uint32_t *) tmp |= EXTI_InitStruct->EXTI_Line;
 242              		.loc 1 158 7 view .LVU47
 243              	@ ../Libraries/STM32F4xx_StdPeriph_Driver/src/stm32f4xx_exti.c:156:       tmp += EXTI_InitStruct->E
 156:../Libraries/STM32F4xx_StdPeriph_Driver/src/stm32f4xx_exti.c ****       tmp += EXTI_InitStruct->EXTI_Trigger;
 244              		.loc 1 156 11 is_stmt 0 view .LVU48
 245 0042 01F18043 		add	r3, r1, #1073741824	@ tmp.2_25, _19,
 246 0046 03F59E33 		add	r3, r3, #80896	@ tmp.2_25, tmp.2_25,
 247              	@ ../Libraries/STM32F4xx_StdPeriph_Driver/src/stm32f4xx_exti.c:168: }
 159:../Libraries/STM32F4xx_StdPeriph_Driver/src/stm32f4xx_exti.c ****     }
 160:../Libraries/STM32F4xx_StdPeriph_Driver/src/stm32f4xx_exti.c ****   }
 161:../Libraries/STM32F4xx_StdPeriph_Driver/src/stm32f4xx_exti.c ****   else
 162:../Libraries/STM32F4xx_StdPeriph_Driver/src/stm32f4xx_exti.c ****   {
 163:../Libraries/STM32F4xx_StdPeriph_Driver/src/stm32f4xx_exti.c ****     tmp += EXTI_InitStruct->EXTI_Mode;
 164:../Libraries/STM32F4xx_StdPeriph_Driver/src/stm32f4xx_exti.c **** 
 165:../Libraries/STM32F4xx_StdPeriph_Driver/src/stm32f4xx_exti.c ****     /* Disable the selected external lines */
 166:../Libraries/STM32F4xx_StdPeriph_Driver/src/stm32f4xx_exti.c ****     *(__IO uint32_t *) tmp &= ~EXTI_InitStruct->EXTI_Line;
 167:../Libraries/STM32F4xx_StdPeriph_Driver/src/stm32f4xx_exti.c ****   }
 168:../Libraries/STM32F4xx_StdPeriph_Driver/src/stm32f4xx_exti.c **** }
 248              		.loc 1 168 1 view .LVU49
 249 004a 5DF8044B 		ldr	r4, [sp], #4	@,
 250              		.cfi_restore 4
 251              		.cfi_def_cfa_offset 0
 252              	@ ../Libraries/STM32F4xx_StdPeriph_Driver/src/stm32f4xx_exti.c:158:       *(__IO uint32_t *) tmp |=
 158:../Libraries/STM32F4xx_StdPeriph_Driver/src/stm32f4xx_exti.c ****     }
 253              		.loc 1 158 30 view .LVU50
 254 004e 1968     		ldr	r1, [r3]	@ _26, *tmp.2_25
 255              	.LVL5:
 158:../Libraries/STM32F4xx_StdPeriph_Driver/src/stm32f4xx_exti.c ****     }
 256              		.loc 1 158 30 view .LVU51
 257 0050 0A43     		orrs	r2, r2, r1	@, _27, _14, _26
 258 0052 1A60     		str	r2, [r3]	@ _27, *tmp.2_25
 259              	@ ../Libraries/STM32F4xx_StdPeriph_Driver/src/stm32f4xx_exti.c:168: }
 260              		.loc 1 168 1 view .LVU52
 261 0054 7047     		bx	lr	@
 262              	.LVL6:
 263              	.L6:
 163:../Libraries/STM32F4xx_StdPeriph_Driver/src/stm32f4xx_exti.c **** 
 264              		.loc 1 163 5 is_stmt 1 view .LVU53
 166:../Libraries/STM32F4xx_StdPeriph_Driver/src/stm32f4xx_exti.c ****   }
 265              		.loc 1 166 5 view .LVU54
 266              	@ ../Libraries/STM32F4xx_StdPeriph_Driver/src/stm32f4xx_exti.c:163:     tmp += EXTI_InitStruct->EXT
 163:../Libraries/STM32F4xx_StdPeriph_Driver/src/stm32f4xx_exti.c **** 
 267              		.loc 1 163 27 is_stmt 0 view .LVU55
 268 0056 0379     		ldrb	r3, [r0, #4]	@ zero_extendqisi2	@ EXTI_InitStruct_37(D)->EXTI_Mode, EXTI_InitStruct_37(D)->EX
 269              	@ ../Libraries/STM32F4xx_StdPeriph_Driver/src/stm32f4xx_exti.c:166:     *(__IO uint32_t *) tmp &= ~
 166:../Libraries/STM32F4xx_StdPeriph_Driver/src/stm32f4xx_exti.c ****   }
 270              		.loc 1 166 31 view .LVU56
 271 0058 0168     		ldr	r1, [r0]	@ EXTI_InitStruct_37(D)->EXTI_Line, EXTI_InitStruct_37(D)->EXTI_Line
ARM GAS  C:\Users\admin\AppData\Local\Temp\cctdxl0y.s 			page 9


 272              	@ ../Libraries/STM32F4xx_StdPeriph_Driver/src/stm32f4xx_exti.c:163:     tmp += EXTI_InitStruct->EXT
 163:../Libraries/STM32F4xx_StdPeriph_Driver/src/stm32f4xx_exti.c **** 
 273              		.loc 1 163 9 view .LVU57
 274 005a 03F18043 		add	r3, r3, #1073741824	@ tmp.4_30, EXTI_InitStruct_37(D)->EXTI_Mode,
 275 005e 03F59E33 		add	r3, r3, #80896	@ tmp.4_30, tmp.4_30,
 276              	@ ../Libraries/STM32F4xx_StdPeriph_Driver/src/stm32f4xx_exti.c:166:     *(__IO uint32_t *) tmp &= ~
 166:../Libraries/STM32F4xx_StdPeriph_Driver/src/stm32f4xx_exti.c ****   }
 277              		.loc 1 166 28 view .LVU58
 278 0062 1A68     		ldr	r2, [r3]	@ _31, *tmp.4_30
 279 0064 22EA0102 		bic	r2, r2, r1	@ _34, _31, EXTI_InitStruct_37(D)->EXTI_Line
 280 0068 1A60     		str	r2, [r3]	@ _34, *tmp.4_30
 281              	.LVL7:
 166:../Libraries/STM32F4xx_StdPeriph_Driver/src/stm32f4xx_exti.c ****   }
 282              		.loc 1 166 28 view .LVU59
 283 006a 7047     		bx	lr	@
 284              	.LVL8:
 285              	.L13:
 286              		.cfi_def_cfa_offset 4
 287              		.cfi_offset 4, -4
 150:../Libraries/STM32F4xx_StdPeriph_Driver/src/stm32f4xx_exti.c ****       EXTI->FTSR |= EXTI_InitStruct->EXTI_Line;
 288              		.loc 1 150 7 is_stmt 1 view .LVU60
 289              	@ ../Libraries/STM32F4xx_StdPeriph_Driver/src/stm32f4xx_exti.c:150:       EXTI->RTSR |= EXTI_InitSt
 150:../Libraries/STM32F4xx_StdPeriph_Driver/src/stm32f4xx_exti.c ****       EXTI->FTSR |= EXTI_InitStruct->EXTI_Line;
 290              		.loc 1 150 18 is_stmt 0 view .LVU61
 291 006c 9968     		ldr	r1, [r3, #8]	@ _20, MEM[(struct EXTI_TypeDef *)1073822720B].RTSR
 292              	@ ../Libraries/STM32F4xx_StdPeriph_Driver/src/stm32f4xx_exti.c:168: }
 293              		.loc 1 168 1 view .LVU62
 294 006e 5DF8044B 		ldr	r4, [sp], #4	@,
 295              		.cfi_restore 4
 296              		.cfi_def_cfa_offset 0
 297              	@ ../Libraries/STM32F4xx_StdPeriph_Driver/src/stm32f4xx_exti.c:150:       EXTI->RTSR |= EXTI_InitSt
 150:../Libraries/STM32F4xx_StdPeriph_Driver/src/stm32f4xx_exti.c ****       EXTI->FTSR |= EXTI_InitStruct->EXTI_Line;
 298              		.loc 1 150 18 view .LVU63
 299 0072 1143     		orrs	r1, r1, r2	@, _21, _20, _14
 300 0074 9960     		str	r1, [r3, #8]	@ _21, MEM[(struct EXTI_TypeDef *)1073822720B].RTSR
 151:../Libraries/STM32F4xx_StdPeriph_Driver/src/stm32f4xx_exti.c ****     }
 301              		.loc 1 151 7 is_stmt 1 view .LVU64
 302              	@ ../Libraries/STM32F4xx_StdPeriph_Driver/src/stm32f4xx_exti.c:151:       EXTI->FTSR |= EXTI_InitSt
 151:../Libraries/STM32F4xx_StdPeriph_Driver/src/stm32f4xx_exti.c ****     }
 303              		.loc 1 151 18 is_stmt 0 view .LVU65
 304 0076 D968     		ldr	r1, [r3, #12]	@ _22, MEM[(struct EXTI_TypeDef *)1073822720B].FTSR
 305 0078 0A43     		orrs	r2, r2, r1	@, _23, _14, _22
 306 007a DA60     		str	r2, [r3, #12]	@ _23, MEM[(struct EXTI_TypeDef *)1073822720B].FTSR
 307              	@ ../Libraries/STM32F4xx_StdPeriph_Driver/src/stm32f4xx_exti.c:168: }
 308              		.loc 1 168 1 view .LVU66
 309 007c 7047     		bx	lr	@
 310              	.L15:
 311 007e 00BF     		.align	2
 312              	.L14:
 313 0080 003C0140 		.word	1073822720
 314              		.cfi_endproc
 315              	.LFE111:
 316              		.size	EXTI_Init, .-EXTI_Init
 317              		.section	.text.EXTI_StructInit,"ax",%progbits
 318              		.align	1
 319              		.p2align 2,,3
 320              		.global	EXTI_StructInit
ARM GAS  C:\Users\admin\AppData\Local\Temp\cctdxl0y.s 			page 10


 321              		.syntax unified
 322              		.thumb
 323              		.thumb_func
 324              		.type	EXTI_StructInit, %function
 325              	EXTI_StructInit:
 326              	.LVL9:
 327              	.LFB112:
 169:../Libraries/STM32F4xx_StdPeriph_Driver/src/stm32f4xx_exti.c **** 
 170:../Libraries/STM32F4xx_StdPeriph_Driver/src/stm32f4xx_exti.c **** /**
 171:../Libraries/STM32F4xx_StdPeriph_Driver/src/stm32f4xx_exti.c ****   * @brief  Fills each EXTI_InitStruct member with its reset value.
 172:../Libraries/STM32F4xx_StdPeriph_Driver/src/stm32f4xx_exti.c ****   * @param  EXTI_InitStruct: pointer to a EXTI_InitTypeDef structure which will
 173:../Libraries/STM32F4xx_StdPeriph_Driver/src/stm32f4xx_exti.c ****   *         be initialized.
 174:../Libraries/STM32F4xx_StdPeriph_Driver/src/stm32f4xx_exti.c ****   * @retval None
 175:../Libraries/STM32F4xx_StdPeriph_Driver/src/stm32f4xx_exti.c ****   */
 176:../Libraries/STM32F4xx_StdPeriph_Driver/src/stm32f4xx_exti.c **** void EXTI_StructInit(EXTI_InitTypeDef* EXTI_InitStruct)
 177:../Libraries/STM32F4xx_StdPeriph_Driver/src/stm32f4xx_exti.c **** {
 328              		.loc 1 177 1 is_stmt 1 view -0
 329              		.cfi_startproc
 330              		@ args = 0, pretend = 0, frame = 0
 331              		@ frame_needed = 0, uses_anonymous_args = 0
 332              		@ link register save eliminated.
 178:../Libraries/STM32F4xx_StdPeriph_Driver/src/stm32f4xx_exti.c ****   EXTI_InitStruct->EXTI_Line = EXTI_LINENONE;
 333              		.loc 1 178 3 view .LVU68
 334              	@ ../Libraries/STM32F4xx_StdPeriph_Driver/src/stm32f4xx_exti.c:178:   EXTI_InitStruct->EXTI_Line = 
 335              		.loc 1 178 30 is_stmt 0 view .LVU69
 336 0000 0023     		movs	r3, #0	@ tmp114,
 337              	@ ../Libraries/STM32F4xx_StdPeriph_Driver/src/stm32f4xx_exti.c:179:   EXTI_InitStruct->EXTI_Mode = 
 179:../Libraries/STM32F4xx_StdPeriph_Driver/src/stm32f4xx_exti.c ****   EXTI_InitStruct->EXTI_Mode = EXTI_Mode_Interrupt;
 338              		.loc 1 179 30 view .LVU70
 339 0002 4FF44062 		mov	r2, #3072	@ tmp116,
 340              	@ ../Libraries/STM32F4xx_StdPeriph_Driver/src/stm32f4xx_exti.c:178:   EXTI_InitStruct->EXTI_Line = 
 178:../Libraries/STM32F4xx_StdPeriph_Driver/src/stm32f4xx_exti.c ****   EXTI_InitStruct->EXTI_Line = EXTI_LINENONE;
 341              		.loc 1 178 30 view .LVU71
 342 0006 0360     		str	r3, [r0]	@ tmp114, EXTI_InitStruct_2(D)->EXTI_Line
 343              		.loc 1 179 3 is_stmt 1 view .LVU72
 180:../Libraries/STM32F4xx_StdPeriph_Driver/src/stm32f4xx_exti.c ****   EXTI_InitStruct->EXTI_Trigger = EXTI_Trigger_Falling;
 344              		.loc 1 180 3 view .LVU73
 345              	@ ../Libraries/STM32F4xx_StdPeriph_Driver/src/stm32f4xx_exti.c:179:   EXTI_InitStruct->EXTI_Mode = 
 179:../Libraries/STM32F4xx_StdPeriph_Driver/src/stm32f4xx_exti.c ****   EXTI_InitStruct->EXTI_Mode = EXTI_Mode_Interrupt;
 346              		.loc 1 179 30 is_stmt 0 view .LVU74
 347 0008 8280     		strh	r2, [r0, #4]	@ movhi	@ tmp116, MEM <vector(2) unsigned char> [(<unnamed type> *)EXTI_InitStru
 181:../Libraries/STM32F4xx_StdPeriph_Driver/src/stm32f4xx_exti.c ****   EXTI_InitStruct->EXTI_LineCmd = DISABLE;
 348              		.loc 1 181 3 is_stmt 1 view .LVU75
 349              	@ ../Libraries/STM32F4xx_StdPeriph_Driver/src/stm32f4xx_exti.c:181:   EXTI_InitStruct->EXTI_LineCmd
 350              		.loc 1 181 33 is_stmt 0 view .LVU76
 351 000a 8371     		strb	r3, [r0, #6]	@ tmp114, EXTI_InitStruct_2(D)->EXTI_LineCmd
 352              	@ ../Libraries/STM32F4xx_StdPeriph_Driver/src/stm32f4xx_exti.c:182: }
 182:../Libraries/STM32F4xx_StdPeriph_Driver/src/stm32f4xx_exti.c **** }
 353              		.loc 1 182 1 view .LVU77
 354 000c 7047     		bx	lr	@
 355              		.cfi_endproc
 356              	.LFE112:
 357              		.size	EXTI_StructInit, .-EXTI_StructInit
 358 000e 00BF     		.section	.text.EXTI_GenerateSWInterrupt,"ax",%progbits
 359              		.align	1
 360              		.p2align 2,,3
 361              		.global	EXTI_GenerateSWInterrupt
ARM GAS  C:\Users\admin\AppData\Local\Temp\cctdxl0y.s 			page 11


 362              		.syntax unified
 363              		.thumb
 364              		.thumb_func
 365              		.type	EXTI_GenerateSWInterrupt, %function
 366              	EXTI_GenerateSWInterrupt:
 367              	.LVL10:
 368              	.LFB113:
 183:../Libraries/STM32F4xx_StdPeriph_Driver/src/stm32f4xx_exti.c **** 
 184:../Libraries/STM32F4xx_StdPeriph_Driver/src/stm32f4xx_exti.c **** /**
 185:../Libraries/STM32F4xx_StdPeriph_Driver/src/stm32f4xx_exti.c ****   * @brief  Generates a Software interrupt on selected EXTI line.
 186:../Libraries/STM32F4xx_StdPeriph_Driver/src/stm32f4xx_exti.c ****   * @param  EXTI_Line: specifies the EXTI line on which the software interrupt
 187:../Libraries/STM32F4xx_StdPeriph_Driver/src/stm32f4xx_exti.c ****   *         will be generated.
 188:../Libraries/STM32F4xx_StdPeriph_Driver/src/stm32f4xx_exti.c ****   *         This parameter can be any combination of EXTI_Linex where x can be (0..22)
 189:../Libraries/STM32F4xx_StdPeriph_Driver/src/stm32f4xx_exti.c ****   * @retval None
 190:../Libraries/STM32F4xx_StdPeriph_Driver/src/stm32f4xx_exti.c ****   */
 191:../Libraries/STM32F4xx_StdPeriph_Driver/src/stm32f4xx_exti.c **** void EXTI_GenerateSWInterrupt(uint32_t EXTI_Line)
 192:../Libraries/STM32F4xx_StdPeriph_Driver/src/stm32f4xx_exti.c **** {
 369              		.loc 1 192 1 is_stmt 1 view -0
 370              		.cfi_startproc
 371              		@ args = 0, pretend = 0, frame = 0
 372              		@ frame_needed = 0, uses_anonymous_args = 0
 373              		@ link register save eliminated.
 193:../Libraries/STM32F4xx_StdPeriph_Driver/src/stm32f4xx_exti.c ****   /* Check the parameters */
 194:../Libraries/STM32F4xx_StdPeriph_Driver/src/stm32f4xx_exti.c ****   assert_param(IS_EXTI_LINE(EXTI_Line));
 374              		.loc 1 194 3 view .LVU79
 195:../Libraries/STM32F4xx_StdPeriph_Driver/src/stm32f4xx_exti.c ****   
 196:../Libraries/STM32F4xx_StdPeriph_Driver/src/stm32f4xx_exti.c ****   EXTI->SWIER |= EXTI_Line;
 375              		.loc 1 196 3 view .LVU80
 376              	@ ../Libraries/STM32F4xx_StdPeriph_Driver/src/stm32f4xx_exti.c:196:   EXTI->SWIER |= EXTI_Line;
 377              		.loc 1 196 15 is_stmt 0 view .LVU81
 378 0000 024A     		ldr	r2, .L18	@ tmp116,
 379 0002 1369     		ldr	r3, [r2, #16]	@ _1, MEM[(struct EXTI_TypeDef *)1073822720B].SWIER
 380 0004 1843     		orrs	r0, r0, r3	@, _2, tmp118, _1
 381              	.LVL11:
 382              		.loc 1 196 15 view .LVU82
 383 0006 1061     		str	r0, [r2, #16]	@ _2, MEM[(struct EXTI_TypeDef *)1073822720B].SWIER
 384              	@ ../Libraries/STM32F4xx_StdPeriph_Driver/src/stm32f4xx_exti.c:197: }
 197:../Libraries/STM32F4xx_StdPeriph_Driver/src/stm32f4xx_exti.c **** }
 385              		.loc 1 197 1 view .LVU83
 386 0008 7047     		bx	lr	@
 387              	.L19:
 388 000a 00BF     		.align	2
 389              	.L18:
 390 000c 003C0140 		.word	1073822720
 391              		.cfi_endproc
 392              	.LFE113:
 393              		.size	EXTI_GenerateSWInterrupt, .-EXTI_GenerateSWInterrupt
 394              		.section	.text.EXTI_GetFlagStatus,"ax",%progbits
 395              		.align	1
 396              		.p2align 2,,3
 397              		.global	EXTI_GetFlagStatus
 398              		.syntax unified
 399              		.thumb
 400              		.thumb_func
 401              		.type	EXTI_GetFlagStatus, %function
 402              	EXTI_GetFlagStatus:
 403              	.LVL12:
ARM GAS  C:\Users\admin\AppData\Local\Temp\cctdxl0y.s 			page 12


 404              	.LFB114:
 198:../Libraries/STM32F4xx_StdPeriph_Driver/src/stm32f4xx_exti.c **** 
 199:../Libraries/STM32F4xx_StdPeriph_Driver/src/stm32f4xx_exti.c **** /**
 200:../Libraries/STM32F4xx_StdPeriph_Driver/src/stm32f4xx_exti.c ****   * @}
 201:../Libraries/STM32F4xx_StdPeriph_Driver/src/stm32f4xx_exti.c ****   */
 202:../Libraries/STM32F4xx_StdPeriph_Driver/src/stm32f4xx_exti.c **** 
 203:../Libraries/STM32F4xx_StdPeriph_Driver/src/stm32f4xx_exti.c **** /** @defgroup EXTI_Group2 Interrupts and flags management functions
 204:../Libraries/STM32F4xx_StdPeriph_Driver/src/stm32f4xx_exti.c ****  *  @brief   Interrupts and flags management functions 
 205:../Libraries/STM32F4xx_StdPeriph_Driver/src/stm32f4xx_exti.c ****  *
 206:../Libraries/STM32F4xx_StdPeriph_Driver/src/stm32f4xx_exti.c **** @verbatim   
 207:../Libraries/STM32F4xx_StdPeriph_Driver/src/stm32f4xx_exti.c ****  ===============================================================================
 208:../Libraries/STM32F4xx_StdPeriph_Driver/src/stm32f4xx_exti.c ****                   Interrupts and flags management functions
 209:../Libraries/STM32F4xx_StdPeriph_Driver/src/stm32f4xx_exti.c ****  ===============================================================================  
 210:../Libraries/STM32F4xx_StdPeriph_Driver/src/stm32f4xx_exti.c **** 
 211:../Libraries/STM32F4xx_StdPeriph_Driver/src/stm32f4xx_exti.c **** @endverbatim
 212:../Libraries/STM32F4xx_StdPeriph_Driver/src/stm32f4xx_exti.c ****   * @{
 213:../Libraries/STM32F4xx_StdPeriph_Driver/src/stm32f4xx_exti.c ****   */
 214:../Libraries/STM32F4xx_StdPeriph_Driver/src/stm32f4xx_exti.c **** 
 215:../Libraries/STM32F4xx_StdPeriph_Driver/src/stm32f4xx_exti.c **** /**
 216:../Libraries/STM32F4xx_StdPeriph_Driver/src/stm32f4xx_exti.c ****   * @brief  Checks whether the specified EXTI line flag is set or not.
 217:../Libraries/STM32F4xx_StdPeriph_Driver/src/stm32f4xx_exti.c ****   * @param  EXTI_Line: specifies the EXTI line flag to check.
 218:../Libraries/STM32F4xx_StdPeriph_Driver/src/stm32f4xx_exti.c ****   *          This parameter can be EXTI_Linex where x can be(0..22)
 219:../Libraries/STM32F4xx_StdPeriph_Driver/src/stm32f4xx_exti.c ****   * @retval The new state of EXTI_Line (SET or RESET).
 220:../Libraries/STM32F4xx_StdPeriph_Driver/src/stm32f4xx_exti.c ****   */
 221:../Libraries/STM32F4xx_StdPeriph_Driver/src/stm32f4xx_exti.c **** FlagStatus EXTI_GetFlagStatus(uint32_t EXTI_Line)
 222:../Libraries/STM32F4xx_StdPeriph_Driver/src/stm32f4xx_exti.c **** {
 405              		.loc 1 222 1 is_stmt 1 view -0
 406              		.cfi_startproc
 407              		@ args = 0, pretend = 0, frame = 0
 408              		@ frame_needed = 0, uses_anonymous_args = 0
 409              		@ link register save eliminated.
 223:../Libraries/STM32F4xx_StdPeriph_Driver/src/stm32f4xx_exti.c ****   FlagStatus bitstatus = RESET;
 410              		.loc 1 223 3 view .LVU85
 224:../Libraries/STM32F4xx_StdPeriph_Driver/src/stm32f4xx_exti.c ****   /* Check the parameters */
 225:../Libraries/STM32F4xx_StdPeriph_Driver/src/stm32f4xx_exti.c ****   assert_param(IS_GET_EXTI_LINE(EXTI_Line));
 411              		.loc 1 225 3 view .LVU86
 226:../Libraries/STM32F4xx_StdPeriph_Driver/src/stm32f4xx_exti.c ****   
 227:../Libraries/STM32F4xx_StdPeriph_Driver/src/stm32f4xx_exti.c ****   if ((EXTI->PR & EXTI_Line) != (uint32_t)RESET)
 412              		.loc 1 227 3 view .LVU87
 413              	@ ../Libraries/STM32F4xx_StdPeriph_Driver/src/stm32f4xx_exti.c:227:   if ((EXTI->PR & EXTI_Line) !=
 414              		.loc 1 227 12 is_stmt 0 view .LVU88
 415 0000 034B     		ldr	r3, .L21	@ tmp118,
 416 0002 5B69     		ldr	r3, [r3, #20]	@ _1, MEM[(struct EXTI_TypeDef *)1073822720B].PR
 417              	.LVL13:
 228:../Libraries/STM32F4xx_StdPeriph_Driver/src/stm32f4xx_exti.c ****   {
 229:../Libraries/STM32F4xx_StdPeriph_Driver/src/stm32f4xx_exti.c ****     bitstatus = SET;
 230:../Libraries/STM32F4xx_StdPeriph_Driver/src/stm32f4xx_exti.c ****   }
 231:../Libraries/STM32F4xx_StdPeriph_Driver/src/stm32f4xx_exti.c ****   else
 232:../Libraries/STM32F4xx_StdPeriph_Driver/src/stm32f4xx_exti.c ****   {
 233:../Libraries/STM32F4xx_StdPeriph_Driver/src/stm32f4xx_exti.c ****     bitstatus = RESET;
 234:../Libraries/STM32F4xx_StdPeriph_Driver/src/stm32f4xx_exti.c ****   }
 235:../Libraries/STM32F4xx_StdPeriph_Driver/src/stm32f4xx_exti.c ****   return bitstatus;
 418              		.loc 1 235 3 is_stmt 1 view .LVU89
 419              	@ ../Libraries/STM32F4xx_StdPeriph_Driver/src/stm32f4xx_exti.c:227:   if ((EXTI->PR & EXTI_Line) !=
 227:../Libraries/STM32F4xx_StdPeriph_Driver/src/stm32f4xx_exti.c ****   {
 420              		.loc 1 227 6 is_stmt 0 view .LVU90
 421 0004 0342     		tst	r3, r0	@ _1, tmp123
ARM GAS  C:\Users\admin\AppData\Local\Temp\cctdxl0y.s 			page 13


 422              	@ ../Libraries/STM32F4xx_StdPeriph_Driver/src/stm32f4xx_exti.c:236: }
 236:../Libraries/STM32F4xx_StdPeriph_Driver/src/stm32f4xx_exti.c **** }
 423              		.loc 1 236 1 view .LVU91
 424 0006 14BF     		ite	ne
 425 0008 0120     		movne	r0, #1	@,
 426              	.LVL14:
 427              		.loc 1 236 1 view .LVU92
 428 000a 0020     		moveq	r0, #0	@,
 429 000c 7047     		bx	lr	@
 430              	.L22:
 431 000e 00BF     		.align	2
 432              	.L21:
 433 0010 003C0140 		.word	1073822720
 434              		.cfi_endproc
 435              	.LFE114:
 436              		.size	EXTI_GetFlagStatus, .-EXTI_GetFlagStatus
 437              		.section	.text.EXTI_ClearFlag,"ax",%progbits
 438              		.align	1
 439              		.p2align 2,,3
 440              		.global	EXTI_ClearFlag
 441              		.syntax unified
 442              		.thumb
 443              		.thumb_func
 444              		.type	EXTI_ClearFlag, %function
 445              	EXTI_ClearFlag:
 446              	.LVL15:
 447              	.LFB115:
 237:../Libraries/STM32F4xx_StdPeriph_Driver/src/stm32f4xx_exti.c **** 
 238:../Libraries/STM32F4xx_StdPeriph_Driver/src/stm32f4xx_exti.c **** /**
 239:../Libraries/STM32F4xx_StdPeriph_Driver/src/stm32f4xx_exti.c ****   * @brief  Clears the EXTI's line pending flags.
 240:../Libraries/STM32F4xx_StdPeriph_Driver/src/stm32f4xx_exti.c ****   * @param  EXTI_Line: specifies the EXTI lines flags to clear.
 241:../Libraries/STM32F4xx_StdPeriph_Driver/src/stm32f4xx_exti.c ****   *          This parameter can be any combination of EXTI_Linex where x can be (0..22)
 242:../Libraries/STM32F4xx_StdPeriph_Driver/src/stm32f4xx_exti.c ****   * @retval None
 243:../Libraries/STM32F4xx_StdPeriph_Driver/src/stm32f4xx_exti.c ****   */
 244:../Libraries/STM32F4xx_StdPeriph_Driver/src/stm32f4xx_exti.c **** void EXTI_ClearFlag(uint32_t EXTI_Line)
 245:../Libraries/STM32F4xx_StdPeriph_Driver/src/stm32f4xx_exti.c **** {
 448              		.loc 1 245 1 is_stmt 1 view -0
 449              		.cfi_startproc
 450              		@ args = 0, pretend = 0, frame = 0
 451              		@ frame_needed = 0, uses_anonymous_args = 0
 452              		@ link register save eliminated.
 246:../Libraries/STM32F4xx_StdPeriph_Driver/src/stm32f4xx_exti.c ****   /* Check the parameters */
 247:../Libraries/STM32F4xx_StdPeriph_Driver/src/stm32f4xx_exti.c ****   assert_param(IS_EXTI_LINE(EXTI_Line));
 453              		.loc 1 247 3 view .LVU94
 248:../Libraries/STM32F4xx_StdPeriph_Driver/src/stm32f4xx_exti.c ****   
 249:../Libraries/STM32F4xx_StdPeriph_Driver/src/stm32f4xx_exti.c ****   EXTI->PR = EXTI_Line;
 454              		.loc 1 249 3 view .LVU95
 455              	@ ../Libraries/STM32F4xx_StdPeriph_Driver/src/stm32f4xx_exti.c:249:   EXTI->PR = EXTI_Line;
 456              		.loc 1 249 12 is_stmt 0 view .LVU96
 457 0000 014B     		ldr	r3, .L24	@ tmp114,
 458 0002 5861     		str	r0, [r3, #20]	@ EXTI_Line, MEM[(struct EXTI_TypeDef *)1073822720B].PR
 459              	@ ../Libraries/STM32F4xx_StdPeriph_Driver/src/stm32f4xx_exti.c:250: }
 250:../Libraries/STM32F4xx_StdPeriph_Driver/src/stm32f4xx_exti.c **** }
 460              		.loc 1 250 1 view .LVU97
 461 0004 7047     		bx	lr	@
 462              	.L25:
 463 0006 00BF     		.align	2
ARM GAS  C:\Users\admin\AppData\Local\Temp\cctdxl0y.s 			page 14


 464              	.L24:
 465 0008 003C0140 		.word	1073822720
 466              		.cfi_endproc
 467              	.LFE115:
 468              		.size	EXTI_ClearFlag, .-EXTI_ClearFlag
 469              		.section	.text.EXTI_GetITStatus,"ax",%progbits
 470              		.align	1
 471              		.p2align 2,,3
 472              		.global	EXTI_GetITStatus
 473              		.syntax unified
 474              		.thumb
 475              		.thumb_func
 476              		.type	EXTI_GetITStatus, %function
 477              	EXTI_GetITStatus:
 478              	.LVL16:
 479              	.LFB116:
 251:../Libraries/STM32F4xx_StdPeriph_Driver/src/stm32f4xx_exti.c **** 
 252:../Libraries/STM32F4xx_StdPeriph_Driver/src/stm32f4xx_exti.c **** /**
 253:../Libraries/STM32F4xx_StdPeriph_Driver/src/stm32f4xx_exti.c ****   * @brief  Checks whether the specified EXTI line is asserted or not.
 254:../Libraries/STM32F4xx_StdPeriph_Driver/src/stm32f4xx_exti.c ****   * @param  EXTI_Line: specifies the EXTI line to check.
 255:../Libraries/STM32F4xx_StdPeriph_Driver/src/stm32f4xx_exti.c ****   *          This parameter can be EXTI_Linex where x can be(0..22)
 256:../Libraries/STM32F4xx_StdPeriph_Driver/src/stm32f4xx_exti.c ****   * @retval The new state of EXTI_Line (SET or RESET).
 257:../Libraries/STM32F4xx_StdPeriph_Driver/src/stm32f4xx_exti.c ****   */
 258:../Libraries/STM32F4xx_StdPeriph_Driver/src/stm32f4xx_exti.c **** ITStatus EXTI_GetITStatus(uint32_t EXTI_Line)
 259:../Libraries/STM32F4xx_StdPeriph_Driver/src/stm32f4xx_exti.c **** {
 480              		.loc 1 259 1 is_stmt 1 view -0
 481              		.cfi_startproc
 482              		@ args = 0, pretend = 0, frame = 0
 483              		@ frame_needed = 0, uses_anonymous_args = 0
 484              		@ link register save eliminated.
 260:../Libraries/STM32F4xx_StdPeriph_Driver/src/stm32f4xx_exti.c ****   ITStatus bitstatus = RESET;
 485              		.loc 1 260 3 view .LVU99
 261:../Libraries/STM32F4xx_StdPeriph_Driver/src/stm32f4xx_exti.c ****   uint32_t enablestatus = 0;
 486              		.loc 1 261 3 view .LVU100
 262:../Libraries/STM32F4xx_StdPeriph_Driver/src/stm32f4xx_exti.c ****   /* Check the parameters */
 263:../Libraries/STM32F4xx_StdPeriph_Driver/src/stm32f4xx_exti.c ****   assert_param(IS_GET_EXTI_LINE(EXTI_Line));
 487              		.loc 1 263 3 view .LVU101
 264:../Libraries/STM32F4xx_StdPeriph_Driver/src/stm32f4xx_exti.c ****   
 265:../Libraries/STM32F4xx_StdPeriph_Driver/src/stm32f4xx_exti.c ****   enablestatus =  EXTI->IMR & EXTI_Line;
 488              		.loc 1 265 3 view .LVU102
 489              	@ ../Libraries/STM32F4xx_StdPeriph_Driver/src/stm32f4xx_exti.c:265:   enablestatus =  EXTI->IMR & E
 490              		.loc 1 265 23 is_stmt 0 view .LVU103
 491 0000 054B     		ldr	r3, .L29	@ tmp120,
 492 0002 1A68     		ldr	r2, [r3]	@ _1, MEM[(struct EXTI_TypeDef *)1073822720B].IMR
 493              	@ ../Libraries/STM32F4xx_StdPeriph_Driver/src/stm32f4xx_exti.c:266:   if (((EXTI->PR & EXTI_Line) !
 266:../Libraries/STM32F4xx_StdPeriph_Driver/src/stm32f4xx_exti.c ****   if (((EXTI->PR & EXTI_Line) != (uint32_t)RESET) && (enablestatus != (uint32_t)RESET))
 494              		.loc 1 266 13 view .LVU104
 495 0004 5B69     		ldr	r3, [r3, #20]	@ _2, MEM[(struct EXTI_TypeDef *)1073822720B].PR
 496              	.LVL17:
 497              		.loc 1 266 3 is_stmt 1 view .LVU105
 498              	@ ../Libraries/STM32F4xx_StdPeriph_Driver/src/stm32f4xx_exti.c:266:   if (((EXTI->PR & EXTI_Line) !
 499              		.loc 1 266 6 is_stmt 0 view .LVU106
 500 0006 0340     		ands	r3, r3, r0	@ tmp122, _2, EXTI_Line
 501 0008 04D0     		beq	.L28		@,
 502              	@ ../Libraries/STM32F4xx_StdPeriph_Driver/src/stm32f4xx_exti.c:266:   if (((EXTI->PR & EXTI_Line) !
 503              		.loc 1 266 51 discriminator 1 view .LVU107
 504 000a 0242     		tst	r2, r0	@ _1, EXTI_Line
ARM GAS  C:\Users\admin\AppData\Local\Temp\cctdxl0y.s 			page 15


 505              	@ ../Libraries/STM32F4xx_StdPeriph_Driver/src/stm32f4xx_exti.c:272:     bitstatus = RESET;
 267:../Libraries/STM32F4xx_StdPeriph_Driver/src/stm32f4xx_exti.c ****   {
 268:../Libraries/STM32F4xx_StdPeriph_Driver/src/stm32f4xx_exti.c ****     bitstatus = SET;
 269:../Libraries/STM32F4xx_StdPeriph_Driver/src/stm32f4xx_exti.c ****   }
 270:../Libraries/STM32F4xx_StdPeriph_Driver/src/stm32f4xx_exti.c ****   else
 271:../Libraries/STM32F4xx_StdPeriph_Driver/src/stm32f4xx_exti.c ****   {
 272:../Libraries/STM32F4xx_StdPeriph_Driver/src/stm32f4xx_exti.c ****     bitstatus = RESET;
 506              		.loc 1 272 15 discriminator 1 view .LVU108
 507 000c 14BF     		ite	ne
 508 000e 0120     		movne	r0, #1	@ <retval>,
 509              	.LVL18:
 510              		.loc 1 272 15 discriminator 1 view .LVU109
 511 0010 0020     		moveq	r0, #0	@ <retval>,
 512 0012 7047     		bx	lr	@
 513              	.LVL19:
 514              	.L28:
 515              	@ ../Libraries/STM32F4xx_StdPeriph_Driver/src/stm32f4xx_exti.c:272:     bitstatus = RESET;
 516              		.loc 1 272 15 view .LVU110
 517 0014 1846     		mov	r0, r3	@ <retval>, tmp122
 518              	.LVL20:
 273:../Libraries/STM32F4xx_StdPeriph_Driver/src/stm32f4xx_exti.c ****   }
 274:../Libraries/STM32F4xx_StdPeriph_Driver/src/stm32f4xx_exti.c ****   return bitstatus;
 519              		.loc 1 274 3 is_stmt 1 view .LVU111
 520              	@ ../Libraries/STM32F4xx_StdPeriph_Driver/src/stm32f4xx_exti.c:275: }
 275:../Libraries/STM32F4xx_StdPeriph_Driver/src/stm32f4xx_exti.c **** }
 521              		.loc 1 275 1 is_stmt 0 view .LVU112
 522 0016 7047     		bx	lr	@
 523              	.L30:
 524              		.align	2
 525              	.L29:
 526 0018 003C0140 		.word	1073822720
 527              		.cfi_endproc
 528              	.LFE116:
 529              		.size	EXTI_GetITStatus, .-EXTI_GetITStatus
 530              		.section	.text.EXTI_ClearITPendingBit,"ax",%progbits
 531              		.align	1
 532              		.p2align 2,,3
 533              		.global	EXTI_ClearITPendingBit
 534              		.syntax unified
 535              		.thumb
 536              		.thumb_func
 537              		.type	EXTI_ClearITPendingBit, %function
 538              	EXTI_ClearITPendingBit:
 539              	.LFB119:
 540              		.cfi_startproc
 541              		@ args = 0, pretend = 0, frame = 0
 542              		@ frame_needed = 0, uses_anonymous_args = 0
 543              		@ link register save eliminated.
 544 0000 014B     		ldr	r3, .L32	@ tmp114,
 545 0002 5861     		str	r0, [r3, #20]	@ EXTI_Line, MEM[(struct EXTI_TypeDef *)1073822720B].PR
 546 0004 7047     		bx	lr	@
 547              	.L33:
 548 0006 00BF     		.align	2
 549              	.L32:
 550 0008 003C0140 		.word	1073822720
 551              		.cfi_endproc
 552              	.LFE119:
ARM GAS  C:\Users\admin\AppData\Local\Temp\cctdxl0y.s 			page 16


 553              		.size	EXTI_ClearITPendingBit, .-EXTI_ClearITPendingBit
 554              		.text
 555              	.Letext0:
 556              		.file 2 "c:\\program files (x86)\\gnu arm embedded toolchain\\10 2021.10\\arm-none-eabi\\include\\
 557              		.file 3 "c:\\program files (x86)\\gnu arm embedded toolchain\\10 2021.10\\arm-none-eabi\\include\\
 558              		.file 4 "../Libraries/CMSIS/ST/STM32F4xx/Include/stm32f4xx.h"
 559              		.file 5 "../Libraries/STM32F4xx_StdPeriph_Driver/inc/stm32f4xx_exti.h"