ARM GAS  C:\Users\admin\AppData\Local\Temp\ccXiJXN4.s 			page 1


   1              		.cpu cortex-m4
   2              		.arch armv7e-m
   3              		.fpu fpv4-sp-d16
   4              		.eabi_attribute 27, 1	@ Tag_ABI_HardFP_use
   5              		.eabi_attribute 28, 1	@ Tag_ABI_VFP_args
   6              		.eabi_attribute 23, 1	@ Tag_ABI_FP_number_model
   7              		.eabi_attribute 24, 1	@ Tag_ABI_align8_needed
   8              		.eabi_attribute 25, 1	@ Tag_ABI_align8_preserved
   9              		.eabi_attribute 26, 1	@ Tag_ABI_enum_size
  10              		.eabi_attribute 30, 2	@ Tag_ABI_optimization_goals
  11              		.eabi_attribute 34, 1	@ Tag_CPU_unaligned_access
  12              		.eabi_attribute 18, 4	@ Tag_ABI_PCS_wchar_t
  13              		.file	"stm32f4xx_syscfg.c"
  14              	@ GNU C89 (GNU Arm Embedded Toolchain 10.3-2021.10) version 10.3.1 20210824 (release) (arm-none-eab
  15              	@	compiled by GNU C version 7.3-win32 20180312, GMP version 6.1.0, MPFR version 3.1.4, MPC version 
  16              	
  17              	@ GGC heuristics: --param ggc-min-expand=100 --param ggc-min-heapsize=131072
  18              	@ options passed:  -I . -I . -I ../Utilities/STM32F4-Discovery/
  19              	@ -I ../Libraries/STM32_USB_Device_Library/Class/audio/inc/
  20              	@ -I ../Libraries/STM32_USB_Device_Library/Core/inc/
  21              	@ -I ../Libraries/STM32_USB_OTG_Driver/inc/
  22              	@ -I ../Utilities/STM32F4-Discovery/
  23              	@ -I ../Libraries/STM32F4xx_StdPeriph_Driver/inc/
  24              	@ -I ../Utilities/STM32F4-Discovery/
  25              	@ -I ../Libraries/CMSIS/ST/STM32F4xx/Include/
  26              	@ -I ../Libraries/CMSIS/Include/ -imultilib thumb/v7e-m+fp/hard
  27              	@ -iprefix c:\program files (x86)\gnu arm embedded toolchain\10 2021.10\bin\../lib/gcc/arm-none-eab
  28              	@ -isysroot c:\program files (x86)\gnu arm embedded toolchain\10 2021.10\bin\../arm-none-eabi
  29              	@ -MD out/stm32f4xx_syscfg.d -MF out/stm32f4xx_syscfg.d -MP
  30              	@ -MQ out/stm32f4xx_syscfg.o -D__USES_INITFINI__ -D STM32F4XX -D __VFP_FP__
  31              	@ -D USE_USB_OTG_FS
  32              	@ ../Libraries/STM32F4xx_StdPeriph_Driver/src/stm32f4xx_syscfg.c
  33              	@ -mcpu=cortex-m4 -mthumb -mfloat-abi=hard -mfpu=fpv4-sp-d16
  34              	@ -mlibarch=armv7e-m+fp -march=armv7e-m+fp
  35              	@ -auxbase-strip out/stm32f4xx_syscfg.o -g -ggdb3 -O3 -Wall
  36              	@ -Wstrict-prototypes -Wextra -std=gnu90 -ffast-math -ffunction-sections
  37              	@ -fdata-sections -fverbose-asm
  38              	@ options enabled:  -faggressive-loop-optimizations -falign-functions
  39              	@ -falign-jumps -falign-labels -falign-loops -fallocation-dce
  40              	@ -fassociative-math -fauto-inc-dec -fbranch-count-reg -fcaller-saves
  41              	@ -fcombine-stack-adjustments -fcompare-elim -fcprop-registers
  42              	@ -fcrossjumping -fcse-follow-jumps -fcx-limited-range -fdata-sections
  43              	@ -fdefer-pop -fdelete-null-pointer-checks -fdevirtualize
  44              	@ -fdevirtualize-speculatively -fdwarf2-cfi-asm -fearly-inlining
  45              	@ -feliminate-unused-debug-symbols -feliminate-unused-debug-types
  46              	@ -fexpensive-optimizations -ffinite-math-only -fforward-propagate
  47              	@ -ffp-int-builtin-inexact -ffunction-cse -ffunction-sections -fgcse
  48              	@ -fgcse-after-reload -fgcse-lm -fgnu-unique -fguess-branch-probability
  49              	@ -fhoist-adjacent-loads -fident -fif-conversion -fif-conversion2
  50              	@ -findirect-inlining -finline -finline-atomics -finline-functions
  51              	@ -finline-functions-called-once -finline-small-functions -fipa-bit-cp
  52              	@ -fipa-cp -fipa-cp-clone -fipa-icf -fipa-icf-functions -fipa-icf-variables
  53              	@ -fipa-profile -fipa-pure-const -fipa-ra -fipa-reference
  54              	@ -fipa-reference-addressable -fipa-sra -fipa-stack-alignment -fipa-vrp
  55              	@ -fira-hoist-pressure -fira-share-save-slots -fira-share-spill-slots
  56              	@ -fisolate-erroneous-paths-dereference -fivopts -fkeep-static-consts
  57              	@ -fleading-underscore -flifetime-dse -floop-interchange
ARM GAS  C:\Users\admin\AppData\Local\Temp\ccXiJXN4.s 			page 2


  58              	@ -floop-unroll-and-jam -flra-remat -fmerge-constants -fmerge-debug-strings
  59              	@ -fmove-loop-invariants -fomit-frame-pointer -foptimize-sibling-calls
  60              	@ -foptimize-strlen -fpartial-inlining -fpeel-loops -fpeephole -fpeephole2
  61              	@ -fplt -fpredictive-commoning -fprefetch-loop-arrays -freciprocal-math
  62              	@ -freg-struct-return -freorder-blocks -freorder-functions
  63              	@ -frerun-cse-after-loop -fsched-critical-path-heuristic
  64              	@ -fsched-dep-count-heuristic -fsched-group-heuristic -fsched-interblock
  65              	@ -fsched-last-insn-heuristic -fsched-pressure -fsched-rank-heuristic
  66              	@ -fsched-spec -fsched-spec-insn-heuristic -fsched-stalled-insns-dep
  67              	@ -fschedule-insns -fschedule-insns2 -fsection-anchors
  68              	@ -fsemantic-interposition -fshow-column -fshrink-wrap
  69              	@ -fshrink-wrap-separate -fsplit-ivs-in-unroller -fsplit-loops
  70              	@ -fsplit-paths -fsplit-wide-types -fssa-backprop -fssa-phiopt -fstdarg-opt
  71              	@ -fstore-merging -fstrict-aliasing -fstrict-volatile-bitfields
  72              	@ -fsync-libcalls -fthread-jumps -ftoplevel-reorder -ftree-bit-ccp
  73              	@ -ftree-builtin-call-dce -ftree-ccp -ftree-ch -ftree-coalesce-vars
  74              	@ -ftree-copy-prop -ftree-cselim -ftree-dce -ftree-dominator-opts
  75              	@ -ftree-dse -ftree-forwprop -ftree-fre -ftree-loop-distribute-patterns
  76              	@ -ftree-loop-distribution -ftree-loop-if-convert -ftree-loop-im
  77              	@ -ftree-loop-ivcanon -ftree-loop-optimize -ftree-loop-vectorize
  78              	@ -ftree-parallelize-loops= -ftree-partial-pre -ftree-phiprop -ftree-pre
  79              	@ -ftree-pta -ftree-reassoc -ftree-scev-cprop -ftree-sink
  80              	@ -ftree-slp-vectorize -ftree-slsr -ftree-sra -ftree-switch-conversion
  81              	@ -ftree-tail-merge -ftree-ter -ftree-vrp -funit-at-a-time
  82              	@ -funsafe-math-optimizations -funswitch-loops -fvar-tracking
  83              	@ -fvar-tracking-assignments -fverbose-asm -fversion-loops-for-strides
  84              	@ -fzero-initialized-in-bss -masm-syntax-unified -mbe32 -mlittle-endian
  85              	@ -mpic-data-is-text-relative -msched-prolog -mthumb -munaligned-access
  86              	@ -mvectorize-with-neon-quad
  87              	
  88              		.text
  89              	.Ltext0:
  90              		.cfi_sections	.debug_frame
  91              		.section	.text.SYSCFG_DeInit,"ax",%progbits
  92              		.align	1
  93              		.p2align 2,,3
  94              		.global	SYSCFG_DeInit
  95              		.syntax unified
  96              		.thumb
  97              		.thumb_func
  98              		.type	SYSCFG_DeInit, %function
  99              	SYSCFG_DeInit:
 100              	.LFB110:
 101              		.file 1 "../Libraries/STM32F4xx_StdPeriph_Driver/src/stm32f4xx_syscfg.c"
   1:../Libraries/STM32F4xx_StdPeriph_Driver/src/stm32f4xx_syscfg.c **** /**
   2:../Libraries/STM32F4xx_StdPeriph_Driver/src/stm32f4xx_syscfg.c ****   ******************************************************************************
   3:../Libraries/STM32F4xx_StdPeriph_Driver/src/stm32f4xx_syscfg.c ****   * @file    stm32f4xx_syscfg.c
   4:../Libraries/STM32F4xx_StdPeriph_Driver/src/stm32f4xx_syscfg.c ****   * @author  MCD Application Team
   5:../Libraries/STM32F4xx_StdPeriph_Driver/src/stm32f4xx_syscfg.c ****   * @version V1.0.0
   6:../Libraries/STM32F4xx_StdPeriph_Driver/src/stm32f4xx_syscfg.c ****   * @date    30-September-2011
   7:../Libraries/STM32F4xx_StdPeriph_Driver/src/stm32f4xx_syscfg.c ****   * @brief   This file provides firmware functions to manage the SYSCFG peripheral.
   8:../Libraries/STM32F4xx_StdPeriph_Driver/src/stm32f4xx_syscfg.c ****   *
   9:../Libraries/STM32F4xx_StdPeriph_Driver/src/stm32f4xx_syscfg.c ****   *  @verbatim
  10:../Libraries/STM32F4xx_StdPeriph_Driver/src/stm32f4xx_syscfg.c ****   *  
  11:../Libraries/STM32F4xx_StdPeriph_Driver/src/stm32f4xx_syscfg.c ****   *          ===================================================================
  12:../Libraries/STM32F4xx_StdPeriph_Driver/src/stm32f4xx_syscfg.c ****   *                                 How to use this driver
  13:../Libraries/STM32F4xx_StdPeriph_Driver/src/stm32f4xx_syscfg.c ****   *          ===================================================================
ARM GAS  C:\Users\admin\AppData\Local\Temp\ccXiJXN4.s 			page 3


  14:../Libraries/STM32F4xx_StdPeriph_Driver/src/stm32f4xx_syscfg.c ****   *                  
  15:../Libraries/STM32F4xx_StdPeriph_Driver/src/stm32f4xx_syscfg.c ****   *          This driver provides functions for:
  16:../Libraries/STM32F4xx_StdPeriph_Driver/src/stm32f4xx_syscfg.c ****   *          
  17:../Libraries/STM32F4xx_StdPeriph_Driver/src/stm32f4xx_syscfg.c ****   *          1. Remapping the memory accessible in the code area using SYSCFG_MemoryRemapConfig()
  18:../Libraries/STM32F4xx_StdPeriph_Driver/src/stm32f4xx_syscfg.c ****   *              
  19:../Libraries/STM32F4xx_StdPeriph_Driver/src/stm32f4xx_syscfg.c ****   *          2. Manage the EXTI lines connection to the GPIOs using SYSCFG_EXTILineConfig()
  20:../Libraries/STM32F4xx_StdPeriph_Driver/src/stm32f4xx_syscfg.c ****   *            
  21:../Libraries/STM32F4xx_StdPeriph_Driver/src/stm32f4xx_syscfg.c ****   *          3. Select the ETHERNET media interface (RMII/RII) using SYSCFG_ETH_MediaInterfaceConfi
  22:../Libraries/STM32F4xx_StdPeriph_Driver/src/stm32f4xx_syscfg.c ****   *
  23:../Libraries/STM32F4xx_StdPeriph_Driver/src/stm32f4xx_syscfg.c ****   *  @note  SYSCFG APB clock must be enabled to get write access to SYSCFG registers,
  24:../Libraries/STM32F4xx_StdPeriph_Driver/src/stm32f4xx_syscfg.c ****   *         using RCC_APB2PeriphClockCmd(RCC_APB2Periph_SYSCFG, ENABLE);
  25:../Libraries/STM32F4xx_StdPeriph_Driver/src/stm32f4xx_syscfg.c ****   *                 
  26:../Libraries/STM32F4xx_StdPeriph_Driver/src/stm32f4xx_syscfg.c ****   *  @endverbatim
  27:../Libraries/STM32F4xx_StdPeriph_Driver/src/stm32f4xx_syscfg.c ****   *      
  28:../Libraries/STM32F4xx_StdPeriph_Driver/src/stm32f4xx_syscfg.c ****   ******************************************************************************
  29:../Libraries/STM32F4xx_StdPeriph_Driver/src/stm32f4xx_syscfg.c ****   * @attention
  30:../Libraries/STM32F4xx_StdPeriph_Driver/src/stm32f4xx_syscfg.c ****   *
  31:../Libraries/STM32F4xx_StdPeriph_Driver/src/stm32f4xx_syscfg.c ****   * THE PRESENT FIRMWARE WHICH IS FOR GUIDANCE ONLY AIMS AT PROVIDING CUSTOMERS
  32:../Libraries/STM32F4xx_StdPeriph_Driver/src/stm32f4xx_syscfg.c ****   * WITH CODING INFORMATION REGARDING THEIR PRODUCTS IN ORDER FOR THEM TO SAVE
  33:../Libraries/STM32F4xx_StdPeriph_Driver/src/stm32f4xx_syscfg.c ****   * TIME. AS A RESULT, STMICROELECTRONICS SHALL NOT BE HELD LIABLE FOR ANY
  34:../Libraries/STM32F4xx_StdPeriph_Driver/src/stm32f4xx_syscfg.c ****   * DIRECT, INDIRECT OR CONSEQUENTIAL DAMAGES WITH RESPECT TO ANY CLAIMS ARISING
  35:../Libraries/STM32F4xx_StdPeriph_Driver/src/stm32f4xx_syscfg.c ****   * FROM THE CONTENT OF SUCH FIRMWARE AND/OR THE USE MADE BY CUSTOMERS OF THE
  36:../Libraries/STM32F4xx_StdPeriph_Driver/src/stm32f4xx_syscfg.c ****   * CODING INFORMATION CONTAINED HEREIN IN CONNECTION WITH THEIR PRODUCTS.
  37:../Libraries/STM32F4xx_StdPeriph_Driver/src/stm32f4xx_syscfg.c ****   *
  38:../Libraries/STM32F4xx_StdPeriph_Driver/src/stm32f4xx_syscfg.c ****   * <h2><center>&copy; COPYRIGHT 2011 STMicroelectronics</center></h2>
  39:../Libraries/STM32F4xx_StdPeriph_Driver/src/stm32f4xx_syscfg.c ****   ******************************************************************************
  40:../Libraries/STM32F4xx_StdPeriph_Driver/src/stm32f4xx_syscfg.c ****   */
  41:../Libraries/STM32F4xx_StdPeriph_Driver/src/stm32f4xx_syscfg.c **** 
  42:../Libraries/STM32F4xx_StdPeriph_Driver/src/stm32f4xx_syscfg.c **** /* Includes ------------------------------------------------------------------*/
  43:../Libraries/STM32F4xx_StdPeriph_Driver/src/stm32f4xx_syscfg.c **** #include "stm32f4xx_syscfg.h"
  44:../Libraries/STM32F4xx_StdPeriph_Driver/src/stm32f4xx_syscfg.c **** #include "stm32f4xx_rcc.h"
  45:../Libraries/STM32F4xx_StdPeriph_Driver/src/stm32f4xx_syscfg.c **** #include <stm32f4xx_conf.h>
  46:../Libraries/STM32F4xx_StdPeriph_Driver/src/stm32f4xx_syscfg.c **** /** @addtogroup STM32F4xx_StdPeriph_Driver
  47:../Libraries/STM32F4xx_StdPeriph_Driver/src/stm32f4xx_syscfg.c ****   * @{
  48:../Libraries/STM32F4xx_StdPeriph_Driver/src/stm32f4xx_syscfg.c ****   */
  49:../Libraries/STM32F4xx_StdPeriph_Driver/src/stm32f4xx_syscfg.c **** 
  50:../Libraries/STM32F4xx_StdPeriph_Driver/src/stm32f4xx_syscfg.c **** /** @defgroup SYSCFG 
  51:../Libraries/STM32F4xx_StdPeriph_Driver/src/stm32f4xx_syscfg.c ****   * @brief SYSCFG driver modules
  52:../Libraries/STM32F4xx_StdPeriph_Driver/src/stm32f4xx_syscfg.c ****   * @{
  53:../Libraries/STM32F4xx_StdPeriph_Driver/src/stm32f4xx_syscfg.c ****   */ 
  54:../Libraries/STM32F4xx_StdPeriph_Driver/src/stm32f4xx_syscfg.c **** 
  55:../Libraries/STM32F4xx_StdPeriph_Driver/src/stm32f4xx_syscfg.c **** /* Private typedef -----------------------------------------------------------*/
  56:../Libraries/STM32F4xx_StdPeriph_Driver/src/stm32f4xx_syscfg.c **** /* Private define ------------------------------------------------------------*/
  57:../Libraries/STM32F4xx_StdPeriph_Driver/src/stm32f4xx_syscfg.c **** /* ------------ RCC registers bit address in the alias region ----------- */
  58:../Libraries/STM32F4xx_StdPeriph_Driver/src/stm32f4xx_syscfg.c **** #define SYSCFG_OFFSET             (SYSCFG_BASE - PERIPH_BASE)
  59:../Libraries/STM32F4xx_StdPeriph_Driver/src/stm32f4xx_syscfg.c **** /* ---  PMC Register ---*/ 
  60:../Libraries/STM32F4xx_StdPeriph_Driver/src/stm32f4xx_syscfg.c **** /* Alias word address of MII_RMII_SEL bit */ 
  61:../Libraries/STM32F4xx_StdPeriph_Driver/src/stm32f4xx_syscfg.c **** #define PMC_OFFSET                (SYSCFG_OFFSET + 0x04) 
  62:../Libraries/STM32F4xx_StdPeriph_Driver/src/stm32f4xx_syscfg.c **** #define MII_RMII_SEL_BitNumber    ((uint8_t)0x17) 
  63:../Libraries/STM32F4xx_StdPeriph_Driver/src/stm32f4xx_syscfg.c **** #define PMC_MII_RMII_SEL_BB       (PERIPH_BB_BASE + (PMC_OFFSET * 32) + (MII_RMII_SEL_BitNumber * 4
  64:../Libraries/STM32F4xx_StdPeriph_Driver/src/stm32f4xx_syscfg.c **** 
  65:../Libraries/STM32F4xx_StdPeriph_Driver/src/stm32f4xx_syscfg.c **** /* ---  CMPCR Register ---*/ 
  66:../Libraries/STM32F4xx_StdPeriph_Driver/src/stm32f4xx_syscfg.c **** /* Alias word address of CMP_PD bit */ 
  67:../Libraries/STM32F4xx_StdPeriph_Driver/src/stm32f4xx_syscfg.c **** #define CMPCR_OFFSET              (SYSCFG_OFFSET + 0x20) 
  68:../Libraries/STM32F4xx_StdPeriph_Driver/src/stm32f4xx_syscfg.c **** #define CMP_PD_BitNumber          ((uint8_t)0x00) 
  69:../Libraries/STM32F4xx_StdPeriph_Driver/src/stm32f4xx_syscfg.c **** #define CMPCR_CMP_PD_BB           (PERIPH_BB_BASE + (CMPCR_OFFSET * 32) + (CMP_PD_BitNumber * 4)) 
  70:../Libraries/STM32F4xx_StdPeriph_Driver/src/stm32f4xx_syscfg.c **** 
ARM GAS  C:\Users\admin\AppData\Local\Temp\ccXiJXN4.s 			page 4


  71:../Libraries/STM32F4xx_StdPeriph_Driver/src/stm32f4xx_syscfg.c **** /* Private macro -------------------------------------------------------------*/
  72:../Libraries/STM32F4xx_StdPeriph_Driver/src/stm32f4xx_syscfg.c **** /* Private variables ---------------------------------------------------------*/
  73:../Libraries/STM32F4xx_StdPeriph_Driver/src/stm32f4xx_syscfg.c **** /* Private function prototypes -----------------------------------------------*/
  74:../Libraries/STM32F4xx_StdPeriph_Driver/src/stm32f4xx_syscfg.c **** /* Private functions ---------------------------------------------------------*/
  75:../Libraries/STM32F4xx_StdPeriph_Driver/src/stm32f4xx_syscfg.c **** 
  76:../Libraries/STM32F4xx_StdPeriph_Driver/src/stm32f4xx_syscfg.c **** /** @defgroup SYSCFG_Private_Functions
  77:../Libraries/STM32F4xx_StdPeriph_Driver/src/stm32f4xx_syscfg.c ****   * @{
  78:../Libraries/STM32F4xx_StdPeriph_Driver/src/stm32f4xx_syscfg.c ****   */ 
  79:../Libraries/STM32F4xx_StdPeriph_Driver/src/stm32f4xx_syscfg.c **** 
  80:../Libraries/STM32F4xx_StdPeriph_Driver/src/stm32f4xx_syscfg.c **** /**
  81:../Libraries/STM32F4xx_StdPeriph_Driver/src/stm32f4xx_syscfg.c ****   * @brief  Deinitializes the Alternate Functions (remap and EXTI configuration)
  82:../Libraries/STM32F4xx_StdPeriph_Driver/src/stm32f4xx_syscfg.c ****   *   registers to their default reset values.
  83:../Libraries/STM32F4xx_StdPeriph_Driver/src/stm32f4xx_syscfg.c ****   * @param  None
  84:../Libraries/STM32F4xx_StdPeriph_Driver/src/stm32f4xx_syscfg.c ****   * @retval None
  85:../Libraries/STM32F4xx_StdPeriph_Driver/src/stm32f4xx_syscfg.c ****   */
  86:../Libraries/STM32F4xx_StdPeriph_Driver/src/stm32f4xx_syscfg.c **** void SYSCFG_DeInit(void)
  87:../Libraries/STM32F4xx_StdPeriph_Driver/src/stm32f4xx_syscfg.c **** {
 102              		.loc 1 87 1 view -0
 103              		.cfi_startproc
 104              		@ args = 0, pretend = 0, frame = 0
 105              		@ frame_needed = 0, uses_anonymous_args = 0
  88:../Libraries/STM32F4xx_StdPeriph_Driver/src/stm32f4xx_syscfg.c ****    RCC_APB2PeriphResetCmd(RCC_APB2Periph_SYSCFG, ENABLE);
 106              		.loc 1 88 4 view .LVU1
 107              	@ ../Libraries/STM32F4xx_StdPeriph_Driver/src/stm32f4xx_syscfg.c:87: {
  87:../Libraries/STM32F4xx_StdPeriph_Driver/src/stm32f4xx_syscfg.c ****    RCC_APB2PeriphResetCmd(RCC_APB2Periph_SYSCFG, ENABLE);
 108              		.loc 1 87 1 is_stmt 0 view .LVU2
 109 0000 08B5     		push	{r3, lr}	@
 110              		.cfi_def_cfa_offset 8
 111              		.cfi_offset 3, -8
 112              		.cfi_offset 14, -4
 113              	@ ../Libraries/STM32F4xx_StdPeriph_Driver/src/stm32f4xx_syscfg.c:88:    RCC_APB2PeriphResetCmd(RCC_
 114              		.loc 1 88 4 view .LVU3
 115 0002 0121     		movs	r1, #1	@,
 116 0004 4FF48040 		mov	r0, #16384	@,
 117 0008 FFF7FEFF 		bl	RCC_APB2PeriphResetCmd		@
 118              	.LVL0:
  89:../Libraries/STM32F4xx_StdPeriph_Driver/src/stm32f4xx_syscfg.c ****    RCC_APB2PeriphResetCmd(RCC_APB2Periph_SYSCFG, DISABLE);
 119              		.loc 1 89 4 is_stmt 1 view .LVU4
 120              	@ ../Libraries/STM32F4xx_StdPeriph_Driver/src/stm32f4xx_syscfg.c:90: }
  90:../Libraries/STM32F4xx_StdPeriph_Driver/src/stm32f4xx_syscfg.c **** }
 121              		.loc 1 90 1 is_stmt 0 view .LVU5
 122 000c BDE80840 		pop	{r3, lr}	@
 123              		.cfi_restore 14
 124              		.cfi_restore 3
 125              		.cfi_def_cfa_offset 0
 126              	@ ../Libraries/STM32F4xx_StdPeriph_Driver/src/stm32f4xx_syscfg.c:89:    RCC_APB2PeriphResetCmd(RCC_
  89:../Libraries/STM32F4xx_StdPeriph_Driver/src/stm32f4xx_syscfg.c ****    RCC_APB2PeriphResetCmd(RCC_APB2Periph_SYSCFG, DISABLE);
 127              		.loc 1 89 4 view .LVU6
 128 0010 0021     		movs	r1, #0	@,
 129 0012 4FF48040 		mov	r0, #16384	@,
 130 0016 FFF7FEBF 		b	RCC_APB2PeriphResetCmd		@
 131              	.LVL1:
 132              		.cfi_endproc
 133              	.LFE110:
 134              		.size	SYSCFG_DeInit, .-SYSCFG_DeInit
 135 001a 00BF     		.section	.text.SYSCFG_MemoryRemapConfig,"ax",%progbits
 136              		.align	1
ARM GAS  C:\Users\admin\AppData\Local\Temp\ccXiJXN4.s 			page 5


 137              		.p2align 2,,3
 138              		.global	SYSCFG_MemoryRemapConfig
 139              		.syntax unified
 140              		.thumb
 141              		.thumb_func
 142              		.type	SYSCFG_MemoryRemapConfig, %function
 143              	SYSCFG_MemoryRemapConfig:
 144              	.LVL2:
 145              	.LFB111:
  91:../Libraries/STM32F4xx_StdPeriph_Driver/src/stm32f4xx_syscfg.c **** 
  92:../Libraries/STM32F4xx_StdPeriph_Driver/src/stm32f4xx_syscfg.c **** /**
  93:../Libraries/STM32F4xx_StdPeriph_Driver/src/stm32f4xx_syscfg.c ****   * @brief  Changes the mapping of the specified pin.
  94:../Libraries/STM32F4xx_StdPeriph_Driver/src/stm32f4xx_syscfg.c ****   * @param  SYSCFG_Memory: selects the memory remapping.
  95:../Libraries/STM32F4xx_StdPeriph_Driver/src/stm32f4xx_syscfg.c ****   *         This parameter can be one of the following values:
  96:../Libraries/STM32F4xx_StdPeriph_Driver/src/stm32f4xx_syscfg.c ****   *            @arg SYSCFG_MemoryRemap_Flash:       Main Flash memory mapped at 0x00000000  
  97:../Libraries/STM32F4xx_StdPeriph_Driver/src/stm32f4xx_syscfg.c ****   *            @arg SYSCFG_MemoryRemap_SystemFlash: System Flash memory mapped at 0x00000000
  98:../Libraries/STM32F4xx_StdPeriph_Driver/src/stm32f4xx_syscfg.c ****   *            @arg SYSCFG_MemoryRemap_FSMC:        FSMC (Bank1 (NOR/PSRAM 1 and 2) mapped at 0x000
  99:../Libraries/STM32F4xx_StdPeriph_Driver/src/stm32f4xx_syscfg.c ****   *            @arg SYSCFG_MemoryRemap_SRAM:        Embedded SRAM (112kB) mapped at 0x00000000
 100:../Libraries/STM32F4xx_StdPeriph_Driver/src/stm32f4xx_syscfg.c ****   * @retval None
 101:../Libraries/STM32F4xx_StdPeriph_Driver/src/stm32f4xx_syscfg.c ****   */
 102:../Libraries/STM32F4xx_StdPeriph_Driver/src/stm32f4xx_syscfg.c **** void SYSCFG_MemoryRemapConfig(uint8_t SYSCFG_MemoryRemap)
 103:../Libraries/STM32F4xx_StdPeriph_Driver/src/stm32f4xx_syscfg.c **** {
 146              		.loc 1 103 1 is_stmt 1 view -0
 147              		.cfi_startproc
 148              		@ args = 0, pretend = 0, frame = 0
 149              		@ frame_needed = 0, uses_anonymous_args = 0
 150              		@ link register save eliminated.
 104:../Libraries/STM32F4xx_StdPeriph_Driver/src/stm32f4xx_syscfg.c ****   /* Check the parameters */
 105:../Libraries/STM32F4xx_StdPeriph_Driver/src/stm32f4xx_syscfg.c ****   assert_param(IS_SYSCFG_MEMORY_REMAP_CONFING(SYSCFG_MemoryRemap));
 151              		.loc 1 105 3 view .LVU8
 106:../Libraries/STM32F4xx_StdPeriph_Driver/src/stm32f4xx_syscfg.c **** 
 107:../Libraries/STM32F4xx_StdPeriph_Driver/src/stm32f4xx_syscfg.c ****   SYSCFG->MEMRMP = SYSCFG_MemoryRemap;
 152              		.loc 1 107 3 view .LVU9
 153              	@ ../Libraries/STM32F4xx_StdPeriph_Driver/src/stm32f4xx_syscfg.c:107:   SYSCFG->MEMRMP = SYSCFG_Mem
 154              		.loc 1 107 18 is_stmt 0 view .LVU10
 155 0000 014B     		ldr	r3, .L5	@ tmp115,
 156 0002 1860     		str	r0, [r3]	@ SYSCFG_MemoryRemap, MEM[(struct SYSCFG_TypeDef *)1073821696B].MEMRMP
 157              	@ ../Libraries/STM32F4xx_StdPeriph_Driver/src/stm32f4xx_syscfg.c:108: }
 108:../Libraries/STM32F4xx_StdPeriph_Driver/src/stm32f4xx_syscfg.c **** }
 158              		.loc 1 108 1 view .LVU11
 159 0004 7047     		bx	lr	@
 160              	.L6:
 161 0006 00BF     		.align	2
 162              	.L5:
 163 0008 00380140 		.word	1073821696
 164              		.cfi_endproc
 165              	.LFE111:
 166              		.size	SYSCFG_MemoryRemapConfig, .-SYSCFG_MemoryRemapConfig
 167              		.section	.text.SYSCFG_EXTILineConfig,"ax",%progbits
 168              		.align	1
 169              		.p2align 2,,3
 170              		.global	SYSCFG_EXTILineConfig
 171              		.syntax unified
 172              		.thumb
 173              		.thumb_func
 174              		.type	SYSCFG_EXTILineConfig, %function
 175              	SYSCFG_EXTILineConfig:
ARM GAS  C:\Users\admin\AppData\Local\Temp\ccXiJXN4.s 			page 6


 176              	.LVL3:
 177              	.LFB112:
 109:../Libraries/STM32F4xx_StdPeriph_Driver/src/stm32f4xx_syscfg.c **** 
 110:../Libraries/STM32F4xx_StdPeriph_Driver/src/stm32f4xx_syscfg.c **** /**
 111:../Libraries/STM32F4xx_StdPeriph_Driver/src/stm32f4xx_syscfg.c ****   * @brief  Selects the GPIO pin used as EXTI Line.
 112:../Libraries/STM32F4xx_StdPeriph_Driver/src/stm32f4xx_syscfg.c ****   * @param  EXTI_PortSourceGPIOx : selects the GPIO port to be used as source for
 113:../Libraries/STM32F4xx_StdPeriph_Driver/src/stm32f4xx_syscfg.c ****   *          EXTI lines where x can be (A..I).
 114:../Libraries/STM32F4xx_StdPeriph_Driver/src/stm32f4xx_syscfg.c ****   * @param  EXTI_PinSourcex: specifies the EXTI line to be configured.
 115:../Libraries/STM32F4xx_StdPeriph_Driver/src/stm32f4xx_syscfg.c ****   *           This parameter can be EXTI_PinSourcex where x can be (0..15, except
 116:../Libraries/STM32F4xx_StdPeriph_Driver/src/stm32f4xx_syscfg.c ****   *           for EXTI_PortSourceGPIOI x can be (0..11).
 117:../Libraries/STM32F4xx_StdPeriph_Driver/src/stm32f4xx_syscfg.c ****   * @retval None
 118:../Libraries/STM32F4xx_StdPeriph_Driver/src/stm32f4xx_syscfg.c ****   */
 119:../Libraries/STM32F4xx_StdPeriph_Driver/src/stm32f4xx_syscfg.c **** void SYSCFG_EXTILineConfig(uint8_t EXTI_PortSourceGPIOx, uint8_t EXTI_PinSourcex)
 120:../Libraries/STM32F4xx_StdPeriph_Driver/src/stm32f4xx_syscfg.c **** {
 178              		.loc 1 120 1 is_stmt 1 view -0
 179              		.cfi_startproc
 180              		@ args = 0, pretend = 0, frame = 0
 181              		@ frame_needed = 0, uses_anonymous_args = 0
 182              		@ link register save eliminated.
 121:../Libraries/STM32F4xx_StdPeriph_Driver/src/stm32f4xx_syscfg.c ****   uint32_t tmp = 0x00;
 183              		.loc 1 121 3 view .LVU13
 122:../Libraries/STM32F4xx_StdPeriph_Driver/src/stm32f4xx_syscfg.c **** 
 123:../Libraries/STM32F4xx_StdPeriph_Driver/src/stm32f4xx_syscfg.c ****   /* Check the parameters */
 124:../Libraries/STM32F4xx_StdPeriph_Driver/src/stm32f4xx_syscfg.c ****   assert_param(IS_EXTI_PORT_SOURCE(EXTI_PortSourceGPIOx));
 184              		.loc 1 124 3 view .LVU14
 125:../Libraries/STM32F4xx_StdPeriph_Driver/src/stm32f4xx_syscfg.c ****   assert_param(IS_EXTI_PIN_SOURCE(EXTI_PinSourcex));
 185              		.loc 1 125 3 view .LVU15
 126:../Libraries/STM32F4xx_StdPeriph_Driver/src/stm32f4xx_syscfg.c **** 
 127:../Libraries/STM32F4xx_StdPeriph_Driver/src/stm32f4xx_syscfg.c ****   tmp = ((uint32_t)0x0F) << (0x04 * (EXTI_PinSourcex & (uint8_t)0x03));
 186              		.loc 1 127 3 view .LVU16
 187 0000 01F0FC03 		and	r3, r1, #252	@ tmp140, EXTI_PinSourcex,
 188 0004 03F18043 		add	r3, r3, #1073741824	@ _21, tmp140,
 189 0008 03F59C33 		add	r3, r3, #79872	@ _21, _21,
 190              	@ ../Libraries/STM32F4xx_StdPeriph_Driver/src/stm32f4xx_syscfg.c:127:   tmp = ((uint32_t)0x0F) << (
 191              		.loc 1 127 35 is_stmt 0 view .LVU17
 192 000c 01F00301 		and	r1, r1, #3	@ tmp135, EXTI_PinSourcex,
 193              	.LVL4:
 194              	@ ../Libraries/STM32F4xx_StdPeriph_Driver/src/stm32f4xx_syscfg.c:128:   SYSCFG->EXTICR[EXTI_PinSour
 128:../Libraries/STM32F4xx_StdPeriph_Driver/src/stm32f4xx_syscfg.c ****   SYSCFG->EXTICR[EXTI_PinSourcex >> 0x02] &= ~tmp;
 195              		.loc 1 128 43 view .LVU18
 196 0010 9A68     		ldr	r2, [r3, #8]	@ _5, MEM <volatile uint32_t> [(struct SYSCFG_TypeDef *)_21 + 8B]
 197              	@ ../Libraries/STM32F4xx_StdPeriph_Driver/src/stm32f4xx_syscfg.c:127:   tmp = ((uint32_t)0x0F) << (
 127:../Libraries/STM32F4xx_StdPeriph_Driver/src/stm32f4xx_syscfg.c ****   SYSCFG->EXTICR[EXTI_PinSourcex >> 0x02] &= ~tmp;
 198              		.loc 1 127 35 view .LVU19
 199 0012 8900     		lsls	r1, r1, #2	@ _2, tmp135,
 200              	.LVL5:
 201              		.loc 1 128 3 is_stmt 1 view .LVU20
 202              	@ ../Libraries/STM32F4xx_StdPeriph_Driver/src/stm32f4xx_syscfg.c:127:   tmp = ((uint32_t)0x0F) << (
 127:../Libraries/STM32F4xx_StdPeriph_Driver/src/stm32f4xx_syscfg.c ****   SYSCFG->EXTICR[EXTI_PinSourcex >> 0x02] &= ~tmp;
 203              		.loc 1 127 7 is_stmt 0 view .LVU21
 204 0014 4FF00F0C 		mov	ip, #15	@ tmp143,
 205 0018 0CFA01FC 		lsl	ip, ip, r1	@ tmp, tmp143, _2
 206              	.LVL6:
 207              	@ ../Libraries/STM32F4xx_StdPeriph_Driver/src/stm32f4xx_syscfg.c:128:   SYSCFG->EXTICR[EXTI_PinSour
 208              		.loc 1 128 43 view .LVU22
 209 001c 22EA0C02 		bic	r2, r2, ip	@ _7, _5, tmp
 210 0020 9A60     		str	r2, [r3, #8]	@ _7, MEM <volatile uint32_t> [(struct SYSCFG_TypeDef *)_21 + 8B]
ARM GAS  C:\Users\admin\AppData\Local\Temp\ccXiJXN4.s 			page 7


 129:../Libraries/STM32F4xx_StdPeriph_Driver/src/stm32f4xx_syscfg.c ****   SYSCFG->EXTICR[EXTI_PinSourcex >> 0x02] |= (((uint32_t)EXTI_PortSourceGPIOx) << (0x04 * (EXTI_Pin
 211              		.loc 1 129 3 is_stmt 1 view .LVU23
 212              	@ ../Libraries/STM32F4xx_StdPeriph_Driver/src/stm32f4xx_syscfg.c:129:   SYSCFG->EXTICR[EXTI_PinSour
 213              		.loc 1 129 43 is_stmt 0 view .LVU24
 214 0022 9A68     		ldr	r2, [r3, #8]	@ _8, MEM <volatile uint32_t> [(struct SYSCFG_TypeDef *)_21 + 8B]
 215              	@ ../Libraries/STM32F4xx_StdPeriph_Driver/src/stm32f4xx_syscfg.c:129:   SYSCFG->EXTICR[EXTI_PinSour
 216              		.loc 1 129 80 view .LVU25
 217 0024 8840     		lsls	r0, r0, r1	@ tmp145, tmp146, _2
 218              	.LVL7:
 219              	@ ../Libraries/STM32F4xx_StdPeriph_Driver/src/stm32f4xx_syscfg.c:129:   SYSCFG->EXTICR[EXTI_PinSour
 220              		.loc 1 129 43 view .LVU26
 221 0026 0243     		orrs	r2, r2, r0	@, _11, _8, tmp145
 222 0028 9A60     		str	r2, [r3, #8]	@ _11, MEM <volatile uint32_t> [(struct SYSCFG_TypeDef *)_21 + 8B]
 223              	@ ../Libraries/STM32F4xx_StdPeriph_Driver/src/stm32f4xx_syscfg.c:130: }
 130:../Libraries/STM32F4xx_StdPeriph_Driver/src/stm32f4xx_syscfg.c **** }
 224              		.loc 1 130 1 view .LVU27
 225 002a 7047     		bx	lr	@
 226              		.cfi_endproc
 227              	.LFE112:
 228              		.size	SYSCFG_EXTILineConfig, .-SYSCFG_EXTILineConfig
 229              		.section	.text.SYSCFG_ETH_MediaInterfaceConfig,"ax",%progbits
 230              		.align	1
 231              		.p2align 2,,3
 232              		.global	SYSCFG_ETH_MediaInterfaceConfig
 233              		.syntax unified
 234              		.thumb
 235              		.thumb_func
 236              		.type	SYSCFG_ETH_MediaInterfaceConfig, %function
 237              	SYSCFG_ETH_MediaInterfaceConfig:
 238              	.LVL8:
 239              	.LFB113:
 131:../Libraries/STM32F4xx_StdPeriph_Driver/src/stm32f4xx_syscfg.c **** 
 132:../Libraries/STM32F4xx_StdPeriph_Driver/src/stm32f4xx_syscfg.c **** /**
 133:../Libraries/STM32F4xx_StdPeriph_Driver/src/stm32f4xx_syscfg.c ****   * @brief  Selects the ETHERNET media interface 
 134:../Libraries/STM32F4xx_StdPeriph_Driver/src/stm32f4xx_syscfg.c ****   * @param  SYSCFG_ETH_MediaInterface: specifies the Media Interface mode. 
 135:../Libraries/STM32F4xx_StdPeriph_Driver/src/stm32f4xx_syscfg.c ****   *          This parameter can be one of the following values: 
 136:../Libraries/STM32F4xx_StdPeriph_Driver/src/stm32f4xx_syscfg.c ****   *            @arg SYSCFG_ETH_MediaInterface_MII: MII mode selected
 137:../Libraries/STM32F4xx_StdPeriph_Driver/src/stm32f4xx_syscfg.c ****   *            @arg SYSCFG_ETH_MediaInterface_RMII: RMII mode selected 
 138:../Libraries/STM32F4xx_StdPeriph_Driver/src/stm32f4xx_syscfg.c ****   * @retval None 
 139:../Libraries/STM32F4xx_StdPeriph_Driver/src/stm32f4xx_syscfg.c ****   */
 140:../Libraries/STM32F4xx_StdPeriph_Driver/src/stm32f4xx_syscfg.c **** void SYSCFG_ETH_MediaInterfaceConfig(uint32_t SYSCFG_ETH_MediaInterface) 
 141:../Libraries/STM32F4xx_StdPeriph_Driver/src/stm32f4xx_syscfg.c **** { 
 240              		.loc 1 141 1 is_stmt 1 view -0
 241              		.cfi_startproc
 242              		@ args = 0, pretend = 0, frame = 0
 243              		@ frame_needed = 0, uses_anonymous_args = 0
 244              		@ link register save eliminated.
 142:../Libraries/STM32F4xx_StdPeriph_Driver/src/stm32f4xx_syscfg.c ****   assert_param(IS_SYSCFG_ETH_MEDIA_INTERFACE(SYSCFG_ETH_MediaInterface)); 
 245              		.loc 1 142 3 view .LVU29
 143:../Libraries/STM32F4xx_StdPeriph_Driver/src/stm32f4xx_syscfg.c ****   /* Configure MII_RMII selection bit */ 
 144:../Libraries/STM32F4xx_StdPeriph_Driver/src/stm32f4xx_syscfg.c ****   *(__IO uint32_t *) PMC_MII_RMII_SEL_BB = SYSCFG_ETH_MediaInterface; 
 246              		.loc 1 144 3 view .LVU30
 247              	@ ../Libraries/STM32F4xx_StdPeriph_Driver/src/stm32f4xx_syscfg.c:144:   *(__IO uint32_t *) PMC_MII_
 248              		.loc 1 144 42 is_stmt 0 view .LVU31
 249 0000 014B     		ldr	r3, .L9	@ tmp114,
 250 0002 C3F8DC00 		str	r0, [r3, #220]	@ SYSCFG_ETH_MediaInterface, MEM[(volatile uint32_t *)1109852380B]
 251              	@ ../Libraries/STM32F4xx_StdPeriph_Driver/src/stm32f4xx_syscfg.c:145: }
ARM GAS  C:\Users\admin\AppData\Local\Temp\ccXiJXN4.s 			page 8


 145:../Libraries/STM32F4xx_StdPeriph_Driver/src/stm32f4xx_syscfg.c **** }
 252              		.loc 1 145 1 view .LVU32
 253 0006 7047     		bx	lr	@
 254              	.L10:
 255              		.align	2
 256              	.L9:
 257 0008 00002742 		.word	1109852160
 258              		.cfi_endproc
 259              	.LFE113:
 260              		.size	SYSCFG_ETH_MediaInterfaceConfig, .-SYSCFG_ETH_MediaInterfaceConfig
 261              		.section	.text.SYSCFG_CompensationCellCmd,"ax",%progbits
 262              		.align	1
 263              		.p2align 2,,3
 264              		.global	SYSCFG_CompensationCellCmd
 265              		.syntax unified
 266              		.thumb
 267              		.thumb_func
 268              		.type	SYSCFG_CompensationCellCmd, %function
 269              	SYSCFG_CompensationCellCmd:
 270              	.LVL9:
 271              	.LFB114:
 146:../Libraries/STM32F4xx_StdPeriph_Driver/src/stm32f4xx_syscfg.c **** 
 147:../Libraries/STM32F4xx_StdPeriph_Driver/src/stm32f4xx_syscfg.c **** /**
 148:../Libraries/STM32F4xx_StdPeriph_Driver/src/stm32f4xx_syscfg.c ****   * @brief  Enables or disables the I/O Compensation Cell.
 149:../Libraries/STM32F4xx_StdPeriph_Driver/src/stm32f4xx_syscfg.c ****   * @note   The I/O compensation cell can be used only when the device supply
 150:../Libraries/STM32F4xx_StdPeriph_Driver/src/stm32f4xx_syscfg.c ****   *         voltage ranges from 2.4 to 3.6 V.  
 151:../Libraries/STM32F4xx_StdPeriph_Driver/src/stm32f4xx_syscfg.c ****   * @param  NewState: new state of the I/O Compensation Cell.
 152:../Libraries/STM32F4xx_StdPeriph_Driver/src/stm32f4xx_syscfg.c ****   *          This parameter can be one of the following values:
 153:../Libraries/STM32F4xx_StdPeriph_Driver/src/stm32f4xx_syscfg.c ****   *            @arg ENABLE: I/O compensation cell enabled  
 154:../Libraries/STM32F4xx_StdPeriph_Driver/src/stm32f4xx_syscfg.c ****   *            @arg DISABLE: I/O compensation cell power-down mode  
 155:../Libraries/STM32F4xx_StdPeriph_Driver/src/stm32f4xx_syscfg.c ****   * @retval None
 156:../Libraries/STM32F4xx_StdPeriph_Driver/src/stm32f4xx_syscfg.c ****   */
 157:../Libraries/STM32F4xx_StdPeriph_Driver/src/stm32f4xx_syscfg.c **** void SYSCFG_CompensationCellCmd(FunctionalState NewState)
 158:../Libraries/STM32F4xx_StdPeriph_Driver/src/stm32f4xx_syscfg.c **** {
 272              		.loc 1 158 1 is_stmt 1 view -0
 273              		.cfi_startproc
 274              		@ args = 0, pretend = 0, frame = 0
 275              		@ frame_needed = 0, uses_anonymous_args = 0
 276              		@ link register save eliminated.
 159:../Libraries/STM32F4xx_StdPeriph_Driver/src/stm32f4xx_syscfg.c ****   /* Check the parameters */
 160:../Libraries/STM32F4xx_StdPeriph_Driver/src/stm32f4xx_syscfg.c ****   assert_param(IS_FUNCTIONAL_STATE(NewState));
 277              		.loc 1 160 3 view .LVU34
 161:../Libraries/STM32F4xx_StdPeriph_Driver/src/stm32f4xx_syscfg.c **** 
 162:../Libraries/STM32F4xx_StdPeriph_Driver/src/stm32f4xx_syscfg.c ****   *(__IO uint32_t *) CMPCR_CMP_PD_BB = (uint32_t)NewState;
 278              		.loc 1 162 3 view .LVU35
 279              	@ ../Libraries/STM32F4xx_StdPeriph_Driver/src/stm32f4xx_syscfg.c:162:   *(__IO uint32_t *) CMPCR_CM
 280              		.loc 1 162 38 is_stmt 0 view .LVU36
 281 0000 014B     		ldr	r3, .L12	@ tmp115,
 282 0002 C3F80004 		str	r0, [r3, #1024]	@ NewState, MEM[(volatile uint32_t *)1109853184B]
 283              	@ ../Libraries/STM32F4xx_StdPeriph_Driver/src/stm32f4xx_syscfg.c:163: }
 163:../Libraries/STM32F4xx_StdPeriph_Driver/src/stm32f4xx_syscfg.c **** }
 284              		.loc 1 163 1 view .LVU37
 285 0006 7047     		bx	lr	@
 286              	.L13:
 287              		.align	2
 288              	.L12:
 289 0008 00002742 		.word	1109852160
ARM GAS  C:\Users\admin\AppData\Local\Temp\ccXiJXN4.s 			page 9


 290              		.cfi_endproc
 291              	.LFE114:
 292              		.size	SYSCFG_CompensationCellCmd, .-SYSCFG_CompensationCellCmd
 293              		.section	.text.SYSCFG_GetCompensationCellStatus,"ax",%progbits
 294              		.align	1
 295              		.p2align 2,,3
 296              		.global	SYSCFG_GetCompensationCellStatus
 297              		.syntax unified
 298              		.thumb
 299              		.thumb_func
 300              		.type	SYSCFG_GetCompensationCellStatus, %function
 301              	SYSCFG_GetCompensationCellStatus:
 302              	.LFB115:
 164:../Libraries/STM32F4xx_StdPeriph_Driver/src/stm32f4xx_syscfg.c **** 
 165:../Libraries/STM32F4xx_StdPeriph_Driver/src/stm32f4xx_syscfg.c **** /**
 166:../Libraries/STM32F4xx_StdPeriph_Driver/src/stm32f4xx_syscfg.c ****   * @brief  Checks whether the I/O Compensation Cell ready flag is set or not.
 167:../Libraries/STM32F4xx_StdPeriph_Driver/src/stm32f4xx_syscfg.c ****   * @param  None
 168:../Libraries/STM32F4xx_StdPeriph_Driver/src/stm32f4xx_syscfg.c ****   * @retval The new state of the I/O Compensation Cell ready flag (SET or RESET)
 169:../Libraries/STM32F4xx_StdPeriph_Driver/src/stm32f4xx_syscfg.c ****   */
 170:../Libraries/STM32F4xx_StdPeriph_Driver/src/stm32f4xx_syscfg.c **** FlagStatus SYSCFG_GetCompensationCellStatus(void)
 171:../Libraries/STM32F4xx_StdPeriph_Driver/src/stm32f4xx_syscfg.c **** {
 303              		.loc 1 171 1 is_stmt 1 view -0
 304              		.cfi_startproc
 305              		@ args = 0, pretend = 0, frame = 0
 306              		@ frame_needed = 0, uses_anonymous_args = 0
 307              		@ link register save eliminated.
 172:../Libraries/STM32F4xx_StdPeriph_Driver/src/stm32f4xx_syscfg.c ****   FlagStatus bitstatus = RESET;
 308              		.loc 1 172 3 view .LVU39
 309              	.LVL10:
 173:../Libraries/STM32F4xx_StdPeriph_Driver/src/stm32f4xx_syscfg.c ****     
 174:../Libraries/STM32F4xx_StdPeriph_Driver/src/stm32f4xx_syscfg.c ****   if ((SYSCFG->CMPCR & SYSCFG_CMPCR_READY ) != (uint32_t)RESET)
 310              		.loc 1 174 3 view .LVU40
 311              	@ ../Libraries/STM32F4xx_StdPeriph_Driver/src/stm32f4xx_syscfg.c:174:   if ((SYSCFG->CMPCR & SYSCFG
 312              		.loc 1 174 14 is_stmt 0 view .LVU41
 313 0000 024B     		ldr	r3, .L15	@ tmp117,
 314 0002 186A     		ldr	r0, [r3, #32]	@ _1, MEM[(struct SYSCFG_TypeDef *)1073821696B].CMPCR
 315              	.LVL11:
 175:../Libraries/STM32F4xx_StdPeriph_Driver/src/stm32f4xx_syscfg.c ****   {
 176:../Libraries/STM32F4xx_StdPeriph_Driver/src/stm32f4xx_syscfg.c ****     bitstatus = SET;
 177:../Libraries/STM32F4xx_StdPeriph_Driver/src/stm32f4xx_syscfg.c ****   }
 178:../Libraries/STM32F4xx_StdPeriph_Driver/src/stm32f4xx_syscfg.c ****   else
 179:../Libraries/STM32F4xx_StdPeriph_Driver/src/stm32f4xx_syscfg.c ****   {
 180:../Libraries/STM32F4xx_StdPeriph_Driver/src/stm32f4xx_syscfg.c ****     bitstatus = RESET;
 181:../Libraries/STM32F4xx_StdPeriph_Driver/src/stm32f4xx_syscfg.c ****   }
 182:../Libraries/STM32F4xx_StdPeriph_Driver/src/stm32f4xx_syscfg.c ****   return bitstatus;
 316              		.loc 1 182 3 is_stmt 1 view .LVU42
 317              	@ ../Libraries/STM32F4xx_StdPeriph_Driver/src/stm32f4xx_syscfg.c:183: }
 183:../Libraries/STM32F4xx_StdPeriph_Driver/src/stm32f4xx_syscfg.c **** }
 318              		.loc 1 183 1 is_stmt 0 view .LVU43
 319 0004 C0F30020 		ubfx	r0, r0, #8, #1	@, _1,,
 320              	.LVL12:
 321              		.loc 1 183 1 view .LVU44
 322 0008 7047     		bx	lr	@
 323              	.L16:
 324 000a 00BF     		.align	2
 325              	.L15:
 326 000c 00380140 		.word	1073821696
ARM GAS  C:\Users\admin\AppData\Local\Temp\ccXiJXN4.s 			page 10


 327              		.cfi_endproc
 328              	.LFE115:
 329              		.size	SYSCFG_GetCompensationCellStatus, .-SYSCFG_GetCompensationCellStatus
 330              		.text
 331              	.Letext0:
 332              		.file 2 "c:\\program files (x86)\\gnu arm embedded toolchain\\10 2021.10\\arm-none-eabi\\include\\
 333              		.file 3 "c:\\program files (x86)\\gnu arm embedded toolchain\\10 2021.10\\arm-none-eabi\\include\\
 334              		.file 4 "../Libraries/CMSIS/ST/STM32F4xx/Include/stm32f4xx.h"
 335              		.file 5 "../Libraries/STM32F4xx_StdPeriph_Driver/inc/stm32f4xx_rcc.h"