ARM GAS  C:\Users\admin\AppData\Local\Temp\ccYXfAC7.s 			page 1


   1              		.cpu cortex-m4
   2              		.arch armv7e-m
   3              		.fpu fpv4-sp-d16
   4              		.eabi_attribute 27, 1	@ Tag_ABI_HardFP_use
   5              		.eabi_attribute 28, 1	@ Tag_ABI_VFP_args
   6              		.eabi_attribute 23, 1	@ Tag_ABI_FP_number_model
   7              		.eabi_attribute 24, 1	@ Tag_ABI_align8_needed
   8              		.eabi_attribute 25, 1	@ Tag_ABI_align8_preserved
   9              		.eabi_attribute 26, 1	@ Tag_ABI_enum_size
  10              		.eabi_attribute 30, 2	@ Tag_ABI_optimization_goals
  11              		.eabi_attribute 34, 1	@ Tag_CPU_unaligned_access
  12              		.eabi_attribute 18, 4	@ Tag_ABI_PCS_wchar_t
  13              		.file	"stm32f4xx_dma.c"
  14              	@ GNU C89 (GNU Arm Embedded Toolchain 10.3-2021.10) version 10.3.1 20210824 (release) (arm-none-eab
  15              	@	compiled by GNU C version 7.3-win32 20180312, GMP version 6.1.0, MPFR version 3.1.4, MPC version 
  16              	
  17              	@ GGC heuristics: --param ggc-min-expand=100 --param ggc-min-heapsize=131072
  18              	@ options passed:  -I . -I . -I ../Utilities/STM32F4-Discovery/
  19              	@ -I ../Libraries/STM32_USB_Device_Library/Class/audio/inc/
  20              	@ -I ../Libraries/STM32_USB_Device_Library/Core/inc/
  21              	@ -I ../Libraries/STM32_USB_OTG_Driver/inc/
  22              	@ -I ../Utilities/STM32F4-Discovery/
  23              	@ -I ../Libraries/STM32F4xx_StdPeriph_Driver/inc/
  24              	@ -I ../Utilities/STM32F4-Discovery/
  25              	@ -I ../Libraries/CMSIS/ST/STM32F4xx/Include/
  26              	@ -I ../Libraries/CMSIS/Include/ -imultilib thumb/v7e-m+fp/hard
  27              	@ -iprefix c:\program files (x86)\gnu arm embedded toolchain\10 2021.10\bin\../lib/gcc/arm-none-eab
  28              	@ -isysroot c:\program files (x86)\gnu arm embedded toolchain\10 2021.10\bin\../arm-none-eabi
  29              	@ -MD out/stm32f4xx_dma.d -MF out/stm32f4xx_dma.d -MP
  30              	@ -MQ out/stm32f4xx_dma.o -D__USES_INITFINI__ -D STM32F4XX -D __VFP_FP__
  31              	@ -D USE_USB_OTG_FS
  32              	@ ../Libraries/STM32F4xx_StdPeriph_Driver/src/stm32f4xx_dma.c
  33              	@ -mcpu=cortex-m4 -mthumb -mfloat-abi=hard -mfpu=fpv4-sp-d16
  34              	@ -mlibarch=armv7e-m+fp -march=armv7e-m+fp
  35              	@ -auxbase-strip out/stm32f4xx_dma.o -g -ggdb3 -O3 -Wall
  36              	@ -Wstrict-prototypes -Wextra -std=gnu90 -ffast-math -ffunction-sections
  37              	@ -fdata-sections -fverbose-asm
  38              	@ options enabled:  -faggressive-loop-optimizations -falign-functions
  39              	@ -falign-jumps -falign-labels -falign-loops -fallocation-dce
  40              	@ -fassociative-math -fauto-inc-dec -fbranch-count-reg -fcaller-saves
  41              	@ -fcombine-stack-adjustments -fcompare-elim -fcprop-registers
  42              	@ -fcrossjumping -fcse-follow-jumps -fcx-limited-range -fdata-sections
  43              	@ -fdefer-pop -fdelete-null-pointer-checks -fdevirtualize
  44              	@ -fdevirtualize-speculatively -fdwarf2-cfi-asm -fearly-inlining
  45              	@ -feliminate-unused-debug-symbols -feliminate-unused-debug-types
  46              	@ -fexpensive-optimizations -ffinite-math-only -fforward-propagate
  47              	@ -ffp-int-builtin-inexact -ffunction-cse -ffunction-sections -fgcse
  48              	@ -fgcse-after-reload -fgcse-lm -fgnu-unique -fguess-branch-probability
  49              	@ -fhoist-adjacent-loads -fident -fif-conversion -fif-conversion2
  50              	@ -findirect-inlining -finline -finline-atomics -finline-functions
  51              	@ -finline-functions-called-once -finline-small-functions -fipa-bit-cp
  52              	@ -fipa-cp -fipa-cp-clone -fipa-icf -fipa-icf-functions -fipa-icf-variables
  53              	@ -fipa-profile -fipa-pure-const -fipa-ra -fipa-reference
  54              	@ -fipa-reference-addressable -fipa-sra -fipa-stack-alignment -fipa-vrp
  55              	@ -fira-hoist-pressure -fira-share-save-slots -fira-share-spill-slots
  56              	@ -fisolate-erroneous-paths-dereference -fivopts -fkeep-static-consts
  57              	@ -fleading-underscore -flifetime-dse -floop-interchange
ARM GAS  C:\Users\admin\AppData\Local\Temp\ccYXfAC7.s 			page 2


  58              	@ -floop-unroll-and-jam -flra-remat -fmerge-constants -fmerge-debug-strings
  59              	@ -fmove-loop-invariants -fomit-frame-pointer -foptimize-sibling-calls
  60              	@ -foptimize-strlen -fpartial-inlining -fpeel-loops -fpeephole -fpeephole2
  61              	@ -fplt -fpredictive-commoning -fprefetch-loop-arrays -freciprocal-math
  62              	@ -freg-struct-return -freorder-blocks -freorder-functions
  63              	@ -frerun-cse-after-loop -fsched-critical-path-heuristic
  64              	@ -fsched-dep-count-heuristic -fsched-group-heuristic -fsched-interblock
  65              	@ -fsched-last-insn-heuristic -fsched-pressure -fsched-rank-heuristic
  66              	@ -fsched-spec -fsched-spec-insn-heuristic -fsched-stalled-insns-dep
  67              	@ -fschedule-insns -fschedule-insns2 -fsection-anchors
  68              	@ -fsemantic-interposition -fshow-column -fshrink-wrap
  69              	@ -fshrink-wrap-separate -fsplit-ivs-in-unroller -fsplit-loops
  70              	@ -fsplit-paths -fsplit-wide-types -fssa-backprop -fssa-phiopt -fstdarg-opt
  71              	@ -fstore-merging -fstrict-aliasing -fstrict-volatile-bitfields
  72              	@ -fsync-libcalls -fthread-jumps -ftoplevel-reorder -ftree-bit-ccp
  73              	@ -ftree-builtin-call-dce -ftree-ccp -ftree-ch -ftree-coalesce-vars
  74              	@ -ftree-copy-prop -ftree-cselim -ftree-dce -ftree-dominator-opts
  75              	@ -ftree-dse -ftree-forwprop -ftree-fre -ftree-loop-distribute-patterns
  76              	@ -ftree-loop-distribution -ftree-loop-if-convert -ftree-loop-im
  77              	@ -ftree-loop-ivcanon -ftree-loop-optimize -ftree-loop-vectorize
  78              	@ -ftree-parallelize-loops= -ftree-partial-pre -ftree-phiprop -ftree-pre
  79              	@ -ftree-pta -ftree-reassoc -ftree-scev-cprop -ftree-sink
  80              	@ -ftree-slp-vectorize -ftree-slsr -ftree-sra -ftree-switch-conversion
  81              	@ -ftree-tail-merge -ftree-ter -ftree-vrp -funit-at-a-time
  82              	@ -funsafe-math-optimizations -funswitch-loops -fvar-tracking
  83              	@ -fvar-tracking-assignments -fverbose-asm -fversion-loops-for-strides
  84              	@ -fzero-initialized-in-bss -masm-syntax-unified -mbe32 -mlittle-endian
  85              	@ -mpic-data-is-text-relative -msched-prolog -mthumb -munaligned-access
  86              	@ -mvectorize-with-neon-quad
  87              	
  88              		.text
  89              	.Ltext0:
  90              		.cfi_sections	.debug_frame
  91              		.section	.text.DMA_DeInit,"ax",%progbits
  92              		.align	1
  93              		.p2align 2,,3
  94              		.global	DMA_DeInit
  95              		.syntax unified
  96              		.thumb
  97              		.thumb_func
  98              		.type	DMA_DeInit, %function
  99              	DMA_DeInit:
 100              	.LVL0:
 101              	.LFB110:
 102              		.file 1 "../Libraries/STM32F4xx_StdPeriph_Driver/src/stm32f4xx_dma.c"
   1:../Libraries/STM32F4xx_StdPeriph_Driver/src/stm32f4xx_dma.c **** /**
   2:../Libraries/STM32F4xx_StdPeriph_Driver/src/stm32f4xx_dma.c ****   ******************************************************************************
   3:../Libraries/STM32F4xx_StdPeriph_Driver/src/stm32f4xx_dma.c ****   * @file    stm32f4xx_dma.c
   4:../Libraries/STM32F4xx_StdPeriph_Driver/src/stm32f4xx_dma.c ****   * @author  MCD Application Team
   5:../Libraries/STM32F4xx_StdPeriph_Driver/src/stm32f4xx_dma.c ****   * @version V1.0.0
   6:../Libraries/STM32F4xx_StdPeriph_Driver/src/stm32f4xx_dma.c ****   * @date    30-September-2011
   7:../Libraries/STM32F4xx_StdPeriph_Driver/src/stm32f4xx_dma.c ****   * @brief   This file provides firmware functions to manage the following 
   8:../Libraries/STM32F4xx_StdPeriph_Driver/src/stm32f4xx_dma.c ****   *          functionalities of the Direct Memory Access controller (DMA):           
   9:../Libraries/STM32F4xx_StdPeriph_Driver/src/stm32f4xx_dma.c ****   *           - Initialization and Configuration
  10:../Libraries/STM32F4xx_StdPeriph_Driver/src/stm32f4xx_dma.c ****   *           - Data Counter
  11:../Libraries/STM32F4xx_StdPeriph_Driver/src/stm32f4xx_dma.c ****   *           - Double Buffer mode configuration and command  
  12:../Libraries/STM32F4xx_StdPeriph_Driver/src/stm32f4xx_dma.c ****   *           - Interrupts and flags management
ARM GAS  C:\Users\admin\AppData\Local\Temp\ccYXfAC7.s 			page 3


  13:../Libraries/STM32F4xx_StdPeriph_Driver/src/stm32f4xx_dma.c ****   *           
  14:../Libraries/STM32F4xx_StdPeriph_Driver/src/stm32f4xx_dma.c ****   *  @verbatim
  15:../Libraries/STM32F4xx_StdPeriph_Driver/src/stm32f4xx_dma.c ****   *      
  16:../Libraries/STM32F4xx_StdPeriph_Driver/src/stm32f4xx_dma.c ****   *          ===================================================================      
  17:../Libraries/STM32F4xx_StdPeriph_Driver/src/stm32f4xx_dma.c ****   *                                 How to use this driver
  18:../Libraries/STM32F4xx_StdPeriph_Driver/src/stm32f4xx_dma.c ****   *          =================================================================== 
  19:../Libraries/STM32F4xx_StdPeriph_Driver/src/stm32f4xx_dma.c ****   *          1. Enable The DMA controller clock using RCC_AHB1PeriphResetCmd(RCC_AHB1Periph_DMA1, E
  20:../Libraries/STM32F4xx_StdPeriph_Driver/src/stm32f4xx_dma.c ****   *             function for DMA1 or using RCC_AHB1PeriphResetCmd(RCC_AHB1Periph_DMA2, ENABLE)
  21:../Libraries/STM32F4xx_StdPeriph_Driver/src/stm32f4xx_dma.c ****   *             function for DMA2.
  22:../Libraries/STM32F4xx_StdPeriph_Driver/src/stm32f4xx_dma.c ****   *
  23:../Libraries/STM32F4xx_StdPeriph_Driver/src/stm32f4xx_dma.c ****   *          2. Enable and configure the peripheral to be connected to the DMA Stream
  24:../Libraries/STM32F4xx_StdPeriph_Driver/src/stm32f4xx_dma.c ****   *             (except for internal SRAM / FLASH memories: no initialization is 
  25:../Libraries/STM32F4xx_StdPeriph_Driver/src/stm32f4xx_dma.c ****   *             necessary). 
  26:../Libraries/STM32F4xx_StdPeriph_Driver/src/stm32f4xx_dma.c ****   *        
  27:../Libraries/STM32F4xx_StdPeriph_Driver/src/stm32f4xx_dma.c ****   *          3. For a given Stream, program the required configuration through following parameters
  28:../Libraries/STM32F4xx_StdPeriph_Driver/src/stm32f4xx_dma.c ****   *             Source and Destination addresses, Transfer Direction, Transfer size, Source and Des
  29:../Libraries/STM32F4xx_StdPeriph_Driver/src/stm32f4xx_dma.c ****   *             data formats, Circular or Normal mode, Stream Priority level, Source and Destinatio
  30:../Libraries/STM32F4xx_StdPeriph_Driver/src/stm32f4xx_dma.c ****   *             Incrementation mode, FIFO mode and its Threshold (if needed), Burst mode for Source
  31:../Libraries/STM32F4xx_StdPeriph_Driver/src/stm32f4xx_dma.c ****   *             Destination (if needed) using the DMA_Init() function.
  32:../Libraries/STM32F4xx_StdPeriph_Driver/src/stm32f4xx_dma.c ****   *             To avoid filling un-nesecessary fields, you can call DMA_StructInit() function
  33:../Libraries/STM32F4xx_StdPeriph_Driver/src/stm32f4xx_dma.c ****   *             to initialize a given structure with default values (reset values), the modify
  34:../Libraries/STM32F4xx_StdPeriph_Driver/src/stm32f4xx_dma.c ****   *             only necessary fields (ie. Source and Destination addresses, Transfer size and Data
  35:../Libraries/STM32F4xx_StdPeriph_Driver/src/stm32f4xx_dma.c ****   *
  36:../Libraries/STM32F4xx_StdPeriph_Driver/src/stm32f4xx_dma.c ****   *          4. Enable the NVIC and the corresponding interrupt(s) using the function 
  37:../Libraries/STM32F4xx_StdPeriph_Driver/src/stm32f4xx_dma.c ****   *             DMA_ITConfig() if you need to use DMA interrupts. 
  38:../Libraries/STM32F4xx_StdPeriph_Driver/src/stm32f4xx_dma.c ****   *
  39:../Libraries/STM32F4xx_StdPeriph_Driver/src/stm32f4xx_dma.c ****   *          5. Optionally, if the Circular mode is enabled, you can use the Double buffer mode by 
  40:../Libraries/STM32F4xx_StdPeriph_Driver/src/stm32f4xx_dma.c ****   *             the second Memory address and the first Memory to be used through the function 
  41:../Libraries/STM32F4xx_StdPeriph_Driver/src/stm32f4xx_dma.c ****   *             DMA_DoubleBufferModeConfig(). Then enable the Double buffer mode through the functi
  42:../Libraries/STM32F4xx_StdPeriph_Driver/src/stm32f4xx_dma.c ****   *             DMA_DoubleBufferModeCmd(). These operations must be done before step 6.
  43:../Libraries/STM32F4xx_StdPeriph_Driver/src/stm32f4xx_dma.c ****   *    
  44:../Libraries/STM32F4xx_StdPeriph_Driver/src/stm32f4xx_dma.c ****   *          6. Enable the DMA stream using the DMA_Cmd() function. 
  45:../Libraries/STM32F4xx_StdPeriph_Driver/src/stm32f4xx_dma.c ****   *                
  46:../Libraries/STM32F4xx_StdPeriph_Driver/src/stm32f4xx_dma.c ****   *          7. Activate the needed Stream Request using PPP_DMACmd() function for
  47:../Libraries/STM32F4xx_StdPeriph_Driver/src/stm32f4xx_dma.c ****   *             any PPP peripheral except internal SRAM and FLASH (ie. SPI, USART ...)
  48:../Libraries/STM32F4xx_StdPeriph_Driver/src/stm32f4xx_dma.c ****   *             The function allowing this operation is provided in each PPP peripheral
  49:../Libraries/STM32F4xx_StdPeriph_Driver/src/stm32f4xx_dma.c ****   *             driver (ie. SPI_DMACmd for SPI peripheral).
  50:../Libraries/STM32F4xx_StdPeriph_Driver/src/stm32f4xx_dma.c ****   *             Once the Stream is enabled, it is not possible to modify its configuration
  51:../Libraries/STM32F4xx_StdPeriph_Driver/src/stm32f4xx_dma.c ****   *             unless the stream is stopped and disabled.
  52:../Libraries/STM32F4xx_StdPeriph_Driver/src/stm32f4xx_dma.c ****   *             After enabling the Stream, it is advised to monitor the EN bit status using
  53:../Libraries/STM32F4xx_StdPeriph_Driver/src/stm32f4xx_dma.c ****   *             the function DMA_GetCmdStatus(). In case of configuration errors or bus errors
  54:../Libraries/STM32F4xx_StdPeriph_Driver/src/stm32f4xx_dma.c ****   *             this bit will remain reset and all transfers on this Stream will remain on hold.   
  55:../Libraries/STM32F4xx_StdPeriph_Driver/src/stm32f4xx_dma.c ****   *
  56:../Libraries/STM32F4xx_StdPeriph_Driver/src/stm32f4xx_dma.c ****   *          8. Optionally, you can configure the number of data to be transferred
  57:../Libraries/STM32F4xx_StdPeriph_Driver/src/stm32f4xx_dma.c ****   *             when the Stream is disabled (ie. after each Transfer Complete event
  58:../Libraries/STM32F4xx_StdPeriph_Driver/src/stm32f4xx_dma.c ****   *             or when a Transfer Error occurs) using the function DMA_SetCurrDataCounter().
  59:../Libraries/STM32F4xx_StdPeriph_Driver/src/stm32f4xx_dma.c ****   *             And you can get the number of remaining data to be transferred using 
  60:../Libraries/STM32F4xx_StdPeriph_Driver/src/stm32f4xx_dma.c ****   *             the function DMA_GetCurrDataCounter() at run time (when the DMA Stream is
  61:../Libraries/STM32F4xx_StdPeriph_Driver/src/stm32f4xx_dma.c ****   *             enabled and running).  
  62:../Libraries/STM32F4xx_StdPeriph_Driver/src/stm32f4xx_dma.c ****   *                   
  63:../Libraries/STM32F4xx_StdPeriph_Driver/src/stm32f4xx_dma.c ****   *          9. To control DMA events you can use one of the following 
  64:../Libraries/STM32F4xx_StdPeriph_Driver/src/stm32f4xx_dma.c ****   *              two methods:
  65:../Libraries/STM32F4xx_StdPeriph_Driver/src/stm32f4xx_dma.c ****   *               a- Check on DMA Stream flags using the function DMA_GetFlagStatus().  
  66:../Libraries/STM32F4xx_StdPeriph_Driver/src/stm32f4xx_dma.c ****   *               b- Use DMA interrupts through the function DMA_ITConfig() at initialization
  67:../Libraries/STM32F4xx_StdPeriph_Driver/src/stm32f4xx_dma.c ****   *                  phase and DMA_GetITStatus() function into interrupt routines in
  68:../Libraries/STM32F4xx_StdPeriph_Driver/src/stm32f4xx_dma.c ****   *                  communication phase.  
  69:../Libraries/STM32F4xx_StdPeriph_Driver/src/stm32f4xx_dma.c ****   *              After checking on a flag you should clear it using DMA_ClearFlag()
ARM GAS  C:\Users\admin\AppData\Local\Temp\ccYXfAC7.s 			page 4


  70:../Libraries/STM32F4xx_StdPeriph_Driver/src/stm32f4xx_dma.c ****   *              function. And after checking on an interrupt event you should 
  71:../Libraries/STM32F4xx_StdPeriph_Driver/src/stm32f4xx_dma.c ****   *              clear it using DMA_ClearITPendingBit() function.    
  72:../Libraries/STM32F4xx_StdPeriph_Driver/src/stm32f4xx_dma.c ****   *              
  73:../Libraries/STM32F4xx_StdPeriph_Driver/src/stm32f4xx_dma.c ****   *          10. Optionally, if Circular mode and Double Buffer mode are enabled, you can modify
  74:../Libraries/STM32F4xx_StdPeriph_Driver/src/stm32f4xx_dma.c ****   *              the Memory Addresses using the function DMA_MemoryTargetConfig(). Make sure that
  75:../Libraries/STM32F4xx_StdPeriph_Driver/src/stm32f4xx_dma.c ****   *              the Memory Address to be modified is not the one currently in use by DMA Stream.
  76:../Libraries/STM32F4xx_StdPeriph_Driver/src/stm32f4xx_dma.c ****   *              This condition can be monitored using the function DMA_GetCurrentMemoryTarget().
  77:../Libraries/STM32F4xx_StdPeriph_Driver/src/stm32f4xx_dma.c ****   *              
  78:../Libraries/STM32F4xx_StdPeriph_Driver/src/stm32f4xx_dma.c ****   *          11. Optionally, Pause-Resume operations may be performed:
  79:../Libraries/STM32F4xx_StdPeriph_Driver/src/stm32f4xx_dma.c ****   *              The DMA_Cmd() function may be used to perform Pause-Resume operation. When a 
  80:../Libraries/STM32F4xx_StdPeriph_Driver/src/stm32f4xx_dma.c ****   *              transfer is ongoing, calling this function to disable the Stream will cause the 
  81:../Libraries/STM32F4xx_StdPeriph_Driver/src/stm32f4xx_dma.c ****   *              transfer to be paused. All configuration registers and the number of remaining 
  82:../Libraries/STM32F4xx_StdPeriph_Driver/src/stm32f4xx_dma.c ****   *              data will be preserved. When calling again this function to re-enable the Stream, 
  83:../Libraries/STM32F4xx_StdPeriph_Driver/src/stm32f4xx_dma.c ****   *              the transfer will be resumed from the point where it was paused.          
  84:../Libraries/STM32F4xx_StdPeriph_Driver/src/stm32f4xx_dma.c ****   *                 
  85:../Libraries/STM32F4xx_StdPeriph_Driver/src/stm32f4xx_dma.c ****   * @note   Memory-to-Memory transfer is possible by setting the address of the memory into
  86:../Libraries/STM32F4xx_StdPeriph_Driver/src/stm32f4xx_dma.c ****   *         the Peripheral registers. In this mode, Circular mode and Double Buffer mode
  87:../Libraries/STM32F4xx_StdPeriph_Driver/src/stm32f4xx_dma.c ****   *         are not allowed.
  88:../Libraries/STM32F4xx_StdPeriph_Driver/src/stm32f4xx_dma.c ****   *  
  89:../Libraries/STM32F4xx_StdPeriph_Driver/src/stm32f4xx_dma.c ****   * @note   The FIFO is used mainly to reduce bus usage and to allow data packing/unpacking: it is
  90:../Libraries/STM32F4xx_StdPeriph_Driver/src/stm32f4xx_dma.c ****   *         possible to set different Data Sizes for the Peripheral and the Memory (ie. you can set
  91:../Libraries/STM32F4xx_StdPeriph_Driver/src/stm32f4xx_dma.c ****   *         Half-Word data size for the peripheral to access its data register and set Word data si
  92:../Libraries/STM32F4xx_StdPeriph_Driver/src/stm32f4xx_dma.c ****   *         for the Memory to gain in access time. Each two Half-words will be packed and written i
  93:../Libraries/STM32F4xx_StdPeriph_Driver/src/stm32f4xx_dma.c ****   *         a single access to a Word in the Memory).
  94:../Libraries/STM32F4xx_StdPeriph_Driver/src/stm32f4xx_dma.c ****   *    
  95:../Libraries/STM32F4xx_StdPeriph_Driver/src/stm32f4xx_dma.c ****   * @note  When FIFO is disabled, it is not allowed to configure different Data Sizes for Source
  96:../Libraries/STM32F4xx_StdPeriph_Driver/src/stm32f4xx_dma.c ****   *        and Destination. In this case the Peripheral Data Size will be applied to both Source
  97:../Libraries/STM32F4xx_StdPeriph_Driver/src/stm32f4xx_dma.c ****   *        and Destination.               
  98:../Libraries/STM32F4xx_StdPeriph_Driver/src/stm32f4xx_dma.c ****   *
  99:../Libraries/STM32F4xx_StdPeriph_Driver/src/stm32f4xx_dma.c ****   *  @endverbatim
 100:../Libraries/STM32F4xx_StdPeriph_Driver/src/stm32f4xx_dma.c ****   *                                  
 101:../Libraries/STM32F4xx_StdPeriph_Driver/src/stm32f4xx_dma.c ****   ******************************************************************************
 102:../Libraries/STM32F4xx_StdPeriph_Driver/src/stm32f4xx_dma.c ****   * @attention
 103:../Libraries/STM32F4xx_StdPeriph_Driver/src/stm32f4xx_dma.c ****   *
 104:../Libraries/STM32F4xx_StdPeriph_Driver/src/stm32f4xx_dma.c ****   * THE PRESENT FIRMWARE WHICH IS FOR GUIDANCE ONLY AIMS AT PROVIDING CUSTOMERS
 105:../Libraries/STM32F4xx_StdPeriph_Driver/src/stm32f4xx_dma.c ****   * WITH CODING INFORMATION REGARDING THEIR PRODUCTS IN ORDER FOR THEM TO SAVE
 106:../Libraries/STM32F4xx_StdPeriph_Driver/src/stm32f4xx_dma.c ****   * TIME. AS A RESULT, STMICROELECTRONICS SHALL NOT BE HELD LIABLE FOR ANY
 107:../Libraries/STM32F4xx_StdPeriph_Driver/src/stm32f4xx_dma.c ****   * DIRECT, INDIRECT OR CONSEQUENTIAL DAMAGES WITH RESPECT TO ANY CLAIMS ARISING
 108:../Libraries/STM32F4xx_StdPeriph_Driver/src/stm32f4xx_dma.c ****   * FROM THE CONTENT OF SUCH FIRMWARE AND/OR THE USE MADE BY CUSTOMERS OF THE
 109:../Libraries/STM32F4xx_StdPeriph_Driver/src/stm32f4xx_dma.c ****   * CODING INFORMATION CONTAINED HEREIN IN CONNECTION WITH THEIR PRODUCTS.
 110:../Libraries/STM32F4xx_StdPeriph_Driver/src/stm32f4xx_dma.c ****   *
 111:../Libraries/STM32F4xx_StdPeriph_Driver/src/stm32f4xx_dma.c ****   * <h2><center>&copy; COPYRIGHT 2011 STMicroelectronics</center></h2>
 112:../Libraries/STM32F4xx_StdPeriph_Driver/src/stm32f4xx_dma.c ****   ******************************************************************************  
 113:../Libraries/STM32F4xx_StdPeriph_Driver/src/stm32f4xx_dma.c ****   */ 
 114:../Libraries/STM32F4xx_StdPeriph_Driver/src/stm32f4xx_dma.c **** 
 115:../Libraries/STM32F4xx_StdPeriph_Driver/src/stm32f4xx_dma.c **** /* Includes ------------------------------------------------------------------*/
 116:../Libraries/STM32F4xx_StdPeriph_Driver/src/stm32f4xx_dma.c **** #include "stm32f4xx_dma.h"
 117:../Libraries/STM32F4xx_StdPeriph_Driver/src/stm32f4xx_dma.c **** #include "stm32f4xx_rcc.h"
 118:../Libraries/STM32F4xx_StdPeriph_Driver/src/stm32f4xx_dma.c **** #include <stm32f4xx_conf.h>
 119:../Libraries/STM32F4xx_StdPeriph_Driver/src/stm32f4xx_dma.c **** /** @addtogroup STM32F4xx_StdPeriph_Driver
 120:../Libraries/STM32F4xx_StdPeriph_Driver/src/stm32f4xx_dma.c ****   * @{
 121:../Libraries/STM32F4xx_StdPeriph_Driver/src/stm32f4xx_dma.c ****   */
 122:../Libraries/STM32F4xx_StdPeriph_Driver/src/stm32f4xx_dma.c **** 
 123:../Libraries/STM32F4xx_StdPeriph_Driver/src/stm32f4xx_dma.c **** /** @defgroup DMA 
 124:../Libraries/STM32F4xx_StdPeriph_Driver/src/stm32f4xx_dma.c ****   * @brief DMA driver modules
 125:../Libraries/STM32F4xx_StdPeriph_Driver/src/stm32f4xx_dma.c ****   * @{
 126:../Libraries/STM32F4xx_StdPeriph_Driver/src/stm32f4xx_dma.c ****   */ 
ARM GAS  C:\Users\admin\AppData\Local\Temp\ccYXfAC7.s 			page 5


 127:../Libraries/STM32F4xx_StdPeriph_Driver/src/stm32f4xx_dma.c **** 
 128:../Libraries/STM32F4xx_StdPeriph_Driver/src/stm32f4xx_dma.c **** /* Private typedef -----------------------------------------------------------*/
 129:../Libraries/STM32F4xx_StdPeriph_Driver/src/stm32f4xx_dma.c **** /* Private define ------------------------------------------------------------*/
 130:../Libraries/STM32F4xx_StdPeriph_Driver/src/stm32f4xx_dma.c **** 
 131:../Libraries/STM32F4xx_StdPeriph_Driver/src/stm32f4xx_dma.c **** /* Masks Definition */
 132:../Libraries/STM32F4xx_StdPeriph_Driver/src/stm32f4xx_dma.c **** #define TRANSFER_IT_ENABLE_MASK (uint32_t)(DMA_SxCR_TCIE | DMA_SxCR_HTIE | \
 133:../Libraries/STM32F4xx_StdPeriph_Driver/src/stm32f4xx_dma.c ****                                            DMA_SxCR_TEIE | DMA_SxCR_DMEIE)
 134:../Libraries/STM32F4xx_StdPeriph_Driver/src/stm32f4xx_dma.c **** 
 135:../Libraries/STM32F4xx_StdPeriph_Driver/src/stm32f4xx_dma.c **** #define DMA_Stream0_IT_MASK     (uint32_t)(DMA_LISR_FEIF0 | DMA_LISR_DMEIF0 | \
 136:../Libraries/STM32F4xx_StdPeriph_Driver/src/stm32f4xx_dma.c ****                                            DMA_LISR_TEIF0 | DMA_LISR_HTIF0 | \
 137:../Libraries/STM32F4xx_StdPeriph_Driver/src/stm32f4xx_dma.c ****                                            DMA_LISR_TCIF0)
 138:../Libraries/STM32F4xx_StdPeriph_Driver/src/stm32f4xx_dma.c **** 
 139:../Libraries/STM32F4xx_StdPeriph_Driver/src/stm32f4xx_dma.c **** #define DMA_Stream1_IT_MASK     (uint32_t)(DMA_Stream0_IT_MASK << 6)
 140:../Libraries/STM32F4xx_StdPeriph_Driver/src/stm32f4xx_dma.c **** #define DMA_Stream2_IT_MASK     (uint32_t)(DMA_Stream0_IT_MASK << 16)
 141:../Libraries/STM32F4xx_StdPeriph_Driver/src/stm32f4xx_dma.c **** #define DMA_Stream3_IT_MASK     (uint32_t)(DMA_Stream0_IT_MASK << 22)
 142:../Libraries/STM32F4xx_StdPeriph_Driver/src/stm32f4xx_dma.c **** #define DMA_Stream4_IT_MASK     (uint32_t)(DMA_Stream0_IT_MASK | (uint32_t)0x20000000)
 143:../Libraries/STM32F4xx_StdPeriph_Driver/src/stm32f4xx_dma.c **** #define DMA_Stream5_IT_MASK     (uint32_t)(DMA_Stream1_IT_MASK | (uint32_t)0x20000000)
 144:../Libraries/STM32F4xx_StdPeriph_Driver/src/stm32f4xx_dma.c **** #define DMA_Stream6_IT_MASK     (uint32_t)(DMA_Stream2_IT_MASK | (uint32_t)0x20000000)
 145:../Libraries/STM32F4xx_StdPeriph_Driver/src/stm32f4xx_dma.c **** #define DMA_Stream7_IT_MASK     (uint32_t)(DMA_Stream3_IT_MASK | (uint32_t)0x20000000)
 146:../Libraries/STM32F4xx_StdPeriph_Driver/src/stm32f4xx_dma.c **** #define TRANSFER_IT_MASK        (uint32_t)0x0F3C0F3C
 147:../Libraries/STM32F4xx_StdPeriph_Driver/src/stm32f4xx_dma.c **** #define HIGH_ISR_MASK           (uint32_t)0x20000000
 148:../Libraries/STM32F4xx_StdPeriph_Driver/src/stm32f4xx_dma.c **** #define RESERVED_MASK           (uint32_t)0x0F7D0F7D  
 149:../Libraries/STM32F4xx_StdPeriph_Driver/src/stm32f4xx_dma.c **** 
 150:../Libraries/STM32F4xx_StdPeriph_Driver/src/stm32f4xx_dma.c **** /* Private macro -------------------------------------------------------------*/
 151:../Libraries/STM32F4xx_StdPeriph_Driver/src/stm32f4xx_dma.c **** /* Private variables ---------------------------------------------------------*/
 152:../Libraries/STM32F4xx_StdPeriph_Driver/src/stm32f4xx_dma.c **** /* Private function prototypes -----------------------------------------------*/
 153:../Libraries/STM32F4xx_StdPeriph_Driver/src/stm32f4xx_dma.c **** /* Private functions ---------------------------------------------------------*/
 154:../Libraries/STM32F4xx_StdPeriph_Driver/src/stm32f4xx_dma.c **** 
 155:../Libraries/STM32F4xx_StdPeriph_Driver/src/stm32f4xx_dma.c **** 
 156:../Libraries/STM32F4xx_StdPeriph_Driver/src/stm32f4xx_dma.c **** /** @defgroup DMA_Private_Functions
 157:../Libraries/STM32F4xx_StdPeriph_Driver/src/stm32f4xx_dma.c ****   * @{
 158:../Libraries/STM32F4xx_StdPeriph_Driver/src/stm32f4xx_dma.c ****   */
 159:../Libraries/STM32F4xx_StdPeriph_Driver/src/stm32f4xx_dma.c **** 
 160:../Libraries/STM32F4xx_StdPeriph_Driver/src/stm32f4xx_dma.c **** /** @defgroup DMA_Group1 Initialization and Configuration functions
 161:../Libraries/STM32F4xx_StdPeriph_Driver/src/stm32f4xx_dma.c ****  *  @brief   Initialization and Configuration functions
 162:../Libraries/STM32F4xx_StdPeriph_Driver/src/stm32f4xx_dma.c ****  *
 163:../Libraries/STM32F4xx_StdPeriph_Driver/src/stm32f4xx_dma.c **** @verbatim   
 164:../Libraries/STM32F4xx_StdPeriph_Driver/src/stm32f4xx_dma.c ****  ===============================================================================
 165:../Libraries/STM32F4xx_StdPeriph_Driver/src/stm32f4xx_dma.c ****                  Initialization and Configuration functions
 166:../Libraries/STM32F4xx_StdPeriph_Driver/src/stm32f4xx_dma.c ****  ===============================================================================  
 167:../Libraries/STM32F4xx_StdPeriph_Driver/src/stm32f4xx_dma.c **** 
 168:../Libraries/STM32F4xx_StdPeriph_Driver/src/stm32f4xx_dma.c ****   This subsection provides functions allowing to initialize the DMA Stream source
 169:../Libraries/STM32F4xx_StdPeriph_Driver/src/stm32f4xx_dma.c ****   and destination addresses, incrementation and data sizes, transfer direction, 
 170:../Libraries/STM32F4xx_StdPeriph_Driver/src/stm32f4xx_dma.c ****   buffer size, circular/normal mode selection, memory-to-memory mode selection 
 171:../Libraries/STM32F4xx_StdPeriph_Driver/src/stm32f4xx_dma.c ****   and Stream priority value.
 172:../Libraries/STM32F4xx_StdPeriph_Driver/src/stm32f4xx_dma.c ****   
 173:../Libraries/STM32F4xx_StdPeriph_Driver/src/stm32f4xx_dma.c ****   The DMA_Init() function follows the DMA configuration procedures as described in
 174:../Libraries/STM32F4xx_StdPeriph_Driver/src/stm32f4xx_dma.c ****   reference manual (RM0090) except the first point: waiting on EN bit to be reset.
 175:../Libraries/STM32F4xx_StdPeriph_Driver/src/stm32f4xx_dma.c ****   This condition should be checked by user application using the function DMA_GetCmdStatus()
 176:../Libraries/STM32F4xx_StdPeriph_Driver/src/stm32f4xx_dma.c ****   before calling the DMA_Init() function.
 177:../Libraries/STM32F4xx_StdPeriph_Driver/src/stm32f4xx_dma.c **** 
 178:../Libraries/STM32F4xx_StdPeriph_Driver/src/stm32f4xx_dma.c **** @endverbatim
 179:../Libraries/STM32F4xx_StdPeriph_Driver/src/stm32f4xx_dma.c ****   * @{
 180:../Libraries/STM32F4xx_StdPeriph_Driver/src/stm32f4xx_dma.c ****   */
 181:../Libraries/STM32F4xx_StdPeriph_Driver/src/stm32f4xx_dma.c **** 
 182:../Libraries/STM32F4xx_StdPeriph_Driver/src/stm32f4xx_dma.c **** /**
 183:../Libraries/STM32F4xx_StdPeriph_Driver/src/stm32f4xx_dma.c ****   * @brief  Deinitialize the DMAy Streamx registers to their default reset values.
ARM GAS  C:\Users\admin\AppData\Local\Temp\ccYXfAC7.s 			page 6


 184:../Libraries/STM32F4xx_StdPeriph_Driver/src/stm32f4xx_dma.c ****   * @param  DMAy_Streamx: where y can be 1 or 2 to select the DMA and x can be 0
 185:../Libraries/STM32F4xx_StdPeriph_Driver/src/stm32f4xx_dma.c ****   *         to 7 to select the DMA Stream.
 186:../Libraries/STM32F4xx_StdPeriph_Driver/src/stm32f4xx_dma.c ****   * @retval None
 187:../Libraries/STM32F4xx_StdPeriph_Driver/src/stm32f4xx_dma.c ****   */
 188:../Libraries/STM32F4xx_StdPeriph_Driver/src/stm32f4xx_dma.c **** void DMA_DeInit(DMA_Stream_TypeDef* DMAy_Streamx)
 189:../Libraries/STM32F4xx_StdPeriph_Driver/src/stm32f4xx_dma.c **** {
 103              		.loc 1 189 1 view -0
 104              		.cfi_startproc
 105              		@ args = 0, pretend = 0, frame = 0
 106              		@ frame_needed = 0, uses_anonymous_args = 0
 107              		@ link register save eliminated.
 190:../Libraries/STM32F4xx_StdPeriph_Driver/src/stm32f4xx_dma.c ****   /* Check the parameters */
 191:../Libraries/STM32F4xx_StdPeriph_Driver/src/stm32f4xx_dma.c ****   assert_param(IS_DMA_ALL_PERIPH(DMAy_Streamx));
 108              		.loc 1 191 3 view .LVU1
 192:../Libraries/STM32F4xx_StdPeriph_Driver/src/stm32f4xx_dma.c **** 
 193:../Libraries/STM32F4xx_StdPeriph_Driver/src/stm32f4xx_dma.c ****   /* Disable the selected DMAy Streamx */
 194:../Libraries/STM32F4xx_StdPeriph_Driver/src/stm32f4xx_dma.c ****   DMAy_Streamx->CR &= ~((uint32_t)DMA_SxCR_EN);
 109              		.loc 1 194 3 view .LVU2
 110              	@ ../Libraries/STM32F4xx_StdPeriph_Driver/src/stm32f4xx_dma.c:194:   DMAy_Streamx->CR &= ~((uint32_
 111              		.loc 1 194 20 is_stmt 0 view .LVU3
 112 0000 0268     		ldr	r2, [r0]	@ _1, DMAy_Streamx_5(D)->CR
 113              	@ ../Libraries/STM32F4xx_StdPeriph_Driver/src/stm32f4xx_dma.c:215:   if (DMAy_Streamx == DMA1_Strea
 195:../Libraries/STM32F4xx_StdPeriph_Driver/src/stm32f4xx_dma.c **** 
 196:../Libraries/STM32F4xx_StdPeriph_Driver/src/stm32f4xx_dma.c ****   /* Reset DMAy Streamx control register */
 197:../Libraries/STM32F4xx_StdPeriph_Driver/src/stm32f4xx_dma.c ****   DMAy_Streamx->CR  = 0;
 198:../Libraries/STM32F4xx_StdPeriph_Driver/src/stm32f4xx_dma.c ****   
 199:../Libraries/STM32F4xx_StdPeriph_Driver/src/stm32f4xx_dma.c ****   /* Reset DMAy Streamx Number of Data to Transfer register */
 200:../Libraries/STM32F4xx_StdPeriph_Driver/src/stm32f4xx_dma.c ****   DMAy_Streamx->NDTR = 0;
 201:../Libraries/STM32F4xx_StdPeriph_Driver/src/stm32f4xx_dma.c ****   
 202:../Libraries/STM32F4xx_StdPeriph_Driver/src/stm32f4xx_dma.c ****   /* Reset DMAy Streamx peripheral address register */
 203:../Libraries/STM32F4xx_StdPeriph_Driver/src/stm32f4xx_dma.c ****   DMAy_Streamx->PAR  = 0;
 204:../Libraries/STM32F4xx_StdPeriph_Driver/src/stm32f4xx_dma.c ****   
 205:../Libraries/STM32F4xx_StdPeriph_Driver/src/stm32f4xx_dma.c ****   /* Reset DMAy Streamx memory 0 address register */
 206:../Libraries/STM32F4xx_StdPeriph_Driver/src/stm32f4xx_dma.c ****   DMAy_Streamx->M0AR = 0;
 207:../Libraries/STM32F4xx_StdPeriph_Driver/src/stm32f4xx_dma.c **** 
 208:../Libraries/STM32F4xx_StdPeriph_Driver/src/stm32f4xx_dma.c ****   /* Reset DMAy Streamx memory 1 address register */
 209:../Libraries/STM32F4xx_StdPeriph_Driver/src/stm32f4xx_dma.c ****   DMAy_Streamx->M1AR = 0;
 210:../Libraries/STM32F4xx_StdPeriph_Driver/src/stm32f4xx_dma.c **** 
 211:../Libraries/STM32F4xx_StdPeriph_Driver/src/stm32f4xx_dma.c ****   /* Reset DMAy Streamx FIFO control register */
 212:../Libraries/STM32F4xx_StdPeriph_Driver/src/stm32f4xx_dma.c ****   DMAy_Streamx->FCR = (uint32_t)0x00000021; 
 213:../Libraries/STM32F4xx_StdPeriph_Driver/src/stm32f4xx_dma.c **** 
 214:../Libraries/STM32F4xx_StdPeriph_Driver/src/stm32f4xx_dma.c ****   /* Reset interrupt pending bits for the selected stream */
 215:../Libraries/STM32F4xx_StdPeriph_Driver/src/stm32f4xx_dma.c ****   if (DMAy_Streamx == DMA1_Stream0)
 114              		.loc 1 215 6 view .LVU4
 115 0002 3649     		ldr	r1, .L29	@ tmp122,
 116              	@ ../Libraries/STM32F4xx_StdPeriph_Driver/src/stm32f4xx_dma.c:197:   DMAy_Streamx->CR  = 0;
 197:../Libraries/STM32F4xx_StdPeriph_Driver/src/stm32f4xx_dma.c ****   
 117              		.loc 1 197 21 view .LVU5
 118 0004 0023     		movs	r3, #0	@ tmp116,
 119              	@ ../Libraries/STM32F4xx_StdPeriph_Driver/src/stm32f4xx_dma.c:189: {
 189:../Libraries/STM32F4xx_StdPeriph_Driver/src/stm32f4xx_dma.c ****   /* Check the parameters */
 120              		.loc 1 189 1 view .LVU6
 121 0006 10B4     		push	{r4}	@
 122              		.cfi_def_cfa_offset 4
 123              		.cfi_offset 4, -4
 124              	@ ../Libraries/STM32F4xx_StdPeriph_Driver/src/stm32f4xx_dma.c:194:   DMAy_Streamx->CR &= ~((uint32_
 194:../Libraries/STM32F4xx_StdPeriph_Driver/src/stm32f4xx_dma.c **** 
ARM GAS  C:\Users\admin\AppData\Local\Temp\ccYXfAC7.s 			page 7


 125              		.loc 1 194 20 view .LVU7
 126 0008 22F00102 		bic	r2, r2, #1	@ _2, _1,
 127              	@ ../Libraries/STM32F4xx_StdPeriph_Driver/src/stm32f4xx_dma.c:212:   DMAy_Streamx->FCR = (uint32_t)
 212:../Libraries/STM32F4xx_StdPeriph_Driver/src/stm32f4xx_dma.c **** 
 128              		.loc 1 212 21 view .LVU8
 129 000c 2124     		movs	r4, #33	@ tmp121,
 130              	@ ../Libraries/STM32F4xx_StdPeriph_Driver/src/stm32f4xx_dma.c:215:   if (DMAy_Streamx == DMA1_Strea
 131              		.loc 1 215 6 view .LVU9
 132 000e 8842     		cmp	r0, r1	@ DMAy_Streamx, tmp122
 133              	@ ../Libraries/STM32F4xx_StdPeriph_Driver/src/stm32f4xx_dma.c:194:   DMAy_Streamx->CR &= ~((uint32_
 194:../Libraries/STM32F4xx_StdPeriph_Driver/src/stm32f4xx_dma.c **** 
 134              		.loc 1 194 20 view .LVU10
 135 0010 0260     		str	r2, [r0]	@ _2, DMAy_Streamx_5(D)->CR
 197:../Libraries/STM32F4xx_StdPeriph_Driver/src/stm32f4xx_dma.c ****   
 136              		.loc 1 197 3 is_stmt 1 view .LVU11
 137              	@ ../Libraries/STM32F4xx_StdPeriph_Driver/src/stm32f4xx_dma.c:197:   DMAy_Streamx->CR  = 0;
 197:../Libraries/STM32F4xx_StdPeriph_Driver/src/stm32f4xx_dma.c ****   
 138              		.loc 1 197 21 is_stmt 0 view .LVU12
 139 0012 0360     		str	r3, [r0]	@ tmp116, DMAy_Streamx_5(D)->CR
 200:../Libraries/STM32F4xx_StdPeriph_Driver/src/stm32f4xx_dma.c ****   
 140              		.loc 1 200 3 is_stmt 1 view .LVU13
 141              	@ ../Libraries/STM32F4xx_StdPeriph_Driver/src/stm32f4xx_dma.c:200:   DMAy_Streamx->NDTR = 0;
 200:../Libraries/STM32F4xx_StdPeriph_Driver/src/stm32f4xx_dma.c ****   
 142              		.loc 1 200 22 is_stmt 0 view .LVU14
 143 0014 4360     		str	r3, [r0, #4]	@ tmp116, DMAy_Streamx_5(D)->NDTR
 203:../Libraries/STM32F4xx_StdPeriph_Driver/src/stm32f4xx_dma.c ****   
 144              		.loc 1 203 3 is_stmt 1 view .LVU15
 145              	@ ../Libraries/STM32F4xx_StdPeriph_Driver/src/stm32f4xx_dma.c:203:   DMAy_Streamx->PAR  = 0;
 203:../Libraries/STM32F4xx_StdPeriph_Driver/src/stm32f4xx_dma.c ****   
 146              		.loc 1 203 22 is_stmt 0 view .LVU16
 147 0016 8360     		str	r3, [r0, #8]	@ tmp116, DMAy_Streamx_5(D)->PAR
 206:../Libraries/STM32F4xx_StdPeriph_Driver/src/stm32f4xx_dma.c **** 
 148              		.loc 1 206 3 is_stmt 1 view .LVU17
 149              	@ ../Libraries/STM32F4xx_StdPeriph_Driver/src/stm32f4xx_dma.c:206:   DMAy_Streamx->M0AR = 0;
 206:../Libraries/STM32F4xx_StdPeriph_Driver/src/stm32f4xx_dma.c **** 
 150              		.loc 1 206 22 is_stmt 0 view .LVU18
 151 0018 C360     		str	r3, [r0, #12]	@ tmp116, DMAy_Streamx_5(D)->M0AR
 209:../Libraries/STM32F4xx_StdPeriph_Driver/src/stm32f4xx_dma.c **** 
 152              		.loc 1 209 3 is_stmt 1 view .LVU19
 153              	@ ../Libraries/STM32F4xx_StdPeriph_Driver/src/stm32f4xx_dma.c:209:   DMAy_Streamx->M1AR = 0;
 209:../Libraries/STM32F4xx_StdPeriph_Driver/src/stm32f4xx_dma.c **** 
 154              		.loc 1 209 22 is_stmt 0 view .LVU20
 155 001a 0361     		str	r3, [r0, #16]	@ tmp116, DMAy_Streamx_5(D)->M1AR
 212:../Libraries/STM32F4xx_StdPeriph_Driver/src/stm32f4xx_dma.c **** 
 156              		.loc 1 212 3 is_stmt 1 view .LVU21
 157              	@ ../Libraries/STM32F4xx_StdPeriph_Driver/src/stm32f4xx_dma.c:212:   DMAy_Streamx->FCR = (uint32_t)
 212:../Libraries/STM32F4xx_StdPeriph_Driver/src/stm32f4xx_dma.c **** 
 158              		.loc 1 212 21 is_stmt 0 view .LVU22
 159 001c 4461     		str	r4, [r0, #20]	@ tmp121, DMAy_Streamx_5(D)->FCR
 160              		.loc 1 215 3 is_stmt 1 view .LVU23
 161              	@ ../Libraries/STM32F4xx_StdPeriph_Driver/src/stm32f4xx_dma.c:215:   if (DMAy_Streamx == DMA1_Strea
 162              		.loc 1 215 6 is_stmt 0 view .LVU24
 163 001e 38D0     		beq	.L27		@,
 216:../Libraries/STM32F4xx_StdPeriph_Driver/src/stm32f4xx_dma.c ****   {
 217:../Libraries/STM32F4xx_StdPeriph_Driver/src/stm32f4xx_dma.c ****     /* Reset interrupt pending bits for DMA1 Stream0 */
 218:../Libraries/STM32F4xx_StdPeriph_Driver/src/stm32f4xx_dma.c ****     DMA1->LIFCR = DMA_Stream0_IT_MASK;
 219:../Libraries/STM32F4xx_StdPeriph_Driver/src/stm32f4xx_dma.c ****   }
ARM GAS  C:\Users\admin\AppData\Local\Temp\ccYXfAC7.s 			page 8


 220:../Libraries/STM32F4xx_StdPeriph_Driver/src/stm32f4xx_dma.c ****   else if (DMAy_Streamx == DMA1_Stream1)
 164              		.loc 1 220 8 is_stmt 1 view .LVU25
 165              	@ ../Libraries/STM32F4xx_StdPeriph_Driver/src/stm32f4xx_dma.c:220:   else if (DMAy_Streamx == DMA1_
 166              		.loc 1 220 11 is_stmt 0 view .LVU26
 167 0020 2F4B     		ldr	r3, .L29+4	@ tmp125,
 168 0022 9842     		cmp	r0, r3	@ DMAy_Streamx, tmp125
 169 0024 2ED0     		beq	.L19		@,
 221:../Libraries/STM32F4xx_StdPeriph_Driver/src/stm32f4xx_dma.c ****   {
 222:../Libraries/STM32F4xx_StdPeriph_Driver/src/stm32f4xx_dma.c ****     /* Reset interrupt pending bits for DMA1 Stream1 */
 223:../Libraries/STM32F4xx_StdPeriph_Driver/src/stm32f4xx_dma.c ****     DMA1->LIFCR = DMA_Stream1_IT_MASK;
 224:../Libraries/STM32F4xx_StdPeriph_Driver/src/stm32f4xx_dma.c ****   }
 225:../Libraries/STM32F4xx_StdPeriph_Driver/src/stm32f4xx_dma.c ****   else if (DMAy_Streamx == DMA1_Stream2)
 170              		.loc 1 225 8 is_stmt 1 view .LVU27
 171              	@ ../Libraries/STM32F4xx_StdPeriph_Driver/src/stm32f4xx_dma.c:225:   else if (DMAy_Streamx == DMA1_
 172              		.loc 1 225 11 is_stmt 0 view .LVU28
 173 0026 2F4B     		ldr	r3, .L29+8	@ tmp128,
 174 0028 9842     		cmp	r0, r3	@ DMAy_Streamx, tmp128
 175 002a 3CD0     		beq	.L20		@,
 226:../Libraries/STM32F4xx_StdPeriph_Driver/src/stm32f4xx_dma.c ****   {
 227:../Libraries/STM32F4xx_StdPeriph_Driver/src/stm32f4xx_dma.c ****     /* Reset interrupt pending bits for DMA1 Stream2 */
 228:../Libraries/STM32F4xx_StdPeriph_Driver/src/stm32f4xx_dma.c ****     DMA1->LIFCR = DMA_Stream2_IT_MASK;
 229:../Libraries/STM32F4xx_StdPeriph_Driver/src/stm32f4xx_dma.c ****   }
 230:../Libraries/STM32F4xx_StdPeriph_Driver/src/stm32f4xx_dma.c ****   else if (DMAy_Streamx == DMA1_Stream3)
 176              		.loc 1 230 8 is_stmt 1 view .LVU29
 177              	@ ../Libraries/STM32F4xx_StdPeriph_Driver/src/stm32f4xx_dma.c:230:   else if (DMAy_Streamx == DMA1_
 178              		.loc 1 230 11 is_stmt 0 view .LVU30
 179 002c 2E4B     		ldr	r3, .L29+12	@ tmp131,
 180 002e 9842     		cmp	r0, r3	@ DMAy_Streamx, tmp131
 181 0030 40D0     		beq	.L21		@,
 231:../Libraries/STM32F4xx_StdPeriph_Driver/src/stm32f4xx_dma.c ****   {
 232:../Libraries/STM32F4xx_StdPeriph_Driver/src/stm32f4xx_dma.c ****     /* Reset interrupt pending bits for DMA1 Stream3 */
 233:../Libraries/STM32F4xx_StdPeriph_Driver/src/stm32f4xx_dma.c ****     DMA1->LIFCR = DMA_Stream3_IT_MASK;
 234:../Libraries/STM32F4xx_StdPeriph_Driver/src/stm32f4xx_dma.c ****   }
 235:../Libraries/STM32F4xx_StdPeriph_Driver/src/stm32f4xx_dma.c ****   else if (DMAy_Streamx == DMA1_Stream4)
 182              		.loc 1 235 8 is_stmt 1 view .LVU31
 183              	@ ../Libraries/STM32F4xx_StdPeriph_Driver/src/stm32f4xx_dma.c:235:   else if (DMAy_Streamx == DMA1_
 184              		.loc 1 235 11 is_stmt 0 view .LVU32
 185 0032 2E4B     		ldr	r3, .L29+16	@ tmp134,
 186 0034 9842     		cmp	r0, r3	@ DMAy_Streamx, tmp134
 187 0036 32D0     		beq	.L22		@,
 236:../Libraries/STM32F4xx_StdPeriph_Driver/src/stm32f4xx_dma.c ****   {
 237:../Libraries/STM32F4xx_StdPeriph_Driver/src/stm32f4xx_dma.c ****     /* Reset interrupt pending bits for DMA1 Stream4 */
 238:../Libraries/STM32F4xx_StdPeriph_Driver/src/stm32f4xx_dma.c ****     DMA1->HIFCR = DMA_Stream4_IT_MASK;
 239:../Libraries/STM32F4xx_StdPeriph_Driver/src/stm32f4xx_dma.c ****   }
 240:../Libraries/STM32F4xx_StdPeriph_Driver/src/stm32f4xx_dma.c ****   else if (DMAy_Streamx == DMA1_Stream5)
 188              		.loc 1 240 8 is_stmt 1 view .LVU33
 189              	@ ../Libraries/STM32F4xx_StdPeriph_Driver/src/stm32f4xx_dma.c:240:   else if (DMAy_Streamx == DMA1_
 190              		.loc 1 240 11 is_stmt 0 view .LVU34
 191 0038 2D4B     		ldr	r3, .L29+20	@ tmp137,
 192 003a 9842     		cmp	r0, r3	@ DMAy_Streamx, tmp137
 193 003c 41D0     		beq	.L23		@,
 241:../Libraries/STM32F4xx_StdPeriph_Driver/src/stm32f4xx_dma.c ****   {
 242:../Libraries/STM32F4xx_StdPeriph_Driver/src/stm32f4xx_dma.c ****     /* Reset interrupt pending bits for DMA1 Stream5 */
 243:../Libraries/STM32F4xx_StdPeriph_Driver/src/stm32f4xx_dma.c ****     DMA1->HIFCR = DMA_Stream5_IT_MASK;
 244:../Libraries/STM32F4xx_StdPeriph_Driver/src/stm32f4xx_dma.c ****   }
 245:../Libraries/STM32F4xx_StdPeriph_Driver/src/stm32f4xx_dma.c ****   else if (DMAy_Streamx == DMA1_Stream6)
 194              		.loc 1 245 8 is_stmt 1 view .LVU35
ARM GAS  C:\Users\admin\AppData\Local\Temp\ccYXfAC7.s 			page 9


 195              	@ ../Libraries/STM32F4xx_StdPeriph_Driver/src/stm32f4xx_dma.c:245:   else if (DMAy_Streamx == DMA1_
 196              		.loc 1 245 11 is_stmt 0 view .LVU36
 197 003e 2D4B     		ldr	r3, .L29+24	@ tmp140,
 198 0040 9842     		cmp	r0, r3	@ DMAy_Streamx, tmp140
 199 0042 46D0     		beq	.L24		@,
 246:../Libraries/STM32F4xx_StdPeriph_Driver/src/stm32f4xx_dma.c ****   {
 247:../Libraries/STM32F4xx_StdPeriph_Driver/src/stm32f4xx_dma.c ****     /* Reset interrupt pending bits for DMA1 Stream6 */
 248:../Libraries/STM32F4xx_StdPeriph_Driver/src/stm32f4xx_dma.c ****     DMA1->HIFCR = (uint32_t)DMA_Stream6_IT_MASK;
 249:../Libraries/STM32F4xx_StdPeriph_Driver/src/stm32f4xx_dma.c ****   }
 250:../Libraries/STM32F4xx_StdPeriph_Driver/src/stm32f4xx_dma.c ****   else if (DMAy_Streamx == DMA1_Stream7)
 200              		.loc 1 250 8 is_stmt 1 view .LVU37
 201              	@ ../Libraries/STM32F4xx_StdPeriph_Driver/src/stm32f4xx_dma.c:250:   else if (DMAy_Streamx == DMA1_
 202              		.loc 1 250 11 is_stmt 0 view .LVU38
 203 0044 2C4B     		ldr	r3, .L29+28	@ tmp143,
 204 0046 9842     		cmp	r0, r3	@ DMAy_Streamx, tmp143
 205 0048 17D0     		beq	.L25		@,
 251:../Libraries/STM32F4xx_StdPeriph_Driver/src/stm32f4xx_dma.c ****   {
 252:../Libraries/STM32F4xx_StdPeriph_Driver/src/stm32f4xx_dma.c ****     /* Reset interrupt pending bits for DMA1 Stream7 */
 253:../Libraries/STM32F4xx_StdPeriph_Driver/src/stm32f4xx_dma.c ****     DMA1->HIFCR = DMA_Stream7_IT_MASK;
 254:../Libraries/STM32F4xx_StdPeriph_Driver/src/stm32f4xx_dma.c ****   }
 255:../Libraries/STM32F4xx_StdPeriph_Driver/src/stm32f4xx_dma.c ****   else if (DMAy_Streamx == DMA2_Stream0)
 206              		.loc 1 255 8 is_stmt 1 view .LVU39
 207              	@ ../Libraries/STM32F4xx_StdPeriph_Driver/src/stm32f4xx_dma.c:255:   else if (DMAy_Streamx == DMA2_
 208              		.loc 1 255 11 is_stmt 0 view .LVU40
 209 004a 2C4B     		ldr	r3, .L29+32	@ tmp146,
 210 004c 9842     		cmp	r0, r3	@ DMAy_Streamx, tmp146
 211 004e 3CD0     		beq	.L28		@,
 256:../Libraries/STM32F4xx_StdPeriph_Driver/src/stm32f4xx_dma.c ****   {
 257:../Libraries/STM32F4xx_StdPeriph_Driver/src/stm32f4xx_dma.c ****     /* Reset interrupt pending bits for DMA2 Stream0 */
 258:../Libraries/STM32F4xx_StdPeriph_Driver/src/stm32f4xx_dma.c ****     DMA2->LIFCR = DMA_Stream0_IT_MASK;
 259:../Libraries/STM32F4xx_StdPeriph_Driver/src/stm32f4xx_dma.c ****   }
 260:../Libraries/STM32F4xx_StdPeriph_Driver/src/stm32f4xx_dma.c ****   else if (DMAy_Streamx == DMA2_Stream1)
 212              		.loc 1 260 8 is_stmt 1 view .LVU41
 213              	@ ../Libraries/STM32F4xx_StdPeriph_Driver/src/stm32f4xx_dma.c:260:   else if (DMAy_Streamx == DMA2_
 214              		.loc 1 260 11 is_stmt 0 view .LVU42
 215 0050 2B4B     		ldr	r3, .L29+36	@ tmp149,
 216 0052 9842     		cmp	r0, r3	@ DMAy_Streamx, tmp149
 217 0054 16D0     		beq	.L19		@,
 261:../Libraries/STM32F4xx_StdPeriph_Driver/src/stm32f4xx_dma.c ****   {
 262:../Libraries/STM32F4xx_StdPeriph_Driver/src/stm32f4xx_dma.c ****     /* Reset interrupt pending bits for DMA2 Stream1 */
 263:../Libraries/STM32F4xx_StdPeriph_Driver/src/stm32f4xx_dma.c ****     DMA2->LIFCR = DMA_Stream1_IT_MASK;
 264:../Libraries/STM32F4xx_StdPeriph_Driver/src/stm32f4xx_dma.c ****   }
 265:../Libraries/STM32F4xx_StdPeriph_Driver/src/stm32f4xx_dma.c ****   else if (DMAy_Streamx == DMA2_Stream2)
 218              		.loc 1 265 8 is_stmt 1 view .LVU43
 219              	@ ../Libraries/STM32F4xx_StdPeriph_Driver/src/stm32f4xx_dma.c:265:   else if (DMAy_Streamx == DMA2_
 220              		.loc 1 265 11 is_stmt 0 view .LVU44
 221 0056 2B4B     		ldr	r3, .L29+40	@ tmp152,
 222 0058 9842     		cmp	r0, r3	@ DMAy_Streamx, tmp152
 223 005a 24D0     		beq	.L20		@,
 266:../Libraries/STM32F4xx_StdPeriph_Driver/src/stm32f4xx_dma.c ****   {
 267:../Libraries/STM32F4xx_StdPeriph_Driver/src/stm32f4xx_dma.c ****     /* Reset interrupt pending bits for DMA2 Stream2 */
 268:../Libraries/STM32F4xx_StdPeriph_Driver/src/stm32f4xx_dma.c ****     DMA2->LIFCR = DMA_Stream2_IT_MASK;
 269:../Libraries/STM32F4xx_StdPeriph_Driver/src/stm32f4xx_dma.c ****   }
 270:../Libraries/STM32F4xx_StdPeriph_Driver/src/stm32f4xx_dma.c ****   else if (DMAy_Streamx == DMA2_Stream3)
 224              		.loc 1 270 8 is_stmt 1 view .LVU45
 225              	@ ../Libraries/STM32F4xx_StdPeriph_Driver/src/stm32f4xx_dma.c:270:   else if (DMAy_Streamx == DMA2_
 226              		.loc 1 270 11 is_stmt 0 view .LVU46
ARM GAS  C:\Users\admin\AppData\Local\Temp\ccYXfAC7.s 			page 10


 227 005c 2A4B     		ldr	r3, .L29+44	@ tmp155,
 228 005e 9842     		cmp	r0, r3	@ DMAy_Streamx, tmp155
 229 0060 28D0     		beq	.L21		@,
 271:../Libraries/STM32F4xx_StdPeriph_Driver/src/stm32f4xx_dma.c ****   {
 272:../Libraries/STM32F4xx_StdPeriph_Driver/src/stm32f4xx_dma.c ****     /* Reset interrupt pending bits for DMA2 Stream3 */
 273:../Libraries/STM32F4xx_StdPeriph_Driver/src/stm32f4xx_dma.c ****     DMA2->LIFCR = DMA_Stream3_IT_MASK;
 274:../Libraries/STM32F4xx_StdPeriph_Driver/src/stm32f4xx_dma.c ****   }
 275:../Libraries/STM32F4xx_StdPeriph_Driver/src/stm32f4xx_dma.c ****   else if (DMAy_Streamx == DMA2_Stream4)
 230              		.loc 1 275 8 is_stmt 1 view .LVU47
 231              	@ ../Libraries/STM32F4xx_StdPeriph_Driver/src/stm32f4xx_dma.c:275:   else if (DMAy_Streamx == DMA2_
 232              		.loc 1 275 11 is_stmt 0 view .LVU48
 233 0062 2A4B     		ldr	r3, .L29+48	@ tmp158,
 234 0064 9842     		cmp	r0, r3	@ DMAy_Streamx, tmp158
 235 0066 1AD0     		beq	.L22		@,
 276:../Libraries/STM32F4xx_StdPeriph_Driver/src/stm32f4xx_dma.c ****   {
 277:../Libraries/STM32F4xx_StdPeriph_Driver/src/stm32f4xx_dma.c ****     /* Reset interrupt pending bits for DMA2 Stream4 */
 278:../Libraries/STM32F4xx_StdPeriph_Driver/src/stm32f4xx_dma.c ****     DMA2->HIFCR = DMA_Stream4_IT_MASK;
 279:../Libraries/STM32F4xx_StdPeriph_Driver/src/stm32f4xx_dma.c ****   }
 280:../Libraries/STM32F4xx_StdPeriph_Driver/src/stm32f4xx_dma.c ****   else if (DMAy_Streamx == DMA2_Stream5)
 236              		.loc 1 280 8 is_stmt 1 view .LVU49
 237              	@ ../Libraries/STM32F4xx_StdPeriph_Driver/src/stm32f4xx_dma.c:280:   else if (DMAy_Streamx == DMA2_
 238              		.loc 1 280 11 is_stmt 0 view .LVU50
 239 0068 294B     		ldr	r3, .L29+52	@ tmp161,
 240 006a 9842     		cmp	r0, r3	@ DMAy_Streamx, tmp161
 241 006c 29D0     		beq	.L23		@,
 281:../Libraries/STM32F4xx_StdPeriph_Driver/src/stm32f4xx_dma.c ****   {
 282:../Libraries/STM32F4xx_StdPeriph_Driver/src/stm32f4xx_dma.c ****     /* Reset interrupt pending bits for DMA2 Stream5 */
 283:../Libraries/STM32F4xx_StdPeriph_Driver/src/stm32f4xx_dma.c ****     DMA2->HIFCR = DMA_Stream5_IT_MASK;
 284:../Libraries/STM32F4xx_StdPeriph_Driver/src/stm32f4xx_dma.c ****   }
 285:../Libraries/STM32F4xx_StdPeriph_Driver/src/stm32f4xx_dma.c ****   else if (DMAy_Streamx == DMA2_Stream6)
 242              		.loc 1 285 8 is_stmt 1 view .LVU51
 243              	@ ../Libraries/STM32F4xx_StdPeriph_Driver/src/stm32f4xx_dma.c:285:   else if (DMAy_Streamx == DMA2_
 244              		.loc 1 285 11 is_stmt 0 view .LVU52
 245 006e 294B     		ldr	r3, .L29+56	@ tmp164,
 246 0070 9842     		cmp	r0, r3	@ DMAy_Streamx, tmp164
 247 0072 2ED0     		beq	.L24		@,
 286:../Libraries/STM32F4xx_StdPeriph_Driver/src/stm32f4xx_dma.c ****   {
 287:../Libraries/STM32F4xx_StdPeriph_Driver/src/stm32f4xx_dma.c ****     /* Reset interrupt pending bits for DMA2 Stream6 */
 288:../Libraries/STM32F4xx_StdPeriph_Driver/src/stm32f4xx_dma.c ****     DMA2->HIFCR = DMA_Stream6_IT_MASK;
 289:../Libraries/STM32F4xx_StdPeriph_Driver/src/stm32f4xx_dma.c ****   }
 290:../Libraries/STM32F4xx_StdPeriph_Driver/src/stm32f4xx_dma.c ****   else 
 291:../Libraries/STM32F4xx_StdPeriph_Driver/src/stm32f4xx_dma.c ****   {
 292:../Libraries/STM32F4xx_StdPeriph_Driver/src/stm32f4xx_dma.c ****     if (DMAy_Streamx == DMA2_Stream7)
 248              		.loc 1 292 5 is_stmt 1 view .LVU53
 249              	@ ../Libraries/STM32F4xx_StdPeriph_Driver/src/stm32f4xx_dma.c:292:     if (DMAy_Streamx == DMA2_Str
 250              		.loc 1 292 8 is_stmt 0 view .LVU54
 251 0074 284B     		ldr	r3, .L29+60	@ tmp167,
 252 0076 9842     		cmp	r0, r3	@ DMAy_Streamx, tmp167
 253 0078 08D1     		bne	.L1		@,
 254              	.L25:
 293:../Libraries/STM32F4xx_StdPeriph_Driver/src/stm32f4xx_dma.c ****     {
 294:../Libraries/STM32F4xx_StdPeriph_Driver/src/stm32f4xx_dma.c ****       /* Reset interrupt pending bits for DMA2 Stream7 */
 295:../Libraries/STM32F4xx_StdPeriph_Driver/src/stm32f4xx_dma.c ****       DMA2->HIFCR = DMA_Stream7_IT_MASK;
 255              		.loc 1 295 7 is_stmt 1 view .LVU55
 256              	@ ../Libraries/STM32F4xx_StdPeriph_Driver/src/stm32f4xx_dma.c:295:       DMA2->HIFCR = DMA_Stream7_
 257              		.loc 1 295 19 is_stmt 0 view .LVU56
 258 007a 4FF03D52 		mov	r2, #792723456	@ tmp169,
ARM GAS  C:\Users\admin\AppData\Local\Temp\ccYXfAC7.s 			page 11


 259 007e 43F8AC2C 		str	r2, [r3, #-172]	@ tmp169,
 260              	@ ../Libraries/STM32F4xx_StdPeriph_Driver/src/stm32f4xx_dma.c:298: }
 296:../Libraries/STM32F4xx_StdPeriph_Driver/src/stm32f4xx_dma.c ****     }
 297:../Libraries/STM32F4xx_StdPeriph_Driver/src/stm32f4xx_dma.c ****   }
 298:../Libraries/STM32F4xx_StdPeriph_Driver/src/stm32f4xx_dma.c **** }
 261              		.loc 1 298 1 view .LVU57
 262 0082 03E0     		b	.L1		@
 263              	.L19:
 263:../Libraries/STM32F4xx_StdPeriph_Driver/src/stm32f4xx_dma.c ****   }
 264              		.loc 1 263 5 is_stmt 1 view .LVU58
 265              	@ ../Libraries/STM32F4xx_StdPeriph_Driver/src/stm32f4xx_dma.c:263:     DMA2->LIFCR = DMA_Stream1_IT
 263:../Libraries/STM32F4xx_StdPeriph_Driver/src/stm32f4xx_dma.c ****   }
 266              		.loc 1 263 17 is_stmt 0 view .LVU59
 267 0084 4FF47462 		mov	r2, #3904	@ tmp151,
 268 0088 43F8202C 		str	r2, [r3, #-32]	@ tmp151,
 269              	.L1:
 270              	@ ../Libraries/STM32F4xx_StdPeriph_Driver/src/stm32f4xx_dma.c:298: }
 271              		.loc 1 298 1 view .LVU60
 272 008c 5DF8044B 		ldr	r4, [sp], #4	@,
 273              		.cfi_remember_state
 274              		.cfi_restore 4
 275              		.cfi_def_cfa_offset 0
 276 0090 7047     		bx	lr	@
 277              	.L27:
 278              		.cfi_restore_state
 218:../Libraries/STM32F4xx_StdPeriph_Driver/src/stm32f4xx_dma.c ****   }
 279              		.loc 1 218 5 is_stmt 1 view .LVU61
 280              	@ ../Libraries/STM32F4xx_StdPeriph_Driver/src/stm32f4xx_dma.c:218:     DMA1->LIFCR = DMA_Stream0_IT
 218:../Libraries/STM32F4xx_StdPeriph_Driver/src/stm32f4xx_dma.c ****   }
 281              		.loc 1 218 17 is_stmt 0 view .LVU62
 282 0092 224B     		ldr	r3, .L29+64	@ tmp123,
 283              	@ ../Libraries/STM32F4xx_StdPeriph_Driver/src/stm32f4xx_dma.c:298: }
 284              		.loc 1 298 1 view .LVU63
 285 0094 5DF8044B 		ldr	r4, [sp], #4	@,
 286              		.cfi_remember_state
 287              		.cfi_restore 4
 288              		.cfi_def_cfa_offset 0
 289              	@ ../Libraries/STM32F4xx_StdPeriph_Driver/src/stm32f4xx_dma.c:218:     DMA1->LIFCR = DMA_Stream0_IT
 218:../Libraries/STM32F4xx_StdPeriph_Driver/src/stm32f4xx_dma.c ****   }
 290              		.loc 1 218 17 view .LVU64
 291 0098 3D22     		movs	r2, #61	@ tmp124,
 292 009a 9A60     		str	r2, [r3, #8]	@ tmp124, MEM[(struct DMA_TypeDef *)1073897472B].LIFCR
 293              	@ ../Libraries/STM32F4xx_StdPeriph_Driver/src/stm32f4xx_dma.c:298: }
 294              		.loc 1 298 1 view .LVU65
 295 009c 7047     		bx	lr	@
 296              	.L22:
 297              		.cfi_restore_state
 278:../Libraries/STM32F4xx_StdPeriph_Driver/src/stm32f4xx_dma.c ****   }
 298              		.loc 1 278 5 is_stmt 1 view .LVU66
 299              	@ ../Libraries/STM32F4xx_StdPeriph_Driver/src/stm32f4xx_dma.c:278:     DMA2->HIFCR = DMA_Stream4_IT
 278:../Libraries/STM32F4xx_StdPeriph_Driver/src/stm32f4xx_dma.c ****   }
 300              		.loc 1 278 17 is_stmt 0 view .LVU67
 301 009e 204A     		ldr	r2, .L29+68	@ tmp160,
 302 00a0 43F8642C 		str	r2, [r3, #-100]	@ tmp160,
 303 00a4 F2E7     		b	.L1		@
 304              	.L20:
 268:../Libraries/STM32F4xx_StdPeriph_Driver/src/stm32f4xx_dma.c ****   }
ARM GAS  C:\Users\admin\AppData\Local\Temp\ccYXfAC7.s 			page 12


 305              		.loc 1 268 5 is_stmt 1 view .LVU68
 306              	@ ../Libraries/STM32F4xx_StdPeriph_Driver/src/stm32f4xx_dma.c:268:     DMA2->LIFCR = DMA_Stream2_IT
 268:../Libraries/STM32F4xx_StdPeriph_Driver/src/stm32f4xx_dma.c ****   }
 307              		.loc 1 268 17 is_stmt 0 view .LVU69
 308 00a6 4FF47412 		mov	r2, #3997696	@ tmp154,
 309              	@ ../Libraries/STM32F4xx_StdPeriph_Driver/src/stm32f4xx_dma.c:298: }
 310              		.loc 1 298 1 view .LVU70
 311 00aa 5DF8044B 		ldr	r4, [sp], #4	@,
 312              		.cfi_remember_state
 313              		.cfi_restore 4
 314              		.cfi_def_cfa_offset 0
 315              	@ ../Libraries/STM32F4xx_StdPeriph_Driver/src/stm32f4xx_dma.c:268:     DMA2->LIFCR = DMA_Stream2_IT
 268:../Libraries/STM32F4xx_StdPeriph_Driver/src/stm32f4xx_dma.c ****   }
 316              		.loc 1 268 17 view .LVU71
 317 00ae 43F8382C 		str	r2, [r3, #-56]	@ tmp154,
 318              	@ ../Libraries/STM32F4xx_StdPeriph_Driver/src/stm32f4xx_dma.c:298: }
 319              		.loc 1 298 1 view .LVU72
 320 00b2 7047     		bx	lr	@
 321              	.L21:
 322              		.cfi_restore_state
 273:../Libraries/STM32F4xx_StdPeriph_Driver/src/stm32f4xx_dma.c ****   }
 323              		.loc 1 273 5 is_stmt 1 view .LVU73
 324              	@ ../Libraries/STM32F4xx_StdPeriph_Driver/src/stm32f4xx_dma.c:273:     DMA2->LIFCR = DMA_Stream3_IT
 273:../Libraries/STM32F4xx_StdPeriph_Driver/src/stm32f4xx_dma.c ****   }
 325              		.loc 1 273 17 is_stmt 0 view .LVU74
 326 00b4 4FF07462 		mov	r2, #255852544	@ tmp157,
 327              	@ ../Libraries/STM32F4xx_StdPeriph_Driver/src/stm32f4xx_dma.c:298: }
 328              		.loc 1 298 1 view .LVU75
 329 00b8 5DF8044B 		ldr	r4, [sp], #4	@,
 330              		.cfi_remember_state
 331              		.cfi_restore 4
 332              		.cfi_def_cfa_offset 0
 333              	@ ../Libraries/STM32F4xx_StdPeriph_Driver/src/stm32f4xx_dma.c:273:     DMA2->LIFCR = DMA_Stream3_IT
 273:../Libraries/STM32F4xx_StdPeriph_Driver/src/stm32f4xx_dma.c ****   }
 334              		.loc 1 273 17 view .LVU76
 335 00bc 43F8502C 		str	r2, [r3, #-80]	@ tmp157,
 336              	@ ../Libraries/STM32F4xx_StdPeriph_Driver/src/stm32f4xx_dma.c:298: }
 337              		.loc 1 298 1 view .LVU77
 338 00c0 7047     		bx	lr	@
 339              	.L23:
 340              		.cfi_restore_state
 283:../Libraries/STM32F4xx_StdPeriph_Driver/src/stm32f4xx_dma.c ****   }
 341              		.loc 1 283 5 is_stmt 1 view .LVU78
 342              	@ ../Libraries/STM32F4xx_StdPeriph_Driver/src/stm32f4xx_dma.c:283:     DMA2->HIFCR = DMA_Stream5_IT
 283:../Libraries/STM32F4xx_StdPeriph_Driver/src/stm32f4xx_dma.c ****   }
 343              		.loc 1 283 17 is_stmt 0 view .LVU79
 344 00c2 184A     		ldr	r2, .L29+72	@ tmp163,
 345 00c4 43F87C2C 		str	r2, [r3, #-124]	@ tmp163,
 346 00c8 E0E7     		b	.L1		@
 347              	.L28:
 258:../Libraries/STM32F4xx_StdPeriph_Driver/src/stm32f4xx_dma.c ****   }
 348              		.loc 1 258 5 is_stmt 1 view .LVU80
 349              	@ ../Libraries/STM32F4xx_StdPeriph_Driver/src/stm32f4xx_dma.c:258:     DMA2->LIFCR = DMA_Stream0_IT
 258:../Libraries/STM32F4xx_StdPeriph_Driver/src/stm32f4xx_dma.c ****   }
 350              		.loc 1 258 17 is_stmt 0 view .LVU81
 351 00ca 3D22     		movs	r2, #61	@ tmp148,
 352 00cc 43F8082C 		str	r2, [r3, #-8]	@ tmp148, MEM[(struct DMA_TypeDef *)1073898496B].LIFCR
ARM GAS  C:\Users\admin\AppData\Local\Temp\ccYXfAC7.s 			page 13


 353 00d0 DCE7     		b	.L1		@
 354              	.L24:
 288:../Libraries/STM32F4xx_StdPeriph_Driver/src/stm32f4xx_dma.c ****   }
 355              		.loc 1 288 5 is_stmt 1 view .LVU82
 356              	@ ../Libraries/STM32F4xx_StdPeriph_Driver/src/stm32f4xx_dma.c:288:     DMA2->HIFCR = DMA_Stream6_IT
 288:../Libraries/STM32F4xx_StdPeriph_Driver/src/stm32f4xx_dma.c ****   }
 357              		.loc 1 288 17 is_stmt 0 view .LVU83
 358 00d2 154A     		ldr	r2, .L29+76	@ tmp166,
 359 00d4 43F8942C 		str	r2, [r3, #-148]	@ tmp166,
 360 00d8 D8E7     		b	.L1		@
 361              	.L30:
 362 00da 00BF     		.align	2
 363              	.L29:
 364 00dc 10600240 		.word	1073897488
 365 00e0 28600240 		.word	1073897512
 366 00e4 40600240 		.word	1073897536
 367 00e8 58600240 		.word	1073897560
 368 00ec 70600240 		.word	1073897584
 369 00f0 88600240 		.word	1073897608
 370 00f4 A0600240 		.word	1073897632
 371 00f8 B8600240 		.word	1073897656
 372 00fc 10640240 		.word	1073898512
 373 0100 28640240 		.word	1073898536
 374 0104 40640240 		.word	1073898560
 375 0108 58640240 		.word	1073898584
 376 010c 70640240 		.word	1073898608
 377 0110 88640240 		.word	1073898632
 378 0114 A0640240 		.word	1073898656
 379 0118 B8640240 		.word	1073898680
 380 011c 00600240 		.word	1073897472
 381 0120 3D000020 		.word	536870973
 382 0124 400F0020 		.word	536874816
 383 0128 00003D20 		.word	540868608
 384              		.cfi_endproc
 385              	.LFE110:
 386              		.size	DMA_DeInit, .-DMA_DeInit
 387              		.section	.text.DMA_Init,"ax",%progbits
 388              		.align	1
 389              		.p2align 2,,3
 390              		.global	DMA_Init
 391              		.syntax unified
 392              		.thumb
 393              		.thumb_func
 394              		.type	DMA_Init, %function
 395              	DMA_Init:
 396              	.LVL1:
 397              	.LFB111:
 299:../Libraries/STM32F4xx_StdPeriph_Driver/src/stm32f4xx_dma.c **** 
 300:../Libraries/STM32F4xx_StdPeriph_Driver/src/stm32f4xx_dma.c **** /**
 301:../Libraries/STM32F4xx_StdPeriph_Driver/src/stm32f4xx_dma.c ****   * @brief  Initializes the DMAy Streamx according to the specified parameters in 
 302:../Libraries/STM32F4xx_StdPeriph_Driver/src/stm32f4xx_dma.c ****   *         the DMA_InitStruct structure.
 303:../Libraries/STM32F4xx_StdPeriph_Driver/src/stm32f4xx_dma.c ****   * @note   Before calling this function, it is recommended to check that the Stream 
 304:../Libraries/STM32F4xx_StdPeriph_Driver/src/stm32f4xx_dma.c ****   *         is actually disabled using the function DMA_GetCmdStatus().  
 305:../Libraries/STM32F4xx_StdPeriph_Driver/src/stm32f4xx_dma.c ****   * @param  DMAy_Streamx: where y can be 1 or 2 to select the DMA and x can be 0
 306:../Libraries/STM32F4xx_StdPeriph_Driver/src/stm32f4xx_dma.c ****   *         to 7 to select the DMA Stream.
 307:../Libraries/STM32F4xx_StdPeriph_Driver/src/stm32f4xx_dma.c ****   * @param  DMA_InitStruct: pointer to a DMA_InitTypeDef structure that contains
 308:../Libraries/STM32F4xx_StdPeriph_Driver/src/stm32f4xx_dma.c ****   *         the configuration information for the specified DMA Stream.  
ARM GAS  C:\Users\admin\AppData\Local\Temp\ccYXfAC7.s 			page 14


 309:../Libraries/STM32F4xx_StdPeriph_Driver/src/stm32f4xx_dma.c ****   * @retval None
 310:../Libraries/STM32F4xx_StdPeriph_Driver/src/stm32f4xx_dma.c ****   */
 311:../Libraries/STM32F4xx_StdPeriph_Driver/src/stm32f4xx_dma.c **** void DMA_Init(DMA_Stream_TypeDef* DMAy_Streamx, DMA_InitTypeDef* DMA_InitStruct)
 312:../Libraries/STM32F4xx_StdPeriph_Driver/src/stm32f4xx_dma.c **** {
 398              		.loc 1 312 1 is_stmt 1 view -0
 399              		.cfi_startproc
 400              		@ args = 0, pretend = 0, frame = 0
 401              		@ frame_needed = 0, uses_anonymous_args = 0
 402              		@ link register save eliminated.
 313:../Libraries/STM32F4xx_StdPeriph_Driver/src/stm32f4xx_dma.c ****   uint32_t tmpreg = 0;
 403              		.loc 1 313 3 view .LVU85
 314:../Libraries/STM32F4xx_StdPeriph_Driver/src/stm32f4xx_dma.c **** 
 315:../Libraries/STM32F4xx_StdPeriph_Driver/src/stm32f4xx_dma.c ****   /* Check the parameters */
 316:../Libraries/STM32F4xx_StdPeriph_Driver/src/stm32f4xx_dma.c ****   assert_param(IS_DMA_ALL_PERIPH(DMAy_Streamx));
 404              		.loc 1 316 3 view .LVU86
 317:../Libraries/STM32F4xx_StdPeriph_Driver/src/stm32f4xx_dma.c ****   assert_param(IS_DMA_CHANNEL(DMA_InitStruct->DMA_Channel));
 405              		.loc 1 317 3 view .LVU87
 318:../Libraries/STM32F4xx_StdPeriph_Driver/src/stm32f4xx_dma.c ****   assert_param(IS_DMA_DIRECTION(DMA_InitStruct->DMA_DIR));
 406              		.loc 1 318 3 view .LVU88
 319:../Libraries/STM32F4xx_StdPeriph_Driver/src/stm32f4xx_dma.c ****   assert_param(IS_DMA_BUFFER_SIZE(DMA_InitStruct->DMA_BufferSize));
 407              		.loc 1 319 3 view .LVU89
 320:../Libraries/STM32F4xx_StdPeriph_Driver/src/stm32f4xx_dma.c ****   assert_param(IS_DMA_PERIPHERAL_INC_STATE(DMA_InitStruct->DMA_PeripheralInc));
 408              		.loc 1 320 3 view .LVU90
 321:../Libraries/STM32F4xx_StdPeriph_Driver/src/stm32f4xx_dma.c ****   assert_param(IS_DMA_MEMORY_INC_STATE(DMA_InitStruct->DMA_MemoryInc));
 409              		.loc 1 321 3 view .LVU91
 322:../Libraries/STM32F4xx_StdPeriph_Driver/src/stm32f4xx_dma.c ****   assert_param(IS_DMA_PERIPHERAL_DATA_SIZE(DMA_InitStruct->DMA_PeripheralDataSize));
 410              		.loc 1 322 3 view .LVU92
 323:../Libraries/STM32F4xx_StdPeriph_Driver/src/stm32f4xx_dma.c ****   assert_param(IS_DMA_MEMORY_DATA_SIZE(DMA_InitStruct->DMA_MemoryDataSize));
 411              		.loc 1 323 3 view .LVU93
 324:../Libraries/STM32F4xx_StdPeriph_Driver/src/stm32f4xx_dma.c ****   assert_param(IS_DMA_MODE(DMA_InitStruct->DMA_Mode));
 412              		.loc 1 324 3 view .LVU94
 325:../Libraries/STM32F4xx_StdPeriph_Driver/src/stm32f4xx_dma.c ****   assert_param(IS_DMA_PRIORITY(DMA_InitStruct->DMA_Priority));
 413              		.loc 1 325 3 view .LVU95
 326:../Libraries/STM32F4xx_StdPeriph_Driver/src/stm32f4xx_dma.c ****   assert_param(IS_DMA_FIFO_MODE_STATE(DMA_InitStruct->DMA_FIFOMode));
 414              		.loc 1 326 3 view .LVU96
 327:../Libraries/STM32F4xx_StdPeriph_Driver/src/stm32f4xx_dma.c ****   assert_param(IS_DMA_FIFO_THRESHOLD(DMA_InitStruct->DMA_FIFOThreshold));
 415              		.loc 1 327 3 view .LVU97
 328:../Libraries/STM32F4xx_StdPeriph_Driver/src/stm32f4xx_dma.c ****   assert_param(IS_DMA_MEMORY_BURST(DMA_InitStruct->DMA_MemoryBurst));
 416              		.loc 1 328 3 view .LVU98
 329:../Libraries/STM32F4xx_StdPeriph_Driver/src/stm32f4xx_dma.c ****   assert_param(IS_DMA_PERIPHERAL_BURST(DMA_InitStruct->DMA_PeripheralBurst));
 417              		.loc 1 329 3 view .LVU99
 330:../Libraries/STM32F4xx_StdPeriph_Driver/src/stm32f4xx_dma.c **** 
 331:../Libraries/STM32F4xx_StdPeriph_Driver/src/stm32f4xx_dma.c ****   /*------------------------- DMAy Streamx CR Configuration ------------------*/
 332:../Libraries/STM32F4xx_StdPeriph_Driver/src/stm32f4xx_dma.c ****   /* Get the DMAy_Streamx CR value */
 333:../Libraries/STM32F4xx_StdPeriph_Driver/src/stm32f4xx_dma.c ****   tmpreg = DMAy_Streamx->CR;
 418              		.loc 1 333 3 view .LVU100
 419              	@ ../Libraries/STM32F4xx_StdPeriph_Driver/src/stm32f4xx_dma.c:352:   tmpreg |= DMA_InitStruct->DMA_
 334:../Libraries/STM32F4xx_StdPeriph_Driver/src/stm32f4xx_dma.c **** 
 335:../Libraries/STM32F4xx_StdPeriph_Driver/src/stm32f4xx_dma.c ****   /* Clear CHSEL, MBURST, PBURST, PL, MSIZE, PSIZE, MINC, PINC, CIRC and DIR bits */
 336:../Libraries/STM32F4xx_StdPeriph_Driver/src/stm32f4xx_dma.c ****   tmpreg &= ((uint32_t)~(DMA_SxCR_CHSEL | DMA_SxCR_MBURST | DMA_SxCR_PBURST | \
 337:../Libraries/STM32F4xx_StdPeriph_Driver/src/stm32f4xx_dma.c ****                          DMA_SxCR_PL | DMA_SxCR_MSIZE | DMA_SxCR_PSIZE | \
 338:../Libraries/STM32F4xx_StdPeriph_Driver/src/stm32f4xx_dma.c ****                          DMA_SxCR_MINC | DMA_SxCR_PINC | DMA_SxCR_CIRC | \
 339:../Libraries/STM32F4xx_StdPeriph_Driver/src/stm32f4xx_dma.c ****                          DMA_SxCR_DIR));
 340:../Libraries/STM32F4xx_StdPeriph_Driver/src/stm32f4xx_dma.c **** 
 341:../Libraries/STM32F4xx_StdPeriph_Driver/src/stm32f4xx_dma.c ****   /* Configure DMAy Streamx: */
 342:../Libraries/STM32F4xx_StdPeriph_Driver/src/stm32f4xx_dma.c ****   /* Set CHSEL bits according to DMA_CHSEL value */
 343:../Libraries/STM32F4xx_StdPeriph_Driver/src/stm32f4xx_dma.c ****   /* Set DIR bits according to DMA_DIR value */
ARM GAS  C:\Users\admin\AppData\Local\Temp\ccYXfAC7.s 			page 15


 344:../Libraries/STM32F4xx_StdPeriph_Driver/src/stm32f4xx_dma.c ****   /* Set PINC bit according to DMA_PeripheralInc value */
 345:../Libraries/STM32F4xx_StdPeriph_Driver/src/stm32f4xx_dma.c ****   /* Set MINC bit according to DMA_MemoryInc value */
 346:../Libraries/STM32F4xx_StdPeriph_Driver/src/stm32f4xx_dma.c ****   /* Set PSIZE bits according to DMA_PeripheralDataSize value */
 347:../Libraries/STM32F4xx_StdPeriph_Driver/src/stm32f4xx_dma.c ****   /* Set MSIZE bits according to DMA_MemoryDataSize value */
 348:../Libraries/STM32F4xx_StdPeriph_Driver/src/stm32f4xx_dma.c ****   /* Set CIRC bit according to DMA_Mode value */
 349:../Libraries/STM32F4xx_StdPeriph_Driver/src/stm32f4xx_dma.c ****   /* Set PL bits according to DMA_Priority value */
 350:../Libraries/STM32F4xx_StdPeriph_Driver/src/stm32f4xx_dma.c ****   /* Set MBURST bits according to DMA_MemoryBurst value */
 351:../Libraries/STM32F4xx_StdPeriph_Driver/src/stm32f4xx_dma.c ****   /* Set PBURST bits according to DMA_PeripheralBurst value */
 352:../Libraries/STM32F4xx_StdPeriph_Driver/src/stm32f4xx_dma.c ****   tmpreg |= DMA_InitStruct->DMA_Channel | DMA_InitStruct->DMA_DIR |
 420              		.loc 1 352 41 is_stmt 0 view .LVU101
 421 0000 0B68     		ldr	r3, [r1]	@ DMA_InitStruct_30(D)->DMA_Channel, DMA_InitStruct_30(D)->DMA_Channel
 422              	@ ../Libraries/STM32F4xx_StdPeriph_Driver/src/stm32f4xx_dma.c:352:   tmpreg |= DMA_InitStruct->DMA_
 423              		.loc 1 352 67 view .LVU102
 424 0002 4A69     		ldr	r2, [r1, #20]	@ DMA_InitStruct_30(D)->DMA_PeripheralInc, DMA_InitStruct_30(D)->DMA_PeripheralI
 425              	@ ../Libraries/STM32F4xx_StdPeriph_Driver/src/stm32f4xx_dma.c:312: {
 312:../Libraries/STM32F4xx_StdPeriph_Driver/src/stm32f4xx_dma.c ****   uint32_t tmpreg = 0;
 426              		.loc 1 312 1 view .LVU103
 427 0004 30B4     		push	{r4, r5}	@
 428              		.cfi_def_cfa_offset 8
 429              		.cfi_offset 4, -8
 430              		.cfi_offset 5, -4
 431              	@ ../Libraries/STM32F4xx_StdPeriph_Driver/src/stm32f4xx_dma.c:352:   tmpreg |= DMA_InitStruct->DMA_
 432              		.loc 1 352 41 view .LVU104
 433 0006 CC68     		ldr	r4, [r1, #12]	@ DMA_InitStruct_30(D)->DMA_DIR, DMA_InitStruct_30(D)->DMA_DIR
 434              	@ ../Libraries/STM32F4xx_StdPeriph_Driver/src/stm32f4xx_dma.c:333:   tmpreg = DMAy_Streamx->CR;
 333:../Libraries/STM32F4xx_StdPeriph_Driver/src/stm32f4xx_dma.c **** 
 435              		.loc 1 333 10 view .LVU105
 436 0008 0568     		ldr	r5, [r0]	@ tmpreg, DMAy_Streamx_27(D)->CR
 437              	.LVL2:
 336:../Libraries/STM32F4xx_StdPeriph_Driver/src/stm32f4xx_dma.c ****                          DMA_SxCR_PL | DMA_SxCR_MSIZE | DMA_SxCR_PSIZE | \
 438              		.loc 1 336 3 is_stmt 1 view .LVU106
 439              	@ ../Libraries/STM32F4xx_StdPeriph_Driver/src/stm32f4xx_dma.c:352:   tmpreg |= DMA_InitStruct->DMA_
 440              		.loc 1 352 41 is_stmt 0 view .LVU107
 441 000a 2343     		orrs	r3, r3, r4	@, tmp147, DMA_InitStruct_30(D)->DMA_Channel, DMA_InitStruct_30(D)->DMA_DIR
 442              	@ ../Libraries/STM32F4xx_StdPeriph_Driver/src/stm32f4xx_dma.c:352:   tmpreg |= DMA_InitStruct->DMA_
 443              		.loc 1 352 67 view .LVU108
 444 000c 1343     		orrs	r3, r3, r2	@, tmp150, tmp147, DMA_InitStruct_30(D)->DMA_PeripheralInc
 445              	@ ../Libraries/STM32F4xx_StdPeriph_Driver/src/stm32f4xx_dma.c:353:             DMA_InitStruct->DMA_
 353:../Libraries/STM32F4xx_StdPeriph_Driver/src/stm32f4xx_dma.c ****             DMA_InitStruct->DMA_PeripheralInc | DMA_InitStruct->DMA_MemoryInc |
 446              		.loc 1 353 79 view .LVU109
 447 000e D1E90642 		ldrd	r4, r2, [r1, #24]	@ DMA_InitStruct_30(D)->DMA_MemoryInc, DMA_InitStruct_30(D)->DMA_Peripheral
 448              	@ ../Libraries/STM32F4xx_StdPeriph_Driver/src/stm32f4xx_dma.c:353:             DMA_InitStruct->DMA_
 449              		.loc 1 353 47 view .LVU110
 450 0012 2343     		orrs	r3, r3, r4	@, tmp152, tmp150, DMA_InitStruct_30(D)->DMA_MemoryInc
 451              	@ ../Libraries/STM32F4xx_StdPeriph_Driver/src/stm32f4xx_dma.c:353:             DMA_InitStruct->DMA_
 452              		.loc 1 353 79 view .LVU111
 453 0014 1343     		orrs	r3, r3, r2	@, tmp154, tmp152, DMA_InitStruct_30(D)->DMA_PeripheralDataSize
 454              	@ ../Libraries/STM32F4xx_StdPeriph_Driver/src/stm32f4xx_dma.c:354:             DMA_InitStruct->DMA_
 354:../Libraries/STM32F4xx_StdPeriph_Driver/src/stm32f4xx_dma.c ****             DMA_InitStruct->DMA_PeripheralDataSize | DMA_InitStruct->DMA_MemoryDataSize |
 455              		.loc 1 354 89 view .LVU112
 456 0016 D1E90842 		ldrd	r4, r2, [r1, #32]	@ DMA_InitStruct_30(D)->DMA_MemoryDataSize, DMA_InitStruct_30(D)->DMA_Mode,
 457              	@ ../Libraries/STM32F4xx_StdPeriph_Driver/src/stm32f4xx_dma.c:354:             DMA_InitStruct->DMA_
 458              		.loc 1 354 52 view .LVU113
 459 001a 2343     		orrs	r3, r3, r4	@, tmp156, tmp154, DMA_InitStruct_30(D)->DMA_MemoryDataSize
 460              	@ ../Libraries/STM32F4xx_StdPeriph_Driver/src/stm32f4xx_dma.c:355:             DMA_InitStruct->DMA_
 355:../Libraries/STM32F4xx_StdPeriph_Driver/src/stm32f4xx_dma.c ****             DMA_InitStruct->DMA_Mode | DMA_InitStruct->DMA_Priority |
 461              		.loc 1 355 38 view .LVU114
ARM GAS  C:\Users\admin\AppData\Local\Temp\ccYXfAC7.s 			page 16


 462 001c 8C6A     		ldr	r4, [r1, #40]	@ DMA_InitStruct_30(D)->DMA_Priority, DMA_InitStruct_30(D)->DMA_Priority
 463              	@ ../Libraries/STM32F4xx_StdPeriph_Driver/src/stm32f4xx_dma.c:354:             DMA_InitStruct->DMA_
 354:../Libraries/STM32F4xx_StdPeriph_Driver/src/stm32f4xx_dma.c ****             DMA_InitStruct->DMA_PeripheralDataSize | DMA_InitStruct->DMA_MemoryDataSize |
 464              		.loc 1 354 89 view .LVU115
 465 001e 1343     		orrs	r3, r3, r2	@, tmp158, tmp156, DMA_InitStruct_30(D)->DMA_Mode
 466              	@ ../Libraries/STM32F4xx_StdPeriph_Driver/src/stm32f4xx_dma.c:355:             DMA_InitStruct->DMA_
 467              		.loc 1 355 69 view .LVU116
 468 0020 4A6B     		ldr	r2, [r1, #52]	@ DMA_InitStruct_30(D)->DMA_MemoryBurst, DMA_InitStruct_30(D)->DMA_MemoryBurst
 469              	@ ../Libraries/STM32F4xx_StdPeriph_Driver/src/stm32f4xx_dma.c:355:             DMA_InitStruct->DMA_
 470              		.loc 1 355 38 view .LVU117
 471 0022 2343     		orrs	r3, r3, r4	@, tmp160, tmp158, DMA_InitStruct_30(D)->DMA_Priority
 472              	@ ../Libraries/STM32F4xx_StdPeriph_Driver/src/stm32f4xx_dma.c:355:             DMA_InitStruct->DMA_
 473              		.loc 1 355 69 view .LVU118
 474 0024 1343     		orrs	r3, r3, r2	@, tmp162, tmp160, DMA_InitStruct_30(D)->DMA_MemoryBurst
 475              	@ ../Libraries/STM32F4xx_StdPeriph_Driver/src/stm32f4xx_dma.c:336:   tmpreg &= ((uint32_t)~(DMA_SxC
 336:../Libraries/STM32F4xx_StdPeriph_Driver/src/stm32f4xx_dma.c ****                          DMA_SxCR_PL | DMA_SxCR_MSIZE | DMA_SxCR_PSIZE | \
 476              		.loc 1 336 10 view .LVU119
 477 0026 0C4C     		ldr	r4, .L33	@ tmpreg,
 478              	@ ../Libraries/STM32F4xx_StdPeriph_Driver/src/stm32f4xx_dma.c:356:             DMA_InitStruct->DMA_
 356:../Libraries/STM32F4xx_StdPeriph_Driver/src/stm32f4xx_dma.c ****             DMA_InitStruct->DMA_MemoryBurst | DMA_InitStruct->DMA_PeripheralBurst;
 479              		.loc 1 356 45 view .LVU120
 480 0028 8A6B     		ldr	r2, [r1, #56]	@ DMA_InitStruct_30(D)->DMA_PeripheralBurst, DMA_InitStruct_30(D)->DMA_Periphera
 481              	@ ../Libraries/STM32F4xx_StdPeriph_Driver/src/stm32f4xx_dma.c:336:   tmpreg &= ((uint32_t)~(DMA_SxC
 336:../Libraries/STM32F4xx_StdPeriph_Driver/src/stm32f4xx_dma.c ****                          DMA_SxCR_PL | DMA_SxCR_MSIZE | DMA_SxCR_PSIZE | \
 482              		.loc 1 336 10 view .LVU121
 483 002a 2C40     		ands	r4, r4, r5	@, tmpreg, tmpreg, tmpreg
 484              	.LVL3:
 352:../Libraries/STM32F4xx_StdPeriph_Driver/src/stm32f4xx_dma.c ****             DMA_InitStruct->DMA_PeripheralInc | DMA_InitStruct->DMA_MemoryInc |
 485              		.loc 1 352 3 is_stmt 1 view .LVU122
 486              	@ ../Libraries/STM32F4xx_StdPeriph_Driver/src/stm32f4xx_dma.c:356:             DMA_InitStruct->DMA_
 487              		.loc 1 356 45 is_stmt 0 view .LVU123
 488 002c 1343     		orrs	r3, r3, r2	@, tmp164, tmp162, DMA_InitStruct_30(D)->DMA_PeripheralBurst
 489              	@ ../Libraries/STM32F4xx_StdPeriph_Driver/src/stm32f4xx_dma.c:352:   tmpreg |= DMA_InitStruct->DMA_
 352:../Libraries/STM32F4xx_StdPeriph_Driver/src/stm32f4xx_dma.c ****             DMA_InitStruct->DMA_PeripheralInc | DMA_InitStruct->DMA_MemoryInc |
 490              		.loc 1 352 10 view .LVU124
 491 002e 2343     		orrs	r3, r3, r4	@, tmpreg, tmp164, tmpreg
 492              	.LVL4:
 357:../Libraries/STM32F4xx_StdPeriph_Driver/src/stm32f4xx_dma.c **** 
 358:../Libraries/STM32F4xx_StdPeriph_Driver/src/stm32f4xx_dma.c ****   /* Write to DMAy Streamx CR register */
 359:../Libraries/STM32F4xx_StdPeriph_Driver/src/stm32f4xx_dma.c ****   DMAy_Streamx->CR = tmpreg;
 493              		.loc 1 359 3 is_stmt 1 view .LVU125
 494              	@ ../Libraries/STM32F4xx_StdPeriph_Driver/src/stm32f4xx_dma.c:371:   tmpreg |= DMA_InitStruct->DMA_
 360:../Libraries/STM32F4xx_StdPeriph_Driver/src/stm32f4xx_dma.c **** 
 361:../Libraries/STM32F4xx_StdPeriph_Driver/src/stm32f4xx_dma.c ****   /*------------------------- DMAy Streamx FCR Configuration -----------------*/
 362:../Libraries/STM32F4xx_StdPeriph_Driver/src/stm32f4xx_dma.c ****   /* Get the DMAy_Streamx FCR value */
 363:../Libraries/STM32F4xx_StdPeriph_Driver/src/stm32f4xx_dma.c ****   tmpreg = DMAy_Streamx->FCR;
 364:../Libraries/STM32F4xx_StdPeriph_Driver/src/stm32f4xx_dma.c **** 
 365:../Libraries/STM32F4xx_StdPeriph_Driver/src/stm32f4xx_dma.c ****   /* Clear DMDIS and FTH bits */
 366:../Libraries/STM32F4xx_StdPeriph_Driver/src/stm32f4xx_dma.c ****   tmpreg &= (uint32_t)~(DMA_SxFCR_DMDIS | DMA_SxFCR_FTH);
 367:../Libraries/STM32F4xx_StdPeriph_Driver/src/stm32f4xx_dma.c **** 
 368:../Libraries/STM32F4xx_StdPeriph_Driver/src/stm32f4xx_dma.c ****   /* Configure DMAy Streamx FIFO: 
 369:../Libraries/STM32F4xx_StdPeriph_Driver/src/stm32f4xx_dma.c ****     Set DMDIS bits according to DMA_FIFOMode value 
 370:../Libraries/STM32F4xx_StdPeriph_Driver/src/stm32f4xx_dma.c ****     Set FTH bits according to DMA_FIFOThreshold value */
 371:../Libraries/STM32F4xx_StdPeriph_Driver/src/stm32f4xx_dma.c ****   tmpreg |= DMA_InitStruct->DMA_FIFOMode | DMA_InitStruct->DMA_FIFOThreshold;
 495              		.loc 1 371 42 is_stmt 0 view .LVU126
 496 0030 CA6A     		ldr	r2, [r1, #44]	@ DMA_InitStruct_30(D)->DMA_FIFOMode, DMA_InitStruct_30(D)->DMA_FIFOMode
 497              	@ ../Libraries/STM32F4xx_StdPeriph_Driver/src/stm32f4xx_dma.c:359:   DMAy_Streamx->CR = tmpreg;
ARM GAS  C:\Users\admin\AppData\Local\Temp\ccYXfAC7.s 			page 17


 359:../Libraries/STM32F4xx_StdPeriph_Driver/src/stm32f4xx_dma.c **** 
 498              		.loc 1 359 20 view .LVU127
 499 0032 0360     		str	r3, [r0]	@ tmpreg, DMAy_Streamx_27(D)->CR
 363:../Libraries/STM32F4xx_StdPeriph_Driver/src/stm32f4xx_dma.c **** 
 500              		.loc 1 363 3 is_stmt 1 view .LVU128
 501              	@ ../Libraries/STM32F4xx_StdPeriph_Driver/src/stm32f4xx_dma.c:363:   tmpreg = DMAy_Streamx->FCR;
 363:../Libraries/STM32F4xx_StdPeriph_Driver/src/stm32f4xx_dma.c **** 
 502              		.loc 1 363 10 is_stmt 0 view .LVU129
 503 0034 4369     		ldr	r3, [r0, #20]	@ tmpreg, DMAy_Streamx_27(D)->FCR
 504              	.LVL5:
 366:../Libraries/STM32F4xx_StdPeriph_Driver/src/stm32f4xx_dma.c **** 
 505              		.loc 1 366 3 is_stmt 1 view .LVU130
 506              	@ ../Libraries/STM32F4xx_StdPeriph_Driver/src/stm32f4xx_dma.c:371:   tmpreg |= DMA_InitStruct->DMA_
 507              		.loc 1 371 42 is_stmt 0 view .LVU131
 508 0036 0C6B     		ldr	r4, [r1, #48]	@ DMA_InitStruct_30(D)->DMA_FIFOThreshold, DMA_InitStruct_30(D)->DMA_FIFOThresho
 509              	@ ../Libraries/STM32F4xx_StdPeriph_Driver/src/stm32f4xx_dma.c:366:   tmpreg &= (uint32_t)~(DMA_SxFC
 366:../Libraries/STM32F4xx_StdPeriph_Driver/src/stm32f4xx_dma.c **** 
 510              		.loc 1 366 10 view .LVU132
 511 0038 23F0070C 		bic	ip, r3, #7	@ tmpreg, tmpreg,
 512              	.LVL6:
 513              		.loc 1 371 3 is_stmt 1 view .LVU133
 514              	@ ../Libraries/STM32F4xx_StdPeriph_Driver/src/stm32f4xx_dma.c:371:   tmpreg |= DMA_InitStruct->DMA_
 515              		.loc 1 371 42 is_stmt 0 view .LVU134
 516 003c 42EA0403 		orr	r3, r2, r4	@ tmp166, DMA_InitStruct_30(D)->DMA_FIFOMode, DMA_InitStruct_30(D)->DMA_FIFOThresho
 517              	@ ../Libraries/STM32F4xx_StdPeriph_Driver/src/stm32f4xx_dma.c:371:   tmpreg |= DMA_InitStruct->DMA_
 518              		.loc 1 371 10 view .LVU135
 519 0040 43EA0C03 		orr	r3, r3, ip	@ tmpreg, tmp166, tmpreg
 520              	.LVL7:
 372:../Libraries/STM32F4xx_StdPeriph_Driver/src/stm32f4xx_dma.c **** 
 373:../Libraries/STM32F4xx_StdPeriph_Driver/src/stm32f4xx_dma.c ****   /* Write to DMAy Streamx CR */
 374:../Libraries/STM32F4xx_StdPeriph_Driver/src/stm32f4xx_dma.c ****   DMAy_Streamx->FCR = tmpreg;
 521              		.loc 1 374 3 is_stmt 1 view .LVU136
 522              	@ ../Libraries/STM32F4xx_StdPeriph_Driver/src/stm32f4xx_dma.c:378:   DMAy_Streamx->NDTR = DMA_InitS
 375:../Libraries/STM32F4xx_StdPeriph_Driver/src/stm32f4xx_dma.c **** 
 376:../Libraries/STM32F4xx_StdPeriph_Driver/src/stm32f4xx_dma.c ****   /*------------------------- DMAy Streamx NDTR Configuration ----------------*/
 377:../Libraries/STM32F4xx_StdPeriph_Driver/src/stm32f4xx_dma.c ****   /* Write to DMAy Streamx NDTR register */
 378:../Libraries/STM32F4xx_StdPeriph_Driver/src/stm32f4xx_dma.c ****   DMAy_Streamx->NDTR = DMA_InitStruct->DMA_BufferSize;
 523              		.loc 1 378 38 is_stmt 0 view .LVU137
 524 0044 0C69     		ldr	r4, [r1, #16]	@ _23, DMA_InitStruct_30(D)->DMA_BufferSize
 525              	@ ../Libraries/STM32F4xx_StdPeriph_Driver/src/stm32f4xx_dma.c:374:   DMAy_Streamx->FCR = tmpreg;
 374:../Libraries/STM32F4xx_StdPeriph_Driver/src/stm32f4xx_dma.c **** 
 526              		.loc 1 374 21 view .LVU138
 527 0046 4361     		str	r3, [r0, #20]	@ tmpreg, DMAy_Streamx_27(D)->FCR
 528              		.loc 1 378 3 is_stmt 1 view .LVU139
 529              	@ ../Libraries/STM32F4xx_StdPeriph_Driver/src/stm32f4xx_dma.c:386:   DMAy_Streamx->M0AR = DMA_InitS
 379:../Libraries/STM32F4xx_StdPeriph_Driver/src/stm32f4xx_dma.c **** 
 380:../Libraries/STM32F4xx_StdPeriph_Driver/src/stm32f4xx_dma.c ****   /*------------------------- DMAy Streamx PAR Configuration -----------------*/
 381:../Libraries/STM32F4xx_StdPeriph_Driver/src/stm32f4xx_dma.c ****   /* Write to DMAy Streamx PAR */
 382:../Libraries/STM32F4xx_StdPeriph_Driver/src/stm32f4xx_dma.c ****   DMAy_Streamx->PAR = DMA_InitStruct->DMA_PeripheralBaseAddr;
 383:../Libraries/STM32F4xx_StdPeriph_Driver/src/stm32f4xx_dma.c **** 
 384:../Libraries/STM32F4xx_StdPeriph_Driver/src/stm32f4xx_dma.c ****   /*------------------------- DMAy Streamx M0AR Configuration ----------------*/
 385:../Libraries/STM32F4xx_StdPeriph_Driver/src/stm32f4xx_dma.c ****   /* Write to DMAy Streamx M0AR */
 386:../Libraries/STM32F4xx_StdPeriph_Driver/src/stm32f4xx_dma.c ****   DMAy_Streamx->M0AR = DMA_InitStruct->DMA_Memory0BaseAddr;
 530              		.loc 1 386 38 is_stmt 0 view .LVU140
 531 0048 D1E90123 		ldrd	r2, r3, [r1, #4]	@ _24, _25, DMA_InitStruct,
 532              	.LVL8:
 533              	@ ../Libraries/STM32F4xx_StdPeriph_Driver/src/stm32f4xx_dma.c:378:   DMAy_Streamx->NDTR = DMA_InitS
ARM GAS  C:\Users\admin\AppData\Local\Temp\ccYXfAC7.s 			page 18


 378:../Libraries/STM32F4xx_StdPeriph_Driver/src/stm32f4xx_dma.c **** 
 534              		.loc 1 378 22 view .LVU141
 535 004c 4460     		str	r4, [r0, #4]	@ _23, DMAy_Streamx_27(D)->NDTR
 536              	.LVL9:
 382:../Libraries/STM32F4xx_StdPeriph_Driver/src/stm32f4xx_dma.c **** 
 537              		.loc 1 382 3 is_stmt 1 view .LVU142
 538              	@ ../Libraries/STM32F4xx_StdPeriph_Driver/src/stm32f4xx_dma.c:382:   DMAy_Streamx->PAR = DMA_InitSt
 382:../Libraries/STM32F4xx_StdPeriph_Driver/src/stm32f4xx_dma.c **** 
 539              		.loc 1 382 21 is_stmt 0 view .LVU143
 540 004e 8260     		str	r2, [r0, #8]	@ _24, DMAy_Streamx_27(D)->PAR
 541              		.loc 1 386 3 is_stmt 1 view .LVU144
 542              	@ ../Libraries/STM32F4xx_StdPeriph_Driver/src/stm32f4xx_dma.c:387: }
 387:../Libraries/STM32F4xx_StdPeriph_Driver/src/stm32f4xx_dma.c **** }
 543              		.loc 1 387 1 is_stmt 0 view .LVU145
 544 0050 30BC     		pop	{r4, r5}	@
 545              		.cfi_restore 5
 546              		.cfi_restore 4
 547              		.cfi_def_cfa_offset 0
 548              	@ ../Libraries/STM32F4xx_StdPeriph_Driver/src/stm32f4xx_dma.c:386:   DMAy_Streamx->M0AR = DMA_InitS
 386:../Libraries/STM32F4xx_StdPeriph_Driver/src/stm32f4xx_dma.c **** }
 549              		.loc 1 386 22 view .LVU146
 550 0052 C360     		str	r3, [r0, #12]	@ _25, DMAy_Streamx_27(D)->M0AR
 551              	@ ../Libraries/STM32F4xx_StdPeriph_Driver/src/stm32f4xx_dma.c:387: }
 552              		.loc 1 387 1 view .LVU147
 553 0054 7047     		bx	lr	@
 554              	.L34:
 555 0056 00BF     		.align	2
 556              	.L33:
 557 0058 3F801CF0 		.word	-266567617
 558              		.cfi_endproc
 559              	.LFE111:
 560              		.size	DMA_Init, .-DMA_Init
 561              		.section	.text.DMA_StructInit,"ax",%progbits
 562              		.align	1
 563              		.p2align 2,,3
 564              		.global	DMA_StructInit
 565              		.syntax unified
 566              		.thumb
 567              		.thumb_func
 568              		.type	DMA_StructInit, %function
 569              	DMA_StructInit:
 570              	.LVL10:
 571              	.LFB112:
 388:../Libraries/STM32F4xx_StdPeriph_Driver/src/stm32f4xx_dma.c **** 
 389:../Libraries/STM32F4xx_StdPeriph_Driver/src/stm32f4xx_dma.c **** /**
 390:../Libraries/STM32F4xx_StdPeriph_Driver/src/stm32f4xx_dma.c ****   * @brief  Fills each DMA_InitStruct member with its default value.
 391:../Libraries/STM32F4xx_StdPeriph_Driver/src/stm32f4xx_dma.c ****   * @param  DMA_InitStruct : pointer to a DMA_InitTypeDef structure which will 
 392:../Libraries/STM32F4xx_StdPeriph_Driver/src/stm32f4xx_dma.c ****   *         be initialized.
 393:../Libraries/STM32F4xx_StdPeriph_Driver/src/stm32f4xx_dma.c ****   * @retval None
 394:../Libraries/STM32F4xx_StdPeriph_Driver/src/stm32f4xx_dma.c ****   */
 395:../Libraries/STM32F4xx_StdPeriph_Driver/src/stm32f4xx_dma.c **** void DMA_StructInit(DMA_InitTypeDef* DMA_InitStruct)
 396:../Libraries/STM32F4xx_StdPeriph_Driver/src/stm32f4xx_dma.c **** {
 572              		.loc 1 396 1 is_stmt 1 view -0
 573              		.cfi_startproc
 574              		@ args = 0, pretend = 0, frame = 0
 575              		@ frame_needed = 0, uses_anonymous_args = 0
 576              		@ link register save eliminated.
ARM GAS  C:\Users\admin\AppData\Local\Temp\ccYXfAC7.s 			page 19


 397:../Libraries/STM32F4xx_StdPeriph_Driver/src/stm32f4xx_dma.c ****   /*-------------- Reset DMA init structure parameters values ----------------*/
 398:../Libraries/STM32F4xx_StdPeriph_Driver/src/stm32f4xx_dma.c ****   /* Initialize the DMA_Channel member */
 399:../Libraries/STM32F4xx_StdPeriph_Driver/src/stm32f4xx_dma.c ****   DMA_InitStruct->DMA_Channel = 0;
 577              		.loc 1 399 3 view .LVU149
 578              	@ ../Libraries/STM32F4xx_StdPeriph_Driver/src/stm32f4xx_dma.c:399:   DMA_InitStruct->DMA_Channel = 
 579              		.loc 1 399 31 is_stmt 0 view .LVU150
 580 0000 0023     		movs	r3, #0	@ tmp114,
 581              	@ ../Libraries/STM32F4xx_StdPeriph_Driver/src/stm32f4xx_dma.c:402:   DMA_InitStruct->DMA_Peripheral
 400:../Libraries/STM32F4xx_StdPeriph_Driver/src/stm32f4xx_dma.c **** 
 401:../Libraries/STM32F4xx_StdPeriph_Driver/src/stm32f4xx_dma.c ****   /* Initialize the DMA_PeripheralBaseAddr member */
 402:../Libraries/STM32F4xx_StdPeriph_Driver/src/stm32f4xx_dma.c ****   DMA_InitStruct->DMA_PeripheralBaseAddr = 0;
 582              		.loc 1 402 42 view .LVU151
 583 0002 C0E90033 		strd	r3, r3, [r0]	@ tmp114, tmp114, DMA_InitStruct
 403:../Libraries/STM32F4xx_StdPeriph_Driver/src/stm32f4xx_dma.c **** 
 404:../Libraries/STM32F4xx_StdPeriph_Driver/src/stm32f4xx_dma.c ****   /* Initialize the DMA_Memory0BaseAddr member */
 405:../Libraries/STM32F4xx_StdPeriph_Driver/src/stm32f4xx_dma.c ****   DMA_InitStruct->DMA_Memory0BaseAddr = 0;
 584              		.loc 1 405 3 is_stmt 1 view .LVU152
 585              	@ ../Libraries/STM32F4xx_StdPeriph_Driver/src/stm32f4xx_dma.c:408:   DMA_InitStruct->DMA_DIR = DMA_
 406:../Libraries/STM32F4xx_StdPeriph_Driver/src/stm32f4xx_dma.c **** 
 407:../Libraries/STM32F4xx_StdPeriph_Driver/src/stm32f4xx_dma.c ****   /* Initialize the DMA_DIR member */
 408:../Libraries/STM32F4xx_StdPeriph_Driver/src/stm32f4xx_dma.c ****   DMA_InitStruct->DMA_DIR = DMA_DIR_PeripheralToMemory;
 586              		.loc 1 408 27 is_stmt 0 view .LVU153
 587 0006 C0E90233 		strd	r3, r3, [r0, #8]	@ tmp114, tmp114, DMA_InitStruct,
 409:../Libraries/STM32F4xx_StdPeriph_Driver/src/stm32f4xx_dma.c **** 
 410:../Libraries/STM32F4xx_StdPeriph_Driver/src/stm32f4xx_dma.c ****   /* Initialize the DMA_BufferSize member */
 411:../Libraries/STM32F4xx_StdPeriph_Driver/src/stm32f4xx_dma.c ****   DMA_InitStruct->DMA_BufferSize = 0;
 588              		.loc 1 411 3 is_stmt 1 view .LVU154
 589              	@ ../Libraries/STM32F4xx_StdPeriph_Driver/src/stm32f4xx_dma.c:414:   DMA_InitStruct->DMA_Peripheral
 412:../Libraries/STM32F4xx_StdPeriph_Driver/src/stm32f4xx_dma.c **** 
 413:../Libraries/STM32F4xx_StdPeriph_Driver/src/stm32f4xx_dma.c ****   /* Initialize the DMA_PeripheralInc member */
 414:../Libraries/STM32F4xx_StdPeriph_Driver/src/stm32f4xx_dma.c ****   DMA_InitStruct->DMA_PeripheralInc = DMA_PeripheralInc_Disable;
 590              		.loc 1 414 37 is_stmt 0 view .LVU155
 591 000a C0E90433 		strd	r3, r3, [r0, #16]	@ tmp114, tmp114, DMA_InitStruct,
 415:../Libraries/STM32F4xx_StdPeriph_Driver/src/stm32f4xx_dma.c **** 
 416:../Libraries/STM32F4xx_StdPeriph_Driver/src/stm32f4xx_dma.c ****   /* Initialize the DMA_MemoryInc member */
 417:../Libraries/STM32F4xx_StdPeriph_Driver/src/stm32f4xx_dma.c ****   DMA_InitStruct->DMA_MemoryInc = DMA_MemoryInc_Disable;
 592              		.loc 1 417 3 is_stmt 1 view .LVU156
 593              	@ ../Libraries/STM32F4xx_StdPeriph_Driver/src/stm32f4xx_dma.c:420:   DMA_InitStruct->DMA_Peripheral
 418:../Libraries/STM32F4xx_StdPeriph_Driver/src/stm32f4xx_dma.c **** 
 419:../Libraries/STM32F4xx_StdPeriph_Driver/src/stm32f4xx_dma.c ****   /* Initialize the DMA_PeripheralDataSize member */
 420:../Libraries/STM32F4xx_StdPeriph_Driver/src/stm32f4xx_dma.c ****   DMA_InitStruct->DMA_PeripheralDataSize = DMA_PeripheralDataSize_Byte;
 594              		.loc 1 420 42 is_stmt 0 view .LVU157
 595 000e C0E90633 		strd	r3, r3, [r0, #24]	@ tmp114, tmp114, DMA_InitStruct,
 421:../Libraries/STM32F4xx_StdPeriph_Driver/src/stm32f4xx_dma.c **** 
 422:../Libraries/STM32F4xx_StdPeriph_Driver/src/stm32f4xx_dma.c ****   /* Initialize the DMA_MemoryDataSize member */
 423:../Libraries/STM32F4xx_StdPeriph_Driver/src/stm32f4xx_dma.c ****   DMA_InitStruct->DMA_MemoryDataSize = DMA_MemoryDataSize_Byte;
 596              		.loc 1 423 3 is_stmt 1 view .LVU158
 597              	@ ../Libraries/STM32F4xx_StdPeriph_Driver/src/stm32f4xx_dma.c:426:   DMA_InitStruct->DMA_Mode = DMA
 424:../Libraries/STM32F4xx_StdPeriph_Driver/src/stm32f4xx_dma.c **** 
 425:../Libraries/STM32F4xx_StdPeriph_Driver/src/stm32f4xx_dma.c ****   /* Initialize the DMA_Mode member */
 426:../Libraries/STM32F4xx_StdPeriph_Driver/src/stm32f4xx_dma.c ****   DMA_InitStruct->DMA_Mode = DMA_Mode_Normal;
 598              		.loc 1 426 28 is_stmt 0 view .LVU159
 599 0012 C0E90833 		strd	r3, r3, [r0, #32]	@ tmp114, tmp114, DMA_InitStruct,
 427:../Libraries/STM32F4xx_StdPeriph_Driver/src/stm32f4xx_dma.c **** 
 428:../Libraries/STM32F4xx_StdPeriph_Driver/src/stm32f4xx_dma.c ****   /* Initialize the DMA_Priority member */
 429:../Libraries/STM32F4xx_StdPeriph_Driver/src/stm32f4xx_dma.c ****   DMA_InitStruct->DMA_Priority = DMA_Priority_Low;
 600              		.loc 1 429 3 is_stmt 1 view .LVU160
ARM GAS  C:\Users\admin\AppData\Local\Temp\ccYXfAC7.s 			page 20


 601              	@ ../Libraries/STM32F4xx_StdPeriph_Driver/src/stm32f4xx_dma.c:432:   DMA_InitStruct->DMA_FIFOMode =
 430:../Libraries/STM32F4xx_StdPeriph_Driver/src/stm32f4xx_dma.c **** 
 431:../Libraries/STM32F4xx_StdPeriph_Driver/src/stm32f4xx_dma.c ****   /* Initialize the DMA_FIFOMode member */
 432:../Libraries/STM32F4xx_StdPeriph_Driver/src/stm32f4xx_dma.c ****   DMA_InitStruct->DMA_FIFOMode = DMA_FIFOMode_Disable;
 602              		.loc 1 432 32 is_stmt 0 view .LVU161
 603 0016 C0E90A33 		strd	r3, r3, [r0, #40]	@ tmp114, tmp114, DMA_InitStruct,
 433:../Libraries/STM32F4xx_StdPeriph_Driver/src/stm32f4xx_dma.c **** 
 434:../Libraries/STM32F4xx_StdPeriph_Driver/src/stm32f4xx_dma.c ****   /* Initialize the DMA_FIFOThreshold member */
 435:../Libraries/STM32F4xx_StdPeriph_Driver/src/stm32f4xx_dma.c ****   DMA_InitStruct->DMA_FIFOThreshold = DMA_FIFOThreshold_1QuarterFull;
 604              		.loc 1 435 3 is_stmt 1 view .LVU162
 605              	@ ../Libraries/STM32F4xx_StdPeriph_Driver/src/stm32f4xx_dma.c:438:   DMA_InitStruct->DMA_MemoryBurs
 436:../Libraries/STM32F4xx_StdPeriph_Driver/src/stm32f4xx_dma.c **** 
 437:../Libraries/STM32F4xx_StdPeriph_Driver/src/stm32f4xx_dma.c ****   /* Initialize the DMA_MemoryBurst member */
 438:../Libraries/STM32F4xx_StdPeriph_Driver/src/stm32f4xx_dma.c ****   DMA_InitStruct->DMA_MemoryBurst = DMA_MemoryBurst_Single;
 606              		.loc 1 438 35 is_stmt 0 view .LVU163
 607 001a C0E90C33 		strd	r3, r3, [r0, #48]	@ tmp114, tmp114, DMA_InitStruct,
 439:../Libraries/STM32F4xx_StdPeriph_Driver/src/stm32f4xx_dma.c **** 
 440:../Libraries/STM32F4xx_StdPeriph_Driver/src/stm32f4xx_dma.c ****   /* Initialize the DMA_PeripheralBurst member */
 441:../Libraries/STM32F4xx_StdPeriph_Driver/src/stm32f4xx_dma.c ****   DMA_InitStruct->DMA_PeripheralBurst = DMA_PeripheralBurst_Single;
 608              		.loc 1 441 3 is_stmt 1 view .LVU164
 609              	@ ../Libraries/STM32F4xx_StdPeriph_Driver/src/stm32f4xx_dma.c:441:   DMA_InitStruct->DMA_Peripheral
 610              		.loc 1 441 39 is_stmt 0 view .LVU165
 611 001e 8363     		str	r3, [r0, #56]	@ tmp114, DMA_InitStruct_2(D)->DMA_PeripheralBurst
 612              	@ ../Libraries/STM32F4xx_StdPeriph_Driver/src/stm32f4xx_dma.c:442: }
 442:../Libraries/STM32F4xx_StdPeriph_Driver/src/stm32f4xx_dma.c **** }
 613              		.loc 1 442 1 view .LVU166
 614 0020 7047     		bx	lr	@
 615              		.cfi_endproc
 616              	.LFE112:
 617              		.size	DMA_StructInit, .-DMA_StructInit
 618 0022 00BF     		.section	.text.DMA_Cmd,"ax",%progbits
 619              		.align	1
 620              		.p2align 2,,3
 621              		.global	DMA_Cmd
 622              		.syntax unified
 623              		.thumb
 624              		.thumb_func
 625              		.type	DMA_Cmd, %function
 626              	DMA_Cmd:
 627              	.LVL11:
 628              	.LFB113:
 443:../Libraries/STM32F4xx_StdPeriph_Driver/src/stm32f4xx_dma.c **** 
 444:../Libraries/STM32F4xx_StdPeriph_Driver/src/stm32f4xx_dma.c **** /**
 445:../Libraries/STM32F4xx_StdPeriph_Driver/src/stm32f4xx_dma.c ****   * @brief  Enables or disables the specified DMAy Streamx.
 446:../Libraries/STM32F4xx_StdPeriph_Driver/src/stm32f4xx_dma.c ****   * @param  DMAy_Streamx: where y can be 1 or 2 to select the DMA and x can be 0
 447:../Libraries/STM32F4xx_StdPeriph_Driver/src/stm32f4xx_dma.c ****   *         to 7 to select the DMA Stream.
 448:../Libraries/STM32F4xx_StdPeriph_Driver/src/stm32f4xx_dma.c ****   * @param  NewState: new state of the DMAy Streamx. 
 449:../Libraries/STM32F4xx_StdPeriph_Driver/src/stm32f4xx_dma.c ****   *          This parameter can be: ENABLE or DISABLE.
 450:../Libraries/STM32F4xx_StdPeriph_Driver/src/stm32f4xx_dma.c ****   *
 451:../Libraries/STM32F4xx_StdPeriph_Driver/src/stm32f4xx_dma.c ****   * @note  This function may be used to perform Pause-Resume operation. When a
 452:../Libraries/STM32F4xx_StdPeriph_Driver/src/stm32f4xx_dma.c ****   *        transfer is ongoing, calling this function to disable the Stream will
 453:../Libraries/STM32F4xx_StdPeriph_Driver/src/stm32f4xx_dma.c ****   *        cause the transfer to be paused. All configuration registers and the
 454:../Libraries/STM32F4xx_StdPeriph_Driver/src/stm32f4xx_dma.c ****   *        number of remaining data will be preserved. When calling again this
 455:../Libraries/STM32F4xx_StdPeriph_Driver/src/stm32f4xx_dma.c ****   *        function to re-enable the Stream, the transfer will be resumed from
 456:../Libraries/STM32F4xx_StdPeriph_Driver/src/stm32f4xx_dma.c ****   *        the point where it was paused.          
 457:../Libraries/STM32F4xx_StdPeriph_Driver/src/stm32f4xx_dma.c ****   *    
 458:../Libraries/STM32F4xx_StdPeriph_Driver/src/stm32f4xx_dma.c ****   * @note  After configuring the DMA Stream (DMA_Init() function) and enabling the
ARM GAS  C:\Users\admin\AppData\Local\Temp\ccYXfAC7.s 			page 21


 459:../Libraries/STM32F4xx_StdPeriph_Driver/src/stm32f4xx_dma.c ****   *        stream, it is recommended to check (or wait until) the DMA Stream is
 460:../Libraries/STM32F4xx_StdPeriph_Driver/src/stm32f4xx_dma.c ****   *        effectively enabled. A Stream may remain disabled if a configuration 
 461:../Libraries/STM32F4xx_StdPeriph_Driver/src/stm32f4xx_dma.c ****   *        parameter is wrong.
 462:../Libraries/STM32F4xx_StdPeriph_Driver/src/stm32f4xx_dma.c ****   *        After disabling a DMA Stream, it is also recommended to check (or wait
 463:../Libraries/STM32F4xx_StdPeriph_Driver/src/stm32f4xx_dma.c ****   *        until) the DMA Stream is effectively disabled. If a Stream is disabled 
 464:../Libraries/STM32F4xx_StdPeriph_Driver/src/stm32f4xx_dma.c ****   *        while a data transfer is ongoing, the current data will be transferred
 465:../Libraries/STM32F4xx_StdPeriph_Driver/src/stm32f4xx_dma.c ****   *        and the Stream will be effectively disabled only after the transfer of
 466:../Libraries/STM32F4xx_StdPeriph_Driver/src/stm32f4xx_dma.c ****   *        this single data is finished.            
 467:../Libraries/STM32F4xx_StdPeriph_Driver/src/stm32f4xx_dma.c ****   *    
 468:../Libraries/STM32F4xx_StdPeriph_Driver/src/stm32f4xx_dma.c ****   * @retval None
 469:../Libraries/STM32F4xx_StdPeriph_Driver/src/stm32f4xx_dma.c ****   */
 470:../Libraries/STM32F4xx_StdPeriph_Driver/src/stm32f4xx_dma.c **** void DMA_Cmd(DMA_Stream_TypeDef* DMAy_Streamx, FunctionalState NewState)
 471:../Libraries/STM32F4xx_StdPeriph_Driver/src/stm32f4xx_dma.c **** {
 629              		.loc 1 471 1 is_stmt 1 view -0
 630              		.cfi_startproc
 631              		@ args = 0, pretend = 0, frame = 0
 632              		@ frame_needed = 0, uses_anonymous_args = 0
 633              		@ link register save eliminated.
 472:../Libraries/STM32F4xx_StdPeriph_Driver/src/stm32f4xx_dma.c ****   /* Check the parameters */
 473:../Libraries/STM32F4xx_StdPeriph_Driver/src/stm32f4xx_dma.c ****   assert_param(IS_DMA_ALL_PERIPH(DMAy_Streamx));
 634              		.loc 1 473 3 view .LVU168
 474:../Libraries/STM32F4xx_StdPeriph_Driver/src/stm32f4xx_dma.c ****   assert_param(IS_FUNCTIONAL_STATE(NewState));
 635              		.loc 1 474 3 view .LVU169
 475:../Libraries/STM32F4xx_StdPeriph_Driver/src/stm32f4xx_dma.c **** 
 476:../Libraries/STM32F4xx_StdPeriph_Driver/src/stm32f4xx_dma.c ****   if (NewState != DISABLE)
 636              		.loc 1 476 3 view .LVU170
 637              	@ ../Libraries/STM32F4xx_StdPeriph_Driver/src/stm32f4xx_dma.c:479:     DMAy_Streamx->CR |= (uint32_
 477:../Libraries/STM32F4xx_StdPeriph_Driver/src/stm32f4xx_dma.c ****   {
 478:../Libraries/STM32F4xx_StdPeriph_Driver/src/stm32f4xx_dma.c ****     /* Enable the selected DMAy Streamx by setting EN bit */
 479:../Libraries/STM32F4xx_StdPeriph_Driver/src/stm32f4xx_dma.c ****     DMAy_Streamx->CR |= (uint32_t)DMA_SxCR_EN;
 638              		.loc 1 479 22 is_stmt 0 view .LVU171
 639 0000 0368     		ldr	r3, [r0]	@ _1,* DMAy_Streamx
 640              	@ ../Libraries/STM32F4xx_StdPeriph_Driver/src/stm32f4xx_dma.c:476:   if (NewState != DISABLE)
 476:../Libraries/STM32F4xx_StdPeriph_Driver/src/stm32f4xx_dma.c ****   {
 641              		.loc 1 476 6 view .LVU172
 642 0002 19B1     		cbz	r1, .L37	@ tmp120,
 643              		.loc 1 479 5 is_stmt 1 view .LVU173
 644              	@ ../Libraries/STM32F4xx_StdPeriph_Driver/src/stm32f4xx_dma.c:479:     DMAy_Streamx->CR |= (uint32_
 645              		.loc 1 479 22 is_stmt 0 view .LVU174
 646 0004 43F00103 		orr	r3, r3, #1	@ _2, _1,
 647 0008 0360     		str	r3, [r0]	@ _2,* DMAy_Streamx
 648 000a 7047     		bx	lr	@
 649              	.L37:
 480:../Libraries/STM32F4xx_StdPeriph_Driver/src/stm32f4xx_dma.c ****   }
 481:../Libraries/STM32F4xx_StdPeriph_Driver/src/stm32f4xx_dma.c ****   else
 482:../Libraries/STM32F4xx_StdPeriph_Driver/src/stm32f4xx_dma.c ****   {
 483:../Libraries/STM32F4xx_StdPeriph_Driver/src/stm32f4xx_dma.c ****     /* Disable the selected DMAy Streamx by clearing EN bit */
 484:../Libraries/STM32F4xx_StdPeriph_Driver/src/stm32f4xx_dma.c ****     DMAy_Streamx->CR &= ~(uint32_t)DMA_SxCR_EN;
 650              		.loc 1 484 5 is_stmt 1 view .LVU175
 651              	@ ../Libraries/STM32F4xx_StdPeriph_Driver/src/stm32f4xx_dma.c:484:     DMAy_Streamx->CR &= ~(uint32
 652              		.loc 1 484 22 is_stmt 0 view .LVU176
 653 000c 23F00103 		bic	r3, r3, #1	@ _4, _3,
 654 0010 0360     		str	r3, [r0]	@ _4,* DMAy_Streamx
 655              	@ ../Libraries/STM32F4xx_StdPeriph_Driver/src/stm32f4xx_dma.c:486: }
 485:../Libraries/STM32F4xx_StdPeriph_Driver/src/stm32f4xx_dma.c ****   }
 486:../Libraries/STM32F4xx_StdPeriph_Driver/src/stm32f4xx_dma.c **** }
 656              		.loc 1 486 1 view .LVU177
ARM GAS  C:\Users\admin\AppData\Local\Temp\ccYXfAC7.s 			page 22


 657 0012 7047     		bx	lr	@
 658              		.cfi_endproc
 659              	.LFE113:
 660              		.size	DMA_Cmd, .-DMA_Cmd
 661              		.section	.text.DMA_PeriphIncOffsetSizeConfig,"ax",%progbits
 662              		.align	1
 663              		.p2align 2,,3
 664              		.global	DMA_PeriphIncOffsetSizeConfig
 665              		.syntax unified
 666              		.thumb
 667              		.thumb_func
 668              		.type	DMA_PeriphIncOffsetSizeConfig, %function
 669              	DMA_PeriphIncOffsetSizeConfig:
 670              	.LVL12:
 671              	.LFB114:
 487:../Libraries/STM32F4xx_StdPeriph_Driver/src/stm32f4xx_dma.c **** 
 488:../Libraries/STM32F4xx_StdPeriph_Driver/src/stm32f4xx_dma.c **** /**
 489:../Libraries/STM32F4xx_StdPeriph_Driver/src/stm32f4xx_dma.c ****   * @brief  Configures, when the PINC (Peripheral Increment address mode) bit is
 490:../Libraries/STM32F4xx_StdPeriph_Driver/src/stm32f4xx_dma.c ****   *         set, if the peripheral address should be incremented with the data 
 491:../Libraries/STM32F4xx_StdPeriph_Driver/src/stm32f4xx_dma.c ****   *         size (configured with PSIZE bits) or by a fixed offset equal to 4
 492:../Libraries/STM32F4xx_StdPeriph_Driver/src/stm32f4xx_dma.c ****   *         (32-bit aligned addresses).
 493:../Libraries/STM32F4xx_StdPeriph_Driver/src/stm32f4xx_dma.c ****   *   
 494:../Libraries/STM32F4xx_StdPeriph_Driver/src/stm32f4xx_dma.c ****   * @note   This function has no effect if the Peripheral Increment mode is disabled.
 495:../Libraries/STM32F4xx_StdPeriph_Driver/src/stm32f4xx_dma.c ****   *     
 496:../Libraries/STM32F4xx_StdPeriph_Driver/src/stm32f4xx_dma.c ****   * @param  DMAy_Streamx: where y can be 1 or 2 to select the DMA and x can be 0
 497:../Libraries/STM32F4xx_StdPeriph_Driver/src/stm32f4xx_dma.c ****   *          to 7 to select the DMA Stream.
 498:../Libraries/STM32F4xx_StdPeriph_Driver/src/stm32f4xx_dma.c ****   * @param  DMA_Pincos: specifies the Peripheral increment offset size.
 499:../Libraries/STM32F4xx_StdPeriph_Driver/src/stm32f4xx_dma.c ****   *          This parameter can be one of the following values:
 500:../Libraries/STM32F4xx_StdPeriph_Driver/src/stm32f4xx_dma.c ****   *            @arg DMA_PINCOS_Psize: Peripheral address increment is done  
 501:../Libraries/STM32F4xx_StdPeriph_Driver/src/stm32f4xx_dma.c ****   *                                   accordingly to PSIZE parameter.
 502:../Libraries/STM32F4xx_StdPeriph_Driver/src/stm32f4xx_dma.c ****   *            @arg DMA_PINCOS_WordAligned: Peripheral address increment offset is 
 503:../Libraries/STM32F4xx_StdPeriph_Driver/src/stm32f4xx_dma.c ****   *                                         fixed to 4 (32-bit aligned addresses). 
 504:../Libraries/STM32F4xx_StdPeriph_Driver/src/stm32f4xx_dma.c ****   * @retval None
 505:../Libraries/STM32F4xx_StdPeriph_Driver/src/stm32f4xx_dma.c ****   */
 506:../Libraries/STM32F4xx_StdPeriph_Driver/src/stm32f4xx_dma.c **** void DMA_PeriphIncOffsetSizeConfig(DMA_Stream_TypeDef* DMAy_Streamx, uint32_t DMA_Pincos)
 507:../Libraries/STM32F4xx_StdPeriph_Driver/src/stm32f4xx_dma.c **** {
 672              		.loc 1 507 1 is_stmt 1 view -0
 673              		.cfi_startproc
 674              		@ args = 0, pretend = 0, frame = 0
 675              		@ frame_needed = 0, uses_anonymous_args = 0
 676              		@ link register save eliminated.
 508:../Libraries/STM32F4xx_StdPeriph_Driver/src/stm32f4xx_dma.c ****   /* Check the parameters */
 509:../Libraries/STM32F4xx_StdPeriph_Driver/src/stm32f4xx_dma.c ****   assert_param(IS_DMA_ALL_PERIPH(DMAy_Streamx));
 677              		.loc 1 509 3 view .LVU179
 510:../Libraries/STM32F4xx_StdPeriph_Driver/src/stm32f4xx_dma.c ****   assert_param(IS_DMA_PINCOS_SIZE(DMA_Pincos));
 678              		.loc 1 510 3 view .LVU180
 511:../Libraries/STM32F4xx_StdPeriph_Driver/src/stm32f4xx_dma.c **** 
 512:../Libraries/STM32F4xx_StdPeriph_Driver/src/stm32f4xx_dma.c ****   /* Check the needed Peripheral increment offset */
 513:../Libraries/STM32F4xx_StdPeriph_Driver/src/stm32f4xx_dma.c ****   if(DMA_Pincos != DMA_PINCOS_Psize)
 679              		.loc 1 513 3 view .LVU181
 680              	@ ../Libraries/STM32F4xx_StdPeriph_Driver/src/stm32f4xx_dma.c:516:     DMAy_Streamx->CR |= (uint32_
 514:../Libraries/STM32F4xx_StdPeriph_Driver/src/stm32f4xx_dma.c ****   {
 515:../Libraries/STM32F4xx_StdPeriph_Driver/src/stm32f4xx_dma.c ****     /* Configure DMA_SxCR_PINCOS bit with the input parameter */
 516:../Libraries/STM32F4xx_StdPeriph_Driver/src/stm32f4xx_dma.c ****     DMAy_Streamx->CR |= (uint32_t)DMA_SxCR_PINCOS;     
 681              		.loc 1 516 22 is_stmt 0 view .LVU182
 682 0000 0368     		ldr	r3, [r0]	@ _1,* DMAy_Streamx
 683              	@ ../Libraries/STM32F4xx_StdPeriph_Driver/src/stm32f4xx_dma.c:513:   if(DMA_Pincos != DMA_PINCOS_Ps
ARM GAS  C:\Users\admin\AppData\Local\Temp\ccYXfAC7.s 			page 23


 513:../Libraries/STM32F4xx_StdPeriph_Driver/src/stm32f4xx_dma.c ****   {
 684              		.loc 1 513 5 view .LVU183
 685 0002 19B1     		cbz	r1, .L40	@ tmp120,
 686              		.loc 1 516 5 is_stmt 1 view .LVU184
 687              	@ ../Libraries/STM32F4xx_StdPeriph_Driver/src/stm32f4xx_dma.c:516:     DMAy_Streamx->CR |= (uint32_
 688              		.loc 1 516 22 is_stmt 0 view .LVU185
 689 0004 43F40043 		orr	r3, r3, #32768	@ _2, _1,
 690 0008 0360     		str	r3, [r0]	@ _2,* DMAy_Streamx
 691 000a 7047     		bx	lr	@
 692              	.L40:
 517:../Libraries/STM32F4xx_StdPeriph_Driver/src/stm32f4xx_dma.c ****   }
 518:../Libraries/STM32F4xx_StdPeriph_Driver/src/stm32f4xx_dma.c ****   else
 519:../Libraries/STM32F4xx_StdPeriph_Driver/src/stm32f4xx_dma.c ****   {
 520:../Libraries/STM32F4xx_StdPeriph_Driver/src/stm32f4xx_dma.c ****     /* Clear the PINCOS bit: Peripheral address incremented according to PSIZE */
 521:../Libraries/STM32F4xx_StdPeriph_Driver/src/stm32f4xx_dma.c ****     DMAy_Streamx->CR &= ~(uint32_t)DMA_SxCR_PINCOS;    
 693              		.loc 1 521 5 is_stmt 1 view .LVU186
 694              	@ ../Libraries/STM32F4xx_StdPeriph_Driver/src/stm32f4xx_dma.c:521:     DMAy_Streamx->CR &= ~(uint32
 695              		.loc 1 521 22 is_stmt 0 view .LVU187
 696 000c 23F40043 		bic	r3, r3, #32768	@ _4, _3,
 697 0010 0360     		str	r3, [r0]	@ _4,* DMAy_Streamx
 698              	@ ../Libraries/STM32F4xx_StdPeriph_Driver/src/stm32f4xx_dma.c:523: }
 522:../Libraries/STM32F4xx_StdPeriph_Driver/src/stm32f4xx_dma.c ****   }
 523:../Libraries/STM32F4xx_StdPeriph_Driver/src/stm32f4xx_dma.c **** }
 699              		.loc 1 523 1 view .LVU188
 700 0012 7047     		bx	lr	@
 701              		.cfi_endproc
 702              	.LFE114:
 703              		.size	DMA_PeriphIncOffsetSizeConfig, .-DMA_PeriphIncOffsetSizeConfig
 704              		.section	.text.DMA_FlowControllerConfig,"ax",%progbits
 705              		.align	1
 706              		.p2align 2,,3
 707              		.global	DMA_FlowControllerConfig
 708              		.syntax unified
 709              		.thumb
 710              		.thumb_func
 711              		.type	DMA_FlowControllerConfig, %function
 712              	DMA_FlowControllerConfig:
 713              	.LVL13:
 714              	.LFB115:
 524:../Libraries/STM32F4xx_StdPeriph_Driver/src/stm32f4xx_dma.c **** 
 525:../Libraries/STM32F4xx_StdPeriph_Driver/src/stm32f4xx_dma.c **** /**
 526:../Libraries/STM32F4xx_StdPeriph_Driver/src/stm32f4xx_dma.c ****   * @brief  Configures, when the DMAy Streamx is disabled, the flow controller for
 527:../Libraries/STM32F4xx_StdPeriph_Driver/src/stm32f4xx_dma.c ****   *         the next transactions (Peripheral or Memory).
 528:../Libraries/STM32F4xx_StdPeriph_Driver/src/stm32f4xx_dma.c ****   *       
 529:../Libraries/STM32F4xx_StdPeriph_Driver/src/stm32f4xx_dma.c ****   * @note   Before enabling this feature, check if the used peripheral supports 
 530:../Libraries/STM32F4xx_StdPeriph_Driver/src/stm32f4xx_dma.c ****   *         the Flow Controller mode or not.    
 531:../Libraries/STM32F4xx_StdPeriph_Driver/src/stm32f4xx_dma.c ****   *  
 532:../Libraries/STM32F4xx_StdPeriph_Driver/src/stm32f4xx_dma.c ****   * @param  DMAy_Streamx: where y can be 1 or 2 to select the DMA and x can be 0
 533:../Libraries/STM32F4xx_StdPeriph_Driver/src/stm32f4xx_dma.c ****   *          to 7 to select the DMA Stream.
 534:../Libraries/STM32F4xx_StdPeriph_Driver/src/stm32f4xx_dma.c ****   * @param  DMA_FlowCtrl: specifies the DMA flow controller.
 535:../Libraries/STM32F4xx_StdPeriph_Driver/src/stm32f4xx_dma.c ****   *          This parameter can be one of the following values:
 536:../Libraries/STM32F4xx_StdPeriph_Driver/src/stm32f4xx_dma.c ****   *            @arg DMA_FlowCtrl_Memory: DMAy_Streamx transactions flow controller is 
 537:../Libraries/STM32F4xx_StdPeriph_Driver/src/stm32f4xx_dma.c ****   *                                      the DMA controller.
 538:../Libraries/STM32F4xx_StdPeriph_Driver/src/stm32f4xx_dma.c ****   *            @arg DMA_FlowCtrl_Peripheral: DMAy_Streamx transactions flow controller 
 539:../Libraries/STM32F4xx_StdPeriph_Driver/src/stm32f4xx_dma.c ****   *                                          is the peripheral.    
 540:../Libraries/STM32F4xx_StdPeriph_Driver/src/stm32f4xx_dma.c ****   * @retval None
 541:../Libraries/STM32F4xx_StdPeriph_Driver/src/stm32f4xx_dma.c ****   */
ARM GAS  C:\Users\admin\AppData\Local\Temp\ccYXfAC7.s 			page 24


 542:../Libraries/STM32F4xx_StdPeriph_Driver/src/stm32f4xx_dma.c **** void DMA_FlowControllerConfig(DMA_Stream_TypeDef* DMAy_Streamx, uint32_t DMA_FlowCtrl)
 543:../Libraries/STM32F4xx_StdPeriph_Driver/src/stm32f4xx_dma.c **** {
 715              		.loc 1 543 1 is_stmt 1 view -0
 716              		.cfi_startproc
 717              		@ args = 0, pretend = 0, frame = 0
 718              		@ frame_needed = 0, uses_anonymous_args = 0
 719              		@ link register save eliminated.
 544:../Libraries/STM32F4xx_StdPeriph_Driver/src/stm32f4xx_dma.c ****   /* Check the parameters */
 545:../Libraries/STM32F4xx_StdPeriph_Driver/src/stm32f4xx_dma.c ****   assert_param(IS_DMA_ALL_PERIPH(DMAy_Streamx));
 720              		.loc 1 545 3 view .LVU190
 546:../Libraries/STM32F4xx_StdPeriph_Driver/src/stm32f4xx_dma.c ****   assert_param(IS_DMA_FLOW_CTRL(DMA_FlowCtrl));
 721              		.loc 1 546 3 view .LVU191
 547:../Libraries/STM32F4xx_StdPeriph_Driver/src/stm32f4xx_dma.c **** 
 548:../Libraries/STM32F4xx_StdPeriph_Driver/src/stm32f4xx_dma.c ****   /* Check the needed flow controller  */
 549:../Libraries/STM32F4xx_StdPeriph_Driver/src/stm32f4xx_dma.c ****   if(DMA_FlowCtrl != DMA_FlowCtrl_Memory)
 722              		.loc 1 549 3 view .LVU192
 723              	@ ../Libraries/STM32F4xx_StdPeriph_Driver/src/stm32f4xx_dma.c:552:     DMAy_Streamx->CR |= (uint32_
 550:../Libraries/STM32F4xx_StdPeriph_Driver/src/stm32f4xx_dma.c ****   {
 551:../Libraries/STM32F4xx_StdPeriph_Driver/src/stm32f4xx_dma.c ****     /* Configure DMA_SxCR_PFCTRL bit with the input parameter */
 552:../Libraries/STM32F4xx_StdPeriph_Driver/src/stm32f4xx_dma.c ****     DMAy_Streamx->CR |= (uint32_t)DMA_SxCR_PFCTRL;   
 724              		.loc 1 552 22 is_stmt 0 view .LVU193
 725 0000 0368     		ldr	r3, [r0]	@ _1,* DMAy_Streamx
 726              	@ ../Libraries/STM32F4xx_StdPeriph_Driver/src/stm32f4xx_dma.c:549:   if(DMA_FlowCtrl != DMA_FlowCtr
 549:../Libraries/STM32F4xx_StdPeriph_Driver/src/stm32f4xx_dma.c ****   {
 727              		.loc 1 549 5 view .LVU194
 728 0002 19B1     		cbz	r1, .L43	@ tmp120,
 729              		.loc 1 552 5 is_stmt 1 view .LVU195
 730              	@ ../Libraries/STM32F4xx_StdPeriph_Driver/src/stm32f4xx_dma.c:552:     DMAy_Streamx->CR |= (uint32_
 731              		.loc 1 552 22 is_stmt 0 view .LVU196
 732 0004 43F02003 		orr	r3, r3, #32	@ _2, _1,
 733 0008 0360     		str	r3, [r0]	@ _2,* DMAy_Streamx
 734 000a 7047     		bx	lr	@
 735              	.L43:
 553:../Libraries/STM32F4xx_StdPeriph_Driver/src/stm32f4xx_dma.c ****   }
 554:../Libraries/STM32F4xx_StdPeriph_Driver/src/stm32f4xx_dma.c ****   else
 555:../Libraries/STM32F4xx_StdPeriph_Driver/src/stm32f4xx_dma.c ****   {
 556:../Libraries/STM32F4xx_StdPeriph_Driver/src/stm32f4xx_dma.c ****     /* Clear the PFCTRL bit: Memory is the flow controller */
 557:../Libraries/STM32F4xx_StdPeriph_Driver/src/stm32f4xx_dma.c ****     DMAy_Streamx->CR &= ~(uint32_t)DMA_SxCR_PFCTRL;    
 736              		.loc 1 557 5 is_stmt 1 view .LVU197
 737              	@ ../Libraries/STM32F4xx_StdPeriph_Driver/src/stm32f4xx_dma.c:557:     DMAy_Streamx->CR &= ~(uint32
 738              		.loc 1 557 22 is_stmt 0 view .LVU198
 739 000c 23F02003 		bic	r3, r3, #32	@ _4, _3,
 740 0010 0360     		str	r3, [r0]	@ _4,* DMAy_Streamx
 741              	@ ../Libraries/STM32F4xx_StdPeriph_Driver/src/stm32f4xx_dma.c:559: }
 558:../Libraries/STM32F4xx_StdPeriph_Driver/src/stm32f4xx_dma.c ****   }
 559:../Libraries/STM32F4xx_StdPeriph_Driver/src/stm32f4xx_dma.c **** }
 742              		.loc 1 559 1 view .LVU199
 743 0012 7047     		bx	lr	@
 744              		.cfi_endproc
 745              	.LFE115:
 746              		.size	DMA_FlowControllerConfig, .-DMA_FlowControllerConfig
 747              		.section	.text.DMA_SetCurrDataCounter,"ax",%progbits
 748              		.align	1
 749              		.p2align 2,,3
 750              		.global	DMA_SetCurrDataCounter
 751              		.syntax unified
 752              		.thumb
ARM GAS  C:\Users\admin\AppData\Local\Temp\ccYXfAC7.s 			page 25


 753              		.thumb_func
 754              		.type	DMA_SetCurrDataCounter, %function
 755              	DMA_SetCurrDataCounter:
 756              	.LVL14:
 757              	.LFB116:
 560:../Libraries/STM32F4xx_StdPeriph_Driver/src/stm32f4xx_dma.c **** /**
 561:../Libraries/STM32F4xx_StdPeriph_Driver/src/stm32f4xx_dma.c ****   * @}
 562:../Libraries/STM32F4xx_StdPeriph_Driver/src/stm32f4xx_dma.c ****   */
 563:../Libraries/STM32F4xx_StdPeriph_Driver/src/stm32f4xx_dma.c **** 
 564:../Libraries/STM32F4xx_StdPeriph_Driver/src/stm32f4xx_dma.c **** /** @defgroup DMA_Group2 Data Counter functions
 565:../Libraries/STM32F4xx_StdPeriph_Driver/src/stm32f4xx_dma.c ****  *  @brief   Data Counter functions 
 566:../Libraries/STM32F4xx_StdPeriph_Driver/src/stm32f4xx_dma.c ****  *
 567:../Libraries/STM32F4xx_StdPeriph_Driver/src/stm32f4xx_dma.c **** @verbatim   
 568:../Libraries/STM32F4xx_StdPeriph_Driver/src/stm32f4xx_dma.c ****  ===============================================================================
 569:../Libraries/STM32F4xx_StdPeriph_Driver/src/stm32f4xx_dma.c ****                            Data Counter functions
 570:../Libraries/STM32F4xx_StdPeriph_Driver/src/stm32f4xx_dma.c ****  ===============================================================================  
 571:../Libraries/STM32F4xx_StdPeriph_Driver/src/stm32f4xx_dma.c **** 
 572:../Libraries/STM32F4xx_StdPeriph_Driver/src/stm32f4xx_dma.c ****   This subsection provides function allowing to configure and read the buffer size
 573:../Libraries/STM32F4xx_StdPeriph_Driver/src/stm32f4xx_dma.c ****   (number of data to be transferred). 
 574:../Libraries/STM32F4xx_StdPeriph_Driver/src/stm32f4xx_dma.c **** 
 575:../Libraries/STM32F4xx_StdPeriph_Driver/src/stm32f4xx_dma.c ****   The DMA data counter can be written only when the DMA Stream is disabled 
 576:../Libraries/STM32F4xx_StdPeriph_Driver/src/stm32f4xx_dma.c ****   (ie. after transfer complete event).
 577:../Libraries/STM32F4xx_StdPeriph_Driver/src/stm32f4xx_dma.c **** 
 578:../Libraries/STM32F4xx_StdPeriph_Driver/src/stm32f4xx_dma.c ****   The following function can be used to write the Stream data counter value:
 579:../Libraries/STM32F4xx_StdPeriph_Driver/src/stm32f4xx_dma.c ****     - void DMA_SetCurrDataCounter(DMA_Stream_TypeDef* DMAy_Streamx, uint16_t Counter);
 580:../Libraries/STM32F4xx_StdPeriph_Driver/src/stm32f4xx_dma.c **** 
 581:../Libraries/STM32F4xx_StdPeriph_Driver/src/stm32f4xx_dma.c **** @note It is advised to use this function rather than DMA_Init() in situations where
 582:../Libraries/STM32F4xx_StdPeriph_Driver/src/stm32f4xx_dma.c ****       only the Data buffer needs to be reloaded.
 583:../Libraries/STM32F4xx_StdPeriph_Driver/src/stm32f4xx_dma.c **** 
 584:../Libraries/STM32F4xx_StdPeriph_Driver/src/stm32f4xx_dma.c **** @note If the Source and Destination Data Sizes are different, then the value written in
 585:../Libraries/STM32F4xx_StdPeriph_Driver/src/stm32f4xx_dma.c ****       data counter, expressing the number of transfers, is relative to the number of 
 586:../Libraries/STM32F4xx_StdPeriph_Driver/src/stm32f4xx_dma.c ****       transfers from the Peripheral point of view.
 587:../Libraries/STM32F4xx_StdPeriph_Driver/src/stm32f4xx_dma.c ****       ie. If Memory data size is Word, Peripheral data size is Half-Words, then the value
 588:../Libraries/STM32F4xx_StdPeriph_Driver/src/stm32f4xx_dma.c ****       to be configured in the data counter is the number of Half-Words to be transferred
 589:../Libraries/STM32F4xx_StdPeriph_Driver/src/stm32f4xx_dma.c ****       from/to the peripheral.
 590:../Libraries/STM32F4xx_StdPeriph_Driver/src/stm32f4xx_dma.c **** 
 591:../Libraries/STM32F4xx_StdPeriph_Driver/src/stm32f4xx_dma.c ****   The DMA data counter can be read to indicate the number of remaining transfers for
 592:../Libraries/STM32F4xx_StdPeriph_Driver/src/stm32f4xx_dma.c ****   the relative DMA Stream. This counter is decremented at the end of each data 
 593:../Libraries/STM32F4xx_StdPeriph_Driver/src/stm32f4xx_dma.c ****   transfer and when the transfer is complete: 
 594:../Libraries/STM32F4xx_StdPeriph_Driver/src/stm32f4xx_dma.c ****    - If Normal mode is selected: the counter is set to 0.
 595:../Libraries/STM32F4xx_StdPeriph_Driver/src/stm32f4xx_dma.c ****    - If Circular mode is selected: the counter is reloaded with the initial value
 596:../Libraries/STM32F4xx_StdPeriph_Driver/src/stm32f4xx_dma.c ****      (configured before enabling the DMA Stream)
 597:../Libraries/STM32F4xx_StdPeriph_Driver/src/stm32f4xx_dma.c ****    
 598:../Libraries/STM32F4xx_StdPeriph_Driver/src/stm32f4xx_dma.c ****   The following function can be used to read the Stream data counter value:
 599:../Libraries/STM32F4xx_StdPeriph_Driver/src/stm32f4xx_dma.c ****      - uint16_t DMA_GetCurrDataCounter(DMA_Stream_TypeDef* DMAy_Streamx);
 600:../Libraries/STM32F4xx_StdPeriph_Driver/src/stm32f4xx_dma.c **** 
 601:../Libraries/STM32F4xx_StdPeriph_Driver/src/stm32f4xx_dma.c **** @endverbatim
 602:../Libraries/STM32F4xx_StdPeriph_Driver/src/stm32f4xx_dma.c ****   * @{
 603:../Libraries/STM32F4xx_StdPeriph_Driver/src/stm32f4xx_dma.c ****   */
 604:../Libraries/STM32F4xx_StdPeriph_Driver/src/stm32f4xx_dma.c **** 
 605:../Libraries/STM32F4xx_StdPeriph_Driver/src/stm32f4xx_dma.c **** /**
 606:../Libraries/STM32F4xx_StdPeriph_Driver/src/stm32f4xx_dma.c ****   * @brief  Writes the number of data units to be transferred on the DMAy Streamx.
 607:../Libraries/STM32F4xx_StdPeriph_Driver/src/stm32f4xx_dma.c ****   * @param  DMAy_Streamx: where y can be 1 or 2 to select the DMA and x can be 0
 608:../Libraries/STM32F4xx_StdPeriph_Driver/src/stm32f4xx_dma.c ****   *          to 7 to select the DMA Stream.
 609:../Libraries/STM32F4xx_StdPeriph_Driver/src/stm32f4xx_dma.c ****   * @param  Counter: Number of data units to be transferred (from 0 to 65535) 
 610:../Libraries/STM32F4xx_StdPeriph_Driver/src/stm32f4xx_dma.c ****   *          Number of data items depends only on the Peripheral data format.
 611:../Libraries/STM32F4xx_StdPeriph_Driver/src/stm32f4xx_dma.c ****   *            
ARM GAS  C:\Users\admin\AppData\Local\Temp\ccYXfAC7.s 			page 26


 612:../Libraries/STM32F4xx_StdPeriph_Driver/src/stm32f4xx_dma.c ****   * @note   If Peripheral data format is Bytes: number of data units is equal 
 613:../Libraries/STM32F4xx_StdPeriph_Driver/src/stm32f4xx_dma.c ****   *         to total number of bytes to be transferred.
 614:../Libraries/STM32F4xx_StdPeriph_Driver/src/stm32f4xx_dma.c ****   *           
 615:../Libraries/STM32F4xx_StdPeriph_Driver/src/stm32f4xx_dma.c ****   * @note   If Peripheral data format is Half-Word: number of data units is  
 616:../Libraries/STM32F4xx_StdPeriph_Driver/src/stm32f4xx_dma.c ****   *         equal to total number of bytes to be transferred / 2.
 617:../Libraries/STM32F4xx_StdPeriph_Driver/src/stm32f4xx_dma.c ****   *           
 618:../Libraries/STM32F4xx_StdPeriph_Driver/src/stm32f4xx_dma.c ****   * @note   If Peripheral data format is Word: number of data units is equal 
 619:../Libraries/STM32F4xx_StdPeriph_Driver/src/stm32f4xx_dma.c ****   *         to total  number of bytes to be transferred / 4.
 620:../Libraries/STM32F4xx_StdPeriph_Driver/src/stm32f4xx_dma.c ****   *      
 621:../Libraries/STM32F4xx_StdPeriph_Driver/src/stm32f4xx_dma.c ****   * @note   In Memory-to-Memory transfer mode, the memory buffer pointed by 
 622:../Libraries/STM32F4xx_StdPeriph_Driver/src/stm32f4xx_dma.c ****   *         DMAy_SxPAR register is considered as Peripheral.
 623:../Libraries/STM32F4xx_StdPeriph_Driver/src/stm32f4xx_dma.c ****   *      
 624:../Libraries/STM32F4xx_StdPeriph_Driver/src/stm32f4xx_dma.c ****   * @retval The number of remaining data units in the current DMAy Streamx transfer.
 625:../Libraries/STM32F4xx_StdPeriph_Driver/src/stm32f4xx_dma.c ****   */
 626:../Libraries/STM32F4xx_StdPeriph_Driver/src/stm32f4xx_dma.c **** void DMA_SetCurrDataCounter(DMA_Stream_TypeDef* DMAy_Streamx, uint16_t Counter)
 627:../Libraries/STM32F4xx_StdPeriph_Driver/src/stm32f4xx_dma.c **** {
 758              		.loc 1 627 1 is_stmt 1 view -0
 759              		.cfi_startproc
 760              		@ args = 0, pretend = 0, frame = 0
 761              		@ frame_needed = 0, uses_anonymous_args = 0
 762              		@ link register save eliminated.
 628:../Libraries/STM32F4xx_StdPeriph_Driver/src/stm32f4xx_dma.c ****   /* Check the parameters */
 629:../Libraries/STM32F4xx_StdPeriph_Driver/src/stm32f4xx_dma.c ****   assert_param(IS_DMA_ALL_PERIPH(DMAy_Streamx));
 763              		.loc 1 629 3 view .LVU201
 630:../Libraries/STM32F4xx_StdPeriph_Driver/src/stm32f4xx_dma.c **** 
 631:../Libraries/STM32F4xx_StdPeriph_Driver/src/stm32f4xx_dma.c ****   /* Write the number of data units to be transferred */
 632:../Libraries/STM32F4xx_StdPeriph_Driver/src/stm32f4xx_dma.c ****   DMAy_Streamx->NDTR = (uint16_t)Counter;
 764              		.loc 1 632 3 view .LVU202
 765              	@ ../Libraries/STM32F4xx_StdPeriph_Driver/src/stm32f4xx_dma.c:632:   DMAy_Streamx->NDTR = (uint16_t
 766              		.loc 1 632 22 is_stmt 0 view .LVU203
 767 0000 4160     		str	r1, [r0, #4]	@ Counter, DMAy_Streamx_4(D)->NDTR
 768              	@ ../Libraries/STM32F4xx_StdPeriph_Driver/src/stm32f4xx_dma.c:633: }
 633:../Libraries/STM32F4xx_StdPeriph_Driver/src/stm32f4xx_dma.c **** }
 769              		.loc 1 633 1 view .LVU204
 770 0002 7047     		bx	lr	@
 771              		.cfi_endproc
 772              	.LFE116:
 773              		.size	DMA_SetCurrDataCounter, .-DMA_SetCurrDataCounter
 774              		.section	.text.DMA_GetCurrDataCounter,"ax",%progbits
 775              		.align	1
 776              		.p2align 2,,3
 777              		.global	DMA_GetCurrDataCounter
 778              		.syntax unified
 779              		.thumb
 780              		.thumb_func
 781              		.type	DMA_GetCurrDataCounter, %function
 782              	DMA_GetCurrDataCounter:
 783              	.LVL15:
 784              	.LFB117:
 634:../Libraries/STM32F4xx_StdPeriph_Driver/src/stm32f4xx_dma.c **** 
 635:../Libraries/STM32F4xx_StdPeriph_Driver/src/stm32f4xx_dma.c **** /**
 636:../Libraries/STM32F4xx_StdPeriph_Driver/src/stm32f4xx_dma.c ****   * @brief  Returns the number of remaining data units in the current DMAy Streamx transfer.
 637:../Libraries/STM32F4xx_StdPeriph_Driver/src/stm32f4xx_dma.c ****   * @param  DMAy_Streamx: where y can be 1 or 2 to select the DMA and x can be 0
 638:../Libraries/STM32F4xx_StdPeriph_Driver/src/stm32f4xx_dma.c ****   *          to 7 to select the DMA Stream.
 639:../Libraries/STM32F4xx_StdPeriph_Driver/src/stm32f4xx_dma.c ****   * @retval The number of remaining data units in the current DMAy Streamx transfer.
 640:../Libraries/STM32F4xx_StdPeriph_Driver/src/stm32f4xx_dma.c ****   */
 641:../Libraries/STM32F4xx_StdPeriph_Driver/src/stm32f4xx_dma.c **** uint16_t DMA_GetCurrDataCounter(DMA_Stream_TypeDef* DMAy_Streamx)
ARM GAS  C:\Users\admin\AppData\Local\Temp\ccYXfAC7.s 			page 27


 642:../Libraries/STM32F4xx_StdPeriph_Driver/src/stm32f4xx_dma.c **** {
 785              		.loc 1 642 1 is_stmt 1 view -0
 786              		.cfi_startproc
 787              		@ args = 0, pretend = 0, frame = 0
 788              		@ frame_needed = 0, uses_anonymous_args = 0
 789              		@ link register save eliminated.
 643:../Libraries/STM32F4xx_StdPeriph_Driver/src/stm32f4xx_dma.c ****   /* Check the parameters */
 644:../Libraries/STM32F4xx_StdPeriph_Driver/src/stm32f4xx_dma.c ****   assert_param(IS_DMA_ALL_PERIPH(DMAy_Streamx));
 790              		.loc 1 644 3 view .LVU206
 645:../Libraries/STM32F4xx_StdPeriph_Driver/src/stm32f4xx_dma.c **** 
 646:../Libraries/STM32F4xx_StdPeriph_Driver/src/stm32f4xx_dma.c ****   /* Return the number of remaining data units for DMAy Streamx */
 647:../Libraries/STM32F4xx_StdPeriph_Driver/src/stm32f4xx_dma.c ****   return ((uint16_t)(DMAy_Streamx->NDTR));
 791              		.loc 1 647 3 view .LVU207
 792              	@ ../Libraries/STM32F4xx_StdPeriph_Driver/src/stm32f4xx_dma.c:647:   return ((uint16_t)(DMAy_Stream
 793              		.loc 1 647 34 is_stmt 0 view .LVU208
 794 0000 4068     		ldr	r0, [r0, #4]	@ _1, DMAy_Streamx_3(D)->NDTR
 795              	.LVL16:
 796              	@ ../Libraries/STM32F4xx_StdPeriph_Driver/src/stm32f4xx_dma.c:648: }
 648:../Libraries/STM32F4xx_StdPeriph_Driver/src/stm32f4xx_dma.c **** }
 797              		.loc 1 648 1 view .LVU209
 798 0002 80B2     		uxth	r0, r0	@, _1
 799 0004 7047     		bx	lr	@
 800              		.cfi_endproc
 801              	.LFE117:
 802              		.size	DMA_GetCurrDataCounter, .-DMA_GetCurrDataCounter
 803 0006 00BF     		.section	.text.DMA_DoubleBufferModeConfig,"ax",%progbits
 804              		.align	1
 805              		.p2align 2,,3
 806              		.global	DMA_DoubleBufferModeConfig
 807              		.syntax unified
 808              		.thumb
 809              		.thumb_func
 810              		.type	DMA_DoubleBufferModeConfig, %function
 811              	DMA_DoubleBufferModeConfig:
 812              	.LVL17:
 813              	.LFB118:
 649:../Libraries/STM32F4xx_StdPeriph_Driver/src/stm32f4xx_dma.c **** /**
 650:../Libraries/STM32F4xx_StdPeriph_Driver/src/stm32f4xx_dma.c ****   * @}
 651:../Libraries/STM32F4xx_StdPeriph_Driver/src/stm32f4xx_dma.c ****   */
 652:../Libraries/STM32F4xx_StdPeriph_Driver/src/stm32f4xx_dma.c **** 
 653:../Libraries/STM32F4xx_StdPeriph_Driver/src/stm32f4xx_dma.c **** /** @defgroup DMA_Group3 Double Buffer mode functions
 654:../Libraries/STM32F4xx_StdPeriph_Driver/src/stm32f4xx_dma.c ****  *  @brief   Double Buffer mode functions 
 655:../Libraries/STM32F4xx_StdPeriph_Driver/src/stm32f4xx_dma.c ****  *
 656:../Libraries/STM32F4xx_StdPeriph_Driver/src/stm32f4xx_dma.c **** @verbatim   
 657:../Libraries/STM32F4xx_StdPeriph_Driver/src/stm32f4xx_dma.c ****  ===============================================================================
 658:../Libraries/STM32F4xx_StdPeriph_Driver/src/stm32f4xx_dma.c ****                          Double Buffer mode functions
 659:../Libraries/STM32F4xx_StdPeriph_Driver/src/stm32f4xx_dma.c ****  ===============================================================================  
 660:../Libraries/STM32F4xx_StdPeriph_Driver/src/stm32f4xx_dma.c **** 
 661:../Libraries/STM32F4xx_StdPeriph_Driver/src/stm32f4xx_dma.c ****   This subsection provides function allowing to configure and control the double 
 662:../Libraries/STM32F4xx_StdPeriph_Driver/src/stm32f4xx_dma.c ****   buffer mode parameters.
 663:../Libraries/STM32F4xx_StdPeriph_Driver/src/stm32f4xx_dma.c ****   
 664:../Libraries/STM32F4xx_StdPeriph_Driver/src/stm32f4xx_dma.c ****   The Double Buffer mode can be used only when Circular mode is enabled.
 665:../Libraries/STM32F4xx_StdPeriph_Driver/src/stm32f4xx_dma.c ****   The Double Buffer mode cannot be used when transferring data from Memory to Memory.
 666:../Libraries/STM32F4xx_StdPeriph_Driver/src/stm32f4xx_dma.c ****   
 667:../Libraries/STM32F4xx_StdPeriph_Driver/src/stm32f4xx_dma.c ****   The Double Buffer mode allows to set two different Memory addresses from/to which
 668:../Libraries/STM32F4xx_StdPeriph_Driver/src/stm32f4xx_dma.c ****   the DMA controller will access alternatively (after completing transfer to/from target
 669:../Libraries/STM32F4xx_StdPeriph_Driver/src/stm32f4xx_dma.c ****   memory 0, it will start transfer to/from target memory 1).
ARM GAS  C:\Users\admin\AppData\Local\Temp\ccYXfAC7.s 			page 28


 670:../Libraries/STM32F4xx_StdPeriph_Driver/src/stm32f4xx_dma.c ****   This allows to reduce software overhead for double buffering and reduce the CPU
 671:../Libraries/STM32F4xx_StdPeriph_Driver/src/stm32f4xx_dma.c ****   access time.
 672:../Libraries/STM32F4xx_StdPeriph_Driver/src/stm32f4xx_dma.c **** 
 673:../Libraries/STM32F4xx_StdPeriph_Driver/src/stm32f4xx_dma.c ****   Two functions must be called before calling the DMA_Init() function:
 674:../Libraries/STM32F4xx_StdPeriph_Driver/src/stm32f4xx_dma.c ****    - void DMA_DoubleBufferModeConfig(DMA_Stream_TypeDef* DMAy_Streamx, uint32_t Memory1BaseAddr,
 675:../Libraries/STM32F4xx_StdPeriph_Driver/src/stm32f4xx_dma.c ****                                 uint32_t DMA_CurrentMemory);
 676:../Libraries/STM32F4xx_StdPeriph_Driver/src/stm32f4xx_dma.c ****    - void DMA_DoubleBufferModeCmd(DMA_Stream_TypeDef* DMAy_Streamx, FunctionalState NewState);
 677:../Libraries/STM32F4xx_StdPeriph_Driver/src/stm32f4xx_dma.c ****    
 678:../Libraries/STM32F4xx_StdPeriph_Driver/src/stm32f4xx_dma.c ****   DMA_DoubleBufferModeConfig() is called to configure the Memory 1 base address and the first
 679:../Libraries/STM32F4xx_StdPeriph_Driver/src/stm32f4xx_dma.c ****   Memory target from/to which the transfer will start after enabling the DMA Stream.
 680:../Libraries/STM32F4xx_StdPeriph_Driver/src/stm32f4xx_dma.c ****   Then DMA_DoubleBufferModeCmd() must be called to enable the Double Buffer mode (or disable 
 681:../Libraries/STM32F4xx_StdPeriph_Driver/src/stm32f4xx_dma.c ****   it when it should not be used).
 682:../Libraries/STM32F4xx_StdPeriph_Driver/src/stm32f4xx_dma.c ****   
 683:../Libraries/STM32F4xx_StdPeriph_Driver/src/stm32f4xx_dma.c ****    
 684:../Libraries/STM32F4xx_StdPeriph_Driver/src/stm32f4xx_dma.c ****   Two functions can be called dynamically when the transfer is ongoing (or when the DMA Stream is 
 685:../Libraries/STM32F4xx_StdPeriph_Driver/src/stm32f4xx_dma.c ****   stopped) to modify on of the target Memories addresses or to check wich Memory target is currentl
 686:../Libraries/STM32F4xx_StdPeriph_Driver/src/stm32f4xx_dma.c ****    used:
 687:../Libraries/STM32F4xx_StdPeriph_Driver/src/stm32f4xx_dma.c ****     - void DMA_MemoryTargetConfig(DMA_Stream_TypeDef* DMAy_Streamx, uint32_t MemoryBaseAddr,
 688:../Libraries/STM32F4xx_StdPeriph_Driver/src/stm32f4xx_dma.c ****                             uint32_t DMA_MemoryTarget);
 689:../Libraries/STM32F4xx_StdPeriph_Driver/src/stm32f4xx_dma.c ****     - uint32_t DMA_GetCurrentMemoryTarget(DMA_Stream_TypeDef* DMAy_Streamx);
 690:../Libraries/STM32F4xx_StdPeriph_Driver/src/stm32f4xx_dma.c **** 
 691:../Libraries/STM32F4xx_StdPeriph_Driver/src/stm32f4xx_dma.c ****   DMA_MemoryTargetConfig() can be called to modify the base address of one of the two target Memori
 692:../Libraries/STM32F4xx_StdPeriph_Driver/src/stm32f4xx_dma.c ****   The Memory of which the base address will be modified must not be currently be used by the DMA St
 693:../Libraries/STM32F4xx_StdPeriph_Driver/src/stm32f4xx_dma.c ****   (ie. if the DMA Stream is currently transferring from Memory 1 then you can only modify base addr
 694:../Libraries/STM32F4xx_StdPeriph_Driver/src/stm32f4xx_dma.c ****   of target Memory 0 and vice versa).
 695:../Libraries/STM32F4xx_StdPeriph_Driver/src/stm32f4xx_dma.c ****   To check this condition, it is recommended to use the function DMA_GetCurrentMemoryTarget() which
 696:../Libraries/STM32F4xx_StdPeriph_Driver/src/stm32f4xx_dma.c ****   returns the index of the Memory target currently in use by the DMA Stream.
 697:../Libraries/STM32F4xx_StdPeriph_Driver/src/stm32f4xx_dma.c **** 
 698:../Libraries/STM32F4xx_StdPeriph_Driver/src/stm32f4xx_dma.c **** @endverbatim
 699:../Libraries/STM32F4xx_StdPeriph_Driver/src/stm32f4xx_dma.c ****   * @{
 700:../Libraries/STM32F4xx_StdPeriph_Driver/src/stm32f4xx_dma.c ****   */
 701:../Libraries/STM32F4xx_StdPeriph_Driver/src/stm32f4xx_dma.c ****   
 702:../Libraries/STM32F4xx_StdPeriph_Driver/src/stm32f4xx_dma.c **** /**
 703:../Libraries/STM32F4xx_StdPeriph_Driver/src/stm32f4xx_dma.c ****   * @brief  Configures, when the DMAy Streamx is disabled, the double buffer mode 
 704:../Libraries/STM32F4xx_StdPeriph_Driver/src/stm32f4xx_dma.c ****   *         and the current memory target.
 705:../Libraries/STM32F4xx_StdPeriph_Driver/src/stm32f4xx_dma.c ****   * @param  DMAy_Streamx: where y can be 1 or 2 to select the DMA and x can be 0
 706:../Libraries/STM32F4xx_StdPeriph_Driver/src/stm32f4xx_dma.c ****   *          to 7 to select the DMA Stream.
 707:../Libraries/STM32F4xx_StdPeriph_Driver/src/stm32f4xx_dma.c ****   * @param  Memory1BaseAddr: the base address of the second buffer (Memory 1)  
 708:../Libraries/STM32F4xx_StdPeriph_Driver/src/stm32f4xx_dma.c ****   * @param  DMA_CurrentMemory: specifies which memory will be first buffer for
 709:../Libraries/STM32F4xx_StdPeriph_Driver/src/stm32f4xx_dma.c ****   *         the transactions when the Stream will be enabled. 
 710:../Libraries/STM32F4xx_StdPeriph_Driver/src/stm32f4xx_dma.c ****   *          This parameter can be one of the following values:
 711:../Libraries/STM32F4xx_StdPeriph_Driver/src/stm32f4xx_dma.c ****   *            @arg DMA_Memory_0: Memory 0 is the current buffer.
 712:../Libraries/STM32F4xx_StdPeriph_Driver/src/stm32f4xx_dma.c ****   *            @arg DMA_Memory_1: Memory 1 is the current buffer.  
 713:../Libraries/STM32F4xx_StdPeriph_Driver/src/stm32f4xx_dma.c ****   *       
 714:../Libraries/STM32F4xx_StdPeriph_Driver/src/stm32f4xx_dma.c ****   * @note   Memory0BaseAddr is set by the DMA structure configuration in DMA_Init().
 715:../Libraries/STM32F4xx_StdPeriph_Driver/src/stm32f4xx_dma.c ****   *   
 716:../Libraries/STM32F4xx_StdPeriph_Driver/src/stm32f4xx_dma.c ****   * @retval None
 717:../Libraries/STM32F4xx_StdPeriph_Driver/src/stm32f4xx_dma.c ****   */
 718:../Libraries/STM32F4xx_StdPeriph_Driver/src/stm32f4xx_dma.c **** void DMA_DoubleBufferModeConfig(DMA_Stream_TypeDef* DMAy_Streamx, uint32_t Memory1BaseAddr,
 719:../Libraries/STM32F4xx_StdPeriph_Driver/src/stm32f4xx_dma.c ****                                 uint32_t DMA_CurrentMemory)
 720:../Libraries/STM32F4xx_StdPeriph_Driver/src/stm32f4xx_dma.c **** {  
 814              		.loc 1 720 1 is_stmt 1 view -0
 815              		.cfi_startproc
 816              		@ args = 0, pretend = 0, frame = 0
 817              		@ frame_needed = 0, uses_anonymous_args = 0
 818              		@ link register save eliminated.
 721:../Libraries/STM32F4xx_StdPeriph_Driver/src/stm32f4xx_dma.c ****   /* Check the parameters */
ARM GAS  C:\Users\admin\AppData\Local\Temp\ccYXfAC7.s 			page 29


 722:../Libraries/STM32F4xx_StdPeriph_Driver/src/stm32f4xx_dma.c ****   assert_param(IS_DMA_ALL_PERIPH(DMAy_Streamx));
 819              		.loc 1 722 3 view .LVU211
 723:../Libraries/STM32F4xx_StdPeriph_Driver/src/stm32f4xx_dma.c ****   assert_param(IS_DMA_CURRENT_MEM(DMA_CurrentMemory));
 820              		.loc 1 723 3 view .LVU212
 724:../Libraries/STM32F4xx_StdPeriph_Driver/src/stm32f4xx_dma.c **** 
 725:../Libraries/STM32F4xx_StdPeriph_Driver/src/stm32f4xx_dma.c ****   if (DMA_CurrentMemory != DMA_Memory_0)
 821              		.loc 1 725 3 view .LVU213
 822              	@ ../Libraries/STM32F4xx_StdPeriph_Driver/src/stm32f4xx_dma.c:728:     DMAy_Streamx->CR |= (uint32_
 726:../Libraries/STM32F4xx_StdPeriph_Driver/src/stm32f4xx_dma.c ****   {
 727:../Libraries/STM32F4xx_StdPeriph_Driver/src/stm32f4xx_dma.c ****     /* Set Memory 1 as current memory address */
 728:../Libraries/STM32F4xx_StdPeriph_Driver/src/stm32f4xx_dma.c ****     DMAy_Streamx->CR |= (uint32_t)(DMA_SxCR_CT);    
 823              		.loc 1 728 22 is_stmt 0 view .LVU214
 824 0000 0368     		ldr	r3, [r0]	@ _1,* DMAy_Streamx
 825              	@ ../Libraries/STM32F4xx_StdPeriph_Driver/src/stm32f4xx_dma.c:725:   if (DMA_CurrentMemory != DMA_M
 725:../Libraries/STM32F4xx_StdPeriph_Driver/src/stm32f4xx_dma.c ****   {
 826              		.loc 1 725 6 view .LVU215
 827 0002 22B1     		cbz	r2, .L48	@ tmp122,
 828              		.loc 1 728 5 is_stmt 1 view .LVU216
 829              	@ ../Libraries/STM32F4xx_StdPeriph_Driver/src/stm32f4xx_dma.c:728:     DMAy_Streamx->CR |= (uint32_
 830              		.loc 1 728 22 is_stmt 0 view .LVU217
 831 0004 43F40023 		orr	r3, r3, #524288	@ _2, _1,
 832 0008 0360     		str	r3, [r0]	@ _2,* DMAy_Streamx
 729:../Libraries/STM32F4xx_StdPeriph_Driver/src/stm32f4xx_dma.c ****   }
 730:../Libraries/STM32F4xx_StdPeriph_Driver/src/stm32f4xx_dma.c ****   else
 731:../Libraries/STM32F4xx_StdPeriph_Driver/src/stm32f4xx_dma.c ****   {
 732:../Libraries/STM32F4xx_StdPeriph_Driver/src/stm32f4xx_dma.c ****     /* Set Memory 0 as current memory address */
 733:../Libraries/STM32F4xx_StdPeriph_Driver/src/stm32f4xx_dma.c ****     DMAy_Streamx->CR &= ~(uint32_t)(DMA_SxCR_CT);    
 734:../Libraries/STM32F4xx_StdPeriph_Driver/src/stm32f4xx_dma.c ****   }
 735:../Libraries/STM32F4xx_StdPeriph_Driver/src/stm32f4xx_dma.c **** 
 736:../Libraries/STM32F4xx_StdPeriph_Driver/src/stm32f4xx_dma.c ****   /* Write to DMAy Streamx M1AR */
 737:../Libraries/STM32F4xx_StdPeriph_Driver/src/stm32f4xx_dma.c ****   DMAy_Streamx->M1AR = Memory1BaseAddr;
 833              		.loc 1 737 3 is_stmt 1 view .LVU218
 834              	@ ../Libraries/STM32F4xx_StdPeriph_Driver/src/stm32f4xx_dma.c:737:   DMAy_Streamx->M1AR = Memory1Ba
 835              		.loc 1 737 22 is_stmt 0 view .LVU219
 836 000a 0161     		str	r1, [r0, #16]	@ Memory1BaseAddr, DMAy_Streamx_8(D)->M1AR
 837              	@ ../Libraries/STM32F4xx_StdPeriph_Driver/src/stm32f4xx_dma.c:738: }
 738:../Libraries/STM32F4xx_StdPeriph_Driver/src/stm32f4xx_dma.c **** }
 838              		.loc 1 738 1 view .LVU220
 839 000c 7047     		bx	lr	@
 840              	.L48:
 733:../Libraries/STM32F4xx_StdPeriph_Driver/src/stm32f4xx_dma.c ****   }
 841              		.loc 1 733 5 is_stmt 1 view .LVU221
 842              	@ ../Libraries/STM32F4xx_StdPeriph_Driver/src/stm32f4xx_dma.c:733:     DMAy_Streamx->CR &= ~(uint32
 733:../Libraries/STM32F4xx_StdPeriph_Driver/src/stm32f4xx_dma.c ****   }
 843              		.loc 1 733 22 is_stmt 0 view .LVU222
 844 000e 23F40023 		bic	r3, r3, #524288	@ _4, _3,
 845 0012 0360     		str	r3, [r0]	@ _4,* DMAy_Streamx
 737:../Libraries/STM32F4xx_StdPeriph_Driver/src/stm32f4xx_dma.c **** }
 846              		.loc 1 737 3 is_stmt 1 view .LVU223
 847              	@ ../Libraries/STM32F4xx_StdPeriph_Driver/src/stm32f4xx_dma.c:737:   DMAy_Streamx->M1AR = Memory1Ba
 737:../Libraries/STM32F4xx_StdPeriph_Driver/src/stm32f4xx_dma.c **** }
 848              		.loc 1 737 22 is_stmt 0 view .LVU224
 849 0014 0161     		str	r1, [r0, #16]	@ Memory1BaseAddr, DMAy_Streamx_8(D)->M1AR
 850              	@ ../Libraries/STM32F4xx_StdPeriph_Driver/src/stm32f4xx_dma.c:738: }
 851              		.loc 1 738 1 view .LVU225
 852 0016 7047     		bx	lr	@
 853              		.cfi_endproc
ARM GAS  C:\Users\admin\AppData\Local\Temp\ccYXfAC7.s 			page 30


 854              	.LFE118:
 855              		.size	DMA_DoubleBufferModeConfig, .-DMA_DoubleBufferModeConfig
 856              		.section	.text.DMA_DoubleBufferModeCmd,"ax",%progbits
 857              		.align	1
 858              		.p2align 2,,3
 859              		.global	DMA_DoubleBufferModeCmd
 860              		.syntax unified
 861              		.thumb
 862              		.thumb_func
 863              		.type	DMA_DoubleBufferModeCmd, %function
 864              	DMA_DoubleBufferModeCmd:
 865              	.LVL18:
 866              	.LFB119:
 739:../Libraries/STM32F4xx_StdPeriph_Driver/src/stm32f4xx_dma.c **** 
 740:../Libraries/STM32F4xx_StdPeriph_Driver/src/stm32f4xx_dma.c **** /**
 741:../Libraries/STM32F4xx_StdPeriph_Driver/src/stm32f4xx_dma.c ****   * @brief  Enables or disables the double buffer mode for the selected DMA stream.
 742:../Libraries/STM32F4xx_StdPeriph_Driver/src/stm32f4xx_dma.c ****   * @note   This function can be called only when the DMA Stream is disabled.  
 743:../Libraries/STM32F4xx_StdPeriph_Driver/src/stm32f4xx_dma.c ****   * @param  DMAy_Streamx: where y can be 1 or 2 to select the DMA and x can be 0
 744:../Libraries/STM32F4xx_StdPeriph_Driver/src/stm32f4xx_dma.c ****   *          to 7 to select the DMA Stream.
 745:../Libraries/STM32F4xx_StdPeriph_Driver/src/stm32f4xx_dma.c ****   * @param  NewState: new state of the DMAy Streamx double buffer mode. 
 746:../Libraries/STM32F4xx_StdPeriph_Driver/src/stm32f4xx_dma.c ****   *          This parameter can be: ENABLE or DISABLE.
 747:../Libraries/STM32F4xx_StdPeriph_Driver/src/stm32f4xx_dma.c ****   * @retval None
 748:../Libraries/STM32F4xx_StdPeriph_Driver/src/stm32f4xx_dma.c ****   */
 749:../Libraries/STM32F4xx_StdPeriph_Driver/src/stm32f4xx_dma.c **** void DMA_DoubleBufferModeCmd(DMA_Stream_TypeDef* DMAy_Streamx, FunctionalState NewState)
 750:../Libraries/STM32F4xx_StdPeriph_Driver/src/stm32f4xx_dma.c **** {  
 867              		.loc 1 750 1 is_stmt 1 view -0
 868              		.cfi_startproc
 869              		@ args = 0, pretend = 0, frame = 0
 870              		@ frame_needed = 0, uses_anonymous_args = 0
 871              		@ link register save eliminated.
 751:../Libraries/STM32F4xx_StdPeriph_Driver/src/stm32f4xx_dma.c ****   /* Check the parameters */
 752:../Libraries/STM32F4xx_StdPeriph_Driver/src/stm32f4xx_dma.c ****   assert_param(IS_DMA_ALL_PERIPH(DMAy_Streamx));
 872              		.loc 1 752 3 view .LVU227
 753:../Libraries/STM32F4xx_StdPeriph_Driver/src/stm32f4xx_dma.c ****   assert_param(IS_FUNCTIONAL_STATE(NewState));
 873              		.loc 1 753 3 view .LVU228
 754:../Libraries/STM32F4xx_StdPeriph_Driver/src/stm32f4xx_dma.c **** 
 755:../Libraries/STM32F4xx_StdPeriph_Driver/src/stm32f4xx_dma.c ****   /* Configure the Double Buffer mode */
 756:../Libraries/STM32F4xx_StdPeriph_Driver/src/stm32f4xx_dma.c ****   if (NewState != DISABLE)
 874              		.loc 1 756 3 view .LVU229
 875              	@ ../Libraries/STM32F4xx_StdPeriph_Driver/src/stm32f4xx_dma.c:759:     DMAy_Streamx->CR |= (uint32_
 757:../Libraries/STM32F4xx_StdPeriph_Driver/src/stm32f4xx_dma.c ****   {
 758:../Libraries/STM32F4xx_StdPeriph_Driver/src/stm32f4xx_dma.c ****     /* Enable the Double buffer mode */
 759:../Libraries/STM32F4xx_StdPeriph_Driver/src/stm32f4xx_dma.c ****     DMAy_Streamx->CR |= (uint32_t)DMA_SxCR_DBM;
 876              		.loc 1 759 22 is_stmt 0 view .LVU230
 877 0000 0368     		ldr	r3, [r0]	@ _1,* DMAy_Streamx
 878              	@ ../Libraries/STM32F4xx_StdPeriph_Driver/src/stm32f4xx_dma.c:756:   if (NewState != DISABLE)
 756:../Libraries/STM32F4xx_StdPeriph_Driver/src/stm32f4xx_dma.c ****   {
 879              		.loc 1 756 6 view .LVU231
 880 0002 19B1     		cbz	r1, .L51	@ tmp120,
 881              		.loc 1 759 5 is_stmt 1 view .LVU232
 882              	@ ../Libraries/STM32F4xx_StdPeriph_Driver/src/stm32f4xx_dma.c:759:     DMAy_Streamx->CR |= (uint32_
 883              		.loc 1 759 22 is_stmt 0 view .LVU233
 884 0004 43F48023 		orr	r3, r3, #262144	@ _2, _1,
 885 0008 0360     		str	r3, [r0]	@ _2,* DMAy_Streamx
 886 000a 7047     		bx	lr	@
 887              	.L51:
 760:../Libraries/STM32F4xx_StdPeriph_Driver/src/stm32f4xx_dma.c ****   }
ARM GAS  C:\Users\admin\AppData\Local\Temp\ccYXfAC7.s 			page 31


 761:../Libraries/STM32F4xx_StdPeriph_Driver/src/stm32f4xx_dma.c ****   else
 762:../Libraries/STM32F4xx_StdPeriph_Driver/src/stm32f4xx_dma.c ****   {
 763:../Libraries/STM32F4xx_StdPeriph_Driver/src/stm32f4xx_dma.c ****     /* Disable the Double buffer mode */
 764:../Libraries/STM32F4xx_StdPeriph_Driver/src/stm32f4xx_dma.c ****     DMAy_Streamx->CR &= ~(uint32_t)DMA_SxCR_DBM;
 888              		.loc 1 764 5 is_stmt 1 view .LVU234
 889              	@ ../Libraries/STM32F4xx_StdPeriph_Driver/src/stm32f4xx_dma.c:764:     DMAy_Streamx->CR &= ~(uint32
 890              		.loc 1 764 22 is_stmt 0 view .LVU235
 891 000c 23F48023 		bic	r3, r3, #262144	@ _4, _3,
 892 0010 0360     		str	r3, [r0]	@ _4,* DMAy_Streamx
 893              	@ ../Libraries/STM32F4xx_StdPeriph_Driver/src/stm32f4xx_dma.c:766: }
 765:../Libraries/STM32F4xx_StdPeriph_Driver/src/stm32f4xx_dma.c ****   }
 766:../Libraries/STM32F4xx_StdPeriph_Driver/src/stm32f4xx_dma.c **** }
 894              		.loc 1 766 1 view .LVU236
 895 0012 7047     		bx	lr	@
 896              		.cfi_endproc
 897              	.LFE119:
 898              		.size	DMA_DoubleBufferModeCmd, .-DMA_DoubleBufferModeCmd
 899              		.section	.text.DMA_MemoryTargetConfig,"ax",%progbits
 900              		.align	1
 901              		.p2align 2,,3
 902              		.global	DMA_MemoryTargetConfig
 903              		.syntax unified
 904              		.thumb
 905              		.thumb_func
 906              		.type	DMA_MemoryTargetConfig, %function
 907              	DMA_MemoryTargetConfig:
 908              	.LVL19:
 909              	.LFB120:
 767:../Libraries/STM32F4xx_StdPeriph_Driver/src/stm32f4xx_dma.c **** 
 768:../Libraries/STM32F4xx_StdPeriph_Driver/src/stm32f4xx_dma.c **** /**
 769:../Libraries/STM32F4xx_StdPeriph_Driver/src/stm32f4xx_dma.c ****   * @brief  Configures the Memory address for the next buffer transfer in double
 770:../Libraries/STM32F4xx_StdPeriph_Driver/src/stm32f4xx_dma.c ****   *         buffer mode (for dynamic use). This function can be called when the
 771:../Libraries/STM32F4xx_StdPeriph_Driver/src/stm32f4xx_dma.c ****   *         DMA Stream is enabled and when the transfer is ongoing.  
 772:../Libraries/STM32F4xx_StdPeriph_Driver/src/stm32f4xx_dma.c ****   * @param  DMAy_Streamx: where y can be 1 or 2 to select the DMA and x can be 0
 773:../Libraries/STM32F4xx_StdPeriph_Driver/src/stm32f4xx_dma.c ****   *          to 7 to select the DMA Stream.
 774:../Libraries/STM32F4xx_StdPeriph_Driver/src/stm32f4xx_dma.c ****   * @param  MemoryBaseAddr: The base address of the target memory buffer
 775:../Libraries/STM32F4xx_StdPeriph_Driver/src/stm32f4xx_dma.c ****   * @param  DMA_MemoryTarget: Next memory target to be used. 
 776:../Libraries/STM32F4xx_StdPeriph_Driver/src/stm32f4xx_dma.c ****   *         This parameter can be one of the following values:
 777:../Libraries/STM32F4xx_StdPeriph_Driver/src/stm32f4xx_dma.c ****   *            @arg DMA_Memory_0: To use the memory address 0
 778:../Libraries/STM32F4xx_StdPeriph_Driver/src/stm32f4xx_dma.c ****   *            @arg DMA_Memory_1: To use the memory address 1
 779:../Libraries/STM32F4xx_StdPeriph_Driver/src/stm32f4xx_dma.c ****   * 
 780:../Libraries/STM32F4xx_StdPeriph_Driver/src/stm32f4xx_dma.c ****   * @note    It is not allowed to modify the Base Address of a target Memory when
 781:../Libraries/STM32F4xx_StdPeriph_Driver/src/stm32f4xx_dma.c ****   *          this target is involved in the current transfer. ie. If the DMA Stream
 782:../Libraries/STM32F4xx_StdPeriph_Driver/src/stm32f4xx_dma.c ****   *          is currently transferring to/from Memory 1, then it not possible to
 783:../Libraries/STM32F4xx_StdPeriph_Driver/src/stm32f4xx_dma.c ****   *          modify Base address of Memory 1, but it is possible to modify Base
 784:../Libraries/STM32F4xx_StdPeriph_Driver/src/stm32f4xx_dma.c ****   *          address of Memory 0.
 785:../Libraries/STM32F4xx_StdPeriph_Driver/src/stm32f4xx_dma.c ****   *          To know which Memory is currently used, you can use the function
 786:../Libraries/STM32F4xx_StdPeriph_Driver/src/stm32f4xx_dma.c ****   *          DMA_GetCurrentMemoryTarget().             
 787:../Libraries/STM32F4xx_StdPeriph_Driver/src/stm32f4xx_dma.c ****   *  
 788:../Libraries/STM32F4xx_StdPeriph_Driver/src/stm32f4xx_dma.c ****   * @retval None
 789:../Libraries/STM32F4xx_StdPeriph_Driver/src/stm32f4xx_dma.c ****   */
 790:../Libraries/STM32F4xx_StdPeriph_Driver/src/stm32f4xx_dma.c **** void DMA_MemoryTargetConfig(DMA_Stream_TypeDef* DMAy_Streamx, uint32_t MemoryBaseAddr,
 791:../Libraries/STM32F4xx_StdPeriph_Driver/src/stm32f4xx_dma.c ****                            uint32_t DMA_MemoryTarget)
 792:../Libraries/STM32F4xx_StdPeriph_Driver/src/stm32f4xx_dma.c **** {
 910              		.loc 1 792 1 is_stmt 1 view -0
 911              		.cfi_startproc
 912              		@ args = 0, pretend = 0, frame = 0
ARM GAS  C:\Users\admin\AppData\Local\Temp\ccYXfAC7.s 			page 32


 913              		@ frame_needed = 0, uses_anonymous_args = 0
 914              		@ link register save eliminated.
 793:../Libraries/STM32F4xx_StdPeriph_Driver/src/stm32f4xx_dma.c ****   /* Check the parameters */
 794:../Libraries/STM32F4xx_StdPeriph_Driver/src/stm32f4xx_dma.c ****   assert_param(IS_DMA_ALL_PERIPH(DMAy_Streamx));
 915              		.loc 1 794 3 view .LVU238
 795:../Libraries/STM32F4xx_StdPeriph_Driver/src/stm32f4xx_dma.c ****   assert_param(IS_DMA_CURRENT_MEM(DMA_MemoryTarget));
 916              		.loc 1 795 3 view .LVU239
 796:../Libraries/STM32F4xx_StdPeriph_Driver/src/stm32f4xx_dma.c ****     
 797:../Libraries/STM32F4xx_StdPeriph_Driver/src/stm32f4xx_dma.c ****   /* Check the Memory target to be configured */
 798:../Libraries/STM32F4xx_StdPeriph_Driver/src/stm32f4xx_dma.c ****   if (DMA_MemoryTarget != DMA_Memory_0)
 917              		.loc 1 798 3 view .LVU240
 918              	@ ../Libraries/STM32F4xx_StdPeriph_Driver/src/stm32f4xx_dma.c:798:   if (DMA_MemoryTarget != DMA_Me
 919              		.loc 1 798 6 is_stmt 0 view .LVU241
 920 0000 0AB1     		cbz	r2, .L54	@ tmp118,
 799:../Libraries/STM32F4xx_StdPeriph_Driver/src/stm32f4xx_dma.c ****   {
 800:../Libraries/STM32F4xx_StdPeriph_Driver/src/stm32f4xx_dma.c ****     /* Write to DMAy Streamx M1AR */
 801:../Libraries/STM32F4xx_StdPeriph_Driver/src/stm32f4xx_dma.c ****     DMAy_Streamx->M1AR = MemoryBaseAddr;    
 921              		.loc 1 801 5 is_stmt 1 view .LVU242
 922              	@ ../Libraries/STM32F4xx_StdPeriph_Driver/src/stm32f4xx_dma.c:801:     DMAy_Streamx->M1AR = MemoryB
 923              		.loc 1 801 24 is_stmt 0 view .LVU243
 924 0002 0161     		str	r1, [r0, #16]	@ MemoryBaseAddr, DMAy_Streamx_4(D)->M1AR
 925 0004 7047     		bx	lr	@
 926              	.L54:
 802:../Libraries/STM32F4xx_StdPeriph_Driver/src/stm32f4xx_dma.c ****   }  
 803:../Libraries/STM32F4xx_StdPeriph_Driver/src/stm32f4xx_dma.c ****   else
 804:../Libraries/STM32F4xx_StdPeriph_Driver/src/stm32f4xx_dma.c ****   {
 805:../Libraries/STM32F4xx_StdPeriph_Driver/src/stm32f4xx_dma.c ****     /* Write to DMAy Streamx M0AR */
 806:../Libraries/STM32F4xx_StdPeriph_Driver/src/stm32f4xx_dma.c ****     DMAy_Streamx->M0AR = MemoryBaseAddr;  
 927              		.loc 1 806 5 is_stmt 1 view .LVU244
 928              	@ ../Libraries/STM32F4xx_StdPeriph_Driver/src/stm32f4xx_dma.c:806:     DMAy_Streamx->M0AR = MemoryB
 929              		.loc 1 806 24 is_stmt 0 view .LVU245
 930 0006 C160     		str	r1, [r0, #12]	@ MemoryBaseAddr, DMAy_Streamx_4(D)->M0AR
 931              	@ ../Libraries/STM32F4xx_StdPeriph_Driver/src/stm32f4xx_dma.c:808: }
 807:../Libraries/STM32F4xx_StdPeriph_Driver/src/stm32f4xx_dma.c ****   }
 808:../Libraries/STM32F4xx_StdPeriph_Driver/src/stm32f4xx_dma.c **** }
 932              		.loc 1 808 1 view .LVU246
 933 0008 7047     		bx	lr	@
 934              		.cfi_endproc
 935              	.LFE120:
 936              		.size	DMA_MemoryTargetConfig, .-DMA_MemoryTargetConfig
 937 000a 00BF     		.section	.text.DMA_GetCurrentMemoryTarget,"ax",%progbits
 938              		.align	1
 939              		.p2align 2,,3
 940              		.global	DMA_GetCurrentMemoryTarget
 941              		.syntax unified
 942              		.thumb
 943              		.thumb_func
 944              		.type	DMA_GetCurrentMemoryTarget, %function
 945              	DMA_GetCurrentMemoryTarget:
 946              	.LVL20:
 947              	.LFB121:
 809:../Libraries/STM32F4xx_StdPeriph_Driver/src/stm32f4xx_dma.c **** 
 810:../Libraries/STM32F4xx_StdPeriph_Driver/src/stm32f4xx_dma.c **** /**
 811:../Libraries/STM32F4xx_StdPeriph_Driver/src/stm32f4xx_dma.c ****   * @brief  Returns the current memory target used by double buffer transfer.
 812:../Libraries/STM32F4xx_StdPeriph_Driver/src/stm32f4xx_dma.c ****   * @param  DMAy_Streamx: where y can be 1 or 2 to select the DMA and x can be 0
 813:../Libraries/STM32F4xx_StdPeriph_Driver/src/stm32f4xx_dma.c ****   *          to 7 to select the DMA Stream.
 814:../Libraries/STM32F4xx_StdPeriph_Driver/src/stm32f4xx_dma.c ****   * @retval The memory target number: 0 for Memory0 or 1 for Memory1. 
ARM GAS  C:\Users\admin\AppData\Local\Temp\ccYXfAC7.s 			page 33


 815:../Libraries/STM32F4xx_StdPeriph_Driver/src/stm32f4xx_dma.c ****   */
 816:../Libraries/STM32F4xx_StdPeriph_Driver/src/stm32f4xx_dma.c **** uint32_t DMA_GetCurrentMemoryTarget(DMA_Stream_TypeDef* DMAy_Streamx)
 817:../Libraries/STM32F4xx_StdPeriph_Driver/src/stm32f4xx_dma.c **** {
 948              		.loc 1 817 1 is_stmt 1 view -0
 949              		.cfi_startproc
 950              		@ args = 0, pretend = 0, frame = 0
 951              		@ frame_needed = 0, uses_anonymous_args = 0
 952              		@ link register save eliminated.
 818:../Libraries/STM32F4xx_StdPeriph_Driver/src/stm32f4xx_dma.c ****   uint32_t tmp = 0;
 953              		.loc 1 818 3 view .LVU248
 819:../Libraries/STM32F4xx_StdPeriph_Driver/src/stm32f4xx_dma.c ****   
 820:../Libraries/STM32F4xx_StdPeriph_Driver/src/stm32f4xx_dma.c ****   /* Check the parameters */
 821:../Libraries/STM32F4xx_StdPeriph_Driver/src/stm32f4xx_dma.c ****   assert_param(IS_DMA_ALL_PERIPH(DMAy_Streamx));
 954              		.loc 1 821 3 view .LVU249
 822:../Libraries/STM32F4xx_StdPeriph_Driver/src/stm32f4xx_dma.c **** 
 823:../Libraries/STM32F4xx_StdPeriph_Driver/src/stm32f4xx_dma.c ****   /* Get the current memory target */
 824:../Libraries/STM32F4xx_StdPeriph_Driver/src/stm32f4xx_dma.c ****   if ((DMAy_Streamx->CR & DMA_SxCR_CT) != 0)
 955              		.loc 1 824 3 view .LVU250
 956              	@ ../Libraries/STM32F4xx_StdPeriph_Driver/src/stm32f4xx_dma.c:824:   if ((DMAy_Streamx->CR & DMA_Sx
 957              		.loc 1 824 20 is_stmt 0 view .LVU251
 958 0000 0068     		ldr	r0, [r0]	@ _1, DMAy_Streamx_5(D)->CR
 959              	.LVL21:
 825:../Libraries/STM32F4xx_StdPeriph_Driver/src/stm32f4xx_dma.c ****   {
 826:../Libraries/STM32F4xx_StdPeriph_Driver/src/stm32f4xx_dma.c ****     /* Current memory buffer used is Memory 1 */
 827:../Libraries/STM32F4xx_StdPeriph_Driver/src/stm32f4xx_dma.c ****     tmp = 1;
 828:../Libraries/STM32F4xx_StdPeriph_Driver/src/stm32f4xx_dma.c ****   }  
 829:../Libraries/STM32F4xx_StdPeriph_Driver/src/stm32f4xx_dma.c ****   else
 830:../Libraries/STM32F4xx_StdPeriph_Driver/src/stm32f4xx_dma.c ****   {
 831:../Libraries/STM32F4xx_StdPeriph_Driver/src/stm32f4xx_dma.c ****     /* Current memory buffer used is Memory 0 */
 832:../Libraries/STM32F4xx_StdPeriph_Driver/src/stm32f4xx_dma.c ****     tmp = 0;    
 833:../Libraries/STM32F4xx_StdPeriph_Driver/src/stm32f4xx_dma.c ****   }
 834:../Libraries/STM32F4xx_StdPeriph_Driver/src/stm32f4xx_dma.c ****   return tmp;
 960              		.loc 1 834 3 is_stmt 1 view .LVU252
 961              	@ ../Libraries/STM32F4xx_StdPeriph_Driver/src/stm32f4xx_dma.c:835: }
 835:../Libraries/STM32F4xx_StdPeriph_Driver/src/stm32f4xx_dma.c **** }
 962              		.loc 1 835 1 is_stmt 0 view .LVU253
 963 0002 C0F3C040 		ubfx	r0, r0, #19, #1	@, _1,,
 964              	.LVL22:
 965              		.loc 1 835 1 view .LVU254
 966 0006 7047     		bx	lr	@
 967              		.cfi_endproc
 968              	.LFE121:
 969              		.size	DMA_GetCurrentMemoryTarget, .-DMA_GetCurrentMemoryTarget
 970              		.section	.text.DMA_GetCmdStatus,"ax",%progbits
 971              		.align	1
 972              		.p2align 2,,3
 973              		.global	DMA_GetCmdStatus
 974              		.syntax unified
 975              		.thumb
 976              		.thumb_func
 977              		.type	DMA_GetCmdStatus, %function
 978              	DMA_GetCmdStatus:
 979              	.LVL23:
 980              	.LFB122:
 836:../Libraries/STM32F4xx_StdPeriph_Driver/src/stm32f4xx_dma.c **** /**
 837:../Libraries/STM32F4xx_StdPeriph_Driver/src/stm32f4xx_dma.c ****   * @}
 838:../Libraries/STM32F4xx_StdPeriph_Driver/src/stm32f4xx_dma.c ****   */
ARM GAS  C:\Users\admin\AppData\Local\Temp\ccYXfAC7.s 			page 34


 839:../Libraries/STM32F4xx_StdPeriph_Driver/src/stm32f4xx_dma.c **** 
 840:../Libraries/STM32F4xx_StdPeriph_Driver/src/stm32f4xx_dma.c **** /** @defgroup DMA_Group4 Interrupts and flags management functions
 841:../Libraries/STM32F4xx_StdPeriph_Driver/src/stm32f4xx_dma.c ****  *  @brief   Interrupts and flags management functions 
 842:../Libraries/STM32F4xx_StdPeriph_Driver/src/stm32f4xx_dma.c ****  *
 843:../Libraries/STM32F4xx_StdPeriph_Driver/src/stm32f4xx_dma.c **** @verbatim   
 844:../Libraries/STM32F4xx_StdPeriph_Driver/src/stm32f4xx_dma.c ****  ===============================================================================
 845:../Libraries/STM32F4xx_StdPeriph_Driver/src/stm32f4xx_dma.c ****                   Interrupts and flags management functions
 846:../Libraries/STM32F4xx_StdPeriph_Driver/src/stm32f4xx_dma.c ****  ===============================================================================  
 847:../Libraries/STM32F4xx_StdPeriph_Driver/src/stm32f4xx_dma.c **** 
 848:../Libraries/STM32F4xx_StdPeriph_Driver/src/stm32f4xx_dma.c ****   This subsection provides functions allowing to
 849:../Libraries/STM32F4xx_StdPeriph_Driver/src/stm32f4xx_dma.c ****    - Check the DMA enable status
 850:../Libraries/STM32F4xx_StdPeriph_Driver/src/stm32f4xx_dma.c ****    - Check the FIFO status 
 851:../Libraries/STM32F4xx_StdPeriph_Driver/src/stm32f4xx_dma.c ****    - Configure the DMA Interrupts sources and check or clear the flags or pending bits status.   
 852:../Libraries/STM32F4xx_StdPeriph_Driver/src/stm32f4xx_dma.c ****    
 853:../Libraries/STM32F4xx_StdPeriph_Driver/src/stm32f4xx_dma.c ****  1. DMA Enable status:
 854:../Libraries/STM32F4xx_StdPeriph_Driver/src/stm32f4xx_dma.c ****    After configuring the DMA Stream (DMA_Init() function) and enabling the stream,
 855:../Libraries/STM32F4xx_StdPeriph_Driver/src/stm32f4xx_dma.c ****    it is recommended to check (or wait until) the DMA Stream is effectively enabled.
 856:../Libraries/STM32F4xx_StdPeriph_Driver/src/stm32f4xx_dma.c ****    A Stream may remain disabled if a configuration parameter is wrong.
 857:../Libraries/STM32F4xx_StdPeriph_Driver/src/stm32f4xx_dma.c ****    After disabling a DMA Stream, it is also recommended to check (or wait until) the DMA
 858:../Libraries/STM32F4xx_StdPeriph_Driver/src/stm32f4xx_dma.c ****    Stream is effectively disabled. If a Stream is disabled while a data transfer is ongoing, 
 859:../Libraries/STM32F4xx_StdPeriph_Driver/src/stm32f4xx_dma.c ****    the current data will be transferred and the Stream will be effectively disabled only after
 860:../Libraries/STM32F4xx_StdPeriph_Driver/src/stm32f4xx_dma.c ****    this data transfer completion.
 861:../Libraries/STM32F4xx_StdPeriph_Driver/src/stm32f4xx_dma.c ****    To monitor this state it is possible to use the following function:
 862:../Libraries/STM32F4xx_StdPeriph_Driver/src/stm32f4xx_dma.c ****      - FunctionalState DMA_GetCmdStatus(DMA_Stream_TypeDef* DMAy_Streamx); 
 863:../Libraries/STM32F4xx_StdPeriph_Driver/src/stm32f4xx_dma.c ****  
 864:../Libraries/STM32F4xx_StdPeriph_Driver/src/stm32f4xx_dma.c ****  2. FIFO Status:
 865:../Libraries/STM32F4xx_StdPeriph_Driver/src/stm32f4xx_dma.c ****    It is possible to monitor the FIFO status when a transfer is ongoing using the following 
 866:../Libraries/STM32F4xx_StdPeriph_Driver/src/stm32f4xx_dma.c ****    function:
 867:../Libraries/STM32F4xx_StdPeriph_Driver/src/stm32f4xx_dma.c ****      - uint32_t DMA_GetFIFOStatus(DMA_Stream_TypeDef* DMAy_Streamx); 
 868:../Libraries/STM32F4xx_StdPeriph_Driver/src/stm32f4xx_dma.c ****  
 869:../Libraries/STM32F4xx_StdPeriph_Driver/src/stm32f4xx_dma.c ****  3. DMA Interrupts and Flags:
 870:../Libraries/STM32F4xx_StdPeriph_Driver/src/stm32f4xx_dma.c ****   The user should identify which mode will be used in his application to manage the
 871:../Libraries/STM32F4xx_StdPeriph_Driver/src/stm32f4xx_dma.c ****   DMA controller events: Polling mode or Interrupt mode. 
 872:../Libraries/STM32F4xx_StdPeriph_Driver/src/stm32f4xx_dma.c ****     
 873:../Libraries/STM32F4xx_StdPeriph_Driver/src/stm32f4xx_dma.c ****   Polling Mode
 874:../Libraries/STM32F4xx_StdPeriph_Driver/src/stm32f4xx_dma.c ****   =============
 875:../Libraries/STM32F4xx_StdPeriph_Driver/src/stm32f4xx_dma.c ****     Each DMA stream can be managed through 4 event Flags:
 876:../Libraries/STM32F4xx_StdPeriph_Driver/src/stm32f4xx_dma.c ****     (x : DMA Stream number )
 877:../Libraries/STM32F4xx_StdPeriph_Driver/src/stm32f4xx_dma.c ****        1. DMA_FLAG_FEIFx  : to indicate that a FIFO Mode Transfer Error event occurred.
 878:../Libraries/STM32F4xx_StdPeriph_Driver/src/stm32f4xx_dma.c ****        2. DMA_FLAG_DMEIFx : to indicate that a Direct Mode Transfer Error event occurred.
 879:../Libraries/STM32F4xx_StdPeriph_Driver/src/stm32f4xx_dma.c ****        3. DMA_FLAG_TEIFx  : to indicate that a Transfer Error event occurred.
 880:../Libraries/STM32F4xx_StdPeriph_Driver/src/stm32f4xx_dma.c ****        4. DMA_FLAG_HTIFx  : to indicate that a Half-Transfer Complete event occurred.
 881:../Libraries/STM32F4xx_StdPeriph_Driver/src/stm32f4xx_dma.c ****        5. DMA_FLAG_TCIFx  : to indicate that a Transfer Complete event occurred .       
 882:../Libraries/STM32F4xx_StdPeriph_Driver/src/stm32f4xx_dma.c **** 
 883:../Libraries/STM32F4xx_StdPeriph_Driver/src/stm32f4xx_dma.c ****    In this Mode it is advised to use the following functions:
 884:../Libraries/STM32F4xx_StdPeriph_Driver/src/stm32f4xx_dma.c ****       - FlagStatus DMA_GetFlagStatus(DMA_Stream_TypeDef* DMAy_Streamx, uint32_t DMA_FLAG);
 885:../Libraries/STM32F4xx_StdPeriph_Driver/src/stm32f4xx_dma.c ****       - void DMA_ClearFlag(DMA_Stream_TypeDef* DMAy_Streamx, uint32_t DMA_FLAG);
 886:../Libraries/STM32F4xx_StdPeriph_Driver/src/stm32f4xx_dma.c **** 
 887:../Libraries/STM32F4xx_StdPeriph_Driver/src/stm32f4xx_dma.c ****   Interrupt Mode
 888:../Libraries/STM32F4xx_StdPeriph_Driver/src/stm32f4xx_dma.c ****   ===============
 889:../Libraries/STM32F4xx_StdPeriph_Driver/src/stm32f4xx_dma.c ****     Each DMA Stream can be managed through 4 Interrupts:
 890:../Libraries/STM32F4xx_StdPeriph_Driver/src/stm32f4xx_dma.c **** 
 891:../Libraries/STM32F4xx_StdPeriph_Driver/src/stm32f4xx_dma.c ****     Interrupt Source
 892:../Libraries/STM32F4xx_StdPeriph_Driver/src/stm32f4xx_dma.c ****     ----------------
 893:../Libraries/STM32F4xx_StdPeriph_Driver/src/stm32f4xx_dma.c ****        1. DMA_IT_FEIFx  : specifies the interrupt source for the  FIFO Mode Transfer Error event.
 894:../Libraries/STM32F4xx_StdPeriph_Driver/src/stm32f4xx_dma.c ****        2. DMA_IT_DMEIFx : specifies the interrupt source for the Direct Mode Transfer Error event.
 895:../Libraries/STM32F4xx_StdPeriph_Driver/src/stm32f4xx_dma.c ****        3. DMA_IT_TEIFx  : specifies the interrupt source for the Transfer Error event.
ARM GAS  C:\Users\admin\AppData\Local\Temp\ccYXfAC7.s 			page 35


 896:../Libraries/STM32F4xx_StdPeriph_Driver/src/stm32f4xx_dma.c ****        4. DMA_IT_HTIFx  : specifies the interrupt source for the Half-Transfer Complete event.
 897:../Libraries/STM32F4xx_StdPeriph_Driver/src/stm32f4xx_dma.c ****        5. DMA_IT_TCIFx  : specifies the interrupt source for the a Transfer Complete event. 
 898:../Libraries/STM32F4xx_StdPeriph_Driver/src/stm32f4xx_dma.c ****      
 899:../Libraries/STM32F4xx_StdPeriph_Driver/src/stm32f4xx_dma.c ****   In this Mode it is advised to use the following functions:
 900:../Libraries/STM32F4xx_StdPeriph_Driver/src/stm32f4xx_dma.c ****      - void DMA_ITConfig(DMA_Stream_TypeDef* DMAy_Streamx, uint32_t DMA_IT, FunctionalState NewStat
 901:../Libraries/STM32F4xx_StdPeriph_Driver/src/stm32f4xx_dma.c ****      - ITStatus DMA_GetITStatus(DMA_Stream_TypeDef* DMAy_Streamx, uint32_t DMA_IT);
 902:../Libraries/STM32F4xx_StdPeriph_Driver/src/stm32f4xx_dma.c ****      - void DMA_ClearITPendingBit(DMA_Stream_TypeDef* DMAy_Streamx, uint32_t DMA_IT);
 903:../Libraries/STM32F4xx_StdPeriph_Driver/src/stm32f4xx_dma.c **** 
 904:../Libraries/STM32F4xx_StdPeriph_Driver/src/stm32f4xx_dma.c **** @endverbatim
 905:../Libraries/STM32F4xx_StdPeriph_Driver/src/stm32f4xx_dma.c ****   * @{
 906:../Libraries/STM32F4xx_StdPeriph_Driver/src/stm32f4xx_dma.c ****   */
 907:../Libraries/STM32F4xx_StdPeriph_Driver/src/stm32f4xx_dma.c **** 
 908:../Libraries/STM32F4xx_StdPeriph_Driver/src/stm32f4xx_dma.c **** /**
 909:../Libraries/STM32F4xx_StdPeriph_Driver/src/stm32f4xx_dma.c ****   * @brief  Returns the status of EN bit for the specified DMAy Streamx.
 910:../Libraries/STM32F4xx_StdPeriph_Driver/src/stm32f4xx_dma.c ****   * @param  DMAy_Streamx: where y can be 1 or 2 to select the DMA and x can be 0
 911:../Libraries/STM32F4xx_StdPeriph_Driver/src/stm32f4xx_dma.c ****   *          to 7 to select the DMA Stream.
 912:../Libraries/STM32F4xx_StdPeriph_Driver/src/stm32f4xx_dma.c ****   *   
 913:../Libraries/STM32F4xx_StdPeriph_Driver/src/stm32f4xx_dma.c ****   * @note    After configuring the DMA Stream (DMA_Init() function) and enabling
 914:../Libraries/STM32F4xx_StdPeriph_Driver/src/stm32f4xx_dma.c ****   *          the stream, it is recommended to check (or wait until) the DMA Stream
 915:../Libraries/STM32F4xx_StdPeriph_Driver/src/stm32f4xx_dma.c ****   *          is effectively enabled. A Stream may remain disabled if a configuration
 916:../Libraries/STM32F4xx_StdPeriph_Driver/src/stm32f4xx_dma.c ****   *          parameter is wrong.
 917:../Libraries/STM32F4xx_StdPeriph_Driver/src/stm32f4xx_dma.c ****   *          After disabling a DMA Stream, it is also recommended to check (or wait 
 918:../Libraries/STM32F4xx_StdPeriph_Driver/src/stm32f4xx_dma.c ****   *          until) the DMA Stream is effectively disabled. If a Stream is disabled
 919:../Libraries/STM32F4xx_StdPeriph_Driver/src/stm32f4xx_dma.c ****   *          while a data transfer is ongoing, the current data will be transferred
 920:../Libraries/STM32F4xx_StdPeriph_Driver/src/stm32f4xx_dma.c ****   *          and the Stream will be effectively disabled only after the transfer
 921:../Libraries/STM32F4xx_StdPeriph_Driver/src/stm32f4xx_dma.c ****   *          of this single data is finished.  
 922:../Libraries/STM32F4xx_StdPeriph_Driver/src/stm32f4xx_dma.c ****   *      
 923:../Libraries/STM32F4xx_StdPeriph_Driver/src/stm32f4xx_dma.c ****   * @retval Current state of the DMAy Streamx (ENABLE or DISABLE).
 924:../Libraries/STM32F4xx_StdPeriph_Driver/src/stm32f4xx_dma.c ****   */
 925:../Libraries/STM32F4xx_StdPeriph_Driver/src/stm32f4xx_dma.c **** FunctionalState DMA_GetCmdStatus(DMA_Stream_TypeDef* DMAy_Streamx)
 926:../Libraries/STM32F4xx_StdPeriph_Driver/src/stm32f4xx_dma.c **** {
 981              		.loc 1 926 1 is_stmt 1 view -0
 982              		.cfi_startproc
 983              		@ args = 0, pretend = 0, frame = 0
 984              		@ frame_needed = 0, uses_anonymous_args = 0
 985              		@ link register save eliminated.
 927:../Libraries/STM32F4xx_StdPeriph_Driver/src/stm32f4xx_dma.c ****   FunctionalState state = DISABLE;
 986              		.loc 1 927 3 view .LVU256
 928:../Libraries/STM32F4xx_StdPeriph_Driver/src/stm32f4xx_dma.c **** 
 929:../Libraries/STM32F4xx_StdPeriph_Driver/src/stm32f4xx_dma.c ****   /* Check the parameters */
 930:../Libraries/STM32F4xx_StdPeriph_Driver/src/stm32f4xx_dma.c ****   assert_param(IS_DMA_ALL_PERIPH(DMAy_Streamx));
 987              		.loc 1 930 3 view .LVU257
 931:../Libraries/STM32F4xx_StdPeriph_Driver/src/stm32f4xx_dma.c **** 
 932:../Libraries/STM32F4xx_StdPeriph_Driver/src/stm32f4xx_dma.c ****   if ((DMAy_Streamx->CR & (uint32_t)DMA_SxCR_EN) != 0)
 988              		.loc 1 932 3 view .LVU258
 989              	@ ../Libraries/STM32F4xx_StdPeriph_Driver/src/stm32f4xx_dma.c:932:   if ((DMAy_Streamx->CR & (uint3
 990              		.loc 1 932 20 is_stmt 0 view .LVU259
 991 0000 0068     		ldr	r0, [r0]	@ _1, DMAy_Streamx_4(D)->CR
 992              	.LVL24:
 933:../Libraries/STM32F4xx_StdPeriph_Driver/src/stm32f4xx_dma.c ****   {
 934:../Libraries/STM32F4xx_StdPeriph_Driver/src/stm32f4xx_dma.c ****     /* The selected DMAy Streamx EN bit is set (DMA is still transferring) */
 935:../Libraries/STM32F4xx_StdPeriph_Driver/src/stm32f4xx_dma.c ****     state = ENABLE;
 936:../Libraries/STM32F4xx_StdPeriph_Driver/src/stm32f4xx_dma.c ****   }
 937:../Libraries/STM32F4xx_StdPeriph_Driver/src/stm32f4xx_dma.c ****   else
 938:../Libraries/STM32F4xx_StdPeriph_Driver/src/stm32f4xx_dma.c ****   {
 939:../Libraries/STM32F4xx_StdPeriph_Driver/src/stm32f4xx_dma.c ****     /* The selected DMAy Streamx EN bit is cleared (DMA is disabled and 
 940:../Libraries/STM32F4xx_StdPeriph_Driver/src/stm32f4xx_dma.c ****         all transfers are complete) */
ARM GAS  C:\Users\admin\AppData\Local\Temp\ccYXfAC7.s 			page 36


 941:../Libraries/STM32F4xx_StdPeriph_Driver/src/stm32f4xx_dma.c ****     state = DISABLE;
 942:../Libraries/STM32F4xx_StdPeriph_Driver/src/stm32f4xx_dma.c ****   }
 943:../Libraries/STM32F4xx_StdPeriph_Driver/src/stm32f4xx_dma.c ****   return state;
 993              		.loc 1 943 3 is_stmt 1 view .LVU260
 994              	@ ../Libraries/STM32F4xx_StdPeriph_Driver/src/stm32f4xx_dma.c:944: }
 944:../Libraries/STM32F4xx_StdPeriph_Driver/src/stm32f4xx_dma.c **** }
 995              		.loc 1 944 1 is_stmt 0 view .LVU261
 996 0002 00F00100 		and	r0, r0, #1	@, _1,
 997              	.LVL25:
 998              		.loc 1 944 1 view .LVU262
 999 0006 7047     		bx	lr	@
 1000              		.cfi_endproc
 1001              	.LFE122:
 1002              		.size	DMA_GetCmdStatus, .-DMA_GetCmdStatus
 1003              		.section	.text.DMA_GetFIFOStatus,"ax",%progbits
 1004              		.align	1
 1005              		.p2align 2,,3
 1006              		.global	DMA_GetFIFOStatus
 1007              		.syntax unified
 1008              		.thumb
 1009              		.thumb_func
 1010              		.type	DMA_GetFIFOStatus, %function
 1011              	DMA_GetFIFOStatus:
 1012              	.LVL26:
 1013              	.LFB123:
 945:../Libraries/STM32F4xx_StdPeriph_Driver/src/stm32f4xx_dma.c **** 
 946:../Libraries/STM32F4xx_StdPeriph_Driver/src/stm32f4xx_dma.c **** /**
 947:../Libraries/STM32F4xx_StdPeriph_Driver/src/stm32f4xx_dma.c ****   * @brief  Returns the current DMAy Streamx FIFO filled level.
 948:../Libraries/STM32F4xx_StdPeriph_Driver/src/stm32f4xx_dma.c ****   * @param  DMAy_Streamx: where y can be 1 or 2 to select the DMA and x can be 0 
 949:../Libraries/STM32F4xx_StdPeriph_Driver/src/stm32f4xx_dma.c ****   *         to 7 to select the DMA Stream.
 950:../Libraries/STM32F4xx_StdPeriph_Driver/src/stm32f4xx_dma.c ****   * @retval The FIFO filling state.
 951:../Libraries/STM32F4xx_StdPeriph_Driver/src/stm32f4xx_dma.c ****   *           - DMA_FIFOStatus_Less1QuarterFull: when FIFO is less than 1 quarter-full 
 952:../Libraries/STM32F4xx_StdPeriph_Driver/src/stm32f4xx_dma.c ****   *                                               and not empty.
 953:../Libraries/STM32F4xx_StdPeriph_Driver/src/stm32f4xx_dma.c ****   *           - DMA_FIFOStatus_1QuarterFull: if more than 1 quarter-full.
 954:../Libraries/STM32F4xx_StdPeriph_Driver/src/stm32f4xx_dma.c ****   *           - DMA_FIFOStatus_HalfFull: if more than 1 half-full.
 955:../Libraries/STM32F4xx_StdPeriph_Driver/src/stm32f4xx_dma.c ****   *           - DMA_FIFOStatus_3QuartersFull: if more than 3 quarters-full.
 956:../Libraries/STM32F4xx_StdPeriph_Driver/src/stm32f4xx_dma.c ****   *           - DMA_FIFOStatus_Empty: when FIFO is empty
 957:../Libraries/STM32F4xx_StdPeriph_Driver/src/stm32f4xx_dma.c ****   *           - DMA_FIFOStatus_Full: when FIFO is full
 958:../Libraries/STM32F4xx_StdPeriph_Driver/src/stm32f4xx_dma.c ****   */
 959:../Libraries/STM32F4xx_StdPeriph_Driver/src/stm32f4xx_dma.c **** uint32_t DMA_GetFIFOStatus(DMA_Stream_TypeDef* DMAy_Streamx)
 960:../Libraries/STM32F4xx_StdPeriph_Driver/src/stm32f4xx_dma.c **** {
 1014              		.loc 1 960 1 is_stmt 1 view -0
 1015              		.cfi_startproc
 1016              		@ args = 0, pretend = 0, frame = 0
 1017              		@ frame_needed = 0, uses_anonymous_args = 0
 1018              		@ link register save eliminated.
 961:../Libraries/STM32F4xx_StdPeriph_Driver/src/stm32f4xx_dma.c ****   uint32_t tmpreg = 0;
 1019              		.loc 1 961 3 view .LVU264
 962:../Libraries/STM32F4xx_StdPeriph_Driver/src/stm32f4xx_dma.c ****  
 963:../Libraries/STM32F4xx_StdPeriph_Driver/src/stm32f4xx_dma.c ****   /* Check the parameters */
 964:../Libraries/STM32F4xx_StdPeriph_Driver/src/stm32f4xx_dma.c ****   assert_param(IS_DMA_ALL_PERIPH(DMAy_Streamx));
 1020              		.loc 1 964 3 view .LVU265
 965:../Libraries/STM32F4xx_StdPeriph_Driver/src/stm32f4xx_dma.c ****   
 966:../Libraries/STM32F4xx_StdPeriph_Driver/src/stm32f4xx_dma.c ****   /* Get the FIFO level bits */
 967:../Libraries/STM32F4xx_StdPeriph_Driver/src/stm32f4xx_dma.c ****   tmpreg = (uint32_t)((DMAy_Streamx->FCR & DMA_SxFCR_FS));
 1021              		.loc 1 967 3 view .LVU266
 1022              	@ ../Libraries/STM32F4xx_StdPeriph_Driver/src/stm32f4xx_dma.c:967:   tmpreg = (uint32_t)((DMAy_Stre
ARM GAS  C:\Users\admin\AppData\Local\Temp\ccYXfAC7.s 			page 37


 1023              		.loc 1 967 36 is_stmt 0 view .LVU267
 1024 0000 4069     		ldr	r0, [r0, #20]	@ _1, DMAy_Streamx_3(D)->FCR
 1025              	.LVL27:
 968:../Libraries/STM32F4xx_StdPeriph_Driver/src/stm32f4xx_dma.c ****   
 969:../Libraries/STM32F4xx_StdPeriph_Driver/src/stm32f4xx_dma.c ****   return tmpreg;
 1026              		.loc 1 969 3 is_stmt 1 view .LVU268
 1027              	@ ../Libraries/STM32F4xx_StdPeriph_Driver/src/stm32f4xx_dma.c:970: }
 970:../Libraries/STM32F4xx_StdPeriph_Driver/src/stm32f4xx_dma.c **** }
 1028              		.loc 1 970 1 is_stmt 0 view .LVU269
 1029 0002 00F03800 		and	r0, r0, #56	@, _1,
 1030              	.LVL28:
 1031              		.loc 1 970 1 view .LVU270
 1032 0006 7047     		bx	lr	@
 1033              		.cfi_endproc
 1034              	.LFE123:
 1035              		.size	DMA_GetFIFOStatus, .-DMA_GetFIFOStatus
 1036              		.section	.text.DMA_GetFlagStatus,"ax",%progbits
 1037              		.align	1
 1038              		.p2align 2,,3
 1039              		.global	DMA_GetFlagStatus
 1040              		.syntax unified
 1041              		.thumb
 1042              		.thumb_func
 1043              		.type	DMA_GetFlagStatus, %function
 1044              	DMA_GetFlagStatus:
 1045              	.LVL29:
 1046              	.LFB124:
 971:../Libraries/STM32F4xx_StdPeriph_Driver/src/stm32f4xx_dma.c **** 
 972:../Libraries/STM32F4xx_StdPeriph_Driver/src/stm32f4xx_dma.c **** /**
 973:../Libraries/STM32F4xx_StdPeriph_Driver/src/stm32f4xx_dma.c ****   * @brief  Checks whether the specified DMAy Streamx flag is set or not.
 974:../Libraries/STM32F4xx_StdPeriph_Driver/src/stm32f4xx_dma.c ****   * @param  DMAy_Streamx: where y can be 1 or 2 to select the DMA and x can be 0
 975:../Libraries/STM32F4xx_StdPeriph_Driver/src/stm32f4xx_dma.c ****   *          to 7 to select the DMA Stream.
 976:../Libraries/STM32F4xx_StdPeriph_Driver/src/stm32f4xx_dma.c ****   * @param  DMA_FLAG: specifies the flag to check.
 977:../Libraries/STM32F4xx_StdPeriph_Driver/src/stm32f4xx_dma.c ****   *          This parameter can be one of the following values:
 978:../Libraries/STM32F4xx_StdPeriph_Driver/src/stm32f4xx_dma.c ****   *            @arg DMA_FLAG_TCIFx:  Streamx transfer complete flag
 979:../Libraries/STM32F4xx_StdPeriph_Driver/src/stm32f4xx_dma.c ****   *            @arg DMA_FLAG_HTIFx:  Streamx half transfer complete flag
 980:../Libraries/STM32F4xx_StdPeriph_Driver/src/stm32f4xx_dma.c ****   *            @arg DMA_FLAG_TEIFx:  Streamx transfer error flag
 981:../Libraries/STM32F4xx_StdPeriph_Driver/src/stm32f4xx_dma.c ****   *            @arg DMA_FLAG_DMEIFx: Streamx direct mode error flag
 982:../Libraries/STM32F4xx_StdPeriph_Driver/src/stm32f4xx_dma.c ****   *            @arg DMA_FLAG_FEIFx:  Streamx FIFO error flag
 983:../Libraries/STM32F4xx_StdPeriph_Driver/src/stm32f4xx_dma.c ****   *         Where x can be 0 to 7 to select the DMA Stream.
 984:../Libraries/STM32F4xx_StdPeriph_Driver/src/stm32f4xx_dma.c ****   * @retval The new state of DMA_FLAG (SET or RESET).
 985:../Libraries/STM32F4xx_StdPeriph_Driver/src/stm32f4xx_dma.c ****   */
 986:../Libraries/STM32F4xx_StdPeriph_Driver/src/stm32f4xx_dma.c **** FlagStatus DMA_GetFlagStatus(DMA_Stream_TypeDef* DMAy_Streamx, uint32_t DMA_FLAG)
 987:../Libraries/STM32F4xx_StdPeriph_Driver/src/stm32f4xx_dma.c **** {
 1047              		.loc 1 987 1 is_stmt 1 view -0
 1048              		.cfi_startproc
 1049              		@ args = 0, pretend = 0, frame = 0
 1050              		@ frame_needed = 0, uses_anonymous_args = 0
 1051              		@ link register save eliminated.
 988:../Libraries/STM32F4xx_StdPeriph_Driver/src/stm32f4xx_dma.c ****   FlagStatus bitstatus = RESET;
 1052              		.loc 1 988 3 view .LVU272
 989:../Libraries/STM32F4xx_StdPeriph_Driver/src/stm32f4xx_dma.c ****   DMA_TypeDef* DMAy;
 1053              		.loc 1 989 3 view .LVU273
 990:../Libraries/STM32F4xx_StdPeriph_Driver/src/stm32f4xx_dma.c ****   uint32_t tmpreg = 0;
 1054              		.loc 1 990 3 view .LVU274
 991:../Libraries/STM32F4xx_StdPeriph_Driver/src/stm32f4xx_dma.c **** 
 992:../Libraries/STM32F4xx_StdPeriph_Driver/src/stm32f4xx_dma.c ****   /* Check the parameters */
ARM GAS  C:\Users\admin\AppData\Local\Temp\ccYXfAC7.s 			page 38


 993:../Libraries/STM32F4xx_StdPeriph_Driver/src/stm32f4xx_dma.c ****   assert_param(IS_DMA_ALL_PERIPH(DMAy_Streamx));
 1055              		.loc 1 993 3 view .LVU275
 994:../Libraries/STM32F4xx_StdPeriph_Driver/src/stm32f4xx_dma.c ****   assert_param(IS_DMA_GET_FLAG(DMA_FLAG));
 1056              		.loc 1 994 3 view .LVU276
 995:../Libraries/STM32F4xx_StdPeriph_Driver/src/stm32f4xx_dma.c **** 
 996:../Libraries/STM32F4xx_StdPeriph_Driver/src/stm32f4xx_dma.c ****   /* Determine the DMA to which belongs the stream */
 997:../Libraries/STM32F4xx_StdPeriph_Driver/src/stm32f4xx_dma.c ****   if (DMAy_Streamx < DMA2_Stream0)
 1057              		.loc 1 997 3 view .LVU277
 1058              	@ ../Libraries/STM32F4xx_StdPeriph_Driver/src/stm32f4xx_dma.c:987: {
 987:../Libraries/STM32F4xx_StdPeriph_Driver/src/stm32f4xx_dma.c ****   FlagStatus bitstatus = RESET;
 1059              		.loc 1 987 1 is_stmt 0 view .LVU278
 1060 0000 10B4     		push	{r4}	@
 1061              		.cfi_def_cfa_offset 4
 1062              		.cfi_offset 4, -4
 1063              	@ ../Libraries/STM32F4xx_StdPeriph_Driver/src/stm32f4xx_dma.c:1005:     DMAy = DMA2; 
 998:../Libraries/STM32F4xx_StdPeriph_Driver/src/stm32f4xx_dma.c ****   {
 999:../Libraries/STM32F4xx_StdPeriph_Driver/src/stm32f4xx_dma.c ****     /* DMAy_Streamx belongs to DMA1 */
1000:../Libraries/STM32F4xx_StdPeriph_Driver/src/stm32f4xx_dma.c ****     DMAy = DMA1; 
1001:../Libraries/STM32F4xx_StdPeriph_Driver/src/stm32f4xx_dma.c ****   } 
1002:../Libraries/STM32F4xx_StdPeriph_Driver/src/stm32f4xx_dma.c ****   else 
1003:../Libraries/STM32F4xx_StdPeriph_Driver/src/stm32f4xx_dma.c ****   {
1004:../Libraries/STM32F4xx_StdPeriph_Driver/src/stm32f4xx_dma.c ****     /* DMAy_Streamx belongs to DMA2 */
1005:../Libraries/STM32F4xx_StdPeriph_Driver/src/stm32f4xx_dma.c ****     DMAy = DMA2; 
 1064              		.loc 1 1005 10 view .LVU279
 1065 0002 0A4A     		ldr	r2, .L65	@ tmp133,
 1066              	@ ../Libraries/STM32F4xx_StdPeriph_Driver/src/stm32f4xx_dma.c:997:   if (DMAy_Streamx < DMA2_Stream
 997:../Libraries/STM32F4xx_StdPeriph_Driver/src/stm32f4xx_dma.c ****   {
 1067              		.loc 1 997 6 view .LVU280
 1068 0004 0A4C     		ldr	r4, .L65+4	@ tmp122,
 1069              	@ ../Libraries/STM32F4xx_StdPeriph_Driver/src/stm32f4xx_dma.c:1005:     DMAy = DMA2; 
 1070              		.loc 1 1005 10 view .LVU281
 1071 0006 0B4B     		ldr	r3, .L65+8	@ tmp132,
 1072 0008 A042     		cmp	r0, r4	@ tmp134, tmp122
 1073 000a 88BF     		it	hi		@
 1074 000c 1346     		movhi	r3, r2	@, DMAy, tmp133
 1075              	.LVL30:
1006:../Libraries/STM32F4xx_StdPeriph_Driver/src/stm32f4xx_dma.c ****   }
1007:../Libraries/STM32F4xx_StdPeriph_Driver/src/stm32f4xx_dma.c **** 
1008:../Libraries/STM32F4xx_StdPeriph_Driver/src/stm32f4xx_dma.c ****   /* Check if the flag is in HISR or LISR */
1009:../Libraries/STM32F4xx_StdPeriph_Driver/src/stm32f4xx_dma.c ****   if ((DMA_FLAG & HIGH_ISR_MASK) != (uint32_t)RESET)
 1076              		.loc 1 1009 3 is_stmt 1 view .LVU282
 1077              	@ ../Libraries/STM32F4xx_StdPeriph_Driver/src/stm32f4xx_dma.c:1009:   if ((DMA_FLAG & HIGH_ISR_MASK
 1078              		.loc 1 1009 6 is_stmt 0 view .LVU283
 1079 000e 8A00     		lsls	r2, r1, #2	@, DMA_FLAG,
1010:../Libraries/STM32F4xx_StdPeriph_Driver/src/stm32f4xx_dma.c ****   {
1011:../Libraries/STM32F4xx_StdPeriph_Driver/src/stm32f4xx_dma.c ****     /* Get DMAy HISR register value */
1012:../Libraries/STM32F4xx_StdPeriph_Driver/src/stm32f4xx_dma.c ****     tmpreg = DMAy->HISR;
 1080              		.loc 1 1012 5 is_stmt 1 view .LVU284
 1081              	@ ../Libraries/STM32F4xx_StdPeriph_Driver/src/stm32f4xx_dma.c:1012:     tmpreg = DMAy->HISR;
 1082              		.loc 1 1012 12 is_stmt 0 view .LVU285
 1083 0010 4CBF     		ite	mi
 1084 0012 5868     		ldrmi	r0, [r3, #4]	@ tmpreg, DMAy_4->HISR
 1085              	.LVL31:
1013:../Libraries/STM32F4xx_StdPeriph_Driver/src/stm32f4xx_dma.c ****   }
1014:../Libraries/STM32F4xx_StdPeriph_Driver/src/stm32f4xx_dma.c ****   else
1015:../Libraries/STM32F4xx_StdPeriph_Driver/src/stm32f4xx_dma.c ****   {
1016:../Libraries/STM32F4xx_StdPeriph_Driver/src/stm32f4xx_dma.c ****     /* Get DMAy LISR register value */
ARM GAS  C:\Users\admin\AppData\Local\Temp\ccYXfAC7.s 			page 39


1017:../Libraries/STM32F4xx_StdPeriph_Driver/src/stm32f4xx_dma.c ****     tmpreg = DMAy->LISR;
 1086              		.loc 1 1017 5 is_stmt 1 view .LVU286
 1087              	@ ../Libraries/STM32F4xx_StdPeriph_Driver/src/stm32f4xx_dma.c:1017:     tmpreg = DMAy->LISR;
 1088              		.loc 1 1017 12 is_stmt 0 view .LVU287
 1089 0014 1868     		ldrpl	r0, [r3]	@ tmpreg, DMAy_4->LISR
 1090              	.LVL32:
1018:../Libraries/STM32F4xx_StdPeriph_Driver/src/stm32f4xx_dma.c ****   }   
1019:../Libraries/STM32F4xx_StdPeriph_Driver/src/stm32f4xx_dma.c ****  
1020:../Libraries/STM32F4xx_StdPeriph_Driver/src/stm32f4xx_dma.c ****   /* Mask the reserved bits */
1021:../Libraries/STM32F4xx_StdPeriph_Driver/src/stm32f4xx_dma.c ****   tmpreg &= (uint32_t)RESERVED_MASK;
 1091              		.loc 1 1021 3 is_stmt 1 view .LVU288
1022:../Libraries/STM32F4xx_StdPeriph_Driver/src/stm32f4xx_dma.c **** 
1023:../Libraries/STM32F4xx_StdPeriph_Driver/src/stm32f4xx_dma.c ****   /* Check the status of the specified DMA flag */
1024:../Libraries/STM32F4xx_StdPeriph_Driver/src/stm32f4xx_dma.c ****   if ((tmpreg & DMA_FLAG) != (uint32_t)RESET)
 1092              		.loc 1 1024 3 view .LVU289
1025:../Libraries/STM32F4xx_StdPeriph_Driver/src/stm32f4xx_dma.c ****   {
1026:../Libraries/STM32F4xx_StdPeriph_Driver/src/stm32f4xx_dma.c ****     /* DMA_FLAG is set */
1027:../Libraries/STM32F4xx_StdPeriph_Driver/src/stm32f4xx_dma.c ****     bitstatus = SET;
1028:../Libraries/STM32F4xx_StdPeriph_Driver/src/stm32f4xx_dma.c ****   }
1029:../Libraries/STM32F4xx_StdPeriph_Driver/src/stm32f4xx_dma.c ****   else
1030:../Libraries/STM32F4xx_StdPeriph_Driver/src/stm32f4xx_dma.c ****   {
1031:../Libraries/STM32F4xx_StdPeriph_Driver/src/stm32f4xx_dma.c ****     /* DMA_FLAG is reset */
1032:../Libraries/STM32F4xx_StdPeriph_Driver/src/stm32f4xx_dma.c ****     bitstatus = RESET;
1033:../Libraries/STM32F4xx_StdPeriph_Driver/src/stm32f4xx_dma.c ****   }
1034:../Libraries/STM32F4xx_StdPeriph_Driver/src/stm32f4xx_dma.c **** 
1035:../Libraries/STM32F4xx_StdPeriph_Driver/src/stm32f4xx_dma.c ****   /* Return the DMA_FLAG status */
1036:../Libraries/STM32F4xx_StdPeriph_Driver/src/stm32f4xx_dma.c ****   return  bitstatus;
 1093              		.loc 1 1036 3 view .LVU290
 1094              	@ ../Libraries/STM32F4xx_StdPeriph_Driver/src/stm32f4xx_dma.c:1037: }
1037:../Libraries/STM32F4xx_StdPeriph_Driver/src/stm32f4xx_dma.c **** }
 1095              		.loc 1 1037 1 is_stmt 0 view .LVU291
 1096 0016 5DF8044B 		ldr	r4, [sp], #4	@,
 1097              		.cfi_restore 4
 1098              		.cfi_def_cfa_offset 0
 1099              	@ ../Libraries/STM32F4xx_StdPeriph_Driver/src/stm32f4xx_dma.c:1024:   if ((tmpreg & DMA_FLAG) != (u
1024:../Libraries/STM32F4xx_StdPeriph_Driver/src/stm32f4xx_dma.c ****   {
 1100              		.loc 1 1024 15 view .LVU292
 1101 001a 0840     		ands	r0, r0, r1	@, tmp125, tmpreg, DMA_FLAG
 1102              	.LVL33:
1024:../Libraries/STM32F4xx_StdPeriph_Driver/src/stm32f4xx_dma.c ****   {
 1103              		.loc 1 1024 15 view .LVU293
 1104 001c 20F0F020 		bic	r0, r0, #-268374016	@ tmp126, tmp125,
 1105 0020 20F08210 		bic	r0, r0, #8519810	@ tmp126, tmp126,
 1106              	@ ../Libraries/STM32F4xx_StdPeriph_Driver/src/stm32f4xx_dma.c:1037: }
 1107              		.loc 1 1037 1 view .LVU294
 1108 0024 0038     		subs	r0, r0, #0	@, tmp126,
 1109 0026 18BF     		it	ne
 1110 0028 0120     		movne	r0, #1	@,
 1111 002a 7047     		bx	lr	@
 1112              	.L66:
 1113              		.align	2
 1114              	.L65:
 1115 002c 00640240 		.word	1073898496
 1116 0030 0F640240 		.word	1073898511
 1117 0034 00600240 		.word	1073897472
 1118              		.cfi_endproc
 1119              	.LFE124:
ARM GAS  C:\Users\admin\AppData\Local\Temp\ccYXfAC7.s 			page 40


 1120              		.size	DMA_GetFlagStatus, .-DMA_GetFlagStatus
 1121              		.section	.text.DMA_ClearFlag,"ax",%progbits
 1122              		.align	1
 1123              		.p2align 2,,3
 1124              		.global	DMA_ClearFlag
 1125              		.syntax unified
 1126              		.thumb
 1127              		.thumb_func
 1128              		.type	DMA_ClearFlag, %function
 1129              	DMA_ClearFlag:
 1130              	.LVL34:
 1131              	.LFB125:
1038:../Libraries/STM32F4xx_StdPeriph_Driver/src/stm32f4xx_dma.c **** 
1039:../Libraries/STM32F4xx_StdPeriph_Driver/src/stm32f4xx_dma.c **** /**
1040:../Libraries/STM32F4xx_StdPeriph_Driver/src/stm32f4xx_dma.c ****   * @brief  Clears the DMAy Streamx's pending flags.
1041:../Libraries/STM32F4xx_StdPeriph_Driver/src/stm32f4xx_dma.c ****   * @param  DMAy_Streamx: where y can be 1 or 2 to select the DMA and x can be 0
1042:../Libraries/STM32F4xx_StdPeriph_Driver/src/stm32f4xx_dma.c ****   *          to 7 to select the DMA Stream.
1043:../Libraries/STM32F4xx_StdPeriph_Driver/src/stm32f4xx_dma.c ****   * @param  DMA_FLAG: specifies the flag to clear.
1044:../Libraries/STM32F4xx_StdPeriph_Driver/src/stm32f4xx_dma.c ****   *          This parameter can be any combination of the following values:
1045:../Libraries/STM32F4xx_StdPeriph_Driver/src/stm32f4xx_dma.c ****   *            @arg DMA_FLAG_TCIFx:  Streamx transfer complete flag
1046:../Libraries/STM32F4xx_StdPeriph_Driver/src/stm32f4xx_dma.c ****   *            @arg DMA_FLAG_HTIFx:  Streamx half transfer complete flag
1047:../Libraries/STM32F4xx_StdPeriph_Driver/src/stm32f4xx_dma.c ****   *            @arg DMA_FLAG_TEIFx:  Streamx transfer error flag
1048:../Libraries/STM32F4xx_StdPeriph_Driver/src/stm32f4xx_dma.c ****   *            @arg DMA_FLAG_DMEIFx: Streamx direct mode error flag
1049:../Libraries/STM32F4xx_StdPeriph_Driver/src/stm32f4xx_dma.c ****   *            @arg DMA_FLAG_FEIFx:  Streamx FIFO error flag
1050:../Libraries/STM32F4xx_StdPeriph_Driver/src/stm32f4xx_dma.c ****   *         Where x can be 0 to 7 to select the DMA Stream.   
1051:../Libraries/STM32F4xx_StdPeriph_Driver/src/stm32f4xx_dma.c ****   * @retval None
1052:../Libraries/STM32F4xx_StdPeriph_Driver/src/stm32f4xx_dma.c ****   */
1053:../Libraries/STM32F4xx_StdPeriph_Driver/src/stm32f4xx_dma.c **** void DMA_ClearFlag(DMA_Stream_TypeDef* DMAy_Streamx, uint32_t DMA_FLAG)
1054:../Libraries/STM32F4xx_StdPeriph_Driver/src/stm32f4xx_dma.c **** {
 1132              		.loc 1 1054 1 is_stmt 1 view -0
 1133              		.cfi_startproc
 1134              		@ args = 0, pretend = 0, frame = 0
 1135              		@ frame_needed = 0, uses_anonymous_args = 0
 1136              		@ link register save eliminated.
1055:../Libraries/STM32F4xx_StdPeriph_Driver/src/stm32f4xx_dma.c ****   DMA_TypeDef* DMAy;
 1137              		.loc 1 1055 3 view .LVU296
1056:../Libraries/STM32F4xx_StdPeriph_Driver/src/stm32f4xx_dma.c **** 
1057:../Libraries/STM32F4xx_StdPeriph_Driver/src/stm32f4xx_dma.c ****   /* Check the parameters */
1058:../Libraries/STM32F4xx_StdPeriph_Driver/src/stm32f4xx_dma.c ****   assert_param(IS_DMA_ALL_PERIPH(DMAy_Streamx));
 1138              		.loc 1 1058 3 view .LVU297
1059:../Libraries/STM32F4xx_StdPeriph_Driver/src/stm32f4xx_dma.c ****   assert_param(IS_DMA_CLEAR_FLAG(DMA_FLAG));
 1139              		.loc 1 1059 3 view .LVU298
1060:../Libraries/STM32F4xx_StdPeriph_Driver/src/stm32f4xx_dma.c **** 
1061:../Libraries/STM32F4xx_StdPeriph_Driver/src/stm32f4xx_dma.c ****   /* Determine the DMA to which belongs the stream */
1062:../Libraries/STM32F4xx_StdPeriph_Driver/src/stm32f4xx_dma.c ****   if (DMAy_Streamx < DMA2_Stream0)
 1140              		.loc 1 1062 3 view .LVU299
 1141              	@ ../Libraries/STM32F4xx_StdPeriph_Driver/src/stm32f4xx_dma.c:1054: {
1054:../Libraries/STM32F4xx_StdPeriph_Driver/src/stm32f4xx_dma.c ****   DMA_TypeDef* DMAy;
 1142              		.loc 1 1054 1 is_stmt 0 view .LVU300
 1143 0000 10B4     		push	{r4}	@
 1144              		.cfi_def_cfa_offset 4
 1145              		.cfi_offset 4, -4
 1146              	@ ../Libraries/STM32F4xx_StdPeriph_Driver/src/stm32f4xx_dma.c:1070:     DMAy = DMA2; 
1063:../Libraries/STM32F4xx_StdPeriph_Driver/src/stm32f4xx_dma.c ****   {
1064:../Libraries/STM32F4xx_StdPeriph_Driver/src/stm32f4xx_dma.c ****     /* DMAy_Streamx belongs to DMA1 */
1065:../Libraries/STM32F4xx_StdPeriph_Driver/src/stm32f4xx_dma.c ****     DMAy = DMA1; 
1066:../Libraries/STM32F4xx_StdPeriph_Driver/src/stm32f4xx_dma.c ****   } 
ARM GAS  C:\Users\admin\AppData\Local\Temp\ccYXfAC7.s 			page 41


1067:../Libraries/STM32F4xx_StdPeriph_Driver/src/stm32f4xx_dma.c ****   else 
1068:../Libraries/STM32F4xx_StdPeriph_Driver/src/stm32f4xx_dma.c ****   {
1069:../Libraries/STM32F4xx_StdPeriph_Driver/src/stm32f4xx_dma.c ****     /* DMAy_Streamx belongs to DMA2 */
1070:../Libraries/STM32F4xx_StdPeriph_Driver/src/stm32f4xx_dma.c ****     DMAy = DMA2; 
 1147              		.loc 1 1070 10 view .LVU301
 1148 0002 094B     		ldr	r3, .L73	@ tmp125,
 1149              	@ ../Libraries/STM32F4xx_StdPeriph_Driver/src/stm32f4xx_dma.c:1062:   if (DMAy_Streamx < DMA2_Strea
1062:../Libraries/STM32F4xx_StdPeriph_Driver/src/stm32f4xx_dma.c ****   {
 1150              		.loc 1 1062 6 view .LVU302
 1151 0004 094C     		ldr	r4, .L73+4	@ tmp119,
 1152              	@ ../Libraries/STM32F4xx_StdPeriph_Driver/src/stm32f4xx_dma.c:1070:     DMAy = DMA2; 
 1153              		.loc 1 1070 10 view .LVU303
 1154 0006 0A4A     		ldr	r2, .L73+8	@ tmp126,
 1155 0008 A042     		cmp	r0, r4	@ tmp127, tmp119
 1156 000a 88BF     		it	hi		@
 1157 000c 1346     		movhi	r3, r2	@, DMAy, tmp126
 1158              	.LVL35:
1071:../Libraries/STM32F4xx_StdPeriph_Driver/src/stm32f4xx_dma.c ****   }
1072:../Libraries/STM32F4xx_StdPeriph_Driver/src/stm32f4xx_dma.c **** 
1073:../Libraries/STM32F4xx_StdPeriph_Driver/src/stm32f4xx_dma.c ****   /* Check if LIFCR or HIFCR register is targeted */
1074:../Libraries/STM32F4xx_StdPeriph_Driver/src/stm32f4xx_dma.c ****   if ((DMA_FLAG & HIGH_ISR_MASK) != (uint32_t)RESET)
 1159              		.loc 1 1074 3 is_stmt 1 view .LVU304
1075:../Libraries/STM32F4xx_StdPeriph_Driver/src/stm32f4xx_dma.c ****   {
1076:../Libraries/STM32F4xx_StdPeriph_Driver/src/stm32f4xx_dma.c ****     /* Set DMAy HIFCR register clear flag bits */
1077:../Libraries/STM32F4xx_StdPeriph_Driver/src/stm32f4xx_dma.c ****     DMAy->HIFCR = (uint32_t)(DMA_FLAG & RESERVED_MASK);
 1160              		.loc 1 1077 5 view .LVU305
1078:../Libraries/STM32F4xx_StdPeriph_Driver/src/stm32f4xx_dma.c ****   }
1079:../Libraries/STM32F4xx_StdPeriph_Driver/src/stm32f4xx_dma.c ****   else 
1080:../Libraries/STM32F4xx_StdPeriph_Driver/src/stm32f4xx_dma.c ****   {
1081:../Libraries/STM32F4xx_StdPeriph_Driver/src/stm32f4xx_dma.c ****     /* Set DMAy LIFCR register clear flag bits */
1082:../Libraries/STM32F4xx_StdPeriph_Driver/src/stm32f4xx_dma.c ****     DMAy->LIFCR = (uint32_t)(DMA_FLAG & RESERVED_MASK);
 1161              		.loc 1 1082 5 view .LVU306
 1162              	@ ../Libraries/STM32F4xx_StdPeriph_Driver/src/stm32f4xx_dma.c:1074:   if ((DMA_FLAG & HIGH_ISR_MASK
1074:../Libraries/STM32F4xx_StdPeriph_Driver/src/stm32f4xx_dma.c ****   {
 1163              		.loc 1 1074 6 is_stmt 0 view .LVU307
 1164 000e 11F0005F 		tst	r1, #536870912	@ DMA_FLAG,
 1165              	@ ../Libraries/STM32F4xx_StdPeriph_Driver/src/stm32f4xx_dma.c:1077:     DMAy->HIFCR = (uint32_t)(DM
1077:../Libraries/STM32F4xx_StdPeriph_Driver/src/stm32f4xx_dma.c ****   }
 1166              		.loc 1 1077 19 view .LVU308
 1167 0012 21F0F021 		bic	r1, r1, #-268374016	@ _2, DMA_FLAG,
 1168              	.LVL36:
1077:../Libraries/STM32F4xx_StdPeriph_Driver/src/stm32f4xx_dma.c ****   }
 1169              		.loc 1 1077 19 view .LVU309
 1170 0016 21F08211 		bic	r1, r1, #8519810	@ _2, _2,
 1171              	@ ../Libraries/STM32F4xx_StdPeriph_Driver/src/stm32f4xx_dma.c:1084: }
1083:../Libraries/STM32F4xx_StdPeriph_Driver/src/stm32f4xx_dma.c ****   }    
1084:../Libraries/STM32F4xx_StdPeriph_Driver/src/stm32f4xx_dma.c **** }
 1172              		.loc 1 1084 1 view .LVU310
 1173 001a 5DF8044B 		ldr	r4, [sp], #4	@,
 1174              		.cfi_restore 4
 1175              		.cfi_def_cfa_offset 0
 1176              	@ ../Libraries/STM32F4xx_StdPeriph_Driver/src/stm32f4xx_dma.c:1077:     DMAy->HIFCR = (uint32_t)(DM
1077:../Libraries/STM32F4xx_StdPeriph_Driver/src/stm32f4xx_dma.c ****   }
 1177              		.loc 1 1077 17 view .LVU311
 1178 001e 14BF     		ite	ne
 1179 0020 D960     		strne	r1, [r3, #12]	@ _2, DMAy_4->HIFCR
 1180              	@ ../Libraries/STM32F4xx_StdPeriph_Driver/src/stm32f4xx_dma.c:1082:     DMAy->LIFCR = (uint32_t)(DM
ARM GAS  C:\Users\admin\AppData\Local\Temp\ccYXfAC7.s 			page 42


1082:../Libraries/STM32F4xx_StdPeriph_Driver/src/stm32f4xx_dma.c ****   }    
 1181              		.loc 1 1082 17 view .LVU312
 1182 0022 9960     		streq	r1, [r3, #8]	@ _3, DMAy_4->LIFCR
 1183              	@ ../Libraries/STM32F4xx_StdPeriph_Driver/src/stm32f4xx_dma.c:1084: }
 1184              		.loc 1 1084 1 view .LVU313
 1185 0024 7047     		bx	lr	@
 1186              	.L74:
 1187 0026 00BF     		.align	2
 1188              	.L73:
 1189 0028 00600240 		.word	1073897472
 1190 002c 0F640240 		.word	1073898511
 1191 0030 00640240 		.word	1073898496
 1192              		.cfi_endproc
 1193              	.LFE125:
 1194              		.size	DMA_ClearFlag, .-DMA_ClearFlag
 1195              		.section	.text.DMA_ITConfig,"ax",%progbits
 1196              		.align	1
 1197              		.p2align 2,,3
 1198              		.global	DMA_ITConfig
 1199              		.syntax unified
 1200              		.thumb
 1201              		.thumb_func
 1202              		.type	DMA_ITConfig, %function
 1203              	DMA_ITConfig:
 1204              	.LVL37:
 1205              	.LFB126:
1085:../Libraries/STM32F4xx_StdPeriph_Driver/src/stm32f4xx_dma.c **** 
1086:../Libraries/STM32F4xx_StdPeriph_Driver/src/stm32f4xx_dma.c **** /**
1087:../Libraries/STM32F4xx_StdPeriph_Driver/src/stm32f4xx_dma.c ****   * @brief  Enables or disables the specified DMAy Streamx interrupts.
1088:../Libraries/STM32F4xx_StdPeriph_Driver/src/stm32f4xx_dma.c ****   * @param  DMAy_Streamx: where y can be 1 or 2 to select the DMA and x can be 0
1089:../Libraries/STM32F4xx_StdPeriph_Driver/src/stm32f4xx_dma.c ****   *          to 7 to select the DMA Stream.
1090:../Libraries/STM32F4xx_StdPeriph_Driver/src/stm32f4xx_dma.c ****   * @param DMA_IT: specifies the DMA interrupt sources to be enabled or disabled. 
1091:../Libraries/STM32F4xx_StdPeriph_Driver/src/stm32f4xx_dma.c ****   *          This parameter can be any combination of the following values:
1092:../Libraries/STM32F4xx_StdPeriph_Driver/src/stm32f4xx_dma.c ****   *            @arg DMA_IT_TC:  Transfer complete interrupt mask
1093:../Libraries/STM32F4xx_StdPeriph_Driver/src/stm32f4xx_dma.c ****   *            @arg DMA_IT_HT:  Half transfer complete interrupt mask
1094:../Libraries/STM32F4xx_StdPeriph_Driver/src/stm32f4xx_dma.c ****   *            @arg DMA_IT_TE:  Transfer error interrupt mask
1095:../Libraries/STM32F4xx_StdPeriph_Driver/src/stm32f4xx_dma.c ****   *            @arg DMA_IT_FE:  FIFO error interrupt mask
1096:../Libraries/STM32F4xx_StdPeriph_Driver/src/stm32f4xx_dma.c ****   * @param  NewState: new state of the specified DMA interrupts.
1097:../Libraries/STM32F4xx_StdPeriph_Driver/src/stm32f4xx_dma.c ****   *          This parameter can be: ENABLE or DISABLE.
1098:../Libraries/STM32F4xx_StdPeriph_Driver/src/stm32f4xx_dma.c ****   * @retval None
1099:../Libraries/STM32F4xx_StdPeriph_Driver/src/stm32f4xx_dma.c ****   */
1100:../Libraries/STM32F4xx_StdPeriph_Driver/src/stm32f4xx_dma.c **** void DMA_ITConfig(DMA_Stream_TypeDef* DMAy_Streamx, uint32_t DMA_IT, FunctionalState NewState)
1101:../Libraries/STM32F4xx_StdPeriph_Driver/src/stm32f4xx_dma.c **** {
 1206              		.loc 1 1101 1 is_stmt 1 view -0
 1207              		.cfi_startproc
 1208              		@ args = 0, pretend = 0, frame = 0
 1209              		@ frame_needed = 0, uses_anonymous_args = 0
 1210              		@ link register save eliminated.
1102:../Libraries/STM32F4xx_StdPeriph_Driver/src/stm32f4xx_dma.c ****   /* Check the parameters */
1103:../Libraries/STM32F4xx_StdPeriph_Driver/src/stm32f4xx_dma.c ****   assert_param(IS_DMA_ALL_PERIPH(DMAy_Streamx));
 1211              		.loc 1 1103 3 view .LVU315
1104:../Libraries/STM32F4xx_StdPeriph_Driver/src/stm32f4xx_dma.c ****   assert_param(IS_DMA_CONFIG_IT(DMA_IT));
 1212              		.loc 1 1104 3 view .LVU316
1105:../Libraries/STM32F4xx_StdPeriph_Driver/src/stm32f4xx_dma.c ****   assert_param(IS_FUNCTIONAL_STATE(NewState));
 1213              		.loc 1 1105 3 view .LVU317
1106:../Libraries/STM32F4xx_StdPeriph_Driver/src/stm32f4xx_dma.c **** 
1107:../Libraries/STM32F4xx_StdPeriph_Driver/src/stm32f4xx_dma.c ****   /* Check if the DMA_IT parameter contains a FIFO interrupt */
ARM GAS  C:\Users\admin\AppData\Local\Temp\ccYXfAC7.s 			page 43


1108:../Libraries/STM32F4xx_StdPeriph_Driver/src/stm32f4xx_dma.c ****   if ((DMA_IT & DMA_IT_FE) != 0)
 1214              		.loc 1 1108 3 view .LVU318
 1215              	@ ../Libraries/STM32F4xx_StdPeriph_Driver/src/stm32f4xx_dma.c:1108:   if ((DMA_IT & DMA_IT_FE) != 0
 1216              		.loc 1 1108 6 is_stmt 0 view .LVU319
 1217 0000 0B06     		lsls	r3, r1, #24	@, DMA_IT,
 1218 0002 0CD5     		bpl	.L76		@,
1109:../Libraries/STM32F4xx_StdPeriph_Driver/src/stm32f4xx_dma.c ****   {
1110:../Libraries/STM32F4xx_StdPeriph_Driver/src/stm32f4xx_dma.c ****     if (NewState != DISABLE)
 1219              		.loc 1 1110 5 is_stmt 1 view .LVU320
 1220              	@ ../Libraries/STM32F4xx_StdPeriph_Driver/src/stm32f4xx_dma.c:1113:       DMAy_Streamx->FCR |= (uin
1111:../Libraries/STM32F4xx_StdPeriph_Driver/src/stm32f4xx_dma.c ****     {
1112:../Libraries/STM32F4xx_StdPeriph_Driver/src/stm32f4xx_dma.c ****       /* Enable the selected DMA FIFO interrupts */
1113:../Libraries/STM32F4xx_StdPeriph_Driver/src/stm32f4xx_dma.c ****       DMAy_Streamx->FCR |= (uint32_t)DMA_IT_FE;
 1221              		.loc 1 1113 25 is_stmt 0 view .LVU321
 1222 0004 4369     		ldr	r3, [r0, #20]	@ _2,
 1223              	@ ../Libraries/STM32F4xx_StdPeriph_Driver/src/stm32f4xx_dma.c:1110:     if (NewState != DISABLE)
1110:../Libraries/STM32F4xx_StdPeriph_Driver/src/stm32f4xx_dma.c ****     {
 1224              		.loc 1 1110 8 view .LVU322
 1225 0006 AAB1     		cbz	r2, .L77	@ NewState,
 1226              		.loc 1 1113 7 is_stmt 1 view .LVU323
 1227              	@ ../Libraries/STM32F4xx_StdPeriph_Driver/src/stm32f4xx_dma.c:1113:       DMAy_Streamx->FCR |= (uin
 1228              		.loc 1 1113 25 is_stmt 0 view .LVU324
 1229 0008 43F08003 		orr	r3, r3, #128	@ _3, _2,
 1230              	@ ../Libraries/STM32F4xx_StdPeriph_Driver/src/stm32f4xx_dma.c:1123:   if (DMA_IT != DMA_IT_FE)
1114:../Libraries/STM32F4xx_StdPeriph_Driver/src/stm32f4xx_dma.c ****     }    
1115:../Libraries/STM32F4xx_StdPeriph_Driver/src/stm32f4xx_dma.c ****     else 
1116:../Libraries/STM32F4xx_StdPeriph_Driver/src/stm32f4xx_dma.c ****     {
1117:../Libraries/STM32F4xx_StdPeriph_Driver/src/stm32f4xx_dma.c ****       /* Disable the selected DMA FIFO interrupts */
1118:../Libraries/STM32F4xx_StdPeriph_Driver/src/stm32f4xx_dma.c ****       DMAy_Streamx->FCR &= ~(uint32_t)DMA_IT_FE;  
1119:../Libraries/STM32F4xx_StdPeriph_Driver/src/stm32f4xx_dma.c ****     }
1120:../Libraries/STM32F4xx_StdPeriph_Driver/src/stm32f4xx_dma.c ****   }
1121:../Libraries/STM32F4xx_StdPeriph_Driver/src/stm32f4xx_dma.c **** 
1122:../Libraries/STM32F4xx_StdPeriph_Driver/src/stm32f4xx_dma.c ****   /* Check if the DMA_IT parameter contains a Transfer interrupt */
1123:../Libraries/STM32F4xx_StdPeriph_Driver/src/stm32f4xx_dma.c ****   if (DMA_IT != DMA_IT_FE)
 1231              		.loc 1 1123 6 view .LVU325
 1232 000c 8029     		cmp	r1, #128	@ DMA_IT,
 1233              	@ ../Libraries/STM32F4xx_StdPeriph_Driver/src/stm32f4xx_dma.c:1113:       DMAy_Streamx->FCR |= (uin
1113:../Libraries/STM32F4xx_StdPeriph_Driver/src/stm32f4xx_dma.c ****     }    
 1234              		.loc 1 1113 25 view .LVU326
 1235 000e 4361     		str	r3, [r0, #20]	@ _3, DMAy_Streamx_18(D)->FCR
 1236              		.loc 1 1123 3 is_stmt 1 view .LVU327
 1237              	@ ../Libraries/STM32F4xx_StdPeriph_Driver/src/stm32f4xx_dma.c:1123:   if (DMA_IT != DMA_IT_FE)
 1238              		.loc 1 1123 6 is_stmt 0 view .LVU328
 1239 0010 0FD0     		beq	.L75		@,
 1240              	.L78:
1124:../Libraries/STM32F4xx_StdPeriph_Driver/src/stm32f4xx_dma.c ****   {
1125:../Libraries/STM32F4xx_StdPeriph_Driver/src/stm32f4xx_dma.c ****     if (NewState != DISABLE)
1126:../Libraries/STM32F4xx_StdPeriph_Driver/src/stm32f4xx_dma.c ****     {
1127:../Libraries/STM32F4xx_StdPeriph_Driver/src/stm32f4xx_dma.c ****       /* Enable the selected DMA transfer interrupts */
1128:../Libraries/STM32F4xx_StdPeriph_Driver/src/stm32f4xx_dma.c ****       DMAy_Streamx->CR |= (uint32_t)(DMA_IT  & TRANSFER_IT_ENABLE_MASK);
 1241              		.loc 1 1128 7 is_stmt 1 view .LVU329
 1242              	@ ../Libraries/STM32F4xx_StdPeriph_Driver/src/stm32f4xx_dma.c:1128:       DMAy_Streamx->CR |= (uint
 1243              		.loc 1 1128 24 is_stmt 0 view .LVU330
 1244 0012 0368     		ldr	r3, [r0]	@ _6, DMAy_Streamx_18(D)->CR
 1245              	@ ../Libraries/STM32F4xx_StdPeriph_Driver/src/stm32f4xx_dma.c:1128:       DMAy_Streamx->CR |= (uint
 1246              		.loc 1 1128 27 view .LVU331
 1247 0014 01F01E01 		and	r1, r1, #30	@ tmp129, DMA_IT,
ARM GAS  C:\Users\admin\AppData\Local\Temp\ccYXfAC7.s 			page 44


 1248              	.LVL38:
 1249              	@ ../Libraries/STM32F4xx_StdPeriph_Driver/src/stm32f4xx_dma.c:1128:       DMAy_Streamx->CR |= (uint
 1250              		.loc 1 1128 24 view .LVU332
 1251 0018 1943     		orrs	r1, r1, r3	@, _8, tmp129, _6
 1252 001a 0160     		str	r1, [r0]	@ _8,* DMAy_Streamx
 1253 001c 7047     		bx	lr	@
 1254              	.LVL39:
 1255              	.L76:
1123:../Libraries/STM32F4xx_StdPeriph_Driver/src/stm32f4xx_dma.c ****   {
 1256              		.loc 1 1123 3 is_stmt 1 view .LVU333
 1257              	@ ../Libraries/STM32F4xx_StdPeriph_Driver/src/stm32f4xx_dma.c:1123:   if (DMA_IT != DMA_IT_FE)
1123:../Libraries/STM32F4xx_StdPeriph_Driver/src/stm32f4xx_dma.c ****   {
 1258              		.loc 1 1123 6 is_stmt 0 view .LVU334
 1259 001e 8029     		cmp	r1, #128	@ DMA_IT,
 1260 0020 07D0     		beq	.L75		@,
1125:../Libraries/STM32F4xx_StdPeriph_Driver/src/stm32f4xx_dma.c ****     {
 1261              		.loc 1 1125 5 is_stmt 1 view .LVU335
 1262              	@ ../Libraries/STM32F4xx_StdPeriph_Driver/src/stm32f4xx_dma.c:1125:     if (NewState != DISABLE)
1125:../Libraries/STM32F4xx_StdPeriph_Driver/src/stm32f4xx_dma.c ****     {
 1263              		.loc 1 1125 8 is_stmt 0 view .LVU336
 1264 0022 002A     		cmp	r2, #0	@ NewState
 1265 0024 F5D1     		bne	.L78	@
 1266              	.L80:
1129:../Libraries/STM32F4xx_StdPeriph_Driver/src/stm32f4xx_dma.c ****     }
1130:../Libraries/STM32F4xx_StdPeriph_Driver/src/stm32f4xx_dma.c ****     else
1131:../Libraries/STM32F4xx_StdPeriph_Driver/src/stm32f4xx_dma.c ****     {
1132:../Libraries/STM32F4xx_StdPeriph_Driver/src/stm32f4xx_dma.c ****       /* Disable the selected DMA transfer interrupts */
1133:../Libraries/STM32F4xx_StdPeriph_Driver/src/stm32f4xx_dma.c ****       DMAy_Streamx->CR &= ~(uint32_t)(DMA_IT & TRANSFER_IT_ENABLE_MASK);
 1267              		.loc 1 1133 7 is_stmt 1 view .LVU337
 1268              	@ ../Libraries/STM32F4xx_StdPeriph_Driver/src/stm32f4xx_dma.c:1133:       DMAy_Streamx->CR &= ~(uin
 1269              		.loc 1 1133 24 is_stmt 0 view .LVU338
 1270 0026 0368     		ldr	r3, [r0]	@ _9, DMAy_Streamx_18(D)->CR
 1271              	@ ../Libraries/STM32F4xx_StdPeriph_Driver/src/stm32f4xx_dma.c:1133:       DMAy_Streamx->CR &= ~(uin
 1272              		.loc 1 1133 28 view .LVU339
 1273 0028 01F01E01 		and	r1, r1, #30	@ tmp130, DMA_IT,
 1274              	.LVL40:
 1275              	@ ../Libraries/STM32F4xx_StdPeriph_Driver/src/stm32f4xx_dma.c:1133:       DMAy_Streamx->CR &= ~(uin
 1276              		.loc 1 1133 24 view .LVU340
 1277 002c 23EA0101 		bic	r1, r3, r1	@ _12, _9, tmp130
 1278 0030 0160     		str	r1, [r0]	@ _12,* DMAy_Streamx
 1279              	.L75:
 1280              	@ ../Libraries/STM32F4xx_StdPeriph_Driver/src/stm32f4xx_dma.c:1136: }
1134:../Libraries/STM32F4xx_StdPeriph_Driver/src/stm32f4xx_dma.c ****     }    
1135:../Libraries/STM32F4xx_StdPeriph_Driver/src/stm32f4xx_dma.c ****   }
1136:../Libraries/STM32F4xx_StdPeriph_Driver/src/stm32f4xx_dma.c **** }
 1281              		.loc 1 1136 1 view .LVU341
 1282 0032 7047     		bx	lr	@
 1283              	.LVL41:
 1284              	.L77:
1118:../Libraries/STM32F4xx_StdPeriph_Driver/src/stm32f4xx_dma.c ****     }
 1285              		.loc 1 1118 7 is_stmt 1 view .LVU342
 1286              	@ ../Libraries/STM32F4xx_StdPeriph_Driver/src/stm32f4xx_dma.c:1118:       DMAy_Streamx->FCR &= ~(ui
1118:../Libraries/STM32F4xx_StdPeriph_Driver/src/stm32f4xx_dma.c ****     }
 1287              		.loc 1 1118 25 is_stmt 0 view .LVU343
 1288 0034 23F08003 		bic	r3, r3, #128	@ _5, _4,
 1289              	@ ../Libraries/STM32F4xx_StdPeriph_Driver/src/stm32f4xx_dma.c:1123:   if (DMA_IT != DMA_IT_FE)
1123:../Libraries/STM32F4xx_StdPeriph_Driver/src/stm32f4xx_dma.c ****   {
ARM GAS  C:\Users\admin\AppData\Local\Temp\ccYXfAC7.s 			page 45


 1290              		.loc 1 1123 6 view .LVU344
 1291 0038 8029     		cmp	r1, #128	@ DMA_IT,
 1292              	@ ../Libraries/STM32F4xx_StdPeriph_Driver/src/stm32f4xx_dma.c:1118:       DMAy_Streamx->FCR &= ~(ui
1118:../Libraries/STM32F4xx_StdPeriph_Driver/src/stm32f4xx_dma.c ****     }
 1293              		.loc 1 1118 25 view .LVU345
 1294 003a 4361     		str	r3, [r0, #20]	@ _5, DMAy_Streamx_18(D)->FCR
1123:../Libraries/STM32F4xx_StdPeriph_Driver/src/stm32f4xx_dma.c ****   {
 1295              		.loc 1 1123 3 is_stmt 1 view .LVU346
 1296              	@ ../Libraries/STM32F4xx_StdPeriph_Driver/src/stm32f4xx_dma.c:1123:   if (DMA_IT != DMA_IT_FE)
1123:../Libraries/STM32F4xx_StdPeriph_Driver/src/stm32f4xx_dma.c ****   {
 1297              		.loc 1 1123 6 is_stmt 0 view .LVU347
 1298 003c F3D1     		bne	.L80		@,
 1299 003e 7047     		bx	lr	@
 1300              		.cfi_endproc
 1301              	.LFE126:
 1302              		.size	DMA_ITConfig, .-DMA_ITConfig
 1303              		.section	.text.DMA_GetITStatus,"ax",%progbits
 1304              		.align	1
 1305              		.p2align 2,,3
 1306              		.global	DMA_GetITStatus
 1307              		.syntax unified
 1308              		.thumb
 1309              		.thumb_func
 1310              		.type	DMA_GetITStatus, %function
 1311              	DMA_GetITStatus:
 1312              	.LVL42:
 1313              	.LFB127:
1137:../Libraries/STM32F4xx_StdPeriph_Driver/src/stm32f4xx_dma.c **** 
1138:../Libraries/STM32F4xx_StdPeriph_Driver/src/stm32f4xx_dma.c **** /**
1139:../Libraries/STM32F4xx_StdPeriph_Driver/src/stm32f4xx_dma.c ****   * @brief  Checks whether the specified DMAy Streamx interrupt has occurred or not.
1140:../Libraries/STM32F4xx_StdPeriph_Driver/src/stm32f4xx_dma.c ****   * @param  DMAy_Streamx: where y can be 1 or 2 to select the DMA and x can be 0
1141:../Libraries/STM32F4xx_StdPeriph_Driver/src/stm32f4xx_dma.c ****   *          to 7 to select the DMA Stream.
1142:../Libraries/STM32F4xx_StdPeriph_Driver/src/stm32f4xx_dma.c ****   * @param  DMA_IT: specifies the DMA interrupt source to check.
1143:../Libraries/STM32F4xx_StdPeriph_Driver/src/stm32f4xx_dma.c ****   *          This parameter can be one of the following values:
1144:../Libraries/STM32F4xx_StdPeriph_Driver/src/stm32f4xx_dma.c ****   *            @arg DMA_IT_TCIFx:  Streamx transfer complete interrupt
1145:../Libraries/STM32F4xx_StdPeriph_Driver/src/stm32f4xx_dma.c ****   *            @arg DMA_IT_HTIFx:  Streamx half transfer complete interrupt
1146:../Libraries/STM32F4xx_StdPeriph_Driver/src/stm32f4xx_dma.c ****   *            @arg DMA_IT_TEIFx:  Streamx transfer error interrupt
1147:../Libraries/STM32F4xx_StdPeriph_Driver/src/stm32f4xx_dma.c ****   *            @arg DMA_IT_DMEIFx: Streamx direct mode error interrupt
1148:../Libraries/STM32F4xx_StdPeriph_Driver/src/stm32f4xx_dma.c ****   *            @arg DMA_IT_FEIFx:  Streamx FIFO error interrupt
1149:../Libraries/STM32F4xx_StdPeriph_Driver/src/stm32f4xx_dma.c ****   *         Where x can be 0 to 7 to select the DMA Stream.
1150:../Libraries/STM32F4xx_StdPeriph_Driver/src/stm32f4xx_dma.c ****   * @retval The new state of DMA_IT (SET or RESET).
1151:../Libraries/STM32F4xx_StdPeriph_Driver/src/stm32f4xx_dma.c ****   */
1152:../Libraries/STM32F4xx_StdPeriph_Driver/src/stm32f4xx_dma.c **** ITStatus DMA_GetITStatus(DMA_Stream_TypeDef* DMAy_Streamx, uint32_t DMA_IT)
1153:../Libraries/STM32F4xx_StdPeriph_Driver/src/stm32f4xx_dma.c **** {
 1314              		.loc 1 1153 1 is_stmt 1 view -0
 1315              		.cfi_startproc
 1316              		@ args = 0, pretend = 0, frame = 0
 1317              		@ frame_needed = 0, uses_anonymous_args = 0
 1318              		@ link register save eliminated.
1154:../Libraries/STM32F4xx_StdPeriph_Driver/src/stm32f4xx_dma.c ****   ITStatus bitstatus = RESET;
 1319              		.loc 1 1154 3 view .LVU349
1155:../Libraries/STM32F4xx_StdPeriph_Driver/src/stm32f4xx_dma.c ****   DMA_TypeDef* DMAy;
 1320              		.loc 1 1155 3 view .LVU350
1156:../Libraries/STM32F4xx_StdPeriph_Driver/src/stm32f4xx_dma.c ****   uint32_t tmpreg = 0, enablestatus = 0;
 1321              		.loc 1 1156 3 view .LVU351
1157:../Libraries/STM32F4xx_StdPeriph_Driver/src/stm32f4xx_dma.c **** 
1158:../Libraries/STM32F4xx_StdPeriph_Driver/src/stm32f4xx_dma.c ****   /* Check the parameters */
ARM GAS  C:\Users\admin\AppData\Local\Temp\ccYXfAC7.s 			page 46


1159:../Libraries/STM32F4xx_StdPeriph_Driver/src/stm32f4xx_dma.c ****   assert_param(IS_DMA_ALL_PERIPH(DMAy_Streamx));
 1322              		.loc 1 1159 3 view .LVU352
1160:../Libraries/STM32F4xx_StdPeriph_Driver/src/stm32f4xx_dma.c ****   assert_param(IS_DMA_GET_IT(DMA_IT));
 1323              		.loc 1 1160 3 view .LVU353
1161:../Libraries/STM32F4xx_StdPeriph_Driver/src/stm32f4xx_dma.c ****  
1162:../Libraries/STM32F4xx_StdPeriph_Driver/src/stm32f4xx_dma.c ****   /* Determine the DMA to which belongs the stream */
1163:../Libraries/STM32F4xx_StdPeriph_Driver/src/stm32f4xx_dma.c ****   if (DMAy_Streamx < DMA2_Stream0)
 1324              		.loc 1 1163 3 view .LVU354
 1325              	@ ../Libraries/STM32F4xx_StdPeriph_Driver/src/stm32f4xx_dma.c:1171:     DMAy = DMA2; 
1164:../Libraries/STM32F4xx_StdPeriph_Driver/src/stm32f4xx_dma.c ****   {
1165:../Libraries/STM32F4xx_StdPeriph_Driver/src/stm32f4xx_dma.c ****     /* DMAy_Streamx belongs to DMA1 */
1166:../Libraries/STM32F4xx_StdPeriph_Driver/src/stm32f4xx_dma.c ****     DMAy = DMA1; 
1167:../Libraries/STM32F4xx_StdPeriph_Driver/src/stm32f4xx_dma.c ****   } 
1168:../Libraries/STM32F4xx_StdPeriph_Driver/src/stm32f4xx_dma.c ****   else 
1169:../Libraries/STM32F4xx_StdPeriph_Driver/src/stm32f4xx_dma.c ****   {
1170:../Libraries/STM32F4xx_StdPeriph_Driver/src/stm32f4xx_dma.c ****     /* DMAy_Streamx belongs to DMA2 */
1171:../Libraries/STM32F4xx_StdPeriph_Driver/src/stm32f4xx_dma.c ****     DMAy = DMA2; 
 1326              		.loc 1 1171 10 is_stmt 0 view .LVU355
 1327 0000 124A     		ldr	r2, .L95	@ tmp143,
 1328 0002 134B     		ldr	r3, .L95+4	@ tmp142,
 1329              	@ ../Libraries/STM32F4xx_StdPeriph_Driver/src/stm32f4xx_dma.c:1153: {
1153:../Libraries/STM32F4xx_StdPeriph_Driver/src/stm32f4xx_dma.c ****   ITStatus bitstatus = RESET;
 1330              		.loc 1 1153 1 view .LVU356
 1331 0004 10B4     		push	{r4}	@
 1332              		.cfi_def_cfa_offset 4
 1333              		.cfi_offset 4, -4
 1334              	@ ../Libraries/STM32F4xx_StdPeriph_Driver/src/stm32f4xx_dma.c:1163:   if (DMAy_Streamx < DMA2_Strea
1163:../Libraries/STM32F4xx_StdPeriph_Driver/src/stm32f4xx_dma.c ****   {
 1335              		.loc 1 1163 6 view .LVU357
 1336 0006 134C     		ldr	r4, .L95+8	@ tmp128,
 1337              	@ ../Libraries/STM32F4xx_StdPeriph_Driver/src/stm32f4xx_dma.c:1171:     DMAy = DMA2; 
 1338              		.loc 1 1171 10 view .LVU358
 1339 0008 A042     		cmp	r0, r4	@ DMAy_Streamx, tmp128
 1340 000a 88BF     		it	hi		@
 1341 000c 1346     		movhi	r3, r2	@, DMAy, tmp143
 1342              	.LVL43:
1172:../Libraries/STM32F4xx_StdPeriph_Driver/src/stm32f4xx_dma.c ****   }
1173:../Libraries/STM32F4xx_StdPeriph_Driver/src/stm32f4xx_dma.c **** 
1174:../Libraries/STM32F4xx_StdPeriph_Driver/src/stm32f4xx_dma.c ****   /* Check if the interrupt enable bit is in the CR or FCR register */
1175:../Libraries/STM32F4xx_StdPeriph_Driver/src/stm32f4xx_dma.c ****   if ((DMA_IT & TRANSFER_IT_MASK) != (uint32_t)RESET)
 1343              		.loc 1 1175 3 is_stmt 1 view .LVU359
 1344              	@ ../Libraries/STM32F4xx_StdPeriph_Driver/src/stm32f4xx_dma.c:1175:   if ((DMA_IT & TRANSFER_IT_MAS
 1345              		.loc 1 1175 15 is_stmt 0 view .LVU360
 1346 000e 21F0F022 		bic	r2, r1, #-268374016	@ tmp129, DMA_IT,
 1347 0012 22F0C312 		bic	r2, r2, #12779715	@ tmp129, tmp129,
 1348              	@ ../Libraries/STM32F4xx_StdPeriph_Driver/src/stm32f4xx_dma.c:1175:   if ((DMA_IT & TRANSFER_IT_MAS
 1349              		.loc 1 1175 6 view .LVU361
 1350 0016 A2B1     		cbz	r2, .L87	@ tmp129,
1176:../Libraries/STM32F4xx_StdPeriph_Driver/src/stm32f4xx_dma.c ****   {
1177:../Libraries/STM32F4xx_StdPeriph_Driver/src/stm32f4xx_dma.c ****     /* Get the interrupt enable position mask in CR register */
1178:../Libraries/STM32F4xx_StdPeriph_Driver/src/stm32f4xx_dma.c ****     tmpreg = (uint32_t)((DMA_IT >> 11) & TRANSFER_IT_ENABLE_MASK);   
 1351              		.loc 1 1178 5 is_stmt 1 view .LVU362
 1352              	.LVL44:
1179:../Libraries/STM32F4xx_StdPeriph_Driver/src/stm32f4xx_dma.c ****     
1180:../Libraries/STM32F4xx_StdPeriph_Driver/src/stm32f4xx_dma.c ****     /* Check the enable bit in CR register */
1181:../Libraries/STM32F4xx_StdPeriph_Driver/src/stm32f4xx_dma.c ****     enablestatus = (uint32_t)(DMAy_Streamx->CR & tmpreg);
 1353              		.loc 1 1181 5 view .LVU363
ARM GAS  C:\Users\admin\AppData\Local\Temp\ccYXfAC7.s 			page 47


 1354              	@ ../Libraries/STM32F4xx_StdPeriph_Driver/src/stm32f4xx_dma.c:1181:     enablestatus = (uint32_t)(D
 1355              		.loc 1 1181 43 is_stmt 0 view .LVU364
 1356 0018 0068     		ldr	r0, [r0]	@ _3, DMAy_Streamx_11(D)->CR
 1357              	.LVL45:
 1358              	@ ../Libraries/STM32F4xx_StdPeriph_Driver/src/stm32f4xx_dma.c:1181:     enablestatus = (uint32_t)(D
 1359              		.loc 1 1181 18 view .LVU365
 1360 001a 00EAD120 		and	r0, r0, r1, lsr #11	@ tmp132, _3, DMA_IT,
 1361 001e 00F01E02 		and	r2, r0, #30	@ enablestatus, tmp132,
 1362              	.LVL46:
 1363              	.L88:
1182:../Libraries/STM32F4xx_StdPeriph_Driver/src/stm32f4xx_dma.c ****   }
1183:../Libraries/STM32F4xx_StdPeriph_Driver/src/stm32f4xx_dma.c ****   else 
1184:../Libraries/STM32F4xx_StdPeriph_Driver/src/stm32f4xx_dma.c ****   {
1185:../Libraries/STM32F4xx_StdPeriph_Driver/src/stm32f4xx_dma.c ****     /* Check the enable bit in FCR register */
1186:../Libraries/STM32F4xx_StdPeriph_Driver/src/stm32f4xx_dma.c ****     enablestatus = (uint32_t)(DMAy_Streamx->FCR & DMA_IT_FE); 
1187:../Libraries/STM32F4xx_StdPeriph_Driver/src/stm32f4xx_dma.c ****   }
1188:../Libraries/STM32F4xx_StdPeriph_Driver/src/stm32f4xx_dma.c ****  
1189:../Libraries/STM32F4xx_StdPeriph_Driver/src/stm32f4xx_dma.c ****   /* Check if the interrupt pending flag is in LISR or HISR */
1190:../Libraries/STM32F4xx_StdPeriph_Driver/src/stm32f4xx_dma.c ****   if ((DMA_IT & HIGH_ISR_MASK) != (uint32_t)RESET)
 1364              		.loc 1 1190 3 is_stmt 1 view .LVU366
 1365              	@ ../Libraries/STM32F4xx_StdPeriph_Driver/src/stm32f4xx_dma.c:1190:   if ((DMA_IT & HIGH_ISR_MASK) 
 1366              		.loc 1 1190 6 is_stmt 0 view .LVU367
 1367 0022 8800     		lsls	r0, r1, #2	@, DMA_IT,
1191:../Libraries/STM32F4xx_StdPeriph_Driver/src/stm32f4xx_dma.c ****   {
1192:../Libraries/STM32F4xx_StdPeriph_Driver/src/stm32f4xx_dma.c ****     /* Get DMAy HISR register value */
1193:../Libraries/STM32F4xx_StdPeriph_Driver/src/stm32f4xx_dma.c ****     tmpreg = DMAy->HISR ;
 1368              		.loc 1 1193 5 is_stmt 1 view .LVU368
 1369              	@ ../Libraries/STM32F4xx_StdPeriph_Driver/src/stm32f4xx_dma.c:1193:     tmpreg = DMAy->HISR ;
 1370              		.loc 1 1193 12 is_stmt 0 view .LVU369
 1371 0024 4CBF     		ite	mi
 1372 0026 5868     		ldrmi	r0, [r3, #4]	@ tmpreg, DMAy_8->HISR
 1373              	.LVL47:
1194:../Libraries/STM32F4xx_StdPeriph_Driver/src/stm32f4xx_dma.c ****   }
1195:../Libraries/STM32F4xx_StdPeriph_Driver/src/stm32f4xx_dma.c ****   else
1196:../Libraries/STM32F4xx_StdPeriph_Driver/src/stm32f4xx_dma.c ****   {
1197:../Libraries/STM32F4xx_StdPeriph_Driver/src/stm32f4xx_dma.c ****     /* Get DMAy LISR register value */
1198:../Libraries/STM32F4xx_StdPeriph_Driver/src/stm32f4xx_dma.c ****     tmpreg = DMAy->LISR ;
 1374              		.loc 1 1198 5 is_stmt 1 view .LVU370
 1375              	@ ../Libraries/STM32F4xx_StdPeriph_Driver/src/stm32f4xx_dma.c:1198:     tmpreg = DMAy->LISR ;
 1376              		.loc 1 1198 12 is_stmt 0 view .LVU371
 1377 0028 1868     		ldrpl	r0, [r3]	@ tmpreg, DMAy_8->LISR
 1378              	.LVL48:
1199:../Libraries/STM32F4xx_StdPeriph_Driver/src/stm32f4xx_dma.c ****   } 
1200:../Libraries/STM32F4xx_StdPeriph_Driver/src/stm32f4xx_dma.c **** 
1201:../Libraries/STM32F4xx_StdPeriph_Driver/src/stm32f4xx_dma.c ****   /* mask all reserved bits */
1202:../Libraries/STM32F4xx_StdPeriph_Driver/src/stm32f4xx_dma.c ****   tmpreg &= (uint32_t)RESERVED_MASK;
 1379              		.loc 1 1202 3 is_stmt 1 view .LVU372
1203:../Libraries/STM32F4xx_StdPeriph_Driver/src/stm32f4xx_dma.c **** 
1204:../Libraries/STM32F4xx_StdPeriph_Driver/src/stm32f4xx_dma.c ****   /* Check the status of the specified DMA interrupt */
1205:../Libraries/STM32F4xx_StdPeriph_Driver/src/stm32f4xx_dma.c ****   if (((tmpreg & DMA_IT) != (uint32_t)RESET) && (enablestatus != (uint32_t)RESET))
 1380              		.loc 1 1205 3 view .LVU373
 1381              	@ ../Libraries/STM32F4xx_StdPeriph_Driver/src/stm32f4xx_dma.c:1205:   if (((tmpreg & DMA_IT) != (ui
 1382              		.loc 1 1205 16 is_stmt 0 view .LVU374
 1383 002a 0840     		ands	r0, r0, r1	@, tmp134, tmpreg, DMA_IT
 1384              	.LVL49:
 1385              		.loc 1 1205 16 view .LVU375
 1386 002c 20F0F020 		bic	r0, r0, #-268374016	@ tmp135, tmp134,
ARM GAS  C:\Users\admin\AppData\Local\Temp\ccYXfAC7.s 			page 48


 1387 0030 20F08210 		bic	r0, r0, #8519810	@ tmp135, tmp135,
 1388              	@ ../Libraries/STM32F4xx_StdPeriph_Driver/src/stm32f4xx_dma.c:1205:   if (((tmpreg & DMA_IT) != (ui
 1389              		.loc 1 1205 6 view .LVU376
 1390 0034 10B1     		cbz	r0, .L91	@ tmp135,
 1391              	@ ../Libraries/STM32F4xx_StdPeriph_Driver/src/stm32f4xx_dma.c:1213:     bitstatus = RESET;
1206:../Libraries/STM32F4xx_StdPeriph_Driver/src/stm32f4xx_dma.c ****   {
1207:../Libraries/STM32F4xx_StdPeriph_Driver/src/stm32f4xx_dma.c ****     /* DMA_IT is set */
1208:../Libraries/STM32F4xx_StdPeriph_Driver/src/stm32f4xx_dma.c ****     bitstatus = SET;
1209:../Libraries/STM32F4xx_StdPeriph_Driver/src/stm32f4xx_dma.c ****   }
1210:../Libraries/STM32F4xx_StdPeriph_Driver/src/stm32f4xx_dma.c ****   else
1211:../Libraries/STM32F4xx_StdPeriph_Driver/src/stm32f4xx_dma.c ****   {
1212:../Libraries/STM32F4xx_StdPeriph_Driver/src/stm32f4xx_dma.c ****     /* DMA_IT is reset */
1213:../Libraries/STM32F4xx_StdPeriph_Driver/src/stm32f4xx_dma.c ****     bitstatus = RESET;
 1392              		.loc 1 1213 15 discriminator 1 view .LVU377
 1393 0036 101E     		subs	r0, r2, #0	@ <retval>, enablestatus,
 1394 0038 18BF     		it	ne
 1395 003a 0120     		movne	r0, #1	@ <retval>,
 1396              	.L91:
 1397              	.LVL50:
1214:../Libraries/STM32F4xx_StdPeriph_Driver/src/stm32f4xx_dma.c ****   }
1215:../Libraries/STM32F4xx_StdPeriph_Driver/src/stm32f4xx_dma.c **** 
1216:../Libraries/STM32F4xx_StdPeriph_Driver/src/stm32f4xx_dma.c ****   /* Return the DMA_IT status */
1217:../Libraries/STM32F4xx_StdPeriph_Driver/src/stm32f4xx_dma.c ****   return  bitstatus;
 1398              		.loc 1 1217 3 is_stmt 1 view .LVU378
 1399              	@ ../Libraries/STM32F4xx_StdPeriph_Driver/src/stm32f4xx_dma.c:1218: }
1218:../Libraries/STM32F4xx_StdPeriph_Driver/src/stm32f4xx_dma.c **** }
 1400              		.loc 1 1218 1 is_stmt 0 view .LVU379
 1401 003c 5DF8044B 		ldr	r4, [sp], #4	@,
 1402              		.cfi_remember_state
 1403              		.cfi_restore 4
 1404              		.cfi_def_cfa_offset 0
 1405 0040 7047     		bx	lr	@
 1406              	.LVL51:
 1407              	.L87:
 1408              		.cfi_restore_state
1186:../Libraries/STM32F4xx_StdPeriph_Driver/src/stm32f4xx_dma.c ****   }
 1409              		.loc 1 1186 5 is_stmt 1 view .LVU380
 1410              	@ ../Libraries/STM32F4xx_StdPeriph_Driver/src/stm32f4xx_dma.c:1186:     enablestatus = (uint32_t)(D
1186:../Libraries/STM32F4xx_StdPeriph_Driver/src/stm32f4xx_dma.c ****   }
 1411              		.loc 1 1186 43 is_stmt 0 view .LVU381
 1412 0042 4269     		ldr	r2, [r0, #20]	@ _4, DMAy_Streamx_11(D)->FCR
 1413              	@ ../Libraries/STM32F4xx_StdPeriph_Driver/src/stm32f4xx_dma.c:1186:     enablestatus = (uint32_t)(D
1186:../Libraries/STM32F4xx_StdPeriph_Driver/src/stm32f4xx_dma.c ****   }
 1414              		.loc 1 1186 18 view .LVU382
 1415 0044 02F08002 		and	r2, r2, #128	@ enablestatus, _4,
 1416              	.LVL52:
1186:../Libraries/STM32F4xx_StdPeriph_Driver/src/stm32f4xx_dma.c ****   }
 1417              		.loc 1 1186 18 view .LVU383
 1418 0048 EBE7     		b	.L88		@
 1419              	.L96:
 1420 004a 00BF     		.align	2
 1421              	.L95:
 1422 004c 00640240 		.word	1073898496
 1423 0050 00600240 		.word	1073897472
 1424 0054 0F640240 		.word	1073898511
 1425              		.cfi_endproc
 1426              	.LFE127:
ARM GAS  C:\Users\admin\AppData\Local\Temp\ccYXfAC7.s 			page 49


 1427              		.size	DMA_GetITStatus, .-DMA_GetITStatus
 1428              		.section	.text.DMA_ClearITPendingBit,"ax",%progbits
 1429              		.align	1
 1430              		.p2align 2,,3
 1431              		.global	DMA_ClearITPendingBit
 1432              		.syntax unified
 1433              		.thumb
 1434              		.thumb_func
 1435              		.type	DMA_ClearITPendingBit, %function
 1436              	DMA_ClearITPendingBit:
 1437              	.LFB130:
 1438              		.cfi_startproc
 1439              		@ args = 0, pretend = 0, frame = 0
 1440              		@ frame_needed = 0, uses_anonymous_args = 0
 1441              		@ link register save eliminated.
 1442 0000 10B4     		push	{r4}	@
 1443              		.cfi_def_cfa_offset 4
 1444              		.cfi_offset 4, -4
 1445 0002 094B     		ldr	r3, .L103	@ tmp125,
 1446 0004 094C     		ldr	r4, .L103+4	@ tmp119,
 1447 0006 0A4A     		ldr	r2, .L103+8	@ tmp126,
 1448 0008 A042     		cmp	r0, r4	@ tmp127, tmp119
 1449 000a 88BF     		it	hi		@
 1450 000c 1346     		movhi	r3, r2	@, DMAy, tmp126
 1451 000e 11F0005F 		tst	r1, #536870912	@ DMA_IT,
 1452 0012 21F0F021 		bic	r1, r1, #-268374016	@ _6, DMA_IT,
 1453 0016 21F08211 		bic	r1, r1, #8519810	@ _6, _6,
 1454 001a 5DF8044B 		ldr	r4, [sp], #4	@,
 1455              		.cfi_restore 4
 1456              		.cfi_def_cfa_offset 0
 1457 001e 14BF     		ite	ne
 1458 0020 D960     		strne	r1, [r3, #12]	@ _6, DMAy_7->HIFCR
 1459 0022 9960     		streq	r1, [r3, #8]	@ _8, DMAy_7->LIFCR
 1460 0024 7047     		bx	lr	@
 1461              	.L104:
 1462 0026 00BF     		.align	2
 1463              	.L103:
 1464 0028 00600240 		.word	1073897472
 1465 002c 0F640240 		.word	1073898511
 1466 0030 00640240 		.word	1073898496
 1467              		.cfi_endproc
 1468              	.LFE130:
 1469              		.size	DMA_ClearITPendingBit, .-DMA_ClearITPendingBit
 1470              		.text
 1471              	.Letext0:
 1472              		.file 2 "c:\\program files (x86)\\gnu arm embedded toolchain\\10 2021.10\\arm-none-eabi\\include\\
 1473              		.file 3 "c:\\program files (x86)\\gnu arm embedded toolchain\\10 2021.10\\arm-none-eabi\\include\\
 1474              		.file 4 "../Libraries/CMSIS/ST/STM32F4xx/Include/stm32f4xx.h"
 1475              		.file 5 "../Libraries/STM32F4xx_StdPeriph_Driver/inc/stm32f4xx_dma.h"