ARM GAS  C:\Users\admin\AppData\Local\Temp\ccSiiuKl.s 			page 1


   1              		.cpu cortex-m4
   2              		.arch armv7e-m
   3              		.fpu fpv4-sp-d16
   4              		.eabi_attribute 27, 1	@ Tag_ABI_HardFP_use
   5              		.eabi_attribute 28, 1	@ Tag_ABI_VFP_args
   6              		.eabi_attribute 23, 1	@ Tag_ABI_FP_number_model
   7              		.eabi_attribute 24, 1	@ Tag_ABI_align8_needed
   8              		.eabi_attribute 25, 1	@ Tag_ABI_align8_preserved
   9              		.eabi_attribute 26, 1	@ Tag_ABI_enum_size
  10              		.eabi_attribute 30, 2	@ Tag_ABI_optimization_goals
  11              		.eabi_attribute 34, 1	@ Tag_CPU_unaligned_access
  12              		.eabi_attribute 18, 4	@ Tag_ABI_PCS_wchar_t
  13              		.file	"stm32f4xx_hash_sha1.c"
  14              	@ GNU C89 (GNU Arm Embedded Toolchain 10.3-2021.10) version 10.3.1 20210824 (release) (arm-none-eab
  15              	@	compiled by GNU C version 7.3-win32 20180312, GMP version 6.1.0, MPFR version 3.1.4, MPC version 
  16              	
  17              	@ GGC heuristics: --param ggc-min-expand=100 --param ggc-min-heapsize=131072
  18              	@ options passed:  -I . -I . -I ../Utilities/STM32F4-Discovery/
  19              	@ -I ../Libraries/STM32_USB_Device_Library/Class/audio/inc/
  20              	@ -I ../Libraries/STM32_USB_Device_Library/Core/inc/
  21              	@ -I ../Libraries/STM32_USB_OTG_Driver/inc/
  22              	@ -I ../Utilities/STM32F4-Discovery/
  23              	@ -I ../Libraries/STM32F4xx_StdPeriph_Driver/inc/
  24              	@ -I ../Utilities/STM32F4-Discovery/
  25              	@ -I ../Libraries/CMSIS/ST/STM32F4xx/Include/
  26              	@ -I ../Libraries/CMSIS/Include/ -imultilib thumb/v7e-m+fp/hard
  27              	@ -iprefix c:\program files (x86)\gnu arm embedded toolchain\10 2021.10\bin\../lib/gcc/arm-none-eab
  28              	@ -isysroot c:\program files (x86)\gnu arm embedded toolchain\10 2021.10\bin\../arm-none-eabi
  29              	@ -MD out/stm32f4xx_hash_sha1.d -MF out/stm32f4xx_hash_sha1.d -MP
  30              	@ -MQ out/stm32f4xx_hash_sha1.o -D__USES_INITFINI__ -D STM32F4XX
  31              	@ -D __VFP_FP__ -D USE_USB_OTG_FS
  32              	@ ../Libraries/STM32F4xx_StdPeriph_Driver/src/stm32f4xx_hash_sha1.c
  33              	@ -mcpu=cortex-m4 -mthumb -mfloat-abi=hard -mfpu=fpv4-sp-d16
  34              	@ -mlibarch=armv7e-m+fp -march=armv7e-m+fp
  35              	@ -auxbase-strip out/stm32f4xx_hash_sha1.o -g -ggdb3 -O3 -Wall
  36              	@ -Wstrict-prototypes -Wextra -std=gnu90 -ffast-math -ffunction-sections
  37              	@ -fdata-sections -fverbose-asm
  38              	@ options enabled:  -faggressive-loop-optimizations -falign-functions
  39              	@ -falign-jumps -falign-labels -falign-loops -fallocation-dce
  40              	@ -fassociative-math -fauto-inc-dec -fbranch-count-reg -fcaller-saves
  41              	@ -fcombine-stack-adjustments -fcompare-elim -fcprop-registers
  42              	@ -fcrossjumping -fcse-follow-jumps -fcx-limited-range -fdata-sections
  43              	@ -fdefer-pop -fdelete-null-pointer-checks -fdevirtualize
  44              	@ -fdevirtualize-speculatively -fdwarf2-cfi-asm -fearly-inlining
  45              	@ -feliminate-unused-debug-symbols -feliminate-unused-debug-types
  46              	@ -fexpensive-optimizations -ffinite-math-only -fforward-propagate
  47              	@ -ffp-int-builtin-inexact -ffunction-cse -ffunction-sections -fgcse
  48              	@ -fgcse-after-reload -fgcse-lm -fgnu-unique -fguess-branch-probability
  49              	@ -fhoist-adjacent-loads -fident -fif-conversion -fif-conversion2
  50              	@ -findirect-inlining -finline -finline-atomics -finline-functions
  51              	@ -finline-functions-called-once -finline-small-functions -fipa-bit-cp
  52              	@ -fipa-cp -fipa-cp-clone -fipa-icf -fipa-icf-functions -fipa-icf-variables
  53              	@ -fipa-profile -fipa-pure-const -fipa-ra -fipa-reference
  54              	@ -fipa-reference-addressable -fipa-sra -fipa-stack-alignment -fipa-vrp
  55              	@ -fira-hoist-pressure -fira-share-save-slots -fira-share-spill-slots
  56              	@ -fisolate-erroneous-paths-dereference -fivopts -fkeep-static-consts
  57              	@ -fleading-underscore -flifetime-dse -floop-interchange
ARM GAS  C:\Users\admin\AppData\Local\Temp\ccSiiuKl.s 			page 2


  58              	@ -floop-unroll-and-jam -flra-remat -fmerge-constants -fmerge-debug-strings
  59              	@ -fmove-loop-invariants -fomit-frame-pointer -foptimize-sibling-calls
  60              	@ -foptimize-strlen -fpartial-inlining -fpeel-loops -fpeephole -fpeephole2
  61              	@ -fplt -fpredictive-commoning -fprefetch-loop-arrays -freciprocal-math
  62              	@ -freg-struct-return -freorder-blocks -freorder-functions
  63              	@ -frerun-cse-after-loop -fsched-critical-path-heuristic
  64              	@ -fsched-dep-count-heuristic -fsched-group-heuristic -fsched-interblock
  65              	@ -fsched-last-insn-heuristic -fsched-pressure -fsched-rank-heuristic
  66              	@ -fsched-spec -fsched-spec-insn-heuristic -fsched-stalled-insns-dep
  67              	@ -fschedule-insns -fschedule-insns2 -fsection-anchors
  68              	@ -fsemantic-interposition -fshow-column -fshrink-wrap
  69              	@ -fshrink-wrap-separate -fsplit-ivs-in-unroller -fsplit-loops
  70              	@ -fsplit-paths -fsplit-wide-types -fssa-backprop -fssa-phiopt -fstdarg-opt
  71              	@ -fstore-merging -fstrict-aliasing -fstrict-volatile-bitfields
  72              	@ -fsync-libcalls -fthread-jumps -ftoplevel-reorder -ftree-bit-ccp
  73              	@ -ftree-builtin-call-dce -ftree-ccp -ftree-ch -ftree-coalesce-vars
  74              	@ -ftree-copy-prop -ftree-cselim -ftree-dce -ftree-dominator-opts
  75              	@ -ftree-dse -ftree-forwprop -ftree-fre -ftree-loop-distribute-patterns
  76              	@ -ftree-loop-distribution -ftree-loop-if-convert -ftree-loop-im
  77              	@ -ftree-loop-ivcanon -ftree-loop-optimize -ftree-loop-vectorize
  78              	@ -ftree-parallelize-loops= -ftree-partial-pre -ftree-phiprop -ftree-pre
  79              	@ -ftree-pta -ftree-reassoc -ftree-scev-cprop -ftree-sink
  80              	@ -ftree-slp-vectorize -ftree-slsr -ftree-sra -ftree-switch-conversion
  81              	@ -ftree-tail-merge -ftree-ter -ftree-vrp -funit-at-a-time
  82              	@ -funsafe-math-optimizations -funswitch-loops -fvar-tracking
  83              	@ -fvar-tracking-assignments -fverbose-asm -fversion-loops-for-strides
  84              	@ -fzero-initialized-in-bss -masm-syntax-unified -mbe32 -mlittle-endian
  85              	@ -mpic-data-is-text-relative -msched-prolog -mthumb -munaligned-access
  86              	@ -mvectorize-with-neon-quad
  87              	
  88              		.text
  89              	.Ltext0:
  90              		.cfi_sections	.debug_frame
  91              		.section	.text.HASH_SHA1,"ax",%progbits
  92              		.align	1
  93              		.p2align 2,,3
  94              		.global	HASH_SHA1
  95              		.syntax unified
  96              		.thumb
  97              		.thumb_func
  98              		.type	HASH_SHA1, %function
  99              	HASH_SHA1:
 100              	.LVL0:
 101              	.LFB110:
 102              		.file 1 "../Libraries/STM32F4xx_StdPeriph_Driver/src/stm32f4xx_hash_sha1.c"
   1:../Libraries/STM32F4xx_StdPeriph_Driver/src/stm32f4xx_hash_sha1.c **** /**
   2:../Libraries/STM32F4xx_StdPeriph_Driver/src/stm32f4xx_hash_sha1.c ****   ******************************************************************************
   3:../Libraries/STM32F4xx_StdPeriph_Driver/src/stm32f4xx_hash_sha1.c ****   * @file    stm32f4xx_hash_sha1.c
   4:../Libraries/STM32F4xx_StdPeriph_Driver/src/stm32f4xx_hash_sha1.c ****   * @author  MCD Application Team
   5:../Libraries/STM32F4xx_StdPeriph_Driver/src/stm32f4xx_hash_sha1.c ****   * @version V1.0.0
   6:../Libraries/STM32F4xx_StdPeriph_Driver/src/stm32f4xx_hash_sha1.c ****   * @date    30-September-2011
   7:../Libraries/STM32F4xx_StdPeriph_Driver/src/stm32f4xx_hash_sha1.c ****   * @brief   This file provides high level functions to compute the HASH SHA1 and
   8:../Libraries/STM32F4xx_StdPeriph_Driver/src/stm32f4xx_hash_sha1.c ****   *          HMAC SHA1 Digest of an input message.
   9:../Libraries/STM32F4xx_StdPeriph_Driver/src/stm32f4xx_hash_sha1.c ****   *          It uses the stm32f4xx_hash.c/.h drivers to access the STM32F4xx HASH
  10:../Libraries/STM32F4xx_StdPeriph_Driver/src/stm32f4xx_hash_sha1.c ****   *          peripheral.
  11:../Libraries/STM32F4xx_StdPeriph_Driver/src/stm32f4xx_hash_sha1.c ****   *
  12:../Libraries/STM32F4xx_StdPeriph_Driver/src/stm32f4xx_hash_sha1.c ****   *  @verbatim
ARM GAS  C:\Users\admin\AppData\Local\Temp\ccSiiuKl.s 			page 3


  13:../Libraries/STM32F4xx_StdPeriph_Driver/src/stm32f4xx_hash_sha1.c ****   * 
  14:../Libraries/STM32F4xx_StdPeriph_Driver/src/stm32f4xx_hash_sha1.c ****   *          ===================================================================
  15:../Libraries/STM32F4xx_StdPeriph_Driver/src/stm32f4xx_hash_sha1.c ****   *                                   How to use this driver
  16:../Libraries/STM32F4xx_StdPeriph_Driver/src/stm32f4xx_hash_sha1.c ****   *          ===================================================================
  17:../Libraries/STM32F4xx_StdPeriph_Driver/src/stm32f4xx_hash_sha1.c ****   *          1. Enable The HASH controller clock using 
  18:../Libraries/STM32F4xx_StdPeriph_Driver/src/stm32f4xx_hash_sha1.c ****   *            RCC_AHB2PeriphClockCmd(RCC_AHB2Periph_HASH, ENABLE); function.
  19:../Libraries/STM32F4xx_StdPeriph_Driver/src/stm32f4xx_hash_sha1.c ****   *
  20:../Libraries/STM32F4xx_StdPeriph_Driver/src/stm32f4xx_hash_sha1.c ****   *          2. Calculate the HASH SHA1 Digest using HASH_SHA1() function.
  21:../Libraries/STM32F4xx_StdPeriph_Driver/src/stm32f4xx_hash_sha1.c ****   *
  22:../Libraries/STM32F4xx_StdPeriph_Driver/src/stm32f4xx_hash_sha1.c ****   *          3. Calculate the HMAC SHA1 Digest using HMAC_SHA1() function.
  23:../Libraries/STM32F4xx_StdPeriph_Driver/src/stm32f4xx_hash_sha1.c ****   *
  24:../Libraries/STM32F4xx_StdPeriph_Driver/src/stm32f4xx_hash_sha1.c ****   *  @endverbatim
  25:../Libraries/STM32F4xx_StdPeriph_Driver/src/stm32f4xx_hash_sha1.c ****   *
  26:../Libraries/STM32F4xx_StdPeriph_Driver/src/stm32f4xx_hash_sha1.c ****   ******************************************************************************
  27:../Libraries/STM32F4xx_StdPeriph_Driver/src/stm32f4xx_hash_sha1.c ****   * @attention
  28:../Libraries/STM32F4xx_StdPeriph_Driver/src/stm32f4xx_hash_sha1.c ****   *
  29:../Libraries/STM32F4xx_StdPeriph_Driver/src/stm32f4xx_hash_sha1.c ****   * THE PRESENT FIRMWARE WHICH IS FOR GUIDANCE ONLY AIMS AT PROVIDING CUSTOMERS
  30:../Libraries/STM32F4xx_StdPeriph_Driver/src/stm32f4xx_hash_sha1.c ****   * WITH CODING INFORMATION REGARDING THEIR PRODUCTS IN ORDER FOR THEM TO SAVE
  31:../Libraries/STM32F4xx_StdPeriph_Driver/src/stm32f4xx_hash_sha1.c ****   * TIME. AS A RESULT, STMICROELECTRONICS SHALL NOT BE HELD LIABLE FOR ANY
  32:../Libraries/STM32F4xx_StdPeriph_Driver/src/stm32f4xx_hash_sha1.c ****   * DIRECT, INDIRECT OR CONSEQUENTIAL DAMAGES WITH RESPECT TO ANY CLAIMS ARISING
  33:../Libraries/STM32F4xx_StdPeriph_Driver/src/stm32f4xx_hash_sha1.c ****   * FROM THE CONTENT OF SUCH FIRMWARE AND/OR THE USE MADE BY CUSTOMERS OF THE
  34:../Libraries/STM32F4xx_StdPeriph_Driver/src/stm32f4xx_hash_sha1.c ****   * CODING INFORMATION CONTAINED HEREIN IN CONNECTION WITH THEIR PRODUCTS.
  35:../Libraries/STM32F4xx_StdPeriph_Driver/src/stm32f4xx_hash_sha1.c ****   *
  36:../Libraries/STM32F4xx_StdPeriph_Driver/src/stm32f4xx_hash_sha1.c ****   * <h2><center>&copy; COPYRIGHT 2011 STMicroelectronics</center></h2>
  37:../Libraries/STM32F4xx_StdPeriph_Driver/src/stm32f4xx_hash_sha1.c ****   ******************************************************************************
  38:../Libraries/STM32F4xx_StdPeriph_Driver/src/stm32f4xx_hash_sha1.c ****   */
  39:../Libraries/STM32F4xx_StdPeriph_Driver/src/stm32f4xx_hash_sha1.c **** 
  40:../Libraries/STM32F4xx_StdPeriph_Driver/src/stm32f4xx_hash_sha1.c **** /* Includes ------------------------------------------------------------------*/
  41:../Libraries/STM32F4xx_StdPeriph_Driver/src/stm32f4xx_hash_sha1.c **** #include "stm32f4xx_hash.h"
  42:../Libraries/STM32F4xx_StdPeriph_Driver/src/stm32f4xx_hash_sha1.c **** 
  43:../Libraries/STM32F4xx_StdPeriph_Driver/src/stm32f4xx_hash_sha1.c **** /** @addtogroup STM32F4xx_StdPeriph_Driver
  44:../Libraries/STM32F4xx_StdPeriph_Driver/src/stm32f4xx_hash_sha1.c ****   * @{
  45:../Libraries/STM32F4xx_StdPeriph_Driver/src/stm32f4xx_hash_sha1.c ****   */
  46:../Libraries/STM32F4xx_StdPeriph_Driver/src/stm32f4xx_hash_sha1.c **** 
  47:../Libraries/STM32F4xx_StdPeriph_Driver/src/stm32f4xx_hash_sha1.c **** /** @defgroup HASH 
  48:../Libraries/STM32F4xx_StdPeriph_Driver/src/stm32f4xx_hash_sha1.c ****   * @brief HASH driver modules
  49:../Libraries/STM32F4xx_StdPeriph_Driver/src/stm32f4xx_hash_sha1.c ****   * @{
  50:../Libraries/STM32F4xx_StdPeriph_Driver/src/stm32f4xx_hash_sha1.c ****   */
  51:../Libraries/STM32F4xx_StdPeriph_Driver/src/stm32f4xx_hash_sha1.c **** 
  52:../Libraries/STM32F4xx_StdPeriph_Driver/src/stm32f4xx_hash_sha1.c **** /* Private typedef -----------------------------------------------------------*/
  53:../Libraries/STM32F4xx_StdPeriph_Driver/src/stm32f4xx_hash_sha1.c **** /* Private define ------------------------------------------------------------*/
  54:../Libraries/STM32F4xx_StdPeriph_Driver/src/stm32f4xx_hash_sha1.c **** #define SHA1BUSY_TIMEOUT    ((uint32_t) 0x00010000)
  55:../Libraries/STM32F4xx_StdPeriph_Driver/src/stm32f4xx_hash_sha1.c **** 
  56:../Libraries/STM32F4xx_StdPeriph_Driver/src/stm32f4xx_hash_sha1.c **** /* Private macro -------------------------------------------------------------*/
  57:../Libraries/STM32F4xx_StdPeriph_Driver/src/stm32f4xx_hash_sha1.c **** /* Private variables ---------------------------------------------------------*/
  58:../Libraries/STM32F4xx_StdPeriph_Driver/src/stm32f4xx_hash_sha1.c **** /* Private function prototypes -----------------------------------------------*/
  59:../Libraries/STM32F4xx_StdPeriph_Driver/src/stm32f4xx_hash_sha1.c **** /* Private functions ---------------------------------------------------------*/
  60:../Libraries/STM32F4xx_StdPeriph_Driver/src/stm32f4xx_hash_sha1.c **** 
  61:../Libraries/STM32F4xx_StdPeriph_Driver/src/stm32f4xx_hash_sha1.c **** /** @defgroup HASH_Private_Functions
  62:../Libraries/STM32F4xx_StdPeriph_Driver/src/stm32f4xx_hash_sha1.c ****   * @{
  63:../Libraries/STM32F4xx_StdPeriph_Driver/src/stm32f4xx_hash_sha1.c ****   */ 
  64:../Libraries/STM32F4xx_StdPeriph_Driver/src/stm32f4xx_hash_sha1.c **** 
  65:../Libraries/STM32F4xx_StdPeriph_Driver/src/stm32f4xx_hash_sha1.c **** /** @defgroup HASH_Group6 High Level SHA1 functions
  66:../Libraries/STM32F4xx_StdPeriph_Driver/src/stm32f4xx_hash_sha1.c ****  *  @brief   High Level SHA1 Hash and HMAC functions 
  67:../Libraries/STM32F4xx_StdPeriph_Driver/src/stm32f4xx_hash_sha1.c ****  *
  68:../Libraries/STM32F4xx_StdPeriph_Driver/src/stm32f4xx_hash_sha1.c **** @verbatim   
  69:../Libraries/STM32F4xx_StdPeriph_Driver/src/stm32f4xx_hash_sha1.c ****  ===============================================================================
ARM GAS  C:\Users\admin\AppData\Local\Temp\ccSiiuKl.s 			page 4


  70:../Libraries/STM32F4xx_StdPeriph_Driver/src/stm32f4xx_hash_sha1.c ****                           High Level SHA1 Hash and HMAC functions
  71:../Libraries/STM32F4xx_StdPeriph_Driver/src/stm32f4xx_hash_sha1.c ****  ===============================================================================
  72:../Libraries/STM32F4xx_StdPeriph_Driver/src/stm32f4xx_hash_sha1.c **** 
  73:../Libraries/STM32F4xx_StdPeriph_Driver/src/stm32f4xx_hash_sha1.c **** 
  74:../Libraries/STM32F4xx_StdPeriph_Driver/src/stm32f4xx_hash_sha1.c **** @endverbatim
  75:../Libraries/STM32F4xx_StdPeriph_Driver/src/stm32f4xx_hash_sha1.c ****   * @{
  76:../Libraries/STM32F4xx_StdPeriph_Driver/src/stm32f4xx_hash_sha1.c ****   */
  77:../Libraries/STM32F4xx_StdPeriph_Driver/src/stm32f4xx_hash_sha1.c **** 
  78:../Libraries/STM32F4xx_StdPeriph_Driver/src/stm32f4xx_hash_sha1.c **** /**
  79:../Libraries/STM32F4xx_StdPeriph_Driver/src/stm32f4xx_hash_sha1.c ****   * @brief  Compute the HASH SHA1 digest.
  80:../Libraries/STM32F4xx_StdPeriph_Driver/src/stm32f4xx_hash_sha1.c ****   * @param  Input: pointer to the Input buffer to be treated.
  81:../Libraries/STM32F4xx_StdPeriph_Driver/src/stm32f4xx_hash_sha1.c ****   * @param  Ilen: length of the Input buffer.
  82:../Libraries/STM32F4xx_StdPeriph_Driver/src/stm32f4xx_hash_sha1.c ****   * @param  Output: the returned digest
  83:../Libraries/STM32F4xx_StdPeriph_Driver/src/stm32f4xx_hash_sha1.c ****   * @retval An ErrorStatus enumeration value:
  84:../Libraries/STM32F4xx_StdPeriph_Driver/src/stm32f4xx_hash_sha1.c ****   *          - SUCCESS: digest computation done
  85:../Libraries/STM32F4xx_StdPeriph_Driver/src/stm32f4xx_hash_sha1.c ****   *          - ERROR: digest computation failed
  86:../Libraries/STM32F4xx_StdPeriph_Driver/src/stm32f4xx_hash_sha1.c ****   */
  87:../Libraries/STM32F4xx_StdPeriph_Driver/src/stm32f4xx_hash_sha1.c **** ErrorStatus HASH_SHA1(uint8_t *Input, uint32_t Ilen, uint8_t Output[20])
  88:../Libraries/STM32F4xx_StdPeriph_Driver/src/stm32f4xx_hash_sha1.c **** {
 103              		.loc 1 88 1 view -0
 104              		.cfi_startproc
 105              		@ args = 0, pretend = 0, frame = 48
 106              		@ frame_needed = 0, uses_anonymous_args = 0
 107              		.loc 1 88 1 is_stmt 0 view .LVU1
 108 0000 F0B5     		push	{r4, r5, r6, r7, lr}	@
 109              		.cfi_def_cfa_offset 20
 110              		.cfi_offset 4, -20
 111              		.cfi_offset 5, -16
 112              		.cfi_offset 6, -12
 113              		.cfi_offset 7, -8
 114              		.cfi_offset 14, -4
 115              	@ ../Libraries/STM32F4xx_StdPeriph_Driver/src/stm32f4xx_hash_sha1.c:100:   nbvalidbitsdata = 8 * (I
  89:../Libraries/STM32F4xx_StdPeriph_Driver/src/stm32f4xx_hash_sha1.c ****   HASH_InitTypeDef SHA1_HASH_InitStructure;
  90:../Libraries/STM32F4xx_StdPeriph_Driver/src/stm32f4xx_hash_sha1.c ****   HASH_MsgDigest SHA1_MessageDigest;
  91:../Libraries/STM32F4xx_StdPeriph_Driver/src/stm32f4xx_hash_sha1.c ****   __IO uint16_t nbvalidbitsdata = 0;
  92:../Libraries/STM32F4xx_StdPeriph_Driver/src/stm32f4xx_hash_sha1.c ****   uint32_t i = 0;
  93:../Libraries/STM32F4xx_StdPeriph_Driver/src/stm32f4xx_hash_sha1.c ****   __IO uint32_t counter = 0;
  94:../Libraries/STM32F4xx_StdPeriph_Driver/src/stm32f4xx_hash_sha1.c ****   uint32_t busystatus = 0;
  95:../Libraries/STM32F4xx_StdPeriph_Driver/src/stm32f4xx_hash_sha1.c ****   ErrorStatus status = SUCCESS;
  96:../Libraries/STM32F4xx_StdPeriph_Driver/src/stm32f4xx_hash_sha1.c ****   uint32_t inputaddr  = (uint32_t)Input;
  97:../Libraries/STM32F4xx_StdPeriph_Driver/src/stm32f4xx_hash_sha1.c ****   uint32_t outputaddr = (uint32_t)Output;
  98:../Libraries/STM32F4xx_StdPeriph_Driver/src/stm32f4xx_hash_sha1.c **** 
  99:../Libraries/STM32F4xx_StdPeriph_Driver/src/stm32f4xx_hash_sha1.c ****   /* Number of valid bits in last word of the Input data */
 100:../Libraries/STM32F4xx_StdPeriph_Driver/src/stm32f4xx_hash_sha1.c ****   nbvalidbitsdata = 8 * (Ilen % 4);
 116              		.loc 1 100 19 view .LVU2
 117 0002 01F00303 		and	r3, r1, #3	@ tmp153, Ilen,
  89:../Libraries/STM32F4xx_StdPeriph_Driver/src/stm32f4xx_hash_sha1.c ****   HASH_InitTypeDef SHA1_HASH_InitStructure;
 118              		.loc 1 89 3 is_stmt 1 view .LVU3
  90:../Libraries/STM32F4xx_StdPeriph_Driver/src/stm32f4xx_hash_sha1.c ****   __IO uint16_t nbvalidbitsdata = 0;
 119              		.loc 1 90 3 view .LVU4
  91:../Libraries/STM32F4xx_StdPeriph_Driver/src/stm32f4xx_hash_sha1.c ****   uint32_t i = 0;
 120              		.loc 1 91 3 view .LVU5
 121              	@ ../Libraries/STM32F4xx_StdPeriph_Driver/src/stm32f4xx_hash_sha1.c:88: {
  88:../Libraries/STM32F4xx_StdPeriph_Driver/src/stm32f4xx_hash_sha1.c ****   HASH_InitTypeDef SHA1_HASH_InitStructure;
 122              		.loc 1 88 1 is_stmt 0 view .LVU6
 123 0006 8DB0     		sub	sp, sp, #52	@,,
 124              		.cfi_def_cfa_offset 72
ARM GAS  C:\Users\admin\AppData\Local\Temp\ccSiiuKl.s 			page 5


 125              	@ ../Libraries/STM32F4xx_StdPeriph_Driver/src/stm32f4xx_hash_sha1.c:100:   nbvalidbitsdata = 8 * (I
 126              		.loc 1 100 19 view .LVU7
 127 0008 DB00     		lsls	r3, r3, #3	@ _3, tmp153,
 128              	@ ../Libraries/STM32F4xx_StdPeriph_Driver/src/stm32f4xx_hash_sha1.c:91:   __IO uint16_t nbvalidbits
  91:../Libraries/STM32F4xx_StdPeriph_Driver/src/stm32f4xx_hash_sha1.c ****   uint32_t i = 0;
 129              		.loc 1 91 17 view .LVU8
 130 000a 0024     		movs	r4, #0	@ tmp150,
 131              	@ ../Libraries/STM32F4xx_StdPeriph_Driver/src/stm32f4xx_hash_sha1.c:88: {
  88:../Libraries/STM32F4xx_StdPeriph_Driver/src/stm32f4xx_hash_sha1.c ****   HASH_InitTypeDef SHA1_HASH_InitStructure;
 132              		.loc 1 88 1 view .LVU9
 133 000c 0F46     		mov	r7, r1	@ Ilen, tmp178
 134              	@ ../Libraries/STM32F4xx_StdPeriph_Driver/src/stm32f4xx_hash_sha1.c:91:   __IO uint16_t nbvalidbits
  91:../Libraries/STM32F4xx_StdPeriph_Driver/src/stm32f4xx_hash_sha1.c ****   uint32_t i = 0;
 135              		.loc 1 91 17 view .LVU10
 136 000e ADF80240 		strh	r4, [sp, #2]	@ movhi	@ tmp150, nbvalidbitsdata
  92:../Libraries/STM32F4xx_StdPeriph_Driver/src/stm32f4xx_hash_sha1.c ****   __IO uint32_t counter = 0;
 137              		.loc 1 92 3 is_stmt 1 view .LVU11
 138              	.LVL1:
  93:../Libraries/STM32F4xx_StdPeriph_Driver/src/stm32f4xx_hash_sha1.c ****   uint32_t busystatus = 0;
 139              		.loc 1 93 3 view .LVU12
 140              	@ ../Libraries/STM32F4xx_StdPeriph_Driver/src/stm32f4xx_hash_sha1.c:88: {
  88:../Libraries/STM32F4xx_StdPeriph_Driver/src/stm32f4xx_hash_sha1.c ****   HASH_InitTypeDef SHA1_HASH_InitStructure;
 141              		.loc 1 88 1 is_stmt 0 view .LVU13
 142 0012 1646     		mov	r6, r2	@ Output, tmp179
 143              	@ ../Libraries/STM32F4xx_StdPeriph_Driver/src/stm32f4xx_hash_sha1.c:93:   __IO uint32_t counter = 0
  93:../Libraries/STM32F4xx_StdPeriph_Driver/src/stm32f4xx_hash_sha1.c ****   uint32_t busystatus = 0;
 144              		.loc 1 93 17 view .LVU14
 145 0014 0194     		str	r4, [sp, #4]	@ tmp150, counter
  94:../Libraries/STM32F4xx_StdPeriph_Driver/src/stm32f4xx_hash_sha1.c ****   ErrorStatus status = SUCCESS;
 146              		.loc 1 94 3 is_stmt 1 view .LVU15
 147              	.LVL2:
  95:../Libraries/STM32F4xx_StdPeriph_Driver/src/stm32f4xx_hash_sha1.c ****   uint32_t inputaddr  = (uint32_t)Input;
 148              		.loc 1 95 3 view .LVU16
  96:../Libraries/STM32F4xx_StdPeriph_Driver/src/stm32f4xx_hash_sha1.c ****   uint32_t outputaddr = (uint32_t)Output;
 149              		.loc 1 96 3 view .LVU17
 150              	@ ../Libraries/STM32F4xx_StdPeriph_Driver/src/stm32f4xx_hash_sha1.c:96:   uint32_t inputaddr  = (ui
  96:../Libraries/STM32F4xx_StdPeriph_Driver/src/stm32f4xx_hash_sha1.c ****   uint32_t outputaddr = (uint32_t)Output;
 151              		.loc 1 96 12 is_stmt 0 view .LVU18
 152 0016 0546     		mov	r5, r0	@ inputaddr, tmp177
 153              	.LVL3:
  97:../Libraries/STM32F4xx_StdPeriph_Driver/src/stm32f4xx_hash_sha1.c **** 
 154              		.loc 1 97 3 is_stmt 1 view .LVU19
 155              		.loc 1 100 3 view .LVU20
 156              	@ ../Libraries/STM32F4xx_StdPeriph_Driver/src/stm32f4xx_hash_sha1.c:100:   nbvalidbitsdata = 8 * (I
 157              		.loc 1 100 19 is_stmt 0 view .LVU21
 158 0018 ADF80230 		strh	r3, [sp, #2]	@ movhi	@ _3, nbvalidbitsdata
 101:../Libraries/STM32F4xx_StdPeriph_Driver/src/stm32f4xx_hash_sha1.c **** 
 102:../Libraries/STM32F4xx_StdPeriph_Driver/src/stm32f4xx_hash_sha1.c ****   /* HASH peripheral initialization */
 103:../Libraries/STM32F4xx_StdPeriph_Driver/src/stm32f4xx_hash_sha1.c ****   HASH_DeInit();
 159              		.loc 1 103 3 is_stmt 1 view .LVU22
 160 001c FFF7FEFF 		bl	HASH_DeInit		@
 161              	.LVL4:
 104:../Libraries/STM32F4xx_StdPeriph_Driver/src/stm32f4xx_hash_sha1.c **** 
 105:../Libraries/STM32F4xx_StdPeriph_Driver/src/stm32f4xx_hash_sha1.c ****   /* HASH Configuration */
 106:../Libraries/STM32F4xx_StdPeriph_Driver/src/stm32f4xx_hash_sha1.c ****   SHA1_HASH_InitStructure.HASH_AlgoSelection = HASH_AlgoSelection_SHA1;
 162              		.loc 1 106 3 view .LVU23
 107:../Libraries/STM32F4xx_StdPeriph_Driver/src/stm32f4xx_hash_sha1.c ****   SHA1_HASH_InitStructure.HASH_AlgoMode = HASH_AlgoMode_HASH;
ARM GAS  C:\Users\admin\AppData\Local\Temp\ccSiiuKl.s 			page 6


 163              		.loc 1 107 3 view .LVU24
 164              	@ ../Libraries/STM32F4xx_StdPeriph_Driver/src/stm32f4xx_hash_sha1.c:106:   SHA1_HASH_InitStructure.
 106:../Libraries/STM32F4xx_StdPeriph_Driver/src/stm32f4xx_hash_sha1.c ****   SHA1_HASH_InitStructure.HASH_AlgoMode = HASH_AlgoMode_HASH;
 165              		.loc 1 106 46 is_stmt 0 view .LVU25
 166 0020 0022     		movs	r2, #0	@ tmp157,
 167 0022 0023     		movs	r3, #0	@,
 168 0024 CDE90223 		strd	r2, [sp, #8]	@ tmp157,,
 108:../Libraries/STM32F4xx_StdPeriph_Driver/src/stm32f4xx_hash_sha1.c ****   SHA1_HASH_InitStructure.HASH_DataType = HASH_DataType_8b;
 169              		.loc 1 108 3 is_stmt 1 view .LVU26
 170              	@ ../Libraries/STM32F4xx_StdPeriph_Driver/src/stm32f4xx_hash_sha1.c:109:   HASH_Init(&SHA1_HASH_Ini
 109:../Libraries/STM32F4xx_StdPeriph_Driver/src/stm32f4xx_hash_sha1.c ****   HASH_Init(&SHA1_HASH_InitStructure);
 171              		.loc 1 109 3 is_stmt 0 view .LVU27
 172 0028 02A8     		add	r0, sp, #8	@,,
 173              	@ ../Libraries/STM32F4xx_StdPeriph_Driver/src/stm32f4xx_hash_sha1.c:108:   SHA1_HASH_InitStructure.
 108:../Libraries/STM32F4xx_StdPeriph_Driver/src/stm32f4xx_hash_sha1.c ****   SHA1_HASH_InitStructure.HASH_DataType = HASH_DataType_8b;
 174              		.loc 1 108 41 view .LVU28
 175 002a 2023     		movs	r3, #32	@ tmp158,
 176 002c 0493     		str	r3, [sp, #16]	@ tmp158, SHA1_HASH_InitStructure.HASH_DataType
 177              		.loc 1 109 3 is_stmt 1 view .LVU29
 178 002e FFF7FEFF 		bl	HASH_Init		@
 179              	.LVL5:
 110:../Libraries/STM32F4xx_StdPeriph_Driver/src/stm32f4xx_hash_sha1.c **** 
 111:../Libraries/STM32F4xx_StdPeriph_Driver/src/stm32f4xx_hash_sha1.c ****   /* Configure the number of valid bits in last word of the data */
 112:../Libraries/STM32F4xx_StdPeriph_Driver/src/stm32f4xx_hash_sha1.c ****   HASH_SetLastWordValidBitsNbr(nbvalidbitsdata);
 180              		.loc 1 112 3 view .LVU30
 181 0032 BDF80200 		ldrh	r0, [sp, #2]	@, nbvalidbitsdata
 182 0036 80B2     		uxth	r0, r0	@, nbvalidbitsdata
 183 0038 FFF7FEFF 		bl	HASH_SetLastWordValidBitsNbr		@
 184              	.LVL6:
 113:../Libraries/STM32F4xx_StdPeriph_Driver/src/stm32f4xx_hash_sha1.c **** 
 114:../Libraries/STM32F4xx_StdPeriph_Driver/src/stm32f4xx_hash_sha1.c ****   /* Write the Input block in the IN FIFO */
 115:../Libraries/STM32F4xx_StdPeriph_Driver/src/stm32f4xx_hash_sha1.c ****   for(i=0; i<Ilen; i+=4)
 185              		.loc 1 115 3 view .LVU31
 186              		.loc 1 115 12 view .LVU32
 187              	@ ../Libraries/STM32F4xx_StdPeriph_Driver/src/stm32f4xx_hash_sha1.c:115:   for(i=0; i<Ilen; i+=4)
 188              		.loc 1 115 3 is_stmt 0 view .LVU33
 189 003c 37B1     		cbz	r7, .L2	@ Ilen,
 190              	.LVL7:
 191              	.L3:
 116:../Libraries/STM32F4xx_StdPeriph_Driver/src/stm32f4xx_hash_sha1.c ****   {
 117:../Libraries/STM32F4xx_StdPeriph_Driver/src/stm32f4xx_hash_sha1.c ****     HASH_DataIn(*(uint32_t*)inputaddr);
 192              		.loc 1 117 5 is_stmt 1 discriminator 3 view .LVU34
 193 003e 55F8040B 		ldr	r0, [r5], #4	@, MEM[base: _37, offset: 0B]
 194              	.LVL8:
 195              	@ ../Libraries/STM32F4xx_StdPeriph_Driver/src/stm32f4xx_hash_sha1.c:115:   for(i=0; i<Ilen; i+=4)
 115:../Libraries/STM32F4xx_StdPeriph_Driver/src/stm32f4xx_hash_sha1.c ****   {
 196              		.loc 1 115 21 is_stmt 0 discriminator 3 view .LVU35
 197 0042 0434     		adds	r4, r4, #4	@ i, i,
 198              	.LVL9:
 199              	@ ../Libraries/STM32F4xx_StdPeriph_Driver/src/stm32f4xx_hash_sha1.c:117:     HASH_DataIn(*(uint32_t
 200              		.loc 1 117 5 discriminator 3 view .LVU36
 201 0044 FFF7FEFF 		bl	HASH_DataIn		@
 202              	.LVL10:
 118:../Libraries/STM32F4xx_StdPeriph_Driver/src/stm32f4xx_hash_sha1.c ****     inputaddr+=4;
 203              		.loc 1 118 5 is_stmt 1 discriminator 3 view .LVU37
 115:../Libraries/STM32F4xx_StdPeriph_Driver/src/stm32f4xx_hash_sha1.c ****   {
 204              		.loc 1 115 20 discriminator 3 view .LVU38
ARM GAS  C:\Users\admin\AppData\Local\Temp\ccSiiuKl.s 			page 7


 115:../Libraries/STM32F4xx_StdPeriph_Driver/src/stm32f4xx_hash_sha1.c ****   {
 205              		.loc 1 115 12 discriminator 3 view .LVU39
 206              	@ ../Libraries/STM32F4xx_StdPeriph_Driver/src/stm32f4xx_hash_sha1.c:115:   for(i=0; i<Ilen; i+=4)
 115:../Libraries/STM32F4xx_StdPeriph_Driver/src/stm32f4xx_hash_sha1.c ****   {
 207              		.loc 1 115 3 is_stmt 0 discriminator 3 view .LVU40
 208 0048 A742     		cmp	r7, r4	@ Ilen, i
 209 004a F8D8     		bhi	.L3		@,
 210              	.LVL11:
 211              	.L2:
 119:../Libraries/STM32F4xx_StdPeriph_Driver/src/stm32f4xx_hash_sha1.c ****   }
 120:../Libraries/STM32F4xx_StdPeriph_Driver/src/stm32f4xx_hash_sha1.c **** 
 121:../Libraries/STM32F4xx_StdPeriph_Driver/src/stm32f4xx_hash_sha1.c ****   /* Start the HASH processor */
 122:../Libraries/STM32F4xx_StdPeriph_Driver/src/stm32f4xx_hash_sha1.c ****   HASH_StartDigest();
 212              		.loc 1 122 3 is_stmt 1 view .LVU41
 213 004c FFF7FEFF 		bl	HASH_StartDigest		@
 214              	.LVL12:
 215 0050 00E0     		b	.L5		@
 216              	.LVL13:
 217              	.L16:
 218              	@ ../Libraries/STM32F4xx_StdPeriph_Driver/src/stm32f4xx_hash_sha1.c:129:   }while ((counter != SHA1
 123:../Libraries/STM32F4xx_StdPeriph_Driver/src/stm32f4xx_hash_sha1.c **** 
 124:../Libraries/STM32F4xx_StdPeriph_Driver/src/stm32f4xx_hash_sha1.c ****   /* wait until the Busy flag is RESET */
 125:../Libraries/STM32F4xx_StdPeriph_Driver/src/stm32f4xx_hash_sha1.c ****   do
 126:../Libraries/STM32F4xx_StdPeriph_Driver/src/stm32f4xx_hash_sha1.c ****   {
 127:../Libraries/STM32F4xx_StdPeriph_Driver/src/stm32f4xx_hash_sha1.c ****     busystatus = HASH_GetFlagStatus(HASH_FLAG_BUSY);
 128:../Libraries/STM32F4xx_StdPeriph_Driver/src/stm32f4xx_hash_sha1.c ****     counter++;
 129:../Libraries/STM32F4xx_StdPeriph_Driver/src/stm32f4xx_hash_sha1.c ****   }while ((counter != SHA1BUSY_TIMEOUT) && (busystatus != RESET));
 219              		.loc 1 129 41 is_stmt 0 discriminator 1 view .LVU42
 220 0052 68B1     		cbz	r0, .L6	@ tmp163,
 221              	.LVL14:
 222              	.L5:
 125:../Libraries/STM32F4xx_StdPeriph_Driver/src/stm32f4xx_hash_sha1.c ****   {
 223              		.loc 1 125 3 is_stmt 1 discriminator 2 view .LVU43
 127:../Libraries/STM32F4xx_StdPeriph_Driver/src/stm32f4xx_hash_sha1.c ****     counter++;
 224              		.loc 1 127 5 discriminator 2 view .LVU44
 225              	@ ../Libraries/STM32F4xx_StdPeriph_Driver/src/stm32f4xx_hash_sha1.c:127:     busystatus = HASH_GetF
 127:../Libraries/STM32F4xx_StdPeriph_Driver/src/stm32f4xx_hash_sha1.c ****     counter++;
 226              		.loc 1 127 18 is_stmt 0 discriminator 2 view .LVU45
 227 0054 0820     		movs	r0, #8	@,
 228 0056 FFF7FEFF 		bl	HASH_GetFlagStatus		@
 229              	.LVL15:
 230              	@ ../Libraries/STM32F4xx_StdPeriph_Driver/src/stm32f4xx_hash_sha1.c:128:     counter++;
 128:../Libraries/STM32F4xx_StdPeriph_Driver/src/stm32f4xx_hash_sha1.c ****   }while ((counter != SHA1BUSY_TIMEOUT) && (busystatus != RESET));
 231              		.loc 1 128 12 discriminator 2 view .LVU46
 232 005a 019B     		ldr	r3, [sp, #4]	@ counter.2_8, counter
 233              	.LVL16:
 128:../Libraries/STM32F4xx_StdPeriph_Driver/src/stm32f4xx_hash_sha1.c ****   }while ((counter != SHA1BUSY_TIMEOUT) && (busystatus != RESET));
 234              		.loc 1 128 5 is_stmt 1 discriminator 2 view .LVU47
 235              	@ ../Libraries/STM32F4xx_StdPeriph_Driver/src/stm32f4xx_hash_sha1.c:128:     counter++;
 128:../Libraries/STM32F4xx_StdPeriph_Driver/src/stm32f4xx_hash_sha1.c ****   }while ((counter != SHA1BUSY_TIMEOUT) && (busystatus != RESET));
 236              		.loc 1 128 12 is_stmt 0 discriminator 2 view .LVU48
 237 005c 0133     		adds	r3, r3, #1	@ _9, counter.2_8,
 238 005e 0193     		str	r3, [sp, #4]	@ _9, counter
 239              		.loc 1 129 10 is_stmt 1 discriminator 2 view .LVU49
 240              	@ ../Libraries/STM32F4xx_StdPeriph_Driver/src/stm32f4xx_hash_sha1.c:129:   }while ((counter != SHA1
 241              		.loc 1 129 20 is_stmt 0 discriminator 2 view .LVU50
 242 0060 019B     		ldr	r3, [sp, #4]	@ counter.3_10, counter
ARM GAS  C:\Users\admin\AppData\Local\Temp\ccSiiuKl.s 			page 8


 243              	@ ../Libraries/STM32F4xx_StdPeriph_Driver/src/stm32f4xx_hash_sha1.c:129:   }while ((counter != SHA1
 244              		.loc 1 129 3 discriminator 2 view .LVU51
 245 0062 B3F5803F 		cmp	r3, #65536	@ counter.3_10,
 246 0066 F4D1     		bne	.L16		@,
 130:../Libraries/STM32F4xx_StdPeriph_Driver/src/stm32f4xx_hash_sha1.c **** 
 131:../Libraries/STM32F4xx_StdPeriph_Driver/src/stm32f4xx_hash_sha1.c ****   if (busystatus != RESET)
 247              		.loc 1 131 3 is_stmt 1 view .LVU52
 248              	@ ../Libraries/STM32F4xx_StdPeriph_Driver/src/stm32f4xx_hash_sha1.c:131:   if (busystatus != RESET)
 249              		.loc 1 131 6 is_stmt 0 view .LVU53
 250 0068 10B1     		cbz	r0, .L6	@ tmp163,
 251              	@ ../Libraries/STM32F4xx_StdPeriph_Driver/src/stm32f4xx_hash_sha1.c:133:      status = ERROR;
 132:../Libraries/STM32F4xx_StdPeriph_Driver/src/stm32f4xx_hash_sha1.c ****   {
 133:../Libraries/STM32F4xx_StdPeriph_Driver/src/stm32f4xx_hash_sha1.c ****      status = ERROR;
 252              		.loc 1 133 13 view .LVU54
 253 006a 0020     		movs	r0, #0	@ <retval>,
 254              	.LVL17:
 134:../Libraries/STM32F4xx_StdPeriph_Driver/src/stm32f4xx_hash_sha1.c ****   }
 135:../Libraries/STM32F4xx_StdPeriph_Driver/src/stm32f4xx_hash_sha1.c ****   else
 136:../Libraries/STM32F4xx_StdPeriph_Driver/src/stm32f4xx_hash_sha1.c ****   {
 137:../Libraries/STM32F4xx_StdPeriph_Driver/src/stm32f4xx_hash_sha1.c ****     /* Read the message digest */
 138:../Libraries/STM32F4xx_StdPeriph_Driver/src/stm32f4xx_hash_sha1.c ****     HASH_GetDigest(&SHA1_MessageDigest);
 139:../Libraries/STM32F4xx_StdPeriph_Driver/src/stm32f4xx_hash_sha1.c ****     *(uint32_t*)(outputaddr)  = __REV(SHA1_MessageDigest.Data[0]);
 140:../Libraries/STM32F4xx_StdPeriph_Driver/src/stm32f4xx_hash_sha1.c ****     outputaddr+=4;
 141:../Libraries/STM32F4xx_StdPeriph_Driver/src/stm32f4xx_hash_sha1.c ****     *(uint32_t*)(outputaddr)  = __REV(SHA1_MessageDigest.Data[1]);
 142:../Libraries/STM32F4xx_StdPeriph_Driver/src/stm32f4xx_hash_sha1.c ****     outputaddr+=4;
 143:../Libraries/STM32F4xx_StdPeriph_Driver/src/stm32f4xx_hash_sha1.c ****     *(uint32_t*)(outputaddr)  = __REV(SHA1_MessageDigest.Data[2]);
 144:../Libraries/STM32F4xx_StdPeriph_Driver/src/stm32f4xx_hash_sha1.c ****     outputaddr+=4;
 145:../Libraries/STM32F4xx_StdPeriph_Driver/src/stm32f4xx_hash_sha1.c ****     *(uint32_t*)(outputaddr)  = __REV(SHA1_MessageDigest.Data[3]);
 146:../Libraries/STM32F4xx_StdPeriph_Driver/src/stm32f4xx_hash_sha1.c ****     outputaddr+=4;
 147:../Libraries/STM32F4xx_StdPeriph_Driver/src/stm32f4xx_hash_sha1.c ****     *(uint32_t*)(outputaddr)  = __REV(SHA1_MessageDigest.Data[4]);
 148:../Libraries/STM32F4xx_StdPeriph_Driver/src/stm32f4xx_hash_sha1.c ****   }
 149:../Libraries/STM32F4xx_StdPeriph_Driver/src/stm32f4xx_hash_sha1.c ****   return status;
 255              		.loc 1 149 3 is_stmt 1 view .LVU55
 256              	@ ../Libraries/STM32F4xx_StdPeriph_Driver/src/stm32f4xx_hash_sha1.c:150: }
 150:../Libraries/STM32F4xx_StdPeriph_Driver/src/stm32f4xx_hash_sha1.c **** }
 257              		.loc 1 150 1 is_stmt 0 view .LVU56
 258 006c 0DB0     		add	sp, sp, #52	@,,
 259              		.cfi_remember_state
 260              		.cfi_def_cfa_offset 20
 261              		@ sp needed	@
 262 006e F0BD     		pop	{r4, r5, r6, r7, pc}	@
 263              	.LVL18:
 264              	.L6:
 265              		.cfi_restore_state
 138:../Libraries/STM32F4xx_StdPeriph_Driver/src/stm32f4xx_hash_sha1.c ****     *(uint32_t*)(outputaddr)  = __REV(SHA1_MessageDigest.Data[0]);
 266              		.loc 1 138 5 is_stmt 1 view .LVU57
 267 0070 07A8     		add	r0, sp, #28	@,,
 268              	.LVL19:
 138:../Libraries/STM32F4xx_StdPeriph_Driver/src/stm32f4xx_hash_sha1.c ****     *(uint32_t*)(outputaddr)  = __REV(SHA1_MessageDigest.Data[0]);
 269              		.loc 1 138 5 is_stmt 0 view .LVU58
 270 0072 FFF7FEFF 		bl	HASH_GetDigest		@
 271              	.LVL20:
 139:../Libraries/STM32F4xx_StdPeriph_Driver/src/stm32f4xx_hash_sha1.c ****     outputaddr+=4;
 272              		.loc 1 139 5 is_stmt 1 view .LVU59
 273              	.LBB22:
 274              	.LBI22:
 275              		.file 2 "../Libraries/CMSIS/Include/core_cmInstr.h"
ARM GAS  C:\Users\admin\AppData\Local\Temp\ccSiiuKl.s 			page 9


   1:../Libraries/CMSIS/Include/core_cmInstr.h **** /**************************************************************************//**
   2:../Libraries/CMSIS/Include/core_cmInstr.h ****  * @file     core_cmInstr.h
   3:../Libraries/CMSIS/Include/core_cmInstr.h ****  * @brief    CMSIS Cortex-M Core Instruction Access Header File
   4:../Libraries/CMSIS/Include/core_cmInstr.h ****  * @version  V2.10
   5:../Libraries/CMSIS/Include/core_cmInstr.h ****  * @date     19. July 2011
   6:../Libraries/CMSIS/Include/core_cmInstr.h ****  *
   7:../Libraries/CMSIS/Include/core_cmInstr.h ****  * @note
   8:../Libraries/CMSIS/Include/core_cmInstr.h ****  * Copyright (C) 2009-2011 ARM Limited. All rights reserved.
   9:../Libraries/CMSIS/Include/core_cmInstr.h ****  *
  10:../Libraries/CMSIS/Include/core_cmInstr.h ****  * @par
  11:../Libraries/CMSIS/Include/core_cmInstr.h ****  * ARM Limited (ARM) is supplying this software for use with Cortex-M 
  12:../Libraries/CMSIS/Include/core_cmInstr.h ****  * processor based microcontrollers.  This file can be freely distributed 
  13:../Libraries/CMSIS/Include/core_cmInstr.h ****  * within development tools that are supporting such ARM based processors. 
  14:../Libraries/CMSIS/Include/core_cmInstr.h ****  *
  15:../Libraries/CMSIS/Include/core_cmInstr.h ****  * @par
  16:../Libraries/CMSIS/Include/core_cmInstr.h ****  * THIS SOFTWARE IS PROVIDED "AS IS".  NO WARRANTIES, WHETHER EXPRESS, IMPLIED
  17:../Libraries/CMSIS/Include/core_cmInstr.h ****  * OR STATUTORY, INCLUDING, BUT NOT LIMITED TO, IMPLIED WARRANTIES OF
  18:../Libraries/CMSIS/Include/core_cmInstr.h ****  * MERCHANTABILITY AND FITNESS FOR A PARTICULAR PURPOSE APPLY TO THIS SOFTWARE.
  19:../Libraries/CMSIS/Include/core_cmInstr.h ****  * ARM SHALL NOT, IN ANY CIRCUMSTANCES, BE LIABLE FOR SPECIAL, INCIDENTAL, OR
  20:../Libraries/CMSIS/Include/core_cmInstr.h ****  * CONSEQUENTIAL DAMAGES, FOR ANY REASON WHATSOEVER.
  21:../Libraries/CMSIS/Include/core_cmInstr.h ****  *
  22:../Libraries/CMSIS/Include/core_cmInstr.h ****  ******************************************************************************/
  23:../Libraries/CMSIS/Include/core_cmInstr.h **** 
  24:../Libraries/CMSIS/Include/core_cmInstr.h **** #ifndef __CORE_CMINSTR_H
  25:../Libraries/CMSIS/Include/core_cmInstr.h **** #define __CORE_CMINSTR_H
  26:../Libraries/CMSIS/Include/core_cmInstr.h **** 
  27:../Libraries/CMSIS/Include/core_cmInstr.h **** 
  28:../Libraries/CMSIS/Include/core_cmInstr.h **** /* ##########################  Core Instruction Access  ######################### */
  29:../Libraries/CMSIS/Include/core_cmInstr.h **** /** \defgroup CMSIS_Core_InstructionInterface CMSIS Core Instruction Interface
  30:../Libraries/CMSIS/Include/core_cmInstr.h ****   Access to dedicated instructions
  31:../Libraries/CMSIS/Include/core_cmInstr.h ****   @{
  32:../Libraries/CMSIS/Include/core_cmInstr.h **** */
  33:../Libraries/CMSIS/Include/core_cmInstr.h **** 
  34:../Libraries/CMSIS/Include/core_cmInstr.h **** #if   defined ( __CC_ARM ) /*------------------RealView Compiler -----------------*/
  35:../Libraries/CMSIS/Include/core_cmInstr.h **** /* ARM armcc specific functions */
  36:../Libraries/CMSIS/Include/core_cmInstr.h **** 
  37:../Libraries/CMSIS/Include/core_cmInstr.h **** #if (__ARMCC_VERSION < 400677)
  38:../Libraries/CMSIS/Include/core_cmInstr.h ****   #error "Please use ARM Compiler Toolchain V4.0.677 or later!"
  39:../Libraries/CMSIS/Include/core_cmInstr.h **** #endif
  40:../Libraries/CMSIS/Include/core_cmInstr.h **** 
  41:../Libraries/CMSIS/Include/core_cmInstr.h **** 
  42:../Libraries/CMSIS/Include/core_cmInstr.h **** /** \brief  No Operation
  43:../Libraries/CMSIS/Include/core_cmInstr.h **** 
  44:../Libraries/CMSIS/Include/core_cmInstr.h ****     No Operation does nothing. This instruction can be used for code alignment purposes.
  45:../Libraries/CMSIS/Include/core_cmInstr.h ****  */
  46:../Libraries/CMSIS/Include/core_cmInstr.h **** #define __NOP                             __nop
  47:../Libraries/CMSIS/Include/core_cmInstr.h **** 
  48:../Libraries/CMSIS/Include/core_cmInstr.h **** 
  49:../Libraries/CMSIS/Include/core_cmInstr.h **** /** \brief  Wait For Interrupt
  50:../Libraries/CMSIS/Include/core_cmInstr.h **** 
  51:../Libraries/CMSIS/Include/core_cmInstr.h ****     Wait For Interrupt is a hint instruction that suspends execution
  52:../Libraries/CMSIS/Include/core_cmInstr.h ****     until one of a number of events occurs.
  53:../Libraries/CMSIS/Include/core_cmInstr.h ****  */
  54:../Libraries/CMSIS/Include/core_cmInstr.h **** #define __WFI                             __wfi
  55:../Libraries/CMSIS/Include/core_cmInstr.h **** 
  56:../Libraries/CMSIS/Include/core_cmInstr.h **** 
  57:../Libraries/CMSIS/Include/core_cmInstr.h **** /** \brief  Wait For Event
ARM GAS  C:\Users\admin\AppData\Local\Temp\ccSiiuKl.s 			page 10


  58:../Libraries/CMSIS/Include/core_cmInstr.h **** 
  59:../Libraries/CMSIS/Include/core_cmInstr.h ****     Wait For Event is a hint instruction that permits the processor to enter
  60:../Libraries/CMSIS/Include/core_cmInstr.h ****     a low-power state until one of a number of events occurs.
  61:../Libraries/CMSIS/Include/core_cmInstr.h ****  */
  62:../Libraries/CMSIS/Include/core_cmInstr.h **** #define __WFE                             __wfe
  63:../Libraries/CMSIS/Include/core_cmInstr.h **** 
  64:../Libraries/CMSIS/Include/core_cmInstr.h **** 
  65:../Libraries/CMSIS/Include/core_cmInstr.h **** /** \brief  Send Event
  66:../Libraries/CMSIS/Include/core_cmInstr.h **** 
  67:../Libraries/CMSIS/Include/core_cmInstr.h ****     Send Event is a hint instruction. It causes an event to be signaled to the CPU.
  68:../Libraries/CMSIS/Include/core_cmInstr.h ****  */
  69:../Libraries/CMSIS/Include/core_cmInstr.h **** #define __SEV                             __sev
  70:../Libraries/CMSIS/Include/core_cmInstr.h **** 
  71:../Libraries/CMSIS/Include/core_cmInstr.h **** 
  72:../Libraries/CMSIS/Include/core_cmInstr.h **** /** \brief  Instruction Synchronization Barrier
  73:../Libraries/CMSIS/Include/core_cmInstr.h **** 
  74:../Libraries/CMSIS/Include/core_cmInstr.h ****     Instruction Synchronization Barrier flushes the pipeline in the processor, 
  75:../Libraries/CMSIS/Include/core_cmInstr.h ****     so that all instructions following the ISB are fetched from cache or 
  76:../Libraries/CMSIS/Include/core_cmInstr.h ****     memory, after the instruction has been completed.
  77:../Libraries/CMSIS/Include/core_cmInstr.h ****  */
  78:../Libraries/CMSIS/Include/core_cmInstr.h **** #define __ISB()                           __isb(0xF)
  79:../Libraries/CMSIS/Include/core_cmInstr.h **** 
  80:../Libraries/CMSIS/Include/core_cmInstr.h **** 
  81:../Libraries/CMSIS/Include/core_cmInstr.h **** /** \brief  Data Synchronization Barrier
  82:../Libraries/CMSIS/Include/core_cmInstr.h **** 
  83:../Libraries/CMSIS/Include/core_cmInstr.h ****     This function acts as a special kind of Data Memory Barrier. 
  84:../Libraries/CMSIS/Include/core_cmInstr.h ****     It completes when all explicit memory accesses before this instruction complete.
  85:../Libraries/CMSIS/Include/core_cmInstr.h ****  */
  86:../Libraries/CMSIS/Include/core_cmInstr.h **** #define __DSB()                           __dsb(0xF)
  87:../Libraries/CMSIS/Include/core_cmInstr.h **** 
  88:../Libraries/CMSIS/Include/core_cmInstr.h **** 
  89:../Libraries/CMSIS/Include/core_cmInstr.h **** /** \brief  Data Memory Barrier
  90:../Libraries/CMSIS/Include/core_cmInstr.h **** 
  91:../Libraries/CMSIS/Include/core_cmInstr.h ****     This function ensures the apparent order of the explicit memory operations before 
  92:../Libraries/CMSIS/Include/core_cmInstr.h ****     and after the instruction, without ensuring their completion.
  93:../Libraries/CMSIS/Include/core_cmInstr.h ****  */
  94:../Libraries/CMSIS/Include/core_cmInstr.h **** #define __DMB()                           __dmb(0xF)
  95:../Libraries/CMSIS/Include/core_cmInstr.h **** 
  96:../Libraries/CMSIS/Include/core_cmInstr.h **** 
  97:../Libraries/CMSIS/Include/core_cmInstr.h **** /** \brief  Reverse byte order (32 bit)
  98:../Libraries/CMSIS/Include/core_cmInstr.h **** 
  99:../Libraries/CMSIS/Include/core_cmInstr.h ****     This function reverses the byte order in integer value.
 100:../Libraries/CMSIS/Include/core_cmInstr.h **** 
 101:../Libraries/CMSIS/Include/core_cmInstr.h ****     \param [in]    value  Value to reverse
 102:../Libraries/CMSIS/Include/core_cmInstr.h ****     \return               Reversed value
 103:../Libraries/CMSIS/Include/core_cmInstr.h ****  */
 104:../Libraries/CMSIS/Include/core_cmInstr.h **** #define __REV                             __rev
 105:../Libraries/CMSIS/Include/core_cmInstr.h **** 
 106:../Libraries/CMSIS/Include/core_cmInstr.h **** 
 107:../Libraries/CMSIS/Include/core_cmInstr.h **** /** \brief  Reverse byte order (16 bit)
 108:../Libraries/CMSIS/Include/core_cmInstr.h **** 
 109:../Libraries/CMSIS/Include/core_cmInstr.h ****     This function reverses the byte order in two unsigned short values.
 110:../Libraries/CMSIS/Include/core_cmInstr.h **** 
 111:../Libraries/CMSIS/Include/core_cmInstr.h ****     \param [in]    value  Value to reverse
 112:../Libraries/CMSIS/Include/core_cmInstr.h ****     \return               Reversed value
 113:../Libraries/CMSIS/Include/core_cmInstr.h ****  */
 114:../Libraries/CMSIS/Include/core_cmInstr.h **** static __INLINE __ASM uint32_t __REV16(uint32_t value)
ARM GAS  C:\Users\admin\AppData\Local\Temp\ccSiiuKl.s 			page 11


 115:../Libraries/CMSIS/Include/core_cmInstr.h **** {
 116:../Libraries/CMSIS/Include/core_cmInstr.h ****   rev16 r0, r0
 117:../Libraries/CMSIS/Include/core_cmInstr.h ****   bx lr
 118:../Libraries/CMSIS/Include/core_cmInstr.h **** }
 119:../Libraries/CMSIS/Include/core_cmInstr.h **** 
 120:../Libraries/CMSIS/Include/core_cmInstr.h **** 
 121:../Libraries/CMSIS/Include/core_cmInstr.h **** /** \brief  Reverse byte order in signed short value
 122:../Libraries/CMSIS/Include/core_cmInstr.h **** 
 123:../Libraries/CMSIS/Include/core_cmInstr.h ****     This function reverses the byte order in a signed short value with sign extension to integer.
 124:../Libraries/CMSIS/Include/core_cmInstr.h **** 
 125:../Libraries/CMSIS/Include/core_cmInstr.h ****     \param [in]    value  Value to reverse
 126:../Libraries/CMSIS/Include/core_cmInstr.h ****     \return               Reversed value
 127:../Libraries/CMSIS/Include/core_cmInstr.h ****  */
 128:../Libraries/CMSIS/Include/core_cmInstr.h **** static __INLINE __ASM int32_t __REVSH(int32_t value)
 129:../Libraries/CMSIS/Include/core_cmInstr.h **** {
 130:../Libraries/CMSIS/Include/core_cmInstr.h ****   revsh r0, r0
 131:../Libraries/CMSIS/Include/core_cmInstr.h ****   bx lr
 132:../Libraries/CMSIS/Include/core_cmInstr.h **** }
 133:../Libraries/CMSIS/Include/core_cmInstr.h **** 
 134:../Libraries/CMSIS/Include/core_cmInstr.h **** 
 135:../Libraries/CMSIS/Include/core_cmInstr.h **** #if       (__CORTEX_M >= 0x03)
 136:../Libraries/CMSIS/Include/core_cmInstr.h **** 
 137:../Libraries/CMSIS/Include/core_cmInstr.h **** /** \brief  Reverse bit order of value
 138:../Libraries/CMSIS/Include/core_cmInstr.h **** 
 139:../Libraries/CMSIS/Include/core_cmInstr.h ****     This function reverses the bit order of the given value.
 140:../Libraries/CMSIS/Include/core_cmInstr.h **** 
 141:../Libraries/CMSIS/Include/core_cmInstr.h ****     \param [in]    value  Value to reverse
 142:../Libraries/CMSIS/Include/core_cmInstr.h ****     \return               Reversed value
 143:../Libraries/CMSIS/Include/core_cmInstr.h ****  */
 144:../Libraries/CMSIS/Include/core_cmInstr.h **** #define __RBIT                            __rbit
 145:../Libraries/CMSIS/Include/core_cmInstr.h **** 
 146:../Libraries/CMSIS/Include/core_cmInstr.h **** 
 147:../Libraries/CMSIS/Include/core_cmInstr.h **** /** \brief  LDR Exclusive (8 bit)
 148:../Libraries/CMSIS/Include/core_cmInstr.h **** 
 149:../Libraries/CMSIS/Include/core_cmInstr.h ****     This function performs a exclusive LDR command for 8 bit value.
 150:../Libraries/CMSIS/Include/core_cmInstr.h **** 
 151:../Libraries/CMSIS/Include/core_cmInstr.h ****     \param [in]    ptr  Pointer to data
 152:../Libraries/CMSIS/Include/core_cmInstr.h ****     \return             value of type uint8_t at (*ptr)
 153:../Libraries/CMSIS/Include/core_cmInstr.h ****  */
 154:../Libraries/CMSIS/Include/core_cmInstr.h **** #define __LDREXB(ptr)                     ((uint8_t ) __ldrex(ptr))
 155:../Libraries/CMSIS/Include/core_cmInstr.h **** 
 156:../Libraries/CMSIS/Include/core_cmInstr.h **** 
 157:../Libraries/CMSIS/Include/core_cmInstr.h **** /** \brief  LDR Exclusive (16 bit)
 158:../Libraries/CMSIS/Include/core_cmInstr.h **** 
 159:../Libraries/CMSIS/Include/core_cmInstr.h ****     This function performs a exclusive LDR command for 16 bit values.
 160:../Libraries/CMSIS/Include/core_cmInstr.h **** 
 161:../Libraries/CMSIS/Include/core_cmInstr.h ****     \param [in]    ptr  Pointer to data
 162:../Libraries/CMSIS/Include/core_cmInstr.h ****     \return        value of type uint16_t at (*ptr)
 163:../Libraries/CMSIS/Include/core_cmInstr.h ****  */
 164:../Libraries/CMSIS/Include/core_cmInstr.h **** #define __LDREXH(ptr)                     ((uint16_t) __ldrex(ptr))
 165:../Libraries/CMSIS/Include/core_cmInstr.h **** 
 166:../Libraries/CMSIS/Include/core_cmInstr.h **** 
 167:../Libraries/CMSIS/Include/core_cmInstr.h **** /** \brief  LDR Exclusive (32 bit)
 168:../Libraries/CMSIS/Include/core_cmInstr.h **** 
 169:../Libraries/CMSIS/Include/core_cmInstr.h ****     This function performs a exclusive LDR command for 32 bit values.
 170:../Libraries/CMSIS/Include/core_cmInstr.h **** 
 171:../Libraries/CMSIS/Include/core_cmInstr.h ****     \param [in]    ptr  Pointer to data
ARM GAS  C:\Users\admin\AppData\Local\Temp\ccSiiuKl.s 			page 12


 172:../Libraries/CMSIS/Include/core_cmInstr.h ****     \return        value of type uint32_t at (*ptr)
 173:../Libraries/CMSIS/Include/core_cmInstr.h ****  */
 174:../Libraries/CMSIS/Include/core_cmInstr.h **** #define __LDREXW(ptr)                     ((uint32_t ) __ldrex(ptr))
 175:../Libraries/CMSIS/Include/core_cmInstr.h **** 
 176:../Libraries/CMSIS/Include/core_cmInstr.h **** 
 177:../Libraries/CMSIS/Include/core_cmInstr.h **** /** \brief  STR Exclusive (8 bit)
 178:../Libraries/CMSIS/Include/core_cmInstr.h **** 
 179:../Libraries/CMSIS/Include/core_cmInstr.h ****     This function performs a exclusive STR command for 8 bit values.
 180:../Libraries/CMSIS/Include/core_cmInstr.h **** 
 181:../Libraries/CMSIS/Include/core_cmInstr.h ****     \param [in]  value  Value to store
 182:../Libraries/CMSIS/Include/core_cmInstr.h ****     \param [in]    ptr  Pointer to location
 183:../Libraries/CMSIS/Include/core_cmInstr.h ****     \return          0  Function succeeded
 184:../Libraries/CMSIS/Include/core_cmInstr.h ****     \return          1  Function failed
 185:../Libraries/CMSIS/Include/core_cmInstr.h ****  */
 186:../Libraries/CMSIS/Include/core_cmInstr.h **** #define __STREXB(value, ptr)              __strex(value, ptr)
 187:../Libraries/CMSIS/Include/core_cmInstr.h **** 
 188:../Libraries/CMSIS/Include/core_cmInstr.h **** 
 189:../Libraries/CMSIS/Include/core_cmInstr.h **** /** \brief  STR Exclusive (16 bit)
 190:../Libraries/CMSIS/Include/core_cmInstr.h **** 
 191:../Libraries/CMSIS/Include/core_cmInstr.h ****     This function performs a exclusive STR command for 16 bit values.
 192:../Libraries/CMSIS/Include/core_cmInstr.h **** 
 193:../Libraries/CMSIS/Include/core_cmInstr.h ****     \param [in]  value  Value to store
 194:../Libraries/CMSIS/Include/core_cmInstr.h ****     \param [in]    ptr  Pointer to location
 195:../Libraries/CMSIS/Include/core_cmInstr.h ****     \return          0  Function succeeded
 196:../Libraries/CMSIS/Include/core_cmInstr.h ****     \return          1  Function failed
 197:../Libraries/CMSIS/Include/core_cmInstr.h ****  */
 198:../Libraries/CMSIS/Include/core_cmInstr.h **** #define __STREXH(value, ptr)              __strex(value, ptr)
 199:../Libraries/CMSIS/Include/core_cmInstr.h **** 
 200:../Libraries/CMSIS/Include/core_cmInstr.h **** 
 201:../Libraries/CMSIS/Include/core_cmInstr.h **** /** \brief  STR Exclusive (32 bit)
 202:../Libraries/CMSIS/Include/core_cmInstr.h **** 
 203:../Libraries/CMSIS/Include/core_cmInstr.h ****     This function performs a exclusive STR command for 32 bit values.
 204:../Libraries/CMSIS/Include/core_cmInstr.h **** 
 205:../Libraries/CMSIS/Include/core_cmInstr.h ****     \param [in]  value  Value to store
 206:../Libraries/CMSIS/Include/core_cmInstr.h ****     \param [in]    ptr  Pointer to location
 207:../Libraries/CMSIS/Include/core_cmInstr.h ****     \return          0  Function succeeded
 208:../Libraries/CMSIS/Include/core_cmInstr.h ****     \return          1  Function failed
 209:../Libraries/CMSIS/Include/core_cmInstr.h ****  */
 210:../Libraries/CMSIS/Include/core_cmInstr.h **** #define __STREXW(value, ptr)              __strex(value, ptr)
 211:../Libraries/CMSIS/Include/core_cmInstr.h **** 
 212:../Libraries/CMSIS/Include/core_cmInstr.h **** 
 213:../Libraries/CMSIS/Include/core_cmInstr.h **** /** \brief  Remove the exclusive lock
 214:../Libraries/CMSIS/Include/core_cmInstr.h **** 
 215:../Libraries/CMSIS/Include/core_cmInstr.h ****     This function removes the exclusive lock which is created by LDREX.
 216:../Libraries/CMSIS/Include/core_cmInstr.h **** 
 217:../Libraries/CMSIS/Include/core_cmInstr.h ****  */
 218:../Libraries/CMSIS/Include/core_cmInstr.h **** #define __CLREX                           __clrex
 219:../Libraries/CMSIS/Include/core_cmInstr.h **** 
 220:../Libraries/CMSIS/Include/core_cmInstr.h **** 
 221:../Libraries/CMSIS/Include/core_cmInstr.h **** /** \brief  Signed Saturate
 222:../Libraries/CMSIS/Include/core_cmInstr.h **** 
 223:../Libraries/CMSIS/Include/core_cmInstr.h ****     This function saturates a signed value.
 224:../Libraries/CMSIS/Include/core_cmInstr.h **** 
 225:../Libraries/CMSIS/Include/core_cmInstr.h ****     \param [in]  value  Value to be saturated
 226:../Libraries/CMSIS/Include/core_cmInstr.h ****     \param [in]    sat  Bit position to saturate to (1..32)
 227:../Libraries/CMSIS/Include/core_cmInstr.h ****     \return             Saturated value
 228:../Libraries/CMSIS/Include/core_cmInstr.h ****  */
ARM GAS  C:\Users\admin\AppData\Local\Temp\ccSiiuKl.s 			page 13


 229:../Libraries/CMSIS/Include/core_cmInstr.h **** #define __SSAT                            __ssat
 230:../Libraries/CMSIS/Include/core_cmInstr.h **** 
 231:../Libraries/CMSIS/Include/core_cmInstr.h **** 
 232:../Libraries/CMSIS/Include/core_cmInstr.h **** /** \brief  Unsigned Saturate
 233:../Libraries/CMSIS/Include/core_cmInstr.h **** 
 234:../Libraries/CMSIS/Include/core_cmInstr.h ****     This function saturates an unsigned value.
 235:../Libraries/CMSIS/Include/core_cmInstr.h **** 
 236:../Libraries/CMSIS/Include/core_cmInstr.h ****     \param [in]  value  Value to be saturated
 237:../Libraries/CMSIS/Include/core_cmInstr.h ****     \param [in]    sat  Bit position to saturate to (0..31)
 238:../Libraries/CMSIS/Include/core_cmInstr.h ****     \return             Saturated value
 239:../Libraries/CMSIS/Include/core_cmInstr.h ****  */
 240:../Libraries/CMSIS/Include/core_cmInstr.h **** #define __USAT                            __usat
 241:../Libraries/CMSIS/Include/core_cmInstr.h **** 
 242:../Libraries/CMSIS/Include/core_cmInstr.h **** 
 243:../Libraries/CMSIS/Include/core_cmInstr.h **** /** \brief  Count leading zeros
 244:../Libraries/CMSIS/Include/core_cmInstr.h **** 
 245:../Libraries/CMSIS/Include/core_cmInstr.h ****     This function counts the number of leading zeros of a data value.
 246:../Libraries/CMSIS/Include/core_cmInstr.h **** 
 247:../Libraries/CMSIS/Include/core_cmInstr.h ****     \param [in]  value  Value to count the leading zeros
 248:../Libraries/CMSIS/Include/core_cmInstr.h ****     \return             number of leading zeros in value
 249:../Libraries/CMSIS/Include/core_cmInstr.h ****  */
 250:../Libraries/CMSIS/Include/core_cmInstr.h **** #define __CLZ                             __clz 
 251:../Libraries/CMSIS/Include/core_cmInstr.h **** 
 252:../Libraries/CMSIS/Include/core_cmInstr.h **** #endif /* (__CORTEX_M >= 0x03) */
 253:../Libraries/CMSIS/Include/core_cmInstr.h **** 
 254:../Libraries/CMSIS/Include/core_cmInstr.h **** 
 255:../Libraries/CMSIS/Include/core_cmInstr.h **** 
 256:../Libraries/CMSIS/Include/core_cmInstr.h **** #elif defined ( __ICCARM__ ) /*------------------ ICC Compiler -------------------*/
 257:../Libraries/CMSIS/Include/core_cmInstr.h **** /* IAR iccarm specific functions */
 258:../Libraries/CMSIS/Include/core_cmInstr.h **** 
 259:../Libraries/CMSIS/Include/core_cmInstr.h **** #include <cmsis_iar.h>
 260:../Libraries/CMSIS/Include/core_cmInstr.h **** 
 261:../Libraries/CMSIS/Include/core_cmInstr.h **** 
 262:../Libraries/CMSIS/Include/core_cmInstr.h **** #elif defined ( __GNUC__ ) /*------------------ GNU Compiler ---------------------*/
 263:../Libraries/CMSIS/Include/core_cmInstr.h **** /* GNU gcc specific functions */
 264:../Libraries/CMSIS/Include/core_cmInstr.h **** 
 265:../Libraries/CMSIS/Include/core_cmInstr.h **** /** \brief  No Operation
 266:../Libraries/CMSIS/Include/core_cmInstr.h **** 
 267:../Libraries/CMSIS/Include/core_cmInstr.h ****     No Operation does nothing. This instruction can be used for code alignment purposes.
 268:../Libraries/CMSIS/Include/core_cmInstr.h ****  */
 269:../Libraries/CMSIS/Include/core_cmInstr.h **** __attribute__( ( always_inline ) ) static __INLINE void __NOP(void)
 270:../Libraries/CMSIS/Include/core_cmInstr.h **** {
 271:../Libraries/CMSIS/Include/core_cmInstr.h ****   __ASM volatile ("nop");
 272:../Libraries/CMSIS/Include/core_cmInstr.h **** }
 273:../Libraries/CMSIS/Include/core_cmInstr.h **** 
 274:../Libraries/CMSIS/Include/core_cmInstr.h **** 
 275:../Libraries/CMSIS/Include/core_cmInstr.h **** /** \brief  Wait For Interrupt
 276:../Libraries/CMSIS/Include/core_cmInstr.h **** 
 277:../Libraries/CMSIS/Include/core_cmInstr.h ****     Wait For Interrupt is a hint instruction that suspends execution
 278:../Libraries/CMSIS/Include/core_cmInstr.h ****     until one of a number of events occurs.
 279:../Libraries/CMSIS/Include/core_cmInstr.h ****  */
 280:../Libraries/CMSIS/Include/core_cmInstr.h **** __attribute__( ( always_inline ) ) static __INLINE void __WFI(void)
 281:../Libraries/CMSIS/Include/core_cmInstr.h **** {
 282:../Libraries/CMSIS/Include/core_cmInstr.h ****   __ASM volatile ("wfi");
 283:../Libraries/CMSIS/Include/core_cmInstr.h **** }
 284:../Libraries/CMSIS/Include/core_cmInstr.h **** 
 285:../Libraries/CMSIS/Include/core_cmInstr.h **** 
ARM GAS  C:\Users\admin\AppData\Local\Temp\ccSiiuKl.s 			page 14


 286:../Libraries/CMSIS/Include/core_cmInstr.h **** /** \brief  Wait For Event
 287:../Libraries/CMSIS/Include/core_cmInstr.h **** 
 288:../Libraries/CMSIS/Include/core_cmInstr.h ****     Wait For Event is a hint instruction that permits the processor to enter
 289:../Libraries/CMSIS/Include/core_cmInstr.h ****     a low-power state until one of a number of events occurs.
 290:../Libraries/CMSIS/Include/core_cmInstr.h ****  */
 291:../Libraries/CMSIS/Include/core_cmInstr.h **** __attribute__( ( always_inline ) ) static __INLINE void __WFE(void)
 292:../Libraries/CMSIS/Include/core_cmInstr.h **** {
 293:../Libraries/CMSIS/Include/core_cmInstr.h ****   __ASM volatile ("wfe");
 294:../Libraries/CMSIS/Include/core_cmInstr.h **** }
 295:../Libraries/CMSIS/Include/core_cmInstr.h **** 
 296:../Libraries/CMSIS/Include/core_cmInstr.h **** 
 297:../Libraries/CMSIS/Include/core_cmInstr.h **** /** \brief  Send Event
 298:../Libraries/CMSIS/Include/core_cmInstr.h **** 
 299:../Libraries/CMSIS/Include/core_cmInstr.h ****     Send Event is a hint instruction. It causes an event to be signaled to the CPU.
 300:../Libraries/CMSIS/Include/core_cmInstr.h ****  */
 301:../Libraries/CMSIS/Include/core_cmInstr.h **** __attribute__( ( always_inline ) ) static __INLINE void __SEV(void)
 302:../Libraries/CMSIS/Include/core_cmInstr.h **** {
 303:../Libraries/CMSIS/Include/core_cmInstr.h ****   __ASM volatile ("sev");
 304:../Libraries/CMSIS/Include/core_cmInstr.h **** }
 305:../Libraries/CMSIS/Include/core_cmInstr.h **** 
 306:../Libraries/CMSIS/Include/core_cmInstr.h **** 
 307:../Libraries/CMSIS/Include/core_cmInstr.h **** /** \brief  Instruction Synchronization Barrier
 308:../Libraries/CMSIS/Include/core_cmInstr.h **** 
 309:../Libraries/CMSIS/Include/core_cmInstr.h ****     Instruction Synchronization Barrier flushes the pipeline in the processor, 
 310:../Libraries/CMSIS/Include/core_cmInstr.h ****     so that all instructions following the ISB are fetched from cache or 
 311:../Libraries/CMSIS/Include/core_cmInstr.h ****     memory, after the instruction has been completed.
 312:../Libraries/CMSIS/Include/core_cmInstr.h ****  */
 313:../Libraries/CMSIS/Include/core_cmInstr.h **** __attribute__( ( always_inline ) ) static __INLINE void __ISB(void)
 314:../Libraries/CMSIS/Include/core_cmInstr.h **** {
 315:../Libraries/CMSIS/Include/core_cmInstr.h ****   __ASM volatile ("isb");
 316:../Libraries/CMSIS/Include/core_cmInstr.h **** }
 317:../Libraries/CMSIS/Include/core_cmInstr.h **** 
 318:../Libraries/CMSIS/Include/core_cmInstr.h **** 
 319:../Libraries/CMSIS/Include/core_cmInstr.h **** /** \brief  Data Synchronization Barrier
 320:../Libraries/CMSIS/Include/core_cmInstr.h **** 
 321:../Libraries/CMSIS/Include/core_cmInstr.h ****     This function acts as a special kind of Data Memory Barrier. 
 322:../Libraries/CMSIS/Include/core_cmInstr.h ****     It completes when all explicit memory accesses before this instruction complete.
 323:../Libraries/CMSIS/Include/core_cmInstr.h ****  */
 324:../Libraries/CMSIS/Include/core_cmInstr.h **** __attribute__( ( always_inline ) ) static __INLINE void __DSB(void)
 325:../Libraries/CMSIS/Include/core_cmInstr.h **** {
 326:../Libraries/CMSIS/Include/core_cmInstr.h ****   __ASM volatile ("dsb");
 327:../Libraries/CMSIS/Include/core_cmInstr.h **** }
 328:../Libraries/CMSIS/Include/core_cmInstr.h **** 
 329:../Libraries/CMSIS/Include/core_cmInstr.h **** 
 330:../Libraries/CMSIS/Include/core_cmInstr.h **** /** \brief  Data Memory Barrier
 331:../Libraries/CMSIS/Include/core_cmInstr.h **** 
 332:../Libraries/CMSIS/Include/core_cmInstr.h ****     This function ensures the apparent order of the explicit memory operations before 
 333:../Libraries/CMSIS/Include/core_cmInstr.h ****     and after the instruction, without ensuring their completion.
 334:../Libraries/CMSIS/Include/core_cmInstr.h ****  */
 335:../Libraries/CMSIS/Include/core_cmInstr.h **** __attribute__( ( always_inline ) ) static __INLINE void __DMB(void)
 336:../Libraries/CMSIS/Include/core_cmInstr.h **** {
 337:../Libraries/CMSIS/Include/core_cmInstr.h ****   __ASM volatile ("dmb");
 338:../Libraries/CMSIS/Include/core_cmInstr.h **** }
 339:../Libraries/CMSIS/Include/core_cmInstr.h **** 
 340:../Libraries/CMSIS/Include/core_cmInstr.h **** 
 341:../Libraries/CMSIS/Include/core_cmInstr.h **** /** \brief  Reverse byte order (32 bit)
 342:../Libraries/CMSIS/Include/core_cmInstr.h **** 
ARM GAS  C:\Users\admin\AppData\Local\Temp\ccSiiuKl.s 			page 15


 343:../Libraries/CMSIS/Include/core_cmInstr.h ****     This function reverses the byte order in integer value.
 344:../Libraries/CMSIS/Include/core_cmInstr.h **** 
 345:../Libraries/CMSIS/Include/core_cmInstr.h ****     \param [in]    value  Value to reverse
 346:../Libraries/CMSIS/Include/core_cmInstr.h ****     \return               Reversed value
 347:../Libraries/CMSIS/Include/core_cmInstr.h ****  */
 348:../Libraries/CMSIS/Include/core_cmInstr.h **** __attribute__( ( always_inline ) ) static __INLINE uint32_t __REV(uint32_t value)
 276              		.loc 2 348 61 view .LVU60
 277              	.LBB23:
 349:../Libraries/CMSIS/Include/core_cmInstr.h **** {
 350:../Libraries/CMSIS/Include/core_cmInstr.h ****   uint32_t result;
 278              		.loc 2 350 3 view .LVU61
 351:../Libraries/CMSIS/Include/core_cmInstr.h ****   
 352:../Libraries/CMSIS/Include/core_cmInstr.h ****   __ASM volatile ("rev %0, %1" : "=r" (result) : "r" (value) );
 279              		.loc 2 352 3 view .LVU62
 280 0076 079B     		ldr	r3, [sp, #28]	@ SHA1_MessageDigest.Data[0], SHA1_MessageDigest.Data[0]
 281              		.syntax unified
 282              	@ 352 "../Libraries/CMSIS/Include/core_cmInstr.h" 1
 283 0078 1BBA     		rev r3, r3	@ result, SHA1_MessageDigest.Data[0]
 284              	@ 0 "" 2
 285              	.LVL21:
 353:../Libraries/CMSIS/Include/core_cmInstr.h ****   return(result);
 286              		.loc 2 353 3 view .LVU63
 287              		.loc 2 353 3 is_stmt 0 view .LVU64
 288              		.thumb
 289              		.syntax unified
 290              	.LBE23:
 291              	.LBE22:
 292              	.LBB24:
 293              	.LBB25:
 294              	@ ../Libraries/CMSIS/Include/core_cmInstr.h:352:   __ASM volatile ("rev %0, %1" : "=r" (result) : "
 352:../Libraries/CMSIS/Include/core_cmInstr.h ****   return(result);
 295              		.loc 2 352 3 view .LVU65
 296 007a 089A     		ldr	r2, [sp, #32]	@ SHA1_MessageDigest.Data[1], SHA1_MessageDigest.Data[1]
 297              	.LBE25:
 298              	.LBE24:
 299              	@ ../Libraries/STM32F4xx_StdPeriph_Driver/src/stm32f4xx_hash_sha1.c:139:     *(uint32_t*)(outputadd
 139:../Libraries/STM32F4xx_StdPeriph_Driver/src/stm32f4xx_hash_sha1.c ****     outputaddr+=4;
 300              		.loc 1 139 31 view .LVU66
 301 007c 3360     		str	r3, [r6]	@ result, MEM[(uint32_t *)Output_31(D)]
 140:../Libraries/STM32F4xx_StdPeriph_Driver/src/stm32f4xx_hash_sha1.c ****     *(uint32_t*)(outputaddr)  = __REV(SHA1_MessageDigest.Data[1]);
 302              		.loc 1 140 5 is_stmt 1 view .LVU67
 303              	.LVL22:
 141:../Libraries/STM32F4xx_StdPeriph_Driver/src/stm32f4xx_hash_sha1.c ****     outputaddr+=4;
 304              		.loc 1 141 5 view .LVU68
 305              	.LBB27:
 306              	.LBI24:
 348:../Libraries/CMSIS/Include/core_cmInstr.h **** {
 307              		.loc 2 348 61 view .LVU69
 308              	.LBB26:
 350:../Libraries/CMSIS/Include/core_cmInstr.h ****   
 309              		.loc 2 350 3 view .LVU70
 352:../Libraries/CMSIS/Include/core_cmInstr.h ****   return(result);
 310              		.loc 2 352 3 view .LVU71
 311              		.syntax unified
 312              	@ 352 "../Libraries/CMSIS/Include/core_cmInstr.h" 1
 313 007e 12BA     		rev r2, r2	@ result, SHA1_MessageDigest.Data[1]
 314              	@ 0 "" 2
ARM GAS  C:\Users\admin\AppData\Local\Temp\ccSiiuKl.s 			page 16


 315              	.LVL23:
 316              		.loc 2 353 3 view .LVU72
 317              		.loc 2 353 3 is_stmt 0 view .LVU73
 318              		.thumb
 319              		.syntax unified
 320              	.LBE26:
 321              	.LBE27:
 322              	.LBB28:
 323              	.LBB29:
 324              	@ ../Libraries/CMSIS/Include/core_cmInstr.h:352:   __ASM volatile ("rev %0, %1" : "=r" (result) : "
 352:../Libraries/CMSIS/Include/core_cmInstr.h ****   return(result);
 325              		.loc 2 352 3 view .LVU74
 326 0080 099B     		ldr	r3, [sp, #36]	@ SHA1_MessageDigest.Data[2], SHA1_MessageDigest.Data[2]
 327              	.LBE29:
 328              	.LBE28:
 329              	@ ../Libraries/STM32F4xx_StdPeriph_Driver/src/stm32f4xx_hash_sha1.c:141:     *(uint32_t*)(outputadd
 141:../Libraries/STM32F4xx_StdPeriph_Driver/src/stm32f4xx_hash_sha1.c ****     outputaddr+=4;
 330              		.loc 1 141 31 view .LVU75
 331 0082 7260     		str	r2, [r6, #4]	@ result, *outputaddr.5_13
 142:../Libraries/STM32F4xx_StdPeriph_Driver/src/stm32f4xx_hash_sha1.c ****     *(uint32_t*)(outputaddr)  = __REV(SHA1_MessageDigest.Data[2]);
 332              		.loc 1 142 5 is_stmt 1 view .LVU76
 333              	.LVL24:
 143:../Libraries/STM32F4xx_StdPeriph_Driver/src/stm32f4xx_hash_sha1.c ****     outputaddr+=4;
 334              		.loc 1 143 5 view .LVU77
 335              	.LBB31:
 336              	.LBI28:
 348:../Libraries/CMSIS/Include/core_cmInstr.h **** {
 337              		.loc 2 348 61 view .LVU78
 338              	.LBB30:
 350:../Libraries/CMSIS/Include/core_cmInstr.h ****   
 339              		.loc 2 350 3 view .LVU79
 352:../Libraries/CMSIS/Include/core_cmInstr.h ****   return(result);
 340              		.loc 2 352 3 view .LVU80
 341              		.syntax unified
 342              	@ 352 "../Libraries/CMSIS/Include/core_cmInstr.h" 1
 343 0084 1BBA     		rev r3, r3	@ result, SHA1_MessageDigest.Data[2]
 344              	@ 0 "" 2
 345              	.LVL25:
 346              		.loc 2 353 3 view .LVU81
 347              		.loc 2 353 3 is_stmt 0 view .LVU82
 348              		.thumb
 349              		.syntax unified
 350              	.LBE30:
 351              	.LBE31:
 352              	.LBB32:
 353              	.LBB33:
 354              	@ ../Libraries/CMSIS/Include/core_cmInstr.h:352:   __ASM volatile ("rev %0, %1" : "=r" (result) : "
 352:../Libraries/CMSIS/Include/core_cmInstr.h ****   return(result);
 355              		.loc 2 352 3 view .LVU83
 356 0086 0A9A     		ldr	r2, [sp, #40]	@ SHA1_MessageDigest.Data[3], SHA1_MessageDigest.Data[3]
 357              	.LBE33:
 358              	.LBE32:
 359              	@ ../Libraries/STM32F4xx_StdPeriph_Driver/src/stm32f4xx_hash_sha1.c:143:     *(uint32_t*)(outputadd
 143:../Libraries/STM32F4xx_StdPeriph_Driver/src/stm32f4xx_hash_sha1.c ****     outputaddr+=4;
 360              		.loc 1 143 31 view .LVU84
 361 0088 B360     		str	r3, [r6, #8]	@ result, *outputaddr.6_15
 144:../Libraries/STM32F4xx_StdPeriph_Driver/src/stm32f4xx_hash_sha1.c ****     *(uint32_t*)(outputaddr)  = __REV(SHA1_MessageDigest.Data[3]);
ARM GAS  C:\Users\admin\AppData\Local\Temp\ccSiiuKl.s 			page 17


 362              		.loc 1 144 5 is_stmt 1 view .LVU85
 363              	.LVL26:
 145:../Libraries/STM32F4xx_StdPeriph_Driver/src/stm32f4xx_hash_sha1.c ****     outputaddr+=4;
 364              		.loc 1 145 5 view .LVU86
 365              	.LBB35:
 366              	.LBI32:
 348:../Libraries/CMSIS/Include/core_cmInstr.h **** {
 367              		.loc 2 348 61 view .LVU87
 368              	.LBB34:
 350:../Libraries/CMSIS/Include/core_cmInstr.h ****   
 369              		.loc 2 350 3 view .LVU88
 352:../Libraries/CMSIS/Include/core_cmInstr.h ****   return(result);
 370              		.loc 2 352 3 view .LVU89
 371              		.syntax unified
 372              	@ 352 "../Libraries/CMSIS/Include/core_cmInstr.h" 1
 373 008a 12BA     		rev r2, r2	@ result, SHA1_MessageDigest.Data[3]
 374              	@ 0 "" 2
 375              	.LVL27:
 376              		.loc 2 353 3 view .LVU90
 377              		.loc 2 353 3 is_stmt 0 view .LVU91
 378              		.thumb
 379              		.syntax unified
 380              	.LBE34:
 381              	.LBE35:
 382              	.LBB36:
 383              	.LBB37:
 384              	@ ../Libraries/CMSIS/Include/core_cmInstr.h:352:   __ASM volatile ("rev %0, %1" : "=r" (result) : "
 352:../Libraries/CMSIS/Include/core_cmInstr.h ****   return(result);
 385              		.loc 2 352 3 view .LVU92
 386 008c 0B9B     		ldr	r3, [sp, #44]	@ SHA1_MessageDigest.Data[4], SHA1_MessageDigest.Data[4]
 387              	.LBE37:
 388              	.LBE36:
 389              	@ ../Libraries/STM32F4xx_StdPeriph_Driver/src/stm32f4xx_hash_sha1.c:145:     *(uint32_t*)(outputadd
 145:../Libraries/STM32F4xx_StdPeriph_Driver/src/stm32f4xx_hash_sha1.c ****     outputaddr+=4;
 390              		.loc 1 145 31 view .LVU93
 391 008e F260     		str	r2, [r6, #12]	@ result, *outputaddr.7_17
 146:../Libraries/STM32F4xx_StdPeriph_Driver/src/stm32f4xx_hash_sha1.c ****     *(uint32_t*)(outputaddr)  = __REV(SHA1_MessageDigest.Data[4]);
 392              		.loc 1 146 5 is_stmt 1 view .LVU94
 393              	.LVL28:
 147:../Libraries/STM32F4xx_StdPeriph_Driver/src/stm32f4xx_hash_sha1.c ****   }
 394              		.loc 1 147 5 view .LVU95
 395              	.LBB39:
 396              	.LBI36:
 348:../Libraries/CMSIS/Include/core_cmInstr.h **** {
 397              		.loc 2 348 61 view .LVU96
 398              	.LBB38:
 350:../Libraries/CMSIS/Include/core_cmInstr.h ****   
 399              		.loc 2 350 3 view .LVU97
 352:../Libraries/CMSIS/Include/core_cmInstr.h ****   return(result);
 400              		.loc 2 352 3 view .LVU98
 401              		.syntax unified
 402              	@ 352 "../Libraries/CMSIS/Include/core_cmInstr.h" 1
 403 0090 1BBA     		rev r3, r3	@ result, SHA1_MessageDigest.Data[4]
 404              	@ 0 "" 2
 405              	.LVL29:
 406              		.loc 2 353 3 view .LVU99
 407              		.loc 2 353 3 is_stmt 0 view .LVU100
ARM GAS  C:\Users\admin\AppData\Local\Temp\ccSiiuKl.s 			page 18


 408              		.thumb
 409              		.syntax unified
 410              	.LBE38:
 411              	.LBE39:
 412              	@ ../Libraries/STM32F4xx_StdPeriph_Driver/src/stm32f4xx_hash_sha1.c:95:   ErrorStatus status = SUCC
  95:../Libraries/STM32F4xx_StdPeriph_Driver/src/stm32f4xx_hash_sha1.c ****   uint32_t inputaddr  = (uint32_t)Input;
 413              		.loc 1 95 15 view .LVU101
 414 0092 0120     		movs	r0, #1	@ <retval>,
 415              	@ ../Libraries/STM32F4xx_StdPeriph_Driver/src/stm32f4xx_hash_sha1.c:147:     *(uint32_t*)(outputadd
 147:../Libraries/STM32F4xx_StdPeriph_Driver/src/stm32f4xx_hash_sha1.c ****   }
 416              		.loc 1 147 31 view .LVU102
 417 0094 3361     		str	r3, [r6, #16]	@ result, *outputaddr.8_19
 418              	.LVL30:
 149:../Libraries/STM32F4xx_StdPeriph_Driver/src/stm32f4xx_hash_sha1.c **** }
 419              		.loc 1 149 3 is_stmt 1 view .LVU103
 420              	@ ../Libraries/STM32F4xx_StdPeriph_Driver/src/stm32f4xx_hash_sha1.c:150: }
 421              		.loc 1 150 1 is_stmt 0 view .LVU104
 422 0096 0DB0     		add	sp, sp, #52	@,,
 423              		.cfi_def_cfa_offset 20
 424              		@ sp needed	@
 425 0098 F0BD     		pop	{r4, r5, r6, r7, pc}	@
 426              		.loc 1 150 1 view .LVU105
 427              		.cfi_endproc
 428              	.LFE110:
 429              		.size	HASH_SHA1, .-HASH_SHA1
 430 009a 00BF     		.section	.text.HMAC_SHA1,"ax",%progbits
 431              		.align	1
 432              		.p2align 2,,3
 433              		.global	HMAC_SHA1
 434              		.syntax unified
 435              		.thumb
 436              		.thumb_func
 437              		.type	HMAC_SHA1, %function
 438              	HMAC_SHA1:
 439              	.LVL31:
 440              	.LFB111:
 151:../Libraries/STM32F4xx_StdPeriph_Driver/src/stm32f4xx_hash_sha1.c **** 
 152:../Libraries/STM32F4xx_StdPeriph_Driver/src/stm32f4xx_hash_sha1.c **** /**
 153:../Libraries/STM32F4xx_StdPeriph_Driver/src/stm32f4xx_hash_sha1.c ****   * @brief  Compute the HMAC SHA1 digest.
 154:../Libraries/STM32F4xx_StdPeriph_Driver/src/stm32f4xx_hash_sha1.c ****   * @param  Key: pointer to the Key used for HMAC.
 155:../Libraries/STM32F4xx_StdPeriph_Driver/src/stm32f4xx_hash_sha1.c ****   * @param  Keylen: length of the Key used for HMAC.  
 156:../Libraries/STM32F4xx_StdPeriph_Driver/src/stm32f4xx_hash_sha1.c ****   * @param  Input: pointer to the Input buffer to be treated.
 157:../Libraries/STM32F4xx_StdPeriph_Driver/src/stm32f4xx_hash_sha1.c ****   * @param  Ilen: length of the Input buffer.
 158:../Libraries/STM32F4xx_StdPeriph_Driver/src/stm32f4xx_hash_sha1.c ****   * @param  Output: the returned digest
 159:../Libraries/STM32F4xx_StdPeriph_Driver/src/stm32f4xx_hash_sha1.c ****   * @retval An ErrorStatus enumeration value:
 160:../Libraries/STM32F4xx_StdPeriph_Driver/src/stm32f4xx_hash_sha1.c ****   *          - SUCCESS: digest computation done
 161:../Libraries/STM32F4xx_StdPeriph_Driver/src/stm32f4xx_hash_sha1.c ****   *          - ERROR: digest computation failed
 162:../Libraries/STM32F4xx_StdPeriph_Driver/src/stm32f4xx_hash_sha1.c ****   */
 163:../Libraries/STM32F4xx_StdPeriph_Driver/src/stm32f4xx_hash_sha1.c **** ErrorStatus HMAC_SHA1(uint8_t *Key, uint32_t Keylen, uint8_t *Input,
 164:../Libraries/STM32F4xx_StdPeriph_Driver/src/stm32f4xx_hash_sha1.c ****                       uint32_t Ilen, uint8_t Output[20])
 165:../Libraries/STM32F4xx_StdPeriph_Driver/src/stm32f4xx_hash_sha1.c **** {
 441              		.loc 1 165 1 is_stmt 1 view -0
 442              		.cfi_startproc
 443              		@ args = 4, pretend = 0, frame = 48
 444              		@ frame_needed = 0, uses_anonymous_args = 0
 166:../Libraries/STM32F4xx_StdPeriph_Driver/src/stm32f4xx_hash_sha1.c ****   HASH_InitTypeDef SHA1_HASH_InitStructure;
 445              		.loc 1 166 3 view .LVU107
ARM GAS  C:\Users\admin\AppData\Local\Temp\ccSiiuKl.s 			page 19


 167:../Libraries/STM32F4xx_StdPeriph_Driver/src/stm32f4xx_hash_sha1.c ****   HASH_MsgDigest SHA1_MessageDigest;
 446              		.loc 1 167 3 view .LVU108
 168:../Libraries/STM32F4xx_StdPeriph_Driver/src/stm32f4xx_hash_sha1.c ****   __IO uint16_t nbvalidbitsdata = 0;
 447              		.loc 1 168 3 view .LVU109
 448              	@ ../Libraries/STM32F4xx_StdPeriph_Driver/src/stm32f4xx_hash_sha1.c:165: {
 165:../Libraries/STM32F4xx_StdPeriph_Driver/src/stm32f4xx_hash_sha1.c ****   HASH_InitTypeDef SHA1_HASH_InitStructure;
 449              		.loc 1 165 1 is_stmt 0 view .LVU110
 450 0000 2DE9F043 		push	{r4, r5, r6, r7, r8, r9, lr}	@
 451              		.cfi_def_cfa_offset 28
 452              		.cfi_offset 4, -28
 453              		.cfi_offset 5, -24
 454              		.cfi_offset 6, -20
 455              		.cfi_offset 7, -16
 456              		.cfi_offset 8, -12
 457              		.cfi_offset 9, -8
 458              		.cfi_offset 14, -4
 459 0004 1F46     		mov	r7, r3	@ Ilen, tmp230
 460 0006 8DB0     		sub	sp, sp, #52	@,,
 461              		.cfi_def_cfa_offset 80
 462              	@ ../Libraries/STM32F4xx_StdPeriph_Driver/src/stm32f4xx_hash_sha1.c:179:   nbvalidbitsdata = 8 * (I
 169:../Libraries/STM32F4xx_StdPeriph_Driver/src/stm32f4xx_hash_sha1.c ****   __IO uint16_t nbvalidbitskey = 0;
 170:../Libraries/STM32F4xx_StdPeriph_Driver/src/stm32f4xx_hash_sha1.c ****   uint32_t i = 0;
 171:../Libraries/STM32F4xx_StdPeriph_Driver/src/stm32f4xx_hash_sha1.c ****   __IO uint32_t counter = 0;
 172:../Libraries/STM32F4xx_StdPeriph_Driver/src/stm32f4xx_hash_sha1.c ****   uint32_t busystatus = 0;
 173:../Libraries/STM32F4xx_StdPeriph_Driver/src/stm32f4xx_hash_sha1.c ****   ErrorStatus status = SUCCESS;
 174:../Libraries/STM32F4xx_StdPeriph_Driver/src/stm32f4xx_hash_sha1.c ****   uint32_t keyaddr    = (uint32_t)Key;
 175:../Libraries/STM32F4xx_StdPeriph_Driver/src/stm32f4xx_hash_sha1.c ****   uint32_t inputaddr  = (uint32_t)Input;
 176:../Libraries/STM32F4xx_StdPeriph_Driver/src/stm32f4xx_hash_sha1.c ****   uint32_t outputaddr = (uint32_t)Output;
 177:../Libraries/STM32F4xx_StdPeriph_Driver/src/stm32f4xx_hash_sha1.c **** 
 178:../Libraries/STM32F4xx_StdPeriph_Driver/src/stm32f4xx_hash_sha1.c ****   /* Number of valid bits in last word of the Input data */
 179:../Libraries/STM32F4xx_StdPeriph_Driver/src/stm32f4xx_hash_sha1.c ****   nbvalidbitsdata = 8 * (Ilen % 4);
 463              		.loc 1 179 19 view .LVU111
 464 0008 03F00303 		and	r3, r3, #3	@ tmp181, Ilen,
 465              	.LVL32:
 466              	@ ../Libraries/STM32F4xx_StdPeriph_Driver/src/stm32f4xx_hash_sha1.c:168:   __IO uint16_t nbvalidbit
 168:../Libraries/STM32F4xx_StdPeriph_Driver/src/stm32f4xx_hash_sha1.c ****   __IO uint16_t nbvalidbitskey = 0;
 467              		.loc 1 168 17 view .LVU112
 468 000c 0024     		movs	r4, #0	@ tmp176,
 469              	@ ../Libraries/STM32F4xx_StdPeriph_Driver/src/stm32f4xx_hash_sha1.c:179:   nbvalidbitsdata = 8 * (I
 470              		.loc 1 179 19 view .LVU113
 471 000e DB00     		lsls	r3, r3, #3	@ _3, tmp181,
 472              	@ ../Libraries/STM32F4xx_StdPeriph_Driver/src/stm32f4xx_hash_sha1.c:168:   __IO uint16_t nbvalidbit
 168:../Libraries/STM32F4xx_StdPeriph_Driver/src/stm32f4xx_hash_sha1.c ****   __IO uint16_t nbvalidbitskey = 0;
 473              		.loc 1 168 17 view .LVU114
 474 0010 ADF80040 		strh	r4, [sp]	@ movhi	@ tmp176, nbvalidbitsdata
 169:../Libraries/STM32F4xx_StdPeriph_Driver/src/stm32f4xx_hash_sha1.c ****   __IO uint16_t nbvalidbitskey = 0;
 475              		.loc 1 169 3 is_stmt 1 view .LVU115
 476              	@ ../Libraries/STM32F4xx_StdPeriph_Driver/src/stm32f4xx_hash_sha1.c:169:   __IO uint16_t nbvalidbit
 169:../Libraries/STM32F4xx_StdPeriph_Driver/src/stm32f4xx_hash_sha1.c ****   __IO uint16_t nbvalidbitskey = 0;
 477              		.loc 1 169 17 is_stmt 0 view .LVU116
 478 0014 ADF80240 		strh	r4, [sp, #2]	@ movhi	@ tmp176, nbvalidbitskey
 170:../Libraries/STM32F4xx_StdPeriph_Driver/src/stm32f4xx_hash_sha1.c ****   __IO uint32_t counter = 0;
 479              		.loc 1 170 3 is_stmt 1 view .LVU117
 480              	.LVL33:
 171:../Libraries/STM32F4xx_StdPeriph_Driver/src/stm32f4xx_hash_sha1.c ****   uint32_t busystatus = 0;
 481              		.loc 1 171 3 view .LVU118
 482              	@ ../Libraries/STM32F4xx_StdPeriph_Driver/src/stm32f4xx_hash_sha1.c:171:   __IO uint32_t counter = 
ARM GAS  C:\Users\admin\AppData\Local\Temp\ccSiiuKl.s 			page 20


 171:../Libraries/STM32F4xx_StdPeriph_Driver/src/stm32f4xx_hash_sha1.c ****   uint32_t busystatus = 0;
 483              		.loc 1 171 17 is_stmt 0 view .LVU119
 484 0018 0194     		str	r4, [sp, #4]	@ tmp176, counter
 172:../Libraries/STM32F4xx_StdPeriph_Driver/src/stm32f4xx_hash_sha1.c ****   ErrorStatus status = SUCCESS;
 485              		.loc 1 172 3 is_stmt 1 view .LVU120
 486              	.LVL34:
 173:../Libraries/STM32F4xx_StdPeriph_Driver/src/stm32f4xx_hash_sha1.c ****   uint32_t keyaddr    = (uint32_t)Key;
 487              		.loc 1 173 3 view .LVU121
 174:../Libraries/STM32F4xx_StdPeriph_Driver/src/stm32f4xx_hash_sha1.c ****   uint32_t inputaddr  = (uint32_t)Input;
 488              		.loc 1 174 3 view .LVU122
 489              	@ ../Libraries/STM32F4xx_StdPeriph_Driver/src/stm32f4xx_hash_sha1.c:179:   nbvalidbitsdata = 8 * (I
 490              		.loc 1 179 19 is_stmt 0 view .LVU123
 491 001a ADF80030 		strh	r3, [sp]	@ movhi	@ _3, nbvalidbitsdata
 492              	@ ../Libraries/STM32F4xx_StdPeriph_Driver/src/stm32f4xx_hash_sha1.c:182:   nbvalidbitskey = 8 * (Ke
 180:../Libraries/STM32F4xx_StdPeriph_Driver/src/stm32f4xx_hash_sha1.c **** 
 181:../Libraries/STM32F4xx_StdPeriph_Driver/src/stm32f4xx_hash_sha1.c ****   /* Number of valid bits in last word of the Key */
 182:../Libraries/STM32F4xx_StdPeriph_Driver/src/stm32f4xx_hash_sha1.c ****   nbvalidbitskey = 8 * (Keylen % 4);
 493              		.loc 1 182 18 view .LVU124
 494 001e 01F00303 		and	r3, r1, #3	@ tmp186, Keylen,
 495 0022 DB00     		lsls	r3, r3, #3	@ _6, tmp186,
 496              	@ ../Libraries/STM32F4xx_StdPeriph_Driver/src/stm32f4xx_hash_sha1.c:165: {
 165:../Libraries/STM32F4xx_StdPeriph_Driver/src/stm32f4xx_hash_sha1.c ****   HASH_InitTypeDef SHA1_HASH_InitStructure;
 497              		.loc 1 165 1 view .LVU125
 498 0024 0D46     		mov	r5, r1	@ Keylen, tmp228
 499 0026 8146     		mov	r9, r0	@ Key, tmp227
 500 0028 1646     		mov	r6, r2	@ Input, tmp229
 501              	@ ../Libraries/STM32F4xx_StdPeriph_Driver/src/stm32f4xx_hash_sha1.c:182:   nbvalidbitskey = 8 * (Ke
 502              		.loc 1 182 18 view .LVU126
 503 002a ADF80230 		strh	r3, [sp, #2]	@ movhi	@ _6, nbvalidbitskey
 504              	@ ../Libraries/STM32F4xx_StdPeriph_Driver/src/stm32f4xx_hash_sha1.c:185:   HASH_DeInit();
 183:../Libraries/STM32F4xx_StdPeriph_Driver/src/stm32f4xx_hash_sha1.c **** 
 184:../Libraries/STM32F4xx_StdPeriph_Driver/src/stm32f4xx_hash_sha1.c ****   /* HASH peripheral initialization */
 185:../Libraries/STM32F4xx_StdPeriph_Driver/src/stm32f4xx_hash_sha1.c ****   HASH_DeInit();
 505              		.loc 1 185 3 view .LVU127
 506 002e FFF7FEFF 		bl	HASH_DeInit		@
 507              	.LVL35:
 508              	@ ../Libraries/STM32F4xx_StdPeriph_Driver/src/stm32f4xx_hash_sha1.c:190:   SHA1_HASH_InitStructure.
 186:../Libraries/STM32F4xx_StdPeriph_Driver/src/stm32f4xx_hash_sha1.c **** 
 187:../Libraries/STM32F4xx_StdPeriph_Driver/src/stm32f4xx_hash_sha1.c ****   /* HASH Configuration */
 188:../Libraries/STM32F4xx_StdPeriph_Driver/src/stm32f4xx_hash_sha1.c ****   SHA1_HASH_InitStructure.HASH_AlgoSelection = HASH_AlgoSelection_SHA1;
 189:../Libraries/STM32F4xx_StdPeriph_Driver/src/stm32f4xx_hash_sha1.c ****   SHA1_HASH_InitStructure.HASH_AlgoMode = HASH_AlgoMode_HMAC;
 190:../Libraries/STM32F4xx_StdPeriph_Driver/src/stm32f4xx_hash_sha1.c ****   SHA1_HASH_InitStructure.HASH_DataType = HASH_DataType_8b;
 509              		.loc 1 190 41 view .LVU128
 510 0032 2023     		movs	r3, #32	@ tmp191,
 511 0034 0493     		str	r3, [sp, #16]	@ tmp191, SHA1_HASH_InitStructure.HASH_DataType
 512              	@ ../Libraries/STM32F4xx_StdPeriph_Driver/src/stm32f4xx_hash_sha1.c:188:   SHA1_HASH_InitStructure.
 188:../Libraries/STM32F4xx_StdPeriph_Driver/src/stm32f4xx_hash_sha1.c ****   SHA1_HASH_InitStructure.HASH_AlgoMode = HASH_AlgoMode_HMAC;
 513              		.loc 1 188 46 view .LVU129
 514 0036 0022     		movs	r2, #0	@ tmp190,
 515 0038 4023     		movs	r3, #64	@,
 516              	@ ../Libraries/STM32F4xx_StdPeriph_Driver/src/stm32f4xx_hash_sha1.c:191:   if(Keylen > 64)
 191:../Libraries/STM32F4xx_StdPeriph_Driver/src/stm32f4xx_hash_sha1.c ****   if(Keylen > 64)
 517              		.loc 1 191 5 view .LVU130
 518 003a 402D     		cmp	r5, #64	@ Keylen,
 519              	@ ../Libraries/STM32F4xx_StdPeriph_Driver/src/stm32f4xx_hash_sha1.c:188:   SHA1_HASH_InitStructure.
 188:../Libraries/STM32F4xx_StdPeriph_Driver/src/stm32f4xx_hash_sha1.c ****   SHA1_HASH_InitStructure.HASH_AlgoMode = HASH_AlgoMode_HMAC;
 520              		.loc 1 188 46 view .LVU131
ARM GAS  C:\Users\admin\AppData\Local\Temp\ccSiiuKl.s 			page 21


 521 003c CDE90223 		strd	r2, [sp, #8]	@ tmp190,,
 522              	@ ../Libraries/STM32F4xx_StdPeriph_Driver/src/stm32f4xx_hash_sha1.c:174:   uint32_t keyaddr    = (u
 174:../Libraries/STM32F4xx_StdPeriph_Driver/src/stm32f4xx_hash_sha1.c ****   uint32_t inputaddr  = (uint32_t)Input;
 523              		.loc 1 174 12 view .LVU132
 524 0040 C846     		mov	r8, r9	@ keyaddr, Key
 525              	.LVL36:
 175:../Libraries/STM32F4xx_StdPeriph_Driver/src/stm32f4xx_hash_sha1.c ****   uint32_t outputaddr = (uint32_t)Output;
 526              		.loc 1 175 3 is_stmt 1 view .LVU133
 176:../Libraries/STM32F4xx_StdPeriph_Driver/src/stm32f4xx_hash_sha1.c **** 
 527              		.loc 1 176 3 view .LVU134
 179:../Libraries/STM32F4xx_StdPeriph_Driver/src/stm32f4xx_hash_sha1.c **** 
 528              		.loc 1 179 3 view .LVU135
 182:../Libraries/STM32F4xx_StdPeriph_Driver/src/stm32f4xx_hash_sha1.c **** 
 529              		.loc 1 182 3 view .LVU136
 185:../Libraries/STM32F4xx_StdPeriph_Driver/src/stm32f4xx_hash_sha1.c **** 
 530              		.loc 1 185 3 view .LVU137
 188:../Libraries/STM32F4xx_StdPeriph_Driver/src/stm32f4xx_hash_sha1.c ****   SHA1_HASH_InitStructure.HASH_AlgoMode = HASH_AlgoMode_HMAC;
 531              		.loc 1 188 3 view .LVU138
 189:../Libraries/STM32F4xx_StdPeriph_Driver/src/stm32f4xx_hash_sha1.c ****   SHA1_HASH_InitStructure.HASH_DataType = HASH_DataType_8b;
 532              		.loc 1 189 3 view .LVU139
 190:../Libraries/STM32F4xx_StdPeriph_Driver/src/stm32f4xx_hash_sha1.c ****   if(Keylen > 64)
 533              		.loc 1 190 3 view .LVU140
 534              		.loc 1 191 3 view .LVU141
 535              	@ ../Libraries/STM32F4xx_StdPeriph_Driver/src/stm32f4xx_hash_sha1.c:191:   if(Keylen > 64)
 536              		.loc 1 191 5 is_stmt 0 view .LVU142
 537 0042 24D8     		bhi	.L18		@,
 538              	@ ../Libraries/STM32F4xx_StdPeriph_Driver/src/stm32f4xx_hash_sha1.c:201:   HASH_Init(&SHA1_HASH_Ini
 192:../Libraries/STM32F4xx_StdPeriph_Driver/src/stm32f4xx_hash_sha1.c ****   {
 193:../Libraries/STM32F4xx_StdPeriph_Driver/src/stm32f4xx_hash_sha1.c ****     /* HMAC long Key */
 194:../Libraries/STM32F4xx_StdPeriph_Driver/src/stm32f4xx_hash_sha1.c ****     SHA1_HASH_InitStructure.HASH_HMACKeyType = HASH_HMACKeyType_LongKey;
 195:../Libraries/STM32F4xx_StdPeriph_Driver/src/stm32f4xx_hash_sha1.c ****   }
 196:../Libraries/STM32F4xx_StdPeriph_Driver/src/stm32f4xx_hash_sha1.c ****   else
 197:../Libraries/STM32F4xx_StdPeriph_Driver/src/stm32f4xx_hash_sha1.c ****   {
 198:../Libraries/STM32F4xx_StdPeriph_Driver/src/stm32f4xx_hash_sha1.c ****     /* HMAC short Key */
 199:../Libraries/STM32F4xx_StdPeriph_Driver/src/stm32f4xx_hash_sha1.c ****     SHA1_HASH_InitStructure.HASH_HMACKeyType = HASH_HMACKeyType_ShortKey;
 200:../Libraries/STM32F4xx_StdPeriph_Driver/src/stm32f4xx_hash_sha1.c ****   }
 201:../Libraries/STM32F4xx_StdPeriph_Driver/src/stm32f4xx_hash_sha1.c ****   HASH_Init(&SHA1_HASH_InitStructure);
 539              		.loc 1 201 3 view .LVU143
 540 0044 02A8     		add	r0, sp, #8	@,,
 541 0046 0594     		str	r4, [sp, #20]	@ tmp176, SHA1_HASH_InitStructure.HASH_HMACKeyType
 542              		.loc 1 201 3 is_stmt 1 view .LVU144
 543 0048 FFF7FEFF 		bl	HASH_Init		@
 544              	.LVL37:
 202:../Libraries/STM32F4xx_StdPeriph_Driver/src/stm32f4xx_hash_sha1.c **** 
 203:../Libraries/STM32F4xx_StdPeriph_Driver/src/stm32f4xx_hash_sha1.c ****   /* Configure the number of valid bits in last word of the Key */
 204:../Libraries/STM32F4xx_StdPeriph_Driver/src/stm32f4xx_hash_sha1.c ****   HASH_SetLastWordValidBitsNbr(nbvalidbitskey);
 545              		.loc 1 204 3 view .LVU145
 546 004c BDF80200 		ldrh	r0, [sp, #2]	@, nbvalidbitskey
 547 0050 80B2     		uxth	r0, r0	@, nbvalidbitskey
 548 0052 FFF7FEFF 		bl	HASH_SetLastWordValidBitsNbr		@
 549              	.LVL38:
 205:../Libraries/STM32F4xx_StdPeriph_Driver/src/stm32f4xx_hash_sha1.c **** 
 206:../Libraries/STM32F4xx_StdPeriph_Driver/src/stm32f4xx_hash_sha1.c ****   /* Write the Key */
 207:../Libraries/STM32F4xx_StdPeriph_Driver/src/stm32f4xx_hash_sha1.c ****   for(i=0; i<Keylen; i+=4)
 550              		.loc 1 207 3 view .LVU146
 551              		.loc 1 207 12 view .LVU147
 552              	@ ../Libraries/STM32F4xx_StdPeriph_Driver/src/stm32f4xx_hash_sha1.c:207:   for(i=0; i<Keylen; i+=4)
ARM GAS  C:\Users\admin\AppData\Local\Temp\ccSiiuKl.s 			page 22


 553              		.loc 1 207 3 is_stmt 0 view .LVU148
 554 0056 3DB1     		cbz	r5, .L19	@ Keylen,
 555              	.L36:
 556              	@ ../Libraries/STM32F4xx_StdPeriph_Driver/src/stm32f4xx_hash_sha1.c:165: {
 165:../Libraries/STM32F4xx_StdPeriph_Driver/src/stm32f4xx_hash_sha1.c ****   HASH_InitTypeDef SHA1_HASH_InitStructure;
 557              		.loc 1 165 1 discriminator 3 view .LVU149
 558 0058 0024     		movs	r4, #0	@ i,
 559              	.LVL39:
 560              	.L20:
 208:../Libraries/STM32F4xx_StdPeriph_Driver/src/stm32f4xx_hash_sha1.c ****   {
 209:../Libraries/STM32F4xx_StdPeriph_Driver/src/stm32f4xx_hash_sha1.c ****     HASH_DataIn(*(uint32_t*)keyaddr);
 561              		.loc 1 209 5 is_stmt 1 discriminator 3 view .LVU150
 562 005a 59F8040B 		ldr	r0, [r9], #4	@, MEM[base: _38, offset: 0B]
 563              	.LVL40:
 564              	@ ../Libraries/STM32F4xx_StdPeriph_Driver/src/stm32f4xx_hash_sha1.c:207:   for(i=0; i<Keylen; i+=4)
 207:../Libraries/STM32F4xx_StdPeriph_Driver/src/stm32f4xx_hash_sha1.c ****   {
 565              		.loc 1 207 23 is_stmt 0 discriminator 3 view .LVU151
 566 005e 0434     		adds	r4, r4, #4	@ i, i,
 567              	.LVL41:
 568              	@ ../Libraries/STM32F4xx_StdPeriph_Driver/src/stm32f4xx_hash_sha1.c:209:     HASH_DataIn(*(uint32_t
 569              		.loc 1 209 5 discriminator 3 view .LVU152
 570 0060 FFF7FEFF 		bl	HASH_DataIn		@
 571              	.LVL42:
 210:../Libraries/STM32F4xx_StdPeriph_Driver/src/stm32f4xx_hash_sha1.c ****     keyaddr+=4;
 572              		.loc 1 210 5 is_stmt 1 discriminator 3 view .LVU153
 207:../Libraries/STM32F4xx_StdPeriph_Driver/src/stm32f4xx_hash_sha1.c ****   {
 573              		.loc 1 207 22 discriminator 3 view .LVU154
 207:../Libraries/STM32F4xx_StdPeriph_Driver/src/stm32f4xx_hash_sha1.c ****   {
 574              		.loc 1 207 12 discriminator 3 view .LVU155
 575              	@ ../Libraries/STM32F4xx_StdPeriph_Driver/src/stm32f4xx_hash_sha1.c:207:   for(i=0; i<Keylen; i+=4)
 207:../Libraries/STM32F4xx_StdPeriph_Driver/src/stm32f4xx_hash_sha1.c ****   {
 576              		.loc 1 207 3 is_stmt 0 discriminator 3 view .LVU156
 577 0064 A542     		cmp	r5, r4	@ Keylen, i
 578 0066 F8D8     		bhi	.L20		@,
 579              	.LVL43:
 580              	.L19:
 211:../Libraries/STM32F4xx_StdPeriph_Driver/src/stm32f4xx_hash_sha1.c ****   }
 212:../Libraries/STM32F4xx_StdPeriph_Driver/src/stm32f4xx_hash_sha1.c **** 
 213:../Libraries/STM32F4xx_StdPeriph_Driver/src/stm32f4xx_hash_sha1.c ****   /* Start the HASH processor */
 214:../Libraries/STM32F4xx_StdPeriph_Driver/src/stm32f4xx_hash_sha1.c ****   HASH_StartDigest();
 581              		.loc 1 214 3 is_stmt 1 view .LVU157
 582 0068 FFF7FEFF 		bl	HASH_StartDigest		@
 583              	.LVL44:
 584 006c 00E0     		b	.L22		@
 585              	.LVL45:
 586              	.L57:
 587              	@ ../Libraries/STM32F4xx_StdPeriph_Driver/src/stm32f4xx_hash_sha1.c:221:   }while ((counter != SHA1
 215:../Libraries/STM32F4xx_StdPeriph_Driver/src/stm32f4xx_hash_sha1.c **** 
 216:../Libraries/STM32F4xx_StdPeriph_Driver/src/stm32f4xx_hash_sha1.c ****   /* wait until the Busy flag is RESET */
 217:../Libraries/STM32F4xx_StdPeriph_Driver/src/stm32f4xx_hash_sha1.c ****   do
 218:../Libraries/STM32F4xx_StdPeriph_Driver/src/stm32f4xx_hash_sha1.c ****   {
 219:../Libraries/STM32F4xx_StdPeriph_Driver/src/stm32f4xx_hash_sha1.c ****     busystatus = HASH_GetFlagStatus(HASH_FLAG_BUSY);
 220:../Libraries/STM32F4xx_StdPeriph_Driver/src/stm32f4xx_hash_sha1.c ****     counter++;
 221:../Libraries/STM32F4xx_StdPeriph_Driver/src/stm32f4xx_hash_sha1.c ****   }while ((counter != SHA1BUSY_TIMEOUT) && (busystatus != RESET));
 588              		.loc 1 221 41 is_stmt 0 discriminator 1 view .LVU158
 589 006e D0B1     		cbz	r0, .L23	@ tmp197,
 590              	.LVL46:
ARM GAS  C:\Users\admin\AppData\Local\Temp\ccSiiuKl.s 			page 23


 591              	.L22:
 217:../Libraries/STM32F4xx_StdPeriph_Driver/src/stm32f4xx_hash_sha1.c ****   {
 592              		.loc 1 217 3 is_stmt 1 discriminator 2 view .LVU159
 219:../Libraries/STM32F4xx_StdPeriph_Driver/src/stm32f4xx_hash_sha1.c ****     counter++;
 593              		.loc 1 219 5 discriminator 2 view .LVU160
 594              	@ ../Libraries/STM32F4xx_StdPeriph_Driver/src/stm32f4xx_hash_sha1.c:219:     busystatus = HASH_GetF
 219:../Libraries/STM32F4xx_StdPeriph_Driver/src/stm32f4xx_hash_sha1.c ****     counter++;
 595              		.loc 1 219 18 is_stmt 0 discriminator 2 view .LVU161
 596 0070 0820     		movs	r0, #8	@,
 597 0072 FFF7FEFF 		bl	HASH_GetFlagStatus		@
 598              	.LVL47:
 599              	@ ../Libraries/STM32F4xx_StdPeriph_Driver/src/stm32f4xx_hash_sha1.c:220:     counter++;
 220:../Libraries/STM32F4xx_StdPeriph_Driver/src/stm32f4xx_hash_sha1.c ****   }while ((counter != SHA1BUSY_TIMEOUT) && (busystatus != RESET));
 600              		.loc 1 220 12 discriminator 2 view .LVU162
 601 0076 019C     		ldr	r4, [sp, #4]	@ counter.11_11, counter
 602              	.LVL48:
 220:../Libraries/STM32F4xx_StdPeriph_Driver/src/stm32f4xx_hash_sha1.c ****   }while ((counter != SHA1BUSY_TIMEOUT) && (busystatus != RESET));
 603              		.loc 1 220 5 is_stmt 1 discriminator 2 view .LVU163
 604              	@ ../Libraries/STM32F4xx_StdPeriph_Driver/src/stm32f4xx_hash_sha1.c:220:     counter++;
 220:../Libraries/STM32F4xx_StdPeriph_Driver/src/stm32f4xx_hash_sha1.c ****   }while ((counter != SHA1BUSY_TIMEOUT) && (busystatus != RESET));
 605              		.loc 1 220 12 is_stmt 0 discriminator 2 view .LVU164
 606 0078 0134     		adds	r4, r4, #1	@ _12, counter.11_11,
 607 007a 0194     		str	r4, [sp, #4]	@ _12, counter
 608              		.loc 1 221 10 is_stmt 1 discriminator 2 view .LVU165
 609              	@ ../Libraries/STM32F4xx_StdPeriph_Driver/src/stm32f4xx_hash_sha1.c:221:   }while ((counter != SHA1
 610              		.loc 1 221 20 is_stmt 0 discriminator 2 view .LVU166
 611 007c 019B     		ldr	r3, [sp, #4]	@ counter.12_13, counter
 612              	@ ../Libraries/STM32F4xx_StdPeriph_Driver/src/stm32f4xx_hash_sha1.c:221:   }while ((counter != SHA1
 613              		.loc 1 221 3 discriminator 2 view .LVU167
 614 007e B3F5803F 		cmp	r3, #65536	@ counter.12_13,
 615 0082 F4D1     		bne	.L57		@,
 222:../Libraries/STM32F4xx_StdPeriph_Driver/src/stm32f4xx_hash_sha1.c **** 
 223:../Libraries/STM32F4xx_StdPeriph_Driver/src/stm32f4xx_hash_sha1.c ****   if (busystatus != RESET)
 616              		.loc 1 223 3 is_stmt 1 view .LVU168
 617              	@ ../Libraries/STM32F4xx_StdPeriph_Driver/src/stm32f4xx_hash_sha1.c:223:   if (busystatus != RESET)
 618              		.loc 1 223 6 is_stmt 0 view .LVU169
 619 0084 78B1     		cbz	r0, .L23	@ tmp197,
 620              	.LVL49:
 621              	.L30:
 622              	@ ../Libraries/STM32F4xx_StdPeriph_Driver/src/stm32f4xx_hash_sha1.c:225:      status = ERROR;
 224:../Libraries/STM32F4xx_StdPeriph_Driver/src/stm32f4xx_hash_sha1.c ****   {
 225:../Libraries/STM32F4xx_StdPeriph_Driver/src/stm32f4xx_hash_sha1.c ****      status = ERROR;
 623              		.loc 1 225 13 view .LVU170
 624 0086 0020     		movs	r0, #0	@ <retval>,
 625              	.LVL50:
 626              	.L55:
 627              	@ ../Libraries/STM32F4xx_StdPeriph_Driver/src/stm32f4xx_hash_sha1.c:300: }
 226:../Libraries/STM32F4xx_StdPeriph_Driver/src/stm32f4xx_hash_sha1.c ****   }
 227:../Libraries/STM32F4xx_StdPeriph_Driver/src/stm32f4xx_hash_sha1.c ****   else
 228:../Libraries/STM32F4xx_StdPeriph_Driver/src/stm32f4xx_hash_sha1.c ****   {
 229:../Libraries/STM32F4xx_StdPeriph_Driver/src/stm32f4xx_hash_sha1.c ****     /* Configure the number of valid bits in last word of the Input data */
 230:../Libraries/STM32F4xx_StdPeriph_Driver/src/stm32f4xx_hash_sha1.c ****     HASH_SetLastWordValidBitsNbr(nbvalidbitsdata);
 231:../Libraries/STM32F4xx_StdPeriph_Driver/src/stm32f4xx_hash_sha1.c **** 
 232:../Libraries/STM32F4xx_StdPeriph_Driver/src/stm32f4xx_hash_sha1.c ****     /* Write the Input block in the IN FIFO */
 233:../Libraries/STM32F4xx_StdPeriph_Driver/src/stm32f4xx_hash_sha1.c ****     for(i=0; i<Ilen; i+=4)
 234:../Libraries/STM32F4xx_StdPeriph_Driver/src/stm32f4xx_hash_sha1.c ****     {
 235:../Libraries/STM32F4xx_StdPeriph_Driver/src/stm32f4xx_hash_sha1.c ****       HASH_DataIn(*(uint32_t*)inputaddr);
ARM GAS  C:\Users\admin\AppData\Local\Temp\ccSiiuKl.s 			page 24


 236:../Libraries/STM32F4xx_StdPeriph_Driver/src/stm32f4xx_hash_sha1.c ****       inputaddr+=4;
 237:../Libraries/STM32F4xx_StdPeriph_Driver/src/stm32f4xx_hash_sha1.c ****     }
 238:../Libraries/STM32F4xx_StdPeriph_Driver/src/stm32f4xx_hash_sha1.c **** 
 239:../Libraries/STM32F4xx_StdPeriph_Driver/src/stm32f4xx_hash_sha1.c ****     /* Start the HASH processor */
 240:../Libraries/STM32F4xx_StdPeriph_Driver/src/stm32f4xx_hash_sha1.c ****     HASH_StartDigest();
 241:../Libraries/STM32F4xx_StdPeriph_Driver/src/stm32f4xx_hash_sha1.c **** 
 242:../Libraries/STM32F4xx_StdPeriph_Driver/src/stm32f4xx_hash_sha1.c **** 
 243:../Libraries/STM32F4xx_StdPeriph_Driver/src/stm32f4xx_hash_sha1.c ****     /* wait until the Busy flag is RESET */
 244:../Libraries/STM32F4xx_StdPeriph_Driver/src/stm32f4xx_hash_sha1.c ****     counter =0;
 245:../Libraries/STM32F4xx_StdPeriph_Driver/src/stm32f4xx_hash_sha1.c ****     do
 246:../Libraries/STM32F4xx_StdPeriph_Driver/src/stm32f4xx_hash_sha1.c ****     {
 247:../Libraries/STM32F4xx_StdPeriph_Driver/src/stm32f4xx_hash_sha1.c ****       busystatus = HASH_GetFlagStatus(HASH_FLAG_BUSY);
 248:../Libraries/STM32F4xx_StdPeriph_Driver/src/stm32f4xx_hash_sha1.c ****       counter++;
 249:../Libraries/STM32F4xx_StdPeriph_Driver/src/stm32f4xx_hash_sha1.c ****     }while ((counter != SHA1BUSY_TIMEOUT) && (busystatus != RESET));
 250:../Libraries/STM32F4xx_StdPeriph_Driver/src/stm32f4xx_hash_sha1.c **** 
 251:../Libraries/STM32F4xx_StdPeriph_Driver/src/stm32f4xx_hash_sha1.c ****     if (busystatus != RESET)
 252:../Libraries/STM32F4xx_StdPeriph_Driver/src/stm32f4xx_hash_sha1.c ****     {
 253:../Libraries/STM32F4xx_StdPeriph_Driver/src/stm32f4xx_hash_sha1.c ****       status = ERROR;
 254:../Libraries/STM32F4xx_StdPeriph_Driver/src/stm32f4xx_hash_sha1.c ****     }
 255:../Libraries/STM32F4xx_StdPeriph_Driver/src/stm32f4xx_hash_sha1.c ****     else
 256:../Libraries/STM32F4xx_StdPeriph_Driver/src/stm32f4xx_hash_sha1.c ****     {  
 257:../Libraries/STM32F4xx_StdPeriph_Driver/src/stm32f4xx_hash_sha1.c ****       /* Configure the number of valid bits in last word of the Key */
 258:../Libraries/STM32F4xx_StdPeriph_Driver/src/stm32f4xx_hash_sha1.c ****       HASH_SetLastWordValidBitsNbr(nbvalidbitskey);
 259:../Libraries/STM32F4xx_StdPeriph_Driver/src/stm32f4xx_hash_sha1.c **** 
 260:../Libraries/STM32F4xx_StdPeriph_Driver/src/stm32f4xx_hash_sha1.c ****       /* Write the Key */
 261:../Libraries/STM32F4xx_StdPeriph_Driver/src/stm32f4xx_hash_sha1.c ****       keyaddr = (uint32_t)Key;
 262:../Libraries/STM32F4xx_StdPeriph_Driver/src/stm32f4xx_hash_sha1.c ****       for(i=0; i<Keylen; i+=4)
 263:../Libraries/STM32F4xx_StdPeriph_Driver/src/stm32f4xx_hash_sha1.c ****       {
 264:../Libraries/STM32F4xx_StdPeriph_Driver/src/stm32f4xx_hash_sha1.c ****         HASH_DataIn(*(uint32_t*)keyaddr);
 265:../Libraries/STM32F4xx_StdPeriph_Driver/src/stm32f4xx_hash_sha1.c ****         keyaddr+=4;
 266:../Libraries/STM32F4xx_StdPeriph_Driver/src/stm32f4xx_hash_sha1.c ****       }
 267:../Libraries/STM32F4xx_StdPeriph_Driver/src/stm32f4xx_hash_sha1.c **** 
 268:../Libraries/STM32F4xx_StdPeriph_Driver/src/stm32f4xx_hash_sha1.c ****       /* Start the HASH processor */
 269:../Libraries/STM32F4xx_StdPeriph_Driver/src/stm32f4xx_hash_sha1.c ****       HASH_StartDigest();
 270:../Libraries/STM32F4xx_StdPeriph_Driver/src/stm32f4xx_hash_sha1.c **** 
 271:../Libraries/STM32F4xx_StdPeriph_Driver/src/stm32f4xx_hash_sha1.c ****       /* wait until the Busy flag is RESET */
 272:../Libraries/STM32F4xx_StdPeriph_Driver/src/stm32f4xx_hash_sha1.c ****       counter =0;
 273:../Libraries/STM32F4xx_StdPeriph_Driver/src/stm32f4xx_hash_sha1.c ****       do
 274:../Libraries/STM32F4xx_StdPeriph_Driver/src/stm32f4xx_hash_sha1.c ****       {
 275:../Libraries/STM32F4xx_StdPeriph_Driver/src/stm32f4xx_hash_sha1.c ****         busystatus = HASH_GetFlagStatus(HASH_FLAG_BUSY);
 276:../Libraries/STM32F4xx_StdPeriph_Driver/src/stm32f4xx_hash_sha1.c ****         counter++;
 277:../Libraries/STM32F4xx_StdPeriph_Driver/src/stm32f4xx_hash_sha1.c ****       }while ((counter != SHA1BUSY_TIMEOUT) && (busystatus != RESET));
 278:../Libraries/STM32F4xx_StdPeriph_Driver/src/stm32f4xx_hash_sha1.c **** 
 279:../Libraries/STM32F4xx_StdPeriph_Driver/src/stm32f4xx_hash_sha1.c ****       if (busystatus != RESET)
 280:../Libraries/STM32F4xx_StdPeriph_Driver/src/stm32f4xx_hash_sha1.c ****       {
 281:../Libraries/STM32F4xx_StdPeriph_Driver/src/stm32f4xx_hash_sha1.c ****         status = ERROR;
 282:../Libraries/STM32F4xx_StdPeriph_Driver/src/stm32f4xx_hash_sha1.c ****       }
 283:../Libraries/STM32F4xx_StdPeriph_Driver/src/stm32f4xx_hash_sha1.c ****       else
 284:../Libraries/STM32F4xx_StdPeriph_Driver/src/stm32f4xx_hash_sha1.c ****       {
 285:../Libraries/STM32F4xx_StdPeriph_Driver/src/stm32f4xx_hash_sha1.c ****         /* Read the message digest */
 286:../Libraries/STM32F4xx_StdPeriph_Driver/src/stm32f4xx_hash_sha1.c ****         HASH_GetDigest(&SHA1_MessageDigest);
 287:../Libraries/STM32F4xx_StdPeriph_Driver/src/stm32f4xx_hash_sha1.c ****         *(uint32_t*)(outputaddr)  = __REV(SHA1_MessageDigest.Data[0]);
 288:../Libraries/STM32F4xx_StdPeriph_Driver/src/stm32f4xx_hash_sha1.c ****         outputaddr+=4;
 289:../Libraries/STM32F4xx_StdPeriph_Driver/src/stm32f4xx_hash_sha1.c ****         *(uint32_t*)(outputaddr)  = __REV(SHA1_MessageDigest.Data[1]);
 290:../Libraries/STM32F4xx_StdPeriph_Driver/src/stm32f4xx_hash_sha1.c ****         outputaddr+=4;
 291:../Libraries/STM32F4xx_StdPeriph_Driver/src/stm32f4xx_hash_sha1.c ****         *(uint32_t*)(outputaddr)  = __REV(SHA1_MessageDigest.Data[2]);
 292:../Libraries/STM32F4xx_StdPeriph_Driver/src/stm32f4xx_hash_sha1.c ****         outputaddr+=4;
ARM GAS  C:\Users\admin\AppData\Local\Temp\ccSiiuKl.s 			page 25


 293:../Libraries/STM32F4xx_StdPeriph_Driver/src/stm32f4xx_hash_sha1.c ****         *(uint32_t*)(outputaddr)  = __REV(SHA1_MessageDigest.Data[3]);
 294:../Libraries/STM32F4xx_StdPeriph_Driver/src/stm32f4xx_hash_sha1.c ****         outputaddr+=4;
 295:../Libraries/STM32F4xx_StdPeriph_Driver/src/stm32f4xx_hash_sha1.c ****         *(uint32_t*)(outputaddr)  = __REV(SHA1_MessageDigest.Data[4]);
 296:../Libraries/STM32F4xx_StdPeriph_Driver/src/stm32f4xx_hash_sha1.c ****       }
 297:../Libraries/STM32F4xx_StdPeriph_Driver/src/stm32f4xx_hash_sha1.c ****     }  
 298:../Libraries/STM32F4xx_StdPeriph_Driver/src/stm32f4xx_hash_sha1.c ****   }
 299:../Libraries/STM32F4xx_StdPeriph_Driver/src/stm32f4xx_hash_sha1.c ****   return status;  
 300:../Libraries/STM32F4xx_StdPeriph_Driver/src/stm32f4xx_hash_sha1.c **** }
 628              		.loc 1 300 1 view .LVU171
 629 0088 0DB0     		add	sp, sp, #52	@,,
 630              		.cfi_remember_state
 631              		.cfi_def_cfa_offset 28
 632              		@ sp needed	@
 633 008a BDE8F083 		pop	{r4, r5, r6, r7, r8, r9, pc}	@
 634              	.LVL51:
 635              	.L18:
 636              		.cfi_restore_state
 637              	@ ../Libraries/STM32F4xx_StdPeriph_Driver/src/stm32f4xx_hash_sha1.c:201:   HASH_Init(&SHA1_HASH_Ini
 201:../Libraries/STM32F4xx_StdPeriph_Driver/src/stm32f4xx_hash_sha1.c **** 
 638              		.loc 1 201 3 view .LVU172
 639 008e 02A8     		add	r0, sp, #8	@,,
 640 0090 4FF48033 		mov	r3, #65536	@ tmp220,
 641 0094 0593     		str	r3, [sp, #20]	@ tmp220, SHA1_HASH_InitStructure.HASH_HMACKeyType
 201:../Libraries/STM32F4xx_StdPeriph_Driver/src/stm32f4xx_hash_sha1.c **** 
 642              		.loc 1 201 3 is_stmt 1 view .LVU173
 643 0096 FFF7FEFF 		bl	HASH_Init		@
 644              	.LVL52:
 204:../Libraries/STM32F4xx_StdPeriph_Driver/src/stm32f4xx_hash_sha1.c **** 
 645              		.loc 1 204 3 view .LVU174
 646 009a BDF80200 		ldrh	r0, [sp, #2]	@, nbvalidbitskey
 647 009e 80B2     		uxth	r0, r0	@, nbvalidbitskey
 648 00a0 FFF7FEFF 		bl	HASH_SetLastWordValidBitsNbr		@
 649              	.LVL53:
 207:../Libraries/STM32F4xx_StdPeriph_Driver/src/stm32f4xx_hash_sha1.c ****   {
 650              		.loc 1 207 3 view .LVU175
 207:../Libraries/STM32F4xx_StdPeriph_Driver/src/stm32f4xx_hash_sha1.c ****   {
 651              		.loc 1 207 12 view .LVU176
 652 00a4 D8E7     		b	.L36		@
 653              	.LVL54:
 654              	.L23:
 230:../Libraries/STM32F4xx_StdPeriph_Driver/src/stm32f4xx_hash_sha1.c **** 
 655              		.loc 1 230 5 view .LVU177
 656 00a6 BDF80000 		ldrh	r0, [sp]	@, nbvalidbitsdata
 657              	.LVL55:
 230:../Libraries/STM32F4xx_StdPeriph_Driver/src/stm32f4xx_hash_sha1.c **** 
 658              		.loc 1 230 5 is_stmt 0 view .LVU178
 659 00aa 80B2     		uxth	r0, r0	@, nbvalidbitsdata
 660 00ac FFF7FEFF 		bl	HASH_SetLastWordValidBitsNbr		@
 661              	.LVL56:
 233:../Libraries/STM32F4xx_StdPeriph_Driver/src/stm32f4xx_hash_sha1.c ****     {
 662              		.loc 1 233 5 is_stmt 1 view .LVU179
 233:../Libraries/STM32F4xx_StdPeriph_Driver/src/stm32f4xx_hash_sha1.c ****     {
 663              		.loc 1 233 14 view .LVU180
 664              	@ ../Libraries/STM32F4xx_StdPeriph_Driver/src/stm32f4xx_hash_sha1.c:233:     for(i=0; i<Ilen; i+=4)
 233:../Libraries/STM32F4xx_StdPeriph_Driver/src/stm32f4xx_hash_sha1.c ****     {
 665              		.loc 1 233 5 is_stmt 0 view .LVU181
 666 00b0 3FB1     		cbz	r7, .L25	@ Ilen,
ARM GAS  C:\Users\admin\AppData\Local\Temp\ccSiiuKl.s 			page 26


 667              	@ ../Libraries/STM32F4xx_StdPeriph_Driver/src/stm32f4xx_hash_sha1.c:233:     for(i=0; i<Ilen; i+=4)
 233:../Libraries/STM32F4xx_StdPeriph_Driver/src/stm32f4xx_hash_sha1.c ****     {
 668              		.loc 1 233 10 view .LVU182
 669 00b2 0024     		movs	r4, #0	@ i,
 670              	.LVL57:
 671              	.L26:
 235:../Libraries/STM32F4xx_StdPeriph_Driver/src/stm32f4xx_hash_sha1.c ****       inputaddr+=4;
 672              		.loc 1 235 7 is_stmt 1 discriminator 3 view .LVU183
 673 00b4 56F8040B 		ldr	r0, [r6], #4	@, MEM[base: _44, offset: 0B]
 674              	.LVL58:
 675              	@ ../Libraries/STM32F4xx_StdPeriph_Driver/src/stm32f4xx_hash_sha1.c:233:     for(i=0; i<Ilen; i+=4)
 233:../Libraries/STM32F4xx_StdPeriph_Driver/src/stm32f4xx_hash_sha1.c ****     {
 676              		.loc 1 233 23 is_stmt 0 discriminator 3 view .LVU184
 677 00b8 0434     		adds	r4, r4, #4	@ i, i,
 678              	.LVL59:
 679              	@ ../Libraries/STM32F4xx_StdPeriph_Driver/src/stm32f4xx_hash_sha1.c:235:       HASH_DataIn(*(uint32
 235:../Libraries/STM32F4xx_StdPeriph_Driver/src/stm32f4xx_hash_sha1.c ****       inputaddr+=4;
 680              		.loc 1 235 7 discriminator 3 view .LVU185
 681 00ba FFF7FEFF 		bl	HASH_DataIn		@
 682              	.LVL60:
 236:../Libraries/STM32F4xx_StdPeriph_Driver/src/stm32f4xx_hash_sha1.c ****     }
 683              		.loc 1 236 7 is_stmt 1 discriminator 3 view .LVU186
 233:../Libraries/STM32F4xx_StdPeriph_Driver/src/stm32f4xx_hash_sha1.c ****     {
 684              		.loc 1 233 22 discriminator 3 view .LVU187
 233:../Libraries/STM32F4xx_StdPeriph_Driver/src/stm32f4xx_hash_sha1.c ****     {
 685              		.loc 1 233 14 discriminator 3 view .LVU188
 686              	@ ../Libraries/STM32F4xx_StdPeriph_Driver/src/stm32f4xx_hash_sha1.c:233:     for(i=0; i<Ilen; i+=4)
 233:../Libraries/STM32F4xx_StdPeriph_Driver/src/stm32f4xx_hash_sha1.c ****     {
 687              		.loc 1 233 5 is_stmt 0 discriminator 3 view .LVU189
 688 00be A742     		cmp	r7, r4	@ Ilen, i
 689 00c0 F8D8     		bhi	.L26		@,
 690              	.LVL61:
 691              	.L25:
 240:../Libraries/STM32F4xx_StdPeriph_Driver/src/stm32f4xx_hash_sha1.c **** 
 692              		.loc 1 240 5 is_stmt 1 view .LVU190
 693 00c2 FFF7FEFF 		bl	HASH_StartDigest		@
 694              	.LVL62:
 244:../Libraries/STM32F4xx_StdPeriph_Driver/src/stm32f4xx_hash_sha1.c ****     do
 695              		.loc 1 244 5 view .LVU191
 696              	@ ../Libraries/STM32F4xx_StdPeriph_Driver/src/stm32f4xx_hash_sha1.c:244:     counter =0;
 244:../Libraries/STM32F4xx_StdPeriph_Driver/src/stm32f4xx_hash_sha1.c ****     do
 697              		.loc 1 244 13 is_stmt 0 view .LVU192
 698 00c6 0023     		movs	r3, #0	@ tmp201,
 699 00c8 0193     		str	r3, [sp, #4]	@ tmp201, counter
 700 00ca 00E0     		b	.L28		@
 701              	.LVL63:
 702              	.L58:
 703              	@ ../Libraries/STM32F4xx_StdPeriph_Driver/src/stm32f4xx_hash_sha1.c:249:     }while ((counter != SH
 249:../Libraries/STM32F4xx_StdPeriph_Driver/src/stm32f4xx_hash_sha1.c **** 
 704              		.loc 1 249 43 discriminator 1 view .LVU193
 705 00cc 58B1     		cbz	r0, .L29	@ tmp202,
 706              	.LVL64:
 707              	.L28:
 245:../Libraries/STM32F4xx_StdPeriph_Driver/src/stm32f4xx_hash_sha1.c ****     {
 708              		.loc 1 245 5 is_stmt 1 discriminator 2 view .LVU194
 247:../Libraries/STM32F4xx_StdPeriph_Driver/src/stm32f4xx_hash_sha1.c ****       counter++;
 709              		.loc 1 247 7 discriminator 2 view .LVU195
ARM GAS  C:\Users\admin\AppData\Local\Temp\ccSiiuKl.s 			page 27


 710              	@ ../Libraries/STM32F4xx_StdPeriph_Driver/src/stm32f4xx_hash_sha1.c:247:       busystatus = HASH_Ge
 247:../Libraries/STM32F4xx_StdPeriph_Driver/src/stm32f4xx_hash_sha1.c ****       counter++;
 711              		.loc 1 247 20 is_stmt 0 discriminator 2 view .LVU196
 712 00ce 0820     		movs	r0, #8	@,
 713 00d0 FFF7FEFF 		bl	HASH_GetFlagStatus		@
 714              	.LVL65:
 715              	@ ../Libraries/STM32F4xx_StdPeriph_Driver/src/stm32f4xx_hash_sha1.c:248:       counter++;
 248:../Libraries/STM32F4xx_StdPeriph_Driver/src/stm32f4xx_hash_sha1.c ****     }while ((counter != SHA1BUSY_TIMEOUT) && (busystatus != RESET));
 716              		.loc 1 248 14 discriminator 2 view .LVU197
 717 00d4 019B     		ldr	r3, [sp, #4]	@ counter.15_18, counter
 718              	.LVL66:
 248:../Libraries/STM32F4xx_StdPeriph_Driver/src/stm32f4xx_hash_sha1.c ****     }while ((counter != SHA1BUSY_TIMEOUT) && (busystatus != RESET));
 719              		.loc 1 248 7 is_stmt 1 discriminator 2 view .LVU198
 720              	@ ../Libraries/STM32F4xx_StdPeriph_Driver/src/stm32f4xx_hash_sha1.c:248:       counter++;
 248:../Libraries/STM32F4xx_StdPeriph_Driver/src/stm32f4xx_hash_sha1.c ****     }while ((counter != SHA1BUSY_TIMEOUT) && (busystatus != RESET));
 721              		.loc 1 248 14 is_stmt 0 discriminator 2 view .LVU199
 722 00d6 0133     		adds	r3, r3, #1	@ _19, counter.15_18,
 723 00d8 0193     		str	r3, [sp, #4]	@ _19, counter
 249:../Libraries/STM32F4xx_StdPeriph_Driver/src/stm32f4xx_hash_sha1.c **** 
 724              		.loc 1 249 12 is_stmt 1 discriminator 2 view .LVU200
 725              	@ ../Libraries/STM32F4xx_StdPeriph_Driver/src/stm32f4xx_hash_sha1.c:249:     }while ((counter != SH
 249:../Libraries/STM32F4xx_StdPeriph_Driver/src/stm32f4xx_hash_sha1.c **** 
 726              		.loc 1 249 22 is_stmt 0 discriminator 2 view .LVU201
 727 00da 019B     		ldr	r3, [sp, #4]	@ counter.16_20, counter
 728              	@ ../Libraries/STM32F4xx_StdPeriph_Driver/src/stm32f4xx_hash_sha1.c:249:     }while ((counter != SH
 249:../Libraries/STM32F4xx_StdPeriph_Driver/src/stm32f4xx_hash_sha1.c **** 
 729              		.loc 1 249 5 discriminator 2 view .LVU202
 730 00dc B3F5803F 		cmp	r3, #65536	@ counter.16_20,
 731 00e0 F4D1     		bne	.L58		@,
 251:../Libraries/STM32F4xx_StdPeriph_Driver/src/stm32f4xx_hash_sha1.c ****     {
 732              		.loc 1 251 5 is_stmt 1 view .LVU203
 733              	@ ../Libraries/STM32F4xx_StdPeriph_Driver/src/stm32f4xx_hash_sha1.c:251:     if (busystatus != RESE
 251:../Libraries/STM32F4xx_StdPeriph_Driver/src/stm32f4xx_hash_sha1.c ****     {
 734              		.loc 1 251 8 is_stmt 0 view .LVU204
 735 00e2 0028     		cmp	r0, #0	@ tmp202
 736 00e4 CFD1     		bne	.L30	@
 737              	.L29:
 258:../Libraries/STM32F4xx_StdPeriph_Driver/src/stm32f4xx_hash_sha1.c **** 
 738              		.loc 1 258 7 is_stmt 1 view .LVU205
 739 00e6 BDF80200 		ldrh	r0, [sp, #2]	@, nbvalidbitskey
 740              	.LVL67:
 258:../Libraries/STM32F4xx_StdPeriph_Driver/src/stm32f4xx_hash_sha1.c **** 
 741              		.loc 1 258 7 is_stmt 0 view .LVU206
 742 00ea 80B2     		uxth	r0, r0	@, nbvalidbitskey
 743 00ec FFF7FEFF 		bl	HASH_SetLastWordValidBitsNbr		@
 744              	.LVL68:
 261:../Libraries/STM32F4xx_StdPeriph_Driver/src/stm32f4xx_hash_sha1.c ****       for(i=0; i<Keylen; i+=4)
 745              		.loc 1 261 7 is_stmt 1 view .LVU207
 262:../Libraries/STM32F4xx_StdPeriph_Driver/src/stm32f4xx_hash_sha1.c ****       {
 746              		.loc 1 262 7 view .LVU208
 262:../Libraries/STM32F4xx_StdPeriph_Driver/src/stm32f4xx_hash_sha1.c ****       {
 747              		.loc 1 262 16 view .LVU209
 748              	@ ../Libraries/STM32F4xx_StdPeriph_Driver/src/stm32f4xx_hash_sha1.c:262:       for(i=0; i<Keylen; i
 262:../Libraries/STM32F4xx_StdPeriph_Driver/src/stm32f4xx_hash_sha1.c ****       {
 749              		.loc 1 262 7 is_stmt 0 view .LVU210
 750 00f0 3DB1     		cbz	r5, .L31	@ Keylen,
 751              	@ ../Libraries/STM32F4xx_StdPeriph_Driver/src/stm32f4xx_hash_sha1.c:262:       for(i=0; i<Keylen; i
ARM GAS  C:\Users\admin\AppData\Local\Temp\ccSiiuKl.s 			page 28


 262:../Libraries/STM32F4xx_StdPeriph_Driver/src/stm32f4xx_hash_sha1.c ****       {
 752              		.loc 1 262 12 view .LVU211
 753 00f2 0024     		movs	r4, #0	@ i,
 754              	.LVL69:
 755              	.L32:
 264:../Libraries/STM32F4xx_StdPeriph_Driver/src/stm32f4xx_hash_sha1.c ****         keyaddr+=4;
 756              		.loc 1 264 9 is_stmt 1 discriminator 3 view .LVU212
 757 00f4 58F8040B 		ldr	r0, [r8], #4	@, MEM[base: _69, offset: 0B]
 758              	.LVL70:
 759              	@ ../Libraries/STM32F4xx_StdPeriph_Driver/src/stm32f4xx_hash_sha1.c:262:       for(i=0; i<Keylen; i
 262:../Libraries/STM32F4xx_StdPeriph_Driver/src/stm32f4xx_hash_sha1.c ****       {
 760              		.loc 1 262 27 is_stmt 0 discriminator 3 view .LVU213
 761 00f8 0434     		adds	r4, r4, #4	@ i, i,
 762              	.LVL71:
 763              	@ ../Libraries/STM32F4xx_StdPeriph_Driver/src/stm32f4xx_hash_sha1.c:264:         HASH_DataIn(*(uint
 264:../Libraries/STM32F4xx_StdPeriph_Driver/src/stm32f4xx_hash_sha1.c ****         keyaddr+=4;
 764              		.loc 1 264 9 discriminator 3 view .LVU214
 765 00fa FFF7FEFF 		bl	HASH_DataIn		@
 766              	.LVL72:
 265:../Libraries/STM32F4xx_StdPeriph_Driver/src/stm32f4xx_hash_sha1.c ****       }
 767              		.loc 1 265 9 is_stmt 1 discriminator 3 view .LVU215
 262:../Libraries/STM32F4xx_StdPeriph_Driver/src/stm32f4xx_hash_sha1.c ****       {
 768              		.loc 1 262 26 discriminator 3 view .LVU216
 262:../Libraries/STM32F4xx_StdPeriph_Driver/src/stm32f4xx_hash_sha1.c ****       {
 769              		.loc 1 262 16 discriminator 3 view .LVU217
 770              	@ ../Libraries/STM32F4xx_StdPeriph_Driver/src/stm32f4xx_hash_sha1.c:262:       for(i=0; i<Keylen; i
 262:../Libraries/STM32F4xx_StdPeriph_Driver/src/stm32f4xx_hash_sha1.c ****       {
 771              		.loc 1 262 7 is_stmt 0 discriminator 3 view .LVU218
 772 00fe A542     		cmp	r5, r4	@ Keylen, i
 773 0100 F8D8     		bhi	.L32		@,
 774              	.LVL73:
 775              	.L31:
 269:../Libraries/STM32F4xx_StdPeriph_Driver/src/stm32f4xx_hash_sha1.c **** 
 776              		.loc 1 269 7 is_stmt 1 view .LVU219
 777 0102 FFF7FEFF 		bl	HASH_StartDigest		@
 778              	.LVL74:
 272:../Libraries/STM32F4xx_StdPeriph_Driver/src/stm32f4xx_hash_sha1.c ****       do
 779              		.loc 1 272 7 view .LVU220
 780              	@ ../Libraries/STM32F4xx_StdPeriph_Driver/src/stm32f4xx_hash_sha1.c:272:       counter =0;
 272:../Libraries/STM32F4xx_StdPeriph_Driver/src/stm32f4xx_hash_sha1.c ****       do
 781              		.loc 1 272 15 is_stmt 0 view .LVU221
 782 0106 0023     		movs	r3, #0	@ tmp206,
 783 0108 0193     		str	r3, [sp, #4]	@ tmp206, counter
 784 010a 00E0     		b	.L34		@
 785              	.LVL75:
 786              	.L59:
 787              	@ ../Libraries/STM32F4xx_StdPeriph_Driver/src/stm32f4xx_hash_sha1.c:277:       }while ((counter != 
 277:../Libraries/STM32F4xx_StdPeriph_Driver/src/stm32f4xx_hash_sha1.c **** 
 788              		.loc 1 277 45 discriminator 1 view .LVU222
 789 010c 58B1     		cbz	r0, .L35	@ tmp207,
 790              	.LVL76:
 791              	.L34:
 273:../Libraries/STM32F4xx_StdPeriph_Driver/src/stm32f4xx_hash_sha1.c ****       {
 792              		.loc 1 273 7 is_stmt 1 discriminator 2 view .LVU223
 275:../Libraries/STM32F4xx_StdPeriph_Driver/src/stm32f4xx_hash_sha1.c ****         counter++;
 793              		.loc 1 275 9 discriminator 2 view .LVU224
 794              	@ ../Libraries/STM32F4xx_StdPeriph_Driver/src/stm32f4xx_hash_sha1.c:275:         busystatus = HASH_
ARM GAS  C:\Users\admin\AppData\Local\Temp\ccSiiuKl.s 			page 29


 275:../Libraries/STM32F4xx_StdPeriph_Driver/src/stm32f4xx_hash_sha1.c ****         counter++;
 795              		.loc 1 275 22 is_stmt 0 discriminator 2 view .LVU225
 796 010e 0820     		movs	r0, #8	@,
 797 0110 FFF7FEFF 		bl	HASH_GetFlagStatus		@
 798              	.LVL77:
 799              	@ ../Libraries/STM32F4xx_StdPeriph_Driver/src/stm32f4xx_hash_sha1.c:276:         counter++;
 276:../Libraries/STM32F4xx_StdPeriph_Driver/src/stm32f4xx_hash_sha1.c ****       }while ((counter != SHA1BUSY_TIMEOUT) && (busystatus != RESET));
 800              		.loc 1 276 16 discriminator 2 view .LVU226
 801 0114 019B     		ldr	r3, [sp, #4]	@ counter.19_25, counter
 802              	.LVL78:
 276:../Libraries/STM32F4xx_StdPeriph_Driver/src/stm32f4xx_hash_sha1.c ****       }while ((counter != SHA1BUSY_TIMEOUT) && (busystatus != RESET));
 803              		.loc 1 276 9 is_stmt 1 discriminator 2 view .LVU227
 804              	@ ../Libraries/STM32F4xx_StdPeriph_Driver/src/stm32f4xx_hash_sha1.c:276:         counter++;
 276:../Libraries/STM32F4xx_StdPeriph_Driver/src/stm32f4xx_hash_sha1.c ****       }while ((counter != SHA1BUSY_TIMEOUT) && (busystatus != RESET));
 805              		.loc 1 276 16 is_stmt 0 discriminator 2 view .LVU228
 806 0116 0133     		adds	r3, r3, #1	@ _26, counter.19_25,
 807 0118 0193     		str	r3, [sp, #4]	@ _26, counter
 277:../Libraries/STM32F4xx_StdPeriph_Driver/src/stm32f4xx_hash_sha1.c **** 
 808              		.loc 1 277 14 is_stmt 1 discriminator 2 view .LVU229
 809              	@ ../Libraries/STM32F4xx_StdPeriph_Driver/src/stm32f4xx_hash_sha1.c:277:       }while ((counter != 
 277:../Libraries/STM32F4xx_StdPeriph_Driver/src/stm32f4xx_hash_sha1.c **** 
 810              		.loc 1 277 24 is_stmt 0 discriminator 2 view .LVU230
 811 011a 019B     		ldr	r3, [sp, #4]	@ counter.20_27, counter
 812              	@ ../Libraries/STM32F4xx_StdPeriph_Driver/src/stm32f4xx_hash_sha1.c:277:       }while ((counter != 
 277:../Libraries/STM32F4xx_StdPeriph_Driver/src/stm32f4xx_hash_sha1.c **** 
 813              		.loc 1 277 7 discriminator 2 view .LVU231
 814 011c B3F5803F 		cmp	r3, #65536	@ counter.20_27,
 815 0120 F4D1     		bne	.L59		@,
 279:../Libraries/STM32F4xx_StdPeriph_Driver/src/stm32f4xx_hash_sha1.c ****       {
 816              		.loc 1 279 7 is_stmt 1 view .LVU232
 817              	@ ../Libraries/STM32F4xx_StdPeriph_Driver/src/stm32f4xx_hash_sha1.c:279:       if (busystatus != RE
 279:../Libraries/STM32F4xx_StdPeriph_Driver/src/stm32f4xx_hash_sha1.c ****       {
 818              		.loc 1 279 10 is_stmt 0 view .LVU233
 819 0122 0028     		cmp	r0, #0	@ tmp207
 820 0124 AFD1     		bne	.L30	@
 821              	.L35:
 286:../Libraries/STM32F4xx_StdPeriph_Driver/src/stm32f4xx_hash_sha1.c ****         *(uint32_t*)(outputaddr)  = __REV(SHA1_MessageDigest.Data[0]);
 822              		.loc 1 286 9 is_stmt 1 view .LVU234
 823 0126 07A8     		add	r0, sp, #28	@,,
 824              	.LVL79:
 286:../Libraries/STM32F4xx_StdPeriph_Driver/src/stm32f4xx_hash_sha1.c ****         *(uint32_t*)(outputaddr)  = __REV(SHA1_MessageDigest.Data[0]);
 825              		.loc 1 286 9 is_stmt 0 view .LVU235
 826 0128 FFF7FEFF 		bl	HASH_GetDigest		@
 827              	.LVL80:
 287:../Libraries/STM32F4xx_StdPeriph_Driver/src/stm32f4xx_hash_sha1.c ****         outputaddr+=4;
 828              		.loc 1 287 9 is_stmt 1 view .LVU236
 829              	.LBB40:
 830              	.LBI40:
 348:../Libraries/CMSIS/Include/core_cmInstr.h **** {
 831              		.loc 2 348 61 view .LVU237
 832              	.LBB41:
 350:../Libraries/CMSIS/Include/core_cmInstr.h ****   
 833              		.loc 2 350 3 view .LVU238
 352:../Libraries/CMSIS/Include/core_cmInstr.h ****   return(result);
 834              		.loc 2 352 3 view .LVU239
 835 012c 079B     		ldr	r3, [sp, #28]	@ SHA1_MessageDigest.Data[0], SHA1_MessageDigest.Data[0]
 836              		.syntax unified
ARM GAS  C:\Users\admin\AppData\Local\Temp\ccSiiuKl.s 			page 30


 837              	@ 352 "../Libraries/CMSIS/Include/core_cmInstr.h" 1
 838 012e 1BBA     		rev r3, r3	@ result, SHA1_MessageDigest.Data[0]
 839              	@ 0 "" 2
 840              	.LVL81:
 841              		.loc 2 353 3 view .LVU240
 842              		.loc 2 353 3 is_stmt 0 view .LVU241
 843              		.thumb
 844              		.syntax unified
 845              	.LBE41:
 846              	.LBE40:
 847              	@ ../Libraries/STM32F4xx_StdPeriph_Driver/src/stm32f4xx_hash_sha1.c:287:         *(uint32_t*)(outpu
 287:../Libraries/STM32F4xx_StdPeriph_Driver/src/stm32f4xx_hash_sha1.c ****         outputaddr+=4;
 848              		.loc 1 287 35 view .LVU242
 849 0130 1499     		ldr	r1, [sp, #80]	@ tmp235, Output
 850              	.LBB42:
 851              	.LBB43:
 852              	@ ../Libraries/CMSIS/Include/core_cmInstr.h:352:   __ASM volatile ("rev %0, %1" : "=r" (result) : "
 352:../Libraries/CMSIS/Include/core_cmInstr.h ****   return(result);
 853              		.loc 2 352 3 view .LVU243
 854 0132 089A     		ldr	r2, [sp, #32]	@ SHA1_MessageDigest.Data[1], SHA1_MessageDigest.Data[1]
 855              	.LBE43:
 856              	.LBE42:
 857              	@ ../Libraries/STM32F4xx_StdPeriph_Driver/src/stm32f4xx_hash_sha1.c:287:         *(uint32_t*)(outpu
 287:../Libraries/STM32F4xx_StdPeriph_Driver/src/stm32f4xx_hash_sha1.c ****         outputaddr+=4;
 858              		.loc 1 287 35 view .LVU244
 859 0134 0B60     		str	r3, [r1]	@ result, MEM[(uint32_t *)Output_61(D)]
 288:../Libraries/STM32F4xx_StdPeriph_Driver/src/stm32f4xx_hash_sha1.c ****         *(uint32_t*)(outputaddr)  = __REV(SHA1_MessageDigest.Data[1]);
 860              		.loc 1 288 9 is_stmt 1 view .LVU245
 861              	.LVL82:
 289:../Libraries/STM32F4xx_StdPeriph_Driver/src/stm32f4xx_hash_sha1.c ****         outputaddr+=4;
 862              		.loc 1 289 9 view .LVU246
 863              	.LBB45:
 864              	.LBI42:
 348:../Libraries/CMSIS/Include/core_cmInstr.h **** {
 865              		.loc 2 348 61 view .LVU247
 866              	.LBB44:
 350:../Libraries/CMSIS/Include/core_cmInstr.h ****   
 867              		.loc 2 350 3 view .LVU248
 352:../Libraries/CMSIS/Include/core_cmInstr.h ****   return(result);
 868              		.loc 2 352 3 view .LVU249
 869              		.syntax unified
 870              	@ 352 "../Libraries/CMSIS/Include/core_cmInstr.h" 1
 871 0136 12BA     		rev r2, r2	@ result, SHA1_MessageDigest.Data[1]
 872              	@ 0 "" 2
 873              	.LVL83:
 874              		.loc 2 353 3 view .LVU250
 875              		.loc 2 353 3 is_stmt 0 view .LVU251
 876              		.thumb
 877              		.syntax unified
 878              	.LBE44:
 879              	.LBE45:
 880              	.LBB46:
 881              	.LBB47:
 882              	@ ../Libraries/CMSIS/Include/core_cmInstr.h:352:   __ASM volatile ("rev %0, %1" : "=r" (result) : "
 352:../Libraries/CMSIS/Include/core_cmInstr.h ****   return(result);
 883              		.loc 2 352 3 view .LVU252
 884 0138 099B     		ldr	r3, [sp, #36]	@ SHA1_MessageDigest.Data[2], SHA1_MessageDigest.Data[2]
ARM GAS  C:\Users\admin\AppData\Local\Temp\ccSiiuKl.s 			page 31


 885              	.LBE47:
 886              	.LBE46:
 887              	@ ../Libraries/STM32F4xx_StdPeriph_Driver/src/stm32f4xx_hash_sha1.c:289:         *(uint32_t*)(outpu
 289:../Libraries/STM32F4xx_StdPeriph_Driver/src/stm32f4xx_hash_sha1.c ****         outputaddr+=4;
 888              		.loc 1 289 35 view .LVU253
 889 013a 4A60     		str	r2, [r1, #4]	@ result, *outputaddr.22_30
 290:../Libraries/STM32F4xx_StdPeriph_Driver/src/stm32f4xx_hash_sha1.c ****         *(uint32_t*)(outputaddr)  = __REV(SHA1_MessageDigest.Data[2]);
 890              		.loc 1 290 9 is_stmt 1 view .LVU254
 891              	.LVL84:
 291:../Libraries/STM32F4xx_StdPeriph_Driver/src/stm32f4xx_hash_sha1.c ****         outputaddr+=4;
 892              		.loc 1 291 9 view .LVU255
 893              	.LBB49:
 894              	.LBI46:
 348:../Libraries/CMSIS/Include/core_cmInstr.h **** {
 895              		.loc 2 348 61 view .LVU256
 896              	.LBB48:
 350:../Libraries/CMSIS/Include/core_cmInstr.h ****   
 897              		.loc 2 350 3 view .LVU257
 352:../Libraries/CMSIS/Include/core_cmInstr.h ****   return(result);
 898              		.loc 2 352 3 view .LVU258
 899              		.syntax unified
 900              	@ 352 "../Libraries/CMSIS/Include/core_cmInstr.h" 1
 901 013c 1BBA     		rev r3, r3	@ result, SHA1_MessageDigest.Data[2]
 902              	@ 0 "" 2
 903              	.LVL85:
 904              		.loc 2 353 3 view .LVU259
 905              		.loc 2 353 3 is_stmt 0 view .LVU260
 906              		.thumb
 907              		.syntax unified
 908              	.LBE48:
 909              	.LBE49:
 910              	.LBB50:
 911              	.LBB51:
 912              	@ ../Libraries/CMSIS/Include/core_cmInstr.h:352:   __ASM volatile ("rev %0, %1" : "=r" (result) : "
 352:../Libraries/CMSIS/Include/core_cmInstr.h ****   return(result);
 913              		.loc 2 352 3 view .LVU261
 914 013e 0A9A     		ldr	r2, [sp, #40]	@ SHA1_MessageDigest.Data[3], SHA1_MessageDigest.Data[3]
 915              	.LBE51:
 916              	.LBE50:
 917              	@ ../Libraries/STM32F4xx_StdPeriph_Driver/src/stm32f4xx_hash_sha1.c:291:         *(uint32_t*)(outpu
 291:../Libraries/STM32F4xx_StdPeriph_Driver/src/stm32f4xx_hash_sha1.c ****         outputaddr+=4;
 918              		.loc 1 291 35 view .LVU262
 919 0140 8B60     		str	r3, [r1, #8]	@ result, *outputaddr.23_32
 292:../Libraries/STM32F4xx_StdPeriph_Driver/src/stm32f4xx_hash_sha1.c ****         *(uint32_t*)(outputaddr)  = __REV(SHA1_MessageDigest.Data[3]);
 920              		.loc 1 292 9 is_stmt 1 view .LVU263
 921              	.LVL86:
 293:../Libraries/STM32F4xx_StdPeriph_Driver/src/stm32f4xx_hash_sha1.c ****         outputaddr+=4;
 922              		.loc 1 293 9 view .LVU264
 923              	.LBB53:
 924              	.LBI50:
 348:../Libraries/CMSIS/Include/core_cmInstr.h **** {
 925              		.loc 2 348 61 view .LVU265
 926              	.LBB52:
 350:../Libraries/CMSIS/Include/core_cmInstr.h ****   
 927              		.loc 2 350 3 view .LVU266
 352:../Libraries/CMSIS/Include/core_cmInstr.h ****   return(result);
 928              		.loc 2 352 3 view .LVU267
ARM GAS  C:\Users\admin\AppData\Local\Temp\ccSiiuKl.s 			page 32


 929              		.syntax unified
 930              	@ 352 "../Libraries/CMSIS/Include/core_cmInstr.h" 1
 931 0142 12BA     		rev r2, r2	@ result, SHA1_MessageDigest.Data[3]
 932              	@ 0 "" 2
 933              	.LVL87:
 934              		.loc 2 353 3 view .LVU268
 935              		.loc 2 353 3 is_stmt 0 view .LVU269
 936              		.thumb
 937              		.syntax unified
 938              	.LBE52:
 939              	.LBE53:
 940              	.LBB54:
 941              	.LBB55:
 942              	@ ../Libraries/CMSIS/Include/core_cmInstr.h:352:   __ASM volatile ("rev %0, %1" : "=r" (result) : "
 352:../Libraries/CMSIS/Include/core_cmInstr.h ****   return(result);
 943              		.loc 2 352 3 view .LVU270
 944 0144 0B9B     		ldr	r3, [sp, #44]	@ SHA1_MessageDigest.Data[4], SHA1_MessageDigest.Data[4]
 945              	.LBE55:
 946              	.LBE54:
 947              	@ ../Libraries/STM32F4xx_StdPeriph_Driver/src/stm32f4xx_hash_sha1.c:293:         *(uint32_t*)(outpu
 293:../Libraries/STM32F4xx_StdPeriph_Driver/src/stm32f4xx_hash_sha1.c ****         outputaddr+=4;
 948              		.loc 1 293 35 view .LVU271
 949 0146 CA60     		str	r2, [r1, #12]	@ result, *outputaddr.24_34
 294:../Libraries/STM32F4xx_StdPeriph_Driver/src/stm32f4xx_hash_sha1.c ****         *(uint32_t*)(outputaddr)  = __REV(SHA1_MessageDigest.Data[4]);
 950              		.loc 1 294 9 is_stmt 1 view .LVU272
 951              	.LVL88:
 295:../Libraries/STM32F4xx_StdPeriph_Driver/src/stm32f4xx_hash_sha1.c ****       }
 952              		.loc 1 295 9 view .LVU273
 953              	.LBB57:
 954              	.LBI54:
 348:../Libraries/CMSIS/Include/core_cmInstr.h **** {
 955              		.loc 2 348 61 view .LVU274
 956              	.LBB56:
 350:../Libraries/CMSIS/Include/core_cmInstr.h ****   
 957              		.loc 2 350 3 view .LVU275
 352:../Libraries/CMSIS/Include/core_cmInstr.h ****   return(result);
 958              		.loc 2 352 3 view .LVU276
 959              		.syntax unified
 960              	@ 352 "../Libraries/CMSIS/Include/core_cmInstr.h" 1
 961 0148 1BBA     		rev r3, r3	@ result, SHA1_MessageDigest.Data[4]
 962              	@ 0 "" 2
 963              	.LVL89:
 964              		.loc 2 353 3 view .LVU277
 965              		.loc 2 353 3 is_stmt 0 view .LVU278
 966              		.thumb
 967              		.syntax unified
 968              	.LBE56:
 969              	.LBE57:
 970              	@ ../Libraries/STM32F4xx_StdPeriph_Driver/src/stm32f4xx_hash_sha1.c:173:   ErrorStatus status = SUC
 173:../Libraries/STM32F4xx_StdPeriph_Driver/src/stm32f4xx_hash_sha1.c ****   uint32_t keyaddr    = (uint32_t)Key;
 971              		.loc 1 173 15 view .LVU279
 972 014a 0120     		movs	r0, #1	@ <retval>,
 299:../Libraries/STM32F4xx_StdPeriph_Driver/src/stm32f4xx_hash_sha1.c **** }
 973              		.loc 1 299 3 is_stmt 1 view .LVU280
 974              	@ ../Libraries/STM32F4xx_StdPeriph_Driver/src/stm32f4xx_hash_sha1.c:295:         *(uint32_t*)(outpu
 295:../Libraries/STM32F4xx_StdPeriph_Driver/src/stm32f4xx_hash_sha1.c ****       }
 975              		.loc 1 295 35 is_stmt 0 view .LVU281
ARM GAS  C:\Users\admin\AppData\Local\Temp\ccSiiuKl.s 			page 33


 976 014c 0B61     		str	r3, [r1, #16]	@ result, *outputaddr.25_36
 977              	@ ../Libraries/STM32F4xx_StdPeriph_Driver/src/stm32f4xx_hash_sha1.c:299:   return status;  
 299:../Libraries/STM32F4xx_StdPeriph_Driver/src/stm32f4xx_hash_sha1.c **** }
 978              		.loc 1 299 10 view .LVU282
 979 014e 9BE7     		b	.L55		@
 980              		.cfi_endproc
 981              	.LFE111:
 982              		.size	HMAC_SHA1, .-HMAC_SHA1
 983              		.text
 984              	.Letext0:
 985              		.file 3 "c:\\program files (x86)\\gnu arm embedded toolchain\\10 2021.10\\arm-none-eabi\\include\\
 986              		.file 4 "c:\\program files (x86)\\gnu arm embedded toolchain\\10 2021.10\\arm-none-eabi\\include\\
 987              		.file 5 "../Libraries/CMSIS/ST/STM32F4xx/Include/stm32f4xx.h"
 988              		.file 6 "../Libraries/STM32F4xx_StdPeriph_Driver/inc/stm32f4xx_hash.h"