ARM GAS  C:\Users\admin\AppData\Local\Temp\ccNLmEJ4.s 			page 1


   1              		.cpu cortex-m4
   2              		.arch armv7e-m
   3              		.fpu fpv4-sp-d16
   4              		.eabi_attribute 27, 1	@ Tag_ABI_HardFP_use
   5              		.eabi_attribute 28, 1	@ Tag_ABI_VFP_args
   6              		.eabi_attribute 23, 1	@ Tag_ABI_FP_number_model
   7              		.eabi_attribute 24, 1	@ Tag_ABI_align8_needed
   8              		.eabi_attribute 25, 1	@ Tag_ABI_align8_preserved
   9              		.eabi_attribute 26, 1	@ Tag_ABI_enum_size
  10              		.eabi_attribute 30, 2	@ Tag_ABI_optimization_goals
  11              		.eabi_attribute 34, 1	@ Tag_CPU_unaligned_access
  12              		.eabi_attribute 18, 4	@ Tag_ABI_PCS_wchar_t
  13              		.file	"stm32f4xx_rcc.c"
  14              	@ GNU C89 (GNU Arm Embedded Toolchain 10.3-2021.10) version 10.3.1 20210824 (release) (arm-none-eab
  15              	@	compiled by GNU C version 7.3-win32 20180312, GMP version 6.1.0, MPFR version 3.1.4, MPC version 
  16              	
  17              	@ GGC heuristics: --param ggc-min-expand=100 --param ggc-min-heapsize=131072
  18              	@ options passed:  -I . -I . -I ../Utilities/STM32F4-Discovery/
  19              	@ -I ../Libraries/STM32_USB_Device_Library/Class/audio/inc/
  20              	@ -I ../Libraries/STM32_USB_Device_Library/Core/inc/
  21              	@ -I ../Libraries/STM32_USB_OTG_Driver/inc/
  22              	@ -I ../Utilities/STM32F4-Discovery/
  23              	@ -I ../Libraries/STM32F4xx_StdPeriph_Driver/inc/
  24              	@ -I ../Utilities/STM32F4-Discovery/
  25              	@ -I ../Libraries/CMSIS/ST/STM32F4xx/Include/
  26              	@ -I ../Libraries/CMSIS/Include/ -imultilib thumb/v7e-m+fp/hard
  27              	@ -iprefix c:\program files (x86)\gnu arm embedded toolchain\10 2021.10\bin\../lib/gcc/arm-none-eab
  28              	@ -isysroot c:\program files (x86)\gnu arm embedded toolchain\10 2021.10\bin\../arm-none-eabi
  29              	@ -MD out/stm32f4xx_rcc.d -MF out/stm32f4xx_rcc.d -MP
  30              	@ -MQ out/stm32f4xx_rcc.o -D__USES_INITFINI__ -D STM32F4XX -D __VFP_FP__
  31              	@ -D USE_USB_OTG_FS
  32              	@ ../Libraries/STM32F4xx_StdPeriph_Driver/src/stm32f4xx_rcc.c
  33              	@ -mcpu=cortex-m4 -mthumb -mfloat-abi=hard -mfpu=fpv4-sp-d16
  34              	@ -mlibarch=armv7e-m+fp -march=armv7e-m+fp
  35              	@ -auxbase-strip out/stm32f4xx_rcc.o -g -ggdb3 -O3 -Wall
  36              	@ -Wstrict-prototypes -Wextra -std=gnu90 -ffast-math -ffunction-sections
  37              	@ -fdata-sections -fverbose-asm
  38              	@ options enabled:  -faggressive-loop-optimizations -falign-functions
  39              	@ -falign-jumps -falign-labels -falign-loops -fallocation-dce
  40              	@ -fassociative-math -fauto-inc-dec -fbranch-count-reg -fcaller-saves
  41              	@ -fcombine-stack-adjustments -fcompare-elim -fcprop-registers
  42              	@ -fcrossjumping -fcse-follow-jumps -fcx-limited-range -fdata-sections
  43              	@ -fdefer-pop -fdelete-null-pointer-checks -fdevirtualize
  44              	@ -fdevirtualize-speculatively -fdwarf2-cfi-asm -fearly-inlining
  45              	@ -feliminate-unused-debug-symbols -feliminate-unused-debug-types
  46              	@ -fexpensive-optimizations -ffinite-math-only -fforward-propagate
  47              	@ -ffp-int-builtin-inexact -ffunction-cse -ffunction-sections -fgcse
  48              	@ -fgcse-after-reload -fgcse-lm -fgnu-unique -fguess-branch-probability
  49              	@ -fhoist-adjacent-loads -fident -fif-conversion -fif-conversion2
  50              	@ -findirect-inlining -finline -finline-atomics -finline-functions
  51              	@ -finline-functions-called-once -finline-small-functions -fipa-bit-cp
  52              	@ -fipa-cp -fipa-cp-clone -fipa-icf -fipa-icf-functions -fipa-icf-variables
  53              	@ -fipa-profile -fipa-pure-const -fipa-ra -fipa-reference
  54              	@ -fipa-reference-addressable -fipa-sra -fipa-stack-alignment -fipa-vrp
  55              	@ -fira-hoist-pressure -fira-share-save-slots -fira-share-spill-slots
  56              	@ -fisolate-erroneous-paths-dereference -fivopts -fkeep-static-consts
  57              	@ -fleading-underscore -flifetime-dse -floop-interchange
ARM GAS  C:\Users\admin\AppData\Local\Temp\ccNLmEJ4.s 			page 2


  58              	@ -floop-unroll-and-jam -flra-remat -fmerge-constants -fmerge-debug-strings
  59              	@ -fmove-loop-invariants -fomit-frame-pointer -foptimize-sibling-calls
  60              	@ -foptimize-strlen -fpartial-inlining -fpeel-loops -fpeephole -fpeephole2
  61              	@ -fplt -fpredictive-commoning -fprefetch-loop-arrays -freciprocal-math
  62              	@ -freg-struct-return -freorder-blocks -freorder-functions
  63              	@ -frerun-cse-after-loop -fsched-critical-path-heuristic
  64              	@ -fsched-dep-count-heuristic -fsched-group-heuristic -fsched-interblock
  65              	@ -fsched-last-insn-heuristic -fsched-pressure -fsched-rank-heuristic
  66              	@ -fsched-spec -fsched-spec-insn-heuristic -fsched-stalled-insns-dep
  67              	@ -fschedule-insns -fschedule-insns2 -fsection-anchors
  68              	@ -fsemantic-interposition -fshow-column -fshrink-wrap
  69              	@ -fshrink-wrap-separate -fsplit-ivs-in-unroller -fsplit-loops
  70              	@ -fsplit-paths -fsplit-wide-types -fssa-backprop -fssa-phiopt -fstdarg-opt
  71              	@ -fstore-merging -fstrict-aliasing -fstrict-volatile-bitfields
  72              	@ -fsync-libcalls -fthread-jumps -ftoplevel-reorder -ftree-bit-ccp
  73              	@ -ftree-builtin-call-dce -ftree-ccp -ftree-ch -ftree-coalesce-vars
  74              	@ -ftree-copy-prop -ftree-cselim -ftree-dce -ftree-dominator-opts
  75              	@ -ftree-dse -ftree-forwprop -ftree-fre -ftree-loop-distribute-patterns
  76              	@ -ftree-loop-distribution -ftree-loop-if-convert -ftree-loop-im
  77              	@ -ftree-loop-ivcanon -ftree-loop-optimize -ftree-loop-vectorize
  78              	@ -ftree-parallelize-loops= -ftree-partial-pre -ftree-phiprop -ftree-pre
  79              	@ -ftree-pta -ftree-reassoc -ftree-scev-cprop -ftree-sink
  80              	@ -ftree-slp-vectorize -ftree-slsr -ftree-sra -ftree-switch-conversion
  81              	@ -ftree-tail-merge -ftree-ter -ftree-vrp -funit-at-a-time
  82              	@ -funsafe-math-optimizations -funswitch-loops -fvar-tracking
  83              	@ -fvar-tracking-assignments -fverbose-asm -fversion-loops-for-strides
  84              	@ -fzero-initialized-in-bss -masm-syntax-unified -mbe32 -mlittle-endian
  85              	@ -mpic-data-is-text-relative -msched-prolog -mthumb -munaligned-access
  86              	@ -mvectorize-with-neon-quad
  87              	
  88              		.text
  89              	.Ltext0:
  90              		.cfi_sections	.debug_frame
  91              		.section	.text.RCC_DeInit,"ax",%progbits
  92              		.align	1
  93              		.p2align 2,,3
  94              		.global	RCC_DeInit
  95              		.syntax unified
  96              		.thumb
  97              		.thumb_func
  98              		.type	RCC_DeInit, %function
  99              	RCC_DeInit:
 100              	.LFB110:
 101              		.file 1 "../Libraries/STM32F4xx_StdPeriph_Driver/src/stm32f4xx_rcc.c"
   1:../Libraries/STM32F4xx_StdPeriph_Driver/src/stm32f4xx_rcc.c **** /**
   2:../Libraries/STM32F4xx_StdPeriph_Driver/src/stm32f4xx_rcc.c ****   ******************************************************************************
   3:../Libraries/STM32F4xx_StdPeriph_Driver/src/stm32f4xx_rcc.c ****   * @file    stm32f4xx_rcc.c
   4:../Libraries/STM32F4xx_StdPeriph_Driver/src/stm32f4xx_rcc.c ****   * @author  MCD Application Team
   5:../Libraries/STM32F4xx_StdPeriph_Driver/src/stm32f4xx_rcc.c ****   * @version V1.0.0
   6:../Libraries/STM32F4xx_StdPeriph_Driver/src/stm32f4xx_rcc.c ****   * @date    30-September-2011
   7:../Libraries/STM32F4xx_StdPeriph_Driver/src/stm32f4xx_rcc.c ****   * @brief   This file provides firmware functions to manage the following 
   8:../Libraries/STM32F4xx_StdPeriph_Driver/src/stm32f4xx_rcc.c ****   *          functionalities of the Reset and clock control (RCC) peripheral:
   9:../Libraries/STM32F4xx_StdPeriph_Driver/src/stm32f4xx_rcc.c ****   *           - Internal/external clocks, PLL, CSS and MCO configuration
  10:../Libraries/STM32F4xx_StdPeriph_Driver/src/stm32f4xx_rcc.c ****   *           - System, AHB and APB busses clocks configuration
  11:../Libraries/STM32F4xx_StdPeriph_Driver/src/stm32f4xx_rcc.c ****   *           - Peripheral clocks configuration
  12:../Libraries/STM32F4xx_StdPeriph_Driver/src/stm32f4xx_rcc.c ****   *           - Interrupts and flags management
  13:../Libraries/STM32F4xx_StdPeriph_Driver/src/stm32f4xx_rcc.c ****   *
ARM GAS  C:\Users\admin\AppData\Local\Temp\ccNLmEJ4.s 			page 3


  14:../Libraries/STM32F4xx_StdPeriph_Driver/src/stm32f4xx_rcc.c ****   *  @verbatim
  15:../Libraries/STM32F4xx_StdPeriph_Driver/src/stm32f4xx_rcc.c ****   *               
  16:../Libraries/STM32F4xx_StdPeriph_Driver/src/stm32f4xx_rcc.c ****   *          ===================================================================
  17:../Libraries/STM32F4xx_StdPeriph_Driver/src/stm32f4xx_rcc.c ****   *                               RCC specific features
  18:../Libraries/STM32F4xx_StdPeriph_Driver/src/stm32f4xx_rcc.c ****   *          ===================================================================
  19:../Libraries/STM32F4xx_StdPeriph_Driver/src/stm32f4xx_rcc.c ****   *    
  20:../Libraries/STM32F4xx_StdPeriph_Driver/src/stm32f4xx_rcc.c ****   *          After reset the device is running from Internal High Speed oscillator 
  21:../Libraries/STM32F4xx_StdPeriph_Driver/src/stm32f4xx_rcc.c ****   *          (HSI 16MHz) with Flash 0 wait state, Flash prefetch buffer, D-Cache 
  22:../Libraries/STM32F4xx_StdPeriph_Driver/src/stm32f4xx_rcc.c ****   *          and I-Cache are disabled, and all peripherals are off except internal
  23:../Libraries/STM32F4xx_StdPeriph_Driver/src/stm32f4xx_rcc.c ****   *          SRAM, Flash and JTAG.
  24:../Libraries/STM32F4xx_StdPeriph_Driver/src/stm32f4xx_rcc.c ****   *           - There is no prescaler on High speed (AHB) and Low speed (APB) busses;
  25:../Libraries/STM32F4xx_StdPeriph_Driver/src/stm32f4xx_rcc.c ****   *             all peripherals mapped on these busses are running at HSI speed.
  26:../Libraries/STM32F4xx_StdPeriph_Driver/src/stm32f4xx_rcc.c ****   *       	  - The clock for all peripherals is switched off, except the SRAM and FLASH.
  27:../Libraries/STM32F4xx_StdPeriph_Driver/src/stm32f4xx_rcc.c ****   *           - All GPIOs are in input floating state, except the JTAG pins which
  28:../Libraries/STM32F4xx_StdPeriph_Driver/src/stm32f4xx_rcc.c ****   *             are assigned to be used for debug purpose.
  29:../Libraries/STM32F4xx_StdPeriph_Driver/src/stm32f4xx_rcc.c ****   *        
  30:../Libraries/STM32F4xx_StdPeriph_Driver/src/stm32f4xx_rcc.c ****   *          Once the device started from reset, the user application has to:        
  31:../Libraries/STM32F4xx_StdPeriph_Driver/src/stm32f4xx_rcc.c ****   *           - Configure the clock source to be used to drive the System clock
  32:../Libraries/STM32F4xx_StdPeriph_Driver/src/stm32f4xx_rcc.c ****   *             (if the application needs higher frequency/performance)
  33:../Libraries/STM32F4xx_StdPeriph_Driver/src/stm32f4xx_rcc.c ****   *           - Configure the System clock frequency and Flash settings  
  34:../Libraries/STM32F4xx_StdPeriph_Driver/src/stm32f4xx_rcc.c ****   *           - Configure the AHB and APB busses prescalers
  35:../Libraries/STM32F4xx_StdPeriph_Driver/src/stm32f4xx_rcc.c ****   *           - Enable the clock for the peripheral(s) to be used
  36:../Libraries/STM32F4xx_StdPeriph_Driver/src/stm32f4xx_rcc.c ****   *           - Configure the clock source(s) for peripherals which clocks are not
  37:../Libraries/STM32F4xx_StdPeriph_Driver/src/stm32f4xx_rcc.c ****   *             derived from the System clock (I2S, RTC, ADC, USB OTG FS/SDIO/RNG)      
  38:../Libraries/STM32F4xx_StdPeriph_Driver/src/stm32f4xx_rcc.c ****   *                        
  39:../Libraries/STM32F4xx_StdPeriph_Driver/src/stm32f4xx_rcc.c ****   *  @endverbatim
  40:../Libraries/STM32F4xx_StdPeriph_Driver/src/stm32f4xx_rcc.c ****   *    
  41:../Libraries/STM32F4xx_StdPeriph_Driver/src/stm32f4xx_rcc.c ****   ******************************************************************************
  42:../Libraries/STM32F4xx_StdPeriph_Driver/src/stm32f4xx_rcc.c ****   * @attention
  43:../Libraries/STM32F4xx_StdPeriph_Driver/src/stm32f4xx_rcc.c ****   *
  44:../Libraries/STM32F4xx_StdPeriph_Driver/src/stm32f4xx_rcc.c ****   * THE PRESENT FIRMWARE WHICH IS FOR GUIDANCE ONLY AIMS AT PROVIDING CUSTOMERS
  45:../Libraries/STM32F4xx_StdPeriph_Driver/src/stm32f4xx_rcc.c ****   * WITH CODING INFORMATION REGARDING THEIR PRODUCTS IN ORDER FOR THEM TO SAVE
  46:../Libraries/STM32F4xx_StdPeriph_Driver/src/stm32f4xx_rcc.c ****   * TIME. AS A RESULT, STMICROELECTRONICS SHALL NOT BE HELD LIABLE FOR ANY
  47:../Libraries/STM32F4xx_StdPeriph_Driver/src/stm32f4xx_rcc.c ****   * DIRECT, INDIRECT OR CONSEQUENTIAL DAMAGES WITH RESPECT TO ANY CLAIMS ARISING
  48:../Libraries/STM32F4xx_StdPeriph_Driver/src/stm32f4xx_rcc.c ****   * FROM THE CONTENT OF SUCH FIRMWARE AND/OR THE USE MADE BY CUSTOMERS OF THE
  49:../Libraries/STM32F4xx_StdPeriph_Driver/src/stm32f4xx_rcc.c ****   * CODING INFORMATION CONTAINED HEREIN IN CONNECTION WITH THEIR PRODUCTS.
  50:../Libraries/STM32F4xx_StdPeriph_Driver/src/stm32f4xx_rcc.c ****   *
  51:../Libraries/STM32F4xx_StdPeriph_Driver/src/stm32f4xx_rcc.c ****   * <h2><center>&copy; COPYRIGHT 2011 STMicroelectronics</center></h2>
  52:../Libraries/STM32F4xx_StdPeriph_Driver/src/stm32f4xx_rcc.c ****   ******************************************************************************
  53:../Libraries/STM32F4xx_StdPeriph_Driver/src/stm32f4xx_rcc.c ****   */
  54:../Libraries/STM32F4xx_StdPeriph_Driver/src/stm32f4xx_rcc.c **** 
  55:../Libraries/STM32F4xx_StdPeriph_Driver/src/stm32f4xx_rcc.c **** /* Includes ------------------------------------------------------------------*/
  56:../Libraries/STM32F4xx_StdPeriph_Driver/src/stm32f4xx_rcc.c **** #include "stm32f4xx_rcc.h"
  57:../Libraries/STM32F4xx_StdPeriph_Driver/src/stm32f4xx_rcc.c **** #include <stm32f4xx_conf.h>
  58:../Libraries/STM32F4xx_StdPeriph_Driver/src/stm32f4xx_rcc.c **** /** @addtogroup STM32F4xx_StdPeriph_Driver
  59:../Libraries/STM32F4xx_StdPeriph_Driver/src/stm32f4xx_rcc.c ****   * @{
  60:../Libraries/STM32F4xx_StdPeriph_Driver/src/stm32f4xx_rcc.c ****   */
  61:../Libraries/STM32F4xx_StdPeriph_Driver/src/stm32f4xx_rcc.c **** 
  62:../Libraries/STM32F4xx_StdPeriph_Driver/src/stm32f4xx_rcc.c **** /** @defgroup RCC 
  63:../Libraries/STM32F4xx_StdPeriph_Driver/src/stm32f4xx_rcc.c ****   * @brief RCC driver modules
  64:../Libraries/STM32F4xx_StdPeriph_Driver/src/stm32f4xx_rcc.c ****   * @{
  65:../Libraries/STM32F4xx_StdPeriph_Driver/src/stm32f4xx_rcc.c ****   */ 
  66:../Libraries/STM32F4xx_StdPeriph_Driver/src/stm32f4xx_rcc.c **** 
  67:../Libraries/STM32F4xx_StdPeriph_Driver/src/stm32f4xx_rcc.c **** /* Private typedef -----------------------------------------------------------*/
  68:../Libraries/STM32F4xx_StdPeriph_Driver/src/stm32f4xx_rcc.c **** /* Private define ------------------------------------------------------------*/
  69:../Libraries/STM32F4xx_StdPeriph_Driver/src/stm32f4xx_rcc.c **** /* ------------ RCC registers bit address in the alias region ----------- */
  70:../Libraries/STM32F4xx_StdPeriph_Driver/src/stm32f4xx_rcc.c **** #define RCC_OFFSET                (RCC_BASE - PERIPH_BASE)
ARM GAS  C:\Users\admin\AppData\Local\Temp\ccNLmEJ4.s 			page 4


  71:../Libraries/STM32F4xx_StdPeriph_Driver/src/stm32f4xx_rcc.c **** /* --- CR Register ---*/
  72:../Libraries/STM32F4xx_StdPeriph_Driver/src/stm32f4xx_rcc.c **** /* Alias word address of HSION bit */
  73:../Libraries/STM32F4xx_StdPeriph_Driver/src/stm32f4xx_rcc.c **** #define CR_OFFSET                 (RCC_OFFSET + 0x00)
  74:../Libraries/STM32F4xx_StdPeriph_Driver/src/stm32f4xx_rcc.c **** #define HSION_BitNumber           0x00
  75:../Libraries/STM32F4xx_StdPeriph_Driver/src/stm32f4xx_rcc.c **** #define CR_HSION_BB               (PERIPH_BB_BASE + (CR_OFFSET * 32) + (HSION_BitNumber * 4))
  76:../Libraries/STM32F4xx_StdPeriph_Driver/src/stm32f4xx_rcc.c **** /* Alias word address of CSSON bit */
  77:../Libraries/STM32F4xx_StdPeriph_Driver/src/stm32f4xx_rcc.c **** #define CSSON_BitNumber           0x13
  78:../Libraries/STM32F4xx_StdPeriph_Driver/src/stm32f4xx_rcc.c **** #define CR_CSSON_BB               (PERIPH_BB_BASE + (CR_OFFSET * 32) + (CSSON_BitNumber * 4))
  79:../Libraries/STM32F4xx_StdPeriph_Driver/src/stm32f4xx_rcc.c **** /* Alias word address of PLLON bit */
  80:../Libraries/STM32F4xx_StdPeriph_Driver/src/stm32f4xx_rcc.c **** #define PLLON_BitNumber           0x18
  81:../Libraries/STM32F4xx_StdPeriph_Driver/src/stm32f4xx_rcc.c **** #define CR_PLLON_BB               (PERIPH_BB_BASE + (CR_OFFSET * 32) + (PLLON_BitNumber * 4))
  82:../Libraries/STM32F4xx_StdPeriph_Driver/src/stm32f4xx_rcc.c **** /* Alias word address of PLLI2SON bit */
  83:../Libraries/STM32F4xx_StdPeriph_Driver/src/stm32f4xx_rcc.c **** #define PLLI2SON_BitNumber        0x1A
  84:../Libraries/STM32F4xx_StdPeriph_Driver/src/stm32f4xx_rcc.c **** #define CR_PLLI2SON_BB            (PERIPH_BB_BASE + (CR_OFFSET * 32) + (PLLI2SON_BitNumber * 4))
  85:../Libraries/STM32F4xx_StdPeriph_Driver/src/stm32f4xx_rcc.c **** 
  86:../Libraries/STM32F4xx_StdPeriph_Driver/src/stm32f4xx_rcc.c **** /* --- CFGR Register ---*/
  87:../Libraries/STM32F4xx_StdPeriph_Driver/src/stm32f4xx_rcc.c **** /* Alias word address of I2SSRC bit */
  88:../Libraries/STM32F4xx_StdPeriph_Driver/src/stm32f4xx_rcc.c **** #define CFGR_OFFSET               (RCC_OFFSET + 0x08)
  89:../Libraries/STM32F4xx_StdPeriph_Driver/src/stm32f4xx_rcc.c **** #define I2SSRC_BitNumber          0x17
  90:../Libraries/STM32F4xx_StdPeriph_Driver/src/stm32f4xx_rcc.c **** #define CFGR_I2SSRC_BB            (PERIPH_BB_BASE + (CFGR_OFFSET * 32) + (I2SSRC_BitNumber * 4))
  91:../Libraries/STM32F4xx_StdPeriph_Driver/src/stm32f4xx_rcc.c **** 
  92:../Libraries/STM32F4xx_StdPeriph_Driver/src/stm32f4xx_rcc.c **** /* --- BDCR Register ---*/
  93:../Libraries/STM32F4xx_StdPeriph_Driver/src/stm32f4xx_rcc.c **** /* Alias word address of RTCEN bit */
  94:../Libraries/STM32F4xx_StdPeriph_Driver/src/stm32f4xx_rcc.c **** #define BDCR_OFFSET               (RCC_OFFSET + 0x70)
  95:../Libraries/STM32F4xx_StdPeriph_Driver/src/stm32f4xx_rcc.c **** #define RTCEN_BitNumber           0x0F
  96:../Libraries/STM32F4xx_StdPeriph_Driver/src/stm32f4xx_rcc.c **** #define BDCR_RTCEN_BB             (PERIPH_BB_BASE + (BDCR_OFFSET * 32) + (RTCEN_BitNumber * 4))
  97:../Libraries/STM32F4xx_StdPeriph_Driver/src/stm32f4xx_rcc.c **** /* Alias word address of BDRST bit */
  98:../Libraries/STM32F4xx_StdPeriph_Driver/src/stm32f4xx_rcc.c **** #define BDRST_BitNumber           0x10
  99:../Libraries/STM32F4xx_StdPeriph_Driver/src/stm32f4xx_rcc.c **** #define BDCR_BDRST_BB             (PERIPH_BB_BASE + (BDCR_OFFSET * 32) + (BDRST_BitNumber * 4))
 100:../Libraries/STM32F4xx_StdPeriph_Driver/src/stm32f4xx_rcc.c **** /* --- CSR Register ---*/
 101:../Libraries/STM32F4xx_StdPeriph_Driver/src/stm32f4xx_rcc.c **** /* Alias word address of LSION bit */
 102:../Libraries/STM32F4xx_StdPeriph_Driver/src/stm32f4xx_rcc.c **** #define CSR_OFFSET                (RCC_OFFSET + 0x74)
 103:../Libraries/STM32F4xx_StdPeriph_Driver/src/stm32f4xx_rcc.c **** #define LSION_BitNumber           0x00
 104:../Libraries/STM32F4xx_StdPeriph_Driver/src/stm32f4xx_rcc.c **** #define CSR_LSION_BB              (PERIPH_BB_BASE + (CSR_OFFSET * 32) + (LSION_BitNumber * 4))
 105:../Libraries/STM32F4xx_StdPeriph_Driver/src/stm32f4xx_rcc.c **** /* ---------------------- RCC registers bit mask ------------------------ */
 106:../Libraries/STM32F4xx_StdPeriph_Driver/src/stm32f4xx_rcc.c **** /* CFGR register bit mask */
 107:../Libraries/STM32F4xx_StdPeriph_Driver/src/stm32f4xx_rcc.c **** #define CFGR_MCO2_RESET_MASK      ((uint32_t)0x07FFFFFF)
 108:../Libraries/STM32F4xx_StdPeriph_Driver/src/stm32f4xx_rcc.c **** #define CFGR_MCO1_RESET_MASK      ((uint32_t)0xF89FFFFF)
 109:../Libraries/STM32F4xx_StdPeriph_Driver/src/stm32f4xx_rcc.c **** 
 110:../Libraries/STM32F4xx_StdPeriph_Driver/src/stm32f4xx_rcc.c **** /* RCC Flag Mask */
 111:../Libraries/STM32F4xx_StdPeriph_Driver/src/stm32f4xx_rcc.c **** #define FLAG_MASK                 ((uint8_t)0x1F)
 112:../Libraries/STM32F4xx_StdPeriph_Driver/src/stm32f4xx_rcc.c **** 
 113:../Libraries/STM32F4xx_StdPeriph_Driver/src/stm32f4xx_rcc.c **** /* CR register byte 3 (Bits[23:16]) base address */
 114:../Libraries/STM32F4xx_StdPeriph_Driver/src/stm32f4xx_rcc.c **** #define CR_BYTE3_ADDRESS          ((uint32_t)0x40023802)
 115:../Libraries/STM32F4xx_StdPeriph_Driver/src/stm32f4xx_rcc.c **** 
 116:../Libraries/STM32F4xx_StdPeriph_Driver/src/stm32f4xx_rcc.c **** /* CIR register byte 2 (Bits[15:8]) base address */
 117:../Libraries/STM32F4xx_StdPeriph_Driver/src/stm32f4xx_rcc.c **** #define CIR_BYTE2_ADDRESS         ((uint32_t)(RCC_BASE + 0x0C + 0x01))
 118:../Libraries/STM32F4xx_StdPeriph_Driver/src/stm32f4xx_rcc.c **** 
 119:../Libraries/STM32F4xx_StdPeriph_Driver/src/stm32f4xx_rcc.c **** /* CIR register byte 3 (Bits[23:16]) base address */
 120:../Libraries/STM32F4xx_StdPeriph_Driver/src/stm32f4xx_rcc.c **** #define CIR_BYTE3_ADDRESS         ((uint32_t)(RCC_BASE + 0x0C + 0x02))
 121:../Libraries/STM32F4xx_StdPeriph_Driver/src/stm32f4xx_rcc.c **** 
 122:../Libraries/STM32F4xx_StdPeriph_Driver/src/stm32f4xx_rcc.c **** /* BDCR register base address */
 123:../Libraries/STM32F4xx_StdPeriph_Driver/src/stm32f4xx_rcc.c **** #define BDCR_ADDRESS              (PERIPH_BASE + BDCR_OFFSET)
 124:../Libraries/STM32F4xx_StdPeriph_Driver/src/stm32f4xx_rcc.c **** 
 125:../Libraries/STM32F4xx_StdPeriph_Driver/src/stm32f4xx_rcc.c **** /* Private macro -------------------------------------------------------------*/
 126:../Libraries/STM32F4xx_StdPeriph_Driver/src/stm32f4xx_rcc.c **** /* Private variables ---------------------------------------------------------*/
 127:../Libraries/STM32F4xx_StdPeriph_Driver/src/stm32f4xx_rcc.c **** static __I uint8_t APBAHBPrescTable[16] = {0, 0, 0, 0, 1, 2, 3, 4, 1, 2, 3, 4, 6, 7, 8, 9};
ARM GAS  C:\Users\admin\AppData\Local\Temp\ccNLmEJ4.s 			page 5


 128:../Libraries/STM32F4xx_StdPeriph_Driver/src/stm32f4xx_rcc.c **** 
 129:../Libraries/STM32F4xx_StdPeriph_Driver/src/stm32f4xx_rcc.c **** /* Private function prototypes -----------------------------------------------*/
 130:../Libraries/STM32F4xx_StdPeriph_Driver/src/stm32f4xx_rcc.c **** /* Private functions ---------------------------------------------------------*/
 131:../Libraries/STM32F4xx_StdPeriph_Driver/src/stm32f4xx_rcc.c **** 
 132:../Libraries/STM32F4xx_StdPeriph_Driver/src/stm32f4xx_rcc.c **** /** @defgroup RCC_Private_Functions
 133:../Libraries/STM32F4xx_StdPeriph_Driver/src/stm32f4xx_rcc.c ****   * @{
 134:../Libraries/STM32F4xx_StdPeriph_Driver/src/stm32f4xx_rcc.c ****   */ 
 135:../Libraries/STM32F4xx_StdPeriph_Driver/src/stm32f4xx_rcc.c **** 
 136:../Libraries/STM32F4xx_StdPeriph_Driver/src/stm32f4xx_rcc.c **** /** @defgroup RCC_Group1 Internal and external clocks, PLL, CSS and MCO configuration functions
 137:../Libraries/STM32F4xx_StdPeriph_Driver/src/stm32f4xx_rcc.c ****  *  @brief   Internal and external clocks, PLL, CSS and MCO configuration functions 
 138:../Libraries/STM32F4xx_StdPeriph_Driver/src/stm32f4xx_rcc.c ****  *
 139:../Libraries/STM32F4xx_StdPeriph_Driver/src/stm32f4xx_rcc.c **** @verbatim   
 140:../Libraries/STM32F4xx_StdPeriph_Driver/src/stm32f4xx_rcc.c ****  ===============================================================================
 141:../Libraries/STM32F4xx_StdPeriph_Driver/src/stm32f4xx_rcc.c ****       Internal/external clocks, PLL, CSS and MCO configuration functions
 142:../Libraries/STM32F4xx_StdPeriph_Driver/src/stm32f4xx_rcc.c ****  ===============================================================================  
 143:../Libraries/STM32F4xx_StdPeriph_Driver/src/stm32f4xx_rcc.c **** 
 144:../Libraries/STM32F4xx_StdPeriph_Driver/src/stm32f4xx_rcc.c ****   This section provide functions allowing to configure the internal/external clocks,
 145:../Libraries/STM32F4xx_StdPeriph_Driver/src/stm32f4xx_rcc.c ****   PLLs, CSS and MCO pins.
 146:../Libraries/STM32F4xx_StdPeriph_Driver/src/stm32f4xx_rcc.c ****   
 147:../Libraries/STM32F4xx_StdPeriph_Driver/src/stm32f4xx_rcc.c ****   1. HSI (high-speed internal), 16 MHz factory-trimmed RC used directly or through
 148:../Libraries/STM32F4xx_StdPeriph_Driver/src/stm32f4xx_rcc.c ****      the PLL as System clock source.
 149:../Libraries/STM32F4xx_StdPeriph_Driver/src/stm32f4xx_rcc.c **** 
 150:../Libraries/STM32F4xx_StdPeriph_Driver/src/stm32f4xx_rcc.c ****   2. LSI (low-speed internal), 32 KHz low consumption RC used as IWDG and/or RTC
 151:../Libraries/STM32F4xx_StdPeriph_Driver/src/stm32f4xx_rcc.c ****      clock source.
 152:../Libraries/STM32F4xx_StdPeriph_Driver/src/stm32f4xx_rcc.c **** 
 153:../Libraries/STM32F4xx_StdPeriph_Driver/src/stm32f4xx_rcc.c ****   3. HSE (high-speed external), 4 to 26 MHz crystal oscillator used directly or
 154:../Libraries/STM32F4xx_StdPeriph_Driver/src/stm32f4xx_rcc.c ****      through the PLL as System clock source. Can be used also as RTC clock source.
 155:../Libraries/STM32F4xx_StdPeriph_Driver/src/stm32f4xx_rcc.c **** 
 156:../Libraries/STM32F4xx_StdPeriph_Driver/src/stm32f4xx_rcc.c ****   4. LSE (low-speed external), 32 KHz oscillator used as RTC clock source.   
 157:../Libraries/STM32F4xx_StdPeriph_Driver/src/stm32f4xx_rcc.c **** 
 158:../Libraries/STM32F4xx_StdPeriph_Driver/src/stm32f4xx_rcc.c ****   5. PLL (clocked by HSI or HSE), featuring two different output clocks:
 159:../Libraries/STM32F4xx_StdPeriph_Driver/src/stm32f4xx_rcc.c ****       - The first output is used to generate the high speed system clock (up to 168 MHz)
 160:../Libraries/STM32F4xx_StdPeriph_Driver/src/stm32f4xx_rcc.c ****       - The second output is used to generate the clock for the USB OTG FS (48 MHz),
 161:../Libraries/STM32F4xx_StdPeriph_Driver/src/stm32f4xx_rcc.c ****         the random analog generator (<=48 MHz) and the SDIO (<= 48 MHz).
 162:../Libraries/STM32F4xx_StdPeriph_Driver/src/stm32f4xx_rcc.c **** 
 163:../Libraries/STM32F4xx_StdPeriph_Driver/src/stm32f4xx_rcc.c ****   6. PLLI2S (clocked by HSI or HSE), used to generate an accurate clock to achieve 
 164:../Libraries/STM32F4xx_StdPeriph_Driver/src/stm32f4xx_rcc.c ****      high-quality audio performance on the I2S interface.
 165:../Libraries/STM32F4xx_StdPeriph_Driver/src/stm32f4xx_rcc.c ****   
 166:../Libraries/STM32F4xx_StdPeriph_Driver/src/stm32f4xx_rcc.c ****   7. CSS (Clock security system), once enable and if a HSE clock failure occurs 
 167:../Libraries/STM32F4xx_StdPeriph_Driver/src/stm32f4xx_rcc.c ****      (HSE used directly or through PLL as System clock source), the System clock
 168:../Libraries/STM32F4xx_StdPeriph_Driver/src/stm32f4xx_rcc.c ****      is automatically switched to HSI and an interrupt is generated if enabled. 
 169:../Libraries/STM32F4xx_StdPeriph_Driver/src/stm32f4xx_rcc.c ****      The interrupt is linked to the Cortex-M4 NMI (Non-Maskable Interrupt) 
 170:../Libraries/STM32F4xx_StdPeriph_Driver/src/stm32f4xx_rcc.c ****      exception vector.   
 171:../Libraries/STM32F4xx_StdPeriph_Driver/src/stm32f4xx_rcc.c **** 
 172:../Libraries/STM32F4xx_StdPeriph_Driver/src/stm32f4xx_rcc.c ****   8. MCO1 (microcontroller clock output), used to output HSI, LSE, HSE or PLL
 173:../Libraries/STM32F4xx_StdPeriph_Driver/src/stm32f4xx_rcc.c ****      clock (through a configurable prescaler) on PA8 pin.
 174:../Libraries/STM32F4xx_StdPeriph_Driver/src/stm32f4xx_rcc.c **** 
 175:../Libraries/STM32F4xx_StdPeriph_Driver/src/stm32f4xx_rcc.c ****   9. MCO2 (microcontroller clock output), used to output HSE, PLL, SYSCLK or PLLI2S
 176:../Libraries/STM32F4xx_StdPeriph_Driver/src/stm32f4xx_rcc.c ****      clock (through a configurable prescaler) on PC9 pin.
 177:../Libraries/STM32F4xx_StdPeriph_Driver/src/stm32f4xx_rcc.c **** 
 178:../Libraries/STM32F4xx_StdPeriph_Driver/src/stm32f4xx_rcc.c **** @endverbatim
 179:../Libraries/STM32F4xx_StdPeriph_Driver/src/stm32f4xx_rcc.c ****   * @{
 180:../Libraries/STM32F4xx_StdPeriph_Driver/src/stm32f4xx_rcc.c ****   */
 181:../Libraries/STM32F4xx_StdPeriph_Driver/src/stm32f4xx_rcc.c **** 
 182:../Libraries/STM32F4xx_StdPeriph_Driver/src/stm32f4xx_rcc.c **** /**
 183:../Libraries/STM32F4xx_StdPeriph_Driver/src/stm32f4xx_rcc.c ****   * @brief  Resets the RCC clock configuration to the default reset state.
 184:../Libraries/STM32F4xx_StdPeriph_Driver/src/stm32f4xx_rcc.c ****   * @note   The default reset state of the clock configuration is given below:
ARM GAS  C:\Users\admin\AppData\Local\Temp\ccNLmEJ4.s 			page 6


 185:../Libraries/STM32F4xx_StdPeriph_Driver/src/stm32f4xx_rcc.c ****   *            - HSI ON and used as system clock source
 186:../Libraries/STM32F4xx_StdPeriph_Driver/src/stm32f4xx_rcc.c ****   *            - HSE, PLL and PLLI2S OFF
 187:../Libraries/STM32F4xx_StdPeriph_Driver/src/stm32f4xx_rcc.c ****   *            - AHB, APB1 and APB2 prescaler set to 1.
 188:../Libraries/STM32F4xx_StdPeriph_Driver/src/stm32f4xx_rcc.c ****   *            - CSS, MCO1 and MCO2 OFF
 189:../Libraries/STM32F4xx_StdPeriph_Driver/src/stm32f4xx_rcc.c ****   *            - All interrupts disabled
 190:../Libraries/STM32F4xx_StdPeriph_Driver/src/stm32f4xx_rcc.c ****   * @note   This function doesn't modify the configuration of the
 191:../Libraries/STM32F4xx_StdPeriph_Driver/src/stm32f4xx_rcc.c ****   *            - Peripheral clocks
 192:../Libraries/STM32F4xx_StdPeriph_Driver/src/stm32f4xx_rcc.c ****   *            - LSI, LSE and RTC clocks 
 193:../Libraries/STM32F4xx_StdPeriph_Driver/src/stm32f4xx_rcc.c ****   * @param  None
 194:../Libraries/STM32F4xx_StdPeriph_Driver/src/stm32f4xx_rcc.c ****   * @retval None
 195:../Libraries/STM32F4xx_StdPeriph_Driver/src/stm32f4xx_rcc.c ****   */
 196:../Libraries/STM32F4xx_StdPeriph_Driver/src/stm32f4xx_rcc.c **** void RCC_DeInit(void)
 197:../Libraries/STM32F4xx_StdPeriph_Driver/src/stm32f4xx_rcc.c **** {
 102              		.loc 1 197 1 view -0
 103              		.cfi_startproc
 104              		@ args = 0, pretend = 0, frame = 0
 105              		@ frame_needed = 0, uses_anonymous_args = 0
 106              		@ link register save eliminated.
 198:../Libraries/STM32F4xx_StdPeriph_Driver/src/stm32f4xx_rcc.c ****   /* Set HSION bit */
 199:../Libraries/STM32F4xx_StdPeriph_Driver/src/stm32f4xx_rcc.c ****   RCC->CR |= (uint32_t)0x00000001;
 107              		.loc 1 199 3 view .LVU1
 108              	@ ../Libraries/STM32F4xx_StdPeriph_Driver/src/stm32f4xx_rcc.c:199:   RCC->CR |= (uint32_t)0x0000000
 109              		.loc 1 199 11 is_stmt 0 view .LVU2
 110 0000 0A4B     		ldr	r3, .L3	@ tmp119,
 111              	@ ../Libraries/STM32F4xx_StdPeriph_Driver/src/stm32f4xx_rcc.c:208:   RCC->PLLCFGR = 0x24003010;
 200:../Libraries/STM32F4xx_StdPeriph_Driver/src/stm32f4xx_rcc.c **** 
 201:../Libraries/STM32F4xx_StdPeriph_Driver/src/stm32f4xx_rcc.c ****   /* Reset CFGR register */
 202:../Libraries/STM32F4xx_StdPeriph_Driver/src/stm32f4xx_rcc.c ****   RCC->CFGR = 0x00000000;
 203:../Libraries/STM32F4xx_StdPeriph_Driver/src/stm32f4xx_rcc.c **** 
 204:../Libraries/STM32F4xx_StdPeriph_Driver/src/stm32f4xx_rcc.c ****   /* Reset HSEON, CSSON and PLLON bits */
 205:../Libraries/STM32F4xx_StdPeriph_Driver/src/stm32f4xx_rcc.c ****   RCC->CR &= (uint32_t)0xFEF6FFFF;
 206:../Libraries/STM32F4xx_StdPeriph_Driver/src/stm32f4xx_rcc.c **** 
 207:../Libraries/STM32F4xx_StdPeriph_Driver/src/stm32f4xx_rcc.c ****   /* Reset PLLCFGR register */
 208:../Libraries/STM32F4xx_StdPeriph_Driver/src/stm32f4xx_rcc.c ****   RCC->PLLCFGR = 0x24003010;
 112              		.loc 1 208 16 view .LVU3
 113 0002 0B48     		ldr	r0, .L3+4	@ tmp127,
 114              	@ ../Libraries/STM32F4xx_StdPeriph_Driver/src/stm32f4xx_rcc.c:199:   RCC->CR |= (uint32_t)0x0000000
 199:../Libraries/STM32F4xx_StdPeriph_Driver/src/stm32f4xx_rcc.c **** 
 115              		.loc 1 199 11 view .LVU4
 116 0004 1A68     		ldr	r2, [r3]	@ _1, MEM[(struct RCC_TypeDef *)1073887232B].CR
 117              	@ ../Libraries/STM32F4xx_StdPeriph_Driver/src/stm32f4xx_rcc.c:202:   RCC->CFGR = 0x00000000;
 202:../Libraries/STM32F4xx_StdPeriph_Driver/src/stm32f4xx_rcc.c **** 
 118              		.loc 1 202 13 view .LVU5
 119 0006 0021     		movs	r1, #0	@ tmp122,
 120              	@ ../Libraries/STM32F4xx_StdPeriph_Driver/src/stm32f4xx_rcc.c:199:   RCC->CR |= (uint32_t)0x0000000
 199:../Libraries/STM32F4xx_StdPeriph_Driver/src/stm32f4xx_rcc.c **** 
 121              		.loc 1 199 11 view .LVU6
 122 0008 42F00102 		orr	r2, r2, #1	@ _2, _1,
 123 000c 1A60     		str	r2, [r3]	@ _2, MEM[(struct RCC_TypeDef *)1073887232B].CR
 202:../Libraries/STM32F4xx_StdPeriph_Driver/src/stm32f4xx_rcc.c **** 
 124              		.loc 1 202 3 is_stmt 1 view .LVU7
 125              	@ ../Libraries/STM32F4xx_StdPeriph_Driver/src/stm32f4xx_rcc.c:202:   RCC->CFGR = 0x00000000;
 202:../Libraries/STM32F4xx_StdPeriph_Driver/src/stm32f4xx_rcc.c **** 
 126              		.loc 1 202 13 is_stmt 0 view .LVU8
 127 000e 9960     		str	r1, [r3, #8]	@ tmp122, MEM[(struct RCC_TypeDef *)1073887232B].CFGR
 205:../Libraries/STM32F4xx_StdPeriph_Driver/src/stm32f4xx_rcc.c **** 
 128              		.loc 1 205 3 is_stmt 1 view .LVU9
ARM GAS  C:\Users\admin\AppData\Local\Temp\ccNLmEJ4.s 			page 7


 129              	@ ../Libraries/STM32F4xx_StdPeriph_Driver/src/stm32f4xx_rcc.c:205:   RCC->CR &= (uint32_t)0xFEF6FFF
 205:../Libraries/STM32F4xx_StdPeriph_Driver/src/stm32f4xx_rcc.c **** 
 130              		.loc 1 205 11 is_stmt 0 view .LVU10
 131 0010 1A68     		ldr	r2, [r3]	@ _3, MEM[(struct RCC_TypeDef *)1073887232B].CR
 132 0012 22F08472 		bic	r2, r2, #17301504	@ _4, _3,
 133 0016 22F48032 		bic	r2, r2, #65536	@ _4, _4,
 134 001a 1A60     		str	r2, [r3]	@ _4, MEM[(struct RCC_TypeDef *)1073887232B].CR
 135              		.loc 1 208 3 is_stmt 1 view .LVU11
 136              	@ ../Libraries/STM32F4xx_StdPeriph_Driver/src/stm32f4xx_rcc.c:208:   RCC->PLLCFGR = 0x24003010;
 137              		.loc 1 208 16 is_stmt 0 view .LVU12
 138 001c 5860     		str	r0, [r3, #4]	@ tmp127, MEM[(struct RCC_TypeDef *)1073887232B].PLLCFGR
 209:../Libraries/STM32F4xx_StdPeriph_Driver/src/stm32f4xx_rcc.c **** 
 210:../Libraries/STM32F4xx_StdPeriph_Driver/src/stm32f4xx_rcc.c ****   /* Reset HSEBYP bit */
 211:../Libraries/STM32F4xx_StdPeriph_Driver/src/stm32f4xx_rcc.c ****   RCC->CR &= (uint32_t)0xFFFBFFFF;
 139              		.loc 1 211 3 is_stmt 1 view .LVU13
 140              	@ ../Libraries/STM32F4xx_StdPeriph_Driver/src/stm32f4xx_rcc.c:211:   RCC->CR &= (uint32_t)0xFFFBFFF
 141              		.loc 1 211 11 is_stmt 0 view .LVU14
 142 001e 1A68     		ldr	r2, [r3]	@ _5, MEM[(struct RCC_TypeDef *)1073887232B].CR
 143 0020 22F48022 		bic	r2, r2, #262144	@ _6, _5,
 144 0024 1A60     		str	r2, [r3]	@ _6, MEM[(struct RCC_TypeDef *)1073887232B].CR
 212:../Libraries/STM32F4xx_StdPeriph_Driver/src/stm32f4xx_rcc.c **** 
 213:../Libraries/STM32F4xx_StdPeriph_Driver/src/stm32f4xx_rcc.c ****   /* Disable all interrupts */
 214:../Libraries/STM32F4xx_StdPeriph_Driver/src/stm32f4xx_rcc.c ****   RCC->CIR = 0x00000000;
 145              		.loc 1 214 3 is_stmt 1 view .LVU15
 146              	@ ../Libraries/STM32F4xx_StdPeriph_Driver/src/stm32f4xx_rcc.c:214:   RCC->CIR = 0x00000000;
 147              		.loc 1 214 12 is_stmt 0 view .LVU16
 148 0026 D960     		str	r1, [r3, #12]	@ tmp122, MEM[(struct RCC_TypeDef *)1073887232B].CIR
 149              	@ ../Libraries/STM32F4xx_StdPeriph_Driver/src/stm32f4xx_rcc.c:215: }
 215:../Libraries/STM32F4xx_StdPeriph_Driver/src/stm32f4xx_rcc.c **** }
 150              		.loc 1 215 1 view .LVU17
 151 0028 7047     		bx	lr	@
 152              	.L4:
 153 002a 00BF     		.align	2
 154              	.L3:
 155 002c 00380240 		.word	1073887232
 156 0030 10300024 		.word	603992080
 157              		.cfi_endproc
 158              	.LFE110:
 159              		.size	RCC_DeInit, .-RCC_DeInit
 160              		.section	.text.RCC_HSEConfig,"ax",%progbits
 161              		.align	1
 162              		.p2align 2,,3
 163              		.global	RCC_HSEConfig
 164              		.syntax unified
 165              		.thumb
 166              		.thumb_func
 167              		.type	RCC_HSEConfig, %function
 168              	RCC_HSEConfig:
 169              	.LVL0:
 170              	.LFB111:
 216:../Libraries/STM32F4xx_StdPeriph_Driver/src/stm32f4xx_rcc.c **** 
 217:../Libraries/STM32F4xx_StdPeriph_Driver/src/stm32f4xx_rcc.c **** /**
 218:../Libraries/STM32F4xx_StdPeriph_Driver/src/stm32f4xx_rcc.c ****   * @brief  Configures the External High Speed oscillator (HSE).
 219:../Libraries/STM32F4xx_StdPeriph_Driver/src/stm32f4xx_rcc.c ****   * @note   After enabling the HSE (RCC_HSE_ON or RCC_HSE_Bypass), the application
 220:../Libraries/STM32F4xx_StdPeriph_Driver/src/stm32f4xx_rcc.c ****   *         software should wait on HSERDY flag to be set indicating that HSE clock
 221:../Libraries/STM32F4xx_StdPeriph_Driver/src/stm32f4xx_rcc.c ****   *         is stable and can be used to clock the PLL and/or system clock.
 222:../Libraries/STM32F4xx_StdPeriph_Driver/src/stm32f4xx_rcc.c ****   * @note   HSE state can not be changed if it is used directly or through the
ARM GAS  C:\Users\admin\AppData\Local\Temp\ccNLmEJ4.s 			page 8


 223:../Libraries/STM32F4xx_StdPeriph_Driver/src/stm32f4xx_rcc.c ****   *         PLL as system clock. In this case, you have to select another source
 224:../Libraries/STM32F4xx_StdPeriph_Driver/src/stm32f4xx_rcc.c ****   *         of the system clock then change the HSE state (ex. disable it).
 225:../Libraries/STM32F4xx_StdPeriph_Driver/src/stm32f4xx_rcc.c ****   * @note   The HSE is stopped by hardware when entering STOP and STANDBY modes.  
 226:../Libraries/STM32F4xx_StdPeriph_Driver/src/stm32f4xx_rcc.c ****   * @note   This function reset the CSSON bit, so if the Clock security system(CSS)
 227:../Libraries/STM32F4xx_StdPeriph_Driver/src/stm32f4xx_rcc.c ****   *         was previously enabled you have to enable it again after calling this
 228:../Libraries/STM32F4xx_StdPeriph_Driver/src/stm32f4xx_rcc.c ****   *         function.    
 229:../Libraries/STM32F4xx_StdPeriph_Driver/src/stm32f4xx_rcc.c ****   * @param  RCC_HSE: specifies the new state of the HSE.
 230:../Libraries/STM32F4xx_StdPeriph_Driver/src/stm32f4xx_rcc.c ****   *          This parameter can be one of the following values:
 231:../Libraries/STM32F4xx_StdPeriph_Driver/src/stm32f4xx_rcc.c ****   *            @arg RCC_HSE_OFF: turn OFF the HSE oscillator, HSERDY flag goes low after
 232:../Libraries/STM32F4xx_StdPeriph_Driver/src/stm32f4xx_rcc.c ****   *                              6 HSE oscillator clock cycles.
 233:../Libraries/STM32F4xx_StdPeriph_Driver/src/stm32f4xx_rcc.c ****   *            @arg RCC_HSE_ON: turn ON the HSE oscillator
 234:../Libraries/STM32F4xx_StdPeriph_Driver/src/stm32f4xx_rcc.c ****   *            @arg RCC_HSE_Bypass: HSE oscillator bypassed with external clock
 235:../Libraries/STM32F4xx_StdPeriph_Driver/src/stm32f4xx_rcc.c ****   * @retval None
 236:../Libraries/STM32F4xx_StdPeriph_Driver/src/stm32f4xx_rcc.c ****   */
 237:../Libraries/STM32F4xx_StdPeriph_Driver/src/stm32f4xx_rcc.c **** void RCC_HSEConfig(uint8_t RCC_HSE)
 238:../Libraries/STM32F4xx_StdPeriph_Driver/src/stm32f4xx_rcc.c **** {
 171              		.loc 1 238 1 is_stmt 1 view -0
 172              		.cfi_startproc
 173              		@ args = 0, pretend = 0, frame = 0
 174              		@ frame_needed = 0, uses_anonymous_args = 0
 175              		@ link register save eliminated.
 239:../Libraries/STM32F4xx_StdPeriph_Driver/src/stm32f4xx_rcc.c ****   /* Check the parameters */
 240:../Libraries/STM32F4xx_StdPeriph_Driver/src/stm32f4xx_rcc.c ****   assert_param(IS_RCC_HSE(RCC_HSE));
 176              		.loc 1 240 3 view .LVU19
 241:../Libraries/STM32F4xx_StdPeriph_Driver/src/stm32f4xx_rcc.c **** 
 242:../Libraries/STM32F4xx_StdPeriph_Driver/src/stm32f4xx_rcc.c ****   /* Reset HSEON and HSEBYP bits before configuring the HSE ------------------*/
 243:../Libraries/STM32F4xx_StdPeriph_Driver/src/stm32f4xx_rcc.c ****   *(__IO uint8_t *) CR_BYTE3_ADDRESS = RCC_HSE_OFF;
 177              		.loc 1 243 3 view .LVU20
 178              	@ ../Libraries/STM32F4xx_StdPeriph_Driver/src/stm32f4xx_rcc.c:243:   *(__IO uint8_t *) CR_BYTE3_ADD
 179              		.loc 1 243 38 is_stmt 0 view .LVU21
 180 0000 024B     		ldr	r3, .L6	@ tmp114,
 181 0002 0022     		movs	r2, #0	@ tmp115,
 182 0004 9A70     		strb	r2, [r3, #2]	@ tmp115, MEM[(volatile uint8_t *)1073887234B]
 244:../Libraries/STM32F4xx_StdPeriph_Driver/src/stm32f4xx_rcc.c **** 
 245:../Libraries/STM32F4xx_StdPeriph_Driver/src/stm32f4xx_rcc.c ****   /* Set the new HSE configuration -------------------------------------------*/
 246:../Libraries/STM32F4xx_StdPeriph_Driver/src/stm32f4xx_rcc.c ****   *(__IO uint8_t *) CR_BYTE3_ADDRESS = RCC_HSE;
 183              		.loc 1 246 3 is_stmt 1 view .LVU22
 184              	@ ../Libraries/STM32F4xx_StdPeriph_Driver/src/stm32f4xx_rcc.c:246:   *(__IO uint8_t *) CR_BYTE3_ADD
 185              		.loc 1 246 38 is_stmt 0 view .LVU23
 186 0006 9870     		strb	r0, [r3, #2]	@ RCC_HSE, MEM[(volatile uint8_t *)1073887234B]
 187              	@ ../Libraries/STM32F4xx_StdPeriph_Driver/src/stm32f4xx_rcc.c:247: }
 247:../Libraries/STM32F4xx_StdPeriph_Driver/src/stm32f4xx_rcc.c **** }
 188              		.loc 1 247 1 view .LVU24
 189 0008 7047     		bx	lr	@
 190              	.L7:
 191 000a 00BF     		.align	2
 192              	.L6:
 193 000c 00380240 		.word	1073887232
 194              		.cfi_endproc
 195              	.LFE111:
 196              		.size	RCC_HSEConfig, .-RCC_HSEConfig
 197              		.section	.text.RCC_WaitForHSEStartUp,"ax",%progbits
 198              		.align	1
 199              		.p2align 2,,3
 200              		.global	RCC_WaitForHSEStartUp
 201              		.syntax unified
 202              		.thumb
ARM GAS  C:\Users\admin\AppData\Local\Temp\ccNLmEJ4.s 			page 9


 203              		.thumb_func
 204              		.type	RCC_WaitForHSEStartUp, %function
 205              	RCC_WaitForHSEStartUp:
 206              	.LFB112:
 248:../Libraries/STM32F4xx_StdPeriph_Driver/src/stm32f4xx_rcc.c **** 
 249:../Libraries/STM32F4xx_StdPeriph_Driver/src/stm32f4xx_rcc.c **** /**
 250:../Libraries/STM32F4xx_StdPeriph_Driver/src/stm32f4xx_rcc.c ****   * @brief  Waits for HSE start-up.
 251:../Libraries/STM32F4xx_StdPeriph_Driver/src/stm32f4xx_rcc.c ****   * @note   This functions waits on HSERDY flag to be set and return SUCCESS if 
 252:../Libraries/STM32F4xx_StdPeriph_Driver/src/stm32f4xx_rcc.c ****   *         this flag is set, otherwise returns ERROR if the timeout is reached 
 253:../Libraries/STM32F4xx_StdPeriph_Driver/src/stm32f4xx_rcc.c ****   *         and this flag is not set. The timeout value is defined by the constant
 254:../Libraries/STM32F4xx_StdPeriph_Driver/src/stm32f4xx_rcc.c ****   *         HSE_STARTUP_TIMEOUT in stm32f4xx.h file. You can tailor it depending
 255:../Libraries/STM32F4xx_StdPeriph_Driver/src/stm32f4xx_rcc.c ****   *         on the HSE crystal used in your application. 
 256:../Libraries/STM32F4xx_StdPeriph_Driver/src/stm32f4xx_rcc.c ****   * @param  None
 257:../Libraries/STM32F4xx_StdPeriph_Driver/src/stm32f4xx_rcc.c ****   * @retval An ErrorStatus enumeration value:
 258:../Libraries/STM32F4xx_StdPeriph_Driver/src/stm32f4xx_rcc.c ****   *          - SUCCESS: HSE oscillator is stable and ready to use
 259:../Libraries/STM32F4xx_StdPeriph_Driver/src/stm32f4xx_rcc.c ****   *          - ERROR: HSE oscillator not yet ready
 260:../Libraries/STM32F4xx_StdPeriph_Driver/src/stm32f4xx_rcc.c ****   */
 261:../Libraries/STM32F4xx_StdPeriph_Driver/src/stm32f4xx_rcc.c **** ErrorStatus RCC_WaitForHSEStartUp(void)
 262:../Libraries/STM32F4xx_StdPeriph_Driver/src/stm32f4xx_rcc.c **** {
 207              		.loc 1 262 1 is_stmt 1 view -0
 208              		.cfi_startproc
 209              		@ args = 0, pretend = 0, frame = 8
 210              		@ frame_needed = 0, uses_anonymous_args = 0
 211              		@ link register save eliminated.
 263:../Libraries/STM32F4xx_StdPeriph_Driver/src/stm32f4xx_rcc.c ****   __IO uint32_t startupcounter = 0;
 212              		.loc 1 263 3 view .LVU26
 213              	@ ../Libraries/STM32F4xx_StdPeriph_Driver/src/stm32f4xx_rcc.c:262: {
 262:../Libraries/STM32F4xx_StdPeriph_Driver/src/stm32f4xx_rcc.c ****   __IO uint32_t startupcounter = 0;
 214              		.loc 1 262 1 is_stmt 0 view .LVU27
 215 0000 82B0     		sub	sp, sp, #8	@,,
 216              		.cfi_def_cfa_offset 8
 217              	@ ../Libraries/STM32F4xx_StdPeriph_Driver/src/stm32f4xx_rcc.c:263:   __IO uint32_t startupcounter =
 218              		.loc 1 263 17 view .LVU28
 219 0002 0023     		movs	r3, #0	@ tmp122,
 220              	.LBB6:
 221              	.LBB7:
 222              	@ ../Libraries/STM32F4xx_StdPeriph_Driver/src/stm32f4xx_rcc.c:1698:     statusreg = RCC->CR;
 264:../Libraries/STM32F4xx_StdPeriph_Driver/src/stm32f4xx_rcc.c ****   ErrorStatus status = ERROR;
 265:../Libraries/STM32F4xx_StdPeriph_Driver/src/stm32f4xx_rcc.c ****   FlagStatus hsestatus = RESET;
 266:../Libraries/STM32F4xx_StdPeriph_Driver/src/stm32f4xx_rcc.c ****   /* Wait till HSE is ready and if Time out is reached exit */
 267:../Libraries/STM32F4xx_StdPeriph_Driver/src/stm32f4xx_rcc.c ****   do
 268:../Libraries/STM32F4xx_StdPeriph_Driver/src/stm32f4xx_rcc.c ****   {
 269:../Libraries/STM32F4xx_StdPeriph_Driver/src/stm32f4xx_rcc.c ****     hsestatus = RCC_GetFlagStatus(RCC_FLAG_HSERDY);
 270:../Libraries/STM32F4xx_StdPeriph_Driver/src/stm32f4xx_rcc.c ****     startupcounter++;
 271:../Libraries/STM32F4xx_StdPeriph_Driver/src/stm32f4xx_rcc.c ****   } while((startupcounter != HSE_STARTUP_TIMEOUT) && (hsestatus == RESET));
 272:../Libraries/STM32F4xx_StdPeriph_Driver/src/stm32f4xx_rcc.c **** 
 273:../Libraries/STM32F4xx_StdPeriph_Driver/src/stm32f4xx_rcc.c ****   if (RCC_GetFlagStatus(RCC_FLAG_HSERDY) != RESET)
 274:../Libraries/STM32F4xx_StdPeriph_Driver/src/stm32f4xx_rcc.c ****   {
 275:../Libraries/STM32F4xx_StdPeriph_Driver/src/stm32f4xx_rcc.c ****     status = SUCCESS;
 276:../Libraries/STM32F4xx_StdPeriph_Driver/src/stm32f4xx_rcc.c ****   }
 277:../Libraries/STM32F4xx_StdPeriph_Driver/src/stm32f4xx_rcc.c ****   else
 278:../Libraries/STM32F4xx_StdPeriph_Driver/src/stm32f4xx_rcc.c ****   {
 279:../Libraries/STM32F4xx_StdPeriph_Driver/src/stm32f4xx_rcc.c ****     status = ERROR;
 280:../Libraries/STM32F4xx_StdPeriph_Driver/src/stm32f4xx_rcc.c ****   }
 281:../Libraries/STM32F4xx_StdPeriph_Driver/src/stm32f4xx_rcc.c ****   return (status);
 282:../Libraries/STM32F4xx_StdPeriph_Driver/src/stm32f4xx_rcc.c **** }
 283:../Libraries/STM32F4xx_StdPeriph_Driver/src/stm32f4xx_rcc.c **** 
ARM GAS  C:\Users\admin\AppData\Local\Temp\ccNLmEJ4.s 			page 10


 284:../Libraries/STM32F4xx_StdPeriph_Driver/src/stm32f4xx_rcc.c **** /**
 285:../Libraries/STM32F4xx_StdPeriph_Driver/src/stm32f4xx_rcc.c ****   * @brief  Adjusts the Internal High Speed oscillator (HSI) calibration value.
 286:../Libraries/STM32F4xx_StdPeriph_Driver/src/stm32f4xx_rcc.c ****   * @note   The calibration is used to compensate for the variations in voltage
 287:../Libraries/STM32F4xx_StdPeriph_Driver/src/stm32f4xx_rcc.c ****   *         and temperature that influence the frequency of the internal HSI RC.
 288:../Libraries/STM32F4xx_StdPeriph_Driver/src/stm32f4xx_rcc.c ****   * @param  HSICalibrationValue: specifies the calibration trimming value.
 289:../Libraries/STM32F4xx_StdPeriph_Driver/src/stm32f4xx_rcc.c ****   *         This parameter must be a number between 0 and 0x1F.
 290:../Libraries/STM32F4xx_StdPeriph_Driver/src/stm32f4xx_rcc.c ****   * @retval None
 291:../Libraries/STM32F4xx_StdPeriph_Driver/src/stm32f4xx_rcc.c ****   */
 292:../Libraries/STM32F4xx_StdPeriph_Driver/src/stm32f4xx_rcc.c **** void RCC_AdjustHSICalibrationValue(uint8_t HSICalibrationValue)
 293:../Libraries/STM32F4xx_StdPeriph_Driver/src/stm32f4xx_rcc.c **** {
 294:../Libraries/STM32F4xx_StdPeriph_Driver/src/stm32f4xx_rcc.c ****   uint32_t tmpreg = 0;
 295:../Libraries/STM32F4xx_StdPeriph_Driver/src/stm32f4xx_rcc.c ****   /* Check the parameters */
 296:../Libraries/STM32F4xx_StdPeriph_Driver/src/stm32f4xx_rcc.c ****   assert_param(IS_RCC_CALIBRATION_VALUE(HSICalibrationValue));
 297:../Libraries/STM32F4xx_StdPeriph_Driver/src/stm32f4xx_rcc.c **** 
 298:../Libraries/STM32F4xx_StdPeriph_Driver/src/stm32f4xx_rcc.c ****   tmpreg = RCC->CR;
 299:../Libraries/STM32F4xx_StdPeriph_Driver/src/stm32f4xx_rcc.c **** 
 300:../Libraries/STM32F4xx_StdPeriph_Driver/src/stm32f4xx_rcc.c ****   /* Clear HSITRIM[4:0] bits */
 301:../Libraries/STM32F4xx_StdPeriph_Driver/src/stm32f4xx_rcc.c ****   tmpreg &= ~RCC_CR_HSITRIM;
 302:../Libraries/STM32F4xx_StdPeriph_Driver/src/stm32f4xx_rcc.c **** 
 303:../Libraries/STM32F4xx_StdPeriph_Driver/src/stm32f4xx_rcc.c ****   /* Set the HSITRIM[4:0] bits according to HSICalibrationValue value */
 304:../Libraries/STM32F4xx_StdPeriph_Driver/src/stm32f4xx_rcc.c ****   tmpreg |= (uint32_t)HSICalibrationValue << 3;
 305:../Libraries/STM32F4xx_StdPeriph_Driver/src/stm32f4xx_rcc.c **** 
 306:../Libraries/STM32F4xx_StdPeriph_Driver/src/stm32f4xx_rcc.c ****   /* Store the new value */
 307:../Libraries/STM32F4xx_StdPeriph_Driver/src/stm32f4xx_rcc.c ****   RCC->CR = tmpreg;
 308:../Libraries/STM32F4xx_StdPeriph_Driver/src/stm32f4xx_rcc.c **** }
 309:../Libraries/STM32F4xx_StdPeriph_Driver/src/stm32f4xx_rcc.c **** 
 310:../Libraries/STM32F4xx_StdPeriph_Driver/src/stm32f4xx_rcc.c **** /**
 311:../Libraries/STM32F4xx_StdPeriph_Driver/src/stm32f4xx_rcc.c ****   * @brief  Enables or disables the Internal High Speed oscillator (HSI).
 312:../Libraries/STM32F4xx_StdPeriph_Driver/src/stm32f4xx_rcc.c ****   * @note   The HSI is stopped by hardware when entering STOP and STANDBY modes.
 313:../Libraries/STM32F4xx_StdPeriph_Driver/src/stm32f4xx_rcc.c ****   *         It is used (enabled by hardware) as system clock source after startup
 314:../Libraries/STM32F4xx_StdPeriph_Driver/src/stm32f4xx_rcc.c ****   *         from Reset, wakeup from STOP and STANDBY mode, or in case of failure
 315:../Libraries/STM32F4xx_StdPeriph_Driver/src/stm32f4xx_rcc.c ****   *         of the HSE used directly or indirectly as system clock (if the Clock
 316:../Libraries/STM32F4xx_StdPeriph_Driver/src/stm32f4xx_rcc.c ****   *         Security System CSS is enabled).             
 317:../Libraries/STM32F4xx_StdPeriph_Driver/src/stm32f4xx_rcc.c ****   * @note   HSI can not be stopped if it is used as system clock source. In this case,
 318:../Libraries/STM32F4xx_StdPeriph_Driver/src/stm32f4xx_rcc.c ****   *         you have to select another source of the system clock then stop the HSI.  
 319:../Libraries/STM32F4xx_StdPeriph_Driver/src/stm32f4xx_rcc.c ****   * @note   After enabling the HSI, the application software should wait on HSIRDY
 320:../Libraries/STM32F4xx_StdPeriph_Driver/src/stm32f4xx_rcc.c ****   *         flag to be set indicating that HSI clock is stable and can be used as
 321:../Libraries/STM32F4xx_StdPeriph_Driver/src/stm32f4xx_rcc.c ****   *         system clock source.  
 322:../Libraries/STM32F4xx_StdPeriph_Driver/src/stm32f4xx_rcc.c ****   * @param  NewState: new state of the HSI.
 323:../Libraries/STM32F4xx_StdPeriph_Driver/src/stm32f4xx_rcc.c ****   *          This parameter can be: ENABLE or DISABLE.
 324:../Libraries/STM32F4xx_StdPeriph_Driver/src/stm32f4xx_rcc.c ****   * @note   When the HSI is stopped, HSIRDY flag goes low after 6 HSI oscillator
 325:../Libraries/STM32F4xx_StdPeriph_Driver/src/stm32f4xx_rcc.c ****   *         clock cycles.  
 326:../Libraries/STM32F4xx_StdPeriph_Driver/src/stm32f4xx_rcc.c ****   * @retval None
 327:../Libraries/STM32F4xx_StdPeriph_Driver/src/stm32f4xx_rcc.c ****   */
 328:../Libraries/STM32F4xx_StdPeriph_Driver/src/stm32f4xx_rcc.c **** void RCC_HSICmd(FunctionalState NewState)
 329:../Libraries/STM32F4xx_StdPeriph_Driver/src/stm32f4xx_rcc.c **** {
 330:../Libraries/STM32F4xx_StdPeriph_Driver/src/stm32f4xx_rcc.c ****   /* Check the parameters */
 331:../Libraries/STM32F4xx_StdPeriph_Driver/src/stm32f4xx_rcc.c ****   assert_param(IS_FUNCTIONAL_STATE(NewState));
 332:../Libraries/STM32F4xx_StdPeriph_Driver/src/stm32f4xx_rcc.c **** 
 333:../Libraries/STM32F4xx_StdPeriph_Driver/src/stm32f4xx_rcc.c ****   *(__IO uint32_t *) CR_HSION_BB = (uint32_t)NewState;
 334:../Libraries/STM32F4xx_StdPeriph_Driver/src/stm32f4xx_rcc.c **** }
 335:../Libraries/STM32F4xx_StdPeriph_Driver/src/stm32f4xx_rcc.c **** 
 336:../Libraries/STM32F4xx_StdPeriph_Driver/src/stm32f4xx_rcc.c **** /**
 337:../Libraries/STM32F4xx_StdPeriph_Driver/src/stm32f4xx_rcc.c ****   * @brief  Configures the External Low Speed oscillator (LSE).
 338:../Libraries/STM32F4xx_StdPeriph_Driver/src/stm32f4xx_rcc.c ****   * @note   As the LSE is in the Backup domain and write access is denied to
 339:../Libraries/STM32F4xx_StdPeriph_Driver/src/stm32f4xx_rcc.c ****   *         this domain after reset, you have to enable write access using 
 340:../Libraries/STM32F4xx_StdPeriph_Driver/src/stm32f4xx_rcc.c ****   *         PWR_BackupAccessCmd(ENABLE) function before to configure the LSE
ARM GAS  C:\Users\admin\AppData\Local\Temp\ccNLmEJ4.s 			page 11


 341:../Libraries/STM32F4xx_StdPeriph_Driver/src/stm32f4xx_rcc.c ****   *         (to be done once after reset).  
 342:../Libraries/STM32F4xx_StdPeriph_Driver/src/stm32f4xx_rcc.c ****   * @note   After enabling the LSE (RCC_LSE_ON or RCC_LSE_Bypass), the application
 343:../Libraries/STM32F4xx_StdPeriph_Driver/src/stm32f4xx_rcc.c ****   *         software should wait on LSERDY flag to be set indicating that LSE clock
 344:../Libraries/STM32F4xx_StdPeriph_Driver/src/stm32f4xx_rcc.c ****   *         is stable and can be used to clock the RTC.
 345:../Libraries/STM32F4xx_StdPeriph_Driver/src/stm32f4xx_rcc.c ****   * @param  RCC_LSE: specifies the new state of the LSE.
 346:../Libraries/STM32F4xx_StdPeriph_Driver/src/stm32f4xx_rcc.c ****   *          This parameter can be one of the following values:
 347:../Libraries/STM32F4xx_StdPeriph_Driver/src/stm32f4xx_rcc.c ****   *            @arg RCC_LSE_OFF: turn OFF the LSE oscillator, LSERDY flag goes low after
 348:../Libraries/STM32F4xx_StdPeriph_Driver/src/stm32f4xx_rcc.c ****   *                              6 LSE oscillator clock cycles.
 349:../Libraries/STM32F4xx_StdPeriph_Driver/src/stm32f4xx_rcc.c ****   *            @arg RCC_LSE_ON: turn ON the LSE oscillator
 350:../Libraries/STM32F4xx_StdPeriph_Driver/src/stm32f4xx_rcc.c ****   *            @arg RCC_LSE_Bypass: LSE oscillator bypassed with external clock
 351:../Libraries/STM32F4xx_StdPeriph_Driver/src/stm32f4xx_rcc.c ****   * @retval None
 352:../Libraries/STM32F4xx_StdPeriph_Driver/src/stm32f4xx_rcc.c ****   */
 353:../Libraries/STM32F4xx_StdPeriph_Driver/src/stm32f4xx_rcc.c **** void RCC_LSEConfig(uint8_t RCC_LSE)
 354:../Libraries/STM32F4xx_StdPeriph_Driver/src/stm32f4xx_rcc.c **** {
 355:../Libraries/STM32F4xx_StdPeriph_Driver/src/stm32f4xx_rcc.c ****   /* Check the parameters */
 356:../Libraries/STM32F4xx_StdPeriph_Driver/src/stm32f4xx_rcc.c ****   assert_param(IS_RCC_LSE(RCC_LSE));
 357:../Libraries/STM32F4xx_StdPeriph_Driver/src/stm32f4xx_rcc.c **** 
 358:../Libraries/STM32F4xx_StdPeriph_Driver/src/stm32f4xx_rcc.c ****   /* Reset LSEON and LSEBYP bits before configuring the LSE ------------------*/
 359:../Libraries/STM32F4xx_StdPeriph_Driver/src/stm32f4xx_rcc.c ****   /* Reset LSEON bit */
 360:../Libraries/STM32F4xx_StdPeriph_Driver/src/stm32f4xx_rcc.c ****   *(__IO uint8_t *) BDCR_ADDRESS = RCC_LSE_OFF;
 361:../Libraries/STM32F4xx_StdPeriph_Driver/src/stm32f4xx_rcc.c **** 
 362:../Libraries/STM32F4xx_StdPeriph_Driver/src/stm32f4xx_rcc.c ****   /* Reset LSEBYP bit */
 363:../Libraries/STM32F4xx_StdPeriph_Driver/src/stm32f4xx_rcc.c ****   *(__IO uint8_t *) BDCR_ADDRESS = RCC_LSE_OFF;
 364:../Libraries/STM32F4xx_StdPeriph_Driver/src/stm32f4xx_rcc.c **** 
 365:../Libraries/STM32F4xx_StdPeriph_Driver/src/stm32f4xx_rcc.c ****   /* Configure LSE (RCC_LSE_OFF is already covered by the code section above) */
 366:../Libraries/STM32F4xx_StdPeriph_Driver/src/stm32f4xx_rcc.c ****   switch (RCC_LSE)
 367:../Libraries/STM32F4xx_StdPeriph_Driver/src/stm32f4xx_rcc.c ****   {
 368:../Libraries/STM32F4xx_StdPeriph_Driver/src/stm32f4xx_rcc.c ****     case RCC_LSE_ON:
 369:../Libraries/STM32F4xx_StdPeriph_Driver/src/stm32f4xx_rcc.c ****       /* Set LSEON bit */
 370:../Libraries/STM32F4xx_StdPeriph_Driver/src/stm32f4xx_rcc.c ****       *(__IO uint8_t *) BDCR_ADDRESS = RCC_LSE_ON;
 371:../Libraries/STM32F4xx_StdPeriph_Driver/src/stm32f4xx_rcc.c ****       break;
 372:../Libraries/STM32F4xx_StdPeriph_Driver/src/stm32f4xx_rcc.c ****     case RCC_LSE_Bypass:
 373:../Libraries/STM32F4xx_StdPeriph_Driver/src/stm32f4xx_rcc.c ****       /* Set LSEBYP and LSEON bits */
 374:../Libraries/STM32F4xx_StdPeriph_Driver/src/stm32f4xx_rcc.c ****       *(__IO uint8_t *) BDCR_ADDRESS = RCC_LSE_Bypass | RCC_LSE_ON;
 375:../Libraries/STM32F4xx_StdPeriph_Driver/src/stm32f4xx_rcc.c ****       break;
 376:../Libraries/STM32F4xx_StdPeriph_Driver/src/stm32f4xx_rcc.c ****     default:
 377:../Libraries/STM32F4xx_StdPeriph_Driver/src/stm32f4xx_rcc.c ****       break;
 378:../Libraries/STM32F4xx_StdPeriph_Driver/src/stm32f4xx_rcc.c ****   }
 379:../Libraries/STM32F4xx_StdPeriph_Driver/src/stm32f4xx_rcc.c **** }
 380:../Libraries/STM32F4xx_StdPeriph_Driver/src/stm32f4xx_rcc.c **** 
 381:../Libraries/STM32F4xx_StdPeriph_Driver/src/stm32f4xx_rcc.c **** /**
 382:../Libraries/STM32F4xx_StdPeriph_Driver/src/stm32f4xx_rcc.c ****   * @brief  Enables or disables the Internal Low Speed oscillator (LSI).
 383:../Libraries/STM32F4xx_StdPeriph_Driver/src/stm32f4xx_rcc.c ****   * @note   After enabling the LSI, the application software should wait on 
 384:../Libraries/STM32F4xx_StdPeriph_Driver/src/stm32f4xx_rcc.c ****   *         LSIRDY flag to be set indicating that LSI clock is stable and can
 385:../Libraries/STM32F4xx_StdPeriph_Driver/src/stm32f4xx_rcc.c ****   *         be used to clock the IWDG and/or the RTC.
 386:../Libraries/STM32F4xx_StdPeriph_Driver/src/stm32f4xx_rcc.c ****   * @note   LSI can not be disabled if the IWDG is running.  
 387:../Libraries/STM32F4xx_StdPeriph_Driver/src/stm32f4xx_rcc.c ****   * @param  NewState: new state of the LSI.
 388:../Libraries/STM32F4xx_StdPeriph_Driver/src/stm32f4xx_rcc.c ****   *          This parameter can be: ENABLE or DISABLE.
 389:../Libraries/STM32F4xx_StdPeriph_Driver/src/stm32f4xx_rcc.c ****   * @note   When the LSI is stopped, LSIRDY flag goes low after 6 LSI oscillator
 390:../Libraries/STM32F4xx_StdPeriph_Driver/src/stm32f4xx_rcc.c ****   *         clock cycles. 
 391:../Libraries/STM32F4xx_StdPeriph_Driver/src/stm32f4xx_rcc.c ****   * @retval None
 392:../Libraries/STM32F4xx_StdPeriph_Driver/src/stm32f4xx_rcc.c ****   */
 393:../Libraries/STM32F4xx_StdPeriph_Driver/src/stm32f4xx_rcc.c **** void RCC_LSICmd(FunctionalState NewState)
 394:../Libraries/STM32F4xx_StdPeriph_Driver/src/stm32f4xx_rcc.c **** {
 395:../Libraries/STM32F4xx_StdPeriph_Driver/src/stm32f4xx_rcc.c ****   /* Check the parameters */
 396:../Libraries/STM32F4xx_StdPeriph_Driver/src/stm32f4xx_rcc.c ****   assert_param(IS_FUNCTIONAL_STATE(NewState));
 397:../Libraries/STM32F4xx_StdPeriph_Driver/src/stm32f4xx_rcc.c **** 
ARM GAS  C:\Users\admin\AppData\Local\Temp\ccNLmEJ4.s 			page 12


 398:../Libraries/STM32F4xx_StdPeriph_Driver/src/stm32f4xx_rcc.c ****   *(__IO uint32_t *) CSR_LSION_BB = (uint32_t)NewState;
 399:../Libraries/STM32F4xx_StdPeriph_Driver/src/stm32f4xx_rcc.c **** }
 400:../Libraries/STM32F4xx_StdPeriph_Driver/src/stm32f4xx_rcc.c **** 
 401:../Libraries/STM32F4xx_StdPeriph_Driver/src/stm32f4xx_rcc.c **** /**
 402:../Libraries/STM32F4xx_StdPeriph_Driver/src/stm32f4xx_rcc.c ****   * @brief  Configures the main PLL clock source, multiplication and division factors.
 403:../Libraries/STM32F4xx_StdPeriph_Driver/src/stm32f4xx_rcc.c ****   * @note   This function must be used only when the main PLL is disabled.
 404:../Libraries/STM32F4xx_StdPeriph_Driver/src/stm32f4xx_rcc.c ****   *  
 405:../Libraries/STM32F4xx_StdPeriph_Driver/src/stm32f4xx_rcc.c ****   * @param  RCC_PLLSource: specifies the PLL entry clock source.
 406:../Libraries/STM32F4xx_StdPeriph_Driver/src/stm32f4xx_rcc.c ****   *          This parameter can be one of the following values:
 407:../Libraries/STM32F4xx_StdPeriph_Driver/src/stm32f4xx_rcc.c ****   *            @arg RCC_PLLSource_HSI: HSI oscillator clock selected as PLL clock entry
 408:../Libraries/STM32F4xx_StdPeriph_Driver/src/stm32f4xx_rcc.c ****   *            @arg RCC_PLLSource_HSE: HSE oscillator clock selected as PLL clock entry
 409:../Libraries/STM32F4xx_StdPeriph_Driver/src/stm32f4xx_rcc.c ****   * @note   This clock source (RCC_PLLSource) is common for the main PLL and PLLI2S.  
 410:../Libraries/STM32F4xx_StdPeriph_Driver/src/stm32f4xx_rcc.c ****   *  
 411:../Libraries/STM32F4xx_StdPeriph_Driver/src/stm32f4xx_rcc.c ****   * @param  PLLM: specifies the division factor for PLL VCO input clock
 412:../Libraries/STM32F4xx_StdPeriph_Driver/src/stm32f4xx_rcc.c ****   *          This parameter must be a number between 0 and 63.
 413:../Libraries/STM32F4xx_StdPeriph_Driver/src/stm32f4xx_rcc.c ****   * @note   You have to set the PLLM parameter correctly to ensure that the VCO input
 414:../Libraries/STM32F4xx_StdPeriph_Driver/src/stm32f4xx_rcc.c ****   *         frequency ranges from 1 to 2 MHz. It is recommended to select a frequency
 415:../Libraries/STM32F4xx_StdPeriph_Driver/src/stm32f4xx_rcc.c ****   *         of 2 MHz to limit PLL jitter.
 416:../Libraries/STM32F4xx_StdPeriph_Driver/src/stm32f4xx_rcc.c ****   *  
 417:../Libraries/STM32F4xx_StdPeriph_Driver/src/stm32f4xx_rcc.c ****   * @param  PLLN: specifies the multiplication factor for PLL VCO output clock
 418:../Libraries/STM32F4xx_StdPeriph_Driver/src/stm32f4xx_rcc.c ****   *          This parameter must be a number between 192 and 432.
 419:../Libraries/STM32F4xx_StdPeriph_Driver/src/stm32f4xx_rcc.c ****   * @note   You have to set the PLLN parameter correctly to ensure that the VCO
 420:../Libraries/STM32F4xx_StdPeriph_Driver/src/stm32f4xx_rcc.c ****   *         output frequency is between 192 and 432 MHz.
 421:../Libraries/STM32F4xx_StdPeriph_Driver/src/stm32f4xx_rcc.c ****   *   
 422:../Libraries/STM32F4xx_StdPeriph_Driver/src/stm32f4xx_rcc.c ****   * @param  PLLP: specifies the division factor for main system clock (SYSCLK)
 423:../Libraries/STM32F4xx_StdPeriph_Driver/src/stm32f4xx_rcc.c ****   *          This parameter must be a number in the range {2, 4, 6, or 8}.
 424:../Libraries/STM32F4xx_StdPeriph_Driver/src/stm32f4xx_rcc.c ****   * @note   You have to set the PLLP parameter correctly to not exceed 168 MHz on
 425:../Libraries/STM32F4xx_StdPeriph_Driver/src/stm32f4xx_rcc.c ****   *         the System clock frequency.
 426:../Libraries/STM32F4xx_StdPeriph_Driver/src/stm32f4xx_rcc.c ****   *  
 427:../Libraries/STM32F4xx_StdPeriph_Driver/src/stm32f4xx_rcc.c ****   * @param  PLLQ: specifies the division factor for OTG FS, SDIO and RNG clocks
 428:../Libraries/STM32F4xx_StdPeriph_Driver/src/stm32f4xx_rcc.c ****   *          This parameter must be a number between 4 and 15.
 429:../Libraries/STM32F4xx_StdPeriph_Driver/src/stm32f4xx_rcc.c ****   * @note   If the USB OTG FS is used in your application, you have to set the
 430:../Libraries/STM32F4xx_StdPeriph_Driver/src/stm32f4xx_rcc.c ****   *         PLLQ parameter correctly to have 48 MHz clock for the USB. However,
 431:../Libraries/STM32F4xx_StdPeriph_Driver/src/stm32f4xx_rcc.c ****   *         the SDIO and RNG need a frequency lower than or equal to 48 MHz to work
 432:../Libraries/STM32F4xx_StdPeriph_Driver/src/stm32f4xx_rcc.c ****   *         correctly.
 433:../Libraries/STM32F4xx_StdPeriph_Driver/src/stm32f4xx_rcc.c ****   *   
 434:../Libraries/STM32F4xx_StdPeriph_Driver/src/stm32f4xx_rcc.c ****   * @retval None
 435:../Libraries/STM32F4xx_StdPeriph_Driver/src/stm32f4xx_rcc.c ****   */
 436:../Libraries/STM32F4xx_StdPeriph_Driver/src/stm32f4xx_rcc.c **** void RCC_PLLConfig(uint32_t RCC_PLLSource, uint32_t PLLM, uint32_t PLLN, uint32_t PLLP, uint32_t PL
 437:../Libraries/STM32F4xx_StdPeriph_Driver/src/stm32f4xx_rcc.c **** {
 438:../Libraries/STM32F4xx_StdPeriph_Driver/src/stm32f4xx_rcc.c ****   /* Check the parameters */
 439:../Libraries/STM32F4xx_StdPeriph_Driver/src/stm32f4xx_rcc.c ****   assert_param(IS_RCC_PLL_SOURCE(RCC_PLLSource));
 440:../Libraries/STM32F4xx_StdPeriph_Driver/src/stm32f4xx_rcc.c ****   assert_param(IS_RCC_PLLM_VALUE(PLLM));
 441:../Libraries/STM32F4xx_StdPeriph_Driver/src/stm32f4xx_rcc.c ****   assert_param(IS_RCC_PLLN_VALUE(PLLN));
 442:../Libraries/STM32F4xx_StdPeriph_Driver/src/stm32f4xx_rcc.c ****   assert_param(IS_RCC_PLLP_VALUE(PLLP));
 443:../Libraries/STM32F4xx_StdPeriph_Driver/src/stm32f4xx_rcc.c ****   assert_param(IS_RCC_PLLQ_VALUE(PLLQ));
 444:../Libraries/STM32F4xx_StdPeriph_Driver/src/stm32f4xx_rcc.c **** 
 445:../Libraries/STM32F4xx_StdPeriph_Driver/src/stm32f4xx_rcc.c ****   RCC->PLLCFGR = PLLM | (PLLN << 6) | (((PLLP >> 1) -1) << 16) | (RCC_PLLSource) |
 446:../Libraries/STM32F4xx_StdPeriph_Driver/src/stm32f4xx_rcc.c ****                  (PLLQ << 24);
 447:../Libraries/STM32F4xx_StdPeriph_Driver/src/stm32f4xx_rcc.c **** }
 448:../Libraries/STM32F4xx_StdPeriph_Driver/src/stm32f4xx_rcc.c **** 
 449:../Libraries/STM32F4xx_StdPeriph_Driver/src/stm32f4xx_rcc.c **** /**
 450:../Libraries/STM32F4xx_StdPeriph_Driver/src/stm32f4xx_rcc.c ****   * @brief  Enables or disables the main PLL.
 451:../Libraries/STM32F4xx_StdPeriph_Driver/src/stm32f4xx_rcc.c ****   * @note   After enabling the main PLL, the application software should wait on 
 452:../Libraries/STM32F4xx_StdPeriph_Driver/src/stm32f4xx_rcc.c ****   *         PLLRDY flag to be set indicating that PLL clock is stable and can
 453:../Libraries/STM32F4xx_StdPeriph_Driver/src/stm32f4xx_rcc.c ****   *         be used as system clock source.
 454:../Libraries/STM32F4xx_StdPeriph_Driver/src/stm32f4xx_rcc.c ****   * @note   The main PLL can not be disabled if it is used as system clock source
ARM GAS  C:\Users\admin\AppData\Local\Temp\ccNLmEJ4.s 			page 13


 455:../Libraries/STM32F4xx_StdPeriph_Driver/src/stm32f4xx_rcc.c ****   * @note   The main PLL is disabled by hardware when entering STOP and STANDBY modes.
 456:../Libraries/STM32F4xx_StdPeriph_Driver/src/stm32f4xx_rcc.c ****   * @param  NewState: new state of the main PLL. This parameter can be: ENABLE or DISABLE.
 457:../Libraries/STM32F4xx_StdPeriph_Driver/src/stm32f4xx_rcc.c ****   * @retval None
 458:../Libraries/STM32F4xx_StdPeriph_Driver/src/stm32f4xx_rcc.c ****   */
 459:../Libraries/STM32F4xx_StdPeriph_Driver/src/stm32f4xx_rcc.c **** void RCC_PLLCmd(FunctionalState NewState)
 460:../Libraries/STM32F4xx_StdPeriph_Driver/src/stm32f4xx_rcc.c **** {
 461:../Libraries/STM32F4xx_StdPeriph_Driver/src/stm32f4xx_rcc.c ****   /* Check the parameters */
 462:../Libraries/STM32F4xx_StdPeriph_Driver/src/stm32f4xx_rcc.c ****   assert_param(IS_FUNCTIONAL_STATE(NewState));
 463:../Libraries/STM32F4xx_StdPeriph_Driver/src/stm32f4xx_rcc.c ****   *(__IO uint32_t *) CR_PLLON_BB = (uint32_t)NewState;
 464:../Libraries/STM32F4xx_StdPeriph_Driver/src/stm32f4xx_rcc.c **** }
 465:../Libraries/STM32F4xx_StdPeriph_Driver/src/stm32f4xx_rcc.c **** 
 466:../Libraries/STM32F4xx_StdPeriph_Driver/src/stm32f4xx_rcc.c **** /**
 467:../Libraries/STM32F4xx_StdPeriph_Driver/src/stm32f4xx_rcc.c ****   * @brief  Configures the PLLI2S clock multiplication and division factors.
 468:../Libraries/STM32F4xx_StdPeriph_Driver/src/stm32f4xx_rcc.c ****   *  
 469:../Libraries/STM32F4xx_StdPeriph_Driver/src/stm32f4xx_rcc.c ****   * @note   This function must be used only when the PLLI2S is disabled.
 470:../Libraries/STM32F4xx_StdPeriph_Driver/src/stm32f4xx_rcc.c ****   * @note   PLLI2S clock source is common with the main PLL (configured in 
 471:../Libraries/STM32F4xx_StdPeriph_Driver/src/stm32f4xx_rcc.c ****   *         RCC_PLLConfig function )  
 472:../Libraries/STM32F4xx_StdPeriph_Driver/src/stm32f4xx_rcc.c ****   *             
 473:../Libraries/STM32F4xx_StdPeriph_Driver/src/stm32f4xx_rcc.c ****   * @param  PLLI2SN: specifies the multiplication factor for PLLI2S VCO output clock
 474:../Libraries/STM32F4xx_StdPeriph_Driver/src/stm32f4xx_rcc.c ****   *          This parameter must be a number between 192 and 432.
 475:../Libraries/STM32F4xx_StdPeriph_Driver/src/stm32f4xx_rcc.c ****   * @note   You have to set the PLLI2SN parameter correctly to ensure that the VCO 
 476:../Libraries/STM32F4xx_StdPeriph_Driver/src/stm32f4xx_rcc.c ****   *         output frequency is between 192 and 432 MHz.
 477:../Libraries/STM32F4xx_StdPeriph_Driver/src/stm32f4xx_rcc.c ****   *    
 478:../Libraries/STM32F4xx_StdPeriph_Driver/src/stm32f4xx_rcc.c ****   * @param  PLLI2SR: specifies the division factor for I2S clock
 479:../Libraries/STM32F4xx_StdPeriph_Driver/src/stm32f4xx_rcc.c ****   *          This parameter must be a number between 2 and 7.
 480:../Libraries/STM32F4xx_StdPeriph_Driver/src/stm32f4xx_rcc.c ****   * @note   You have to set the PLLI2SR parameter correctly to not exceed 192 MHz
 481:../Libraries/STM32F4xx_StdPeriph_Driver/src/stm32f4xx_rcc.c ****   *         on the I2S clock frequency.
 482:../Libraries/STM32F4xx_StdPeriph_Driver/src/stm32f4xx_rcc.c ****   *   
 483:../Libraries/STM32F4xx_StdPeriph_Driver/src/stm32f4xx_rcc.c ****   * @retval None
 484:../Libraries/STM32F4xx_StdPeriph_Driver/src/stm32f4xx_rcc.c ****   */
 485:../Libraries/STM32F4xx_StdPeriph_Driver/src/stm32f4xx_rcc.c **** void RCC_PLLI2SConfig(uint32_t PLLI2SN, uint32_t PLLI2SR)
 486:../Libraries/STM32F4xx_StdPeriph_Driver/src/stm32f4xx_rcc.c **** {
 487:../Libraries/STM32F4xx_StdPeriph_Driver/src/stm32f4xx_rcc.c ****   /* Check the parameters */
 488:../Libraries/STM32F4xx_StdPeriph_Driver/src/stm32f4xx_rcc.c ****   assert_param(IS_RCC_PLLI2SN_VALUE(PLLI2SN));
 489:../Libraries/STM32F4xx_StdPeriph_Driver/src/stm32f4xx_rcc.c ****   assert_param(IS_RCC_PLLI2SR_VALUE(PLLI2SR));
 490:../Libraries/STM32F4xx_StdPeriph_Driver/src/stm32f4xx_rcc.c **** 
 491:../Libraries/STM32F4xx_StdPeriph_Driver/src/stm32f4xx_rcc.c ****   RCC->PLLI2SCFGR = (PLLI2SN << 6) | (PLLI2SR << 28);
 492:../Libraries/STM32F4xx_StdPeriph_Driver/src/stm32f4xx_rcc.c **** }
 493:../Libraries/STM32F4xx_StdPeriph_Driver/src/stm32f4xx_rcc.c **** 
 494:../Libraries/STM32F4xx_StdPeriph_Driver/src/stm32f4xx_rcc.c **** /**
 495:../Libraries/STM32F4xx_StdPeriph_Driver/src/stm32f4xx_rcc.c ****   * @brief  Enables or disables the PLLI2S. 
 496:../Libraries/STM32F4xx_StdPeriph_Driver/src/stm32f4xx_rcc.c ****   * @note   The PLLI2S is disabled by hardware when entering STOP and STANDBY modes.  
 497:../Libraries/STM32F4xx_StdPeriph_Driver/src/stm32f4xx_rcc.c ****   * @param  NewState: new state of the PLLI2S. This parameter can be: ENABLE or DISABLE.
 498:../Libraries/STM32F4xx_StdPeriph_Driver/src/stm32f4xx_rcc.c ****   * @retval None
 499:../Libraries/STM32F4xx_StdPeriph_Driver/src/stm32f4xx_rcc.c ****   */
 500:../Libraries/STM32F4xx_StdPeriph_Driver/src/stm32f4xx_rcc.c **** void RCC_PLLI2SCmd(FunctionalState NewState)
 501:../Libraries/STM32F4xx_StdPeriph_Driver/src/stm32f4xx_rcc.c **** {
 502:../Libraries/STM32F4xx_StdPeriph_Driver/src/stm32f4xx_rcc.c ****   /* Check the parameters */
 503:../Libraries/STM32F4xx_StdPeriph_Driver/src/stm32f4xx_rcc.c ****   assert_param(IS_FUNCTIONAL_STATE(NewState));
 504:../Libraries/STM32F4xx_StdPeriph_Driver/src/stm32f4xx_rcc.c ****   *(__IO uint32_t *) CR_PLLI2SON_BB = (uint32_t)NewState;
 505:../Libraries/STM32F4xx_StdPeriph_Driver/src/stm32f4xx_rcc.c **** }
 506:../Libraries/STM32F4xx_StdPeriph_Driver/src/stm32f4xx_rcc.c **** 
 507:../Libraries/STM32F4xx_StdPeriph_Driver/src/stm32f4xx_rcc.c **** /**
 508:../Libraries/STM32F4xx_StdPeriph_Driver/src/stm32f4xx_rcc.c ****   * @brief  Enables or disables the Clock Security System.
 509:../Libraries/STM32F4xx_StdPeriph_Driver/src/stm32f4xx_rcc.c ****   * @note   If a failure is detected on the HSE oscillator clock, this oscillator
 510:../Libraries/STM32F4xx_StdPeriph_Driver/src/stm32f4xx_rcc.c ****   *         is automatically disabled and an interrupt is generated to inform the
 511:../Libraries/STM32F4xx_StdPeriph_Driver/src/stm32f4xx_rcc.c ****   *         software about the failure (Clock Security System Interrupt, CSSI),
ARM GAS  C:\Users\admin\AppData\Local\Temp\ccNLmEJ4.s 			page 14


 512:../Libraries/STM32F4xx_StdPeriph_Driver/src/stm32f4xx_rcc.c ****   *         allowing the MCU to perform rescue operations. The CSSI is linked to 
 513:../Libraries/STM32F4xx_StdPeriph_Driver/src/stm32f4xx_rcc.c ****   *         the Cortex-M4 NMI (Non-Maskable Interrupt) exception vector.  
 514:../Libraries/STM32F4xx_StdPeriph_Driver/src/stm32f4xx_rcc.c ****   * @param  NewState: new state of the Clock Security System.
 515:../Libraries/STM32F4xx_StdPeriph_Driver/src/stm32f4xx_rcc.c ****   *         This parameter can be: ENABLE or DISABLE.
 516:../Libraries/STM32F4xx_StdPeriph_Driver/src/stm32f4xx_rcc.c ****   * @retval None
 517:../Libraries/STM32F4xx_StdPeriph_Driver/src/stm32f4xx_rcc.c ****   */
 518:../Libraries/STM32F4xx_StdPeriph_Driver/src/stm32f4xx_rcc.c **** void RCC_ClockSecuritySystemCmd(FunctionalState NewState)
 519:../Libraries/STM32F4xx_StdPeriph_Driver/src/stm32f4xx_rcc.c **** {
 520:../Libraries/STM32F4xx_StdPeriph_Driver/src/stm32f4xx_rcc.c ****   /* Check the parameters */
 521:../Libraries/STM32F4xx_StdPeriph_Driver/src/stm32f4xx_rcc.c ****   assert_param(IS_FUNCTIONAL_STATE(NewState));
 522:../Libraries/STM32F4xx_StdPeriph_Driver/src/stm32f4xx_rcc.c ****   *(__IO uint32_t *) CR_CSSON_BB = (uint32_t)NewState;
 523:../Libraries/STM32F4xx_StdPeriph_Driver/src/stm32f4xx_rcc.c **** }
 524:../Libraries/STM32F4xx_StdPeriph_Driver/src/stm32f4xx_rcc.c **** 
 525:../Libraries/STM32F4xx_StdPeriph_Driver/src/stm32f4xx_rcc.c **** /**
 526:../Libraries/STM32F4xx_StdPeriph_Driver/src/stm32f4xx_rcc.c ****   * @brief  Selects the clock source to output on MCO1 pin(PA8).
 527:../Libraries/STM32F4xx_StdPeriph_Driver/src/stm32f4xx_rcc.c ****   * @note   PA8 should be configured in alternate function mode.
 528:../Libraries/STM32F4xx_StdPeriph_Driver/src/stm32f4xx_rcc.c ****   * @param  RCC_MCO1Source: specifies the clock source to output.
 529:../Libraries/STM32F4xx_StdPeriph_Driver/src/stm32f4xx_rcc.c ****   *          This parameter can be one of the following values:
 530:../Libraries/STM32F4xx_StdPeriph_Driver/src/stm32f4xx_rcc.c ****   *            @arg RCC_MCO1Source_HSI: HSI clock selected as MCO1 source
 531:../Libraries/STM32F4xx_StdPeriph_Driver/src/stm32f4xx_rcc.c ****   *            @arg RCC_MCO1Source_LSE: LSE clock selected as MCO1 source
 532:../Libraries/STM32F4xx_StdPeriph_Driver/src/stm32f4xx_rcc.c ****   *            @arg RCC_MCO1Source_HSE: HSE clock selected as MCO1 source
 533:../Libraries/STM32F4xx_StdPeriph_Driver/src/stm32f4xx_rcc.c ****   *            @arg RCC_MCO1Source_PLLCLK: main PLL clock selected as MCO1 source
 534:../Libraries/STM32F4xx_StdPeriph_Driver/src/stm32f4xx_rcc.c ****   * @param  RCC_MCO1Div: specifies the MCO1 prescaler.
 535:../Libraries/STM32F4xx_StdPeriph_Driver/src/stm32f4xx_rcc.c ****   *          This parameter can be one of the following values:
 536:../Libraries/STM32F4xx_StdPeriph_Driver/src/stm32f4xx_rcc.c ****   *            @arg RCC_MCO1Div_1: no division applied to MCO1 clock
 537:../Libraries/STM32F4xx_StdPeriph_Driver/src/stm32f4xx_rcc.c ****   *            @arg RCC_MCO1Div_2: division by 2 applied to MCO1 clock
 538:../Libraries/STM32F4xx_StdPeriph_Driver/src/stm32f4xx_rcc.c ****   *            @arg RCC_MCO1Div_3: division by 3 applied to MCO1 clock
 539:../Libraries/STM32F4xx_StdPeriph_Driver/src/stm32f4xx_rcc.c ****   *            @arg RCC_MCO1Div_4: division by 4 applied to MCO1 clock
 540:../Libraries/STM32F4xx_StdPeriph_Driver/src/stm32f4xx_rcc.c ****   *            @arg RCC_MCO1Div_5: division by 5 applied to MCO1 clock
 541:../Libraries/STM32F4xx_StdPeriph_Driver/src/stm32f4xx_rcc.c ****   * @retval None
 542:../Libraries/STM32F4xx_StdPeriph_Driver/src/stm32f4xx_rcc.c ****   */
 543:../Libraries/STM32F4xx_StdPeriph_Driver/src/stm32f4xx_rcc.c **** void RCC_MCO1Config(uint32_t RCC_MCO1Source, uint32_t RCC_MCO1Div)
 544:../Libraries/STM32F4xx_StdPeriph_Driver/src/stm32f4xx_rcc.c **** {
 545:../Libraries/STM32F4xx_StdPeriph_Driver/src/stm32f4xx_rcc.c ****   uint32_t tmpreg = 0;
 546:../Libraries/STM32F4xx_StdPeriph_Driver/src/stm32f4xx_rcc.c ****   
 547:../Libraries/STM32F4xx_StdPeriph_Driver/src/stm32f4xx_rcc.c ****   /* Check the parameters */
 548:../Libraries/STM32F4xx_StdPeriph_Driver/src/stm32f4xx_rcc.c ****   assert_param(IS_RCC_MCO1SOURCE(RCC_MCO1Source));
 549:../Libraries/STM32F4xx_StdPeriph_Driver/src/stm32f4xx_rcc.c ****   assert_param(IS_RCC_MCO1DIV(RCC_MCO1Div));  
 550:../Libraries/STM32F4xx_StdPeriph_Driver/src/stm32f4xx_rcc.c **** 
 551:../Libraries/STM32F4xx_StdPeriph_Driver/src/stm32f4xx_rcc.c ****   tmpreg = RCC->CFGR;
 552:../Libraries/STM32F4xx_StdPeriph_Driver/src/stm32f4xx_rcc.c **** 
 553:../Libraries/STM32F4xx_StdPeriph_Driver/src/stm32f4xx_rcc.c ****   /* Clear MCO1[1:0] and MCO1PRE[2:0] bits */
 554:../Libraries/STM32F4xx_StdPeriph_Driver/src/stm32f4xx_rcc.c ****   tmpreg &= CFGR_MCO1_RESET_MASK;
 555:../Libraries/STM32F4xx_StdPeriph_Driver/src/stm32f4xx_rcc.c **** 
 556:../Libraries/STM32F4xx_StdPeriph_Driver/src/stm32f4xx_rcc.c ****   /* Select MCO1 clock source and prescaler */
 557:../Libraries/STM32F4xx_StdPeriph_Driver/src/stm32f4xx_rcc.c ****   tmpreg |= RCC_MCO1Source | RCC_MCO1Div;
 558:../Libraries/STM32F4xx_StdPeriph_Driver/src/stm32f4xx_rcc.c **** 
 559:../Libraries/STM32F4xx_StdPeriph_Driver/src/stm32f4xx_rcc.c ****   /* Store the new value */
 560:../Libraries/STM32F4xx_StdPeriph_Driver/src/stm32f4xx_rcc.c ****   RCC->CFGR = tmpreg;  
 561:../Libraries/STM32F4xx_StdPeriph_Driver/src/stm32f4xx_rcc.c **** }
 562:../Libraries/STM32F4xx_StdPeriph_Driver/src/stm32f4xx_rcc.c **** 
 563:../Libraries/STM32F4xx_StdPeriph_Driver/src/stm32f4xx_rcc.c **** /**
 564:../Libraries/STM32F4xx_StdPeriph_Driver/src/stm32f4xx_rcc.c ****   * @brief  Selects the clock source to output on MCO2 pin(PC9).
 565:../Libraries/STM32F4xx_StdPeriph_Driver/src/stm32f4xx_rcc.c ****   * @note   PC9 should be configured in alternate function mode.
 566:../Libraries/STM32F4xx_StdPeriph_Driver/src/stm32f4xx_rcc.c ****   * @param  RCC_MCO2Source: specifies the clock source to output.
 567:../Libraries/STM32F4xx_StdPeriph_Driver/src/stm32f4xx_rcc.c ****   *          This parameter can be one of the following values:
 568:../Libraries/STM32F4xx_StdPeriph_Driver/src/stm32f4xx_rcc.c ****   *            @arg RCC_MCO2Source_SYSCLK: System clock (SYSCLK) selected as MCO2 source
ARM GAS  C:\Users\admin\AppData\Local\Temp\ccNLmEJ4.s 			page 15


 569:../Libraries/STM32F4xx_StdPeriph_Driver/src/stm32f4xx_rcc.c ****   *            @arg RCC_MCO2Source_PLLI2SCLK: PLLI2S clock selected as MCO2 source
 570:../Libraries/STM32F4xx_StdPeriph_Driver/src/stm32f4xx_rcc.c ****   *            @arg RCC_MCO2Source_HSE: HSE clock selected as MCO2 source
 571:../Libraries/STM32F4xx_StdPeriph_Driver/src/stm32f4xx_rcc.c ****   *            @arg RCC_MCO2Source_PLLCLK: main PLL clock selected as MCO2 source
 572:../Libraries/STM32F4xx_StdPeriph_Driver/src/stm32f4xx_rcc.c ****   * @param  RCC_MCO2Div: specifies the MCO2 prescaler.
 573:../Libraries/STM32F4xx_StdPeriph_Driver/src/stm32f4xx_rcc.c ****   *          This parameter can be one of the following values:
 574:../Libraries/STM32F4xx_StdPeriph_Driver/src/stm32f4xx_rcc.c ****   *            @arg RCC_MCO2Div_1: no division applied to MCO2 clock
 575:../Libraries/STM32F4xx_StdPeriph_Driver/src/stm32f4xx_rcc.c ****   *            @arg RCC_MCO2Div_2: division by 2 applied to MCO2 clock
 576:../Libraries/STM32F4xx_StdPeriph_Driver/src/stm32f4xx_rcc.c ****   *            @arg RCC_MCO2Div_3: division by 3 applied to MCO2 clock
 577:../Libraries/STM32F4xx_StdPeriph_Driver/src/stm32f4xx_rcc.c ****   *            @arg RCC_MCO2Div_4: division by 4 applied to MCO2 clock
 578:../Libraries/STM32F4xx_StdPeriph_Driver/src/stm32f4xx_rcc.c ****   *            @arg RCC_MCO2Div_5: division by 5 applied to MCO2 clock
 579:../Libraries/STM32F4xx_StdPeriph_Driver/src/stm32f4xx_rcc.c ****   * @retval None
 580:../Libraries/STM32F4xx_StdPeriph_Driver/src/stm32f4xx_rcc.c ****   */
 581:../Libraries/STM32F4xx_StdPeriph_Driver/src/stm32f4xx_rcc.c **** void RCC_MCO2Config(uint32_t RCC_MCO2Source, uint32_t RCC_MCO2Div)
 582:../Libraries/STM32F4xx_StdPeriph_Driver/src/stm32f4xx_rcc.c **** {
 583:../Libraries/STM32F4xx_StdPeriph_Driver/src/stm32f4xx_rcc.c ****   uint32_t tmpreg = 0;
 584:../Libraries/STM32F4xx_StdPeriph_Driver/src/stm32f4xx_rcc.c ****   
 585:../Libraries/STM32F4xx_StdPeriph_Driver/src/stm32f4xx_rcc.c ****   /* Check the parameters */
 586:../Libraries/STM32F4xx_StdPeriph_Driver/src/stm32f4xx_rcc.c ****   assert_param(IS_RCC_MCO2SOURCE(RCC_MCO2Source));
 587:../Libraries/STM32F4xx_StdPeriph_Driver/src/stm32f4xx_rcc.c ****   assert_param(IS_RCC_MCO2DIV(RCC_MCO2Div));
 588:../Libraries/STM32F4xx_StdPeriph_Driver/src/stm32f4xx_rcc.c ****   
 589:../Libraries/STM32F4xx_StdPeriph_Driver/src/stm32f4xx_rcc.c ****   tmpreg = RCC->CFGR;
 590:../Libraries/STM32F4xx_StdPeriph_Driver/src/stm32f4xx_rcc.c ****   
 591:../Libraries/STM32F4xx_StdPeriph_Driver/src/stm32f4xx_rcc.c ****   /* Clear MCO2 and MCO2PRE[2:0] bits */
 592:../Libraries/STM32F4xx_StdPeriph_Driver/src/stm32f4xx_rcc.c ****   tmpreg &= CFGR_MCO2_RESET_MASK;
 593:../Libraries/STM32F4xx_StdPeriph_Driver/src/stm32f4xx_rcc.c **** 
 594:../Libraries/STM32F4xx_StdPeriph_Driver/src/stm32f4xx_rcc.c ****   /* Select MCO2 clock source and prescaler */
 595:../Libraries/STM32F4xx_StdPeriph_Driver/src/stm32f4xx_rcc.c ****   tmpreg |= RCC_MCO2Source | RCC_MCO2Div;
 596:../Libraries/STM32F4xx_StdPeriph_Driver/src/stm32f4xx_rcc.c **** 
 597:../Libraries/STM32F4xx_StdPeriph_Driver/src/stm32f4xx_rcc.c ****   /* Store the new value */
 598:../Libraries/STM32F4xx_StdPeriph_Driver/src/stm32f4xx_rcc.c ****   RCC->CFGR = tmpreg;  
 599:../Libraries/STM32F4xx_StdPeriph_Driver/src/stm32f4xx_rcc.c **** }
 600:../Libraries/STM32F4xx_StdPeriph_Driver/src/stm32f4xx_rcc.c **** 
 601:../Libraries/STM32F4xx_StdPeriph_Driver/src/stm32f4xx_rcc.c **** /**
 602:../Libraries/STM32F4xx_StdPeriph_Driver/src/stm32f4xx_rcc.c ****   * @}
 603:../Libraries/STM32F4xx_StdPeriph_Driver/src/stm32f4xx_rcc.c ****   */
 604:../Libraries/STM32F4xx_StdPeriph_Driver/src/stm32f4xx_rcc.c **** 
 605:../Libraries/STM32F4xx_StdPeriph_Driver/src/stm32f4xx_rcc.c **** /** @defgroup RCC_Group2 System AHB and APB busses clocks configuration functions
 606:../Libraries/STM32F4xx_StdPeriph_Driver/src/stm32f4xx_rcc.c ****  *  @brief   System, AHB and APB busses clocks configuration functions
 607:../Libraries/STM32F4xx_StdPeriph_Driver/src/stm32f4xx_rcc.c ****  *
 608:../Libraries/STM32F4xx_StdPeriph_Driver/src/stm32f4xx_rcc.c **** @verbatim   
 609:../Libraries/STM32F4xx_StdPeriph_Driver/src/stm32f4xx_rcc.c ****  ===============================================================================
 610:../Libraries/STM32F4xx_StdPeriph_Driver/src/stm32f4xx_rcc.c ****              System, AHB and APB busses clocks configuration functions
 611:../Libraries/STM32F4xx_StdPeriph_Driver/src/stm32f4xx_rcc.c ****  ===============================================================================  
 612:../Libraries/STM32F4xx_StdPeriph_Driver/src/stm32f4xx_rcc.c **** 
 613:../Libraries/STM32F4xx_StdPeriph_Driver/src/stm32f4xx_rcc.c ****   This section provide functions allowing to configure the System, AHB, APB1 and 
 614:../Libraries/STM32F4xx_StdPeriph_Driver/src/stm32f4xx_rcc.c ****   APB2 busses clocks.
 615:../Libraries/STM32F4xx_StdPeriph_Driver/src/stm32f4xx_rcc.c ****   
 616:../Libraries/STM32F4xx_StdPeriph_Driver/src/stm32f4xx_rcc.c ****   1. Several clock sources can be used to drive the System clock (SYSCLK): HSI,
 617:../Libraries/STM32F4xx_StdPeriph_Driver/src/stm32f4xx_rcc.c ****      HSE and PLL.
 618:../Libraries/STM32F4xx_StdPeriph_Driver/src/stm32f4xx_rcc.c ****      The AHB clock (HCLK) is derived from System clock through configurable prescaler
 619:../Libraries/STM32F4xx_StdPeriph_Driver/src/stm32f4xx_rcc.c ****      and used to clock the CPU, memory and peripherals mapped on AHB bus (DMA, GPIO...).
 620:../Libraries/STM32F4xx_StdPeriph_Driver/src/stm32f4xx_rcc.c ****      APB1 (PCLK1) and APB2 (PCLK2) clocks are derived from AHB clock through 
 621:../Libraries/STM32F4xx_StdPeriph_Driver/src/stm32f4xx_rcc.c ****      configurable prescalers and used to clock the peripherals mapped on these busses.
 622:../Libraries/STM32F4xx_StdPeriph_Driver/src/stm32f4xx_rcc.c ****      You can use "RCC_GetClocksFreq()" function to retrieve the frequencies of these clocks.  
 623:../Libraries/STM32F4xx_StdPeriph_Driver/src/stm32f4xx_rcc.c **** 
 624:../Libraries/STM32F4xx_StdPeriph_Driver/src/stm32f4xx_rcc.c **** @note All the peripheral clocks are derived from the System clock (SYSCLK) except:
 625:../Libraries/STM32F4xx_StdPeriph_Driver/src/stm32f4xx_rcc.c ****        - I2S: the I2S clock can be derived either from a specific PLL (PLLI2S) or
ARM GAS  C:\Users\admin\AppData\Local\Temp\ccNLmEJ4.s 			page 16


 626:../Libraries/STM32F4xx_StdPeriph_Driver/src/stm32f4xx_rcc.c ****           from an external clock mapped on the I2S_CKIN pin. 
 627:../Libraries/STM32F4xx_StdPeriph_Driver/src/stm32f4xx_rcc.c ****           You have to use RCC_I2SCLKConfig() function to configure this clock. 
 628:../Libraries/STM32F4xx_StdPeriph_Driver/src/stm32f4xx_rcc.c ****        - RTC: the RTC clock can be derived either from the LSI, LSE or HSE clock
 629:../Libraries/STM32F4xx_StdPeriph_Driver/src/stm32f4xx_rcc.c ****           divided by 2 to 31. You have to use RCC_RTCCLKConfig() and RCC_RTCCLKCmd()
 630:../Libraries/STM32F4xx_StdPeriph_Driver/src/stm32f4xx_rcc.c ****           functions to configure this clock. 
 631:../Libraries/STM32F4xx_StdPeriph_Driver/src/stm32f4xx_rcc.c ****        - USB OTG FS, SDIO and RTC: USB OTG FS require a frequency equal to 48 MHz
 632:../Libraries/STM32F4xx_StdPeriph_Driver/src/stm32f4xx_rcc.c ****           to work correctly, while the SDIO require a frequency equal or lower than
 633:../Libraries/STM32F4xx_StdPeriph_Driver/src/stm32f4xx_rcc.c ****           to 48. This clock is derived of the main PLL through PLLQ divider.
 634:../Libraries/STM32F4xx_StdPeriph_Driver/src/stm32f4xx_rcc.c ****        - IWDG clock which is always the LSI clock.
 635:../Libraries/STM32F4xx_StdPeriph_Driver/src/stm32f4xx_rcc.c ****        
 636:../Libraries/STM32F4xx_StdPeriph_Driver/src/stm32f4xx_rcc.c ****   2. The maximum frequency of the SYSCLK and HCLK is 168 MHz, PCLK2 82 MHz and PCLK1 42 MHz.
 637:../Libraries/STM32F4xx_StdPeriph_Driver/src/stm32f4xx_rcc.c ****      Depending on the device voltage range, the maximum frequency should be 
 638:../Libraries/STM32F4xx_StdPeriph_Driver/src/stm32f4xx_rcc.c ****      adapted accordingly:
 639:../Libraries/STM32F4xx_StdPeriph_Driver/src/stm32f4xx_rcc.c ****  +-------------------------------------------------------------------------------------+     
 640:../Libraries/STM32F4xx_StdPeriph_Driver/src/stm32f4xx_rcc.c ****  | Latency       |                HCLK clock frequency (MHz)                           |
 641:../Libraries/STM32F4xx_StdPeriph_Driver/src/stm32f4xx_rcc.c ****  |               |---------------------------------------------------------------------|     
 642:../Libraries/STM32F4xx_StdPeriph_Driver/src/stm32f4xx_rcc.c ****  |               | voltage range  | voltage range  | voltage range   | voltage range   |
 643:../Libraries/STM32F4xx_StdPeriph_Driver/src/stm32f4xx_rcc.c ****  |               | 2.7 V - 3.6 V  | 2.4 V - 2.7 V  | 2.1 V - 2.4 V   | 1.8 V - 2.1 V   |
 644:../Libraries/STM32F4xx_StdPeriph_Driver/src/stm32f4xx_rcc.c ****  |---------------|----------------|----------------|-----------------|-----------------|           
 645:../Libraries/STM32F4xx_StdPeriph_Driver/src/stm32f4xx_rcc.c ****  |0WS(1CPU cycle)|0 < HCLK <= 30  |0 < HCLK <= 24  |0 < HCLK <= 18   |0 < HCLK <= 16   |
 646:../Libraries/STM32F4xx_StdPeriph_Driver/src/stm32f4xx_rcc.c ****  |---------------|----------------|----------------|-----------------|-----------------|   
 647:../Libraries/STM32F4xx_StdPeriph_Driver/src/stm32f4xx_rcc.c ****  |1WS(2CPU cycle)|30 < HCLK <= 60 |24 < HCLK <= 48 |18 < HCLK <= 36  |16 < HCLK <= 32  | 
 648:../Libraries/STM32F4xx_StdPeriph_Driver/src/stm32f4xx_rcc.c ****  |---------------|----------------|----------------|-----------------|-----------------|   
 649:../Libraries/STM32F4xx_StdPeriph_Driver/src/stm32f4xx_rcc.c ****  |2WS(3CPU cycle)|60 < HCLK <= 90 |48 < HCLK <= 72 |36 < HCLK <= 54  |32 < HCLK <= 48  |
 650:../Libraries/STM32F4xx_StdPeriph_Driver/src/stm32f4xx_rcc.c ****  |---------------|----------------|----------------|-----------------|-----------------| 
 651:../Libraries/STM32F4xx_StdPeriph_Driver/src/stm32f4xx_rcc.c ****  |3WS(4CPU cycle)|90 < HCLK <= 120|72 < HCLK <= 96 |54 < HCLK <= 72  |48 < HCLK <= 64  |
 652:../Libraries/STM32F4xx_StdPeriph_Driver/src/stm32f4xx_rcc.c ****  |---------------|----------------|----------------|-----------------|-----------------| 
 653:../Libraries/STM32F4xx_StdPeriph_Driver/src/stm32f4xx_rcc.c ****  |4WS(5CPU cycle)|120< HCLK <= 150|96 < HCLK <= 120|72 < HCLK <= 90  |64 < HCLK <= 80  |
 654:../Libraries/STM32F4xx_StdPeriph_Driver/src/stm32f4xx_rcc.c ****  |---------------|----------------|----------------|-----------------|-----------------| 
 655:../Libraries/STM32F4xx_StdPeriph_Driver/src/stm32f4xx_rcc.c ****  |5WS(6CPU cycle)|120< HCLK <= 168|120< HCLK <= 144|90 < HCLK <= 108 |80 < HCLK <= 96  | 
 656:../Libraries/STM32F4xx_StdPeriph_Driver/src/stm32f4xx_rcc.c ****  |---------------|----------------|----------------|-----------------|-----------------| 
 657:../Libraries/STM32F4xx_StdPeriph_Driver/src/stm32f4xx_rcc.c ****  |6WS(7CPU cycle)|      NA        |144< HCLK <= 168|108 < HCLK <= 120|96 < HCLK <= 112 | 
 658:../Libraries/STM32F4xx_StdPeriph_Driver/src/stm32f4xx_rcc.c ****  |---------------|----------------|----------------|-----------------|-----------------| 
 659:../Libraries/STM32F4xx_StdPeriph_Driver/src/stm32f4xx_rcc.c ****  |7WS(8CPU cycle)|      NA        |      NA        |120 < HCLK <= 138|112 < HCLK <= 120| 
 660:../Libraries/STM32F4xx_StdPeriph_Driver/src/stm32f4xx_rcc.c ****  +-------------------------------------------------------------------------------------+    
 661:../Libraries/STM32F4xx_StdPeriph_Driver/src/stm32f4xx_rcc.c ****    @note When VOS bit (in PWR_CR register) is reset to '0, the maximum value of HCLK is 144 MHz.
 662:../Libraries/STM32F4xx_StdPeriph_Driver/src/stm32f4xx_rcc.c ****          You can use PWR_MainRegulatorModeConfig() function to set or reset this bit.
 663:../Libraries/STM32F4xx_StdPeriph_Driver/src/stm32f4xx_rcc.c **** 
 664:../Libraries/STM32F4xx_StdPeriph_Driver/src/stm32f4xx_rcc.c **** @endverbatim
 665:../Libraries/STM32F4xx_StdPeriph_Driver/src/stm32f4xx_rcc.c ****   * @{
 666:../Libraries/STM32F4xx_StdPeriph_Driver/src/stm32f4xx_rcc.c ****   */
 667:../Libraries/STM32F4xx_StdPeriph_Driver/src/stm32f4xx_rcc.c **** 
 668:../Libraries/STM32F4xx_StdPeriph_Driver/src/stm32f4xx_rcc.c **** /**
 669:../Libraries/STM32F4xx_StdPeriph_Driver/src/stm32f4xx_rcc.c ****   * @brief  Configures the system clock (SYSCLK).
 670:../Libraries/STM32F4xx_StdPeriph_Driver/src/stm32f4xx_rcc.c ****   * @note   The HSI is used (enabled by hardware) as system clock source after
 671:../Libraries/STM32F4xx_StdPeriph_Driver/src/stm32f4xx_rcc.c ****   *         startup from Reset, wake-up from STOP and STANDBY mode, or in case
 672:../Libraries/STM32F4xx_StdPeriph_Driver/src/stm32f4xx_rcc.c ****   *         of failure of the HSE used directly or indirectly as system clock
 673:../Libraries/STM32F4xx_StdPeriph_Driver/src/stm32f4xx_rcc.c ****   *         (if the Clock Security System CSS is enabled).
 674:../Libraries/STM32F4xx_StdPeriph_Driver/src/stm32f4xx_rcc.c ****   * @note   A switch from one clock source to another occurs only if the target
 675:../Libraries/STM32F4xx_StdPeriph_Driver/src/stm32f4xx_rcc.c ****   *         clock source is ready (clock stable after startup delay or PLL locked). 
 676:../Libraries/STM32F4xx_StdPeriph_Driver/src/stm32f4xx_rcc.c ****   *         If a clock source which is not yet ready is selected, the switch will
 677:../Libraries/STM32F4xx_StdPeriph_Driver/src/stm32f4xx_rcc.c ****   *         occur when the clock source will be ready. 
 678:../Libraries/STM32F4xx_StdPeriph_Driver/src/stm32f4xx_rcc.c ****   *         You can use RCC_GetSYSCLKSource() function to know which clock is
 679:../Libraries/STM32F4xx_StdPeriph_Driver/src/stm32f4xx_rcc.c ****   *         currently used as system clock source. 
 680:../Libraries/STM32F4xx_StdPeriph_Driver/src/stm32f4xx_rcc.c ****   * @param  RCC_SYSCLKSource: specifies the clock source used as system clock.
 681:../Libraries/STM32F4xx_StdPeriph_Driver/src/stm32f4xx_rcc.c ****   *          This parameter can be one of the following values:
 682:../Libraries/STM32F4xx_StdPeriph_Driver/src/stm32f4xx_rcc.c ****   *            @arg RCC_SYSCLKSource_HSI:    HSI selected as system clock source
ARM GAS  C:\Users\admin\AppData\Local\Temp\ccNLmEJ4.s 			page 17


 683:../Libraries/STM32F4xx_StdPeriph_Driver/src/stm32f4xx_rcc.c ****   *            @arg RCC_SYSCLKSource_HSE:    HSE selected as system clock source
 684:../Libraries/STM32F4xx_StdPeriph_Driver/src/stm32f4xx_rcc.c ****   *            @arg RCC_SYSCLKSource_PLLCLK: PLL selected as system clock source
 685:../Libraries/STM32F4xx_StdPeriph_Driver/src/stm32f4xx_rcc.c ****   * @retval None
 686:../Libraries/STM32F4xx_StdPeriph_Driver/src/stm32f4xx_rcc.c ****   */
 687:../Libraries/STM32F4xx_StdPeriph_Driver/src/stm32f4xx_rcc.c **** void RCC_SYSCLKConfig(uint32_t RCC_SYSCLKSource)
 688:../Libraries/STM32F4xx_StdPeriph_Driver/src/stm32f4xx_rcc.c **** {
 689:../Libraries/STM32F4xx_StdPeriph_Driver/src/stm32f4xx_rcc.c ****   uint32_t tmpreg = 0;
 690:../Libraries/STM32F4xx_StdPeriph_Driver/src/stm32f4xx_rcc.c **** 
 691:../Libraries/STM32F4xx_StdPeriph_Driver/src/stm32f4xx_rcc.c ****   /* Check the parameters */
 692:../Libraries/STM32F4xx_StdPeriph_Driver/src/stm32f4xx_rcc.c ****   assert_param(IS_RCC_SYSCLK_SOURCE(RCC_SYSCLKSource));
 693:../Libraries/STM32F4xx_StdPeriph_Driver/src/stm32f4xx_rcc.c **** 
 694:../Libraries/STM32F4xx_StdPeriph_Driver/src/stm32f4xx_rcc.c ****   tmpreg = RCC->CFGR;
 695:../Libraries/STM32F4xx_StdPeriph_Driver/src/stm32f4xx_rcc.c **** 
 696:../Libraries/STM32F4xx_StdPeriph_Driver/src/stm32f4xx_rcc.c ****   /* Clear SW[1:0] bits */
 697:../Libraries/STM32F4xx_StdPeriph_Driver/src/stm32f4xx_rcc.c ****   tmpreg &= ~RCC_CFGR_SW;
 698:../Libraries/STM32F4xx_StdPeriph_Driver/src/stm32f4xx_rcc.c **** 
 699:../Libraries/STM32F4xx_StdPeriph_Driver/src/stm32f4xx_rcc.c ****   /* Set SW[1:0] bits according to RCC_SYSCLKSource value */
 700:../Libraries/STM32F4xx_StdPeriph_Driver/src/stm32f4xx_rcc.c ****   tmpreg |= RCC_SYSCLKSource;
 701:../Libraries/STM32F4xx_StdPeriph_Driver/src/stm32f4xx_rcc.c **** 
 702:../Libraries/STM32F4xx_StdPeriph_Driver/src/stm32f4xx_rcc.c ****   /* Store the new value */
 703:../Libraries/STM32F4xx_StdPeriph_Driver/src/stm32f4xx_rcc.c ****   RCC->CFGR = tmpreg;
 704:../Libraries/STM32F4xx_StdPeriph_Driver/src/stm32f4xx_rcc.c **** }
 705:../Libraries/STM32F4xx_StdPeriph_Driver/src/stm32f4xx_rcc.c **** 
 706:../Libraries/STM32F4xx_StdPeriph_Driver/src/stm32f4xx_rcc.c **** /**
 707:../Libraries/STM32F4xx_StdPeriph_Driver/src/stm32f4xx_rcc.c ****   * @brief  Returns the clock source used as system clock.
 708:../Libraries/STM32F4xx_StdPeriph_Driver/src/stm32f4xx_rcc.c ****   * @param  None
 709:../Libraries/STM32F4xx_StdPeriph_Driver/src/stm32f4xx_rcc.c ****   * @retval The clock source used as system clock. The returned value can be one
 710:../Libraries/STM32F4xx_StdPeriph_Driver/src/stm32f4xx_rcc.c ****   *         of the following:
 711:../Libraries/STM32F4xx_StdPeriph_Driver/src/stm32f4xx_rcc.c ****   *              - 0x00: HSI used as system clock
 712:../Libraries/STM32F4xx_StdPeriph_Driver/src/stm32f4xx_rcc.c ****   *              - 0x04: HSE used as system clock
 713:../Libraries/STM32F4xx_StdPeriph_Driver/src/stm32f4xx_rcc.c ****   *              - 0x08: PLL used as system clock
 714:../Libraries/STM32F4xx_StdPeriph_Driver/src/stm32f4xx_rcc.c ****   */
 715:../Libraries/STM32F4xx_StdPeriph_Driver/src/stm32f4xx_rcc.c **** uint8_t RCC_GetSYSCLKSource(void)
 716:../Libraries/STM32F4xx_StdPeriph_Driver/src/stm32f4xx_rcc.c **** {
 717:../Libraries/STM32F4xx_StdPeriph_Driver/src/stm32f4xx_rcc.c ****   return ((uint8_t)(RCC->CFGR & RCC_CFGR_SWS));
 718:../Libraries/STM32F4xx_StdPeriph_Driver/src/stm32f4xx_rcc.c **** }
 719:../Libraries/STM32F4xx_StdPeriph_Driver/src/stm32f4xx_rcc.c **** 
 720:../Libraries/STM32F4xx_StdPeriph_Driver/src/stm32f4xx_rcc.c **** /**
 721:../Libraries/STM32F4xx_StdPeriph_Driver/src/stm32f4xx_rcc.c ****   * @brief  Configures the AHB clock (HCLK).
 722:../Libraries/STM32F4xx_StdPeriph_Driver/src/stm32f4xx_rcc.c ****   * @note   Depending on the device voltage range, the software has to set correctly
 723:../Libraries/STM32F4xx_StdPeriph_Driver/src/stm32f4xx_rcc.c ****   *         these bits to ensure that HCLK not exceed the maximum allowed frequency
 724:../Libraries/STM32F4xx_StdPeriph_Driver/src/stm32f4xx_rcc.c ****   *         (for more details refer to section above
 725:../Libraries/STM32F4xx_StdPeriph_Driver/src/stm32f4xx_rcc.c ****   *           "CPU, AHB and APB busses clocks configuration functions")
 726:../Libraries/STM32F4xx_StdPeriph_Driver/src/stm32f4xx_rcc.c ****   * @param  RCC_SYSCLK: defines the AHB clock divider. This clock is derived from 
 727:../Libraries/STM32F4xx_StdPeriph_Driver/src/stm32f4xx_rcc.c ****   *         the system clock (SYSCLK).
 728:../Libraries/STM32F4xx_StdPeriph_Driver/src/stm32f4xx_rcc.c ****   *          This parameter can be one of the following values:
 729:../Libraries/STM32F4xx_StdPeriph_Driver/src/stm32f4xx_rcc.c ****   *            @arg RCC_SYSCLK_Div1: AHB clock = SYSCLK
 730:../Libraries/STM32F4xx_StdPeriph_Driver/src/stm32f4xx_rcc.c ****   *            @arg RCC_SYSCLK_Div2: AHB clock = SYSCLK/2
 731:../Libraries/STM32F4xx_StdPeriph_Driver/src/stm32f4xx_rcc.c ****   *            @arg RCC_SYSCLK_Div4: AHB clock = SYSCLK/4
 732:../Libraries/STM32F4xx_StdPeriph_Driver/src/stm32f4xx_rcc.c ****   *            @arg RCC_SYSCLK_Div8: AHB clock = SYSCLK/8
 733:../Libraries/STM32F4xx_StdPeriph_Driver/src/stm32f4xx_rcc.c ****   *            @arg RCC_SYSCLK_Div16: AHB clock = SYSCLK/16
 734:../Libraries/STM32F4xx_StdPeriph_Driver/src/stm32f4xx_rcc.c ****   *            @arg RCC_SYSCLK_Div64: AHB clock = SYSCLK/64
 735:../Libraries/STM32F4xx_StdPeriph_Driver/src/stm32f4xx_rcc.c ****   *            @arg RCC_SYSCLK_Div128: AHB clock = SYSCLK/128
 736:../Libraries/STM32F4xx_StdPeriph_Driver/src/stm32f4xx_rcc.c ****   *            @arg RCC_SYSCLK_Div256: AHB clock = SYSCLK/256
 737:../Libraries/STM32F4xx_StdPeriph_Driver/src/stm32f4xx_rcc.c ****   *            @arg RCC_SYSCLK_Div512: AHB clock = SYSCLK/512
 738:../Libraries/STM32F4xx_StdPeriph_Driver/src/stm32f4xx_rcc.c ****   * @retval None
 739:../Libraries/STM32F4xx_StdPeriph_Driver/src/stm32f4xx_rcc.c ****   */
ARM GAS  C:\Users\admin\AppData\Local\Temp\ccNLmEJ4.s 			page 18


 740:../Libraries/STM32F4xx_StdPeriph_Driver/src/stm32f4xx_rcc.c **** void RCC_HCLKConfig(uint32_t RCC_SYSCLK)
 741:../Libraries/STM32F4xx_StdPeriph_Driver/src/stm32f4xx_rcc.c **** {
 742:../Libraries/STM32F4xx_StdPeriph_Driver/src/stm32f4xx_rcc.c ****   uint32_t tmpreg = 0;
 743:../Libraries/STM32F4xx_StdPeriph_Driver/src/stm32f4xx_rcc.c ****   
 744:../Libraries/STM32F4xx_StdPeriph_Driver/src/stm32f4xx_rcc.c ****   /* Check the parameters */
 745:../Libraries/STM32F4xx_StdPeriph_Driver/src/stm32f4xx_rcc.c ****   assert_param(IS_RCC_HCLK(RCC_SYSCLK));
 746:../Libraries/STM32F4xx_StdPeriph_Driver/src/stm32f4xx_rcc.c **** 
 747:../Libraries/STM32F4xx_StdPeriph_Driver/src/stm32f4xx_rcc.c ****   tmpreg = RCC->CFGR;
 748:../Libraries/STM32F4xx_StdPeriph_Driver/src/stm32f4xx_rcc.c **** 
 749:../Libraries/STM32F4xx_StdPeriph_Driver/src/stm32f4xx_rcc.c ****   /* Clear HPRE[3:0] bits */
 750:../Libraries/STM32F4xx_StdPeriph_Driver/src/stm32f4xx_rcc.c ****   tmpreg &= ~RCC_CFGR_HPRE;
 751:../Libraries/STM32F4xx_StdPeriph_Driver/src/stm32f4xx_rcc.c **** 
 752:../Libraries/STM32F4xx_StdPeriph_Driver/src/stm32f4xx_rcc.c ****   /* Set HPRE[3:0] bits according to RCC_SYSCLK value */
 753:../Libraries/STM32F4xx_StdPeriph_Driver/src/stm32f4xx_rcc.c ****   tmpreg |= RCC_SYSCLK;
 754:../Libraries/STM32F4xx_StdPeriph_Driver/src/stm32f4xx_rcc.c **** 
 755:../Libraries/STM32F4xx_StdPeriph_Driver/src/stm32f4xx_rcc.c ****   /* Store the new value */
 756:../Libraries/STM32F4xx_StdPeriph_Driver/src/stm32f4xx_rcc.c ****   RCC->CFGR = tmpreg;
 757:../Libraries/STM32F4xx_StdPeriph_Driver/src/stm32f4xx_rcc.c **** }
 758:../Libraries/STM32F4xx_StdPeriph_Driver/src/stm32f4xx_rcc.c **** 
 759:../Libraries/STM32F4xx_StdPeriph_Driver/src/stm32f4xx_rcc.c **** 
 760:../Libraries/STM32F4xx_StdPeriph_Driver/src/stm32f4xx_rcc.c **** /**
 761:../Libraries/STM32F4xx_StdPeriph_Driver/src/stm32f4xx_rcc.c ****   * @brief  Configures the Low Speed APB clock (PCLK1).
 762:../Libraries/STM32F4xx_StdPeriph_Driver/src/stm32f4xx_rcc.c ****   * @param  RCC_HCLK: defines the APB1 clock divider. This clock is derived from 
 763:../Libraries/STM32F4xx_StdPeriph_Driver/src/stm32f4xx_rcc.c ****   *         the AHB clock (HCLK).
 764:../Libraries/STM32F4xx_StdPeriph_Driver/src/stm32f4xx_rcc.c ****   *          This parameter can be one of the following values:
 765:../Libraries/STM32F4xx_StdPeriph_Driver/src/stm32f4xx_rcc.c ****   *            @arg RCC_HCLK_Div1:  APB1 clock = HCLK
 766:../Libraries/STM32F4xx_StdPeriph_Driver/src/stm32f4xx_rcc.c ****   *            @arg RCC_HCLK_Div2:  APB1 clock = HCLK/2
 767:../Libraries/STM32F4xx_StdPeriph_Driver/src/stm32f4xx_rcc.c ****   *            @arg RCC_HCLK_Div4:  APB1 clock = HCLK/4
 768:../Libraries/STM32F4xx_StdPeriph_Driver/src/stm32f4xx_rcc.c ****   *            @arg RCC_HCLK_Div8:  APB1 clock = HCLK/8
 769:../Libraries/STM32F4xx_StdPeriph_Driver/src/stm32f4xx_rcc.c ****   *            @arg RCC_HCLK_Div16: APB1 clock = HCLK/16
 770:../Libraries/STM32F4xx_StdPeriph_Driver/src/stm32f4xx_rcc.c ****   * @retval None
 771:../Libraries/STM32F4xx_StdPeriph_Driver/src/stm32f4xx_rcc.c ****   */
 772:../Libraries/STM32F4xx_StdPeriph_Driver/src/stm32f4xx_rcc.c **** void RCC_PCLK1Config(uint32_t RCC_HCLK)
 773:../Libraries/STM32F4xx_StdPeriph_Driver/src/stm32f4xx_rcc.c **** {
 774:../Libraries/STM32F4xx_StdPeriph_Driver/src/stm32f4xx_rcc.c ****   uint32_t tmpreg = 0;
 775:../Libraries/STM32F4xx_StdPeriph_Driver/src/stm32f4xx_rcc.c **** 
 776:../Libraries/STM32F4xx_StdPeriph_Driver/src/stm32f4xx_rcc.c ****   /* Check the parameters */
 777:../Libraries/STM32F4xx_StdPeriph_Driver/src/stm32f4xx_rcc.c ****   assert_param(IS_RCC_PCLK(RCC_HCLK));
 778:../Libraries/STM32F4xx_StdPeriph_Driver/src/stm32f4xx_rcc.c **** 
 779:../Libraries/STM32F4xx_StdPeriph_Driver/src/stm32f4xx_rcc.c ****   tmpreg = RCC->CFGR;
 780:../Libraries/STM32F4xx_StdPeriph_Driver/src/stm32f4xx_rcc.c **** 
 781:../Libraries/STM32F4xx_StdPeriph_Driver/src/stm32f4xx_rcc.c ****   /* Clear PPRE1[2:0] bits */
 782:../Libraries/STM32F4xx_StdPeriph_Driver/src/stm32f4xx_rcc.c ****   tmpreg &= ~RCC_CFGR_PPRE1;
 783:../Libraries/STM32F4xx_StdPeriph_Driver/src/stm32f4xx_rcc.c **** 
 784:../Libraries/STM32F4xx_StdPeriph_Driver/src/stm32f4xx_rcc.c ****   /* Set PPRE1[2:0] bits according to RCC_HCLK value */
 785:../Libraries/STM32F4xx_StdPeriph_Driver/src/stm32f4xx_rcc.c ****   tmpreg |= RCC_HCLK;
 786:../Libraries/STM32F4xx_StdPeriph_Driver/src/stm32f4xx_rcc.c **** 
 787:../Libraries/STM32F4xx_StdPeriph_Driver/src/stm32f4xx_rcc.c ****   /* Store the new value */
 788:../Libraries/STM32F4xx_StdPeriph_Driver/src/stm32f4xx_rcc.c ****   RCC->CFGR = tmpreg;
 789:../Libraries/STM32F4xx_StdPeriph_Driver/src/stm32f4xx_rcc.c **** }
 790:../Libraries/STM32F4xx_StdPeriph_Driver/src/stm32f4xx_rcc.c **** 
 791:../Libraries/STM32F4xx_StdPeriph_Driver/src/stm32f4xx_rcc.c **** /**
 792:../Libraries/STM32F4xx_StdPeriph_Driver/src/stm32f4xx_rcc.c ****   * @brief  Configures the High Speed APB clock (PCLK2).
 793:../Libraries/STM32F4xx_StdPeriph_Driver/src/stm32f4xx_rcc.c ****   * @param  RCC_HCLK: defines the APB2 clock divider. This clock is derived from 
 794:../Libraries/STM32F4xx_StdPeriph_Driver/src/stm32f4xx_rcc.c ****   *         the AHB clock (HCLK).
 795:../Libraries/STM32F4xx_StdPeriph_Driver/src/stm32f4xx_rcc.c ****   *          This parameter can be one of the following values:
 796:../Libraries/STM32F4xx_StdPeriph_Driver/src/stm32f4xx_rcc.c ****   *            @arg RCC_HCLK_Div1:  APB2 clock = HCLK
ARM GAS  C:\Users\admin\AppData\Local\Temp\ccNLmEJ4.s 			page 19


 797:../Libraries/STM32F4xx_StdPeriph_Driver/src/stm32f4xx_rcc.c ****   *            @arg RCC_HCLK_Div2:  APB2 clock = HCLK/2
 798:../Libraries/STM32F4xx_StdPeriph_Driver/src/stm32f4xx_rcc.c ****   *            @arg RCC_HCLK_Div4:  APB2 clock = HCLK/4
 799:../Libraries/STM32F4xx_StdPeriph_Driver/src/stm32f4xx_rcc.c ****   *            @arg RCC_HCLK_Div8:  APB2 clock = HCLK/8
 800:../Libraries/STM32F4xx_StdPeriph_Driver/src/stm32f4xx_rcc.c ****   *            @arg RCC_HCLK_Div16: APB2 clock = HCLK/16
 801:../Libraries/STM32F4xx_StdPeriph_Driver/src/stm32f4xx_rcc.c ****   * @retval None
 802:../Libraries/STM32F4xx_StdPeriph_Driver/src/stm32f4xx_rcc.c ****   */
 803:../Libraries/STM32F4xx_StdPeriph_Driver/src/stm32f4xx_rcc.c **** void RCC_PCLK2Config(uint32_t RCC_HCLK)
 804:../Libraries/STM32F4xx_StdPeriph_Driver/src/stm32f4xx_rcc.c **** {
 805:../Libraries/STM32F4xx_StdPeriph_Driver/src/stm32f4xx_rcc.c ****   uint32_t tmpreg = 0;
 806:../Libraries/STM32F4xx_StdPeriph_Driver/src/stm32f4xx_rcc.c **** 
 807:../Libraries/STM32F4xx_StdPeriph_Driver/src/stm32f4xx_rcc.c ****   /* Check the parameters */
 808:../Libraries/STM32F4xx_StdPeriph_Driver/src/stm32f4xx_rcc.c ****   assert_param(IS_RCC_PCLK(RCC_HCLK));
 809:../Libraries/STM32F4xx_StdPeriph_Driver/src/stm32f4xx_rcc.c **** 
 810:../Libraries/STM32F4xx_StdPeriph_Driver/src/stm32f4xx_rcc.c ****   tmpreg = RCC->CFGR;
 811:../Libraries/STM32F4xx_StdPeriph_Driver/src/stm32f4xx_rcc.c **** 
 812:../Libraries/STM32F4xx_StdPeriph_Driver/src/stm32f4xx_rcc.c ****   /* Clear PPRE2[2:0] bits */
 813:../Libraries/STM32F4xx_StdPeriph_Driver/src/stm32f4xx_rcc.c ****   tmpreg &= ~RCC_CFGR_PPRE2;
 814:../Libraries/STM32F4xx_StdPeriph_Driver/src/stm32f4xx_rcc.c **** 
 815:../Libraries/STM32F4xx_StdPeriph_Driver/src/stm32f4xx_rcc.c ****   /* Set PPRE2[2:0] bits according to RCC_HCLK value */
 816:../Libraries/STM32F4xx_StdPeriph_Driver/src/stm32f4xx_rcc.c ****   tmpreg |= RCC_HCLK << 3;
 817:../Libraries/STM32F4xx_StdPeriph_Driver/src/stm32f4xx_rcc.c **** 
 818:../Libraries/STM32F4xx_StdPeriph_Driver/src/stm32f4xx_rcc.c ****   /* Store the new value */
 819:../Libraries/STM32F4xx_StdPeriph_Driver/src/stm32f4xx_rcc.c ****   RCC->CFGR = tmpreg;
 820:../Libraries/STM32F4xx_StdPeriph_Driver/src/stm32f4xx_rcc.c **** }
 821:../Libraries/STM32F4xx_StdPeriph_Driver/src/stm32f4xx_rcc.c **** 
 822:../Libraries/STM32F4xx_StdPeriph_Driver/src/stm32f4xx_rcc.c **** /**
 823:../Libraries/STM32F4xx_StdPeriph_Driver/src/stm32f4xx_rcc.c ****   * @brief  Returns the frequencies of different on chip clocks; SYSCLK, HCLK, 
 824:../Libraries/STM32F4xx_StdPeriph_Driver/src/stm32f4xx_rcc.c ****   *         PCLK1 and PCLK2.       
 825:../Libraries/STM32F4xx_StdPeriph_Driver/src/stm32f4xx_rcc.c ****   * 
 826:../Libraries/STM32F4xx_StdPeriph_Driver/src/stm32f4xx_rcc.c ****   * @note   The system frequency computed by this function is not the real 
 827:../Libraries/STM32F4xx_StdPeriph_Driver/src/stm32f4xx_rcc.c ****   *         frequency in the chip. It is calculated based on the predefined 
 828:../Libraries/STM32F4xx_StdPeriph_Driver/src/stm32f4xx_rcc.c ****   *         constant and the selected clock source:
 829:../Libraries/STM32F4xx_StdPeriph_Driver/src/stm32f4xx_rcc.c ****   * @note     If SYSCLK source is HSI, function returns values based on HSI_VALUE(*)
 830:../Libraries/STM32F4xx_StdPeriph_Driver/src/stm32f4xx_rcc.c ****   * @note     If SYSCLK source is HSE, function returns values based on HSE_VALUE(**)
 831:../Libraries/STM32F4xx_StdPeriph_Driver/src/stm32f4xx_rcc.c ****   * @note     If SYSCLK source is PLL, function returns values based on HSE_VALUE(**) 
 832:../Libraries/STM32F4xx_StdPeriph_Driver/src/stm32f4xx_rcc.c ****   *           or HSI_VALUE(*) multiplied/divided by the PLL factors.         
 833:../Libraries/STM32F4xx_StdPeriph_Driver/src/stm32f4xx_rcc.c ****   * @note     (*) HSI_VALUE is a constant defined in stm32f4xx.h file (default value
 834:../Libraries/STM32F4xx_StdPeriph_Driver/src/stm32f4xx_rcc.c ****   *               16 MHz) but the real value may vary depending on the variations
 835:../Libraries/STM32F4xx_StdPeriph_Driver/src/stm32f4xx_rcc.c ****   *               in voltage and temperature.
 836:../Libraries/STM32F4xx_StdPeriph_Driver/src/stm32f4xx_rcc.c ****   * @note     (**) HSE_VALUE is a constant defined in stm32f4xx.h file (default value
 837:../Libraries/STM32F4xx_StdPeriph_Driver/src/stm32f4xx_rcc.c ****   *                25 MHz), user has to ensure that HSE_VALUE is same as the real
 838:../Libraries/STM32F4xx_StdPeriph_Driver/src/stm32f4xx_rcc.c ****   *                frequency of the crystal used. Otherwise, this function may
 839:../Libraries/STM32F4xx_StdPeriph_Driver/src/stm32f4xx_rcc.c ****   *                have wrong result.
 840:../Libraries/STM32F4xx_StdPeriph_Driver/src/stm32f4xx_rcc.c ****   *                
 841:../Libraries/STM32F4xx_StdPeriph_Driver/src/stm32f4xx_rcc.c ****   * @note   The result of this function could be not correct when using fractional
 842:../Libraries/STM32F4xx_StdPeriph_Driver/src/stm32f4xx_rcc.c ****   *         value for HSE crystal.
 843:../Libraries/STM32F4xx_StdPeriph_Driver/src/stm32f4xx_rcc.c ****   *   
 844:../Libraries/STM32F4xx_StdPeriph_Driver/src/stm32f4xx_rcc.c ****   * @param  RCC_Clocks: pointer to a RCC_ClocksTypeDef structure which will hold
 845:../Libraries/STM32F4xx_StdPeriph_Driver/src/stm32f4xx_rcc.c ****   *          the clocks frequencies.
 846:../Libraries/STM32F4xx_StdPeriph_Driver/src/stm32f4xx_rcc.c ****   *     
 847:../Libraries/STM32F4xx_StdPeriph_Driver/src/stm32f4xx_rcc.c ****   * @note   This function can be used by the user application to compute the 
 848:../Libraries/STM32F4xx_StdPeriph_Driver/src/stm32f4xx_rcc.c ****   *         baudrate for the communication peripherals or configure other parameters.
 849:../Libraries/STM32F4xx_StdPeriph_Driver/src/stm32f4xx_rcc.c ****   * @note   Each time SYSCLK, HCLK, PCLK1 and/or PCLK2 clock changes, this function
 850:../Libraries/STM32F4xx_StdPeriph_Driver/src/stm32f4xx_rcc.c ****   *         must be called to update the structure's field. Otherwise, any
 851:../Libraries/STM32F4xx_StdPeriph_Driver/src/stm32f4xx_rcc.c ****   *         configuration based on this function will be incorrect.
 852:../Libraries/STM32F4xx_StdPeriph_Driver/src/stm32f4xx_rcc.c ****   *    
 853:../Libraries/STM32F4xx_StdPeriph_Driver/src/stm32f4xx_rcc.c ****   * @retval None
ARM GAS  C:\Users\admin\AppData\Local\Temp\ccNLmEJ4.s 			page 20


 854:../Libraries/STM32F4xx_StdPeriph_Driver/src/stm32f4xx_rcc.c ****   */
 855:../Libraries/STM32F4xx_StdPeriph_Driver/src/stm32f4xx_rcc.c **** void RCC_GetClocksFreq(RCC_ClocksTypeDef* RCC_Clocks)
 856:../Libraries/STM32F4xx_StdPeriph_Driver/src/stm32f4xx_rcc.c **** {
 857:../Libraries/STM32F4xx_StdPeriph_Driver/src/stm32f4xx_rcc.c ****   uint32_t tmp = 0, presc = 0, pllvco = 0, pllp = 2, pllsource = 0, pllm = 2;
 858:../Libraries/STM32F4xx_StdPeriph_Driver/src/stm32f4xx_rcc.c **** 
 859:../Libraries/STM32F4xx_StdPeriph_Driver/src/stm32f4xx_rcc.c ****   /* Get SYSCLK source -------------------------------------------------------*/
 860:../Libraries/STM32F4xx_StdPeriph_Driver/src/stm32f4xx_rcc.c ****   tmp = RCC->CFGR & RCC_CFGR_SWS;
 861:../Libraries/STM32F4xx_StdPeriph_Driver/src/stm32f4xx_rcc.c **** 
 862:../Libraries/STM32F4xx_StdPeriph_Driver/src/stm32f4xx_rcc.c ****   switch (tmp)
 863:../Libraries/STM32F4xx_StdPeriph_Driver/src/stm32f4xx_rcc.c ****   {
 864:../Libraries/STM32F4xx_StdPeriph_Driver/src/stm32f4xx_rcc.c ****     case 0x00:  /* HSI used as system clock source */
 865:../Libraries/STM32F4xx_StdPeriph_Driver/src/stm32f4xx_rcc.c ****       RCC_Clocks->SYSCLK_Frequency = HSI_VALUE;
 866:../Libraries/STM32F4xx_StdPeriph_Driver/src/stm32f4xx_rcc.c ****       break;
 867:../Libraries/STM32F4xx_StdPeriph_Driver/src/stm32f4xx_rcc.c ****     case 0x04:  /* HSE used as system clock  source */
 868:../Libraries/STM32F4xx_StdPeriph_Driver/src/stm32f4xx_rcc.c ****       RCC_Clocks->SYSCLK_Frequency = HSE_VALUE;
 869:../Libraries/STM32F4xx_StdPeriph_Driver/src/stm32f4xx_rcc.c ****       break;
 870:../Libraries/STM32F4xx_StdPeriph_Driver/src/stm32f4xx_rcc.c ****     case 0x08:  /* PLL used as system clock  source */
 871:../Libraries/STM32F4xx_StdPeriph_Driver/src/stm32f4xx_rcc.c **** 
 872:../Libraries/STM32F4xx_StdPeriph_Driver/src/stm32f4xx_rcc.c ****       /* PLL_VCO = (HSE_VALUE or HSI_VALUE / PLLM) * PLLN
 873:../Libraries/STM32F4xx_StdPeriph_Driver/src/stm32f4xx_rcc.c ****          SYSCLK = PLL_VCO / PLLP
 874:../Libraries/STM32F4xx_StdPeriph_Driver/src/stm32f4xx_rcc.c ****          */    
 875:../Libraries/STM32F4xx_StdPeriph_Driver/src/stm32f4xx_rcc.c ****       pllsource = (RCC->PLLCFGR & RCC_PLLCFGR_PLLSRC) >> 22;
 876:../Libraries/STM32F4xx_StdPeriph_Driver/src/stm32f4xx_rcc.c ****       pllm = RCC->PLLCFGR & RCC_PLLCFGR_PLLM;
 877:../Libraries/STM32F4xx_StdPeriph_Driver/src/stm32f4xx_rcc.c ****       
 878:../Libraries/STM32F4xx_StdPeriph_Driver/src/stm32f4xx_rcc.c ****       if (pllsource != 0)
 879:../Libraries/STM32F4xx_StdPeriph_Driver/src/stm32f4xx_rcc.c ****       {
 880:../Libraries/STM32F4xx_StdPeriph_Driver/src/stm32f4xx_rcc.c ****         /* HSE used as PLL clock source */
 881:../Libraries/STM32F4xx_StdPeriph_Driver/src/stm32f4xx_rcc.c ****         pllvco = (HSE_VALUE / pllm) * ((RCC->PLLCFGR & RCC_PLLCFGR_PLLN) >> 6);
 882:../Libraries/STM32F4xx_StdPeriph_Driver/src/stm32f4xx_rcc.c ****       }
 883:../Libraries/STM32F4xx_StdPeriph_Driver/src/stm32f4xx_rcc.c ****       else
 884:../Libraries/STM32F4xx_StdPeriph_Driver/src/stm32f4xx_rcc.c ****       {
 885:../Libraries/STM32F4xx_StdPeriph_Driver/src/stm32f4xx_rcc.c ****         /* HSI used as PLL clock source */
 886:../Libraries/STM32F4xx_StdPeriph_Driver/src/stm32f4xx_rcc.c ****         pllvco = (HSI_VALUE / pllm) * ((RCC->PLLCFGR & RCC_PLLCFGR_PLLN) >> 6);      
 887:../Libraries/STM32F4xx_StdPeriph_Driver/src/stm32f4xx_rcc.c ****       }
 888:../Libraries/STM32F4xx_StdPeriph_Driver/src/stm32f4xx_rcc.c **** 
 889:../Libraries/STM32F4xx_StdPeriph_Driver/src/stm32f4xx_rcc.c ****       pllp = (((RCC->PLLCFGR & RCC_PLLCFGR_PLLP) >>16) + 1 ) *2;
 890:../Libraries/STM32F4xx_StdPeriph_Driver/src/stm32f4xx_rcc.c ****       RCC_Clocks->SYSCLK_Frequency = pllvco/pllp;
 891:../Libraries/STM32F4xx_StdPeriph_Driver/src/stm32f4xx_rcc.c ****       break;
 892:../Libraries/STM32F4xx_StdPeriph_Driver/src/stm32f4xx_rcc.c ****     default:
 893:../Libraries/STM32F4xx_StdPeriph_Driver/src/stm32f4xx_rcc.c ****       RCC_Clocks->SYSCLK_Frequency = HSI_VALUE;
 894:../Libraries/STM32F4xx_StdPeriph_Driver/src/stm32f4xx_rcc.c ****       break;
 895:../Libraries/STM32F4xx_StdPeriph_Driver/src/stm32f4xx_rcc.c ****   }
 896:../Libraries/STM32F4xx_StdPeriph_Driver/src/stm32f4xx_rcc.c ****   /* Compute HCLK, PCLK1 and PCLK2 clocks frequencies ------------------------*/
 897:../Libraries/STM32F4xx_StdPeriph_Driver/src/stm32f4xx_rcc.c **** 
 898:../Libraries/STM32F4xx_StdPeriph_Driver/src/stm32f4xx_rcc.c ****   /* Get HCLK prescaler */
 899:../Libraries/STM32F4xx_StdPeriph_Driver/src/stm32f4xx_rcc.c ****   tmp = RCC->CFGR & RCC_CFGR_HPRE;
 900:../Libraries/STM32F4xx_StdPeriph_Driver/src/stm32f4xx_rcc.c ****   tmp = tmp >> 4;
 901:../Libraries/STM32F4xx_StdPeriph_Driver/src/stm32f4xx_rcc.c ****   presc = APBAHBPrescTable[tmp];
 902:../Libraries/STM32F4xx_StdPeriph_Driver/src/stm32f4xx_rcc.c ****   /* HCLK clock frequency */
 903:../Libraries/STM32F4xx_StdPeriph_Driver/src/stm32f4xx_rcc.c ****   RCC_Clocks->HCLK_Frequency = RCC_Clocks->SYSCLK_Frequency >> presc;
 904:../Libraries/STM32F4xx_StdPeriph_Driver/src/stm32f4xx_rcc.c **** 
 905:../Libraries/STM32F4xx_StdPeriph_Driver/src/stm32f4xx_rcc.c ****   /* Get PCLK1 prescaler */
 906:../Libraries/STM32F4xx_StdPeriph_Driver/src/stm32f4xx_rcc.c ****   tmp = RCC->CFGR & RCC_CFGR_PPRE1;
 907:../Libraries/STM32F4xx_StdPeriph_Driver/src/stm32f4xx_rcc.c ****   tmp = tmp >> 10;
 908:../Libraries/STM32F4xx_StdPeriph_Driver/src/stm32f4xx_rcc.c ****   presc = APBAHBPrescTable[tmp];
 909:../Libraries/STM32F4xx_StdPeriph_Driver/src/stm32f4xx_rcc.c ****   /* PCLK1 clock frequency */
 910:../Libraries/STM32F4xx_StdPeriph_Driver/src/stm32f4xx_rcc.c ****   RCC_Clocks->PCLK1_Frequency = RCC_Clocks->HCLK_Frequency >> presc;
ARM GAS  C:\Users\admin\AppData\Local\Temp\ccNLmEJ4.s 			page 21


 911:../Libraries/STM32F4xx_StdPeriph_Driver/src/stm32f4xx_rcc.c **** 
 912:../Libraries/STM32F4xx_StdPeriph_Driver/src/stm32f4xx_rcc.c ****   /* Get PCLK2 prescaler */
 913:../Libraries/STM32F4xx_StdPeriph_Driver/src/stm32f4xx_rcc.c ****   tmp = RCC->CFGR & RCC_CFGR_PPRE2;
 914:../Libraries/STM32F4xx_StdPeriph_Driver/src/stm32f4xx_rcc.c ****   tmp = tmp >> 13;
 915:../Libraries/STM32F4xx_StdPeriph_Driver/src/stm32f4xx_rcc.c ****   presc = APBAHBPrescTable[tmp];
 916:../Libraries/STM32F4xx_StdPeriph_Driver/src/stm32f4xx_rcc.c ****   /* PCLK2 clock frequency */
 917:../Libraries/STM32F4xx_StdPeriph_Driver/src/stm32f4xx_rcc.c ****   RCC_Clocks->PCLK2_Frequency = RCC_Clocks->HCLK_Frequency >> presc;
 918:../Libraries/STM32F4xx_StdPeriph_Driver/src/stm32f4xx_rcc.c **** }
 919:../Libraries/STM32F4xx_StdPeriph_Driver/src/stm32f4xx_rcc.c **** 
 920:../Libraries/STM32F4xx_StdPeriph_Driver/src/stm32f4xx_rcc.c **** /**
 921:../Libraries/STM32F4xx_StdPeriph_Driver/src/stm32f4xx_rcc.c ****   * @}
 922:../Libraries/STM32F4xx_StdPeriph_Driver/src/stm32f4xx_rcc.c ****   */
 923:../Libraries/STM32F4xx_StdPeriph_Driver/src/stm32f4xx_rcc.c **** 
 924:../Libraries/STM32F4xx_StdPeriph_Driver/src/stm32f4xx_rcc.c **** /** @defgroup RCC_Group3 Peripheral clocks configuration functions
 925:../Libraries/STM32F4xx_StdPeriph_Driver/src/stm32f4xx_rcc.c ****  *  @brief   Peripheral clocks configuration functions 
 926:../Libraries/STM32F4xx_StdPeriph_Driver/src/stm32f4xx_rcc.c ****  *
 927:../Libraries/STM32F4xx_StdPeriph_Driver/src/stm32f4xx_rcc.c **** @verbatim   
 928:../Libraries/STM32F4xx_StdPeriph_Driver/src/stm32f4xx_rcc.c ****  ===============================================================================
 929:../Libraries/STM32F4xx_StdPeriph_Driver/src/stm32f4xx_rcc.c ****                    Peripheral clocks configuration functions
 930:../Libraries/STM32F4xx_StdPeriph_Driver/src/stm32f4xx_rcc.c ****  ===============================================================================  
 931:../Libraries/STM32F4xx_StdPeriph_Driver/src/stm32f4xx_rcc.c **** 
 932:../Libraries/STM32F4xx_StdPeriph_Driver/src/stm32f4xx_rcc.c ****   This section provide functions allowing to configure the Peripheral clocks. 
 933:../Libraries/STM32F4xx_StdPeriph_Driver/src/stm32f4xx_rcc.c ****   
 934:../Libraries/STM32F4xx_StdPeriph_Driver/src/stm32f4xx_rcc.c ****   1. The RTC clock which is derived from the LSI, LSE or HSE clock divided by 2 to 31.
 935:../Libraries/STM32F4xx_StdPeriph_Driver/src/stm32f4xx_rcc.c ****      
 936:../Libraries/STM32F4xx_StdPeriph_Driver/src/stm32f4xx_rcc.c ****   2. After restart from Reset or wakeup from STANDBY, all peripherals are off
 937:../Libraries/STM32F4xx_StdPeriph_Driver/src/stm32f4xx_rcc.c ****      except internal SRAM, Flash and JTAG. Before to start using a peripheral you
 938:../Libraries/STM32F4xx_StdPeriph_Driver/src/stm32f4xx_rcc.c ****      have to enable its interface clock. You can do this using RCC_AHBPeriphClockCmd()
 939:../Libraries/STM32F4xx_StdPeriph_Driver/src/stm32f4xx_rcc.c ****      , RCC_APB2PeriphClockCmd() and RCC_APB1PeriphClockCmd() functions.
 940:../Libraries/STM32F4xx_StdPeriph_Driver/src/stm32f4xx_rcc.c **** 
 941:../Libraries/STM32F4xx_StdPeriph_Driver/src/stm32f4xx_rcc.c ****   3. To reset the peripherals configuration (to the default state after device reset)
 942:../Libraries/STM32F4xx_StdPeriph_Driver/src/stm32f4xx_rcc.c ****      you can use RCC_AHBPeriphResetCmd(), RCC_APB2PeriphResetCmd() and 
 943:../Libraries/STM32F4xx_StdPeriph_Driver/src/stm32f4xx_rcc.c ****      RCC_APB1PeriphResetCmd() functions.
 944:../Libraries/STM32F4xx_StdPeriph_Driver/src/stm32f4xx_rcc.c ****      
 945:../Libraries/STM32F4xx_StdPeriph_Driver/src/stm32f4xx_rcc.c ****   4. To further reduce power consumption in SLEEP mode the peripheral clocks can
 946:../Libraries/STM32F4xx_StdPeriph_Driver/src/stm32f4xx_rcc.c ****      be disabled prior to executing the WFI or WFE instructions. You can do this
 947:../Libraries/STM32F4xx_StdPeriph_Driver/src/stm32f4xx_rcc.c ****      using RCC_AHBPeriphClockLPModeCmd(), RCC_APB2PeriphClockLPModeCmd() and
 948:../Libraries/STM32F4xx_StdPeriph_Driver/src/stm32f4xx_rcc.c ****      RCC_APB1PeriphClockLPModeCmd() functions.  
 949:../Libraries/STM32F4xx_StdPeriph_Driver/src/stm32f4xx_rcc.c **** 
 950:../Libraries/STM32F4xx_StdPeriph_Driver/src/stm32f4xx_rcc.c **** @endverbatim
 951:../Libraries/STM32F4xx_StdPeriph_Driver/src/stm32f4xx_rcc.c ****   * @{
 952:../Libraries/STM32F4xx_StdPeriph_Driver/src/stm32f4xx_rcc.c ****   */
 953:../Libraries/STM32F4xx_StdPeriph_Driver/src/stm32f4xx_rcc.c **** 
 954:../Libraries/STM32F4xx_StdPeriph_Driver/src/stm32f4xx_rcc.c **** /**
 955:../Libraries/STM32F4xx_StdPeriph_Driver/src/stm32f4xx_rcc.c ****   * @brief  Configures the RTC clock (RTCCLK).
 956:../Libraries/STM32F4xx_StdPeriph_Driver/src/stm32f4xx_rcc.c ****   * @note   As the RTC clock configuration bits are in the Backup domain and write
 957:../Libraries/STM32F4xx_StdPeriph_Driver/src/stm32f4xx_rcc.c ****   *         access is denied to this domain after reset, you have to enable write
 958:../Libraries/STM32F4xx_StdPeriph_Driver/src/stm32f4xx_rcc.c ****   *         access using PWR_BackupAccessCmd(ENABLE) function before to configure
 959:../Libraries/STM32F4xx_StdPeriph_Driver/src/stm32f4xx_rcc.c ****   *         the RTC clock source (to be done once after reset).    
 960:../Libraries/STM32F4xx_StdPeriph_Driver/src/stm32f4xx_rcc.c ****   * @note   Once the RTC clock is configured it can't be changed unless the  
 961:../Libraries/STM32F4xx_StdPeriph_Driver/src/stm32f4xx_rcc.c ****   *         Backup domain is reset using RCC_BackupResetCmd() function, or by
 962:../Libraries/STM32F4xx_StdPeriph_Driver/src/stm32f4xx_rcc.c ****   *         a Power On Reset (POR).
 963:../Libraries/STM32F4xx_StdPeriph_Driver/src/stm32f4xx_rcc.c ****   *    
 964:../Libraries/STM32F4xx_StdPeriph_Driver/src/stm32f4xx_rcc.c ****   * @param  RCC_RTCCLKSource: specifies the RTC clock source.
 965:../Libraries/STM32F4xx_StdPeriph_Driver/src/stm32f4xx_rcc.c ****   *          This parameter can be one of the following values:
 966:../Libraries/STM32F4xx_StdPeriph_Driver/src/stm32f4xx_rcc.c ****   *            @arg RCC_RTCCLKSource_LSE: LSE selected as RTC clock
 967:../Libraries/STM32F4xx_StdPeriph_Driver/src/stm32f4xx_rcc.c ****   *            @arg RCC_RTCCLKSource_LSI: LSI selected as RTC clock
ARM GAS  C:\Users\admin\AppData\Local\Temp\ccNLmEJ4.s 			page 22


 968:../Libraries/STM32F4xx_StdPeriph_Driver/src/stm32f4xx_rcc.c ****   *            @arg RCC_RTCCLKSource_HSE_Divx: HSE clock divided by x selected
 969:../Libraries/STM32F4xx_StdPeriph_Driver/src/stm32f4xx_rcc.c ****   *                                            as RTC clock, where x:[2,31]
 970:../Libraries/STM32F4xx_StdPeriph_Driver/src/stm32f4xx_rcc.c ****   *  
 971:../Libraries/STM32F4xx_StdPeriph_Driver/src/stm32f4xx_rcc.c ****   * @note   If the LSE or LSI is used as RTC clock source, the RTC continues to
 972:../Libraries/STM32F4xx_StdPeriph_Driver/src/stm32f4xx_rcc.c ****   *         work in STOP and STANDBY modes, and can be used as wakeup source.
 973:../Libraries/STM32F4xx_StdPeriph_Driver/src/stm32f4xx_rcc.c ****   *         However, when the HSE clock is used as RTC clock source, the RTC
 974:../Libraries/STM32F4xx_StdPeriph_Driver/src/stm32f4xx_rcc.c ****   *         cannot be used in STOP and STANDBY modes.    
 975:../Libraries/STM32F4xx_StdPeriph_Driver/src/stm32f4xx_rcc.c ****   * @note   The maximum input clock frequency for RTC is 1MHz (when using HSE as
 976:../Libraries/STM32F4xx_StdPeriph_Driver/src/stm32f4xx_rcc.c ****   *         RTC clock source).
 977:../Libraries/STM32F4xx_StdPeriph_Driver/src/stm32f4xx_rcc.c ****   *  
 978:../Libraries/STM32F4xx_StdPeriph_Driver/src/stm32f4xx_rcc.c ****   * @retval None
 979:../Libraries/STM32F4xx_StdPeriph_Driver/src/stm32f4xx_rcc.c ****   */
 980:../Libraries/STM32F4xx_StdPeriph_Driver/src/stm32f4xx_rcc.c **** void RCC_RTCCLKConfig(uint32_t RCC_RTCCLKSource)
 981:../Libraries/STM32F4xx_StdPeriph_Driver/src/stm32f4xx_rcc.c **** {
 982:../Libraries/STM32F4xx_StdPeriph_Driver/src/stm32f4xx_rcc.c ****   uint32_t tmpreg = 0;
 983:../Libraries/STM32F4xx_StdPeriph_Driver/src/stm32f4xx_rcc.c **** 
 984:../Libraries/STM32F4xx_StdPeriph_Driver/src/stm32f4xx_rcc.c ****   /* Check the parameters */
 985:../Libraries/STM32F4xx_StdPeriph_Driver/src/stm32f4xx_rcc.c ****   assert_param(IS_RCC_RTCCLK_SOURCE(RCC_RTCCLKSource));
 986:../Libraries/STM32F4xx_StdPeriph_Driver/src/stm32f4xx_rcc.c **** 
 987:../Libraries/STM32F4xx_StdPeriph_Driver/src/stm32f4xx_rcc.c ****   if ((RCC_RTCCLKSource & 0x00000300) == 0x00000300)
 988:../Libraries/STM32F4xx_StdPeriph_Driver/src/stm32f4xx_rcc.c ****   { /* If HSE is selected as RTC clock source, configure HSE division factor for RTC clock */
 989:../Libraries/STM32F4xx_StdPeriph_Driver/src/stm32f4xx_rcc.c ****     tmpreg = RCC->CFGR;
 990:../Libraries/STM32F4xx_StdPeriph_Driver/src/stm32f4xx_rcc.c **** 
 991:../Libraries/STM32F4xx_StdPeriph_Driver/src/stm32f4xx_rcc.c ****     /* Clear RTCPRE[4:0] bits */
 992:../Libraries/STM32F4xx_StdPeriph_Driver/src/stm32f4xx_rcc.c ****     tmpreg &= ~RCC_CFGR_RTCPRE;
 993:../Libraries/STM32F4xx_StdPeriph_Driver/src/stm32f4xx_rcc.c **** 
 994:../Libraries/STM32F4xx_StdPeriph_Driver/src/stm32f4xx_rcc.c ****     /* Configure HSE division factor for RTC clock */
 995:../Libraries/STM32F4xx_StdPeriph_Driver/src/stm32f4xx_rcc.c ****     tmpreg |= (RCC_RTCCLKSource & 0xFFFFCFF);
 996:../Libraries/STM32F4xx_StdPeriph_Driver/src/stm32f4xx_rcc.c **** 
 997:../Libraries/STM32F4xx_StdPeriph_Driver/src/stm32f4xx_rcc.c ****     /* Store the new value */
 998:../Libraries/STM32F4xx_StdPeriph_Driver/src/stm32f4xx_rcc.c ****     RCC->CFGR = tmpreg;
 999:../Libraries/STM32F4xx_StdPeriph_Driver/src/stm32f4xx_rcc.c ****   }
1000:../Libraries/STM32F4xx_StdPeriph_Driver/src/stm32f4xx_rcc.c ****     
1001:../Libraries/STM32F4xx_StdPeriph_Driver/src/stm32f4xx_rcc.c ****   /* Select the RTC clock source */
1002:../Libraries/STM32F4xx_StdPeriph_Driver/src/stm32f4xx_rcc.c ****   RCC->BDCR |= (RCC_RTCCLKSource & 0x00000FFF);
1003:../Libraries/STM32F4xx_StdPeriph_Driver/src/stm32f4xx_rcc.c **** }
1004:../Libraries/STM32F4xx_StdPeriph_Driver/src/stm32f4xx_rcc.c **** 
1005:../Libraries/STM32F4xx_StdPeriph_Driver/src/stm32f4xx_rcc.c **** /**
1006:../Libraries/STM32F4xx_StdPeriph_Driver/src/stm32f4xx_rcc.c ****   * @brief  Enables or disables the RTC clock.
1007:../Libraries/STM32F4xx_StdPeriph_Driver/src/stm32f4xx_rcc.c ****   * @note   This function must be used only after the RTC clock source was selected
1008:../Libraries/STM32F4xx_StdPeriph_Driver/src/stm32f4xx_rcc.c ****   *         using the RCC_RTCCLKConfig function.
1009:../Libraries/STM32F4xx_StdPeriph_Driver/src/stm32f4xx_rcc.c ****   * @param  NewState: new state of the RTC clock. This parameter can be: ENABLE or DISABLE.
1010:../Libraries/STM32F4xx_StdPeriph_Driver/src/stm32f4xx_rcc.c ****   * @retval None
1011:../Libraries/STM32F4xx_StdPeriph_Driver/src/stm32f4xx_rcc.c ****   */
1012:../Libraries/STM32F4xx_StdPeriph_Driver/src/stm32f4xx_rcc.c **** void RCC_RTCCLKCmd(FunctionalState NewState)
1013:../Libraries/STM32F4xx_StdPeriph_Driver/src/stm32f4xx_rcc.c **** {
1014:../Libraries/STM32F4xx_StdPeriph_Driver/src/stm32f4xx_rcc.c ****   /* Check the parameters */
1015:../Libraries/STM32F4xx_StdPeriph_Driver/src/stm32f4xx_rcc.c ****   assert_param(IS_FUNCTIONAL_STATE(NewState));
1016:../Libraries/STM32F4xx_StdPeriph_Driver/src/stm32f4xx_rcc.c **** 
1017:../Libraries/STM32F4xx_StdPeriph_Driver/src/stm32f4xx_rcc.c ****   *(__IO uint32_t *) BDCR_RTCEN_BB = (uint32_t)NewState;
1018:../Libraries/STM32F4xx_StdPeriph_Driver/src/stm32f4xx_rcc.c **** }
1019:../Libraries/STM32F4xx_StdPeriph_Driver/src/stm32f4xx_rcc.c **** 
1020:../Libraries/STM32F4xx_StdPeriph_Driver/src/stm32f4xx_rcc.c **** /**
1021:../Libraries/STM32F4xx_StdPeriph_Driver/src/stm32f4xx_rcc.c ****   * @brief  Forces or releases the Backup domain reset.
1022:../Libraries/STM32F4xx_StdPeriph_Driver/src/stm32f4xx_rcc.c ****   * @note   This function resets the RTC peripheral (including the backup registers)
1023:../Libraries/STM32F4xx_StdPeriph_Driver/src/stm32f4xx_rcc.c ****   *         and the RTC clock source selection in RCC_CSR register.
1024:../Libraries/STM32F4xx_StdPeriph_Driver/src/stm32f4xx_rcc.c ****   * @note   The BKPSRAM is not affected by this reset.    
ARM GAS  C:\Users\admin\AppData\Local\Temp\ccNLmEJ4.s 			page 23


1025:../Libraries/STM32F4xx_StdPeriph_Driver/src/stm32f4xx_rcc.c ****   * @param  NewState: new state of the Backup domain reset.
1026:../Libraries/STM32F4xx_StdPeriph_Driver/src/stm32f4xx_rcc.c ****   *          This parameter can be: ENABLE or DISABLE.
1027:../Libraries/STM32F4xx_StdPeriph_Driver/src/stm32f4xx_rcc.c ****   * @retval None
1028:../Libraries/STM32F4xx_StdPeriph_Driver/src/stm32f4xx_rcc.c ****   */
1029:../Libraries/STM32F4xx_StdPeriph_Driver/src/stm32f4xx_rcc.c **** void RCC_BackupResetCmd(FunctionalState NewState)
1030:../Libraries/STM32F4xx_StdPeriph_Driver/src/stm32f4xx_rcc.c **** {
1031:../Libraries/STM32F4xx_StdPeriph_Driver/src/stm32f4xx_rcc.c ****   /* Check the parameters */
1032:../Libraries/STM32F4xx_StdPeriph_Driver/src/stm32f4xx_rcc.c ****   assert_param(IS_FUNCTIONAL_STATE(NewState));
1033:../Libraries/STM32F4xx_StdPeriph_Driver/src/stm32f4xx_rcc.c ****   *(__IO uint32_t *) BDCR_BDRST_BB = (uint32_t)NewState;
1034:../Libraries/STM32F4xx_StdPeriph_Driver/src/stm32f4xx_rcc.c **** }
1035:../Libraries/STM32F4xx_StdPeriph_Driver/src/stm32f4xx_rcc.c **** 
1036:../Libraries/STM32F4xx_StdPeriph_Driver/src/stm32f4xx_rcc.c **** /**
1037:../Libraries/STM32F4xx_StdPeriph_Driver/src/stm32f4xx_rcc.c ****   * @brief  Configures the I2S clock source (I2SCLK).
1038:../Libraries/STM32F4xx_StdPeriph_Driver/src/stm32f4xx_rcc.c ****   * @note   This function must be called before enabling the I2S APB clock.
1039:../Libraries/STM32F4xx_StdPeriph_Driver/src/stm32f4xx_rcc.c ****   * @param  RCC_I2SCLKSource: specifies the I2S clock source.
1040:../Libraries/STM32F4xx_StdPeriph_Driver/src/stm32f4xx_rcc.c ****   *          This parameter can be one of the following values:
1041:../Libraries/STM32F4xx_StdPeriph_Driver/src/stm32f4xx_rcc.c ****   *            @arg RCC_I2S2CLKSource_PLLI2S: PLLI2S clock used as I2S clock source
1042:../Libraries/STM32F4xx_StdPeriph_Driver/src/stm32f4xx_rcc.c ****   *            @arg RCC_I2S2CLKSource_Ext: External clock mapped on the I2S_CKIN pin
1043:../Libraries/STM32F4xx_StdPeriph_Driver/src/stm32f4xx_rcc.c ****   *                                        used as I2S clock source
1044:../Libraries/STM32F4xx_StdPeriph_Driver/src/stm32f4xx_rcc.c ****   * @retval None
1045:../Libraries/STM32F4xx_StdPeriph_Driver/src/stm32f4xx_rcc.c ****   */
1046:../Libraries/STM32F4xx_StdPeriph_Driver/src/stm32f4xx_rcc.c **** void RCC_I2SCLKConfig(uint32_t RCC_I2SCLKSource)
1047:../Libraries/STM32F4xx_StdPeriph_Driver/src/stm32f4xx_rcc.c **** {
1048:../Libraries/STM32F4xx_StdPeriph_Driver/src/stm32f4xx_rcc.c ****   /* Check the parameters */
1049:../Libraries/STM32F4xx_StdPeriph_Driver/src/stm32f4xx_rcc.c ****   assert_param(IS_RCC_I2SCLK_SOURCE(RCC_I2SCLKSource));
1050:../Libraries/STM32F4xx_StdPeriph_Driver/src/stm32f4xx_rcc.c **** 
1051:../Libraries/STM32F4xx_StdPeriph_Driver/src/stm32f4xx_rcc.c ****   *(__IO uint32_t *) CFGR_I2SSRC_BB = RCC_I2SCLKSource;
1052:../Libraries/STM32F4xx_StdPeriph_Driver/src/stm32f4xx_rcc.c **** }
1053:../Libraries/STM32F4xx_StdPeriph_Driver/src/stm32f4xx_rcc.c **** 
1054:../Libraries/STM32F4xx_StdPeriph_Driver/src/stm32f4xx_rcc.c **** /**
1055:../Libraries/STM32F4xx_StdPeriph_Driver/src/stm32f4xx_rcc.c ****   * @brief  Enables or disables the AHB1 peripheral clock.
1056:../Libraries/STM32F4xx_StdPeriph_Driver/src/stm32f4xx_rcc.c ****   * @note   After reset, the peripheral clock (used for registers read/write access)
1057:../Libraries/STM32F4xx_StdPeriph_Driver/src/stm32f4xx_rcc.c ****   *         is disabled and the application software has to enable this clock before 
1058:../Libraries/STM32F4xx_StdPeriph_Driver/src/stm32f4xx_rcc.c ****   *         using it.   
1059:../Libraries/STM32F4xx_StdPeriph_Driver/src/stm32f4xx_rcc.c ****   * @param  RCC_AHBPeriph: specifies the AHB1 peripheral to gates its clock.
1060:../Libraries/STM32F4xx_StdPeriph_Driver/src/stm32f4xx_rcc.c ****   *          This parameter can be any combination of the following values:
1061:../Libraries/STM32F4xx_StdPeriph_Driver/src/stm32f4xx_rcc.c ****   *            @arg RCC_AHB1Periph_GPIOA:       GPIOA clock
1062:../Libraries/STM32F4xx_StdPeriph_Driver/src/stm32f4xx_rcc.c ****   *            @arg RCC_AHB1Periph_GPIOB:       GPIOB clock 
1063:../Libraries/STM32F4xx_StdPeriph_Driver/src/stm32f4xx_rcc.c ****   *            @arg RCC_AHB1Periph_GPIOC:       GPIOC clock
1064:../Libraries/STM32F4xx_StdPeriph_Driver/src/stm32f4xx_rcc.c ****   *            @arg RCC_AHB1Periph_GPIOD:       GPIOD clock
1065:../Libraries/STM32F4xx_StdPeriph_Driver/src/stm32f4xx_rcc.c ****   *            @arg RCC_AHB1Periph_GPIOE:       GPIOE clock
1066:../Libraries/STM32F4xx_StdPeriph_Driver/src/stm32f4xx_rcc.c ****   *            @arg RCC_AHB1Periph_GPIOF:       GPIOF clock
1067:../Libraries/STM32F4xx_StdPeriph_Driver/src/stm32f4xx_rcc.c ****   *            @arg RCC_AHB1Periph_GPIOG:       GPIOG clock
1068:../Libraries/STM32F4xx_StdPeriph_Driver/src/stm32f4xx_rcc.c ****   *            @arg RCC_AHB1Periph_GPIOG:       GPIOG clock
1069:../Libraries/STM32F4xx_StdPeriph_Driver/src/stm32f4xx_rcc.c ****   *            @arg RCC_AHB1Periph_GPIOI:       GPIOI clock
1070:../Libraries/STM32F4xx_StdPeriph_Driver/src/stm32f4xx_rcc.c ****   *            @arg RCC_AHB1Periph_CRC:         CRC clock
1071:../Libraries/STM32F4xx_StdPeriph_Driver/src/stm32f4xx_rcc.c ****   *            @arg RCC_AHB1Periph_BKPSRAM:     BKPSRAM interface clock
1072:../Libraries/STM32F4xx_StdPeriph_Driver/src/stm32f4xx_rcc.c ****   *            @arg RCC_AHB1Periph_CCMDATARAMEN CCM data RAM interface clock
1073:../Libraries/STM32F4xx_StdPeriph_Driver/src/stm32f4xx_rcc.c ****   *            @arg RCC_AHB1Periph_DMA1:        DMA1 clock
1074:../Libraries/STM32F4xx_StdPeriph_Driver/src/stm32f4xx_rcc.c ****   *            @arg RCC_AHB1Periph_DMA2:        DMA2 clock
1075:../Libraries/STM32F4xx_StdPeriph_Driver/src/stm32f4xx_rcc.c ****   *            @arg RCC_AHB1Periph_ETH_MAC:     Ethernet MAC clock
1076:../Libraries/STM32F4xx_StdPeriph_Driver/src/stm32f4xx_rcc.c ****   *            @arg RCC_AHB1Periph_ETH_MAC_Tx:  Ethernet Transmission clock
1077:../Libraries/STM32F4xx_StdPeriph_Driver/src/stm32f4xx_rcc.c ****   *            @arg RCC_AHB1Periph_ETH_MAC_Rx:  Ethernet Reception clock
1078:../Libraries/STM32F4xx_StdPeriph_Driver/src/stm32f4xx_rcc.c ****   *            @arg RCC_AHB1Periph_ETH_MAC_PTP: Ethernet PTP clock
1079:../Libraries/STM32F4xx_StdPeriph_Driver/src/stm32f4xx_rcc.c ****   *            @arg RCC_AHB1Periph_OTG_HS:      USB OTG HS clock
1080:../Libraries/STM32F4xx_StdPeriph_Driver/src/stm32f4xx_rcc.c ****   *            @arg RCC_AHB1Periph_OTG_HS_ULPI: USB OTG HS ULPI clock
1081:../Libraries/STM32F4xx_StdPeriph_Driver/src/stm32f4xx_rcc.c ****   * @param  NewState: new state of the specified peripheral clock.
ARM GAS  C:\Users\admin\AppData\Local\Temp\ccNLmEJ4.s 			page 24


1082:../Libraries/STM32F4xx_StdPeriph_Driver/src/stm32f4xx_rcc.c ****   *          This parameter can be: ENABLE or DISABLE.
1083:../Libraries/STM32F4xx_StdPeriph_Driver/src/stm32f4xx_rcc.c ****   * @retval None
1084:../Libraries/STM32F4xx_StdPeriph_Driver/src/stm32f4xx_rcc.c ****   */
1085:../Libraries/STM32F4xx_StdPeriph_Driver/src/stm32f4xx_rcc.c **** void RCC_AHB1PeriphClockCmd(uint32_t RCC_AHB1Periph, FunctionalState NewState)
1086:../Libraries/STM32F4xx_StdPeriph_Driver/src/stm32f4xx_rcc.c **** {
1087:../Libraries/STM32F4xx_StdPeriph_Driver/src/stm32f4xx_rcc.c ****   /* Check the parameters */
1088:../Libraries/STM32F4xx_StdPeriph_Driver/src/stm32f4xx_rcc.c ****   assert_param(IS_RCC_AHB1_CLOCK_PERIPH(RCC_AHB1Periph));
1089:../Libraries/STM32F4xx_StdPeriph_Driver/src/stm32f4xx_rcc.c **** 
1090:../Libraries/STM32F4xx_StdPeriph_Driver/src/stm32f4xx_rcc.c ****   assert_param(IS_FUNCTIONAL_STATE(NewState));
1091:../Libraries/STM32F4xx_StdPeriph_Driver/src/stm32f4xx_rcc.c ****   if (NewState != DISABLE)
1092:../Libraries/STM32F4xx_StdPeriph_Driver/src/stm32f4xx_rcc.c ****   {
1093:../Libraries/STM32F4xx_StdPeriph_Driver/src/stm32f4xx_rcc.c ****     RCC->AHB1ENR |= RCC_AHB1Periph;
1094:../Libraries/STM32F4xx_StdPeriph_Driver/src/stm32f4xx_rcc.c ****   }
1095:../Libraries/STM32F4xx_StdPeriph_Driver/src/stm32f4xx_rcc.c ****   else
1096:../Libraries/STM32F4xx_StdPeriph_Driver/src/stm32f4xx_rcc.c ****   {
1097:../Libraries/STM32F4xx_StdPeriph_Driver/src/stm32f4xx_rcc.c ****     RCC->AHB1ENR &= ~RCC_AHB1Periph;
1098:../Libraries/STM32F4xx_StdPeriph_Driver/src/stm32f4xx_rcc.c ****   }
1099:../Libraries/STM32F4xx_StdPeriph_Driver/src/stm32f4xx_rcc.c **** }
1100:../Libraries/STM32F4xx_StdPeriph_Driver/src/stm32f4xx_rcc.c **** 
1101:../Libraries/STM32F4xx_StdPeriph_Driver/src/stm32f4xx_rcc.c **** /**
1102:../Libraries/STM32F4xx_StdPeriph_Driver/src/stm32f4xx_rcc.c ****   * @brief  Enables or disables the AHB2 peripheral clock.
1103:../Libraries/STM32F4xx_StdPeriph_Driver/src/stm32f4xx_rcc.c ****   * @note   After reset, the peripheral clock (used for registers read/write access)
1104:../Libraries/STM32F4xx_StdPeriph_Driver/src/stm32f4xx_rcc.c ****   *         is disabled and the application software has to enable this clock before 
1105:../Libraries/STM32F4xx_StdPeriph_Driver/src/stm32f4xx_rcc.c ****   *         using it. 
1106:../Libraries/STM32F4xx_StdPeriph_Driver/src/stm32f4xx_rcc.c ****   * @param  RCC_AHBPeriph: specifies the AHB2 peripheral to gates its clock.
1107:../Libraries/STM32F4xx_StdPeriph_Driver/src/stm32f4xx_rcc.c ****   *          This parameter can be any combination of the following values:
1108:../Libraries/STM32F4xx_StdPeriph_Driver/src/stm32f4xx_rcc.c ****   *            @arg RCC_AHB2Periph_DCMI:   DCMI clock
1109:../Libraries/STM32F4xx_StdPeriph_Driver/src/stm32f4xx_rcc.c ****   *            @arg RCC_AHB2Periph_CRYP:   CRYP clock
1110:../Libraries/STM32F4xx_StdPeriph_Driver/src/stm32f4xx_rcc.c ****   *            @arg RCC_AHB2Periph_HASH:   HASH clock
1111:../Libraries/STM32F4xx_StdPeriph_Driver/src/stm32f4xx_rcc.c ****   *            @arg RCC_AHB2Periph_RNG:    RNG clock
1112:../Libraries/STM32F4xx_StdPeriph_Driver/src/stm32f4xx_rcc.c ****   *            @arg RCC_AHB2Periph_OTG_FS: USB OTG FS clock
1113:../Libraries/STM32F4xx_StdPeriph_Driver/src/stm32f4xx_rcc.c ****   * @param  NewState: new state of the specified peripheral clock.
1114:../Libraries/STM32F4xx_StdPeriph_Driver/src/stm32f4xx_rcc.c ****   *          This parameter can be: ENABLE or DISABLE.
1115:../Libraries/STM32F4xx_StdPeriph_Driver/src/stm32f4xx_rcc.c ****   * @retval None
1116:../Libraries/STM32F4xx_StdPeriph_Driver/src/stm32f4xx_rcc.c ****   */
1117:../Libraries/STM32F4xx_StdPeriph_Driver/src/stm32f4xx_rcc.c **** void RCC_AHB2PeriphClockCmd(uint32_t RCC_AHB2Periph, FunctionalState NewState)
1118:../Libraries/STM32F4xx_StdPeriph_Driver/src/stm32f4xx_rcc.c **** {
1119:../Libraries/STM32F4xx_StdPeriph_Driver/src/stm32f4xx_rcc.c ****   /* Check the parameters */
1120:../Libraries/STM32F4xx_StdPeriph_Driver/src/stm32f4xx_rcc.c ****   assert_param(IS_RCC_AHB2_PERIPH(RCC_AHB2Periph));
1121:../Libraries/STM32F4xx_StdPeriph_Driver/src/stm32f4xx_rcc.c ****   assert_param(IS_FUNCTIONAL_STATE(NewState));
1122:../Libraries/STM32F4xx_StdPeriph_Driver/src/stm32f4xx_rcc.c **** 
1123:../Libraries/STM32F4xx_StdPeriph_Driver/src/stm32f4xx_rcc.c ****   if (NewState != DISABLE)
1124:../Libraries/STM32F4xx_StdPeriph_Driver/src/stm32f4xx_rcc.c ****   {
1125:../Libraries/STM32F4xx_StdPeriph_Driver/src/stm32f4xx_rcc.c ****     RCC->AHB2ENR |= RCC_AHB2Periph;
1126:../Libraries/STM32F4xx_StdPeriph_Driver/src/stm32f4xx_rcc.c ****   }
1127:../Libraries/STM32F4xx_StdPeriph_Driver/src/stm32f4xx_rcc.c ****   else
1128:../Libraries/STM32F4xx_StdPeriph_Driver/src/stm32f4xx_rcc.c ****   {
1129:../Libraries/STM32F4xx_StdPeriph_Driver/src/stm32f4xx_rcc.c ****     RCC->AHB2ENR &= ~RCC_AHB2Periph;
1130:../Libraries/STM32F4xx_StdPeriph_Driver/src/stm32f4xx_rcc.c ****   }
1131:../Libraries/STM32F4xx_StdPeriph_Driver/src/stm32f4xx_rcc.c **** }
1132:../Libraries/STM32F4xx_StdPeriph_Driver/src/stm32f4xx_rcc.c **** 
1133:../Libraries/STM32F4xx_StdPeriph_Driver/src/stm32f4xx_rcc.c **** /**
1134:../Libraries/STM32F4xx_StdPeriph_Driver/src/stm32f4xx_rcc.c ****   * @brief  Enables or disables the AHB3 peripheral clock.
1135:../Libraries/STM32F4xx_StdPeriph_Driver/src/stm32f4xx_rcc.c ****   * @note   After reset, the peripheral clock (used for registers read/write access)
1136:../Libraries/STM32F4xx_StdPeriph_Driver/src/stm32f4xx_rcc.c ****   *         is disabled and the application software has to enable this clock before 
1137:../Libraries/STM32F4xx_StdPeriph_Driver/src/stm32f4xx_rcc.c ****   *         using it. 
1138:../Libraries/STM32F4xx_StdPeriph_Driver/src/stm32f4xx_rcc.c ****   * @param  RCC_AHBPeriph: specifies the AHB3 peripheral to gates its clock.
ARM GAS  C:\Users\admin\AppData\Local\Temp\ccNLmEJ4.s 			page 25


1139:../Libraries/STM32F4xx_StdPeriph_Driver/src/stm32f4xx_rcc.c ****   *          This parameter must be: RCC_AHB3Periph_FSMC
1140:../Libraries/STM32F4xx_StdPeriph_Driver/src/stm32f4xx_rcc.c ****   * @param  NewState: new state of the specified peripheral clock.
1141:../Libraries/STM32F4xx_StdPeriph_Driver/src/stm32f4xx_rcc.c ****   *          This parameter can be: ENABLE or DISABLE.
1142:../Libraries/STM32F4xx_StdPeriph_Driver/src/stm32f4xx_rcc.c ****   * @retval None
1143:../Libraries/STM32F4xx_StdPeriph_Driver/src/stm32f4xx_rcc.c ****   */
1144:../Libraries/STM32F4xx_StdPeriph_Driver/src/stm32f4xx_rcc.c **** void RCC_AHB3PeriphClockCmd(uint32_t RCC_AHB3Periph, FunctionalState NewState)
1145:../Libraries/STM32F4xx_StdPeriph_Driver/src/stm32f4xx_rcc.c **** {
1146:../Libraries/STM32F4xx_StdPeriph_Driver/src/stm32f4xx_rcc.c ****   /* Check the parameters */
1147:../Libraries/STM32F4xx_StdPeriph_Driver/src/stm32f4xx_rcc.c ****   assert_param(IS_RCC_AHB3_PERIPH(RCC_AHB3Periph));  
1148:../Libraries/STM32F4xx_StdPeriph_Driver/src/stm32f4xx_rcc.c ****   assert_param(IS_FUNCTIONAL_STATE(NewState));
1149:../Libraries/STM32F4xx_StdPeriph_Driver/src/stm32f4xx_rcc.c **** 
1150:../Libraries/STM32F4xx_StdPeriph_Driver/src/stm32f4xx_rcc.c ****   if (NewState != DISABLE)
1151:../Libraries/STM32F4xx_StdPeriph_Driver/src/stm32f4xx_rcc.c ****   {
1152:../Libraries/STM32F4xx_StdPeriph_Driver/src/stm32f4xx_rcc.c ****     RCC->AHB3ENR |= RCC_AHB3Periph;
1153:../Libraries/STM32F4xx_StdPeriph_Driver/src/stm32f4xx_rcc.c ****   }
1154:../Libraries/STM32F4xx_StdPeriph_Driver/src/stm32f4xx_rcc.c ****   else
1155:../Libraries/STM32F4xx_StdPeriph_Driver/src/stm32f4xx_rcc.c ****   {
1156:../Libraries/STM32F4xx_StdPeriph_Driver/src/stm32f4xx_rcc.c ****     RCC->AHB3ENR &= ~RCC_AHB3Periph;
1157:../Libraries/STM32F4xx_StdPeriph_Driver/src/stm32f4xx_rcc.c ****   }
1158:../Libraries/STM32F4xx_StdPeriph_Driver/src/stm32f4xx_rcc.c **** }
1159:../Libraries/STM32F4xx_StdPeriph_Driver/src/stm32f4xx_rcc.c **** 
1160:../Libraries/STM32F4xx_StdPeriph_Driver/src/stm32f4xx_rcc.c **** /**
1161:../Libraries/STM32F4xx_StdPeriph_Driver/src/stm32f4xx_rcc.c ****   * @brief  Enables or disables the Low Speed APB (APB1) peripheral clock.
1162:../Libraries/STM32F4xx_StdPeriph_Driver/src/stm32f4xx_rcc.c ****   * @note   After reset, the peripheral clock (used for registers read/write access)
1163:../Libraries/STM32F4xx_StdPeriph_Driver/src/stm32f4xx_rcc.c ****   *         is disabled and the application software has to enable this clock before 
1164:../Libraries/STM32F4xx_StdPeriph_Driver/src/stm32f4xx_rcc.c ****   *         using it. 
1165:../Libraries/STM32F4xx_StdPeriph_Driver/src/stm32f4xx_rcc.c ****   * @param  RCC_APB1Periph: specifies the APB1 peripheral to gates its clock.
1166:../Libraries/STM32F4xx_StdPeriph_Driver/src/stm32f4xx_rcc.c ****   *          This parameter can be any combination of the following values:
1167:../Libraries/STM32F4xx_StdPeriph_Driver/src/stm32f4xx_rcc.c ****   *            @arg RCC_APB1Periph_TIM2:   TIM2 clock
1168:../Libraries/STM32F4xx_StdPeriph_Driver/src/stm32f4xx_rcc.c ****   *            @arg RCC_APB1Periph_TIM3:   TIM3 clock
1169:../Libraries/STM32F4xx_StdPeriph_Driver/src/stm32f4xx_rcc.c ****   *            @arg RCC_APB1Periph_TIM4:   TIM4 clock
1170:../Libraries/STM32F4xx_StdPeriph_Driver/src/stm32f4xx_rcc.c ****   *            @arg RCC_APB1Periph_TIM5:   TIM5 clock
1171:../Libraries/STM32F4xx_StdPeriph_Driver/src/stm32f4xx_rcc.c ****   *            @arg RCC_APB1Periph_TIM6:   TIM6 clock
1172:../Libraries/STM32F4xx_StdPeriph_Driver/src/stm32f4xx_rcc.c ****   *            @arg RCC_APB1Periph_TIM7:   TIM7 clock
1173:../Libraries/STM32F4xx_StdPeriph_Driver/src/stm32f4xx_rcc.c ****   *            @arg RCC_APB1Periph_TIM12:  TIM12 clock
1174:../Libraries/STM32F4xx_StdPeriph_Driver/src/stm32f4xx_rcc.c ****   *            @arg RCC_APB1Periph_TIM13:  TIM13 clock
1175:../Libraries/STM32F4xx_StdPeriph_Driver/src/stm32f4xx_rcc.c ****   *            @arg RCC_APB1Periph_TIM14:  TIM14 clock
1176:../Libraries/STM32F4xx_StdPeriph_Driver/src/stm32f4xx_rcc.c ****   *            @arg RCC_APB1Periph_WWDG:   WWDG clock
1177:../Libraries/STM32F4xx_StdPeriph_Driver/src/stm32f4xx_rcc.c ****   *            @arg RCC_APB1Periph_SPI2:   SPI2 clock
1178:../Libraries/STM32F4xx_StdPeriph_Driver/src/stm32f4xx_rcc.c ****   *            @arg RCC_APB1Periph_SPI3:   SPI3 clock
1179:../Libraries/STM32F4xx_StdPeriph_Driver/src/stm32f4xx_rcc.c ****   *            @arg RCC_APB1Periph_USART2: USART2 clock
1180:../Libraries/STM32F4xx_StdPeriph_Driver/src/stm32f4xx_rcc.c ****   *            @arg RCC_APB1Periph_USART3: USART3 clock
1181:../Libraries/STM32F4xx_StdPeriph_Driver/src/stm32f4xx_rcc.c ****   *            @arg RCC_APB1Periph_UART4:  UART4 clock
1182:../Libraries/STM32F4xx_StdPeriph_Driver/src/stm32f4xx_rcc.c ****   *            @arg RCC_APB1Periph_UART5:  UART5 clock
1183:../Libraries/STM32F4xx_StdPeriph_Driver/src/stm32f4xx_rcc.c ****   *            @arg RCC_APB1Periph_I2C1:   I2C1 clock
1184:../Libraries/STM32F4xx_StdPeriph_Driver/src/stm32f4xx_rcc.c ****   *            @arg RCC_APB1Periph_I2C2:   I2C2 clock
1185:../Libraries/STM32F4xx_StdPeriph_Driver/src/stm32f4xx_rcc.c ****   *            @arg RCC_APB1Periph_I2C3:   I2C3 clock
1186:../Libraries/STM32F4xx_StdPeriph_Driver/src/stm32f4xx_rcc.c ****   *            @arg RCC_APB1Periph_CAN1:   CAN1 clock
1187:../Libraries/STM32F4xx_StdPeriph_Driver/src/stm32f4xx_rcc.c ****   *            @arg RCC_APB1Periph_CAN2:   CAN2 clock
1188:../Libraries/STM32F4xx_StdPeriph_Driver/src/stm32f4xx_rcc.c ****   *            @arg RCC_APB1Periph_PWR:    PWR clock
1189:../Libraries/STM32F4xx_StdPeriph_Driver/src/stm32f4xx_rcc.c ****   *            @arg RCC_APB1Periph_DAC:    DAC clock
1190:../Libraries/STM32F4xx_StdPeriph_Driver/src/stm32f4xx_rcc.c ****   * @param  NewState: new state of the specified peripheral clock.
1191:../Libraries/STM32F4xx_StdPeriph_Driver/src/stm32f4xx_rcc.c ****   *          This parameter can be: ENABLE or DISABLE.
1192:../Libraries/STM32F4xx_StdPeriph_Driver/src/stm32f4xx_rcc.c ****   * @retval None
1193:../Libraries/STM32F4xx_StdPeriph_Driver/src/stm32f4xx_rcc.c ****   */
1194:../Libraries/STM32F4xx_StdPeriph_Driver/src/stm32f4xx_rcc.c **** void RCC_APB1PeriphClockCmd(uint32_t RCC_APB1Periph, FunctionalState NewState)
1195:../Libraries/STM32F4xx_StdPeriph_Driver/src/stm32f4xx_rcc.c **** {
ARM GAS  C:\Users\admin\AppData\Local\Temp\ccNLmEJ4.s 			page 26


1196:../Libraries/STM32F4xx_StdPeriph_Driver/src/stm32f4xx_rcc.c ****   /* Check the parameters */
1197:../Libraries/STM32F4xx_StdPeriph_Driver/src/stm32f4xx_rcc.c ****   assert_param(IS_RCC_APB1_PERIPH(RCC_APB1Periph));  
1198:../Libraries/STM32F4xx_StdPeriph_Driver/src/stm32f4xx_rcc.c ****   assert_param(IS_FUNCTIONAL_STATE(NewState));
1199:../Libraries/STM32F4xx_StdPeriph_Driver/src/stm32f4xx_rcc.c **** 
1200:../Libraries/STM32F4xx_StdPeriph_Driver/src/stm32f4xx_rcc.c ****   if (NewState != DISABLE)
1201:../Libraries/STM32F4xx_StdPeriph_Driver/src/stm32f4xx_rcc.c ****   {
1202:../Libraries/STM32F4xx_StdPeriph_Driver/src/stm32f4xx_rcc.c ****     RCC->APB1ENR |= RCC_APB1Periph;
1203:../Libraries/STM32F4xx_StdPeriph_Driver/src/stm32f4xx_rcc.c ****   }
1204:../Libraries/STM32F4xx_StdPeriph_Driver/src/stm32f4xx_rcc.c ****   else
1205:../Libraries/STM32F4xx_StdPeriph_Driver/src/stm32f4xx_rcc.c ****   {
1206:../Libraries/STM32F4xx_StdPeriph_Driver/src/stm32f4xx_rcc.c ****     RCC->APB1ENR &= ~RCC_APB1Periph;
1207:../Libraries/STM32F4xx_StdPeriph_Driver/src/stm32f4xx_rcc.c ****   }
1208:../Libraries/STM32F4xx_StdPeriph_Driver/src/stm32f4xx_rcc.c **** }
1209:../Libraries/STM32F4xx_StdPeriph_Driver/src/stm32f4xx_rcc.c **** 
1210:../Libraries/STM32F4xx_StdPeriph_Driver/src/stm32f4xx_rcc.c **** /**
1211:../Libraries/STM32F4xx_StdPeriph_Driver/src/stm32f4xx_rcc.c ****   * @brief  Enables or disables the High Speed APB (APB2) peripheral clock.
1212:../Libraries/STM32F4xx_StdPeriph_Driver/src/stm32f4xx_rcc.c ****   * @note   After reset, the peripheral clock (used for registers read/write access)
1213:../Libraries/STM32F4xx_StdPeriph_Driver/src/stm32f4xx_rcc.c ****   *         is disabled and the application software has to enable this clock before 
1214:../Libraries/STM32F4xx_StdPeriph_Driver/src/stm32f4xx_rcc.c ****   *         using it.
1215:../Libraries/STM32F4xx_StdPeriph_Driver/src/stm32f4xx_rcc.c ****   * @param  RCC_APB2Periph: specifies the APB2 peripheral to gates its clock.
1216:../Libraries/STM32F4xx_StdPeriph_Driver/src/stm32f4xx_rcc.c ****   *          This parameter can be any combination of the following values:
1217:../Libraries/STM32F4xx_StdPeriph_Driver/src/stm32f4xx_rcc.c ****   *            @arg RCC_APB2Periph_TIM1:   TIM1 clock
1218:../Libraries/STM32F4xx_StdPeriph_Driver/src/stm32f4xx_rcc.c ****   *            @arg RCC_APB2Periph_TIM8:   TIM8 clock
1219:../Libraries/STM32F4xx_StdPeriph_Driver/src/stm32f4xx_rcc.c ****   *            @arg RCC_APB2Periph_USART1: USART1 clock
1220:../Libraries/STM32F4xx_StdPeriph_Driver/src/stm32f4xx_rcc.c ****   *            @arg RCC_APB2Periph_USART6: USART6 clock
1221:../Libraries/STM32F4xx_StdPeriph_Driver/src/stm32f4xx_rcc.c ****   *            @arg RCC_APB2Periph_ADC1:   ADC1 clock
1222:../Libraries/STM32F4xx_StdPeriph_Driver/src/stm32f4xx_rcc.c ****   *            @arg RCC_APB2Periph_ADC2:   ADC2 clock
1223:../Libraries/STM32F4xx_StdPeriph_Driver/src/stm32f4xx_rcc.c ****   *            @arg RCC_APB2Periph_ADC3:   ADC3 clock
1224:../Libraries/STM32F4xx_StdPeriph_Driver/src/stm32f4xx_rcc.c ****   *            @arg RCC_APB2Periph_SDIO:   SDIO clock
1225:../Libraries/STM32F4xx_StdPeriph_Driver/src/stm32f4xx_rcc.c ****   *            @arg RCC_APB2Periph_SPI1:   SPI1 clock
1226:../Libraries/STM32F4xx_StdPeriph_Driver/src/stm32f4xx_rcc.c ****   *            @arg RCC_APB2Periph_SYSCFG: SYSCFG clock
1227:../Libraries/STM32F4xx_StdPeriph_Driver/src/stm32f4xx_rcc.c ****   *            @arg RCC_APB2Periph_TIM9:   TIM9 clock
1228:../Libraries/STM32F4xx_StdPeriph_Driver/src/stm32f4xx_rcc.c ****   *            @arg RCC_APB2Periph_TIM10:  TIM10 clock
1229:../Libraries/STM32F4xx_StdPeriph_Driver/src/stm32f4xx_rcc.c ****   *            @arg RCC_APB2Periph_TIM11:  TIM11 clock
1230:../Libraries/STM32F4xx_StdPeriph_Driver/src/stm32f4xx_rcc.c ****   * @param  NewState: new state of the specified peripheral clock.
1231:../Libraries/STM32F4xx_StdPeriph_Driver/src/stm32f4xx_rcc.c ****   *          This parameter can be: ENABLE or DISABLE.
1232:../Libraries/STM32F4xx_StdPeriph_Driver/src/stm32f4xx_rcc.c ****   * @retval None
1233:../Libraries/STM32F4xx_StdPeriph_Driver/src/stm32f4xx_rcc.c ****   */
1234:../Libraries/STM32F4xx_StdPeriph_Driver/src/stm32f4xx_rcc.c **** void RCC_APB2PeriphClockCmd(uint32_t RCC_APB2Periph, FunctionalState NewState)
1235:../Libraries/STM32F4xx_StdPeriph_Driver/src/stm32f4xx_rcc.c **** {
1236:../Libraries/STM32F4xx_StdPeriph_Driver/src/stm32f4xx_rcc.c ****   /* Check the parameters */
1237:../Libraries/STM32F4xx_StdPeriph_Driver/src/stm32f4xx_rcc.c ****   assert_param(IS_RCC_APB2_PERIPH(RCC_APB2Periph));
1238:../Libraries/STM32F4xx_StdPeriph_Driver/src/stm32f4xx_rcc.c ****   assert_param(IS_FUNCTIONAL_STATE(NewState));
1239:../Libraries/STM32F4xx_StdPeriph_Driver/src/stm32f4xx_rcc.c **** 
1240:../Libraries/STM32F4xx_StdPeriph_Driver/src/stm32f4xx_rcc.c ****   if (NewState != DISABLE)
1241:../Libraries/STM32F4xx_StdPeriph_Driver/src/stm32f4xx_rcc.c ****   {
1242:../Libraries/STM32F4xx_StdPeriph_Driver/src/stm32f4xx_rcc.c ****     RCC->APB2ENR |= RCC_APB2Periph;
1243:../Libraries/STM32F4xx_StdPeriph_Driver/src/stm32f4xx_rcc.c ****   }
1244:../Libraries/STM32F4xx_StdPeriph_Driver/src/stm32f4xx_rcc.c ****   else
1245:../Libraries/STM32F4xx_StdPeriph_Driver/src/stm32f4xx_rcc.c ****   {
1246:../Libraries/STM32F4xx_StdPeriph_Driver/src/stm32f4xx_rcc.c ****     RCC->APB2ENR &= ~RCC_APB2Periph;
1247:../Libraries/STM32F4xx_StdPeriph_Driver/src/stm32f4xx_rcc.c ****   }
1248:../Libraries/STM32F4xx_StdPeriph_Driver/src/stm32f4xx_rcc.c **** }
1249:../Libraries/STM32F4xx_StdPeriph_Driver/src/stm32f4xx_rcc.c **** 
1250:../Libraries/STM32F4xx_StdPeriph_Driver/src/stm32f4xx_rcc.c **** /**
1251:../Libraries/STM32F4xx_StdPeriph_Driver/src/stm32f4xx_rcc.c ****   * @brief  Forces or releases AHB1 peripheral reset.
1252:../Libraries/STM32F4xx_StdPeriph_Driver/src/stm32f4xx_rcc.c ****   * @param  RCC_AHB1Periph: specifies the AHB1 peripheral to reset.
ARM GAS  C:\Users\admin\AppData\Local\Temp\ccNLmEJ4.s 			page 27


1253:../Libraries/STM32F4xx_StdPeriph_Driver/src/stm32f4xx_rcc.c ****   *          This parameter can be any combination of the following values:
1254:../Libraries/STM32F4xx_StdPeriph_Driver/src/stm32f4xx_rcc.c ****   *            @arg RCC_AHB1Periph_GPIOA:   GPIOA clock
1255:../Libraries/STM32F4xx_StdPeriph_Driver/src/stm32f4xx_rcc.c ****   *            @arg RCC_AHB1Periph_GPIOB:   GPIOB clock 
1256:../Libraries/STM32F4xx_StdPeriph_Driver/src/stm32f4xx_rcc.c ****   *            @arg RCC_AHB1Periph_GPIOC:   GPIOC clock
1257:../Libraries/STM32F4xx_StdPeriph_Driver/src/stm32f4xx_rcc.c ****   *            @arg RCC_AHB1Periph_GPIOD:   GPIOD clock
1258:../Libraries/STM32F4xx_StdPeriph_Driver/src/stm32f4xx_rcc.c ****   *            @arg RCC_AHB1Periph_GPIOE:   GPIOE clock
1259:../Libraries/STM32F4xx_StdPeriph_Driver/src/stm32f4xx_rcc.c ****   *            @arg RCC_AHB1Periph_GPIOF:   GPIOF clock
1260:../Libraries/STM32F4xx_StdPeriph_Driver/src/stm32f4xx_rcc.c ****   *            @arg RCC_AHB1Periph_GPIOG:   GPIOG clock
1261:../Libraries/STM32F4xx_StdPeriph_Driver/src/stm32f4xx_rcc.c ****   *            @arg RCC_AHB1Periph_GPIOG:   GPIOG clock
1262:../Libraries/STM32F4xx_StdPeriph_Driver/src/stm32f4xx_rcc.c ****   *            @arg RCC_AHB1Periph_GPIOI:   GPIOI clock
1263:../Libraries/STM32F4xx_StdPeriph_Driver/src/stm32f4xx_rcc.c ****   *            @arg RCC_AHB1Periph_CRC:     CRC clock
1264:../Libraries/STM32F4xx_StdPeriph_Driver/src/stm32f4xx_rcc.c ****   *            @arg RCC_AHB1Periph_DMA1:    DMA1 clock
1265:../Libraries/STM32F4xx_StdPeriph_Driver/src/stm32f4xx_rcc.c ****   *            @arg RCC_AHB1Periph_DMA2:    DMA2 clock
1266:../Libraries/STM32F4xx_StdPeriph_Driver/src/stm32f4xx_rcc.c ****   *            @arg RCC_AHB1Periph_ETH_MAC: Ethernet MAC clock
1267:../Libraries/STM32F4xx_StdPeriph_Driver/src/stm32f4xx_rcc.c ****   *            @arg RCC_AHB1Periph_OTG_HS:  USB OTG HS clock
1268:../Libraries/STM32F4xx_StdPeriph_Driver/src/stm32f4xx_rcc.c ****   *                  
1269:../Libraries/STM32F4xx_StdPeriph_Driver/src/stm32f4xx_rcc.c ****   * @param  NewState: new state of the specified peripheral reset.
1270:../Libraries/STM32F4xx_StdPeriph_Driver/src/stm32f4xx_rcc.c ****   *          This parameter can be: ENABLE or DISABLE.
1271:../Libraries/STM32F4xx_StdPeriph_Driver/src/stm32f4xx_rcc.c ****   * @retval None
1272:../Libraries/STM32F4xx_StdPeriph_Driver/src/stm32f4xx_rcc.c ****   */
1273:../Libraries/STM32F4xx_StdPeriph_Driver/src/stm32f4xx_rcc.c **** void RCC_AHB1PeriphResetCmd(uint32_t RCC_AHB1Periph, FunctionalState NewState)
1274:../Libraries/STM32F4xx_StdPeriph_Driver/src/stm32f4xx_rcc.c **** {
1275:../Libraries/STM32F4xx_StdPeriph_Driver/src/stm32f4xx_rcc.c ****   /* Check the parameters */
1276:../Libraries/STM32F4xx_StdPeriph_Driver/src/stm32f4xx_rcc.c ****   assert_param(IS_RCC_AHB1_RESET_PERIPH(RCC_AHB1Periph));
1277:../Libraries/STM32F4xx_StdPeriph_Driver/src/stm32f4xx_rcc.c ****   assert_param(IS_FUNCTIONAL_STATE(NewState));
1278:../Libraries/STM32F4xx_StdPeriph_Driver/src/stm32f4xx_rcc.c **** 
1279:../Libraries/STM32F4xx_StdPeriph_Driver/src/stm32f4xx_rcc.c ****   if (NewState != DISABLE)
1280:../Libraries/STM32F4xx_StdPeriph_Driver/src/stm32f4xx_rcc.c ****   {
1281:../Libraries/STM32F4xx_StdPeriph_Driver/src/stm32f4xx_rcc.c ****     RCC->AHB1RSTR |= RCC_AHB1Periph;
1282:../Libraries/STM32F4xx_StdPeriph_Driver/src/stm32f4xx_rcc.c ****   }
1283:../Libraries/STM32F4xx_StdPeriph_Driver/src/stm32f4xx_rcc.c ****   else
1284:../Libraries/STM32F4xx_StdPeriph_Driver/src/stm32f4xx_rcc.c ****   {
1285:../Libraries/STM32F4xx_StdPeriph_Driver/src/stm32f4xx_rcc.c ****     RCC->AHB1RSTR &= ~RCC_AHB1Periph;
1286:../Libraries/STM32F4xx_StdPeriph_Driver/src/stm32f4xx_rcc.c ****   }
1287:../Libraries/STM32F4xx_StdPeriph_Driver/src/stm32f4xx_rcc.c **** }
1288:../Libraries/STM32F4xx_StdPeriph_Driver/src/stm32f4xx_rcc.c **** 
1289:../Libraries/STM32F4xx_StdPeriph_Driver/src/stm32f4xx_rcc.c **** /**
1290:../Libraries/STM32F4xx_StdPeriph_Driver/src/stm32f4xx_rcc.c ****   * @brief  Forces or releases AHB2 peripheral reset.
1291:../Libraries/STM32F4xx_StdPeriph_Driver/src/stm32f4xx_rcc.c ****   * @param  RCC_AHB2Periph: specifies the AHB2 peripheral to reset.
1292:../Libraries/STM32F4xx_StdPeriph_Driver/src/stm32f4xx_rcc.c ****   *          This parameter can be any combination of the following values:
1293:../Libraries/STM32F4xx_StdPeriph_Driver/src/stm32f4xx_rcc.c ****   *            @arg RCC_AHB2Periph_DCMI:   DCMI clock
1294:../Libraries/STM32F4xx_StdPeriph_Driver/src/stm32f4xx_rcc.c ****   *            @arg RCC_AHB2Periph_CRYP:   CRYP clock
1295:../Libraries/STM32F4xx_StdPeriph_Driver/src/stm32f4xx_rcc.c ****   *            @arg RCC_AHB2Periph_HASH:   HASH clock
1296:../Libraries/STM32F4xx_StdPeriph_Driver/src/stm32f4xx_rcc.c ****   *            @arg RCC_AHB2Periph_RNG:    RNG clock
1297:../Libraries/STM32F4xx_StdPeriph_Driver/src/stm32f4xx_rcc.c ****   *            @arg RCC_AHB2Periph_OTG_FS: USB OTG FS clock
1298:../Libraries/STM32F4xx_StdPeriph_Driver/src/stm32f4xx_rcc.c ****   * @param  NewState: new state of the specified peripheral reset.
1299:../Libraries/STM32F4xx_StdPeriph_Driver/src/stm32f4xx_rcc.c ****   *          This parameter can be: ENABLE or DISABLE.
1300:../Libraries/STM32F4xx_StdPeriph_Driver/src/stm32f4xx_rcc.c ****   * @retval None
1301:../Libraries/STM32F4xx_StdPeriph_Driver/src/stm32f4xx_rcc.c ****   */
1302:../Libraries/STM32F4xx_StdPeriph_Driver/src/stm32f4xx_rcc.c **** void RCC_AHB2PeriphResetCmd(uint32_t RCC_AHB2Periph, FunctionalState NewState)
1303:../Libraries/STM32F4xx_StdPeriph_Driver/src/stm32f4xx_rcc.c **** {
1304:../Libraries/STM32F4xx_StdPeriph_Driver/src/stm32f4xx_rcc.c ****   /* Check the parameters */
1305:../Libraries/STM32F4xx_StdPeriph_Driver/src/stm32f4xx_rcc.c ****   assert_param(IS_RCC_AHB2_PERIPH(RCC_AHB2Periph));
1306:../Libraries/STM32F4xx_StdPeriph_Driver/src/stm32f4xx_rcc.c ****   assert_param(IS_FUNCTIONAL_STATE(NewState));
1307:../Libraries/STM32F4xx_StdPeriph_Driver/src/stm32f4xx_rcc.c **** 
1308:../Libraries/STM32F4xx_StdPeriph_Driver/src/stm32f4xx_rcc.c ****   if (NewState != DISABLE)
1309:../Libraries/STM32F4xx_StdPeriph_Driver/src/stm32f4xx_rcc.c ****   {
ARM GAS  C:\Users\admin\AppData\Local\Temp\ccNLmEJ4.s 			page 28


1310:../Libraries/STM32F4xx_StdPeriph_Driver/src/stm32f4xx_rcc.c ****     RCC->AHB2RSTR |= RCC_AHB2Periph;
1311:../Libraries/STM32F4xx_StdPeriph_Driver/src/stm32f4xx_rcc.c ****   }
1312:../Libraries/STM32F4xx_StdPeriph_Driver/src/stm32f4xx_rcc.c ****   else
1313:../Libraries/STM32F4xx_StdPeriph_Driver/src/stm32f4xx_rcc.c ****   {
1314:../Libraries/STM32F4xx_StdPeriph_Driver/src/stm32f4xx_rcc.c ****     RCC->AHB2RSTR &= ~RCC_AHB2Periph;
1315:../Libraries/STM32F4xx_StdPeriph_Driver/src/stm32f4xx_rcc.c ****   }
1316:../Libraries/STM32F4xx_StdPeriph_Driver/src/stm32f4xx_rcc.c **** }
1317:../Libraries/STM32F4xx_StdPeriph_Driver/src/stm32f4xx_rcc.c **** 
1318:../Libraries/STM32F4xx_StdPeriph_Driver/src/stm32f4xx_rcc.c **** /**
1319:../Libraries/STM32F4xx_StdPeriph_Driver/src/stm32f4xx_rcc.c ****   * @brief  Forces or releases AHB3 peripheral reset.
1320:../Libraries/STM32F4xx_StdPeriph_Driver/src/stm32f4xx_rcc.c ****   * @param  RCC_AHB3Periph: specifies the AHB3 peripheral to reset.
1321:../Libraries/STM32F4xx_StdPeriph_Driver/src/stm32f4xx_rcc.c ****   *          This parameter must be: RCC_AHB3Periph_FSMC
1322:../Libraries/STM32F4xx_StdPeriph_Driver/src/stm32f4xx_rcc.c ****   * @param  NewState: new state of the specified peripheral reset.
1323:../Libraries/STM32F4xx_StdPeriph_Driver/src/stm32f4xx_rcc.c ****   *          This parameter can be: ENABLE or DISABLE.
1324:../Libraries/STM32F4xx_StdPeriph_Driver/src/stm32f4xx_rcc.c ****   * @retval None
1325:../Libraries/STM32F4xx_StdPeriph_Driver/src/stm32f4xx_rcc.c ****   */
1326:../Libraries/STM32F4xx_StdPeriph_Driver/src/stm32f4xx_rcc.c **** void RCC_AHB3PeriphResetCmd(uint32_t RCC_AHB3Periph, FunctionalState NewState)
1327:../Libraries/STM32F4xx_StdPeriph_Driver/src/stm32f4xx_rcc.c **** {
1328:../Libraries/STM32F4xx_StdPeriph_Driver/src/stm32f4xx_rcc.c ****   /* Check the parameters */
1329:../Libraries/STM32F4xx_StdPeriph_Driver/src/stm32f4xx_rcc.c ****   assert_param(IS_RCC_AHB3_PERIPH(RCC_AHB3Periph));
1330:../Libraries/STM32F4xx_StdPeriph_Driver/src/stm32f4xx_rcc.c ****   assert_param(IS_FUNCTIONAL_STATE(NewState));
1331:../Libraries/STM32F4xx_StdPeriph_Driver/src/stm32f4xx_rcc.c **** 
1332:../Libraries/STM32F4xx_StdPeriph_Driver/src/stm32f4xx_rcc.c ****   if (NewState != DISABLE)
1333:../Libraries/STM32F4xx_StdPeriph_Driver/src/stm32f4xx_rcc.c ****   {
1334:../Libraries/STM32F4xx_StdPeriph_Driver/src/stm32f4xx_rcc.c ****     RCC->AHB3RSTR |= RCC_AHB3Periph;
1335:../Libraries/STM32F4xx_StdPeriph_Driver/src/stm32f4xx_rcc.c ****   }
1336:../Libraries/STM32F4xx_StdPeriph_Driver/src/stm32f4xx_rcc.c ****   else
1337:../Libraries/STM32F4xx_StdPeriph_Driver/src/stm32f4xx_rcc.c ****   {
1338:../Libraries/STM32F4xx_StdPeriph_Driver/src/stm32f4xx_rcc.c ****     RCC->AHB3RSTR &= ~RCC_AHB3Periph;
1339:../Libraries/STM32F4xx_StdPeriph_Driver/src/stm32f4xx_rcc.c ****   }
1340:../Libraries/STM32F4xx_StdPeriph_Driver/src/stm32f4xx_rcc.c **** }
1341:../Libraries/STM32F4xx_StdPeriph_Driver/src/stm32f4xx_rcc.c **** 
1342:../Libraries/STM32F4xx_StdPeriph_Driver/src/stm32f4xx_rcc.c **** /**
1343:../Libraries/STM32F4xx_StdPeriph_Driver/src/stm32f4xx_rcc.c ****   * @brief  Forces or releases Low Speed APB (APB1) peripheral reset.
1344:../Libraries/STM32F4xx_StdPeriph_Driver/src/stm32f4xx_rcc.c ****   * @param  RCC_APB1Periph: specifies the APB1 peripheral to reset.
1345:../Libraries/STM32F4xx_StdPeriph_Driver/src/stm32f4xx_rcc.c ****   *          This parameter can be any combination of the following values:
1346:../Libraries/STM32F4xx_StdPeriph_Driver/src/stm32f4xx_rcc.c ****   *            @arg RCC_APB1Periph_TIM2:   TIM2 clock
1347:../Libraries/STM32F4xx_StdPeriph_Driver/src/stm32f4xx_rcc.c ****   *            @arg RCC_APB1Periph_TIM3:   TIM3 clock
1348:../Libraries/STM32F4xx_StdPeriph_Driver/src/stm32f4xx_rcc.c ****   *            @arg RCC_APB1Periph_TIM4:   TIM4 clock
1349:../Libraries/STM32F4xx_StdPeriph_Driver/src/stm32f4xx_rcc.c ****   *            @arg RCC_APB1Periph_TIM5:   TIM5 clock
1350:../Libraries/STM32F4xx_StdPeriph_Driver/src/stm32f4xx_rcc.c ****   *            @arg RCC_APB1Periph_TIM6:   TIM6 clock
1351:../Libraries/STM32F4xx_StdPeriph_Driver/src/stm32f4xx_rcc.c ****   *            @arg RCC_APB1Periph_TIM7:   TIM7 clock
1352:../Libraries/STM32F4xx_StdPeriph_Driver/src/stm32f4xx_rcc.c ****   *            @arg RCC_APB1Periph_TIM12:  TIM12 clock
1353:../Libraries/STM32F4xx_StdPeriph_Driver/src/stm32f4xx_rcc.c ****   *            @arg RCC_APB1Periph_TIM13:  TIM13 clock
1354:../Libraries/STM32F4xx_StdPeriph_Driver/src/stm32f4xx_rcc.c ****   *            @arg RCC_APB1Periph_TIM14:  TIM14 clock
1355:../Libraries/STM32F4xx_StdPeriph_Driver/src/stm32f4xx_rcc.c ****   *            @arg RCC_APB1Periph_WWDG:   WWDG clock
1356:../Libraries/STM32F4xx_StdPeriph_Driver/src/stm32f4xx_rcc.c ****   *            @arg RCC_APB1Periph_SPI2:   SPI2 clock
1357:../Libraries/STM32F4xx_StdPeriph_Driver/src/stm32f4xx_rcc.c ****   *            @arg RCC_APB1Periph_SPI3:   SPI3 clock
1358:../Libraries/STM32F4xx_StdPeriph_Driver/src/stm32f4xx_rcc.c ****   *            @arg RCC_APB1Periph_USART2: USART2 clock
1359:../Libraries/STM32F4xx_StdPeriph_Driver/src/stm32f4xx_rcc.c ****   *            @arg RCC_APB1Periph_USART3: USART3 clock
1360:../Libraries/STM32F4xx_StdPeriph_Driver/src/stm32f4xx_rcc.c ****   *            @arg RCC_APB1Periph_UART4:  UART4 clock
1361:../Libraries/STM32F4xx_StdPeriph_Driver/src/stm32f4xx_rcc.c ****   *            @arg RCC_APB1Periph_UART5:  UART5 clock
1362:../Libraries/STM32F4xx_StdPeriph_Driver/src/stm32f4xx_rcc.c ****   *            @arg RCC_APB1Periph_I2C1:   I2C1 clock
1363:../Libraries/STM32F4xx_StdPeriph_Driver/src/stm32f4xx_rcc.c ****   *            @arg RCC_APB1Periph_I2C2:   I2C2 clock
1364:../Libraries/STM32F4xx_StdPeriph_Driver/src/stm32f4xx_rcc.c ****   *            @arg RCC_APB1Periph_I2C3:   I2C3 clock
1365:../Libraries/STM32F4xx_StdPeriph_Driver/src/stm32f4xx_rcc.c ****   *            @arg RCC_APB1Periph_CAN1:   CAN1 clock
1366:../Libraries/STM32F4xx_StdPeriph_Driver/src/stm32f4xx_rcc.c ****   *            @arg RCC_APB1Periph_CAN2:   CAN2 clock
ARM GAS  C:\Users\admin\AppData\Local\Temp\ccNLmEJ4.s 			page 29


1367:../Libraries/STM32F4xx_StdPeriph_Driver/src/stm32f4xx_rcc.c ****   *            @arg RCC_APB1Periph_PWR:    PWR clock
1368:../Libraries/STM32F4xx_StdPeriph_Driver/src/stm32f4xx_rcc.c ****   *            @arg RCC_APB1Periph_DAC:    DAC clock
1369:../Libraries/STM32F4xx_StdPeriph_Driver/src/stm32f4xx_rcc.c ****   * @param  NewState: new state of the specified peripheral reset.
1370:../Libraries/STM32F4xx_StdPeriph_Driver/src/stm32f4xx_rcc.c ****   *          This parameter can be: ENABLE or DISABLE.
1371:../Libraries/STM32F4xx_StdPeriph_Driver/src/stm32f4xx_rcc.c ****   * @retval None
1372:../Libraries/STM32F4xx_StdPeriph_Driver/src/stm32f4xx_rcc.c ****   */
1373:../Libraries/STM32F4xx_StdPeriph_Driver/src/stm32f4xx_rcc.c **** void RCC_APB1PeriphResetCmd(uint32_t RCC_APB1Periph, FunctionalState NewState)
1374:../Libraries/STM32F4xx_StdPeriph_Driver/src/stm32f4xx_rcc.c **** {
1375:../Libraries/STM32F4xx_StdPeriph_Driver/src/stm32f4xx_rcc.c ****   /* Check the parameters */
1376:../Libraries/STM32F4xx_StdPeriph_Driver/src/stm32f4xx_rcc.c ****   assert_param(IS_RCC_APB1_PERIPH(RCC_APB1Periph));
1377:../Libraries/STM32F4xx_StdPeriph_Driver/src/stm32f4xx_rcc.c ****   assert_param(IS_FUNCTIONAL_STATE(NewState));
1378:../Libraries/STM32F4xx_StdPeriph_Driver/src/stm32f4xx_rcc.c ****   if (NewState != DISABLE)
1379:../Libraries/STM32F4xx_StdPeriph_Driver/src/stm32f4xx_rcc.c ****   {
1380:../Libraries/STM32F4xx_StdPeriph_Driver/src/stm32f4xx_rcc.c ****     RCC->APB1RSTR |= RCC_APB1Periph;
1381:../Libraries/STM32F4xx_StdPeriph_Driver/src/stm32f4xx_rcc.c ****   }
1382:../Libraries/STM32F4xx_StdPeriph_Driver/src/stm32f4xx_rcc.c ****   else
1383:../Libraries/STM32F4xx_StdPeriph_Driver/src/stm32f4xx_rcc.c ****   {
1384:../Libraries/STM32F4xx_StdPeriph_Driver/src/stm32f4xx_rcc.c ****     RCC->APB1RSTR &= ~RCC_APB1Periph;
1385:../Libraries/STM32F4xx_StdPeriph_Driver/src/stm32f4xx_rcc.c ****   }
1386:../Libraries/STM32F4xx_StdPeriph_Driver/src/stm32f4xx_rcc.c **** }
1387:../Libraries/STM32F4xx_StdPeriph_Driver/src/stm32f4xx_rcc.c **** 
1388:../Libraries/STM32F4xx_StdPeriph_Driver/src/stm32f4xx_rcc.c **** /**
1389:../Libraries/STM32F4xx_StdPeriph_Driver/src/stm32f4xx_rcc.c ****   * @brief  Forces or releases High Speed APB (APB2) peripheral reset.
1390:../Libraries/STM32F4xx_StdPeriph_Driver/src/stm32f4xx_rcc.c ****   * @param  RCC_APB2Periph: specifies the APB2 peripheral to reset.
1391:../Libraries/STM32F4xx_StdPeriph_Driver/src/stm32f4xx_rcc.c ****   *          This parameter can be any combination of the following values:
1392:../Libraries/STM32F4xx_StdPeriph_Driver/src/stm32f4xx_rcc.c ****   *            @arg RCC_APB2Periph_TIM1:   TIM1 clock
1393:../Libraries/STM32F4xx_StdPeriph_Driver/src/stm32f4xx_rcc.c ****   *            @arg RCC_APB2Periph_TIM8:   TIM8 clock
1394:../Libraries/STM32F4xx_StdPeriph_Driver/src/stm32f4xx_rcc.c ****   *            @arg RCC_APB2Periph_USART1: USART1 clock
1395:../Libraries/STM32F4xx_StdPeriph_Driver/src/stm32f4xx_rcc.c ****   *            @arg RCC_APB2Periph_USART6: USART6 clock
1396:../Libraries/STM32F4xx_StdPeriph_Driver/src/stm32f4xx_rcc.c ****   *            @arg RCC_APB2Periph_ADC1:   ADC1 clock
1397:../Libraries/STM32F4xx_StdPeriph_Driver/src/stm32f4xx_rcc.c ****   *            @arg RCC_APB2Periph_ADC2:   ADC2 clock
1398:../Libraries/STM32F4xx_StdPeriph_Driver/src/stm32f4xx_rcc.c ****   *            @arg RCC_APB2Periph_ADC3:   ADC3 clock
1399:../Libraries/STM32F4xx_StdPeriph_Driver/src/stm32f4xx_rcc.c ****   *            @arg RCC_APB2Periph_SDIO:   SDIO clock
1400:../Libraries/STM32F4xx_StdPeriph_Driver/src/stm32f4xx_rcc.c ****   *            @arg RCC_APB2Periph_SPI1:   SPI1 clock
1401:../Libraries/STM32F4xx_StdPeriph_Driver/src/stm32f4xx_rcc.c ****   *            @arg RCC_APB2Periph_SYSCFG: SYSCFG clock
1402:../Libraries/STM32F4xx_StdPeriph_Driver/src/stm32f4xx_rcc.c ****   *            @arg RCC_APB2Periph_TIM9:   TIM9 clock
1403:../Libraries/STM32F4xx_StdPeriph_Driver/src/stm32f4xx_rcc.c ****   *            @arg RCC_APB2Periph_TIM10:  TIM10 clock
1404:../Libraries/STM32F4xx_StdPeriph_Driver/src/stm32f4xx_rcc.c ****   *            @arg RCC_APB2Periph_TIM11:  TIM11 clock
1405:../Libraries/STM32F4xx_StdPeriph_Driver/src/stm32f4xx_rcc.c ****   * @param  NewState: new state of the specified peripheral reset.
1406:../Libraries/STM32F4xx_StdPeriph_Driver/src/stm32f4xx_rcc.c ****   *          This parameter can be: ENABLE or DISABLE.
1407:../Libraries/STM32F4xx_StdPeriph_Driver/src/stm32f4xx_rcc.c ****   * @retval None
1408:../Libraries/STM32F4xx_StdPeriph_Driver/src/stm32f4xx_rcc.c ****   */
1409:../Libraries/STM32F4xx_StdPeriph_Driver/src/stm32f4xx_rcc.c **** void RCC_APB2PeriphResetCmd(uint32_t RCC_APB2Periph, FunctionalState NewState)
1410:../Libraries/STM32F4xx_StdPeriph_Driver/src/stm32f4xx_rcc.c **** {
1411:../Libraries/STM32F4xx_StdPeriph_Driver/src/stm32f4xx_rcc.c ****   /* Check the parameters */
1412:../Libraries/STM32F4xx_StdPeriph_Driver/src/stm32f4xx_rcc.c ****   assert_param(IS_RCC_APB2_RESET_PERIPH(RCC_APB2Periph));
1413:../Libraries/STM32F4xx_StdPeriph_Driver/src/stm32f4xx_rcc.c ****   assert_param(IS_FUNCTIONAL_STATE(NewState));
1414:../Libraries/STM32F4xx_StdPeriph_Driver/src/stm32f4xx_rcc.c ****   if (NewState != DISABLE)
1415:../Libraries/STM32F4xx_StdPeriph_Driver/src/stm32f4xx_rcc.c ****   {
1416:../Libraries/STM32F4xx_StdPeriph_Driver/src/stm32f4xx_rcc.c ****     RCC->APB2RSTR |= RCC_APB2Periph;
1417:../Libraries/STM32F4xx_StdPeriph_Driver/src/stm32f4xx_rcc.c ****   }
1418:../Libraries/STM32F4xx_StdPeriph_Driver/src/stm32f4xx_rcc.c ****   else
1419:../Libraries/STM32F4xx_StdPeriph_Driver/src/stm32f4xx_rcc.c ****   {
1420:../Libraries/STM32F4xx_StdPeriph_Driver/src/stm32f4xx_rcc.c ****     RCC->APB2RSTR &= ~RCC_APB2Periph;
1421:../Libraries/STM32F4xx_StdPeriph_Driver/src/stm32f4xx_rcc.c ****   }
1422:../Libraries/STM32F4xx_StdPeriph_Driver/src/stm32f4xx_rcc.c **** }
1423:../Libraries/STM32F4xx_StdPeriph_Driver/src/stm32f4xx_rcc.c **** 
ARM GAS  C:\Users\admin\AppData\Local\Temp\ccNLmEJ4.s 			page 30


1424:../Libraries/STM32F4xx_StdPeriph_Driver/src/stm32f4xx_rcc.c **** /**
1425:../Libraries/STM32F4xx_StdPeriph_Driver/src/stm32f4xx_rcc.c ****   * @brief  Enables or disables the AHB1 peripheral clock during Low Power (Sleep) mode.
1426:../Libraries/STM32F4xx_StdPeriph_Driver/src/stm32f4xx_rcc.c ****   * @note   Peripheral clock gating in SLEEP mode can be used to further reduce
1427:../Libraries/STM32F4xx_StdPeriph_Driver/src/stm32f4xx_rcc.c ****   *         power consumption.
1428:../Libraries/STM32F4xx_StdPeriph_Driver/src/stm32f4xx_rcc.c ****   * @note   After wakeup from SLEEP mode, the peripheral clock is enabled again.
1429:../Libraries/STM32F4xx_StdPeriph_Driver/src/stm32f4xx_rcc.c ****   * @note   By default, all peripheral clocks are enabled during SLEEP mode.
1430:../Libraries/STM32F4xx_StdPeriph_Driver/src/stm32f4xx_rcc.c ****   * @param  RCC_AHBPeriph: specifies the AHB1 peripheral to gates its clock.
1431:../Libraries/STM32F4xx_StdPeriph_Driver/src/stm32f4xx_rcc.c ****   *          This parameter can be any combination of the following values:
1432:../Libraries/STM32F4xx_StdPeriph_Driver/src/stm32f4xx_rcc.c ****   *            @arg RCC_AHB1Periph_GPIOA:       GPIOA clock
1433:../Libraries/STM32F4xx_StdPeriph_Driver/src/stm32f4xx_rcc.c ****   *            @arg RCC_AHB1Periph_GPIOB:       GPIOB clock 
1434:../Libraries/STM32F4xx_StdPeriph_Driver/src/stm32f4xx_rcc.c ****   *            @arg RCC_AHB1Periph_GPIOC:       GPIOC clock
1435:../Libraries/STM32F4xx_StdPeriph_Driver/src/stm32f4xx_rcc.c ****   *            @arg RCC_AHB1Periph_GPIOD:       GPIOD clock
1436:../Libraries/STM32F4xx_StdPeriph_Driver/src/stm32f4xx_rcc.c ****   *            @arg RCC_AHB1Periph_GPIOE:       GPIOE clock
1437:../Libraries/STM32F4xx_StdPeriph_Driver/src/stm32f4xx_rcc.c ****   *            @arg RCC_AHB1Periph_GPIOF:       GPIOF clock
1438:../Libraries/STM32F4xx_StdPeriph_Driver/src/stm32f4xx_rcc.c ****   *            @arg RCC_AHB1Periph_GPIOG:       GPIOG clock
1439:../Libraries/STM32F4xx_StdPeriph_Driver/src/stm32f4xx_rcc.c ****   *            @arg RCC_AHB1Periph_GPIOG:       GPIOG clock
1440:../Libraries/STM32F4xx_StdPeriph_Driver/src/stm32f4xx_rcc.c ****   *            @arg RCC_AHB1Periph_GPIOI:       GPIOI clock
1441:../Libraries/STM32F4xx_StdPeriph_Driver/src/stm32f4xx_rcc.c ****   *            @arg RCC_AHB1Periph_CRC:         CRC clock
1442:../Libraries/STM32F4xx_StdPeriph_Driver/src/stm32f4xx_rcc.c ****   *            @arg RCC_AHB1Periph_BKPSRAM:     BKPSRAM interface clock
1443:../Libraries/STM32F4xx_StdPeriph_Driver/src/stm32f4xx_rcc.c ****   *            @arg RCC_AHB1Periph_DMA1:        DMA1 clock
1444:../Libraries/STM32F4xx_StdPeriph_Driver/src/stm32f4xx_rcc.c ****   *            @arg RCC_AHB1Periph_DMA2:        DMA2 clock
1445:../Libraries/STM32F4xx_StdPeriph_Driver/src/stm32f4xx_rcc.c ****   *            @arg RCC_AHB1Periph_ETH_MAC:     Ethernet MAC clock
1446:../Libraries/STM32F4xx_StdPeriph_Driver/src/stm32f4xx_rcc.c ****   *            @arg RCC_AHB1Periph_ETH_MAC_Tx:  Ethernet Transmission clock
1447:../Libraries/STM32F4xx_StdPeriph_Driver/src/stm32f4xx_rcc.c ****   *            @arg RCC_AHB1Periph_ETH_MAC_Rx:  Ethernet Reception clock
1448:../Libraries/STM32F4xx_StdPeriph_Driver/src/stm32f4xx_rcc.c ****   *            @arg RCC_AHB1Periph_ETH_MAC_PTP: Ethernet PTP clock
1449:../Libraries/STM32F4xx_StdPeriph_Driver/src/stm32f4xx_rcc.c ****   *            @arg RCC_AHB1Periph_OTG_HS:      USB OTG HS clock
1450:../Libraries/STM32F4xx_StdPeriph_Driver/src/stm32f4xx_rcc.c ****   *            @arg RCC_AHB1Periph_OTG_HS_ULPI: USB OTG HS ULPI clock
1451:../Libraries/STM32F4xx_StdPeriph_Driver/src/stm32f4xx_rcc.c ****   * @param  NewState: new state of the specified peripheral clock.
1452:../Libraries/STM32F4xx_StdPeriph_Driver/src/stm32f4xx_rcc.c ****   *          This parameter can be: ENABLE or DISABLE.
1453:../Libraries/STM32F4xx_StdPeriph_Driver/src/stm32f4xx_rcc.c ****   * @retval None
1454:../Libraries/STM32F4xx_StdPeriph_Driver/src/stm32f4xx_rcc.c ****   */
1455:../Libraries/STM32F4xx_StdPeriph_Driver/src/stm32f4xx_rcc.c **** void RCC_AHB1PeriphClockLPModeCmd(uint32_t RCC_AHB1Periph, FunctionalState NewState)
1456:../Libraries/STM32F4xx_StdPeriph_Driver/src/stm32f4xx_rcc.c **** {
1457:../Libraries/STM32F4xx_StdPeriph_Driver/src/stm32f4xx_rcc.c ****   /* Check the parameters */
1458:../Libraries/STM32F4xx_StdPeriph_Driver/src/stm32f4xx_rcc.c ****   assert_param(IS_RCC_AHB1_LPMODE_PERIPH(RCC_AHB1Periph));
1459:../Libraries/STM32F4xx_StdPeriph_Driver/src/stm32f4xx_rcc.c ****   assert_param(IS_FUNCTIONAL_STATE(NewState));
1460:../Libraries/STM32F4xx_StdPeriph_Driver/src/stm32f4xx_rcc.c ****   if (NewState != DISABLE)
1461:../Libraries/STM32F4xx_StdPeriph_Driver/src/stm32f4xx_rcc.c ****   {
1462:../Libraries/STM32F4xx_StdPeriph_Driver/src/stm32f4xx_rcc.c ****     RCC->AHB1LPENR |= RCC_AHB1Periph;
1463:../Libraries/STM32F4xx_StdPeriph_Driver/src/stm32f4xx_rcc.c ****   }
1464:../Libraries/STM32F4xx_StdPeriph_Driver/src/stm32f4xx_rcc.c ****   else
1465:../Libraries/STM32F4xx_StdPeriph_Driver/src/stm32f4xx_rcc.c ****   {
1466:../Libraries/STM32F4xx_StdPeriph_Driver/src/stm32f4xx_rcc.c ****     RCC->AHB1LPENR &= ~RCC_AHB1Periph;
1467:../Libraries/STM32F4xx_StdPeriph_Driver/src/stm32f4xx_rcc.c ****   }
1468:../Libraries/STM32F4xx_StdPeriph_Driver/src/stm32f4xx_rcc.c **** }
1469:../Libraries/STM32F4xx_StdPeriph_Driver/src/stm32f4xx_rcc.c **** 
1470:../Libraries/STM32F4xx_StdPeriph_Driver/src/stm32f4xx_rcc.c **** /**
1471:../Libraries/STM32F4xx_StdPeriph_Driver/src/stm32f4xx_rcc.c ****   * @brief  Enables or disables the AHB2 peripheral clock during Low Power (Sleep) mode.
1472:../Libraries/STM32F4xx_StdPeriph_Driver/src/stm32f4xx_rcc.c ****   * @note   Peripheral clock gating in SLEEP mode can be used to further reduce
1473:../Libraries/STM32F4xx_StdPeriph_Driver/src/stm32f4xx_rcc.c ****   *           power consumption.
1474:../Libraries/STM32F4xx_StdPeriph_Driver/src/stm32f4xx_rcc.c ****   * @note   After wakeup from SLEEP mode, the peripheral clock is enabled again.
1475:../Libraries/STM32F4xx_StdPeriph_Driver/src/stm32f4xx_rcc.c ****   * @note   By default, all peripheral clocks are enabled during SLEEP mode.
1476:../Libraries/STM32F4xx_StdPeriph_Driver/src/stm32f4xx_rcc.c ****   * @param  RCC_AHBPeriph: specifies the AHB2 peripheral to gates its clock.
1477:../Libraries/STM32F4xx_StdPeriph_Driver/src/stm32f4xx_rcc.c ****   *          This parameter can be any combination of the following values:
1478:../Libraries/STM32F4xx_StdPeriph_Driver/src/stm32f4xx_rcc.c ****   *            @arg RCC_AHB2Periph_DCMI:   DCMI clock
1479:../Libraries/STM32F4xx_StdPeriph_Driver/src/stm32f4xx_rcc.c ****   *            @arg RCC_AHB2Periph_CRYP:   CRYP clock
1480:../Libraries/STM32F4xx_StdPeriph_Driver/src/stm32f4xx_rcc.c ****   *            @arg RCC_AHB2Periph_HASH:   HASH clock
ARM GAS  C:\Users\admin\AppData\Local\Temp\ccNLmEJ4.s 			page 31


1481:../Libraries/STM32F4xx_StdPeriph_Driver/src/stm32f4xx_rcc.c ****   *            @arg RCC_AHB2Periph_RNG:    RNG clock
1482:../Libraries/STM32F4xx_StdPeriph_Driver/src/stm32f4xx_rcc.c ****   *            @arg RCC_AHB2Periph_OTG_FS: USB OTG FS clock  
1483:../Libraries/STM32F4xx_StdPeriph_Driver/src/stm32f4xx_rcc.c ****   * @param  NewState: new state of the specified peripheral clock.
1484:../Libraries/STM32F4xx_StdPeriph_Driver/src/stm32f4xx_rcc.c ****   *          This parameter can be: ENABLE or DISABLE.
1485:../Libraries/STM32F4xx_StdPeriph_Driver/src/stm32f4xx_rcc.c ****   * @retval None
1486:../Libraries/STM32F4xx_StdPeriph_Driver/src/stm32f4xx_rcc.c ****   */
1487:../Libraries/STM32F4xx_StdPeriph_Driver/src/stm32f4xx_rcc.c **** void RCC_AHB2PeriphClockLPModeCmd(uint32_t RCC_AHB2Periph, FunctionalState NewState)
1488:../Libraries/STM32F4xx_StdPeriph_Driver/src/stm32f4xx_rcc.c **** {
1489:../Libraries/STM32F4xx_StdPeriph_Driver/src/stm32f4xx_rcc.c ****   /* Check the parameters */
1490:../Libraries/STM32F4xx_StdPeriph_Driver/src/stm32f4xx_rcc.c ****   assert_param(IS_RCC_AHB2_PERIPH(RCC_AHB2Periph));
1491:../Libraries/STM32F4xx_StdPeriph_Driver/src/stm32f4xx_rcc.c ****   assert_param(IS_FUNCTIONAL_STATE(NewState));
1492:../Libraries/STM32F4xx_StdPeriph_Driver/src/stm32f4xx_rcc.c ****   if (NewState != DISABLE)
1493:../Libraries/STM32F4xx_StdPeriph_Driver/src/stm32f4xx_rcc.c ****   {
1494:../Libraries/STM32F4xx_StdPeriph_Driver/src/stm32f4xx_rcc.c ****     RCC->AHB2LPENR |= RCC_AHB2Periph;
1495:../Libraries/STM32F4xx_StdPeriph_Driver/src/stm32f4xx_rcc.c ****   }
1496:../Libraries/STM32F4xx_StdPeriph_Driver/src/stm32f4xx_rcc.c ****   else
1497:../Libraries/STM32F4xx_StdPeriph_Driver/src/stm32f4xx_rcc.c ****   {
1498:../Libraries/STM32F4xx_StdPeriph_Driver/src/stm32f4xx_rcc.c ****     RCC->AHB2LPENR &= ~RCC_AHB2Periph;
1499:../Libraries/STM32F4xx_StdPeriph_Driver/src/stm32f4xx_rcc.c ****   }
1500:../Libraries/STM32F4xx_StdPeriph_Driver/src/stm32f4xx_rcc.c **** }
1501:../Libraries/STM32F4xx_StdPeriph_Driver/src/stm32f4xx_rcc.c **** 
1502:../Libraries/STM32F4xx_StdPeriph_Driver/src/stm32f4xx_rcc.c **** /**
1503:../Libraries/STM32F4xx_StdPeriph_Driver/src/stm32f4xx_rcc.c ****   * @brief  Enables or disables the AHB3 peripheral clock during Low Power (Sleep) mode.
1504:../Libraries/STM32F4xx_StdPeriph_Driver/src/stm32f4xx_rcc.c ****   * @note   Peripheral clock gating in SLEEP mode can be used to further reduce
1505:../Libraries/STM32F4xx_StdPeriph_Driver/src/stm32f4xx_rcc.c ****   *         power consumption.
1506:../Libraries/STM32F4xx_StdPeriph_Driver/src/stm32f4xx_rcc.c ****   * @note   After wakeup from SLEEP mode, the peripheral clock is enabled again.
1507:../Libraries/STM32F4xx_StdPeriph_Driver/src/stm32f4xx_rcc.c ****   * @note   By default, all peripheral clocks are enabled during SLEEP mode.
1508:../Libraries/STM32F4xx_StdPeriph_Driver/src/stm32f4xx_rcc.c ****   * @param  RCC_AHBPeriph: specifies the AHB3 peripheral to gates its clock.
1509:../Libraries/STM32F4xx_StdPeriph_Driver/src/stm32f4xx_rcc.c ****   *          This parameter must be: RCC_AHB3Periph_FSMC
1510:../Libraries/STM32F4xx_StdPeriph_Driver/src/stm32f4xx_rcc.c ****   * @param  NewState: new state of the specified peripheral clock.
1511:../Libraries/STM32F4xx_StdPeriph_Driver/src/stm32f4xx_rcc.c ****   *          This parameter can be: ENABLE or DISABLE.
1512:../Libraries/STM32F4xx_StdPeriph_Driver/src/stm32f4xx_rcc.c ****   * @retval None
1513:../Libraries/STM32F4xx_StdPeriph_Driver/src/stm32f4xx_rcc.c ****   */
1514:../Libraries/STM32F4xx_StdPeriph_Driver/src/stm32f4xx_rcc.c **** void RCC_AHB3PeriphClockLPModeCmd(uint32_t RCC_AHB3Periph, FunctionalState NewState)
1515:../Libraries/STM32F4xx_StdPeriph_Driver/src/stm32f4xx_rcc.c **** {
1516:../Libraries/STM32F4xx_StdPeriph_Driver/src/stm32f4xx_rcc.c ****   /* Check the parameters */
1517:../Libraries/STM32F4xx_StdPeriph_Driver/src/stm32f4xx_rcc.c ****   assert_param(IS_RCC_AHB3_PERIPH(RCC_AHB3Periph));
1518:../Libraries/STM32F4xx_StdPeriph_Driver/src/stm32f4xx_rcc.c ****   assert_param(IS_FUNCTIONAL_STATE(NewState));
1519:../Libraries/STM32F4xx_StdPeriph_Driver/src/stm32f4xx_rcc.c ****   if (NewState != DISABLE)
1520:../Libraries/STM32F4xx_StdPeriph_Driver/src/stm32f4xx_rcc.c ****   {
1521:../Libraries/STM32F4xx_StdPeriph_Driver/src/stm32f4xx_rcc.c ****     RCC->AHB3LPENR |= RCC_AHB3Periph;
1522:../Libraries/STM32F4xx_StdPeriph_Driver/src/stm32f4xx_rcc.c ****   }
1523:../Libraries/STM32F4xx_StdPeriph_Driver/src/stm32f4xx_rcc.c ****   else
1524:../Libraries/STM32F4xx_StdPeriph_Driver/src/stm32f4xx_rcc.c ****   {
1525:../Libraries/STM32F4xx_StdPeriph_Driver/src/stm32f4xx_rcc.c ****     RCC->AHB3LPENR &= ~RCC_AHB3Periph;
1526:../Libraries/STM32F4xx_StdPeriph_Driver/src/stm32f4xx_rcc.c ****   }
1527:../Libraries/STM32F4xx_StdPeriph_Driver/src/stm32f4xx_rcc.c **** }
1528:../Libraries/STM32F4xx_StdPeriph_Driver/src/stm32f4xx_rcc.c **** 
1529:../Libraries/STM32F4xx_StdPeriph_Driver/src/stm32f4xx_rcc.c **** /**
1530:../Libraries/STM32F4xx_StdPeriph_Driver/src/stm32f4xx_rcc.c ****   * @brief  Enables or disables the APB1 peripheral clock during Low Power (Sleep) mode.
1531:../Libraries/STM32F4xx_StdPeriph_Driver/src/stm32f4xx_rcc.c ****   * @note   Peripheral clock gating in SLEEP mode can be used to further reduce
1532:../Libraries/STM32F4xx_StdPeriph_Driver/src/stm32f4xx_rcc.c ****   *         power consumption.
1533:../Libraries/STM32F4xx_StdPeriph_Driver/src/stm32f4xx_rcc.c ****   * @note   After wakeup from SLEEP mode, the peripheral clock is enabled again.
1534:../Libraries/STM32F4xx_StdPeriph_Driver/src/stm32f4xx_rcc.c ****   * @note   By default, all peripheral clocks are enabled during SLEEP mode.
1535:../Libraries/STM32F4xx_StdPeriph_Driver/src/stm32f4xx_rcc.c ****   * @param  RCC_APB1Periph: specifies the APB1 peripheral to gates its clock.
1536:../Libraries/STM32F4xx_StdPeriph_Driver/src/stm32f4xx_rcc.c ****   *          This parameter can be any combination of the following values:
1537:../Libraries/STM32F4xx_StdPeriph_Driver/src/stm32f4xx_rcc.c ****   *            @arg RCC_APB1Periph_TIM2:   TIM2 clock
ARM GAS  C:\Users\admin\AppData\Local\Temp\ccNLmEJ4.s 			page 32


1538:../Libraries/STM32F4xx_StdPeriph_Driver/src/stm32f4xx_rcc.c ****   *            @arg RCC_APB1Periph_TIM3:   TIM3 clock
1539:../Libraries/STM32F4xx_StdPeriph_Driver/src/stm32f4xx_rcc.c ****   *            @arg RCC_APB1Periph_TIM4:   TIM4 clock
1540:../Libraries/STM32F4xx_StdPeriph_Driver/src/stm32f4xx_rcc.c ****   *            @arg RCC_APB1Periph_TIM5:   TIM5 clock
1541:../Libraries/STM32F4xx_StdPeriph_Driver/src/stm32f4xx_rcc.c ****   *            @arg RCC_APB1Periph_TIM6:   TIM6 clock
1542:../Libraries/STM32F4xx_StdPeriph_Driver/src/stm32f4xx_rcc.c ****   *            @arg RCC_APB1Periph_TIM7:   TIM7 clock
1543:../Libraries/STM32F4xx_StdPeriph_Driver/src/stm32f4xx_rcc.c ****   *            @arg RCC_APB1Periph_TIM12:  TIM12 clock
1544:../Libraries/STM32F4xx_StdPeriph_Driver/src/stm32f4xx_rcc.c ****   *            @arg RCC_APB1Periph_TIM13:  TIM13 clock
1545:../Libraries/STM32F4xx_StdPeriph_Driver/src/stm32f4xx_rcc.c ****   *            @arg RCC_APB1Periph_TIM14:  TIM14 clock
1546:../Libraries/STM32F4xx_StdPeriph_Driver/src/stm32f4xx_rcc.c ****   *            @arg RCC_APB1Periph_WWDG:   WWDG clock
1547:../Libraries/STM32F4xx_StdPeriph_Driver/src/stm32f4xx_rcc.c ****   *            @arg RCC_APB1Periph_SPI2:   SPI2 clock
1548:../Libraries/STM32F4xx_StdPeriph_Driver/src/stm32f4xx_rcc.c ****   *            @arg RCC_APB1Periph_SPI3:   SPI3 clock
1549:../Libraries/STM32F4xx_StdPeriph_Driver/src/stm32f4xx_rcc.c ****   *            @arg RCC_APB1Periph_USART2: USART2 clock
1550:../Libraries/STM32F4xx_StdPeriph_Driver/src/stm32f4xx_rcc.c ****   *            @arg RCC_APB1Periph_USART3: USART3 clock
1551:../Libraries/STM32F4xx_StdPeriph_Driver/src/stm32f4xx_rcc.c ****   *            @arg RCC_APB1Periph_UART4:  UART4 clock
1552:../Libraries/STM32F4xx_StdPeriph_Driver/src/stm32f4xx_rcc.c ****   *            @arg RCC_APB1Periph_UART5:  UART5 clock
1553:../Libraries/STM32F4xx_StdPeriph_Driver/src/stm32f4xx_rcc.c ****   *            @arg RCC_APB1Periph_I2C1:   I2C1 clock
1554:../Libraries/STM32F4xx_StdPeriph_Driver/src/stm32f4xx_rcc.c ****   *            @arg RCC_APB1Periph_I2C2:   I2C2 clock
1555:../Libraries/STM32F4xx_StdPeriph_Driver/src/stm32f4xx_rcc.c ****   *            @arg RCC_APB1Periph_I2C3:   I2C3 clock
1556:../Libraries/STM32F4xx_StdPeriph_Driver/src/stm32f4xx_rcc.c ****   *            @arg RCC_APB1Periph_CAN1:   CAN1 clock
1557:../Libraries/STM32F4xx_StdPeriph_Driver/src/stm32f4xx_rcc.c ****   *            @arg RCC_APB1Periph_CAN2:   CAN2 clock
1558:../Libraries/STM32F4xx_StdPeriph_Driver/src/stm32f4xx_rcc.c ****   *            @arg RCC_APB1Periph_PWR:    PWR clock
1559:../Libraries/STM32F4xx_StdPeriph_Driver/src/stm32f4xx_rcc.c ****   *            @arg RCC_APB1Periph_DAC:    DAC clock
1560:../Libraries/STM32F4xx_StdPeriph_Driver/src/stm32f4xx_rcc.c ****   * @param  NewState: new state of the specified peripheral clock.
1561:../Libraries/STM32F4xx_StdPeriph_Driver/src/stm32f4xx_rcc.c ****   *          This parameter can be: ENABLE or DISABLE.
1562:../Libraries/STM32F4xx_StdPeriph_Driver/src/stm32f4xx_rcc.c ****   * @retval None
1563:../Libraries/STM32F4xx_StdPeriph_Driver/src/stm32f4xx_rcc.c ****   */
1564:../Libraries/STM32F4xx_StdPeriph_Driver/src/stm32f4xx_rcc.c **** void RCC_APB1PeriphClockLPModeCmd(uint32_t RCC_APB1Periph, FunctionalState NewState)
1565:../Libraries/STM32F4xx_StdPeriph_Driver/src/stm32f4xx_rcc.c **** {
1566:../Libraries/STM32F4xx_StdPeriph_Driver/src/stm32f4xx_rcc.c ****   /* Check the parameters */
1567:../Libraries/STM32F4xx_StdPeriph_Driver/src/stm32f4xx_rcc.c ****   assert_param(IS_RCC_APB1_PERIPH(RCC_APB1Periph));
1568:../Libraries/STM32F4xx_StdPeriph_Driver/src/stm32f4xx_rcc.c ****   assert_param(IS_FUNCTIONAL_STATE(NewState));
1569:../Libraries/STM32F4xx_StdPeriph_Driver/src/stm32f4xx_rcc.c ****   if (NewState != DISABLE)
1570:../Libraries/STM32F4xx_StdPeriph_Driver/src/stm32f4xx_rcc.c ****   {
1571:../Libraries/STM32F4xx_StdPeriph_Driver/src/stm32f4xx_rcc.c ****     RCC->APB1LPENR |= RCC_APB1Periph;
1572:../Libraries/STM32F4xx_StdPeriph_Driver/src/stm32f4xx_rcc.c ****   }
1573:../Libraries/STM32F4xx_StdPeriph_Driver/src/stm32f4xx_rcc.c ****   else
1574:../Libraries/STM32F4xx_StdPeriph_Driver/src/stm32f4xx_rcc.c ****   {
1575:../Libraries/STM32F4xx_StdPeriph_Driver/src/stm32f4xx_rcc.c ****     RCC->APB1LPENR &= ~RCC_APB1Periph;
1576:../Libraries/STM32F4xx_StdPeriph_Driver/src/stm32f4xx_rcc.c ****   }
1577:../Libraries/STM32F4xx_StdPeriph_Driver/src/stm32f4xx_rcc.c **** }
1578:../Libraries/STM32F4xx_StdPeriph_Driver/src/stm32f4xx_rcc.c **** 
1579:../Libraries/STM32F4xx_StdPeriph_Driver/src/stm32f4xx_rcc.c **** /**
1580:../Libraries/STM32F4xx_StdPeriph_Driver/src/stm32f4xx_rcc.c ****   * @brief  Enables or disables the APB2 peripheral clock during Low Power (Sleep) mode.
1581:../Libraries/STM32F4xx_StdPeriph_Driver/src/stm32f4xx_rcc.c ****   * @note   Peripheral clock gating in SLEEP mode can be used to further reduce
1582:../Libraries/STM32F4xx_StdPeriph_Driver/src/stm32f4xx_rcc.c ****   *         power consumption.
1583:../Libraries/STM32F4xx_StdPeriph_Driver/src/stm32f4xx_rcc.c ****   * @note   After wakeup from SLEEP mode, the peripheral clock is enabled again.
1584:../Libraries/STM32F4xx_StdPeriph_Driver/src/stm32f4xx_rcc.c ****   * @note   By default, all peripheral clocks are enabled during SLEEP mode.
1585:../Libraries/STM32F4xx_StdPeriph_Driver/src/stm32f4xx_rcc.c ****   * @param  RCC_APB2Periph: specifies the APB2 peripheral to gates its clock.
1586:../Libraries/STM32F4xx_StdPeriph_Driver/src/stm32f4xx_rcc.c ****   *          This parameter can be any combination of the following values:
1587:../Libraries/STM32F4xx_StdPeriph_Driver/src/stm32f4xx_rcc.c ****   *            @arg RCC_APB2Periph_TIM1:   TIM1 clock
1588:../Libraries/STM32F4xx_StdPeriph_Driver/src/stm32f4xx_rcc.c ****   *            @arg RCC_APB2Periph_TIM8:   TIM8 clock
1589:../Libraries/STM32F4xx_StdPeriph_Driver/src/stm32f4xx_rcc.c ****   *            @arg RCC_APB2Periph_USART1: USART1 clock
1590:../Libraries/STM32F4xx_StdPeriph_Driver/src/stm32f4xx_rcc.c ****   *            @arg RCC_APB2Periph_USART6: USART6 clock
1591:../Libraries/STM32F4xx_StdPeriph_Driver/src/stm32f4xx_rcc.c ****   *            @arg RCC_APB2Periph_ADC1:   ADC1 clock
1592:../Libraries/STM32F4xx_StdPeriph_Driver/src/stm32f4xx_rcc.c ****   *            @arg RCC_APB2Periph_ADC2:   ADC2 clock
1593:../Libraries/STM32F4xx_StdPeriph_Driver/src/stm32f4xx_rcc.c ****   *            @arg RCC_APB2Periph_ADC3:   ADC3 clock
1594:../Libraries/STM32F4xx_StdPeriph_Driver/src/stm32f4xx_rcc.c ****   *            @arg RCC_APB2Periph_SDIO:   SDIO clock
ARM GAS  C:\Users\admin\AppData\Local\Temp\ccNLmEJ4.s 			page 33


1595:../Libraries/STM32F4xx_StdPeriph_Driver/src/stm32f4xx_rcc.c ****   *            @arg RCC_APB2Periph_SPI1:   SPI1 clock
1596:../Libraries/STM32F4xx_StdPeriph_Driver/src/stm32f4xx_rcc.c ****   *            @arg RCC_APB2Periph_SYSCFG: SYSCFG clock
1597:../Libraries/STM32F4xx_StdPeriph_Driver/src/stm32f4xx_rcc.c ****   *            @arg RCC_APB2Periph_TIM9:   TIM9 clock
1598:../Libraries/STM32F4xx_StdPeriph_Driver/src/stm32f4xx_rcc.c ****   *            @arg RCC_APB2Periph_TIM10:  TIM10 clock
1599:../Libraries/STM32F4xx_StdPeriph_Driver/src/stm32f4xx_rcc.c ****   *            @arg RCC_APB2Periph_TIM11:  TIM11 clock
1600:../Libraries/STM32F4xx_StdPeriph_Driver/src/stm32f4xx_rcc.c ****   * @param  NewState: new state of the specified peripheral clock.
1601:../Libraries/STM32F4xx_StdPeriph_Driver/src/stm32f4xx_rcc.c ****   *          This parameter can be: ENABLE or DISABLE.
1602:../Libraries/STM32F4xx_StdPeriph_Driver/src/stm32f4xx_rcc.c ****   * @retval None
1603:../Libraries/STM32F4xx_StdPeriph_Driver/src/stm32f4xx_rcc.c ****   */
1604:../Libraries/STM32F4xx_StdPeriph_Driver/src/stm32f4xx_rcc.c **** void RCC_APB2PeriphClockLPModeCmd(uint32_t RCC_APB2Periph, FunctionalState NewState)
1605:../Libraries/STM32F4xx_StdPeriph_Driver/src/stm32f4xx_rcc.c **** {
1606:../Libraries/STM32F4xx_StdPeriph_Driver/src/stm32f4xx_rcc.c ****   /* Check the parameters */
1607:../Libraries/STM32F4xx_StdPeriph_Driver/src/stm32f4xx_rcc.c ****   assert_param(IS_RCC_APB2_PERIPH(RCC_APB2Periph));
1608:../Libraries/STM32F4xx_StdPeriph_Driver/src/stm32f4xx_rcc.c ****   assert_param(IS_FUNCTIONAL_STATE(NewState));
1609:../Libraries/STM32F4xx_StdPeriph_Driver/src/stm32f4xx_rcc.c ****   if (NewState != DISABLE)
1610:../Libraries/STM32F4xx_StdPeriph_Driver/src/stm32f4xx_rcc.c ****   {
1611:../Libraries/STM32F4xx_StdPeriph_Driver/src/stm32f4xx_rcc.c ****     RCC->APB2LPENR |= RCC_APB2Periph;
1612:../Libraries/STM32F4xx_StdPeriph_Driver/src/stm32f4xx_rcc.c ****   }
1613:../Libraries/STM32F4xx_StdPeriph_Driver/src/stm32f4xx_rcc.c ****   else
1614:../Libraries/STM32F4xx_StdPeriph_Driver/src/stm32f4xx_rcc.c ****   {
1615:../Libraries/STM32F4xx_StdPeriph_Driver/src/stm32f4xx_rcc.c ****     RCC->APB2LPENR &= ~RCC_APB2Periph;
1616:../Libraries/STM32F4xx_StdPeriph_Driver/src/stm32f4xx_rcc.c ****   }
1617:../Libraries/STM32F4xx_StdPeriph_Driver/src/stm32f4xx_rcc.c **** }
1618:../Libraries/STM32F4xx_StdPeriph_Driver/src/stm32f4xx_rcc.c **** 
1619:../Libraries/STM32F4xx_StdPeriph_Driver/src/stm32f4xx_rcc.c **** /**
1620:../Libraries/STM32F4xx_StdPeriph_Driver/src/stm32f4xx_rcc.c ****   * @}
1621:../Libraries/STM32F4xx_StdPeriph_Driver/src/stm32f4xx_rcc.c ****   */
1622:../Libraries/STM32F4xx_StdPeriph_Driver/src/stm32f4xx_rcc.c **** 
1623:../Libraries/STM32F4xx_StdPeriph_Driver/src/stm32f4xx_rcc.c **** /** @defgroup RCC_Group4 Interrupts and flags management functions
1624:../Libraries/STM32F4xx_StdPeriph_Driver/src/stm32f4xx_rcc.c ****  *  @brief   Interrupts and flags management functions 
1625:../Libraries/STM32F4xx_StdPeriph_Driver/src/stm32f4xx_rcc.c ****  *
1626:../Libraries/STM32F4xx_StdPeriph_Driver/src/stm32f4xx_rcc.c **** @verbatim   
1627:../Libraries/STM32F4xx_StdPeriph_Driver/src/stm32f4xx_rcc.c ****  ===============================================================================
1628:../Libraries/STM32F4xx_StdPeriph_Driver/src/stm32f4xx_rcc.c ****                    Interrupts and flags management functions
1629:../Libraries/STM32F4xx_StdPeriph_Driver/src/stm32f4xx_rcc.c ****  ===============================================================================  
1630:../Libraries/STM32F4xx_StdPeriph_Driver/src/stm32f4xx_rcc.c **** 
1631:../Libraries/STM32F4xx_StdPeriph_Driver/src/stm32f4xx_rcc.c **** @endverbatim
1632:../Libraries/STM32F4xx_StdPeriph_Driver/src/stm32f4xx_rcc.c ****   * @{
1633:../Libraries/STM32F4xx_StdPeriph_Driver/src/stm32f4xx_rcc.c ****   */
1634:../Libraries/STM32F4xx_StdPeriph_Driver/src/stm32f4xx_rcc.c **** 
1635:../Libraries/STM32F4xx_StdPeriph_Driver/src/stm32f4xx_rcc.c **** /**
1636:../Libraries/STM32F4xx_StdPeriph_Driver/src/stm32f4xx_rcc.c ****   * @brief  Enables or disables the specified RCC interrupts.
1637:../Libraries/STM32F4xx_StdPeriph_Driver/src/stm32f4xx_rcc.c ****   * @param  RCC_IT: specifies the RCC interrupt sources to be enabled or disabled.
1638:../Libraries/STM32F4xx_StdPeriph_Driver/src/stm32f4xx_rcc.c ****   *          This parameter can be any combination of the following values:
1639:../Libraries/STM32F4xx_StdPeriph_Driver/src/stm32f4xx_rcc.c ****   *            @arg RCC_IT_LSIRDY: LSI ready interrupt
1640:../Libraries/STM32F4xx_StdPeriph_Driver/src/stm32f4xx_rcc.c ****   *            @arg RCC_IT_LSERDY: LSE ready interrupt
1641:../Libraries/STM32F4xx_StdPeriph_Driver/src/stm32f4xx_rcc.c ****   *            @arg RCC_IT_HSIRDY: HSI ready interrupt
1642:../Libraries/STM32F4xx_StdPeriph_Driver/src/stm32f4xx_rcc.c ****   *            @arg RCC_IT_HSERDY: HSE ready interrupt
1643:../Libraries/STM32F4xx_StdPeriph_Driver/src/stm32f4xx_rcc.c ****   *            @arg RCC_IT_PLLRDY: main PLL ready interrupt
1644:../Libraries/STM32F4xx_StdPeriph_Driver/src/stm32f4xx_rcc.c ****   *            @arg RCC_IT_PLLI2SRDY: PLLI2S ready interrupt  
1645:../Libraries/STM32F4xx_StdPeriph_Driver/src/stm32f4xx_rcc.c ****   * @param  NewState: new state of the specified RCC interrupts.
1646:../Libraries/STM32F4xx_StdPeriph_Driver/src/stm32f4xx_rcc.c ****   *          This parameter can be: ENABLE or DISABLE.
1647:../Libraries/STM32F4xx_StdPeriph_Driver/src/stm32f4xx_rcc.c ****   * @retval None
1648:../Libraries/STM32F4xx_StdPeriph_Driver/src/stm32f4xx_rcc.c ****   */
1649:../Libraries/STM32F4xx_StdPeriph_Driver/src/stm32f4xx_rcc.c **** void RCC_ITConfig(uint8_t RCC_IT, FunctionalState NewState)
1650:../Libraries/STM32F4xx_StdPeriph_Driver/src/stm32f4xx_rcc.c **** {
1651:../Libraries/STM32F4xx_StdPeriph_Driver/src/stm32f4xx_rcc.c ****   /* Check the parameters */
ARM GAS  C:\Users\admin\AppData\Local\Temp\ccNLmEJ4.s 			page 34


1652:../Libraries/STM32F4xx_StdPeriph_Driver/src/stm32f4xx_rcc.c ****   assert_param(IS_RCC_IT(RCC_IT));
1653:../Libraries/STM32F4xx_StdPeriph_Driver/src/stm32f4xx_rcc.c ****   assert_param(IS_FUNCTIONAL_STATE(NewState));
1654:../Libraries/STM32F4xx_StdPeriph_Driver/src/stm32f4xx_rcc.c ****   if (NewState != DISABLE)
1655:../Libraries/STM32F4xx_StdPeriph_Driver/src/stm32f4xx_rcc.c ****   {
1656:../Libraries/STM32F4xx_StdPeriph_Driver/src/stm32f4xx_rcc.c ****     /* Perform Byte access to RCC_CIR[14:8] bits to enable the selected interrupts */
1657:../Libraries/STM32F4xx_StdPeriph_Driver/src/stm32f4xx_rcc.c ****     *(__IO uint8_t *) CIR_BYTE2_ADDRESS |= RCC_IT;
1658:../Libraries/STM32F4xx_StdPeriph_Driver/src/stm32f4xx_rcc.c ****   }
1659:../Libraries/STM32F4xx_StdPeriph_Driver/src/stm32f4xx_rcc.c ****   else
1660:../Libraries/STM32F4xx_StdPeriph_Driver/src/stm32f4xx_rcc.c ****   {
1661:../Libraries/STM32F4xx_StdPeriph_Driver/src/stm32f4xx_rcc.c ****     /* Perform Byte access to RCC_CIR[14:8] bits to disable the selected interrupts */
1662:../Libraries/STM32F4xx_StdPeriph_Driver/src/stm32f4xx_rcc.c ****     *(__IO uint8_t *) CIR_BYTE2_ADDRESS &= (uint8_t)~RCC_IT;
1663:../Libraries/STM32F4xx_StdPeriph_Driver/src/stm32f4xx_rcc.c ****   }
1664:../Libraries/STM32F4xx_StdPeriph_Driver/src/stm32f4xx_rcc.c **** }
1665:../Libraries/STM32F4xx_StdPeriph_Driver/src/stm32f4xx_rcc.c **** 
1666:../Libraries/STM32F4xx_StdPeriph_Driver/src/stm32f4xx_rcc.c **** /**
1667:../Libraries/STM32F4xx_StdPeriph_Driver/src/stm32f4xx_rcc.c ****   * @brief  Checks whether the specified RCC flag is set or not.
1668:../Libraries/STM32F4xx_StdPeriph_Driver/src/stm32f4xx_rcc.c ****   * @param  RCC_FLAG: specifies the flag to check.
1669:../Libraries/STM32F4xx_StdPeriph_Driver/src/stm32f4xx_rcc.c ****   *          This parameter can be one of the following values:
1670:../Libraries/STM32F4xx_StdPeriph_Driver/src/stm32f4xx_rcc.c ****   *            @arg RCC_FLAG_HSIRDY: HSI oscillator clock ready
1671:../Libraries/STM32F4xx_StdPeriph_Driver/src/stm32f4xx_rcc.c ****   *            @arg RCC_FLAG_HSERDY: HSE oscillator clock ready
1672:../Libraries/STM32F4xx_StdPeriph_Driver/src/stm32f4xx_rcc.c ****   *            @arg RCC_FLAG_PLLRDY: main PLL clock ready
1673:../Libraries/STM32F4xx_StdPeriph_Driver/src/stm32f4xx_rcc.c ****   *            @arg RCC_FLAG_PLLI2SRDY: PLLI2S clock ready
1674:../Libraries/STM32F4xx_StdPeriph_Driver/src/stm32f4xx_rcc.c ****   *            @arg RCC_FLAG_LSERDY: LSE oscillator clock ready
1675:../Libraries/STM32F4xx_StdPeriph_Driver/src/stm32f4xx_rcc.c ****   *            @arg RCC_FLAG_LSIRDY: LSI oscillator clock ready
1676:../Libraries/STM32F4xx_StdPeriph_Driver/src/stm32f4xx_rcc.c ****   *            @arg RCC_FLAG_BORRST: POR/PDR or BOR reset
1677:../Libraries/STM32F4xx_StdPeriph_Driver/src/stm32f4xx_rcc.c ****   *            @arg RCC_FLAG_PINRST: Pin reset
1678:../Libraries/STM32F4xx_StdPeriph_Driver/src/stm32f4xx_rcc.c ****   *            @arg RCC_FLAG_PORRST: POR/PDR reset
1679:../Libraries/STM32F4xx_StdPeriph_Driver/src/stm32f4xx_rcc.c ****   *            @arg RCC_FLAG_SFTRST: Software reset
1680:../Libraries/STM32F4xx_StdPeriph_Driver/src/stm32f4xx_rcc.c ****   *            @arg RCC_FLAG_IWDGRST: Independent Watchdog reset
1681:../Libraries/STM32F4xx_StdPeriph_Driver/src/stm32f4xx_rcc.c ****   *            @arg RCC_FLAG_WWDGRST: Window Watchdog reset
1682:../Libraries/STM32F4xx_StdPeriph_Driver/src/stm32f4xx_rcc.c ****   *            @arg RCC_FLAG_LPWRRST: Low Power reset
1683:../Libraries/STM32F4xx_StdPeriph_Driver/src/stm32f4xx_rcc.c ****   * @retval The new state of RCC_FLAG (SET or RESET).
1684:../Libraries/STM32F4xx_StdPeriph_Driver/src/stm32f4xx_rcc.c ****   */
1685:../Libraries/STM32F4xx_StdPeriph_Driver/src/stm32f4xx_rcc.c **** FlagStatus RCC_GetFlagStatus(uint8_t RCC_FLAG)
1686:../Libraries/STM32F4xx_StdPeriph_Driver/src/stm32f4xx_rcc.c **** {
1687:../Libraries/STM32F4xx_StdPeriph_Driver/src/stm32f4xx_rcc.c ****   uint32_t tmp = 0;
1688:../Libraries/STM32F4xx_StdPeriph_Driver/src/stm32f4xx_rcc.c ****   uint32_t statusreg = 0;
1689:../Libraries/STM32F4xx_StdPeriph_Driver/src/stm32f4xx_rcc.c ****   FlagStatus bitstatus = RESET;
1690:../Libraries/STM32F4xx_StdPeriph_Driver/src/stm32f4xx_rcc.c **** 
1691:../Libraries/STM32F4xx_StdPeriph_Driver/src/stm32f4xx_rcc.c ****   /* Check the parameters */
1692:../Libraries/STM32F4xx_StdPeriph_Driver/src/stm32f4xx_rcc.c ****   assert_param(IS_RCC_FLAG(RCC_FLAG));
1693:../Libraries/STM32F4xx_StdPeriph_Driver/src/stm32f4xx_rcc.c **** 
1694:../Libraries/STM32F4xx_StdPeriph_Driver/src/stm32f4xx_rcc.c ****   /* Get the RCC register index */
1695:../Libraries/STM32F4xx_StdPeriph_Driver/src/stm32f4xx_rcc.c ****   tmp = RCC_FLAG >> 5;
1696:../Libraries/STM32F4xx_StdPeriph_Driver/src/stm32f4xx_rcc.c ****   if (tmp == 1)               /* The flag to check is in CR register */
1697:../Libraries/STM32F4xx_StdPeriph_Driver/src/stm32f4xx_rcc.c ****   {
1698:../Libraries/STM32F4xx_StdPeriph_Driver/src/stm32f4xx_rcc.c ****     statusreg = RCC->CR;
 223              		.loc 1 1698 15 view .LVU29
 224 0004 0949     		ldr	r1, .L18	@ tmp123,
 225              	.LBE7:
 226              	.LBE6:
 227              	@ ../Libraries/STM32F4xx_StdPeriph_Driver/src/stm32f4xx_rcc.c:263:   __IO uint32_t startupcounter =
 263:../Libraries/STM32F4xx_StdPeriph_Driver/src/stm32f4xx_rcc.c ****   ErrorStatus status = ERROR;
 228              		.loc 1 263 17 view .LVU30
 229 0006 0193     		str	r3, [sp, #4]	@ tmp122, startupcounter
 264:../Libraries/STM32F4xx_StdPeriph_Driver/src/stm32f4xx_rcc.c ****   ErrorStatus status = ERROR;
 230              		.loc 1 264 3 is_stmt 1 view .LVU31
ARM GAS  C:\Users\admin\AppData\Local\Temp\ccNLmEJ4.s 			page 35


 231              	.LVL1:
 265:../Libraries/STM32F4xx_StdPeriph_Driver/src/stm32f4xx_rcc.c ****   /* Wait till HSE is ready and if Time out is reached exit */
 232              		.loc 1 265 3 view .LVU32
 265:../Libraries/STM32F4xx_StdPeriph_Driver/src/stm32f4xx_rcc.c ****   /* Wait till HSE is ready and if Time out is reached exit */
 233              		.loc 1 265 3 is_stmt 0 view .LVU33
 234 0008 00E0     		b	.L10		@
 235              	.LVL2:
 236              	.L17:
 237              	@ ../Libraries/STM32F4xx_StdPeriph_Driver/src/stm32f4xx_rcc.c:271:   } while((startupcounter != HSE
 271:../Libraries/STM32F4xx_StdPeriph_Driver/src/stm32f4xx_rcc.c **** 
 238              		.loc 1 271 51 discriminator 1 view .LVU34
 239 000a 4AB9     		cbnz	r2, .L9	@ shifttmp_16,
 240              	.L10:
 267:../Libraries/STM32F4xx_StdPeriph_Driver/src/stm32f4xx_rcc.c ****   {
 241              		.loc 1 267 3 is_stmt 1 discriminator 2 view .LVU35
 269:../Libraries/STM32F4xx_StdPeriph_Driver/src/stm32f4xx_rcc.c ****     startupcounter++;
 242              		.loc 1 269 5 discriminator 2 view .LVU36
 243              	.LVL3:
 244              	.LBB10:
 245              	.LBI6:
1685:../Libraries/STM32F4xx_StdPeriph_Driver/src/stm32f4xx_rcc.c **** {
 246              		.loc 1 1685 12 discriminator 2 view .LVU37
 247              	.LBB8:
1687:../Libraries/STM32F4xx_StdPeriph_Driver/src/stm32f4xx_rcc.c ****   uint32_t statusreg = 0;
 248              		.loc 1 1687 3 discriminator 2 view .LVU38
1688:../Libraries/STM32F4xx_StdPeriph_Driver/src/stm32f4xx_rcc.c ****   FlagStatus bitstatus = RESET;
 249              		.loc 1 1688 3 discriminator 2 view .LVU39
1689:../Libraries/STM32F4xx_StdPeriph_Driver/src/stm32f4xx_rcc.c **** 
 250              		.loc 1 1689 3 discriminator 2 view .LVU40
1692:../Libraries/STM32F4xx_StdPeriph_Driver/src/stm32f4xx_rcc.c **** 
 251              		.loc 1 1692 3 discriminator 2 view .LVU41
1695:../Libraries/STM32F4xx_StdPeriph_Driver/src/stm32f4xx_rcc.c ****   if (tmp == 1)               /* The flag to check is in CR register */
 252              		.loc 1 1695 3 discriminator 2 view .LVU42
1696:../Libraries/STM32F4xx_StdPeriph_Driver/src/stm32f4xx_rcc.c ****   {
 253              		.loc 1 1696 3 discriminator 2 view .LVU43
 254              		.loc 1 1698 5 discriminator 2 view .LVU44
 255              	@ ../Libraries/STM32F4xx_StdPeriph_Driver/src/stm32f4xx_rcc.c:1698:     statusreg = RCC->CR;
 256              		.loc 1 1698 15 is_stmt 0 discriminator 2 view .LVU45
 257 000c 0A68     		ldr	r2, [r1]	@ statusreg, MEM[(struct RCC_TypeDef *)1073887232B].CR
 258              	.LVL4:
1699:../Libraries/STM32F4xx_StdPeriph_Driver/src/stm32f4xx_rcc.c ****   }
1700:../Libraries/STM32F4xx_StdPeriph_Driver/src/stm32f4xx_rcc.c ****   else if (tmp == 2)          /* The flag to check is in BDCR register */
1701:../Libraries/STM32F4xx_StdPeriph_Driver/src/stm32f4xx_rcc.c ****   {
1702:../Libraries/STM32F4xx_StdPeriph_Driver/src/stm32f4xx_rcc.c ****     statusreg = RCC->BDCR;
1703:../Libraries/STM32F4xx_StdPeriph_Driver/src/stm32f4xx_rcc.c ****   }
1704:../Libraries/STM32F4xx_StdPeriph_Driver/src/stm32f4xx_rcc.c ****   else                       /* The flag to check is in CSR register */
1705:../Libraries/STM32F4xx_StdPeriph_Driver/src/stm32f4xx_rcc.c ****   {
1706:../Libraries/STM32F4xx_StdPeriph_Driver/src/stm32f4xx_rcc.c ****     statusreg = RCC->CSR;
1707:../Libraries/STM32F4xx_StdPeriph_Driver/src/stm32f4xx_rcc.c ****   }
1708:../Libraries/STM32F4xx_StdPeriph_Driver/src/stm32f4xx_rcc.c **** 
1709:../Libraries/STM32F4xx_StdPeriph_Driver/src/stm32f4xx_rcc.c ****   /* Get the flag position */
1710:../Libraries/STM32F4xx_StdPeriph_Driver/src/stm32f4xx_rcc.c ****   tmp = RCC_FLAG & FLAG_MASK;
 259              		.loc 1 1710 3 is_stmt 1 discriminator 2 view .LVU46
1711:../Libraries/STM32F4xx_StdPeriph_Driver/src/stm32f4xx_rcc.c ****   if ((statusreg & ((uint32_t)1 << tmp)) != (uint32_t)RESET)
 260              		.loc 1 1711 3 discriminator 2 view .LVU47
 261              	.LBE8:
 262              	.LBE10:
ARM GAS  C:\Users\admin\AppData\Local\Temp\ccNLmEJ4.s 			page 36


 263              	@ ../Libraries/STM32F4xx_StdPeriph_Driver/src/stm32f4xx_rcc.c:270:     startupcounter++;
 270:../Libraries/STM32F4xx_StdPeriph_Driver/src/stm32f4xx_rcc.c ****   } while((startupcounter != HSE_STARTUP_TIMEOUT) && (hsestatus == RESET));
 264              		.loc 1 270 19 is_stmt 0 discriminator 2 view .LVU48
 265 000e 019B     		ldr	r3, [sp, #4]	@ startupcounter.0_1, startupcounter
 266 0010 0133     		adds	r3, r3, #1	@ _2, startupcounter.0_1,
 267 0012 0193     		str	r3, [sp, #4]	@ _2, startupcounter
 268              	@ ../Libraries/STM32F4xx_StdPeriph_Driver/src/stm32f4xx_rcc.c:271:   } while((startupcounter != HSE
 271:../Libraries/STM32F4xx_StdPeriph_Driver/src/stm32f4xx_rcc.c **** 
 269              		.loc 1 271 27 discriminator 2 view .LVU49
 270 0014 019B     		ldr	r3, [sp, #4]	@ startupcounter.1_3, startupcounter
 271              	@ ../Libraries/STM32F4xx_StdPeriph_Driver/src/stm32f4xx_rcc.c:271:   } while((startupcounter != HSE
 271:../Libraries/STM32F4xx_StdPeriph_Driver/src/stm32f4xx_rcc.c **** 
 272              		.loc 1 271 3 discriminator 2 view .LVU50
 273 0016 B3F5A06F 		cmp	r3, #1280	@ startupcounter.1_3,
 274 001a 02F40032 		and	r2, r2, #131072	@ shifttmp_16, statusreg,
 275              	.LVL5:
 276              	.LBB11:
 277              	.LBB9:
1712:../Libraries/STM32F4xx_StdPeriph_Driver/src/stm32f4xx_rcc.c ****   {
1713:../Libraries/STM32F4xx_StdPeriph_Driver/src/stm32f4xx_rcc.c ****     bitstatus = SET;
1714:../Libraries/STM32F4xx_StdPeriph_Driver/src/stm32f4xx_rcc.c ****   }
1715:../Libraries/STM32F4xx_StdPeriph_Driver/src/stm32f4xx_rcc.c ****   else
1716:../Libraries/STM32F4xx_StdPeriph_Driver/src/stm32f4xx_rcc.c ****   {
1717:../Libraries/STM32F4xx_StdPeriph_Driver/src/stm32f4xx_rcc.c ****     bitstatus = RESET;
1718:../Libraries/STM32F4xx_StdPeriph_Driver/src/stm32f4xx_rcc.c ****   }
1719:../Libraries/STM32F4xx_StdPeriph_Driver/src/stm32f4xx_rcc.c ****   /* Return the flag status */
1720:../Libraries/STM32F4xx_StdPeriph_Driver/src/stm32f4xx_rcc.c ****   return bitstatus;
 278              		.loc 1 1720 3 is_stmt 1 discriminator 2 view .LVU51
 279              		.loc 1 1720 3 is_stmt 0 discriminator 2 view .LVU52
 280              	.LBE9:
 281              	.LBE11:
 270:../Libraries/STM32F4xx_StdPeriph_Driver/src/stm32f4xx_rcc.c ****   } while((startupcounter != HSE_STARTUP_TIMEOUT) && (hsestatus == RESET));
 282              		.loc 1 270 5 is_stmt 1 discriminator 2 view .LVU53
 271:../Libraries/STM32F4xx_StdPeriph_Driver/src/stm32f4xx_rcc.c **** 
 283              		.loc 1 271 10 discriminator 2 view .LVU54
 284              	@ ../Libraries/STM32F4xx_StdPeriph_Driver/src/stm32f4xx_rcc.c:271:   } while((startupcounter != HSE
 271:../Libraries/STM32F4xx_StdPeriph_Driver/src/stm32f4xx_rcc.c **** 
 285              		.loc 1 271 3 is_stmt 0 discriminator 2 view .LVU55
 286 001e F4D1     		bne	.L17		@,
 287              	.L9:
 273:../Libraries/STM32F4xx_StdPeriph_Driver/src/stm32f4xx_rcc.c ****   {
 288              		.loc 1 273 3 is_stmt 1 view .LVU56
 289              	.LVL6:
 290              	.LBB12:
 291              	.LBI12:
1685:../Libraries/STM32F4xx_StdPeriph_Driver/src/stm32f4xx_rcc.c **** {
 292              		.loc 1 1685 12 view .LVU57
 293              	.LBB13:
1687:../Libraries/STM32F4xx_StdPeriph_Driver/src/stm32f4xx_rcc.c ****   uint32_t statusreg = 0;
 294              		.loc 1 1687 3 view .LVU58
1688:../Libraries/STM32F4xx_StdPeriph_Driver/src/stm32f4xx_rcc.c ****   FlagStatus bitstatus = RESET;
 295              		.loc 1 1688 3 view .LVU59
1689:../Libraries/STM32F4xx_StdPeriph_Driver/src/stm32f4xx_rcc.c **** 
 296              		.loc 1 1689 3 view .LVU60
1692:../Libraries/STM32F4xx_StdPeriph_Driver/src/stm32f4xx_rcc.c **** 
 297              		.loc 1 1692 3 view .LVU61
1695:../Libraries/STM32F4xx_StdPeriph_Driver/src/stm32f4xx_rcc.c ****   if (tmp == 1)               /* The flag to check is in CR register */
ARM GAS  C:\Users\admin\AppData\Local\Temp\ccNLmEJ4.s 			page 37


 298              		.loc 1 1695 3 view .LVU62
1696:../Libraries/STM32F4xx_StdPeriph_Driver/src/stm32f4xx_rcc.c ****   {
 299              		.loc 1 1696 3 view .LVU63
1698:../Libraries/STM32F4xx_StdPeriph_Driver/src/stm32f4xx_rcc.c ****   }
 300              		.loc 1 1698 5 view .LVU64
 301              	@ ../Libraries/STM32F4xx_StdPeriph_Driver/src/stm32f4xx_rcc.c:1698:     statusreg = RCC->CR;
1698:../Libraries/STM32F4xx_StdPeriph_Driver/src/stm32f4xx_rcc.c ****   }
 302              		.loc 1 1698 15 is_stmt 0 view .LVU65
 303 0020 024B     		ldr	r3, .L18	@ tmp124,
 304 0022 1868     		ldr	r0, [r3]	@ statusreg, MEM[(struct RCC_TypeDef *)1073887232B].CR
 305              	.LVL7:
1710:../Libraries/STM32F4xx_StdPeriph_Driver/src/stm32f4xx_rcc.c ****   if ((statusreg & ((uint32_t)1 << tmp)) != (uint32_t)RESET)
 306              		.loc 1 1710 3 is_stmt 1 view .LVU66
1711:../Libraries/STM32F4xx_StdPeriph_Driver/src/stm32f4xx_rcc.c ****   {
 307              		.loc 1 1711 3 view .LVU67
 308              		.loc 1 1720 3 view .LVU68
 309              		.loc 1 1720 3 is_stmt 0 view .LVU69
 310              	.LBE13:
 311              	.LBE12:
 281:../Libraries/STM32F4xx_StdPeriph_Driver/src/stm32f4xx_rcc.c **** }
 312              		.loc 1 281 3 is_stmt 1 view .LVU70
 313              	@ ../Libraries/STM32F4xx_StdPeriph_Driver/src/stm32f4xx_rcc.c:282: }
 282:../Libraries/STM32F4xx_StdPeriph_Driver/src/stm32f4xx_rcc.c **** 
 314              		.loc 1 282 1 is_stmt 0 view .LVU71
 315 0024 C0F34040 		ubfx	r0, r0, #17, #1	@, statusreg,,
 316              	.LVL8:
 282:../Libraries/STM32F4xx_StdPeriph_Driver/src/stm32f4xx_rcc.c **** 
 317              		.loc 1 282 1 view .LVU72
 318 0028 02B0     		add	sp, sp, #8	@,,
 319              		.cfi_def_cfa_offset 0
 320              		@ sp needed	@
 321 002a 7047     		bx	lr	@
 322              	.L19:
 323              		.align	2
 324              	.L18:
 325 002c 00380240 		.word	1073887232
 326              		.cfi_endproc
 327              	.LFE112:
 328              		.size	RCC_WaitForHSEStartUp, .-RCC_WaitForHSEStartUp
 329              		.section	.text.RCC_AdjustHSICalibrationValue,"ax",%progbits
 330              		.align	1
 331              		.p2align 2,,3
 332              		.global	RCC_AdjustHSICalibrationValue
 333              		.syntax unified
 334              		.thumb
 335              		.thumb_func
 336              		.type	RCC_AdjustHSICalibrationValue, %function
 337              	RCC_AdjustHSICalibrationValue:
 338              	.LVL9:
 339              	.LFB113:
 293:../Libraries/STM32F4xx_StdPeriph_Driver/src/stm32f4xx_rcc.c ****   uint32_t tmpreg = 0;
 340              		.loc 1 293 1 is_stmt 1 view -0
 341              		.cfi_startproc
 342              		@ args = 0, pretend = 0, frame = 0
 343              		@ frame_needed = 0, uses_anonymous_args = 0
 344              		@ link register save eliminated.
 294:../Libraries/STM32F4xx_StdPeriph_Driver/src/stm32f4xx_rcc.c ****   /* Check the parameters */
ARM GAS  C:\Users\admin\AppData\Local\Temp\ccNLmEJ4.s 			page 38


 345              		.loc 1 294 3 view .LVU74
 296:../Libraries/STM32F4xx_StdPeriph_Driver/src/stm32f4xx_rcc.c **** 
 346              		.loc 1 296 3 view .LVU75
 298:../Libraries/STM32F4xx_StdPeriph_Driver/src/stm32f4xx_rcc.c **** 
 347              		.loc 1 298 3 view .LVU76
 348              	@ ../Libraries/STM32F4xx_StdPeriph_Driver/src/stm32f4xx_rcc.c:298:   tmpreg = RCC->CR;
 298:../Libraries/STM32F4xx_StdPeriph_Driver/src/stm32f4xx_rcc.c **** 
 349              		.loc 1 298 10 is_stmt 0 view .LVU77
 350 0000 034A     		ldr	r2, .L21	@ tmp119,
 351 0002 1368     		ldr	r3, [r2]	@ tmpreg, MEM[(struct RCC_TypeDef *)1073887232B].CR
 352              	.LVL10:
 301:../Libraries/STM32F4xx_StdPeriph_Driver/src/stm32f4xx_rcc.c **** 
 353              		.loc 1 301 3 is_stmt 1 view .LVU78
 354              	@ ../Libraries/STM32F4xx_StdPeriph_Driver/src/stm32f4xx_rcc.c:301:   tmpreg &= ~RCC_CR_HSITRIM;
 301:../Libraries/STM32F4xx_StdPeriph_Driver/src/stm32f4xx_rcc.c **** 
 355              		.loc 1 301 10 is_stmt 0 view .LVU79
 356 0004 23F0F803 		bic	r3, r3, #248	@ tmpreg, tmpreg,
 357              	.LVL11:
 304:../Libraries/STM32F4xx_StdPeriph_Driver/src/stm32f4xx_rcc.c **** 
 358              		.loc 1 304 3 is_stmt 1 view .LVU80
 359              	@ ../Libraries/STM32F4xx_StdPeriph_Driver/src/stm32f4xx_rcc.c:304:   tmpreg |= (uint32_t)HSICalibra
 304:../Libraries/STM32F4xx_StdPeriph_Driver/src/stm32f4xx_rcc.c **** 
 360              		.loc 1 304 10 is_stmt 0 view .LVU81
 361 0008 43EAC000 		orr	r0, r3, r0, lsl #3	@ tmpreg, tmpreg, tmp122,
 362              	.LVL12:
 307:../Libraries/STM32F4xx_StdPeriph_Driver/src/stm32f4xx_rcc.c **** }
 363              		.loc 1 307 3 is_stmt 1 view .LVU82
 364              	@ ../Libraries/STM32F4xx_StdPeriph_Driver/src/stm32f4xx_rcc.c:307:   RCC->CR = tmpreg;
 307:../Libraries/STM32F4xx_StdPeriph_Driver/src/stm32f4xx_rcc.c **** }
 365              		.loc 1 307 11 is_stmt 0 view .LVU83
 366 000c 1060     		str	r0, [r2]	@ tmpreg, MEM[(struct RCC_TypeDef *)1073887232B].CR
 367              	@ ../Libraries/STM32F4xx_StdPeriph_Driver/src/stm32f4xx_rcc.c:308: }
 308:../Libraries/STM32F4xx_StdPeriph_Driver/src/stm32f4xx_rcc.c **** 
 368              		.loc 1 308 1 view .LVU84
 369 000e 7047     		bx	lr	@
 370              	.L22:
 371              		.align	2
 372              	.L21:
 373 0010 00380240 		.word	1073887232
 374              		.cfi_endproc
 375              	.LFE113:
 376              		.size	RCC_AdjustHSICalibrationValue, .-RCC_AdjustHSICalibrationValue
 377              		.section	.text.RCC_HSICmd,"ax",%progbits
 378              		.align	1
 379              		.p2align 2,,3
 380              		.global	RCC_HSICmd
 381              		.syntax unified
 382              		.thumb
 383              		.thumb_func
 384              		.type	RCC_HSICmd, %function
 385              	RCC_HSICmd:
 386              	.LVL13:
 387              	.LFB114:
 329:../Libraries/STM32F4xx_StdPeriph_Driver/src/stm32f4xx_rcc.c ****   /* Check the parameters */
 388              		.loc 1 329 1 is_stmt 1 view -0
 389              		.cfi_startproc
 390              		@ args = 0, pretend = 0, frame = 0
ARM GAS  C:\Users\admin\AppData\Local\Temp\ccNLmEJ4.s 			page 39


 391              		@ frame_needed = 0, uses_anonymous_args = 0
 392              		@ link register save eliminated.
 331:../Libraries/STM32F4xx_StdPeriph_Driver/src/stm32f4xx_rcc.c **** 
 393              		.loc 1 331 3 view .LVU86
 333:../Libraries/STM32F4xx_StdPeriph_Driver/src/stm32f4xx_rcc.c **** }
 394              		.loc 1 333 3 view .LVU87
 395              	@ ../Libraries/STM32F4xx_StdPeriph_Driver/src/stm32f4xx_rcc.c:333:   *(__IO uint32_t *) CR_HSION_BB
 333:../Libraries/STM32F4xx_StdPeriph_Driver/src/stm32f4xx_rcc.c **** }
 396              		.loc 1 333 34 is_stmt 0 view .LVU88
 397 0000 014B     		ldr	r3, .L24	@ tmp115,
 398 0002 1860     		str	r0, [r3]	@ NewState, MEM[(volatile uint32_t *)1111949312B]
 399              	@ ../Libraries/STM32F4xx_StdPeriph_Driver/src/stm32f4xx_rcc.c:334: }
 334:../Libraries/STM32F4xx_StdPeriph_Driver/src/stm32f4xx_rcc.c **** 
 400              		.loc 1 334 1 view .LVU89
 401 0004 7047     		bx	lr	@
 402              	.L25:
 403 0006 00BF     		.align	2
 404              	.L24:
 405 0008 00004742 		.word	1111949312
 406              		.cfi_endproc
 407              	.LFE114:
 408              		.size	RCC_HSICmd, .-RCC_HSICmd
 409              		.section	.text.RCC_LSEConfig,"ax",%progbits
 410              		.align	1
 411              		.p2align 2,,3
 412              		.global	RCC_LSEConfig
 413              		.syntax unified
 414              		.thumb
 415              		.thumb_func
 416              		.type	RCC_LSEConfig, %function
 417              	RCC_LSEConfig:
 418              	.LVL14:
 419              	.LFB115:
 354:../Libraries/STM32F4xx_StdPeriph_Driver/src/stm32f4xx_rcc.c ****   /* Check the parameters */
 420              		.loc 1 354 1 is_stmt 1 view -0
 421              		.cfi_startproc
 422              		@ args = 0, pretend = 0, frame = 0
 423              		@ frame_needed = 0, uses_anonymous_args = 0
 424              		@ link register save eliminated.
 356:../Libraries/STM32F4xx_StdPeriph_Driver/src/stm32f4xx_rcc.c **** 
 425              		.loc 1 356 3 view .LVU91
 360:../Libraries/STM32F4xx_StdPeriph_Driver/src/stm32f4xx_rcc.c **** 
 426              		.loc 1 360 3 view .LVU92
 427              	@ ../Libraries/STM32F4xx_StdPeriph_Driver/src/stm32f4xx_rcc.c:360:   *(__IO uint8_t *) BDCR_ADDRESS
 360:../Libraries/STM32F4xx_StdPeriph_Driver/src/stm32f4xx_rcc.c **** 
 428              		.loc 1 360 34 is_stmt 0 view .LVU93
 429 0000 084B     		ldr	r3, .L31	@ tmp114,
 430 0002 0022     		movs	r2, #0	@ tmp115,
 431              	@ ../Libraries/STM32F4xx_StdPeriph_Driver/src/stm32f4xx_rcc.c:366:   switch (RCC_LSE)
 366:../Libraries/STM32F4xx_StdPeriph_Driver/src/stm32f4xx_rcc.c ****   {
 432              		.loc 1 366 3 view .LVU94
 433 0004 0128     		cmp	r0, #1	@ RCC_LSE,
 434              	@ ../Libraries/STM32F4xx_StdPeriph_Driver/src/stm32f4xx_rcc.c:360:   *(__IO uint8_t *) BDCR_ADDRESS
 360:../Libraries/STM32F4xx_StdPeriph_Driver/src/stm32f4xx_rcc.c **** 
 435              		.loc 1 360 34 view .LVU95
 436 0006 83F87020 		strb	r2, [r3, #112]	@ tmp115, MEM[(volatile uint8_t *)1073887344B]
 363:../Libraries/STM32F4xx_StdPeriph_Driver/src/stm32f4xx_rcc.c **** 
ARM GAS  C:\Users\admin\AppData\Local\Temp\ccNLmEJ4.s 			page 40


 437              		.loc 1 363 3 is_stmt 1 view .LVU96
 438              	@ ../Libraries/STM32F4xx_StdPeriph_Driver/src/stm32f4xx_rcc.c:363:   *(__IO uint8_t *) BDCR_ADDRESS
 363:../Libraries/STM32F4xx_StdPeriph_Driver/src/stm32f4xx_rcc.c **** 
 439              		.loc 1 363 34 is_stmt 0 view .LVU97
 440 000a 83F87020 		strb	r2, [r3, #112]	@ tmp115, MEM[(volatile uint8_t *)1073887344B]
 366:../Libraries/STM32F4xx_StdPeriph_Driver/src/stm32f4xx_rcc.c ****   {
 441              		.loc 1 366 3 is_stmt 1 view .LVU98
 442 000e 06D0     		beq	.L27		@,
 443 0010 0428     		cmp	r0, #4	@ RCC_LSE,
 444 0012 03D1     		bne	.L30		@,
 374:../Libraries/STM32F4xx_StdPeriph_Driver/src/stm32f4xx_rcc.c ****       break;
 445              		.loc 1 374 7 view .LVU99
 446              	@ ../Libraries/STM32F4xx_StdPeriph_Driver/src/stm32f4xx_rcc.c:374:       *(__IO uint8_t *) BDCR_ADD
 374:../Libraries/STM32F4xx_StdPeriph_Driver/src/stm32f4xx_rcc.c ****       break;
 447              		.loc 1 374 38 is_stmt 0 view .LVU100
 448 0014 0522     		movs	r2, #5	@ tmp124,
 449 0016 83F87020 		strb	r2, [r3, #112]	@ tmp124, MEM[(volatile uint8_t *)1073887344B]
 375:../Libraries/STM32F4xx_StdPeriph_Driver/src/stm32f4xx_rcc.c ****     default:
 450              		.loc 1 375 7 is_stmt 1 view .LVU101
 451              	@ ../Libraries/STM32F4xx_StdPeriph_Driver/src/stm32f4xx_rcc.c:379: }
 379:../Libraries/STM32F4xx_StdPeriph_Driver/src/stm32f4xx_rcc.c **** 
 452              		.loc 1 379 1 is_stmt 0 view .LVU102
 453 001a 7047     		bx	lr	@
 454              	.L30:
 455 001c 7047     		bx	lr	@
 456              	.L27:
 370:../Libraries/STM32F4xx_StdPeriph_Driver/src/stm32f4xx_rcc.c ****       break;
 457              		.loc 1 370 7 is_stmt 1 view .LVU103
 458              	@ ../Libraries/STM32F4xx_StdPeriph_Driver/src/stm32f4xx_rcc.c:370:       *(__IO uint8_t *) BDCR_ADD
 370:../Libraries/STM32F4xx_StdPeriph_Driver/src/stm32f4xx_rcc.c ****       break;
 459              		.loc 1 370 38 is_stmt 0 view .LVU104
 460 001e 83F87000 		strb	r0, [r3, #112]	@ RCC_LSE, MEM[(volatile uint8_t *)1073887344B]
 371:../Libraries/STM32F4xx_StdPeriph_Driver/src/stm32f4xx_rcc.c ****     case RCC_LSE_Bypass:
 461              		.loc 1 371 7 is_stmt 1 view .LVU105
 462 0022 7047     		bx	lr	@
 463              	.L32:
 464              		.align	2
 465              	.L31:
 466 0024 00380240 		.word	1073887232
 467              		.cfi_endproc
 468              	.LFE115:
 469              		.size	RCC_LSEConfig, .-RCC_LSEConfig
 470              		.section	.text.RCC_LSICmd,"ax",%progbits
 471              		.align	1
 472              		.p2align 2,,3
 473              		.global	RCC_LSICmd
 474              		.syntax unified
 475              		.thumb
 476              		.thumb_func
 477              		.type	RCC_LSICmd, %function
 478              	RCC_LSICmd:
 479              	.LVL15:
 480              	.LFB116:
 394:../Libraries/STM32F4xx_StdPeriph_Driver/src/stm32f4xx_rcc.c ****   /* Check the parameters */
 481              		.loc 1 394 1 view -0
 482              		.cfi_startproc
 483              		@ args = 0, pretend = 0, frame = 0
ARM GAS  C:\Users\admin\AppData\Local\Temp\ccNLmEJ4.s 			page 41


 484              		@ frame_needed = 0, uses_anonymous_args = 0
 485              		@ link register save eliminated.
 396:../Libraries/STM32F4xx_StdPeriph_Driver/src/stm32f4xx_rcc.c **** 
 486              		.loc 1 396 3 view .LVU107
 398:../Libraries/STM32F4xx_StdPeriph_Driver/src/stm32f4xx_rcc.c **** }
 487              		.loc 1 398 3 view .LVU108
 488              	@ ../Libraries/STM32F4xx_StdPeriph_Driver/src/stm32f4xx_rcc.c:398:   *(__IO uint32_t *) CSR_LSION_B
 398:../Libraries/STM32F4xx_StdPeriph_Driver/src/stm32f4xx_rcc.c **** }
 489              		.loc 1 398 35 is_stmt 0 view .LVU109
 490 0000 014B     		ldr	r3, .L34	@ tmp115,
 491 0002 C3F8800E 		str	r0, [r3, #3712]	@ NewState, MEM[(volatile uint32_t *)1111953024B]
 492              	@ ../Libraries/STM32F4xx_StdPeriph_Driver/src/stm32f4xx_rcc.c:399: }
 399:../Libraries/STM32F4xx_StdPeriph_Driver/src/stm32f4xx_rcc.c **** 
 493              		.loc 1 399 1 view .LVU110
 494 0006 7047     		bx	lr	@
 495              	.L35:
 496              		.align	2
 497              	.L34:
 498 0008 00004742 		.word	1111949312
 499              		.cfi_endproc
 500              	.LFE116:
 501              		.size	RCC_LSICmd, .-RCC_LSICmd
 502              		.section	.text.RCC_PLLConfig,"ax",%progbits
 503              		.align	1
 504              		.p2align 2,,3
 505              		.global	RCC_PLLConfig
 506              		.syntax unified
 507              		.thumb
 508              		.thumb_func
 509              		.type	RCC_PLLConfig, %function
 510              	RCC_PLLConfig:
 511              	.LVL16:
 512              	.LFB117:
 437:../Libraries/STM32F4xx_StdPeriph_Driver/src/stm32f4xx_rcc.c ****   /* Check the parameters */
 513              		.loc 1 437 1 is_stmt 1 view -0
 514              		.cfi_startproc
 515              		@ args = 4, pretend = 0, frame = 0
 516              		@ frame_needed = 0, uses_anonymous_args = 0
 517              		@ link register save eliminated.
 439:../Libraries/STM32F4xx_StdPeriph_Driver/src/stm32f4xx_rcc.c ****   assert_param(IS_RCC_PLLM_VALUE(PLLM));
 518              		.loc 1 439 3 view .LVU112
 440:../Libraries/STM32F4xx_StdPeriph_Driver/src/stm32f4xx_rcc.c ****   assert_param(IS_RCC_PLLN_VALUE(PLLN));
 519              		.loc 1 440 3 view .LVU113
 441:../Libraries/STM32F4xx_StdPeriph_Driver/src/stm32f4xx_rcc.c ****   assert_param(IS_RCC_PLLP_VALUE(PLLP));
 520              		.loc 1 441 3 view .LVU114
 442:../Libraries/STM32F4xx_StdPeriph_Driver/src/stm32f4xx_rcc.c ****   assert_param(IS_RCC_PLLQ_VALUE(PLLQ));
 521              		.loc 1 442 3 view .LVU115
 443:../Libraries/STM32F4xx_StdPeriph_Driver/src/stm32f4xx_rcc.c **** 
 522              		.loc 1 443 3 view .LVU116
 445:../Libraries/STM32F4xx_StdPeriph_Driver/src/stm32f4xx_rcc.c ****                  (PLLQ << 24);
 523              		.loc 1 445 3 view .LVU117
 524              	@ ../Libraries/STM32F4xx_StdPeriph_Driver/src/stm32f4xx_rcc.c:437: {
 437:../Libraries/STM32F4xx_StdPeriph_Driver/src/stm32f4xx_rcc.c ****   /* Check the parameters */
 525              		.loc 1 437 1 is_stmt 0 view .LVU118
 526 0000 10B4     		push	{r4}	@
 527              		.cfi_def_cfa_offset 4
 528              		.cfi_offset 4, -4
ARM GAS  C:\Users\admin\AppData\Local\Temp\ccNLmEJ4.s 			page 42


 529              	@ ../Libraries/STM32F4xx_StdPeriph_Driver/src/stm32f4xx_rcc.c:437: {
 437:../Libraries/STM32F4xx_StdPeriph_Driver/src/stm32f4xx_rcc.c ****   /* Check the parameters */
 530              		.loc 1 437 1 view .LVU119
 531 0002 019C     		ldr	r4, [sp, #4]	@ PLLQ, PLLQ
 532              	@ ../Libraries/STM32F4xx_StdPeriph_Driver/src/stm32f4xx_rcc.c:445:   RCC->PLLCFGR = PLLM | (PLLN <<
 445:../Libraries/STM32F4xx_StdPeriph_Driver/src/stm32f4xx_rcc.c ****                  (PLLQ << 24);
 533              		.loc 1 445 82 view .LVU120
 534 0004 40EA0460 		orr	r0, r0, r4, lsl #24	@ tmp128, tmp136, PLLQ,
 535              	.LVL17:
 445:../Libraries/STM32F4xx_StdPeriph_Driver/src/stm32f4xx_rcc.c ****                  (PLLQ << 24);
 536              		.loc 1 445 82 view .LVU121
 537 0008 0843     		orrs	r0, r0, r1	@, tmp129, tmp128, tmp137
 538              	@ ../Libraries/STM32F4xx_StdPeriph_Driver/src/stm32f4xx_rcc.c:445:   RCC->PLLCFGR = PLLM | (PLLN <<
 445:../Libraries/STM32F4xx_StdPeriph_Driver/src/stm32f4xx_rcc.c ****                  (PLLQ << 24);
 539              		.loc 1 445 47 view .LVU122
 540 000a 5B08     		lsrs	r3, r3, #1	@ tmp132, tmp139,
 541              	.LVL18:
 542              	@ ../Libraries/STM32F4xx_StdPeriph_Driver/src/stm32f4xx_rcc.c:445:   RCC->PLLCFGR = PLLM | (PLLN <<
 445:../Libraries/STM32F4xx_StdPeriph_Driver/src/stm32f4xx_rcc.c ****                  (PLLQ << 24);
 543              		.loc 1 445 16 view .LVU123
 544 000c 044C     		ldr	r4, .L38	@ tmp135,
 545              	@ ../Libraries/STM32F4xx_StdPeriph_Driver/src/stm32f4xx_rcc.c:445:   RCC->PLLCFGR = PLLM | (PLLN <<
 445:../Libraries/STM32F4xx_StdPeriph_Driver/src/stm32f4xx_rcc.c ****                  (PLLQ << 24);
 546              		.loc 1 445 82 view .LVU124
 547 000e 40EA8210 		orr	r0, r0, r2, lsl #6	@ tmp131, tmp129, tmp138,
 548              	@ ../Libraries/STM32F4xx_StdPeriph_Driver/src/stm32f4xx_rcc.c:445:   RCC->PLLCFGR = PLLM | (PLLN <<
 445:../Libraries/STM32F4xx_StdPeriph_Driver/src/stm32f4xx_rcc.c ****                  (PLLQ << 24);
 549              		.loc 1 445 53 view .LVU125
 550 0012 013B     		subs	r3, r3, #1	@ tmp133, tmp132,
 551              	@ ../Libraries/STM32F4xx_StdPeriph_Driver/src/stm32f4xx_rcc.c:445:   RCC->PLLCFGR = PLLM | (PLLN <<
 445:../Libraries/STM32F4xx_StdPeriph_Driver/src/stm32f4xx_rcc.c ****                  (PLLQ << 24);
 552              		.loc 1 445 82 view .LVU126
 553 0014 40EA0340 		orr	r0, r0, r3, lsl #16	@ _9, tmp131, tmp133,
 554              	@ ../Libraries/STM32F4xx_StdPeriph_Driver/src/stm32f4xx_rcc.c:445:   RCC->PLLCFGR = PLLM | (PLLN <<
 445:../Libraries/STM32F4xx_StdPeriph_Driver/src/stm32f4xx_rcc.c ****                  (PLLQ << 24);
 555              		.loc 1 445 16 view .LVU127
 556 0018 6060     		str	r0, [r4, #4]	@ _9, MEM[(struct RCC_TypeDef *)1073887232B].PLLCFGR
 557              	.LVL19:
 558              	@ ../Libraries/STM32F4xx_StdPeriph_Driver/src/stm32f4xx_rcc.c:447: }
 447:../Libraries/STM32F4xx_StdPeriph_Driver/src/stm32f4xx_rcc.c **** 
 559              		.loc 1 447 1 view .LVU128
 560 001a 5DF8044B 		ldr	r4, [sp], #4	@,
 561              		.cfi_restore 4
 562              		.cfi_def_cfa_offset 0
 563 001e 7047     		bx	lr	@
 564              	.L39:
 565              		.align	2
 566              	.L38:
 567 0020 00380240 		.word	1073887232
 568              		.cfi_endproc
 569              	.LFE117:
 570              		.size	RCC_PLLConfig, .-RCC_PLLConfig
 571              		.section	.text.RCC_PLLCmd,"ax",%progbits
 572              		.align	1
 573              		.p2align 2,,3
 574              		.global	RCC_PLLCmd
 575              		.syntax unified
ARM GAS  C:\Users\admin\AppData\Local\Temp\ccNLmEJ4.s 			page 43


 576              		.thumb
 577              		.thumb_func
 578              		.type	RCC_PLLCmd, %function
 579              	RCC_PLLCmd:
 580              	.LVL20:
 581              	.LFB118:
 460:../Libraries/STM32F4xx_StdPeriph_Driver/src/stm32f4xx_rcc.c ****   /* Check the parameters */
 582              		.loc 1 460 1 is_stmt 1 view -0
 583              		.cfi_startproc
 584              		@ args = 0, pretend = 0, frame = 0
 585              		@ frame_needed = 0, uses_anonymous_args = 0
 586              		@ link register save eliminated.
 462:../Libraries/STM32F4xx_StdPeriph_Driver/src/stm32f4xx_rcc.c ****   *(__IO uint32_t *) CR_PLLON_BB = (uint32_t)NewState;
 587              		.loc 1 462 3 view .LVU130
 463:../Libraries/STM32F4xx_StdPeriph_Driver/src/stm32f4xx_rcc.c **** }
 588              		.loc 1 463 3 view .LVU131
 589              	@ ../Libraries/STM32F4xx_StdPeriph_Driver/src/stm32f4xx_rcc.c:463:   *(__IO uint32_t *) CR_PLLON_BB
 463:../Libraries/STM32F4xx_StdPeriph_Driver/src/stm32f4xx_rcc.c **** }
 590              		.loc 1 463 34 is_stmt 0 view .LVU132
 591 0000 014B     		ldr	r3, .L41	@ tmp115,
 592 0002 1866     		str	r0, [r3, #96]	@ NewState, MEM[(volatile uint32_t *)1111949408B]
 593              	@ ../Libraries/STM32F4xx_StdPeriph_Driver/src/stm32f4xx_rcc.c:464: }
 464:../Libraries/STM32F4xx_StdPeriph_Driver/src/stm32f4xx_rcc.c **** 
 594              		.loc 1 464 1 view .LVU133
 595 0004 7047     		bx	lr	@
 596              	.L42:
 597 0006 00BF     		.align	2
 598              	.L41:
 599 0008 00004742 		.word	1111949312
 600              		.cfi_endproc
 601              	.LFE118:
 602              		.size	RCC_PLLCmd, .-RCC_PLLCmd
 603              		.section	.text.RCC_PLLI2SConfig,"ax",%progbits
 604              		.align	1
 605              		.p2align 2,,3
 606              		.global	RCC_PLLI2SConfig
 607              		.syntax unified
 608              		.thumb
 609              		.thumb_func
 610              		.type	RCC_PLLI2SConfig, %function
 611              	RCC_PLLI2SConfig:
 612              	.LVL21:
 613              	.LFB119:
 486:../Libraries/STM32F4xx_StdPeriph_Driver/src/stm32f4xx_rcc.c ****   /* Check the parameters */
 614              		.loc 1 486 1 is_stmt 1 view -0
 615              		.cfi_startproc
 616              		@ args = 0, pretend = 0, frame = 0
 617              		@ frame_needed = 0, uses_anonymous_args = 0
 618              		@ link register save eliminated.
 488:../Libraries/STM32F4xx_StdPeriph_Driver/src/stm32f4xx_rcc.c ****   assert_param(IS_RCC_PLLI2SR_VALUE(PLLI2SR));
 619              		.loc 1 488 3 view .LVU135
 489:../Libraries/STM32F4xx_StdPeriph_Driver/src/stm32f4xx_rcc.c **** 
 620              		.loc 1 489 3 view .LVU136
 491:../Libraries/STM32F4xx_StdPeriph_Driver/src/stm32f4xx_rcc.c **** }
 621              		.loc 1 491 3 view .LVU137
 622              	@ ../Libraries/STM32F4xx_StdPeriph_Driver/src/stm32f4xx_rcc.c:491:   RCC->PLLI2SCFGR = (PLLI2SN << 
 491:../Libraries/STM32F4xx_StdPeriph_Driver/src/stm32f4xx_rcc.c **** }
ARM GAS  C:\Users\admin\AppData\Local\Temp\ccNLmEJ4.s 			page 44


 623              		.loc 1 491 19 is_stmt 0 view .LVU138
 624 0000 034B     		ldr	r3, .L44	@ tmp120,
 625              	@ ../Libraries/STM32F4xx_StdPeriph_Driver/src/stm32f4xx_rcc.c:491:   RCC->PLLI2SCFGR = (PLLI2SN << 
 491:../Libraries/STM32F4xx_StdPeriph_Driver/src/stm32f4xx_rcc.c **** }
 626              		.loc 1 491 47 view .LVU139
 627 0002 0907     		lsls	r1, r1, #28	@ tmp119, tmp122,
 628              	.LVL22:
 629              	@ ../Libraries/STM32F4xx_StdPeriph_Driver/src/stm32f4xx_rcc.c:491:   RCC->PLLI2SCFGR = (PLLI2SN << 
 491:../Libraries/STM32F4xx_StdPeriph_Driver/src/stm32f4xx_rcc.c **** }
 630              		.loc 1 491 36 view .LVU140
 631 0004 41EA8011 		orr	r1, r1, r0, lsl #6	@ _3, tmp119, tmp121,
 632              	@ ../Libraries/STM32F4xx_StdPeriph_Driver/src/stm32f4xx_rcc.c:491:   RCC->PLLI2SCFGR = (PLLI2SN << 
 491:../Libraries/STM32F4xx_StdPeriph_Driver/src/stm32f4xx_rcc.c **** }
 633              		.loc 1 491 19 view .LVU141
 634 0008 C3F88410 		str	r1, [r3, #132]	@ _3, MEM[(struct RCC_TypeDef *)1073887232B].PLLI2SCFGR
 635              	@ ../Libraries/STM32F4xx_StdPeriph_Driver/src/stm32f4xx_rcc.c:492: }
 492:../Libraries/STM32F4xx_StdPeriph_Driver/src/stm32f4xx_rcc.c **** 
 636              		.loc 1 492 1 view .LVU142
 637 000c 7047     		bx	lr	@
 638              	.L45:
 639 000e 00BF     		.align	2
 640              	.L44:
 641 0010 00380240 		.word	1073887232
 642              		.cfi_endproc
 643              	.LFE119:
 644              		.size	RCC_PLLI2SConfig, .-RCC_PLLI2SConfig
 645              		.section	.text.RCC_PLLI2SCmd,"ax",%progbits
 646              		.align	1
 647              		.p2align 2,,3
 648              		.global	RCC_PLLI2SCmd
 649              		.syntax unified
 650              		.thumb
 651              		.thumb_func
 652              		.type	RCC_PLLI2SCmd, %function
 653              	RCC_PLLI2SCmd:
 654              	.LVL23:
 655              	.LFB120:
 501:../Libraries/STM32F4xx_StdPeriph_Driver/src/stm32f4xx_rcc.c ****   /* Check the parameters */
 656              		.loc 1 501 1 is_stmt 1 view -0
 657              		.cfi_startproc
 658              		@ args = 0, pretend = 0, frame = 0
 659              		@ frame_needed = 0, uses_anonymous_args = 0
 660              		@ link register save eliminated.
 503:../Libraries/STM32F4xx_StdPeriph_Driver/src/stm32f4xx_rcc.c ****   *(__IO uint32_t *) CR_PLLI2SON_BB = (uint32_t)NewState;
 661              		.loc 1 503 3 view .LVU144
 504:../Libraries/STM32F4xx_StdPeriph_Driver/src/stm32f4xx_rcc.c **** }
 662              		.loc 1 504 3 view .LVU145
 663              	@ ../Libraries/STM32F4xx_StdPeriph_Driver/src/stm32f4xx_rcc.c:504:   *(__IO uint32_t *) CR_PLLI2SON
 504:../Libraries/STM32F4xx_StdPeriph_Driver/src/stm32f4xx_rcc.c **** }
 664              		.loc 1 504 37 is_stmt 0 view .LVU146
 665 0000 014B     		ldr	r3, .L47	@ tmp115,
 666 0002 9866     		str	r0, [r3, #104]	@ NewState, MEM[(volatile uint32_t *)1111949416B]
 667              	@ ../Libraries/STM32F4xx_StdPeriph_Driver/src/stm32f4xx_rcc.c:505: }
 505:../Libraries/STM32F4xx_StdPeriph_Driver/src/stm32f4xx_rcc.c **** 
 668              		.loc 1 505 1 view .LVU147
 669 0004 7047     		bx	lr	@
 670              	.L48:
ARM GAS  C:\Users\admin\AppData\Local\Temp\ccNLmEJ4.s 			page 45


 671 0006 00BF     		.align	2
 672              	.L47:
 673 0008 00004742 		.word	1111949312
 674              		.cfi_endproc
 675              	.LFE120:
 676              		.size	RCC_PLLI2SCmd, .-RCC_PLLI2SCmd
 677              		.section	.text.RCC_ClockSecuritySystemCmd,"ax",%progbits
 678              		.align	1
 679              		.p2align 2,,3
 680              		.global	RCC_ClockSecuritySystemCmd
 681              		.syntax unified
 682              		.thumb
 683              		.thumb_func
 684              		.type	RCC_ClockSecuritySystemCmd, %function
 685              	RCC_ClockSecuritySystemCmd:
 686              	.LVL24:
 687              	.LFB121:
 519:../Libraries/STM32F4xx_StdPeriph_Driver/src/stm32f4xx_rcc.c ****   /* Check the parameters */
 688              		.loc 1 519 1 is_stmt 1 view -0
 689              		.cfi_startproc
 690              		@ args = 0, pretend = 0, frame = 0
 691              		@ frame_needed = 0, uses_anonymous_args = 0
 692              		@ link register save eliminated.
 521:../Libraries/STM32F4xx_StdPeriph_Driver/src/stm32f4xx_rcc.c ****   *(__IO uint32_t *) CR_CSSON_BB = (uint32_t)NewState;
 693              		.loc 1 521 3 view .LVU149
 522:../Libraries/STM32F4xx_StdPeriph_Driver/src/stm32f4xx_rcc.c **** }
 694              		.loc 1 522 3 view .LVU150
 695              	@ ../Libraries/STM32F4xx_StdPeriph_Driver/src/stm32f4xx_rcc.c:522:   *(__IO uint32_t *) CR_CSSON_BB
 522:../Libraries/STM32F4xx_StdPeriph_Driver/src/stm32f4xx_rcc.c **** }
 696              		.loc 1 522 34 is_stmt 0 view .LVU151
 697 0000 014B     		ldr	r3, .L50	@ tmp115,
 698 0002 D864     		str	r0, [r3, #76]	@ NewState, MEM[(volatile uint32_t *)1111949388B]
 699              	@ ../Libraries/STM32F4xx_StdPeriph_Driver/src/stm32f4xx_rcc.c:523: }
 523:../Libraries/STM32F4xx_StdPeriph_Driver/src/stm32f4xx_rcc.c **** 
 700              		.loc 1 523 1 view .LVU152
 701 0004 7047     		bx	lr	@
 702              	.L51:
 703 0006 00BF     		.align	2
 704              	.L50:
 705 0008 00004742 		.word	1111949312
 706              		.cfi_endproc
 707              	.LFE121:
 708              		.size	RCC_ClockSecuritySystemCmd, .-RCC_ClockSecuritySystemCmd
 709              		.section	.text.RCC_MCO1Config,"ax",%progbits
 710              		.align	1
 711              		.p2align 2,,3
 712              		.global	RCC_MCO1Config
 713              		.syntax unified
 714              		.thumb
 715              		.thumb_func
 716              		.type	RCC_MCO1Config, %function
 717              	RCC_MCO1Config:
 718              	.LVL25:
 719              	.LFB122:
 544:../Libraries/STM32F4xx_StdPeriph_Driver/src/stm32f4xx_rcc.c ****   uint32_t tmpreg = 0;
 720              		.loc 1 544 1 is_stmt 1 view -0
 721              		.cfi_startproc
ARM GAS  C:\Users\admin\AppData\Local\Temp\ccNLmEJ4.s 			page 46


 722              		@ args = 0, pretend = 0, frame = 0
 723              		@ frame_needed = 0, uses_anonymous_args = 0
 724              		@ link register save eliminated.
 545:../Libraries/STM32F4xx_StdPeriph_Driver/src/stm32f4xx_rcc.c ****   
 725              		.loc 1 545 3 view .LVU154
 548:../Libraries/STM32F4xx_StdPeriph_Driver/src/stm32f4xx_rcc.c ****   assert_param(IS_RCC_MCO1DIV(RCC_MCO1Div));  
 726              		.loc 1 548 3 view .LVU155
 549:../Libraries/STM32F4xx_StdPeriph_Driver/src/stm32f4xx_rcc.c **** 
 727              		.loc 1 549 3 view .LVU156
 551:../Libraries/STM32F4xx_StdPeriph_Driver/src/stm32f4xx_rcc.c **** 
 728              		.loc 1 551 3 view .LVU157
 729              	@ ../Libraries/STM32F4xx_StdPeriph_Driver/src/stm32f4xx_rcc.c:551:   tmpreg = RCC->CFGR;
 551:../Libraries/STM32F4xx_StdPeriph_Driver/src/stm32f4xx_rcc.c **** 
 730              		.loc 1 551 10 is_stmt 0 view .LVU158
 731 0000 034A     		ldr	r2, .L53	@ tmp119,
 732 0002 9368     		ldr	r3, [r2, #8]	@ tmpreg, MEM[(struct RCC_TypeDef *)1073887232B].CFGR
 733              	.LVL26:
 554:../Libraries/STM32F4xx_StdPeriph_Driver/src/stm32f4xx_rcc.c **** 
 734              		.loc 1 554 3 is_stmt 1 view .LVU159
 557:../Libraries/STM32F4xx_StdPeriph_Driver/src/stm32f4xx_rcc.c **** 
 735              		.loc 1 557 3 view .LVU160
 736              	@ ../Libraries/STM32F4xx_StdPeriph_Driver/src/stm32f4xx_rcc.c:554:   tmpreg &= CFGR_MCO1_RESET_MASK
 554:../Libraries/STM32F4xx_StdPeriph_Driver/src/stm32f4xx_rcc.c **** 
 737              		.loc 1 554 10 is_stmt 0 view .LVU161
 738 0004 23F0EC63 		bic	r3, r3, #123731968	@ tmpreg, tmpreg,
 739              	.LVL27:
 554:../Libraries/STM32F4xx_StdPeriph_Driver/src/stm32f4xx_rcc.c **** 
 740              		.loc 1 554 10 view .LVU162
 741 0008 0B43     		orrs	r3, r3, r1	@, _9, tmpreg, tmp123
 742              	.LVL28:
 743              	@ ../Libraries/STM32F4xx_StdPeriph_Driver/src/stm32f4xx_rcc.c:557:   tmpreg |= RCC_MCO1Source | RCC
 557:../Libraries/STM32F4xx_StdPeriph_Driver/src/stm32f4xx_rcc.c **** 
 744              		.loc 1 557 10 view .LVU163
 745 000a 0343     		orrs	r3, r3, r0	@, tmpreg, _9, tmp122
 746              	.LVL29:
 560:../Libraries/STM32F4xx_StdPeriph_Driver/src/stm32f4xx_rcc.c **** }
 747              		.loc 1 560 3 is_stmt 1 view .LVU164
 748              	@ ../Libraries/STM32F4xx_StdPeriph_Driver/src/stm32f4xx_rcc.c:560:   RCC->CFGR = tmpreg;  
 560:../Libraries/STM32F4xx_StdPeriph_Driver/src/stm32f4xx_rcc.c **** }
 749              		.loc 1 560 13 is_stmt 0 view .LVU165
 750 000c 9360     		str	r3, [r2, #8]	@ tmpreg, MEM[(struct RCC_TypeDef *)1073887232B].CFGR
 751              	@ ../Libraries/STM32F4xx_StdPeriph_Driver/src/stm32f4xx_rcc.c:561: }
 561:../Libraries/STM32F4xx_StdPeriph_Driver/src/stm32f4xx_rcc.c **** 
 752              		.loc 1 561 1 view .LVU166
 753 000e 7047     		bx	lr	@
 754              	.L54:
 755              		.align	2
 756              	.L53:
 757 0010 00380240 		.word	1073887232
 758              		.cfi_endproc
 759              	.LFE122:
 760              		.size	RCC_MCO1Config, .-RCC_MCO1Config
 761              		.section	.text.RCC_MCO2Config,"ax",%progbits
 762              		.align	1
 763              		.p2align 2,,3
 764              		.global	RCC_MCO2Config
 765              		.syntax unified
ARM GAS  C:\Users\admin\AppData\Local\Temp\ccNLmEJ4.s 			page 47


 766              		.thumb
 767              		.thumb_func
 768              		.type	RCC_MCO2Config, %function
 769              	RCC_MCO2Config:
 770              	.LVL30:
 771              	.LFB123:
 582:../Libraries/STM32F4xx_StdPeriph_Driver/src/stm32f4xx_rcc.c ****   uint32_t tmpreg = 0;
 772              		.loc 1 582 1 is_stmt 1 view -0
 773              		.cfi_startproc
 774              		@ args = 0, pretend = 0, frame = 0
 775              		@ frame_needed = 0, uses_anonymous_args = 0
 776              		@ link register save eliminated.
 583:../Libraries/STM32F4xx_StdPeriph_Driver/src/stm32f4xx_rcc.c ****   
 777              		.loc 1 583 3 view .LVU168
 586:../Libraries/STM32F4xx_StdPeriph_Driver/src/stm32f4xx_rcc.c ****   assert_param(IS_RCC_MCO2DIV(RCC_MCO2Div));
 778              		.loc 1 586 3 view .LVU169
 587:../Libraries/STM32F4xx_StdPeriph_Driver/src/stm32f4xx_rcc.c ****   
 779              		.loc 1 587 3 view .LVU170
 589:../Libraries/STM32F4xx_StdPeriph_Driver/src/stm32f4xx_rcc.c ****   
 780              		.loc 1 589 3 view .LVU171
 781              	@ ../Libraries/STM32F4xx_StdPeriph_Driver/src/stm32f4xx_rcc.c:589:   tmpreg = RCC->CFGR;
 589:../Libraries/STM32F4xx_StdPeriph_Driver/src/stm32f4xx_rcc.c ****   
 782              		.loc 1 589 10 is_stmt 0 view .LVU172
 783 0000 034A     		ldr	r2, .L56	@ tmp119,
 784 0002 9368     		ldr	r3, [r2, #8]	@ tmpreg, MEM[(struct RCC_TypeDef *)1073887232B].CFGR
 785              	.LVL31:
 592:../Libraries/STM32F4xx_StdPeriph_Driver/src/stm32f4xx_rcc.c **** 
 786              		.loc 1 592 3 is_stmt 1 view .LVU173
 595:../Libraries/STM32F4xx_StdPeriph_Driver/src/stm32f4xx_rcc.c **** 
 787              		.loc 1 595 3 view .LVU174
 788              	@ ../Libraries/STM32F4xx_StdPeriph_Driver/src/stm32f4xx_rcc.c:592:   tmpreg &= CFGR_MCO2_RESET_MASK
 592:../Libraries/STM32F4xx_StdPeriph_Driver/src/stm32f4xx_rcc.c **** 
 789              		.loc 1 592 10 is_stmt 0 view .LVU175
 790 0004 23F07843 		bic	r3, r3, #-134217728	@ tmpreg, tmpreg,
 791              	.LVL32:
 592:../Libraries/STM32F4xx_StdPeriph_Driver/src/stm32f4xx_rcc.c **** 
 792              		.loc 1 592 10 view .LVU176
 793 0008 0B43     		orrs	r3, r3, r1	@, _9, tmpreg, tmp123
 794              	.LVL33:
 795              	@ ../Libraries/STM32F4xx_StdPeriph_Driver/src/stm32f4xx_rcc.c:595:   tmpreg |= RCC_MCO2Source | RCC
 595:../Libraries/STM32F4xx_StdPeriph_Driver/src/stm32f4xx_rcc.c **** 
 796              		.loc 1 595 10 view .LVU177
 797 000a 0343     		orrs	r3, r3, r0	@, tmpreg, _9, tmp122
 798              	.LVL34:
 598:../Libraries/STM32F4xx_StdPeriph_Driver/src/stm32f4xx_rcc.c **** }
 799              		.loc 1 598 3 is_stmt 1 view .LVU178
