ARM GAS  C:\Users\admin\AppData\Local\Temp\ccwT4fBV.s 			page 1


   1              		.cpu cortex-m4
   2              		.arch armv7e-m
   3              		.fpu fpv4-sp-d16
   4              		.eabi_attribute 27, 1	@ Tag_ABI_HardFP_use
   5              		.eabi_attribute 28, 1	@ Tag_ABI_VFP_args
   6              		.eabi_attribute 23, 1	@ Tag_ABI_FP_number_model
   7              		.eabi_attribute 24, 1	@ Tag_ABI_align8_needed
   8              		.eabi_attribute 25, 1	@ Tag_ABI_align8_preserved
   9              		.eabi_attribute 26, 1	@ Tag_ABI_enum_size
  10              		.eabi_attribute 30, 2	@ Tag_ABI_optimization_goals
  11              		.eabi_attribute 34, 1	@ Tag_CPU_unaligned_access
  12              		.eabi_attribute 18, 4	@ Tag_ABI_PCS_wchar_t
  13              		.file	"stm32f4xx_wwdg.c"
  14              	@ GNU C89 (GNU Arm Embedded Toolchain 10.3-2021.10) version 10.3.1 20210824 (release) (arm-none-eab
  15              	@	compiled by GNU C version 7.3-win32 20180312, GMP version 6.1.0, MPFR version 3.1.4, MPC version 
  16              	
  17              	@ GGC heuristics: --param ggc-min-expand=100 --param ggc-min-heapsize=131072
  18              	@ options passed:  -I . -I . -I ../Utilities/STM32F4-Discovery/
  19              	@ -I ../Libraries/STM32_USB_Device_Library/Class/audio/inc/
  20              	@ -I ../Libraries/STM32_USB_Device_Library/Core/inc/
  21              	@ -I ../Libraries/STM32_USB_OTG_Driver/inc/
  22              	@ -I ../Utilities/STM32F4-Discovery/
  23              	@ -I ../Libraries/STM32F4xx_StdPeriph_Driver/inc/
  24              	@ -I ../Utilities/STM32F4-Discovery/
  25              	@ -I ../Libraries/CMSIS/ST/STM32F4xx/Include/
  26              	@ -I ../Libraries/CMSIS/Include/ -imultilib thumb/v7e-m+fp/hard
  27              	@ -iprefix c:\program files (x86)\gnu arm embedded toolchain\10 2021.10\bin\../lib/gcc/arm-none-eab
  28              	@ -isysroot c:\program files (x86)\gnu arm embedded toolchain\10 2021.10\bin\../arm-none-eabi
  29              	@ -MD out/stm32f4xx_wwdg.d -MF out/stm32f4xx_wwdg.d -MP
  30              	@ -MQ out/stm32f4xx_wwdg.o -D__USES_INITFINI__ -D STM32F4XX -D __VFP_FP__
  31              	@ -D USE_USB_OTG_FS
  32              	@ ../Libraries/STM32F4xx_StdPeriph_Driver/src/stm32f4xx_wwdg.c
  33              	@ -mcpu=cortex-m4 -mthumb -mfloat-abi=hard -mfpu=fpv4-sp-d16
  34              	@ -mlibarch=armv7e-m+fp -march=armv7e-m+fp
  35              	@ -auxbase-strip out/stm32f4xx_wwdg.o -g -ggdb3 -O3 -Wall
  36              	@ -Wstrict-prototypes -Wextra -std=gnu90 -ffast-math -ffunction-sections
  37              	@ -fdata-sections -fverbose-asm
  38              	@ options enabled:  -faggressive-loop-optimizations -falign-functions
  39              	@ -falign-jumps -falign-labels -falign-loops -fallocation-dce
  40              	@ -fassociative-math -fauto-inc-dec -fbranch-count-reg -fcaller-saves
  41              	@ -fcombine-stack-adjustments -fcompare-elim -fcprop-registers
  42              	@ -fcrossjumping -fcse-follow-jumps -fcx-limited-range -fdata-sections
  43              	@ -fdefer-pop -fdelete-null-pointer-checks -fdevirtualize
  44              	@ -fdevirtualize-speculatively -fdwarf2-cfi-asm -fearly-inlining
  45              	@ -feliminate-unused-debug-symbols -feliminate-unused-debug-types
  46              	@ -fexpensive-optimizations -ffinite-math-only -fforward-propagate
  47              	@ -ffp-int-builtin-inexact -ffunction-cse -ffunction-sections -fgcse
  48              	@ -fgcse-after-reload -fgcse-lm -fgnu-unique -fguess-branch-probability
  49              	@ -fhoist-adjacent-loads -fident -fif-conversion -fif-conversion2
  50              	@ -findirect-inlining -finline -finline-atomics -finline-functions
  51              	@ -finline-functions-called-once -finline-small-functions -fipa-bit-cp
  52              	@ -fipa-cp -fipa-cp-clone -fipa-icf -fipa-icf-functions -fipa-icf-variables
  53              	@ -fipa-profile -fipa-pure-const -fipa-ra -fipa-reference
  54              	@ -fipa-reference-addressable -fipa-sra -fipa-stack-alignment -fipa-vrp
  55              	@ -fira-hoist-pressure -fira-share-save-slots -fira-share-spill-slots
  56              	@ -fisolate-erroneous-paths-dereference -fivopts -fkeep-static-consts
  57              	@ -fleading-underscore -flifetime-dse -floop-interchange
ARM GAS  C:\Users\admin\AppData\Local\Temp\ccwT4fBV.s 			page 2


  58              	@ -floop-unroll-and-jam -flra-remat -fmerge-constants -fmerge-debug-strings
  59              	@ -fmove-loop-invariants -fomit-frame-pointer -foptimize-sibling-calls
  60              	@ -foptimize-strlen -fpartial-inlining -fpeel-loops -fpeephole -fpeephole2
  61              	@ -fplt -fpredictive-commoning -fprefetch-loop-arrays -freciprocal-math
  62              	@ -freg-struct-return -freorder-blocks -freorder-functions
  63              	@ -frerun-cse-after-loop -fsched-critical-path-heuristic
  64              	@ -fsched-dep-count-heuristic -fsched-group-heuristic -fsched-interblock
  65              	@ -fsched-last-insn-heuristic -fsched-pressure -fsched-rank-heuristic
  66              	@ -fsched-spec -fsched-spec-insn-heuristic -fsched-stalled-insns-dep
  67              	@ -fschedule-insns -fschedule-insns2 -fsection-anchors
  68              	@ -fsemantic-interposition -fshow-column -fshrink-wrap
  69              	@ -fshrink-wrap-separate -fsplit-ivs-in-unroller -fsplit-loops
  70              	@ -fsplit-paths -fsplit-wide-types -fssa-backprop -fssa-phiopt -fstdarg-opt
  71              	@ -fstore-merging -fstrict-aliasing -fstrict-volatile-bitfields
  72              	@ -fsync-libcalls -fthread-jumps -ftoplevel-reorder -ftree-bit-ccp
  73              	@ -ftree-builtin-call-dce -ftree-ccp -ftree-ch -ftree-coalesce-vars
  74              	@ -ftree-copy-prop -ftree-cselim -ftree-dce -ftree-dominator-opts
  75              	@ -ftree-dse -ftree-forwprop -ftree-fre -ftree-loop-distribute-patterns
  76              	@ -ftree-loop-distribution -ftree-loop-if-convert -ftree-loop-im
  77              	@ -ftree-loop-ivcanon -ftree-loop-optimize -ftree-loop-vectorize
  78              	@ -ftree-parallelize-loops= -ftree-partial-pre -ftree-phiprop -ftree-pre
  79              	@ -ftree-pta -ftree-reassoc -ftree-scev-cprop -ftree-sink
  80              	@ -ftree-slp-vectorize -ftree-slsr -ftree-sra -ftree-switch-conversion
  81              	@ -ftree-tail-merge -ftree-ter -ftree-vrp -funit-at-a-time
  82              	@ -funsafe-math-optimizations -funswitch-loops -fvar-tracking
  83              	@ -fvar-tracking-assignments -fverbose-asm -fversion-loops-for-strides
  84              	@ -fzero-initialized-in-bss -masm-syntax-unified -mbe32 -mlittle-endian
  85              	@ -mpic-data-is-text-relative -msched-prolog -mthumb -munaligned-access
  86              	@ -mvectorize-with-neon-quad
  87              	
  88              		.text
  89              	.Ltext0:
  90              		.cfi_sections	.debug_frame
  91              		.section	.text.WWDG_DeInit,"ax",%progbits
  92              		.align	1
  93              		.p2align 2,,3
  94              		.global	WWDG_DeInit
  95              		.syntax unified
  96              		.thumb
  97              		.thumb_func
  98              		.type	WWDG_DeInit, %function
  99              	WWDG_DeInit:
 100              	.LFB110:
 101              		.file 1 "../Libraries/STM32F4xx_StdPeriph_Driver/src/stm32f4xx_wwdg.c"
   1:../Libraries/STM32F4xx_StdPeriph_Driver/src/stm32f4xx_wwdg.c **** /**
   2:../Libraries/STM32F4xx_StdPeriph_Driver/src/stm32f4xx_wwdg.c ****   ******************************************************************************
   3:../Libraries/STM32F4xx_StdPeriph_Driver/src/stm32f4xx_wwdg.c ****   * @file    stm32f4xx_wwdg.c
   4:../Libraries/STM32F4xx_StdPeriph_Driver/src/stm32f4xx_wwdg.c ****   * @author  MCD Application Team
   5:../Libraries/STM32F4xx_StdPeriph_Driver/src/stm32f4xx_wwdg.c ****   * @version V1.0.0
   6:../Libraries/STM32F4xx_StdPeriph_Driver/src/stm32f4xx_wwdg.c ****   * @date    30-September-2011
   7:../Libraries/STM32F4xx_StdPeriph_Driver/src/stm32f4xx_wwdg.c ****   * @brief   This file provides firmware functions to manage the following 
   8:../Libraries/STM32F4xx_StdPeriph_Driver/src/stm32f4xx_wwdg.c ****   *          functionalities of the Window watchdog (WWDG) peripheral:           
   9:../Libraries/STM32F4xx_StdPeriph_Driver/src/stm32f4xx_wwdg.c ****   *           - Prescaler, Refresh window and Counter configuration
  10:../Libraries/STM32F4xx_StdPeriph_Driver/src/stm32f4xx_wwdg.c ****   *           - WWDG activation
  11:../Libraries/STM32F4xx_StdPeriph_Driver/src/stm32f4xx_wwdg.c ****   *           - Interrupts and flags management
  12:../Libraries/STM32F4xx_StdPeriph_Driver/src/stm32f4xx_wwdg.c ****   *             
  13:../Libraries/STM32F4xx_StdPeriph_Driver/src/stm32f4xx_wwdg.c ****   *  @verbatim
ARM GAS  C:\Users\admin\AppData\Local\Temp\ccwT4fBV.s 			page 3


  14:../Libraries/STM32F4xx_StdPeriph_Driver/src/stm32f4xx_wwdg.c ****   *    
  15:../Libraries/STM32F4xx_StdPeriph_Driver/src/stm32f4xx_wwdg.c ****   *          ===================================================================
  16:../Libraries/STM32F4xx_StdPeriph_Driver/src/stm32f4xx_wwdg.c ****   *                                     WWDG features
  17:../Libraries/STM32F4xx_StdPeriph_Driver/src/stm32f4xx_wwdg.c ****   *          ===================================================================
  18:../Libraries/STM32F4xx_StdPeriph_Driver/src/stm32f4xx_wwdg.c ****   *                                        
  19:../Libraries/STM32F4xx_StdPeriph_Driver/src/stm32f4xx_wwdg.c ****   *          Once enabled the WWDG generates a system reset on expiry of a programmed
  20:../Libraries/STM32F4xx_StdPeriph_Driver/src/stm32f4xx_wwdg.c ****   *          time period, unless the program refreshes the counter (downcounter) 
  21:../Libraries/STM32F4xx_StdPeriph_Driver/src/stm32f4xx_wwdg.c ****   *          before to reach 0x3F value (i.e. a reset is generated when the counter
  22:../Libraries/STM32F4xx_StdPeriph_Driver/src/stm32f4xx_wwdg.c ****   *          value rolls over from 0x40 to 0x3F). 
  23:../Libraries/STM32F4xx_StdPeriph_Driver/src/stm32f4xx_wwdg.c ****   *          An MCU reset is also generated if the counter value is refreshed
  24:../Libraries/STM32F4xx_StdPeriph_Driver/src/stm32f4xx_wwdg.c ****   *          before the counter has reached the refresh window value. This 
  25:../Libraries/STM32F4xx_StdPeriph_Driver/src/stm32f4xx_wwdg.c ****   *          implies that the counter must be refreshed in a limited window.
  26:../Libraries/STM32F4xx_StdPeriph_Driver/src/stm32f4xx_wwdg.c ****   *            
  27:../Libraries/STM32F4xx_StdPeriph_Driver/src/stm32f4xx_wwdg.c ****   *          Once enabled the WWDG cannot be disabled except by a system reset.                    
  28:../Libraries/STM32F4xx_StdPeriph_Driver/src/stm32f4xx_wwdg.c ****   *          
  29:../Libraries/STM32F4xx_StdPeriph_Driver/src/stm32f4xx_wwdg.c ****   *          WWDGRST flag in RCC_CSR register can be used to inform when a WWDG
  30:../Libraries/STM32F4xx_StdPeriph_Driver/src/stm32f4xx_wwdg.c ****   *          reset occurs.
  31:../Libraries/STM32F4xx_StdPeriph_Driver/src/stm32f4xx_wwdg.c ****   *            
  32:../Libraries/STM32F4xx_StdPeriph_Driver/src/stm32f4xx_wwdg.c ****   *          The WWDG counter input clock is derived from the APB clock divided 
  33:../Libraries/STM32F4xx_StdPeriph_Driver/src/stm32f4xx_wwdg.c ****   *          by a programmable prescaler.
  34:../Libraries/STM32F4xx_StdPeriph_Driver/src/stm32f4xx_wwdg.c ****   *              
  35:../Libraries/STM32F4xx_StdPeriph_Driver/src/stm32f4xx_wwdg.c ****   *          WWDG counter clock = PCLK1 / Prescaler
  36:../Libraries/STM32F4xx_StdPeriph_Driver/src/stm32f4xx_wwdg.c ****   *          WWDG timeout = (WWDG counter clock) * (counter value)
  37:../Libraries/STM32F4xx_StdPeriph_Driver/src/stm32f4xx_wwdg.c ****   *                      
  38:../Libraries/STM32F4xx_StdPeriph_Driver/src/stm32f4xx_wwdg.c ****   *          Min-max timeout value @42 MHz(PCLK1): ~97.5 us / ~49.9 ms
  39:../Libraries/STM32F4xx_StdPeriph_Driver/src/stm32f4xx_wwdg.c ****   *                            
  40:../Libraries/STM32F4xx_StdPeriph_Driver/src/stm32f4xx_wwdg.c ****   *          ===================================================================
  41:../Libraries/STM32F4xx_StdPeriph_Driver/src/stm32f4xx_wwdg.c ****   *                                 How to use this driver
  42:../Libraries/STM32F4xx_StdPeriph_Driver/src/stm32f4xx_wwdg.c ****   *          =================================================================== 
  43:../Libraries/STM32F4xx_StdPeriph_Driver/src/stm32f4xx_wwdg.c ****   *          1. Enable WWDG clock using RCC_APB1PeriphClockCmd(RCC_APB1Periph_WWDG, ENABLE) functio
  44:../Libraries/STM32F4xx_StdPeriph_Driver/src/stm32f4xx_wwdg.c ****   *            
  45:../Libraries/STM32F4xx_StdPeriph_Driver/src/stm32f4xx_wwdg.c ****   *          2. Configure the WWDG prescaler using WWDG_SetPrescaler() function
  46:../Libraries/STM32F4xx_StdPeriph_Driver/src/stm32f4xx_wwdg.c ****   *                           
  47:../Libraries/STM32F4xx_StdPeriph_Driver/src/stm32f4xx_wwdg.c ****   *          3. Configure the WWDG refresh window using WWDG_SetWindowValue() function
  48:../Libraries/STM32F4xx_StdPeriph_Driver/src/stm32f4xx_wwdg.c ****   *            
  49:../Libraries/STM32F4xx_StdPeriph_Driver/src/stm32f4xx_wwdg.c ****   *          4. Set the WWDG counter value and start it using WWDG_Enable() function.
  50:../Libraries/STM32F4xx_StdPeriph_Driver/src/stm32f4xx_wwdg.c ****   *             When the WWDG is enabled the counter value should be configured to 
  51:../Libraries/STM32F4xx_StdPeriph_Driver/src/stm32f4xx_wwdg.c ****   *             a value greater than 0x40 to prevent generating an immediate reset.     
  52:../Libraries/STM32F4xx_StdPeriph_Driver/src/stm32f4xx_wwdg.c ****   *            
  53:../Libraries/STM32F4xx_StdPeriph_Driver/src/stm32f4xx_wwdg.c ****   *          5. Optionally you can enable the Early wakeup interrupt which is 
  54:../Libraries/STM32F4xx_StdPeriph_Driver/src/stm32f4xx_wwdg.c ****   *             generated when the counter reach 0x40.
  55:../Libraries/STM32F4xx_StdPeriph_Driver/src/stm32f4xx_wwdg.c ****   *             Once enabled this interrupt cannot be disabled except by a system reset.
  56:../Libraries/STM32F4xx_StdPeriph_Driver/src/stm32f4xx_wwdg.c ****   *                 
  57:../Libraries/STM32F4xx_StdPeriph_Driver/src/stm32f4xx_wwdg.c ****   *          6. Then the application program must refresh the WWDG counter at regular
  58:../Libraries/STM32F4xx_StdPeriph_Driver/src/stm32f4xx_wwdg.c ****   *             intervals during normal operation to prevent an MCU reset, using
  59:../Libraries/STM32F4xx_StdPeriph_Driver/src/stm32f4xx_wwdg.c ****   *             WWDG_SetCounter() function. This operation must occur only when
  60:../Libraries/STM32F4xx_StdPeriph_Driver/src/stm32f4xx_wwdg.c ****   *             the counter value is lower than the refresh window value, 
  61:../Libraries/STM32F4xx_StdPeriph_Driver/src/stm32f4xx_wwdg.c ****   *             programmed using WWDG_SetWindowValue().         
  62:../Libraries/STM32F4xx_StdPeriph_Driver/src/stm32f4xx_wwdg.c ****   *
  63:../Libraries/STM32F4xx_StdPeriph_Driver/src/stm32f4xx_wwdg.c ****   *  @endverbatim  
  64:../Libraries/STM32F4xx_StdPeriph_Driver/src/stm32f4xx_wwdg.c ****   *                             
  65:../Libraries/STM32F4xx_StdPeriph_Driver/src/stm32f4xx_wwdg.c ****   ******************************************************************************
  66:../Libraries/STM32F4xx_StdPeriph_Driver/src/stm32f4xx_wwdg.c ****   * @attention
  67:../Libraries/STM32F4xx_StdPeriph_Driver/src/stm32f4xx_wwdg.c ****   *
  68:../Libraries/STM32F4xx_StdPeriph_Driver/src/stm32f4xx_wwdg.c ****   * THE PRESENT FIRMWARE WHICH IS FOR GUIDANCE ONLY AIMS AT PROVIDING CUSTOMERS
  69:../Libraries/STM32F4xx_StdPeriph_Driver/src/stm32f4xx_wwdg.c ****   * WITH CODING INFORMATION REGARDING THEIR PRODUCTS IN ORDER FOR THEM TO SAVE
  70:../Libraries/STM32F4xx_StdPeriph_Driver/src/stm32f4xx_wwdg.c ****   * TIME. AS A RESULT, STMICROELECTRONICS SHALL NOT BE HELD LIABLE FOR ANY
ARM GAS  C:\Users\admin\AppData\Local\Temp\ccwT4fBV.s 			page 4


  71:../Libraries/STM32F4xx_StdPeriph_Driver/src/stm32f4xx_wwdg.c ****   * DIRECT, INDIRECT OR CONSEQUENTIAL DAMAGES WITH RESPECT TO ANY CLAIMS ARISING
  72:../Libraries/STM32F4xx_StdPeriph_Driver/src/stm32f4xx_wwdg.c ****   * FROM THE CONTENT OF SUCH FIRMWARE AND/OR THE USE MADE BY CUSTOMERS OF THE
  73:../Libraries/STM32F4xx_StdPeriph_Driver/src/stm32f4xx_wwdg.c ****   * CODING INFORMATION CONTAINED HEREIN IN CONNECTION WITH THEIR PRODUCTS.
  74:../Libraries/STM32F4xx_StdPeriph_Driver/src/stm32f4xx_wwdg.c ****   *
  75:../Libraries/STM32F4xx_StdPeriph_Driver/src/stm32f4xx_wwdg.c ****   * <h2><center>&copy; COPYRIGHT 2011 STMicroelectronics</center></h2>
  76:../Libraries/STM32F4xx_StdPeriph_Driver/src/stm32f4xx_wwdg.c ****   ******************************************************************************
  77:../Libraries/STM32F4xx_StdPeriph_Driver/src/stm32f4xx_wwdg.c ****   */
  78:../Libraries/STM32F4xx_StdPeriph_Driver/src/stm32f4xx_wwdg.c **** 
  79:../Libraries/STM32F4xx_StdPeriph_Driver/src/stm32f4xx_wwdg.c **** /* Includes ------------------------------------------------------------------*/
  80:../Libraries/STM32F4xx_StdPeriph_Driver/src/stm32f4xx_wwdg.c **** #include "stm32f4xx_wwdg.h"
  81:../Libraries/STM32F4xx_StdPeriph_Driver/src/stm32f4xx_wwdg.c **** #include "stm32f4xx_rcc.h"
  82:../Libraries/STM32F4xx_StdPeriph_Driver/src/stm32f4xx_wwdg.c **** 
  83:../Libraries/STM32F4xx_StdPeriph_Driver/src/stm32f4xx_wwdg.c **** /** @addtogroup STM32F4xx_StdPeriph_Driver
  84:../Libraries/STM32F4xx_StdPeriph_Driver/src/stm32f4xx_wwdg.c ****   * @{
  85:../Libraries/STM32F4xx_StdPeriph_Driver/src/stm32f4xx_wwdg.c ****   */
  86:../Libraries/STM32F4xx_StdPeriph_Driver/src/stm32f4xx_wwdg.c **** 
  87:../Libraries/STM32F4xx_StdPeriph_Driver/src/stm32f4xx_wwdg.c **** /** @defgroup WWDG 
  88:../Libraries/STM32F4xx_StdPeriph_Driver/src/stm32f4xx_wwdg.c ****   * @brief WWDG driver modules
  89:../Libraries/STM32F4xx_StdPeriph_Driver/src/stm32f4xx_wwdg.c ****   * @{
  90:../Libraries/STM32F4xx_StdPeriph_Driver/src/stm32f4xx_wwdg.c ****   */
  91:../Libraries/STM32F4xx_StdPeriph_Driver/src/stm32f4xx_wwdg.c **** 
  92:../Libraries/STM32F4xx_StdPeriph_Driver/src/stm32f4xx_wwdg.c **** /* Private typedef -----------------------------------------------------------*/
  93:../Libraries/STM32F4xx_StdPeriph_Driver/src/stm32f4xx_wwdg.c **** /* Private define ------------------------------------------------------------*/
  94:../Libraries/STM32F4xx_StdPeriph_Driver/src/stm32f4xx_wwdg.c **** 
  95:../Libraries/STM32F4xx_StdPeriph_Driver/src/stm32f4xx_wwdg.c **** /* ----------- WWDG registers bit address in the alias region ----------- */
  96:../Libraries/STM32F4xx_StdPeriph_Driver/src/stm32f4xx_wwdg.c **** #define WWDG_OFFSET       (WWDG_BASE - PERIPH_BASE)
  97:../Libraries/STM32F4xx_StdPeriph_Driver/src/stm32f4xx_wwdg.c **** /* Alias word address of EWI bit */
  98:../Libraries/STM32F4xx_StdPeriph_Driver/src/stm32f4xx_wwdg.c **** #define CFR_OFFSET        (WWDG_OFFSET + 0x04)
  99:../Libraries/STM32F4xx_StdPeriph_Driver/src/stm32f4xx_wwdg.c **** #define EWI_BitNumber     0x09
 100:../Libraries/STM32F4xx_StdPeriph_Driver/src/stm32f4xx_wwdg.c **** #define CFR_EWI_BB        (PERIPH_BB_BASE + (CFR_OFFSET * 32) + (EWI_BitNumber * 4))
 101:../Libraries/STM32F4xx_StdPeriph_Driver/src/stm32f4xx_wwdg.c **** 
 102:../Libraries/STM32F4xx_StdPeriph_Driver/src/stm32f4xx_wwdg.c **** /* --------------------- WWDG registers bit mask ------------------------ */
 103:../Libraries/STM32F4xx_StdPeriph_Driver/src/stm32f4xx_wwdg.c **** /* CFR register bit mask */
 104:../Libraries/STM32F4xx_StdPeriph_Driver/src/stm32f4xx_wwdg.c **** #define CFR_WDGTB_MASK    ((uint32_t)0xFFFFFE7F)
 105:../Libraries/STM32F4xx_StdPeriph_Driver/src/stm32f4xx_wwdg.c **** #define CFR_W_MASK        ((uint32_t)0xFFFFFF80)
 106:../Libraries/STM32F4xx_StdPeriph_Driver/src/stm32f4xx_wwdg.c **** #define BIT_MASK          ((uint8_t)0x7F)
 107:../Libraries/STM32F4xx_StdPeriph_Driver/src/stm32f4xx_wwdg.c **** 
 108:../Libraries/STM32F4xx_StdPeriph_Driver/src/stm32f4xx_wwdg.c **** /* Private macro -------------------------------------------------------------*/
 109:../Libraries/STM32F4xx_StdPeriph_Driver/src/stm32f4xx_wwdg.c **** /* Private variables ---------------------------------------------------------*/
 110:../Libraries/STM32F4xx_StdPeriph_Driver/src/stm32f4xx_wwdg.c **** /* Private function prototypes -----------------------------------------------*/
 111:../Libraries/STM32F4xx_StdPeriph_Driver/src/stm32f4xx_wwdg.c **** /* Private functions ---------------------------------------------------------*/
 112:../Libraries/STM32F4xx_StdPeriph_Driver/src/stm32f4xx_wwdg.c **** 
 113:../Libraries/STM32F4xx_StdPeriph_Driver/src/stm32f4xx_wwdg.c **** /** @defgroup WWDG_Private_Functions
 114:../Libraries/STM32F4xx_StdPeriph_Driver/src/stm32f4xx_wwdg.c ****   * @{
 115:../Libraries/STM32F4xx_StdPeriph_Driver/src/stm32f4xx_wwdg.c ****   */
 116:../Libraries/STM32F4xx_StdPeriph_Driver/src/stm32f4xx_wwdg.c **** 
 117:../Libraries/STM32F4xx_StdPeriph_Driver/src/stm32f4xx_wwdg.c **** /** @defgroup WWDG_Group1 Prescaler, Refresh window and Counter configuration functions
 118:../Libraries/STM32F4xx_StdPeriph_Driver/src/stm32f4xx_wwdg.c ****  *  @brief   Prescaler, Refresh window and Counter configuration functions 
 119:../Libraries/STM32F4xx_StdPeriph_Driver/src/stm32f4xx_wwdg.c ****  *
 120:../Libraries/STM32F4xx_StdPeriph_Driver/src/stm32f4xx_wwdg.c **** @verbatim   
 121:../Libraries/STM32F4xx_StdPeriph_Driver/src/stm32f4xx_wwdg.c ****  ===============================================================================
 122:../Libraries/STM32F4xx_StdPeriph_Driver/src/stm32f4xx_wwdg.c ****           Prescaler, Refresh window and Counter configuration functions
 123:../Libraries/STM32F4xx_StdPeriph_Driver/src/stm32f4xx_wwdg.c ****  ===============================================================================  
 124:../Libraries/STM32F4xx_StdPeriph_Driver/src/stm32f4xx_wwdg.c **** 
 125:../Libraries/STM32F4xx_StdPeriph_Driver/src/stm32f4xx_wwdg.c **** @endverbatim
 126:../Libraries/STM32F4xx_StdPeriph_Driver/src/stm32f4xx_wwdg.c ****   * @{
 127:../Libraries/STM32F4xx_StdPeriph_Driver/src/stm32f4xx_wwdg.c ****   */
ARM GAS  C:\Users\admin\AppData\Local\Temp\ccwT4fBV.s 			page 5


 128:../Libraries/STM32F4xx_StdPeriph_Driver/src/stm32f4xx_wwdg.c **** 
 129:../Libraries/STM32F4xx_StdPeriph_Driver/src/stm32f4xx_wwdg.c **** /**
 130:../Libraries/STM32F4xx_StdPeriph_Driver/src/stm32f4xx_wwdg.c ****   * @brief  Deinitializes the WWDG peripheral registers to their default reset values.
 131:../Libraries/STM32F4xx_StdPeriph_Driver/src/stm32f4xx_wwdg.c ****   * @param  None
 132:../Libraries/STM32F4xx_StdPeriph_Driver/src/stm32f4xx_wwdg.c ****   * @retval None
 133:../Libraries/STM32F4xx_StdPeriph_Driver/src/stm32f4xx_wwdg.c ****   */
 134:../Libraries/STM32F4xx_StdPeriph_Driver/src/stm32f4xx_wwdg.c **** void WWDG_DeInit(void)
 135:../Libraries/STM32F4xx_StdPeriph_Driver/src/stm32f4xx_wwdg.c **** {
 102              		.loc 1 135 1 view -0
 103              		.cfi_startproc
 104              		@ args = 0, pretend = 0, frame = 0
 105              		@ frame_needed = 0, uses_anonymous_args = 0
 136:../Libraries/STM32F4xx_StdPeriph_Driver/src/stm32f4xx_wwdg.c ****   RCC_APB1PeriphResetCmd(RCC_APB1Periph_WWDG, ENABLE);
 106              		.loc 1 136 3 view .LVU1
 107              	@ ../Libraries/STM32F4xx_StdPeriph_Driver/src/stm32f4xx_wwdg.c:135: {
 135:../Libraries/STM32F4xx_StdPeriph_Driver/src/stm32f4xx_wwdg.c ****   RCC_APB1PeriphResetCmd(RCC_APB1Periph_WWDG, ENABLE);
 108              		.loc 1 135 1 is_stmt 0 view .LVU2
 109 0000 08B5     		push	{r3, lr}	@
 110              		.cfi_def_cfa_offset 8
 111              		.cfi_offset 3, -8
 112              		.cfi_offset 14, -4
 113              	@ ../Libraries/STM32F4xx_StdPeriph_Driver/src/stm32f4xx_wwdg.c:136:   RCC_APB1PeriphResetCmd(RCC_AP
 114              		.loc 1 136 3 view .LVU3
 115 0002 0121     		movs	r1, #1	@,
 116 0004 4FF40060 		mov	r0, #2048	@,
 117 0008 FFF7FEFF 		bl	RCC_APB1PeriphResetCmd		@
 118              	.LVL0:
 137:../Libraries/STM32F4xx_StdPeriph_Driver/src/stm32f4xx_wwdg.c ****   RCC_APB1PeriphResetCmd(RCC_APB1Periph_WWDG, DISABLE);
 119              		.loc 1 137 3 is_stmt 1 view .LVU4
 120              	@ ../Libraries/STM32F4xx_StdPeriph_Driver/src/stm32f4xx_wwdg.c:138: }
 138:../Libraries/STM32F4xx_StdPeriph_Driver/src/stm32f4xx_wwdg.c **** }
 121              		.loc 1 138 1 is_stmt 0 view .LVU5
 122 000c BDE80840 		pop	{r3, lr}	@
 123              		.cfi_restore 14
 124              		.cfi_restore 3
 125              		.cfi_def_cfa_offset 0
 126              	@ ../Libraries/STM32F4xx_StdPeriph_Driver/src/stm32f4xx_wwdg.c:137:   RCC_APB1PeriphResetCmd(RCC_AP
 137:../Libraries/STM32F4xx_StdPeriph_Driver/src/stm32f4xx_wwdg.c ****   RCC_APB1PeriphResetCmd(RCC_APB1Periph_WWDG, DISABLE);
 127              		.loc 1 137 3 view .LVU6
 128 0010 0021     		movs	r1, #0	@,
 129 0012 4FF40060 		mov	r0, #2048	@,
 130 0016 FFF7FEBF 		b	RCC_APB1PeriphResetCmd		@
 131              	.LVL1:
 132              		.cfi_endproc
 133              	.LFE110:
 134              		.size	WWDG_DeInit, .-WWDG_DeInit
 135 001a 00BF     		.section	.text.WWDG_SetPrescaler,"ax",%progbits
 136              		.align	1
 137              		.p2align 2,,3
 138              		.global	WWDG_SetPrescaler
 139              		.syntax unified
 140              		.thumb
 141              		.thumb_func
 142              		.type	WWDG_SetPrescaler, %function
 143              	WWDG_SetPrescaler:
 144              	.LVL2:
 145              	.LFB111:
ARM GAS  C:\Users\admin\AppData\Local\Temp\ccwT4fBV.s 			page 6


 139:../Libraries/STM32F4xx_StdPeriph_Driver/src/stm32f4xx_wwdg.c **** 
 140:../Libraries/STM32F4xx_StdPeriph_Driver/src/stm32f4xx_wwdg.c **** /**
 141:../Libraries/STM32F4xx_StdPeriph_Driver/src/stm32f4xx_wwdg.c ****   * @brief  Sets the WWDG Prescaler.
 142:../Libraries/STM32F4xx_StdPeriph_Driver/src/stm32f4xx_wwdg.c ****   * @param  WWDG_Prescaler: specifies the WWDG Prescaler.
 143:../Libraries/STM32F4xx_StdPeriph_Driver/src/stm32f4xx_wwdg.c ****   *   This parameter can be one of the following values:
 144:../Libraries/STM32F4xx_StdPeriph_Driver/src/stm32f4xx_wwdg.c ****   *     @arg WWDG_Prescaler_1: WWDG counter clock = (PCLK1/4096)/1
 145:../Libraries/STM32F4xx_StdPeriph_Driver/src/stm32f4xx_wwdg.c ****   *     @arg WWDG_Prescaler_2: WWDG counter clock = (PCLK1/4096)/2
 146:../Libraries/STM32F4xx_StdPeriph_Driver/src/stm32f4xx_wwdg.c ****   *     @arg WWDG_Prescaler_4: WWDG counter clock = (PCLK1/4096)/4
 147:../Libraries/STM32F4xx_StdPeriph_Driver/src/stm32f4xx_wwdg.c ****   *     @arg WWDG_Prescaler_8: WWDG counter clock = (PCLK1/4096)/8
 148:../Libraries/STM32F4xx_StdPeriph_Driver/src/stm32f4xx_wwdg.c ****   * @retval None
 149:../Libraries/STM32F4xx_StdPeriph_Driver/src/stm32f4xx_wwdg.c ****   */
 150:../Libraries/STM32F4xx_StdPeriph_Driver/src/stm32f4xx_wwdg.c **** void WWDG_SetPrescaler(uint32_t WWDG_Prescaler)
 151:../Libraries/STM32F4xx_StdPeriph_Driver/src/stm32f4xx_wwdg.c **** {
 146              		.loc 1 151 1 is_stmt 1 view -0
 147              		.cfi_startproc
 148              		@ args = 0, pretend = 0, frame = 0
 149              		@ frame_needed = 0, uses_anonymous_args = 0
 152:../Libraries/STM32F4xx_StdPeriph_Driver/src/stm32f4xx_wwdg.c ****   uint32_t tmpreg = 0;
 150              		.loc 1 152 3 view .LVU8
 153:../Libraries/STM32F4xx_StdPeriph_Driver/src/stm32f4xx_wwdg.c ****   /* Check the parameters */
 154:../Libraries/STM32F4xx_StdPeriph_Driver/src/stm32f4xx_wwdg.c ****   assert_param(IS_WWDG_PRESCALER(WWDG_Prescaler));
 151              		.loc 1 154 3 view .LVU9
 152 0000 30F4C073 		bics	r3, r0, #384	@ tmp127, WWDG_Prescaler,
 153              	@ ../Libraries/STM32F4xx_StdPeriph_Driver/src/stm32f4xx_wwdg.c:151: {
 151:../Libraries/STM32F4xx_StdPeriph_Driver/src/stm32f4xx_wwdg.c ****   uint32_t tmpreg = 0;
 154              		.loc 1 151 1 is_stmt 0 view .LVU10
 155 0004 10B5     		push	{r4, lr}	@
 156              		.cfi_def_cfa_offset 8
 157              		.cfi_offset 4, -8
 158              		.cfi_offset 14, -4
 159              	@ ../Libraries/STM32F4xx_StdPeriph_Driver/src/stm32f4xx_wwdg.c:151: {
 151:../Libraries/STM32F4xx_StdPeriph_Driver/src/stm32f4xx_wwdg.c ****   uint32_t tmpreg = 0;
 160              		.loc 1 151 1 view .LVU11
 161 0006 0446     		mov	r4, r0	@ WWDG_Prescaler, tmp125
 162              	@ ../Libraries/STM32F4xx_StdPeriph_Driver/src/stm32f4xx_wwdg.c:154:   assert_param(IS_WWDG_PRESCALE
 163              		.loc 1 154 3 view .LVU12
 164 0008 0CBF     		ite	eq
 165 000a 0120     		moveq	r0, #1	@,
 166              	.LVL3:
 167              		.loc 1 154 3 view .LVU13
 168 000c 0020     		movne	r0, #0	@,
 169 000e FFF7FEFF 		bl	assert_param		@
 170              	.LVL4:
 155:../Libraries/STM32F4xx_StdPeriph_Driver/src/stm32f4xx_wwdg.c ****   /* Clear WDGTB[1:0] bits */
 156:../Libraries/STM32F4xx_StdPeriph_Driver/src/stm32f4xx_wwdg.c ****   tmpreg = WWDG->CFR & CFR_WDGTB_MASK;
 171              		.loc 1 156 3 is_stmt 1 view .LVU14
 172              	@ ../Libraries/STM32F4xx_StdPeriph_Driver/src/stm32f4xx_wwdg.c:156:   tmpreg = WWDG->CFR & CFR_WDGT
 173              		.loc 1 156 16 is_stmt 0 view .LVU15
 174 0012 034B     		ldr	r3, .L6	@ tmp123,
 175 0014 5868     		ldr	r0, [r3, #4]	@ _1, MEM[(struct WWDG_TypeDef *)1073753088B].CFR
 176              	@ ../Libraries/STM32F4xx_StdPeriph_Driver/src/stm32f4xx_wwdg.c:156:   tmpreg = WWDG->CFR & CFR_WDGT
 177              		.loc 1 156 10 view .LVU16
 178 0016 20F4C070 		bic	r0, r0, #384	@ tmpreg, _1,
 179              	.LVL5:
 157:../Libraries/STM32F4xx_StdPeriph_Driver/src/stm32f4xx_wwdg.c ****   /* Set WDGTB[1:0] bits according to WWDG_Prescaler value */
 158:../Libraries/STM32F4xx_StdPeriph_Driver/src/stm32f4xx_wwdg.c ****   tmpreg |= WWDG_Prescaler;
 180              		.loc 1 158 3 is_stmt 1 view .LVU17
ARM GAS  C:\Users\admin\AppData\Local\Temp\ccwT4fBV.s 			page 7


 181              	@ ../Libraries/STM32F4xx_StdPeriph_Driver/src/stm32f4xx_wwdg.c:158:   tmpreg |= WWDG_Prescaler;
 182              		.loc 1 158 10 is_stmt 0 view .LVU18
 183 001a 0443     		orrs	r4, r4, r0	@, tmpreg, WWDG_Prescaler, tmpreg
 184              	.LVL6:
 159:../Libraries/STM32F4xx_StdPeriph_Driver/src/stm32f4xx_wwdg.c ****   /* Store the new value */
 160:../Libraries/STM32F4xx_StdPeriph_Driver/src/stm32f4xx_wwdg.c ****   WWDG->CFR = tmpreg;
 185              		.loc 1 160 3 is_stmt 1 view .LVU19
 186              	@ ../Libraries/STM32F4xx_StdPeriph_Driver/src/stm32f4xx_wwdg.c:160:   WWDG->CFR = tmpreg;
 187              		.loc 1 160 13 is_stmt 0 view .LVU20
 188 001c 5C60     		str	r4, [r3, #4]	@ tmpreg, MEM[(struct WWDG_TypeDef *)1073753088B].CFR
 189              	@ ../Libraries/STM32F4xx_StdPeriph_Driver/src/stm32f4xx_wwdg.c:161: }
 161:../Libraries/STM32F4xx_StdPeriph_Driver/src/stm32f4xx_wwdg.c **** }
 190              		.loc 1 161 1 view .LVU21
 191 001e 10BD     		pop	{r4, pc}	@
 192              	.LVL7:
 193              	.L7:
 194              		.loc 1 161 1 view .LVU22
 195              		.align	2
 196              	.L6:
 197 0020 002C0040 		.word	1073753088
 198              		.cfi_endproc
 199              	.LFE111:
 200              		.size	WWDG_SetPrescaler, .-WWDG_SetPrescaler
 201              		.section	.text.WWDG_SetWindowValue,"ax",%progbits
 202              		.align	1
 203              		.p2align 2,,3
 204              		.global	WWDG_SetWindowValue
 205              		.syntax unified
 206              		.thumb
 207              		.thumb_func
 208              		.type	WWDG_SetWindowValue, %function
 209              	WWDG_SetWindowValue:
 210              	.LVL8:
 211              	.LFB112:
 162:../Libraries/STM32F4xx_StdPeriph_Driver/src/stm32f4xx_wwdg.c **** 
 163:../Libraries/STM32F4xx_StdPeriph_Driver/src/stm32f4xx_wwdg.c **** /**
 164:../Libraries/STM32F4xx_StdPeriph_Driver/src/stm32f4xx_wwdg.c ****   * @brief  Sets the WWDG window value.
 165:../Libraries/STM32F4xx_StdPeriph_Driver/src/stm32f4xx_wwdg.c ****   * @param  WindowValue: specifies the window value to be compared to the downcounter.
 166:../Libraries/STM32F4xx_StdPeriph_Driver/src/stm32f4xx_wwdg.c ****   *   This parameter value must be lower than 0x80.
 167:../Libraries/STM32F4xx_StdPeriph_Driver/src/stm32f4xx_wwdg.c ****   * @retval None
 168:../Libraries/STM32F4xx_StdPeriph_Driver/src/stm32f4xx_wwdg.c ****   */
 169:../Libraries/STM32F4xx_StdPeriph_Driver/src/stm32f4xx_wwdg.c **** void WWDG_SetWindowValue(uint8_t WindowValue)
 170:../Libraries/STM32F4xx_StdPeriph_Driver/src/stm32f4xx_wwdg.c **** {
 212              		.loc 1 170 1 is_stmt 1 view -0
 213              		.cfi_startproc
 214              		@ args = 0, pretend = 0, frame = 8
 215              		@ frame_needed = 0, uses_anonymous_args = 0
 171:../Libraries/STM32F4xx_StdPeriph_Driver/src/stm32f4xx_wwdg.c ****   __IO uint32_t tmpreg = 0;
 216              		.loc 1 171 3 view .LVU24
 217              	@ ../Libraries/STM32F4xx_StdPeriph_Driver/src/stm32f4xx_wwdg.c:170: {
 170:../Libraries/STM32F4xx_StdPeriph_Driver/src/stm32f4xx_wwdg.c ****   __IO uint32_t tmpreg = 0;
 218              		.loc 1 170 1 is_stmt 0 view .LVU25
 219 0000 10B5     		push	{r4, lr}	@
 220              		.cfi_def_cfa_offset 8
 221              		.cfi_offset 4, -8
 222              		.cfi_offset 14, -4
 223              	@ ../Libraries/STM32F4xx_StdPeriph_Driver/src/stm32f4xx_wwdg.c:171:   __IO uint32_t tmpreg = 0;
ARM GAS  C:\Users\admin\AppData\Local\Temp\ccwT4fBV.s 			page 8


 224              		.loc 1 171 17 view .LVU26
 225 0002 0023     		movs	r3, #0	@ tmp124,
 226              	@ ../Libraries/STM32F4xx_StdPeriph_Driver/src/stm32f4xx_wwdg.c:170: {
 170:../Libraries/STM32F4xx_StdPeriph_Driver/src/stm32f4xx_wwdg.c ****   __IO uint32_t tmpreg = 0;
 227              		.loc 1 170 1 view .LVU27
 228 0004 0446     		mov	r4, r0	@ WindowValue, tmp134
 229              	@ ../Libraries/STM32F4xx_StdPeriph_Driver/src/stm32f4xx_wwdg.c:174:   assert_param(IS_WWDG_WINDOW_V
 172:../Libraries/STM32F4xx_StdPeriph_Driver/src/stm32f4xx_wwdg.c **** 
 173:../Libraries/STM32F4xx_StdPeriph_Driver/src/stm32f4xx_wwdg.c ****   /* Check the parameters */
 174:../Libraries/STM32F4xx_StdPeriph_Driver/src/stm32f4xx_wwdg.c ****   assert_param(IS_WWDG_WINDOW_VALUE(WindowValue));
 230              		.loc 1 174 3 view .LVU28
 231 0006 40B2     		sxtb	r0, r0	@ WindowValue, WindowValue
 232              	@ ../Libraries/STM32F4xx_StdPeriph_Driver/src/stm32f4xx_wwdg.c:170: {
 170:../Libraries/STM32F4xx_StdPeriph_Driver/src/stm32f4xx_wwdg.c ****   __IO uint32_t tmpreg = 0;
 233              		.loc 1 170 1 view .LVU29
 234 0008 82B0     		sub	sp, sp, #8	@,,
 235              		.cfi_def_cfa_offset 16
 236              	@ ../Libraries/STM32F4xx_StdPeriph_Driver/src/stm32f4xx_wwdg.c:174:   assert_param(IS_WWDG_WINDOW_V
 237              		.loc 1 174 3 view .LVU30
 238 000a 9842     		cmp	r0, r3	@ WindowValue,
 239 000c B4BF     		ite	lt
 240 000e 0020     		movlt	r0, #0	@,
 241              	.LVL9:
 242              		.loc 1 174 3 view .LVU31
 243 0010 0120     		movge	r0, #1	@,
 244              	@ ../Libraries/STM32F4xx_StdPeriph_Driver/src/stm32f4xx_wwdg.c:171:   __IO uint32_t tmpreg = 0;
 171:../Libraries/STM32F4xx_StdPeriph_Driver/src/stm32f4xx_wwdg.c **** 
 245              		.loc 1 171 17 view .LVU32
 246 0012 0193     		str	r3, [sp, #4]	@ tmp124, tmpreg
 247              		.loc 1 174 3 is_stmt 1 view .LVU33
 248 0014 FFF7FEFF 		bl	assert_param		@
 249              	.LVL10:
 175:../Libraries/STM32F4xx_StdPeriph_Driver/src/stm32f4xx_wwdg.c ****   /* Clear W[6:0] bits */
 176:../Libraries/STM32F4xx_StdPeriph_Driver/src/stm32f4xx_wwdg.c **** 
 177:../Libraries/STM32F4xx_StdPeriph_Driver/src/stm32f4xx_wwdg.c ****   tmpreg = WWDG->CFR & CFR_W_MASK;
 250              		.loc 1 177 3 view .LVU34
 251              	@ ../Libraries/STM32F4xx_StdPeriph_Driver/src/stm32f4xx_wwdg.c:177:   tmpreg = WWDG->CFR & CFR_W_MA
 252              		.loc 1 177 16 is_stmt 0 view .LVU35
 253 0018 064A     		ldr	r2, .L10	@ tmp130,
 254 001a 5368     		ldr	r3, [r2, #4]	@ _5, MEM[(struct WWDG_TypeDef *)1073753088B].CFR
 255              	@ ../Libraries/STM32F4xx_StdPeriph_Driver/src/stm32f4xx_wwdg.c:177:   tmpreg = WWDG->CFR & CFR_W_MA
 256              		.loc 1 177 22 view .LVU36
 257 001c 23F07F03 		bic	r3, r3, #127	@ _6, _5,
 258              	@ ../Libraries/STM32F4xx_StdPeriph_Driver/src/stm32f4xx_wwdg.c:177:   tmpreg = WWDG->CFR & CFR_W_MA
 259              		.loc 1 177 10 view .LVU37
 260 0020 0193     		str	r3, [sp, #4]	@ _6, tmpreg
 178:../Libraries/STM32F4xx_StdPeriph_Driver/src/stm32f4xx_wwdg.c **** 
 179:../Libraries/STM32F4xx_StdPeriph_Driver/src/stm32f4xx_wwdg.c ****   /* Set W[6:0] bits according to WindowValue value */
 180:../Libraries/STM32F4xx_StdPeriph_Driver/src/stm32f4xx_wwdg.c ****   tmpreg |= WindowValue & (uint32_t) BIT_MASK;
 261              		.loc 1 180 3 is_stmt 1 view .LVU38
 262              	@ ../Libraries/STM32F4xx_StdPeriph_Driver/src/stm32f4xx_wwdg.c:180:   tmpreg |= WindowValue & (uint
 263              		.loc 1 180 10 is_stmt 0 view .LVU39
 264 0022 0198     		ldr	r0, [sp, #4]	@ tmpreg.2_8, tmpreg
 265              	@ ../Libraries/STM32F4xx_StdPeriph_Driver/src/stm32f4xx_wwdg.c:180:   tmpreg |= WindowValue & (uint
 266              		.loc 1 180 25 view .LVU40
 267 0024 04F07F04 		and	r4, r4, #127	@ tmp132, WindowValue,
 268              	@ ../Libraries/STM32F4xx_StdPeriph_Driver/src/stm32f4xx_wwdg.c:180:   tmpreg |= WindowValue & (uint
ARM GAS  C:\Users\admin\AppData\Local\Temp\ccwT4fBV.s 			page 9


 269              		.loc 1 180 10 view .LVU41
 270 0028 0443     		orrs	r4, r4, r0	@, _9, tmp132, tmpreg.2_8
 271 002a 0194     		str	r4, [sp, #4]	@ _9, tmpreg
 181:../Libraries/STM32F4xx_StdPeriph_Driver/src/stm32f4xx_wwdg.c **** 
 182:../Libraries/STM32F4xx_StdPeriph_Driver/src/stm32f4xx_wwdg.c ****   /* Store the new value */
 183:../Libraries/STM32F4xx_StdPeriph_Driver/src/stm32f4xx_wwdg.c ****   WWDG->CFR = tmpreg;
 272              		.loc 1 183 3 is_stmt 1 view .LVU42
 273              	@ ../Libraries/STM32F4xx_StdPeriph_Driver/src/stm32f4xx_wwdg.c:183:   WWDG->CFR = tmpreg;
 274              		.loc 1 183 13 is_stmt 0 view .LVU43
 275 002c 019B     		ldr	r3, [sp, #4]	@ tmpreg.3_10, tmpreg
 276 002e 5360     		str	r3, [r2, #4]	@ tmpreg.3_10, MEM[(struct WWDG_TypeDef *)1073753088B].CFR
 277              	@ ../Libraries/STM32F4xx_StdPeriph_Driver/src/stm32f4xx_wwdg.c:184: }
 184:../Libraries/STM32F4xx_StdPeriph_Driver/src/stm32f4xx_wwdg.c **** }
 278              		.loc 1 184 1 view .LVU44
 279 0030 02B0     		add	sp, sp, #8	@,,
 280              		.cfi_def_cfa_offset 8
 281              		@ sp needed	@
 282 0032 10BD     		pop	{r4, pc}	@
 283              	.L11:
 284              		.align	2
 285              	.L10:
 286 0034 002C0040 		.word	1073753088
 287              		.cfi_endproc
 288              	.LFE112:
 289              		.size	WWDG_SetWindowValue, .-WWDG_SetWindowValue
 290              		.section	.text.WWDG_EnableIT,"ax",%progbits
 291              		.align	1
 292              		.p2align 2,,3
 293              		.global	WWDG_EnableIT
 294              		.syntax unified
 295              		.thumb
 296              		.thumb_func
 297              		.type	WWDG_EnableIT, %function
 298              	WWDG_EnableIT:
 299              	.LFB113:
 185:../Libraries/STM32F4xx_StdPeriph_Driver/src/stm32f4xx_wwdg.c **** 
 186:../Libraries/STM32F4xx_StdPeriph_Driver/src/stm32f4xx_wwdg.c **** /**
 187:../Libraries/STM32F4xx_StdPeriph_Driver/src/stm32f4xx_wwdg.c ****   * @brief  Enables the WWDG Early Wakeup interrupt(EWI).
 188:../Libraries/STM32F4xx_StdPeriph_Driver/src/stm32f4xx_wwdg.c ****   * @note   Once enabled this interrupt cannot be disabled except by a system reset.
 189:../Libraries/STM32F4xx_StdPeriph_Driver/src/stm32f4xx_wwdg.c ****   * @param  None
 190:../Libraries/STM32F4xx_StdPeriph_Driver/src/stm32f4xx_wwdg.c ****   * @retval None
 191:../Libraries/STM32F4xx_StdPeriph_Driver/src/stm32f4xx_wwdg.c ****   */
 192:../Libraries/STM32F4xx_StdPeriph_Driver/src/stm32f4xx_wwdg.c **** void WWDG_EnableIT(void)
 193:../Libraries/STM32F4xx_StdPeriph_Driver/src/stm32f4xx_wwdg.c **** {
 300              		.loc 1 193 1 is_stmt 1 view -0
 301              		.cfi_startproc
 302              		@ args = 0, pretend = 0, frame = 0
 303              		@ frame_needed = 0, uses_anonymous_args = 0
 304              		@ link register save eliminated.
 194:../Libraries/STM32F4xx_StdPeriph_Driver/src/stm32f4xx_wwdg.c ****   *(__IO uint32_t *) CFR_EWI_BB = (uint32_t)ENABLE;
 305              		.loc 1 194 3 view .LVU46
 306              	@ ../Libraries/STM32F4xx_StdPeriph_Driver/src/stm32f4xx_wwdg.c:194:   *(__IO uint32_t *) CFR_EWI_BB
 307              		.loc 1 194 33 is_stmt 0 view .LVU47
 308 0000 024B     		ldr	r3, .L13	@ tmp113,
 309 0002 0122     		movs	r2, #1	@ tmp114,
 310 0004 C3F8A420 		str	r2, [r3, #164]	@ tmp114, MEM[(volatile uint32_t *)1107656868B]
 311              	@ ../Libraries/STM32F4xx_StdPeriph_Driver/src/stm32f4xx_wwdg.c:195: }
ARM GAS  C:\Users\admin\AppData\Local\Temp\ccwT4fBV.s 			page 10


 195:../Libraries/STM32F4xx_StdPeriph_Driver/src/stm32f4xx_wwdg.c **** }
 312              		.loc 1 195 1 view .LVU48
 313 0008 7047     		bx	lr	@
 314              	.L14:
 315 000a 00BF     		.align	2
 316              	.L13:
 317 000c 00800542 		.word	1107656704
 318              		.cfi_endproc
 319              	.LFE113:
 320              		.size	WWDG_EnableIT, .-WWDG_EnableIT
 321              		.section	.text.WWDG_SetCounter,"ax",%progbits
 322              		.align	1
 323              		.p2align 2,,3
 324              		.global	WWDG_SetCounter
 325              		.syntax unified
 326              		.thumb
 327              		.thumb_func
 328              		.type	WWDG_SetCounter, %function
 329              	WWDG_SetCounter:
 330              	.LVL11:
 331              	.LFB114:
 196:../Libraries/STM32F4xx_StdPeriph_Driver/src/stm32f4xx_wwdg.c **** 
 197:../Libraries/STM32F4xx_StdPeriph_Driver/src/stm32f4xx_wwdg.c **** /**
 198:../Libraries/STM32F4xx_StdPeriph_Driver/src/stm32f4xx_wwdg.c ****   * @brief  Sets the WWDG counter value.
 199:../Libraries/STM32F4xx_StdPeriph_Driver/src/stm32f4xx_wwdg.c ****   * @param  Counter: specifies the watchdog counter value.
 200:../Libraries/STM32F4xx_StdPeriph_Driver/src/stm32f4xx_wwdg.c ****   *   This parameter must be a number between 0x40 and 0x7F (to prevent generating
 201:../Libraries/STM32F4xx_StdPeriph_Driver/src/stm32f4xx_wwdg.c ****   *   an immediate reset) 
 202:../Libraries/STM32F4xx_StdPeriph_Driver/src/stm32f4xx_wwdg.c ****   * @retval None
 203:../Libraries/STM32F4xx_StdPeriph_Driver/src/stm32f4xx_wwdg.c ****   */
 204:../Libraries/STM32F4xx_StdPeriph_Driver/src/stm32f4xx_wwdg.c **** void WWDG_SetCounter(uint8_t Counter)
 205:../Libraries/STM32F4xx_StdPeriph_Driver/src/stm32f4xx_wwdg.c **** {
 332              		.loc 1 205 1 is_stmt 1 view -0
 333              		.cfi_startproc
 334              		@ args = 0, pretend = 0, frame = 0
 335              		@ frame_needed = 0, uses_anonymous_args = 0
 206:../Libraries/STM32F4xx_StdPeriph_Driver/src/stm32f4xx_wwdg.c ****   /* Check the parameters */
 207:../Libraries/STM32F4xx_StdPeriph_Driver/src/stm32f4xx_wwdg.c ****   assert_param(IS_WWDG_COUNTER(Counter));
 336              		.loc 1 207 3 view .LVU50
 337              	@ ../Libraries/STM32F4xx_StdPeriph_Driver/src/stm32f4xx_wwdg.c:205: {
 205:../Libraries/STM32F4xx_StdPeriph_Driver/src/stm32f4xx_wwdg.c ****   /* Check the parameters */
 338              		.loc 1 205 1 is_stmt 0 view .LVU51
 339 0000 10B5     		push	{r4, lr}	@
 340              		.cfi_def_cfa_offset 8
 341              		.cfi_offset 4, -8
 342              		.cfi_offset 14, -4
 343              	@ ../Libraries/STM32F4xx_StdPeriph_Driver/src/stm32f4xx_wwdg.c:205: {
 205:../Libraries/STM32F4xx_StdPeriph_Driver/src/stm32f4xx_wwdg.c ****   /* Check the parameters */
 344              		.loc 1 205 1 view .LVU52
 345 0002 0446     		mov	r4, r0	@ Counter, tmp127
 346              	@ ../Libraries/STM32F4xx_StdPeriph_Driver/src/stm32f4xx_wwdg.c:207:   assert_param(IS_WWDG_COUNTER(
 347              		.loc 1 207 3 view .LVU53
 348 0004 4038     		subs	r0, r0, #64	@ tmp123, Counter,
 349              	.LVL12:
 350              		.loc 1 207 3 view .LVU54
 351 0006 3F28     		cmp	r0, #63	@ tmp123,
 352 0008 8CBF     		ite	hi
 353 000a 0020     		movhi	r0, #0	@,
ARM GAS  C:\Users\admin\AppData\Local\Temp\ccwT4fBV.s 			page 11


 354 000c 0120     		movls	r0, #1	@,
 355 000e FFF7FEFF 		bl	assert_param		@
 356              	.LVL13:
 208:../Libraries/STM32F4xx_StdPeriph_Driver/src/stm32f4xx_wwdg.c ****   /* Write to T[6:0] bits to configure the counter value, no need to do
 209:../Libraries/STM32F4xx_StdPeriph_Driver/src/stm32f4xx_wwdg.c ****      a read-modify-write; writing a 0 to WDGA bit does nothing */
 210:../Libraries/STM32F4xx_StdPeriph_Driver/src/stm32f4xx_wwdg.c ****   WWDG->CR = Counter & BIT_MASK;
 357              		.loc 1 210 3 is_stmt 1 view .LVU55
 358              	@ ../Libraries/STM32F4xx_StdPeriph_Driver/src/stm32f4xx_wwdg.c:210:   WWDG->CR = Counter & BIT_MASK
 359              		.loc 1 210 12 is_stmt 0 view .LVU56
 360 0012 024B     		ldr	r3, .L17	@ tmp126,
 361              	@ ../Libraries/STM32F4xx_StdPeriph_Driver/src/stm32f4xx_wwdg.c:210:   WWDG->CR = Counter & BIT_MASK
 362              		.loc 1 210 22 view .LVU57
 363 0014 04F07F04 		and	r4, r4, #127	@ _5, Counter,
 364              	@ ../Libraries/STM32F4xx_StdPeriph_Driver/src/stm32f4xx_wwdg.c:210:   WWDG->CR = Counter & BIT_MASK
 365              		.loc 1 210 12 view .LVU58
 366 0018 1C60     		str	r4, [r3]	@ _5, MEM[(struct WWDG_TypeDef *)1073753088B].CR
 367              	@ ../Libraries/STM32F4xx_StdPeriph_Driver/src/stm32f4xx_wwdg.c:211: }
 211:../Libraries/STM32F4xx_StdPeriph_Driver/src/stm32f4xx_wwdg.c **** }
 368              		.loc 1 211 1 view .LVU59
 369 001a 10BD     		pop	{r4, pc}	@
 370              	.L18:
 371              		.align	2
 372              	.L17:
 373 001c 002C0040 		.word	1073753088
 374              		.cfi_endproc
 375              	.LFE114:
 376              		.size	WWDG_SetCounter, .-WWDG_SetCounter
 377              		.section	.text.WWDG_Enable,"ax",%progbits
 378              		.align	1
 379              		.p2align 2,,3
 380              		.global	WWDG_Enable
 381              		.syntax unified
 382              		.thumb
 383              		.thumb_func
 384              		.type	WWDG_Enable, %function
 385              	WWDG_Enable:
 386              	.LVL14:
 387              	.LFB115:
 212:../Libraries/STM32F4xx_StdPeriph_Driver/src/stm32f4xx_wwdg.c **** /**
 213:../Libraries/STM32F4xx_StdPeriph_Driver/src/stm32f4xx_wwdg.c ****   * @}
 214:../Libraries/STM32F4xx_StdPeriph_Driver/src/stm32f4xx_wwdg.c ****   */
 215:../Libraries/STM32F4xx_StdPeriph_Driver/src/stm32f4xx_wwdg.c **** 
 216:../Libraries/STM32F4xx_StdPeriph_Driver/src/stm32f4xx_wwdg.c **** /** @defgroup WWDG_Group2 WWDG activation functions
 217:../Libraries/STM32F4xx_StdPeriph_Driver/src/stm32f4xx_wwdg.c ****  *  @brief   WWDG activation functions 
 218:../Libraries/STM32F4xx_StdPeriph_Driver/src/stm32f4xx_wwdg.c ****  *
 219:../Libraries/STM32F4xx_StdPeriph_Driver/src/stm32f4xx_wwdg.c **** @verbatim   
 220:../Libraries/STM32F4xx_StdPeriph_Driver/src/stm32f4xx_wwdg.c ****  ===============================================================================
 221:../Libraries/STM32F4xx_StdPeriph_Driver/src/stm32f4xx_wwdg.c ****                        WWDG activation function
 222:../Libraries/STM32F4xx_StdPeriph_Driver/src/stm32f4xx_wwdg.c ****  ===============================================================================  
 223:../Libraries/STM32F4xx_StdPeriph_Driver/src/stm32f4xx_wwdg.c **** 
 224:../Libraries/STM32F4xx_StdPeriph_Driver/src/stm32f4xx_wwdg.c **** @endverbatim
 225:../Libraries/STM32F4xx_StdPeriph_Driver/src/stm32f4xx_wwdg.c ****   * @{
 226:../Libraries/STM32F4xx_StdPeriph_Driver/src/stm32f4xx_wwdg.c ****   */
 227:../Libraries/STM32F4xx_StdPeriph_Driver/src/stm32f4xx_wwdg.c **** 
 228:../Libraries/STM32F4xx_StdPeriph_Driver/src/stm32f4xx_wwdg.c **** /**
 229:../Libraries/STM32F4xx_StdPeriph_Driver/src/stm32f4xx_wwdg.c ****   * @brief  Enables WWDG and load the counter value.                  
 230:../Libraries/STM32F4xx_StdPeriph_Driver/src/stm32f4xx_wwdg.c ****   * @param  Counter: specifies the watchdog counter value.
ARM GAS  C:\Users\admin\AppData\Local\Temp\ccwT4fBV.s 			page 12


 231:../Libraries/STM32F4xx_StdPeriph_Driver/src/stm32f4xx_wwdg.c ****   *   This parameter must be a number between 0x40 and 0x7F (to prevent generating
 232:../Libraries/STM32F4xx_StdPeriph_Driver/src/stm32f4xx_wwdg.c ****   *   an immediate reset)
 233:../Libraries/STM32F4xx_StdPeriph_Driver/src/stm32f4xx_wwdg.c ****   * @retval None
 234:../Libraries/STM32F4xx_StdPeriph_Driver/src/stm32f4xx_wwdg.c ****   */
 235:../Libraries/STM32F4xx_StdPeriph_Driver/src/stm32f4xx_wwdg.c **** void WWDG_Enable(uint8_t Counter)
 236:../Libraries/STM32F4xx_StdPeriph_Driver/src/stm32f4xx_wwdg.c **** {
 388              		.loc 1 236 1 is_stmt 1 view -0
 389              		.cfi_startproc
 390              		@ args = 0, pretend = 0, frame = 0
 391              		@ frame_needed = 0, uses_anonymous_args = 0
 237:../Libraries/STM32F4xx_StdPeriph_Driver/src/stm32f4xx_wwdg.c ****   /* Check the parameters */
 238:../Libraries/STM32F4xx_StdPeriph_Driver/src/stm32f4xx_wwdg.c ****   assert_param(IS_WWDG_COUNTER(Counter));
 392              		.loc 1 238 3 view .LVU61
 393              	@ ../Libraries/STM32F4xx_StdPeriph_Driver/src/stm32f4xx_wwdg.c:236: {
 236:../Libraries/STM32F4xx_StdPeriph_Driver/src/stm32f4xx_wwdg.c ****   /* Check the parameters */
 394              		.loc 1 236 1 is_stmt 0 view .LVU62
 395 0000 10B5     		push	{r4, lr}	@
 396              		.cfi_def_cfa_offset 8
 397              		.cfi_offset 4, -8
 398              		.cfi_offset 14, -4
 399              	@ ../Libraries/STM32F4xx_StdPeriph_Driver/src/stm32f4xx_wwdg.c:236: {
 236:../Libraries/STM32F4xx_StdPeriph_Driver/src/stm32f4xx_wwdg.c ****   /* Check the parameters */
 400              		.loc 1 236 1 view .LVU63
 401 0002 0446     		mov	r4, r0	@ Counter, tmp127
 402              	@ ../Libraries/STM32F4xx_StdPeriph_Driver/src/stm32f4xx_wwdg.c:238:   assert_param(IS_WWDG_COUNTER(
 403              		.loc 1 238 3 view .LVU64
 404 0004 4038     		subs	r0, r0, #64	@ tmp123, Counter,
 405              	.LVL15:
 406              		.loc 1 238 3 view .LVU65
 407 0006 3F28     		cmp	r0, #63	@ tmp123,
 408 0008 8CBF     		ite	hi
 409 000a 0020     		movhi	r0, #0	@,
 410 000c 0120     		movls	r0, #1	@,
 411 000e FFF7FEFF 		bl	assert_param		@
 412              	.LVL16:
 239:../Libraries/STM32F4xx_StdPeriph_Driver/src/stm32f4xx_wwdg.c ****   WWDG->CR = WWDG_CR_WDGA | Counter;
 413              		.loc 1 239 3 is_stmt 1 view .LVU66
 414              	@ ../Libraries/STM32F4xx_StdPeriph_Driver/src/stm32f4xx_wwdg.c:239:   WWDG->CR = WWDG_CR_WDGA | Cou
 415              		.loc 1 239 12 is_stmt 0 view .LVU67
 416 0012 024B     		ldr	r3, .L21	@ tmp126,
 417              	@ ../Libraries/STM32F4xx_StdPeriph_Driver/src/stm32f4xx_wwdg.c:239:   WWDG->CR = WWDG_CR_WDGA | Cou
 418              		.loc 1 239 27 view .LVU68
 419 0014 44F08004 		orr	r4, r4, #128	@ _5, Counter,
 420              	@ ../Libraries/STM32F4xx_StdPeriph_Driver/src/stm32f4xx_wwdg.c:239:   WWDG->CR = WWDG_CR_WDGA | Cou
 421              		.loc 1 239 12 view .LVU69
 422 0018 1C60     		str	r4, [r3]	@ _5, MEM[(struct WWDG_TypeDef *)1073753088B].CR
 423              	@ ../Libraries/STM32F4xx_StdPeriph_Driver/src/stm32f4xx_wwdg.c:240: }
 240:../Libraries/STM32F4xx_StdPeriph_Driver/src/stm32f4xx_wwdg.c **** }
 424              		.loc 1 240 1 view .LVU70
 425 001a 10BD     		pop	{r4, pc}	@
 426              	.L22:
 427              		.align	2
 428              	.L21:
 429 001c 002C0040 		.word	1073753088
 430              		.cfi_endproc
 431              	.LFE115:
 432              		.size	WWDG_Enable, .-WWDG_Enable
ARM GAS  C:\Users\admin\AppData\Local\Temp\ccwT4fBV.s 			page 13


 433              		.section	.text.WWDG_GetFlagStatus,"ax",%progbits
 434              		.align	1
 435              		.p2align 2,,3
 436              		.global	WWDG_GetFlagStatus
 437              		.syntax unified
 438              		.thumb
 439              		.thumb_func
 440              		.type	WWDG_GetFlagStatus, %function
 441              	WWDG_GetFlagStatus:
 442              	.LFB116:
 241:../Libraries/STM32F4xx_StdPeriph_Driver/src/stm32f4xx_wwdg.c **** /**
 242:../Libraries/STM32F4xx_StdPeriph_Driver/src/stm32f4xx_wwdg.c ****   * @}
 243:../Libraries/STM32F4xx_StdPeriph_Driver/src/stm32f4xx_wwdg.c ****   */
 244:../Libraries/STM32F4xx_StdPeriph_Driver/src/stm32f4xx_wwdg.c **** 
 245:../Libraries/STM32F4xx_StdPeriph_Driver/src/stm32f4xx_wwdg.c **** /** @defgroup WWDG_Group3 Interrupts and flags management functions
 246:../Libraries/STM32F4xx_StdPeriph_Driver/src/stm32f4xx_wwdg.c ****  *  @brief   Interrupts and flags management functions 
 247:../Libraries/STM32F4xx_StdPeriph_Driver/src/stm32f4xx_wwdg.c ****  *
 248:../Libraries/STM32F4xx_StdPeriph_Driver/src/stm32f4xx_wwdg.c **** @verbatim   
 249:../Libraries/STM32F4xx_StdPeriph_Driver/src/stm32f4xx_wwdg.c ****  ===============================================================================
 250:../Libraries/STM32F4xx_StdPeriph_Driver/src/stm32f4xx_wwdg.c ****                  Interrupts and flags management functions
 251:../Libraries/STM32F4xx_StdPeriph_Driver/src/stm32f4xx_wwdg.c ****  ===============================================================================  
 252:../Libraries/STM32F4xx_StdPeriph_Driver/src/stm32f4xx_wwdg.c **** 
 253:../Libraries/STM32F4xx_StdPeriph_Driver/src/stm32f4xx_wwdg.c **** @endverbatim
 254:../Libraries/STM32F4xx_StdPeriph_Driver/src/stm32f4xx_wwdg.c ****   * @{
 255:../Libraries/STM32F4xx_StdPeriph_Driver/src/stm32f4xx_wwdg.c ****   */
 256:../Libraries/STM32F4xx_StdPeriph_Driver/src/stm32f4xx_wwdg.c **** 
 257:../Libraries/STM32F4xx_StdPeriph_Driver/src/stm32f4xx_wwdg.c **** /**
 258:../Libraries/STM32F4xx_StdPeriph_Driver/src/stm32f4xx_wwdg.c ****   * @brief  Checks whether the Early Wakeup interrupt flag is set or not.
 259:../Libraries/STM32F4xx_StdPeriph_Driver/src/stm32f4xx_wwdg.c ****   * @param  None
 260:../Libraries/STM32F4xx_StdPeriph_Driver/src/stm32f4xx_wwdg.c ****   * @retval The new state of the Early Wakeup interrupt flag (SET or RESET)
 261:../Libraries/STM32F4xx_StdPeriph_Driver/src/stm32f4xx_wwdg.c ****   */
 262:../Libraries/STM32F4xx_StdPeriph_Driver/src/stm32f4xx_wwdg.c **** FlagStatus WWDG_GetFlagStatus(void)
 263:../Libraries/STM32F4xx_StdPeriph_Driver/src/stm32f4xx_wwdg.c **** {
 443              		.loc 1 263 1 is_stmt 1 view -0
 444              		.cfi_startproc
 445              		@ args = 0, pretend = 0, frame = 0
 446              		@ frame_needed = 0, uses_anonymous_args = 0
 447              		@ link register save eliminated.
 264:../Libraries/STM32F4xx_StdPeriph_Driver/src/stm32f4xx_wwdg.c ****   FlagStatus bitstatus = RESET;
 448              		.loc 1 264 3 view .LVU72
 449              	.LVL17:
 265:../Libraries/STM32F4xx_StdPeriph_Driver/src/stm32f4xx_wwdg.c ****     
 266:../Libraries/STM32F4xx_StdPeriph_Driver/src/stm32f4xx_wwdg.c ****   if ((WWDG->SR) != (uint32_t)RESET)
 450              		.loc 1 266 3 view .LVU73
 451              	@ ../Libraries/STM32F4xx_StdPeriph_Driver/src/stm32f4xx_wwdg.c:266:   if ((WWDG->SR) != (uint32_t)R
 452              		.loc 1 266 12 is_stmt 0 view .LVU74
 453 0000 024B     		ldr	r3, .L24	@ tmp116,
 454 0002 9868     		ldr	r0, [r3, #8]	@ _1, MEM[(struct WWDG_TypeDef *)1073753088B].SR
 455              	.LVL18:
 267:../Libraries/STM32F4xx_StdPeriph_Driver/src/stm32f4xx_wwdg.c ****   {
 268:../Libraries/STM32F4xx_StdPeriph_Driver/src/stm32f4xx_wwdg.c ****     bitstatus = SET;
 269:../Libraries/STM32F4xx_StdPeriph_Driver/src/stm32f4xx_wwdg.c ****   }
 270:../Libraries/STM32F4xx_StdPeriph_Driver/src/stm32f4xx_wwdg.c ****   else
 271:../Libraries/STM32F4xx_StdPeriph_Driver/src/stm32f4xx_wwdg.c ****   {
 272:../Libraries/STM32F4xx_StdPeriph_Driver/src/stm32f4xx_wwdg.c ****     bitstatus = RESET;
 273:../Libraries/STM32F4xx_StdPeriph_Driver/src/stm32f4xx_wwdg.c ****   }
 274:../Libraries/STM32F4xx_StdPeriph_Driver/src/stm32f4xx_wwdg.c ****   return bitstatus;
ARM GAS  C:\Users\admin\AppData\Local\Temp\ccwT4fBV.s 			page 14


 456              		.loc 1 274 3 is_stmt 1 view .LVU75
 457              	@ ../Libraries/STM32F4xx_StdPeriph_Driver/src/stm32f4xx_wwdg.c:275: }
 275:../Libraries/STM32F4xx_StdPeriph_Driver/src/stm32f4xx_wwdg.c **** }
 458              		.loc 1 275 1 is_stmt 0 view .LVU76
 459 0004 0038     		subs	r0, r0, #0	@, _1,
 460              		.loc 1 275 1 view .LVU77
 461 0006 18BF     		it	ne
 462 0008 0120     		movne	r0, #1	@,
 463              	.LVL19:
 464              		.loc 1 275 1 view .LVU78
 465 000a 7047     		bx	lr	@
 466              	.L25:
 467              		.align	2
 468              	.L24:
 469 000c 002C0040 		.word	1073753088
 470              		.cfi_endproc
 471              	.LFE116:
 472              		.size	WWDG_GetFlagStatus, .-WWDG_GetFlagStatus
 473              		.section	.text.WWDG_ClearFlag,"ax",%progbits
 474              		.align	1
 475              		.p2align 2,,3
 476              		.global	WWDG_ClearFlag
 477              		.syntax unified
 478              		.thumb
 479              		.thumb_func
 480              		.type	WWDG_ClearFlag, %function
 481              	WWDG_ClearFlag:
 482              	.LFB117:
 276:../Libraries/STM32F4xx_StdPeriph_Driver/src/stm32f4xx_wwdg.c **** 
 277:../Libraries/STM32F4xx_StdPeriph_Driver/src/stm32f4xx_wwdg.c **** /**
 278:../Libraries/STM32F4xx_StdPeriph_Driver/src/stm32f4xx_wwdg.c ****   * @brief  Clears Early Wakeup interrupt flag.
 279:../Libraries/STM32F4xx_StdPeriph_Driver/src/stm32f4xx_wwdg.c ****   * @param  None
 280:../Libraries/STM32F4xx_StdPeriph_Driver/src/stm32f4xx_wwdg.c ****   * @retval None
 281:../Libraries/STM32F4xx_StdPeriph_Driver/src/stm32f4xx_wwdg.c ****   */
 282:../Libraries/STM32F4xx_StdPeriph_Driver/src/stm32f4xx_wwdg.c **** void WWDG_ClearFlag(void)
 283:../Libraries/STM32F4xx_StdPeriph_Driver/src/stm32f4xx_wwdg.c **** {
 483              		.loc 1 283 1 is_stmt 1 view -0
 484              		.cfi_startproc
 485              		@ args = 0, pretend = 0, frame = 0
 486              		@ frame_needed = 0, uses_anonymous_args = 0
 487              		@ link register save eliminated.
 284:../Libraries/STM32F4xx_StdPeriph_Driver/src/stm32f4xx_wwdg.c ****   WWDG->SR = (uint32_t)RESET;
 488              		.loc 1 284 3 view .LVU80
 489              	@ ../Libraries/STM32F4xx_StdPeriph_Driver/src/stm32f4xx_wwdg.c:284:   WWDG->SR = (uint32_t)RESET;
 490              		.loc 1 284 12 is_stmt 0 view .LVU81
 491 0000 014B     		ldr	r3, .L27	@ tmp113,
 492 0002 0022     		movs	r2, #0	@ tmp114,
 493 0004 9A60     		str	r2, [r3, #8]	@ tmp114, MEM[(struct WWDG_TypeDef *)1073753088B].SR
 494              	@ ../Libraries/STM32F4xx_StdPeriph_Driver/src/stm32f4xx_wwdg.c:285: }
 285:../Libraries/STM32F4xx_StdPeriph_Driver/src/stm32f4xx_wwdg.c **** }
 495              		.loc 1 285 1 view .LVU82
 496 0006 7047     		bx	lr	@
 497              	.L28:
 498              		.align	2
 499              	.L27:
 500 0008 002C0040 		.word	1073753088
 501              		.cfi_endproc
ARM GAS  C:\Users\admin\AppData\Local\Temp\ccwT4fBV.s 			page 15


 502              	.LFE117:
 503              		.size	WWDG_ClearFlag, .-WWDG_ClearFlag
 504              		.text
 505              	.Letext0:
 506              		.file 2 "c:\\program files (x86)\\gnu arm embedded toolchain\\10 2021.10\\arm-none-eabi\\include\\
 507              		.file 3 "c:\\program files (x86)\\gnu arm embedded toolchain\\10 2021.10\\arm-none-eabi\\include\\
 508              		.file 4 "../Libraries/CMSIS/ST/STM32F4xx/Include/stm32f4xx.h"
 509              		.file 5 "../Libraries/STM32F4xx_StdPeriph_Driver/inc/stm32f4xx_rcc.h"