ARM GAS  C:\Users\admin\AppData\Local\Temp\ccgI8z3R.s 			page 1


   1              		.cpu cortex-m4
   2              		.arch armv7e-m
   3              		.fpu fpv4-sp-d16
   4              		.eabi_attribute 27, 1	@ Tag_ABI_HardFP_use
   5              		.eabi_attribute 28, 1	@ Tag_ABI_VFP_args
   6              		.eabi_attribute 23, 1	@ Tag_ABI_FP_number_model
   7              		.eabi_attribute 24, 1	@ Tag_ABI_align8_needed
   8              		.eabi_attribute 25, 1	@ Tag_ABI_align8_preserved
   9              		.eabi_attribute 26, 1	@ Tag_ABI_enum_size
  10              		.eabi_attribute 30, 2	@ Tag_ABI_optimization_goals
  11              		.eabi_attribute 34, 1	@ Tag_CPU_unaligned_access
  12              		.eabi_attribute 18, 4	@ Tag_ABI_PCS_wchar_t
  13              		.file	"stm32f4xx_it.c"
  14              	@ GNU C89 (GNU Arm Embedded Toolchain 10.3-2021.10) version 10.3.1 20210824 (release) (arm-none-eab
  15              	@	compiled by GNU C version 7.3-win32 20180312, GMP version 6.1.0, MPFR version 3.1.4, MPC version 
  16              	
  17              	@ GGC heuristics: --param ggc-min-expand=100 --param ggc-min-heapsize=131072
  18              	@ options passed:  -I . -I . -I ../Utilities/STM32F4-Discovery/
  19              	@ -I ../Libraries/STM32_USB_Device_Library/Class/audio/inc/
  20              	@ -I ../Libraries/STM32_USB_Device_Library/Core/inc/
  21              	@ -I ../Libraries/STM32_USB_OTG_Driver/inc/
  22              	@ -I ../Utilities/STM32F4-Discovery/
  23              	@ -I ../Libraries/STM32F4xx_StdPeriph_Driver/inc/
  24              	@ -I ../Utilities/STM32F4-Discovery/
  25              	@ -I ../Libraries/CMSIS/ST/STM32F4xx/Include/
  26              	@ -I ../Libraries/CMSIS/Include/ -imultilib thumb/v7e-m+fp/hard
  27              	@ -iprefix c:\program files (x86)\gnu arm embedded toolchain\10 2021.10\bin\../lib/gcc/arm-none-eab
  28              	@ -isysroot c:\program files (x86)\gnu arm embedded toolchain\10 2021.10\bin\../arm-none-eabi
  29              	@ -MD out/stm32f4xx_it.d -MF out/stm32f4xx_it.d -MP -MQ out/stm32f4xx_it.o
  30              	@ -D__USES_INITFINI__ -D STM32F4XX -D __VFP_FP__ -D USE_USB_OTG_FS
  31              	@ stm32f4xx_it.c -mcpu=cortex-m4 -mthumb -mfloat-abi=hard -mfpu=fpv4-sp-d16
  32              	@ -mlibarch=armv7e-m+fp -march=armv7e-m+fp
  33              	@ -auxbase-strip out/stm32f4xx_it.o -g -ggdb3 -O3 -Wall -Wstrict-prototypes
  34              	@ -Wextra -std=gnu90 -ffast-math -ffunction-sections -fdata-sections
  35              	@ -fverbose-asm
  36              	@ options enabled:  -faggressive-loop-optimizations -falign-functions
  37              	@ -falign-jumps -falign-labels -falign-loops -fallocation-dce
  38              	@ -fassociative-math -fauto-inc-dec -fbranch-count-reg -fcaller-saves
  39              	@ -fcombine-stack-adjustments -fcompare-elim -fcprop-registers
  40              	@ -fcrossjumping -fcse-follow-jumps -fcx-limited-range -fdata-sections
  41              	@ -fdefer-pop -fdelete-null-pointer-checks -fdevirtualize
  42              	@ -fdevirtualize-speculatively -fdwarf2-cfi-asm -fearly-inlining
  43              	@ -feliminate-unused-debug-symbols -feliminate-unused-debug-types
  44              	@ -fexpensive-optimizations -ffinite-math-only -fforward-propagate
  45              	@ -ffp-int-builtin-inexact -ffunction-cse -ffunction-sections -fgcse
  46              	@ -fgcse-after-reload -fgcse-lm -fgnu-unique -fguess-branch-probability
  47              	@ -fhoist-adjacent-loads -fident -fif-conversion -fif-conversion2
  48              	@ -findirect-inlining -finline -finline-atomics -finline-functions
  49              	@ -finline-functions-called-once -finline-small-functions -fipa-bit-cp
  50              	@ -fipa-cp -fipa-cp-clone -fipa-icf -fipa-icf-functions -fipa-icf-variables
  51              	@ -fipa-profile -fipa-pure-const -fipa-ra -fipa-reference
  52              	@ -fipa-reference-addressable -fipa-sra -fipa-stack-alignment -fipa-vrp
  53              	@ -fira-hoist-pressure -fira-share-save-slots -fira-share-spill-slots
  54              	@ -fisolate-erroneous-paths-dereference -fivopts -fkeep-static-consts
  55              	@ -fleading-underscore -flifetime-dse -floop-interchange
  56              	@ -floop-unroll-and-jam -flra-remat -fmerge-constants -fmerge-debug-strings
  57              	@ -fmove-loop-invariants -fomit-frame-pointer -foptimize-sibling-calls
ARM GAS  C:\Users\admin\AppData\Local\Temp\ccgI8z3R.s 			page 2


  58              	@ -foptimize-strlen -fpartial-inlining -fpeel-loops -fpeephole -fpeephole2
  59              	@ -fplt -fpredictive-commoning -fprefetch-loop-arrays -freciprocal-math
  60              	@ -freg-struct-return -freorder-blocks -freorder-functions
  61              	@ -frerun-cse-after-loop -fsched-critical-path-heuristic
  62              	@ -fsched-dep-count-heuristic -fsched-group-heuristic -fsched-interblock
  63              	@ -fsched-last-insn-heuristic -fsched-pressure -fsched-rank-heuristic
  64              	@ -fsched-spec -fsched-spec-insn-heuristic -fsched-stalled-insns-dep
  65              	@ -fschedule-insns -fschedule-insns2 -fsection-anchors
  66              	@ -fsemantic-interposition -fshow-column -fshrink-wrap
  67              	@ -fshrink-wrap-separate -fsplit-ivs-in-unroller -fsplit-loops
  68              	@ -fsplit-paths -fsplit-wide-types -fssa-backprop -fssa-phiopt -fstdarg-opt
  69              	@ -fstore-merging -fstrict-aliasing -fstrict-volatile-bitfields
  70              	@ -fsync-libcalls -fthread-jumps -ftoplevel-reorder -ftree-bit-ccp
  71              	@ -ftree-builtin-call-dce -ftree-ccp -ftree-ch -ftree-coalesce-vars
  72              	@ -ftree-copy-prop -ftree-cselim -ftree-dce -ftree-dominator-opts
  73              	@ -ftree-dse -ftree-forwprop -ftree-fre -ftree-loop-distribute-patterns
  74              	@ -ftree-loop-distribution -ftree-loop-if-convert -ftree-loop-im
  75              	@ -ftree-loop-ivcanon -ftree-loop-optimize -ftree-loop-vectorize
  76              	@ -ftree-parallelize-loops= -ftree-partial-pre -ftree-phiprop -ftree-pre
  77              	@ -ftree-pta -ftree-reassoc -ftree-scev-cprop -ftree-sink
  78              	@ -ftree-slp-vectorize -ftree-slsr -ftree-sra -ftree-switch-conversion
  79              	@ -ftree-tail-merge -ftree-ter -ftree-vrp -funit-at-a-time
  80              	@ -funsafe-math-optimizations -funswitch-loops -fvar-tracking
  81              	@ -fvar-tracking-assignments -fverbose-asm -fversion-loops-for-strides
  82              	@ -fzero-initialized-in-bss -masm-syntax-unified -mbe32 -mlittle-endian
  83              	@ -mpic-data-is-text-relative -msched-prolog -mthumb -munaligned-access
  84              	@ -mvectorize-with-neon-quad
  85              	
  86              		.text
  87              	.Ltext0:
  88              		.cfi_sections	.debug_frame
  89              		.section	.text.NMI_Handler,"ax",%progbits
  90              		.align	1
  91              		.p2align 2,,3
  92              		.global	NMI_Handler
  93              		.syntax unified
  94              		.thumb
  95              		.thumb_func
  96              		.type	NMI_Handler, %function
  97              	NMI_Handler:
  98              	.LFB113:
  99              		.file 1 "stm32f4xx_it.c"
   1:stm32f4xx_it.c **** /**
   2:stm32f4xx_it.c ****   ******************************************************************************
   3:stm32f4xx_it.c ****   * @file    stm32f4xx_it.c
   4:stm32f4xx_it.c ****   * @author  MCD Application Team
   5:stm32f4xx_it.c ****   * @version V1.0.0
   6:stm32f4xx_it.c ****   * @date    19-September-2011
   7:stm32f4xx_it.c ****   * @brief   Main Interrupt Service Routines.
   8:stm32f4xx_it.c ****   *          This file provides all exceptions handler and peripherals interrupt
   9:stm32f4xx_it.c ****   *          service routine.
  10:stm32f4xx_it.c ****   ******************************************************************************
  11:stm32f4xx_it.c ****   * @attention
  12:stm32f4xx_it.c ****   *
  13:stm32f4xx_it.c ****   * THE PRESENT FIRMWARE WHICH IS FOR GUIDANCE ONLY AIMS AT PROVIDING CUSTOMERS
  14:stm32f4xx_it.c ****   * WITH CODING INFORMATION REGARDING THEIR PRODUCTS IN ORDER FOR THEM TO SAVE
  15:stm32f4xx_it.c ****   * TIME. AS A RESULT, STMICROELECTRONICS SHALL NOT BE HELD LIABLE FOR ANY
ARM GAS  C:\Users\admin\AppData\Local\Temp\ccgI8z3R.s 			page 3


  16:stm32f4xx_it.c ****   * DIRECT, INDIRECT OR CONSEQUENTIAL DAMAGES WITH RESPECT TO ANY CLAIMS ARISING
  17:stm32f4xx_it.c ****   * FROM THE CONTENT OF SUCH FIRMWARE AND/OR THE USE MADE BY CUSTOMERS OF THE
  18:stm32f4xx_it.c ****   * CODING INFORMATION CONTAINED HEREIN IN CONNECTION WITH THEIR PRODUCTS.
  19:stm32f4xx_it.c ****   *
  20:stm32f4xx_it.c ****   * <h2><center>&copy; COPYRIGHT 2011 STMicroelectronics</center></h2>
  21:stm32f4xx_it.c ****   ******************************************************************************
  22:stm32f4xx_it.c ****   */ 
  23:stm32f4xx_it.c **** 
  24:stm32f4xx_it.c **** /* Includes ------------------------------------------------------------------*/
  25:stm32f4xx_it.c **** #include "stm32f4xx_it.h"
  26:stm32f4xx_it.c **** #include "main.h"
  27:stm32f4xx_it.c **** #include "usb_core.h"
  28:stm32f4xx_it.c **** #include "usbd_core.h"
  29:stm32f4xx_it.c **** #include "stm32f4_discovery.h"
  30:stm32f4xx_it.c **** #include "usbd_audio_core.h"
  31:stm32f4xx_it.c **** 
  32:stm32f4xx_it.c **** 
  33:stm32f4xx_it.c **** /* Private typedef -----------------------------------------------------------*/
  34:stm32f4xx_it.c **** /* Private define ------------------------------------------------------------*/
  35:stm32f4xx_it.c **** 
  36:stm32f4xx_it.c **** extern const int16_t sinebuf2[96];
  37:stm32f4xx_it.c **** 
  38:stm32f4xx_it.c **** extern uint8_t Buffer[6];
  39:stm32f4xx_it.c **** /* Private macro -------------------------------------------------------------*/
  40:stm32f4xx_it.c **** /* Private variables ---------------------------------------------------------*/
  41:stm32f4xx_it.c **** 
  42:stm32f4xx_it.c **** 
  43:stm32f4xx_it.c **** extern __IO uint8_t UserButtonPressed;
  44:stm32f4xx_it.c **** /* Private function prototypes -----------------------------------------------*/
  45:stm32f4xx_it.c **** extern USB_OTG_CORE_HANDLE           USB_OTG_dev;
  46:stm32f4xx_it.c **** extern uint32_t USBD_OTG_ISR_Handler (USB_OTG_CORE_HANDLE *pdev);
  47:stm32f4xx_it.c **** 
  48:stm32f4xx_it.c **** /******************************************************************************/
  49:stm32f4xx_it.c **** /*            Cortex-M3 Processor Exceptions Handlers                         */
  50:stm32f4xx_it.c **** /******************************************************************************/
  51:stm32f4xx_it.c **** 
  52:stm32f4xx_it.c **** /**
  53:stm32f4xx_it.c ****   * @brief   This function handles NMI exception.
  54:stm32f4xx_it.c ****   * @param  None
  55:stm32f4xx_it.c ****   * @retval None
  56:stm32f4xx_it.c ****   */
  57:stm32f4xx_it.c **** void NMI_Handler(void)
  58:stm32f4xx_it.c **** {
 100              		.loc 1 58 1 view -0
 101              		.cfi_startproc
 102              		@ args = 0, pretend = 0, frame = 0
 103              		@ frame_needed = 0, uses_anonymous_args = 0
 104              		@ link register save eliminated.
  59:stm32f4xx_it.c **** }
 105              		.loc 1 59 1 view .LVU1
 106 0000 7047     		bx	lr	@
 107              		.cfi_endproc
 108              	.LFE113:
 109              		.size	NMI_Handler, .-NMI_Handler
 110 0002 00BF     		.section	.text.HardFault_Handler,"ax",%progbits
 111              		.align	1
 112              		.p2align 2,,3
ARM GAS  C:\Users\admin\AppData\Local\Temp\ccgI8z3R.s 			page 4


 113              		.global	HardFault_Handler
 114              		.syntax unified
 115              		.thumb
 116              		.thumb_func
 117              		.type	HardFault_Handler, %function
 118              	HardFault_Handler:
 119              	.LFB114:
  60:stm32f4xx_it.c **** 
  61:stm32f4xx_it.c **** /**
  62:stm32f4xx_it.c ****   * @brief  This function handles Hard Fault exception.
  63:stm32f4xx_it.c ****   * @param  None
  64:stm32f4xx_it.c ****   * @retval None
  65:stm32f4xx_it.c ****   */
  66:stm32f4xx_it.c **** void HardFault_Handler(void)
  67:stm32f4xx_it.c **** {
 120              		.loc 1 67 1 view -0
 121              		.cfi_startproc
 122              		@ Volatile: function does not return.
 123              		@ args = 0, pretend = 0, frame = 0
 124              		@ frame_needed = 0, uses_anonymous_args = 0
 125              		@ link register save eliminated.
 126              	.L4:
  68:stm32f4xx_it.c ****   /* Go to infinite loop when Hard Fault exception occurs */
  69:stm32f4xx_it.c ****   while (1)
 127              		.loc 1 69 3 discriminator 1 view .LVU3
  70:stm32f4xx_it.c ****   {
  71:stm32f4xx_it.c ****   }
 128              		.loc 1 71 3 discriminator 1 view .LVU4
  69:stm32f4xx_it.c ****   {
 129              		.loc 1 69 9 discriminator 1 view .LVU5
 130 0000 FEE7     		b	.L4		@
 131              		.cfi_endproc
 132              	.LFE114:
 133              		.size	HardFault_Handler, .-HardFault_Handler
 134 0002 00BF     		.section	.text.MemManage_Handler,"ax",%progbits
 135              		.align	1
 136              		.p2align 2,,3
 137              		.global	MemManage_Handler
 138              		.syntax unified
 139              		.thumb
 140              		.thumb_func
 141              		.type	MemManage_Handler, %function
 142              	MemManage_Handler:
 143              	.LFB115:
  72:stm32f4xx_it.c **** }
  73:stm32f4xx_it.c **** 
  74:stm32f4xx_it.c **** /**
  75:stm32f4xx_it.c ****   * @brief  This function handles Memory Manage exception.
  76:stm32f4xx_it.c ****   * @param  None
  77:stm32f4xx_it.c ****   * @retval None
  78:stm32f4xx_it.c ****   */
  79:stm32f4xx_it.c **** void MemManage_Handler(void)
  80:stm32f4xx_it.c **** {
 144              		.loc 1 80 1 view -0
 145              		.cfi_startproc
 146              		@ Volatile: function does not return.
 147              		@ args = 0, pretend = 0, frame = 0
ARM GAS  C:\Users\admin\AppData\Local\Temp\ccgI8z3R.s 			page 5


 148              		@ frame_needed = 0, uses_anonymous_args = 0
 149              		@ link register save eliminated.
 150              	.L6:
  81:stm32f4xx_it.c ****   /* Go to infinite loop when Memory Manage exception occurs */
  82:stm32f4xx_it.c ****   while (1)
 151              		.loc 1 82 3 discriminator 1 view .LVU7
  83:stm32f4xx_it.c ****   {
  84:stm32f4xx_it.c ****   }
 152              		.loc 1 84 3 discriminator 1 view .LVU8
  82:stm32f4xx_it.c ****   {
 153              		.loc 1 82 9 discriminator 1 view .LVU9
 154 0000 FEE7     		b	.L6		@
 155              		.cfi_endproc
 156              	.LFE115:
 157              		.size	MemManage_Handler, .-MemManage_Handler
 158 0002 00BF     		.section	.text.BusFault_Handler,"ax",%progbits
 159              		.align	1
 160              		.p2align 2,,3
 161              		.global	BusFault_Handler
 162              		.syntax unified
 163              		.thumb
 164              		.thumb_func
 165              		.type	BusFault_Handler, %function
 166              	BusFault_Handler:
 167              	.LFB116:
  85:stm32f4xx_it.c **** }
  86:stm32f4xx_it.c **** 
  87:stm32f4xx_it.c **** /**
  88:stm32f4xx_it.c ****   * @brief  This function handles Bus Fault exception.
  89:stm32f4xx_it.c ****   * @param  None
  90:stm32f4xx_it.c ****   * @retval None
  91:stm32f4xx_it.c ****   */
  92:stm32f4xx_it.c **** void BusFault_Handler(void)
  93:stm32f4xx_it.c **** {
 168              		.loc 1 93 1 view -0
 169              		.cfi_startproc
 170              		@ Volatile: function does not return.
 171              		@ args = 0, pretend = 0, frame = 0
 172              		@ frame_needed = 0, uses_anonymous_args = 0
 173              		@ link register save eliminated.
 174              	.L8:
  94:stm32f4xx_it.c ****   /* Go to infinite loop when Bus Fault exception occurs */
  95:stm32f4xx_it.c ****   while (1)
 175              		.loc 1 95 3 discriminator 1 view .LVU11
  96:stm32f4xx_it.c ****   {
  97:stm32f4xx_it.c ****   }
 176              		.loc 1 97 3 discriminator 1 view .LVU12
  95:stm32f4xx_it.c ****   {
 177              		.loc 1 95 9 discriminator 1 view .LVU13
 178 0000 FEE7     		b	.L8		@
 179              		.cfi_endproc
 180              	.LFE116:
 181              		.size	BusFault_Handler, .-BusFault_Handler
 182 0002 00BF     		.section	.text.UsageFault_Handler,"ax",%progbits
 183              		.align	1
 184              		.p2align 2,,3
 185              		.global	UsageFault_Handler
ARM GAS  C:\Users\admin\AppData\Local\Temp\ccgI8z3R.s 			page 6


 186              		.syntax unified
 187              		.thumb
 188              		.thumb_func
 189              		.type	UsageFault_Handler, %function
 190              	UsageFault_Handler:
 191              	.LFB117:
  98:stm32f4xx_it.c **** }
  99:stm32f4xx_it.c **** 
 100:stm32f4xx_it.c **** /**
 101:stm32f4xx_it.c ****   * @brief  This function handles Usage Fault exception.
 102:stm32f4xx_it.c ****   * @param  None
 103:stm32f4xx_it.c ****   * @retval None
 104:stm32f4xx_it.c ****   */
 105:stm32f4xx_it.c **** void UsageFault_Handler(void)
 106:stm32f4xx_it.c **** {
 192              		.loc 1 106 1 view -0
 193              		.cfi_startproc
 194              		@ Volatile: function does not return.
 195              		@ args = 0, pretend = 0, frame = 0
 196              		@ frame_needed = 0, uses_anonymous_args = 0
 197              		@ link register save eliminated.
 198              	.L10:
 107:stm32f4xx_it.c ****   /* Go to infinite loop when Usage Fault exception occurs */
 108:stm32f4xx_it.c ****   while (1)
 199              		.loc 1 108 3 discriminator 1 view .LVU15
 109:stm32f4xx_it.c ****   {
 110:stm32f4xx_it.c ****   }
 200              		.loc 1 110 3 discriminator 1 view .LVU16
 108:stm32f4xx_it.c ****   {
 201              		.loc 1 108 9 discriminator 1 view .LVU17
 202 0000 FEE7     		b	.L10		@
 203              		.cfi_endproc
 204              	.LFE117:
 205              		.size	UsageFault_Handler, .-UsageFault_Handler
 206 0002 00BF     		.section	.text.SVC_Handler,"ax",%progbits
 207              		.align	1
 208              		.p2align 2,,3
 209              		.global	SVC_Handler
 210              		.syntax unified
 211              		.thumb
 212              		.thumb_func
 213              		.type	SVC_Handler, %function
 214              	SVC_Handler:
 215              	.LFB126:
 216              		.cfi_startproc
 217              		@ args = 0, pretend = 0, frame = 0
 218              		@ frame_needed = 0, uses_anonymous_args = 0
 219              		@ link register save eliminated.
 220 0000 7047     		bx	lr	@
 221              		.cfi_endproc
 222              	.LFE126:
 223              		.size	SVC_Handler, .-SVC_Handler
 224 0002 00BF     		.section	.text.DebugMon_Handler,"ax",%progbits
 225              		.align	1
 226              		.p2align 2,,3
 227              		.global	DebugMon_Handler
 228              		.syntax unified
ARM GAS  C:\Users\admin\AppData\Local\Temp\ccgI8z3R.s 			page 7


 229              		.thumb
 230              		.thumb_func
 231              		.type	DebugMon_Handler, %function
 232              	DebugMon_Handler:
 233              	.LFB128:
 234              		.cfi_startproc
 235              		@ args = 0, pretend = 0, frame = 0
 236              		@ frame_needed = 0, uses_anonymous_args = 0
 237              		@ link register save eliminated.
 238 0000 7047     		bx	lr	@
 239              		.cfi_endproc
 240              	.LFE128:
 241              		.size	DebugMon_Handler, .-DebugMon_Handler
 242 0002 00BF     		.section	.text.PendSV_Handler,"ax",%progbits
 243              		.align	1
 244              		.p2align 2,,3
 245              		.global	PendSV_Handler
 246              		.syntax unified
 247              		.thumb
 248              		.thumb_func
 249              		.type	PendSV_Handler, %function
 250              	PendSV_Handler:
 251              	.LFB130:
 252              		.cfi_startproc
 253              		@ args = 0, pretend = 0, frame = 0
 254              		@ frame_needed = 0, uses_anonymous_args = 0
 255              		@ link register save eliminated.
 256 0000 7047     		bx	lr	@
 257              		.cfi_endproc
 258              	.LFE130:
 259              		.size	PendSV_Handler, .-PendSV_Handler
 260 0002 00BF     		.section	.text.SysTick_Handler,"ax",%progbits
 261              		.align	1
 262              		.p2align 2,,3
 263              		.global	SysTick_Handler
 264              		.syntax unified
 265              		.thumb
 266              		.thumb_func
 267              		.type	SysTick_Handler, %function
 268              	SysTick_Handler:
 269              	.LFB132:
 270              		.cfi_startproc
 271              		@ args = 0, pretend = 0, frame = 0
 272              		@ frame_needed = 0, uses_anonymous_args = 0
 273              		@ link register save eliminated.
 274 0000 7047     		bx	lr	@
 275              		.cfi_endproc
 276              	.LFE132:
 277              		.size	SysTick_Handler, .-SysTick_Handler
 278 0002 00BF     		.section	.text.EXTI0_IRQHandler,"ax",%progbits
 279              		.align	1
 280              		.p2align 2,,3
 281              		.global	EXTI0_IRQHandler
 282              		.syntax unified
 283              		.thumb
 284              		.thumb_func
 285              		.type	EXTI0_IRQHandler, %function
ARM GAS  C:\Users\admin\AppData\Local\Temp\ccgI8z3R.s 			page 8


 286              	EXTI0_IRQHandler:
 287              	.LFB122:
 111:stm32f4xx_it.c **** }
 112:stm32f4xx_it.c **** 
 113:stm32f4xx_it.c **** /**
 114:stm32f4xx_it.c ****   * @brief  This function handles SVCall exception.
 115:stm32f4xx_it.c ****   * @param  None
 116:stm32f4xx_it.c ****   * @retval None
 117:stm32f4xx_it.c ****   */
 118:stm32f4xx_it.c **** void SVC_Handler(void)
 119:stm32f4xx_it.c **** {
 120:stm32f4xx_it.c **** }
 121:stm32f4xx_it.c **** 
 122:stm32f4xx_it.c **** /**
 123:stm32f4xx_it.c ****   * @brief  This function handles Debug Monitor exception.
 124:stm32f4xx_it.c ****   * @param  None
 125:stm32f4xx_it.c ****   * @retval None
 126:stm32f4xx_it.c ****   */
 127:stm32f4xx_it.c **** void DebugMon_Handler(void)
 128:stm32f4xx_it.c **** {
 129:stm32f4xx_it.c **** }
 130:stm32f4xx_it.c **** 
 131:stm32f4xx_it.c **** /**
 132:stm32f4xx_it.c ****   * @brief  This function handles PendSVC exception.
 133:stm32f4xx_it.c ****   * @param  None
 134:stm32f4xx_it.c ****   * @retval None
 135:stm32f4xx_it.c ****   */
 136:stm32f4xx_it.c **** void PendSV_Handler(void)
 137:stm32f4xx_it.c **** {
 138:stm32f4xx_it.c **** }
 139:stm32f4xx_it.c **** 
 140:stm32f4xx_it.c **** /**
 141:stm32f4xx_it.c ****   * @brief  This function handles SysTick Handler.
 142:stm32f4xx_it.c ****   * @param  None
 143:stm32f4xx_it.c ****   * @retval None
 144:stm32f4xx_it.c ****   */
 145:stm32f4xx_it.c **** void SysTick_Handler(void)
 146:stm32f4xx_it.c **** {
 147:stm32f4xx_it.c **** //if (STM_EVAL_PBGetState(BUTTON_USER) == Bit_SET) {STM_EVAL_LEDOn(LED6);Audio_MAL_Play((uint32_t)(
 148:stm32f4xx_it.c **** //Audio_MAL_Play((uint32_t)(&sinebuf2[0]),40);
 149:stm32f4xx_it.c **** }
 150:stm32f4xx_it.c **** 
 151:stm32f4xx_it.c **** /******************************************************************************/
 152:stm32f4xx_it.c **** /*                 STM32Fxxx Peripherals Interrupt Handlers                   */
 153:stm32f4xx_it.c **** /*  Add here the Interrupt Handler for the used peripheral(s) (PPP), for the  */
 154:stm32f4xx_it.c **** /*  available peripheral interrupt handler's name please refer to the startup */
 155:stm32f4xx_it.c **** /*  file (startup_stm32fxxx.s).                                               */
 156:stm32f4xx_it.c **** /******************************************************************************/
 157:stm32f4xx_it.c **** 
 158:stm32f4xx_it.c **** /**
 159:stm32f4xx_it.c ****   * @brief  This function handles PPP interrupt request.
 160:stm32f4xx_it.c ****   * @param  None
 161:stm32f4xx_it.c ****   * @retval None
 162:stm32f4xx_it.c ****   */
 163:stm32f4xx_it.c **** /*void PPP_IRQHandler(void)
 164:stm32f4xx_it.c **** {
 165:stm32f4xx_it.c **** }*/
ARM GAS  C:\Users\admin\AppData\Local\Temp\ccgI8z3R.s 			page 9


 166:stm32f4xx_it.c **** 
 167:stm32f4xx_it.c **** /**
 168:stm32f4xx_it.c ****   * @brief  This function handles EXTI0_IRQ Handler.
 169:stm32f4xx_it.c ****   * @param  None
 170:stm32f4xx_it.c ****   * @retval None
 171:stm32f4xx_it.c ****   */
 172:stm32f4xx_it.c **** void EXTI0_IRQHandler(void)
 173:stm32f4xx_it.c **** {
 288              		.loc 1 173 1 view -0
 289              		.cfi_startproc
 290              		@ args = 0, pretend = 0, frame = 0
 291              		@ frame_needed = 0, uses_anonymous_args = 0
 292              		@ link register save eliminated.
 174:stm32f4xx_it.c ****   UserButtonPressed = 0x01;
 293              		.loc 1 174 3 view .LVU19
 294              	@ stm32f4xx_it.c:174:   UserButtonPressed = 0x01;
 295              		.loc 1 174 21 is_stmt 0 view .LVU20
 296 0000 024B     		ldr	r3, .L16	@ tmp113,
 297 0002 0120     		movs	r0, #1	@ tmp114,
 298 0004 1870     		strb	r0, [r3]	@ tmp114, UserButtonPressed
 175:stm32f4xx_it.c ****     /* Clear the EXTI line pending bit */
 176:stm32f4xx_it.c ****   EXTI_ClearITPendingBit(USER_BUTTON_EXTI_LINE);
 299              		.loc 1 176 3 is_stmt 1 view .LVU21
 300 0006 FFF7FEBF 		b	EXTI_ClearITPendingBit		@
 301              	.LVL0:
 302              	.L17:
 303 000a 00BF     		.align	2
 304              	.L16:
 305 000c 00000000 		.word	UserButtonPressed
 306              		.cfi_endproc
 307              	.LFE122:
 308              		.size	EXTI0_IRQHandler, .-EXTI0_IRQHandler
 309              		.section	.text.OTG_FS_WKUP_IRQHandler,"ax",%progbits
 310              		.align	1
 311              		.p2align 2,,3
 312              		.global	OTG_FS_WKUP_IRQHandler
 313              		.syntax unified
 314              		.thumb
 315              		.thumb_func
 316              		.type	OTG_FS_WKUP_IRQHandler, %function
 317              	OTG_FS_WKUP_IRQHandler:
 318              	.LFB123:
 177:stm32f4xx_it.c ****   
 178:stm32f4xx_it.c ****   //Audio_MAL_Play((uint32_t)(&sinebuf2[0]),48); - working
 179:stm32f4xx_it.c **** }
 180:stm32f4xx_it.c **** 
 181:stm32f4xx_it.c **** /**
 182:stm32f4xx_it.c ****   * @brief  This function handles EXTI15_10_IRQ Handler.
 183:stm32f4xx_it.c ****   * @param  None
 184:stm32f4xx_it.c ****   * @retval None
 185:stm32f4xx_it.c ****   */
 186:stm32f4xx_it.c **** void OTG_FS_WKUP_IRQHandler(void)
 187:stm32f4xx_it.c **** {
 319              		.loc 1 187 1 view -0
 320              		.cfi_startproc
 321              		@ args = 0, pretend = 0, frame = 0
 322              		@ frame_needed = 0, uses_anonymous_args = 0
ARM GAS  C:\Users\admin\AppData\Local\Temp\ccgI8z3R.s 			page 10


 188:stm32f4xx_it.c ****   if(USB_OTG_dev.cfg.low_power)
 323              		.loc 1 188 3 view .LVU23
 324              	@ stm32f4xx_it.c:187: {
 187:stm32f4xx_it.c ****   if(USB_OTG_dev.cfg.low_power)
 325              		.loc 1 187 1 is_stmt 0 view .LVU24
 326 0000 10B5     		push	{r4, lr}	@
 327              		.cfi_def_cfa_offset 8
 328              		.cfi_offset 4, -8
 329              		.cfi_offset 14, -4
 330              	@ stm32f4xx_it.c:188:   if(USB_OTG_dev.cfg.low_power)
 331              		.loc 1 188 21 view .LVU25
 332 0002 0C4C     		ldr	r4, .L25	@ tmp116,
 333              	@ stm32f4xx_it.c:188:   if(USB_OTG_dev.cfg.low_power)
 334              		.loc 1 188 5 view .LVU26
 335 0004 A37A     		ldrb	r3, [r4, #10]	@ zero_extendqisi2	@ USB_OTG_dev.cfg.low_power, USB_OTG_dev.cfg.low_power
 336 0006 2BB9     		cbnz	r3, .L24	@ USB_OTG_dev.cfg.low_power,
 189:stm32f4xx_it.c ****   {
 190:stm32f4xx_it.c **** 	/* Reset SLEEPDEEP and SLEEPONEXIT bits */
 191:stm32f4xx_it.c **** 	SCB->SCR &= (uint32_t)~((uint32_t)(SCB_SCR_SLEEPDEEP_Msk | SCB_SCR_SLEEPONEXIT_Msk));
 192:stm32f4xx_it.c **** 
 193:stm32f4xx_it.c **** 	/* After wake-up from sleep mode, reconfigure the system clock */
 194:stm32f4xx_it.c **** 	SystemInit();
 195:stm32f4xx_it.c ****     USB_OTG_UngateClock(&USB_OTG_dev);
 196:stm32f4xx_it.c ****   }
 197:stm32f4xx_it.c ****   EXTI_ClearITPendingBit(EXTI_Line18);
 337              		.loc 1 197 3 is_stmt 1 view .LVU27
 338              	@ stm32f4xx_it.c:198: }
 198:stm32f4xx_it.c **** }
 339              		.loc 1 198 1 is_stmt 0 view .LVU28
 340 0008 BDE81040 		pop	{r4, lr}	@
 341              		.cfi_remember_state
 342              		.cfi_restore 14
 343              		.cfi_restore 4
 344              		.cfi_def_cfa_offset 0
 345              	@ stm32f4xx_it.c:197:   EXTI_ClearITPendingBit(EXTI_Line18);
 197:stm32f4xx_it.c **** }
 346              		.loc 1 197 3 view .LVU29
 347 000c 4FF48020 		mov	r0, #262144	@,
 348 0010 FFF7FEBF 		b	EXTI_ClearITPendingBit		@
 349              	.LVL1:
 350              	.L24:
 351              		.cfi_restore_state
 191:stm32f4xx_it.c **** 
 352              		.loc 1 191 2 is_stmt 1 view .LVU30
 353              	@ stm32f4xx_it.c:191: 	SCB->SCR &= (uint32_t)~((uint32_t)(SCB_SCR_SLEEPDEEP_Msk | SCB_SCR_SLEEPONEX
 191:stm32f4xx_it.c **** 
 354              		.loc 1 191 11 is_stmt 0 view .LVU31
 355 0014 084A     		ldr	r2, .L25+4	@ tmp118,
 356 0016 1369     		ldr	r3, [r2, #16]	@ _2, MEM[(struct SCB_Type *)3758157056B].SCR
 357 0018 23F00603 		bic	r3, r3, #6	@ _3, _2,
 358 001c 1361     		str	r3, [r2, #16]	@ _3, MEM[(struct SCB_Type *)3758157056B].SCR
 194:stm32f4xx_it.c ****     USB_OTG_UngateClock(&USB_OTG_dev);
 359              		.loc 1 194 2 is_stmt 1 view .LVU32
 360 001e FFF7FEFF 		bl	SystemInit		@
 361              	.LVL2:
 195:stm32f4xx_it.c ****   }
 362              		.loc 1 195 5 view .LVU33
ARM GAS  C:\Users\admin\AppData\Local\Temp\ccgI8z3R.s 			page 11


 363 0022 2046     		mov	r0, r4	@, tmp116
 364 0024 FFF7FEFF 		bl	USB_OTG_UngateClock		@
 365              	.LVL3:
 197:stm32f4xx_it.c **** }
 366              		.loc 1 197 3 view .LVU34
 367              	@ stm32f4xx_it.c:198: }
 368              		.loc 1 198 1 is_stmt 0 view .LVU35
 369 0028 BDE81040 		pop	{r4, lr}	@
 370              		.cfi_restore 14
 371              		.cfi_restore 4
 372              		.cfi_def_cfa_offset 0
 373              	@ stm32f4xx_it.c:197:   EXTI_ClearITPendingBit(EXTI_Line18);
 197:stm32f4xx_it.c **** }
 374              		.loc 1 197 3 view .LVU36
 375 002c 4FF48020 		mov	r0, #262144	@,
 376 0030 FFF7FEBF 		b	EXTI_ClearITPendingBit		@
 377              	.LVL4:
 378              	.L26:
 379              		.align	2
 380              	.L25:
 381 0034 00000000 		.word	USB_OTG_dev
 382 0038 00ED00E0 		.word	-536810240
 383              		.cfi_endproc
 384              	.LFE123:
 385              		.size	OTG_FS_WKUP_IRQHandler, .-OTG_FS_WKUP_IRQHandler
 386              		.section	.text.OTG_FS_IRQHandler,"ax",%progbits
 387              		.align	1
 388              		.p2align 2,,3
 389              		.global	OTG_FS_IRQHandler
 390              		.syntax unified
 391              		.thumb
 392              		.thumb_func
 393              		.type	OTG_FS_IRQHandler, %function
 394              	OTG_FS_IRQHandler:
 395              	.LFB124:
 199:stm32f4xx_it.c **** 
 200:stm32f4xx_it.c **** /**
 201:stm32f4xx_it.c ****   * @brief  This function handles OTG_HS Handler.
 202:stm32f4xx_it.c ****   * @param  None
 203:stm32f4xx_it.c ****   * @retval None
 204:stm32f4xx_it.c ****   */
 205:stm32f4xx_it.c **** void OTG_FS_IRQHandler(void)
 206:stm32f4xx_it.c **** {
 396              		.loc 1 206 1 is_stmt 1 view -0
 397              		.cfi_startproc
 398              		@ args = 0, pretend = 0, frame = 0
 399              		@ frame_needed = 0, uses_anonymous_args = 0
 400              		@ link register save eliminated.
 207:stm32f4xx_it.c ****   USBD_OTG_ISR_Handler (&USB_OTG_dev);
 401              		.loc 1 207 3 view .LVU38
 402 0000 0148     		ldr	r0, .L28	@,
 403 0002 FFF7FEBF 		b	USBD_OTG_ISR_Handler		@
 404              	.LVL5:
 405              	.L29:
 406 0006 00BF     		.align	2
 407              	.L28:
 408 0008 00000000 		.word	USB_OTG_dev
ARM GAS  C:\Users\admin\AppData\Local\Temp\ccgI8z3R.s 			page 12


 409              		.cfi_endproc
 410              	.LFE124:
 411              		.size	OTG_FS_IRQHandler, .-OTG_FS_IRQHandler
 412              		.text
 413              	.Letext0:
 414              		.file 2 "c:\\program files (x86)\\gnu arm embedded toolchain\\10 2021.10\\arm-none-eabi\\include\\
 415              		.file 3 "c:\\program files (x86)\\gnu arm embedded toolchain\\10 2021.10\\arm-none-eabi\\include\\
 416              		.file 4 "../Libraries/CMSIS/Include/core_cm4.h"
 417              		.file 5 "../Libraries/STM32_USB_OTG_Driver/inc/usb_regs.h"
 418              		.file 6 "../Libraries/STM32_USB_OTG_Driver/inc/usb_core.h"
 419              		.file 7 "../Libraries/STM32F4xx_StdPeriph_Driver/inc/stm32f4xx_exti.h"
 420              		.file 8 "../Libraries/CMSIS/ST/STM32F4xx/Include/system_stm32f4xx.h"