ARM GAS  C:\Users\admin\AppData\Local\Temp\ccWCJ6Yj.s 			page 1


   1              		.cpu cortex-m4
   2              		.arch armv7e-m
   3              		.fpu fpv4-sp-d16
   4              		.eabi_attribute 27, 1	@ Tag_ABI_HardFP_use
   5              		.eabi_attribute 28, 1	@ Tag_ABI_VFP_args
   6              		.eabi_attribute 23, 1	@ Tag_ABI_FP_number_model
   7              		.eabi_attribute 24, 1	@ Tag_ABI_align8_needed
   8              		.eabi_attribute 25, 1	@ Tag_ABI_align8_preserved
   9              		.eabi_attribute 26, 1	@ Tag_ABI_enum_size
  10              		.eabi_attribute 30, 2	@ Tag_ABI_optimization_goals
  11              		.eabi_attribute 34, 1	@ Tag_CPU_unaligned_access
  12              		.eabi_attribute 18, 4	@ Tag_ABI_PCS_wchar_t
  13              		.file	"stm32f4_discovery.c"
  14              	@ GNU C89 (GNU Arm Embedded Toolchain 10.3-2021.10) version 10.3.1 20210824 (release) (arm-none-eab
  15              	@	compiled by GNU C version 7.3-win32 20180312, GMP version 6.1.0, MPFR version 3.1.4, MPC version 
  16              	
  17              	@ GGC heuristics: --param ggc-min-expand=100 --param ggc-min-heapsize=131072
  18              	@ options passed:  -I . -I . -I ../Utilities/STM32F4-Discovery/
  19              	@ -I ../Libraries/STM32_USB_Device_Library/Class/audio/inc/
  20              	@ -I ../Libraries/STM32_USB_Device_Library/Core/inc/
  21              	@ -I ../Libraries/STM32_USB_OTG_Driver/inc/
  22              	@ -I ../Utilities/STM32F4-Discovery/
  23              	@ -I ../Libraries/STM32F4xx_StdPeriph_Driver/inc/
  24              	@ -I ../Utilities/STM32F4-Discovery/
  25              	@ -I ../Libraries/CMSIS/ST/STM32F4xx/Include/
  26              	@ -I ../Libraries/CMSIS/Include/ -imultilib thumb/v7e-m+fp/hard
  27              	@ -iprefix c:\program files (x86)\gnu arm embedded toolchain\10 2021.10\bin\../lib/gcc/arm-none-eab
  28              	@ -isysroot c:\program files (x86)\gnu arm embedded toolchain\10 2021.10\bin\../arm-none-eabi
  29              	@ -MD out/stm32f4_discovery.d -MF out/stm32f4_discovery.d -MP
  30              	@ -MQ out/stm32f4_discovery.o -D__USES_INITFINI__ -D STM32F4XX
  31              	@ -D __VFP_FP__ -D USE_USB_OTG_FS
  32              	@ ../Utilities/STM32F4-Discovery/stm32f4_discovery.c -mcpu=cortex-m4
  33              	@ -mthumb -mfloat-abi=hard -mfpu=fpv4-sp-d16 -mlibarch=armv7e-m+fp
  34              	@ -march=armv7e-m+fp -auxbase-strip out/stm32f4_discovery.o -g -ggdb3 -O3
  35              	@ -Wall -Wstrict-prototypes -Wextra -std=gnu90 -ffast-math
  36              	@ -ffunction-sections -fdata-sections -fverbose-asm
  37              	@ options enabled:  -faggressive-loop-optimizations -falign-functions
  38              	@ -falign-jumps -falign-labels -falign-loops -fallocation-dce
  39              	@ -fassociative-math -fauto-inc-dec -fbranch-count-reg -fcaller-saves
  40              	@ -fcombine-stack-adjustments -fcompare-elim -fcprop-registers
  41              	@ -fcrossjumping -fcse-follow-jumps -fcx-limited-range -fdata-sections
  42              	@ -fdefer-pop -fdelete-null-pointer-checks -fdevirtualize
  43              	@ -fdevirtualize-speculatively -fdwarf2-cfi-asm -fearly-inlining
  44              	@ -feliminate-unused-debug-symbols -feliminate-unused-debug-types
  45              	@ -fexpensive-optimizations -ffinite-math-only -fforward-propagate
  46              	@ -ffp-int-builtin-inexact -ffunction-cse -ffunction-sections -fgcse
  47              	@ -fgcse-after-reload -fgcse-lm -fgnu-unique -fguess-branch-probability
  48              	@ -fhoist-adjacent-loads -fident -fif-conversion -fif-conversion2
  49              	@ -findirect-inlining -finline -finline-atomics -finline-functions
  50              	@ -finline-functions-called-once -finline-small-functions -fipa-bit-cp
  51              	@ -fipa-cp -fipa-cp-clone -fipa-icf -fipa-icf-functions -fipa-icf-variables
  52              	@ -fipa-profile -fipa-pure-const -fipa-ra -fipa-reference
  53              	@ -fipa-reference-addressable -fipa-sra -fipa-stack-alignment -fipa-vrp
  54              	@ -fira-hoist-pressure -fira-share-save-slots -fira-share-spill-slots
  55              	@ -fisolate-erroneous-paths-dereference -fivopts -fkeep-static-consts
  56              	@ -fleading-underscore -flifetime-dse -floop-interchange
  57              	@ -floop-unroll-and-jam -flra-remat -fmerge-constants -fmerge-debug-strings
ARM GAS  C:\Users\admin\AppData\Local\Temp\ccWCJ6Yj.s 			page 2


  58              	@ -fmove-loop-invariants -fomit-frame-pointer -foptimize-sibling-calls
  59              	@ -foptimize-strlen -fpartial-inlining -fpeel-loops -fpeephole -fpeephole2
  60              	@ -fplt -fpredictive-commoning -fprefetch-loop-arrays -freciprocal-math
  61              	@ -freg-struct-return -freorder-blocks -freorder-functions
  62              	@ -frerun-cse-after-loop -fsched-critical-path-heuristic
  63              	@ -fsched-dep-count-heuristic -fsched-group-heuristic -fsched-interblock
  64              	@ -fsched-last-insn-heuristic -fsched-pressure -fsched-rank-heuristic
  65              	@ -fsched-spec -fsched-spec-insn-heuristic -fsched-stalled-insns-dep
  66              	@ -fschedule-insns -fschedule-insns2 -fsection-anchors
  67              	@ -fsemantic-interposition -fshow-column -fshrink-wrap
  68              	@ -fshrink-wrap-separate -fsplit-ivs-in-unroller -fsplit-loops
  69              	@ -fsplit-paths -fsplit-wide-types -fssa-backprop -fssa-phiopt -fstdarg-opt
  70              	@ -fstore-merging -fstrict-aliasing -fstrict-volatile-bitfields
  71              	@ -fsync-libcalls -fthread-jumps -ftoplevel-reorder -ftree-bit-ccp
  72              	@ -ftree-builtin-call-dce -ftree-ccp -ftree-ch -ftree-coalesce-vars
  73              	@ -ftree-copy-prop -ftree-cselim -ftree-dce -ftree-dominator-opts
  74              	@ -ftree-dse -ftree-forwprop -ftree-fre -ftree-loop-distribute-patterns
  75              	@ -ftree-loop-distribution -ftree-loop-if-convert -ftree-loop-im
  76              	@ -ftree-loop-ivcanon -ftree-loop-optimize -ftree-loop-vectorize
  77              	@ -ftree-parallelize-loops= -ftree-partial-pre -ftree-phiprop -ftree-pre
  78              	@ -ftree-pta -ftree-reassoc -ftree-scev-cprop -ftree-sink
  79              	@ -ftree-slp-vectorize -ftree-slsr -ftree-sra -ftree-switch-conversion
  80              	@ -ftree-tail-merge -ftree-ter -ftree-vrp -funit-at-a-time
  81              	@ -funsafe-math-optimizations -funswitch-loops -fvar-tracking
  82              	@ -fvar-tracking-assignments -fverbose-asm -fversion-loops-for-strides
  83              	@ -fzero-initialized-in-bss -masm-syntax-unified -mbe32 -mlittle-endian
  84              	@ -mpic-data-is-text-relative -msched-prolog -mthumb -munaligned-access
  85              	@ -mvectorize-with-neon-quad
  86              	
  87              		.text
  88              	.Ltext0:
  89              		.cfi_sections	.debug_frame
  90              		.section	.text.STM_EVAL_LEDInit,"ax",%progbits
  91              		.align	1
  92              		.p2align 2,,3
  93              		.global	STM_EVAL_LEDInit
  94              		.syntax unified
  95              		.thumb
  96              		.thumb_func
  97              		.type	STM_EVAL_LEDInit, %function
  98              	STM_EVAL_LEDInit:
  99              	.LVL0:
 100              	.LFB110:
 101              		.file 1 "../Utilities/STM32F4-Discovery/stm32f4_discovery.c"
   1:../Utilities/STM32F4-Discovery/stm32f4_discovery.c **** /**
   2:../Utilities/STM32F4-Discovery/stm32f4_discovery.c ****   ******************************************************************************
   3:../Utilities/STM32F4-Discovery/stm32f4_discovery.c ****   * @file    stm32f4_discovery.c
   4:../Utilities/STM32F4-Discovery/stm32f4_discovery.c ****   * @author  MCD Application Team
   5:../Utilities/STM32F4-Discovery/stm32f4_discovery.c ****   * @version V1.1.0
   6:../Utilities/STM32F4-Discovery/stm32f4_discovery.c ****   * @date    28-October-2011
   7:../Utilities/STM32F4-Discovery/stm32f4_discovery.c ****   * @brief   This file provides set of firmware functions to manage Leds and
   8:../Utilities/STM32F4-Discovery/stm32f4_discovery.c ****   *          push-button available on STM32F4-Discovery Kit from STMicroelectronics.
   9:../Utilities/STM32F4-Discovery/stm32f4_discovery.c ****   ******************************************************************************
  10:../Utilities/STM32F4-Discovery/stm32f4_discovery.c ****   * @attention
  11:../Utilities/STM32F4-Discovery/stm32f4_discovery.c ****   *
  12:../Utilities/STM32F4-Discovery/stm32f4_discovery.c ****   * THE PRESENT FIRMWARE WHICH IS FOR GUIDANCE ONLY AIMS AT PROVIDING CUSTOMERS
  13:../Utilities/STM32F4-Discovery/stm32f4_discovery.c ****   * WITH CODING INFORMATION REGARDING THEIR PRODUCTS IN ORDER FOR THEM TO SAVE
ARM GAS  C:\Users\admin\AppData\Local\Temp\ccWCJ6Yj.s 			page 3


  14:../Utilities/STM32F4-Discovery/stm32f4_discovery.c ****   * TIME. AS A RESULT, STMICROELECTRONICS SHALL NOT BE HELD LIABLE FOR ANY
  15:../Utilities/STM32F4-Discovery/stm32f4_discovery.c ****   * DIRECT, INDIRECT OR CONSEQUENTIAL DAMAGES WITH RESPECT TO ANY CLAIMS ARISING
  16:../Utilities/STM32F4-Discovery/stm32f4_discovery.c ****   * FROM THE CONTENT OF SUCH FIRMWARE AND/OR THE USE MADE BY CUSTOMERS OF THE
  17:../Utilities/STM32F4-Discovery/stm32f4_discovery.c ****   * CODING INFORMATION CONTAINED HEREIN IN CONNECTION WITH THEIR PRODUCTS.
  18:../Utilities/STM32F4-Discovery/stm32f4_discovery.c ****   *
  19:../Utilities/STM32F4-Discovery/stm32f4_discovery.c ****   * <h2><center>&copy; COPYRIGHT 2011 STMicroelectronics</center></h2>
  20:../Utilities/STM32F4-Discovery/stm32f4_discovery.c ****   ******************************************************************************
  21:../Utilities/STM32F4-Discovery/stm32f4_discovery.c ****   */ 
  22:../Utilities/STM32F4-Discovery/stm32f4_discovery.c ****   
  23:../Utilities/STM32F4-Discovery/stm32f4_discovery.c **** /* Includes ------------------------------------------------------------------*/
  24:../Utilities/STM32F4-Discovery/stm32f4_discovery.c **** #include "stm32f4_discovery.h"
  25:../Utilities/STM32F4-Discovery/stm32f4_discovery.c **** 
  26:../Utilities/STM32F4-Discovery/stm32f4_discovery.c **** /** @addtogroup Utilities
  27:../Utilities/STM32F4-Discovery/stm32f4_discovery.c ****   * @{
  28:../Utilities/STM32F4-Discovery/stm32f4_discovery.c ****   */ 
  29:../Utilities/STM32F4-Discovery/stm32f4_discovery.c **** 
  30:../Utilities/STM32F4-Discovery/stm32f4_discovery.c **** /** @addtogroup STM32F4_DISCOVERY
  31:../Utilities/STM32F4-Discovery/stm32f4_discovery.c ****   * @{
  32:../Utilities/STM32F4-Discovery/stm32f4_discovery.c ****   */   
  33:../Utilities/STM32F4-Discovery/stm32f4_discovery.c ****     
  34:../Utilities/STM32F4-Discovery/stm32f4_discovery.c **** /** @defgroup STM32F4_DISCOVERY_LOW_LEVEL 
  35:../Utilities/STM32F4-Discovery/stm32f4_discovery.c ****   * @brief This file provides set of firmware functions to manage Leds and push-button
  36:../Utilities/STM32F4-Discovery/stm32f4_discovery.c ****   *        available on STM32F4-Discovery Kit from STMicroelectronics.
  37:../Utilities/STM32F4-Discovery/stm32f4_discovery.c ****   * @{
  38:../Utilities/STM32F4-Discovery/stm32f4_discovery.c ****   */ 
  39:../Utilities/STM32F4-Discovery/stm32f4_discovery.c **** 
  40:../Utilities/STM32F4-Discovery/stm32f4_discovery.c **** /** @defgroup STM32F4_DISCOVERY_LOW_LEVEL_Private_TypesDefinitions
  41:../Utilities/STM32F4-Discovery/stm32f4_discovery.c ****   * @{
  42:../Utilities/STM32F4-Discovery/stm32f4_discovery.c ****   */ 
  43:../Utilities/STM32F4-Discovery/stm32f4_discovery.c **** /**
  44:../Utilities/STM32F4-Discovery/stm32f4_discovery.c ****   * @}
  45:../Utilities/STM32F4-Discovery/stm32f4_discovery.c ****   */ 
  46:../Utilities/STM32F4-Discovery/stm32f4_discovery.c **** 
  47:../Utilities/STM32F4-Discovery/stm32f4_discovery.c **** 
  48:../Utilities/STM32F4-Discovery/stm32f4_discovery.c **** /** @defgroup STM32F4_DISCOVERY_LOW_LEVEL_Private_Defines
  49:../Utilities/STM32F4-Discovery/stm32f4_discovery.c ****   * @{
  50:../Utilities/STM32F4-Discovery/stm32f4_discovery.c ****   */ 
  51:../Utilities/STM32F4-Discovery/stm32f4_discovery.c **** /**
  52:../Utilities/STM32F4-Discovery/stm32f4_discovery.c ****   * @}
  53:../Utilities/STM32F4-Discovery/stm32f4_discovery.c ****   */ 
  54:../Utilities/STM32F4-Discovery/stm32f4_discovery.c **** 
  55:../Utilities/STM32F4-Discovery/stm32f4_discovery.c **** 
  56:../Utilities/STM32F4-Discovery/stm32f4_discovery.c **** /** @defgroup STM32F4_DISCOVERY_LOW_LEVEL_Private_Macros
  57:../Utilities/STM32F4-Discovery/stm32f4_discovery.c ****   * @{
  58:../Utilities/STM32F4-Discovery/stm32f4_discovery.c ****   */ 
  59:../Utilities/STM32F4-Discovery/stm32f4_discovery.c **** /**
  60:../Utilities/STM32F4-Discovery/stm32f4_discovery.c ****   * @}
  61:../Utilities/STM32F4-Discovery/stm32f4_discovery.c ****   */ 
  62:../Utilities/STM32F4-Discovery/stm32f4_discovery.c **** 
  63:../Utilities/STM32F4-Discovery/stm32f4_discovery.c **** 
  64:../Utilities/STM32F4-Discovery/stm32f4_discovery.c **** /** @defgroup STM32F4_DISCOVERY_LOW_LEVEL_Private_Variables
  65:../Utilities/STM32F4-Discovery/stm32f4_discovery.c ****   * @{
  66:../Utilities/STM32F4-Discovery/stm32f4_discovery.c ****   */ 
  67:../Utilities/STM32F4-Discovery/stm32f4_discovery.c **** GPIO_TypeDef* GPIO_PORT[LEDn] = {LED4_GPIO_PORT, LED3_GPIO_PORT, LED5_GPIO_PORT,
  68:../Utilities/STM32F4-Discovery/stm32f4_discovery.c ****                                  LED6_GPIO_PORT};
  69:../Utilities/STM32F4-Discovery/stm32f4_discovery.c **** const uint16_t GPIO_PIN[LEDn] = {LED4_PIN, LED3_PIN, LED5_PIN,
  70:../Utilities/STM32F4-Discovery/stm32f4_discovery.c ****                                  LED6_PIN};
ARM GAS  C:\Users\admin\AppData\Local\Temp\ccWCJ6Yj.s 			page 4


  71:../Utilities/STM32F4-Discovery/stm32f4_discovery.c **** const uint32_t GPIO_CLK[LEDn] = {LED4_GPIO_CLK, LED3_GPIO_CLK, LED5_GPIO_CLK,
  72:../Utilities/STM32F4-Discovery/stm32f4_discovery.c ****                                  LED6_GPIO_CLK};
  73:../Utilities/STM32F4-Discovery/stm32f4_discovery.c **** 
  74:../Utilities/STM32F4-Discovery/stm32f4_discovery.c **** GPIO_TypeDef* BUTTON_PORT[BUTTONn] = {USER_BUTTON_GPIO_PORT }; 
  75:../Utilities/STM32F4-Discovery/stm32f4_discovery.c **** 
  76:../Utilities/STM32F4-Discovery/stm32f4_discovery.c **** const uint16_t BUTTON_PIN[BUTTONn] = {USER_BUTTON_PIN }; 
  77:../Utilities/STM32F4-Discovery/stm32f4_discovery.c **** 
  78:../Utilities/STM32F4-Discovery/stm32f4_discovery.c **** const uint32_t BUTTON_CLK[BUTTONn] = {USER_BUTTON_GPIO_CLK };
  79:../Utilities/STM32F4-Discovery/stm32f4_discovery.c **** 
  80:../Utilities/STM32F4-Discovery/stm32f4_discovery.c **** const uint16_t BUTTON_EXTI_LINE[BUTTONn] = {USER_BUTTON_EXTI_LINE };
  81:../Utilities/STM32F4-Discovery/stm32f4_discovery.c **** 
  82:../Utilities/STM32F4-Discovery/stm32f4_discovery.c **** const uint8_t BUTTON_PORT_SOURCE[BUTTONn] = {USER_BUTTON_EXTI_PORT_SOURCE};
  83:../Utilities/STM32F4-Discovery/stm32f4_discovery.c **** 								 
  84:../Utilities/STM32F4-Discovery/stm32f4_discovery.c **** const uint8_t BUTTON_PIN_SOURCE[BUTTONn] = {USER_BUTTON_EXTI_PIN_SOURCE }; 
  85:../Utilities/STM32F4-Discovery/stm32f4_discovery.c **** const uint8_t BUTTON_IRQn[BUTTONn] = {USER_BUTTON_EXTI_IRQn };
  86:../Utilities/STM32F4-Discovery/stm32f4_discovery.c **** 
  87:../Utilities/STM32F4-Discovery/stm32f4_discovery.c **** NVIC_InitTypeDef   NVIC_InitStructure;
  88:../Utilities/STM32F4-Discovery/stm32f4_discovery.c **** 
  89:../Utilities/STM32F4-Discovery/stm32f4_discovery.c **** /**
  90:../Utilities/STM32F4-Discovery/stm32f4_discovery.c ****   * @}
  91:../Utilities/STM32F4-Discovery/stm32f4_discovery.c ****   */ 
  92:../Utilities/STM32F4-Discovery/stm32f4_discovery.c **** 
  93:../Utilities/STM32F4-Discovery/stm32f4_discovery.c **** 
  94:../Utilities/STM32F4-Discovery/stm32f4_discovery.c **** /** @defgroup STM32F4_DISCOVERY_LOW_LEVEL_Private_FunctionPrototypes
  95:../Utilities/STM32F4-Discovery/stm32f4_discovery.c ****   * @{
  96:../Utilities/STM32F4-Discovery/stm32f4_discovery.c ****   */ 
  97:../Utilities/STM32F4-Discovery/stm32f4_discovery.c **** 
  98:../Utilities/STM32F4-Discovery/stm32f4_discovery.c **** /**
  99:../Utilities/STM32F4-Discovery/stm32f4_discovery.c ****   * @}
 100:../Utilities/STM32F4-Discovery/stm32f4_discovery.c ****   */ 
 101:../Utilities/STM32F4-Discovery/stm32f4_discovery.c **** 
 102:../Utilities/STM32F4-Discovery/stm32f4_discovery.c **** /** @defgroup STM32F4_DISCOVERY_LOW_LEVEL_Private_Functions
 103:../Utilities/STM32F4-Discovery/stm32f4_discovery.c ****   * @{
 104:../Utilities/STM32F4-Discovery/stm32f4_discovery.c ****   */ 
 105:../Utilities/STM32F4-Discovery/stm32f4_discovery.c **** 
 106:../Utilities/STM32F4-Discovery/stm32f4_discovery.c **** /**
 107:../Utilities/STM32F4-Discovery/stm32f4_discovery.c ****   * @brief  Configures LED GPIO.
 108:../Utilities/STM32F4-Discovery/stm32f4_discovery.c ****   * @param  Led: Specifies the Led to be configured. 
 109:../Utilities/STM32F4-Discovery/stm32f4_discovery.c ****   *   This parameter can be one of following parameters:
 110:../Utilities/STM32F4-Discovery/stm32f4_discovery.c ****   *     @arg LED4
 111:../Utilities/STM32F4-Discovery/stm32f4_discovery.c ****   *     @arg LED3
 112:../Utilities/STM32F4-Discovery/stm32f4_discovery.c ****   *     @arg LED5
 113:../Utilities/STM32F4-Discovery/stm32f4_discovery.c ****   *     @arg LED6
 114:../Utilities/STM32F4-Discovery/stm32f4_discovery.c ****   * @retval None
 115:../Utilities/STM32F4-Discovery/stm32f4_discovery.c ****   */
 116:../Utilities/STM32F4-Discovery/stm32f4_discovery.c **** void STM_EVAL_LEDInit(Led_TypeDef Led)
 117:../Utilities/STM32F4-Discovery/stm32f4_discovery.c **** {
 102              		.loc 1 117 1 view -0
 103              		.cfi_startproc
 104              		@ args = 0, pretend = 0, frame = 8
 105              		@ frame_needed = 0, uses_anonymous_args = 0
 118:../Utilities/STM32F4-Discovery/stm32f4_discovery.c ****   GPIO_InitTypeDef  GPIO_InitStructure;
 106              		.loc 1 118 3 view .LVU1
 119:../Utilities/STM32F4-Discovery/stm32f4_discovery.c ****   
 120:../Utilities/STM32F4-Discovery/stm32f4_discovery.c ****   /* Enable the GPIO_LED Clock */
 121:../Utilities/STM32F4-Discovery/stm32f4_discovery.c ****   RCC_AHB1PeriphClockCmd(GPIO_CLK[Led], ENABLE);
 107              		.loc 1 121 3 view .LVU2
ARM GAS  C:\Users\admin\AppData\Local\Temp\ccWCJ6Yj.s 			page 5


 108              	@ ../Utilities/STM32F4-Discovery/stm32f4_discovery.c:117: {
 117:../Utilities/STM32F4-Discovery/stm32f4_discovery.c ****   GPIO_InitTypeDef  GPIO_InitStructure;
 109              		.loc 1 117 1 is_stmt 0 view .LVU3
 110 0000 10B5     		push	{r4, lr}	@
 111              		.cfi_def_cfa_offset 8
 112              		.cfi_offset 4, -8
 113              		.cfi_offset 14, -4
 114              	@ ../Utilities/STM32F4-Discovery/stm32f4_discovery.c:121:   RCC_AHB1PeriphClockCmd(GPIO_CLK[Led], E
 115              		.loc 1 121 3 view .LVU4
 116 0002 0B4B     		ldr	r3, .L4	@ tmp119,
 117              	@ ../Utilities/STM32F4-Discovery/stm32f4_discovery.c:117: {
 117:../Utilities/STM32F4-Discovery/stm32f4_discovery.c ****   GPIO_InitTypeDef  GPIO_InitStructure;
 118              		.loc 1 117 1 view .LVU5
 119 0004 82B0     		sub	sp, sp, #8	@,,
 120              		.cfi_def_cfa_offset 16
 121              	@ ../Utilities/STM32F4-Discovery/stm32f4_discovery.c:117: {
 117:../Utilities/STM32F4-Discovery/stm32f4_discovery.c ****   GPIO_InitTypeDef  GPIO_InitStructure;
 122              		.loc 1 117 1 view .LVU6
 123 0006 0446     		mov	r4, r0	@ Led, tmp127
 124              	@ ../Utilities/STM32F4-Discovery/stm32f4_discovery.c:121:   RCC_AHB1PeriphClockCmd(GPIO_CLK[Led], E
 125              		.loc 1 121 3 view .LVU7
 126 0008 0121     		movs	r1, #1	@,
 127 000a 53F82000 		ldr	r0, [r3, r0, lsl #2]	@, GPIO_CLK[_1]
 128              	.LVL1:
 129              		.loc 1 121 3 view .LVU8
 130 000e FFF7FEFF 		bl	RCC_AHB1PeriphClockCmd		@
 131              	.LVL2:
 122:../Utilities/STM32F4-Discovery/stm32f4_discovery.c **** 
 123:../Utilities/STM32F4-Discovery/stm32f4_discovery.c ****   /* Configure the GPIO_LED pin */
 124:../Utilities/STM32F4-Discovery/stm32f4_discovery.c ****   GPIO_InitStructure.GPIO_Pin = GPIO_PIN[Led];
 132              		.loc 1 124 3 is_stmt 1 view .LVU9
 133              	@ ../Utilities/STM32F4-Discovery/stm32f4_discovery.c:124:   GPIO_InitStructure.GPIO_Pin = GPIO_PIN[
 134              		.loc 1 124 41 is_stmt 0 view .LVU10
 135 0012 084B     		ldr	r3, .L4+4	@ tmp121,
 136              	@ ../Utilities/STM32F4-Discovery/stm32f4_discovery.c:129:   GPIO_Init(GPIO_PORT[Led], &GPIO_InitStr
 125:../Utilities/STM32F4-Discovery/stm32f4_discovery.c ****   GPIO_InitStructure.GPIO_Mode = GPIO_Mode_OUT;
 126:../Utilities/STM32F4-Discovery/stm32f4_discovery.c ****   GPIO_InitStructure.GPIO_OType = GPIO_OType_PP;
 127:../Utilities/STM32F4-Discovery/stm32f4_discovery.c ****   GPIO_InitStructure.GPIO_PuPd = GPIO_PuPd_UP;
 128:../Utilities/STM32F4-Discovery/stm32f4_discovery.c ****   GPIO_InitStructure.GPIO_Speed = GPIO_Speed_50MHz;
 129:../Utilities/STM32F4-Discovery/stm32f4_discovery.c ****   GPIO_Init(GPIO_PORT[Led], &GPIO_InitStructure);
 137              		.loc 1 129 3 view .LVU11
 138 0014 0849     		ldr	r1, .L4+8	@ tmp125,
 139              	@ ../Utilities/STM32F4-Discovery/stm32f4_discovery.c:124:   GPIO_InitStructure.GPIO_Pin = GPIO_PIN[
 124:../Utilities/STM32F4-Discovery/stm32f4_discovery.c ****   GPIO_InitStructure.GPIO_Mode = GPIO_Mode_OUT;
 140              		.loc 1 124 41 view .LVU12
 141 0016 33F81420 		ldrh	r2, [r3, r4, lsl #1]	@ GPIO_PIN[_1], GPIO_PIN[_1]
 142              	@ ../Utilities/STM32F4-Discovery/stm32f4_discovery.c:125:   GPIO_InitStructure.GPIO_Mode = GPIO_Mod
 125:../Utilities/STM32F4-Discovery/stm32f4_discovery.c ****   GPIO_InitStructure.GPIO_Mode = GPIO_Mode_OUT;
 143              		.loc 1 125 32 view .LVU13
 144 001a 084B     		ldr	r3, .L4+12	@ tmp123,
 145              	@ ../Utilities/STM32F4-Discovery/stm32f4_discovery.c:129:   GPIO_Init(GPIO_PORT[Led], &GPIO_InitStr
 146              		.loc 1 129 3 view .LVU14
 147 001c 51F82400 		ldr	r0, [r1, r4, lsl #2]	@, GPIO_PORT[_1]
 148 0020 6946     		mov	r1, sp	@,
 149              	@ ../Utilities/STM32F4-Discovery/stm32f4_discovery.c:125:   GPIO_InitStructure.GPIO_Mode = GPIO_Mod
 125:../Utilities/STM32F4-Discovery/stm32f4_discovery.c ****   GPIO_InitStructure.GPIO_Mode = GPIO_Mode_OUT;
 150              		.loc 1 125 32 view .LVU15
ARM GAS  C:\Users\admin\AppData\Local\Temp\ccWCJ6Yj.s 			page 6


 151 0022 CDE90023 		strd	r2, r3, [sp]	@ GPIO_PIN[_1], tmp123,
 152              		.loc 1 129 3 is_stmt 1 view .LVU16
 153 0026 FFF7FEFF 		bl	GPIO_Init		@
 154              	.LVL3:
 155              	@ ../Utilities/STM32F4-Discovery/stm32f4_discovery.c:130: }
 130:../Utilities/STM32F4-Discovery/stm32f4_discovery.c **** }
 156              		.loc 1 130 1 is_stmt 0 view .LVU17
 157 002a 02B0     		add	sp, sp, #8	@,,
 158              		.cfi_def_cfa_offset 8
 159              		@ sp needed	@
 160 002c 10BD     		pop	{r4, pc}	@
 161              	.L5:
 162 002e 00BF     		.align	2
 163              	.L4:
 164 0030 00000000 		.word	.LANCHOR0
 165 0034 00000000 		.word	.LANCHOR1
 166 0038 00000000 		.word	.LANCHOR2
 167 003c 01020001 		.word	16777729
 168              		.cfi_endproc
 169              	.LFE110:
 170              		.size	STM_EVAL_LEDInit, .-STM_EVAL_LEDInit
 171              		.section	.text.STM_EVAL_LEDOn,"ax",%progbits
 172              		.align	1
 173              		.p2align 2,,3
 174              		.global	STM_EVAL_LEDOn
 175              		.syntax unified
 176              		.thumb
 177              		.thumb_func
 178              		.type	STM_EVAL_LEDOn, %function
 179              	STM_EVAL_LEDOn:
 180              	.LVL4:
 181              	.LFB111:
 131:../Utilities/STM32F4-Discovery/stm32f4_discovery.c **** 
 132:../Utilities/STM32F4-Discovery/stm32f4_discovery.c **** /**
 133:../Utilities/STM32F4-Discovery/stm32f4_discovery.c ****   * @brief  Turns selected LED On.
 134:../Utilities/STM32F4-Discovery/stm32f4_discovery.c ****   * @param  Led: Specifies the Led to be set on. 
 135:../Utilities/STM32F4-Discovery/stm32f4_discovery.c ****   *   This parameter can be one of following parameters:
 136:../Utilities/STM32F4-Discovery/stm32f4_discovery.c ****   *     @arg LED4
 137:../Utilities/STM32F4-Discovery/stm32f4_discovery.c ****   *     @arg LED3
 138:../Utilities/STM32F4-Discovery/stm32f4_discovery.c ****   *     @arg LED5
 139:../Utilities/STM32F4-Discovery/stm32f4_discovery.c ****   *     @arg LED6  
 140:../Utilities/STM32F4-Discovery/stm32f4_discovery.c ****   * @retval None
 141:../Utilities/STM32F4-Discovery/stm32f4_discovery.c ****   */
 142:../Utilities/STM32F4-Discovery/stm32f4_discovery.c **** void STM_EVAL_LEDOn(Led_TypeDef Led)
 143:../Utilities/STM32F4-Discovery/stm32f4_discovery.c **** {
 182              		.loc 1 143 1 is_stmt 1 view -0
 183              		.cfi_startproc
 184              		@ args = 0, pretend = 0, frame = 0
 185              		@ frame_needed = 0, uses_anonymous_args = 0
 186              		@ link register save eliminated.
 144:../Utilities/STM32F4-Discovery/stm32f4_discovery.c ****   GPIO_PORT[Led]->BSRRL = GPIO_PIN[Led];
 187              		.loc 1 144 3 view .LVU19
 188              	@ ../Utilities/STM32F4-Discovery/stm32f4_discovery.c:144:   GPIO_PORT[Led]->BSRRL = GPIO_PIN[Led];
 189              		.loc 1 144 12 is_stmt 0 view .LVU20
 190 0000 034B     		ldr	r3, .L7	@ tmp117,
 191              	@ ../Utilities/STM32F4-Discovery/stm32f4_discovery.c:144:   GPIO_PORT[Led]->BSRRL = GPIO_PIN[Led];
 192              		.loc 1 144 35 view .LVU21
ARM GAS  C:\Users\admin\AppData\Local\Temp\ccWCJ6Yj.s 			page 7


 193 0002 044A     		ldr	r2, .L7+4	@ tmp118,
 194              	@ ../Utilities/STM32F4-Discovery/stm32f4_discovery.c:144:   GPIO_PORT[Led]->BSRRL = GPIO_PIN[Led];
 195              		.loc 1 144 12 view .LVU22
 196 0004 53F82030 		ldr	r3, [r3, r0, lsl #2]	@ _2, GPIO_PORT[_1]
 197              	@ ../Utilities/STM32F4-Discovery/stm32f4_discovery.c:144:   GPIO_PORT[Led]->BSRRL = GPIO_PIN[Led];
 198              		.loc 1 144 35 view .LVU23
 199 0008 32F81020 		ldrh	r2, [r2, r0, lsl #1]	@ _3, GPIO_PIN[_1]
 200              	@ ../Utilities/STM32F4-Discovery/stm32f4_discovery.c:144:   GPIO_PORT[Led]->BSRRL = GPIO_PIN[Led];
 201              		.loc 1 144 25 view .LVU24
 202 000c 1A83     		strh	r2, [r3, #24]	@ movhi	@ _3, _2->BSRRL
 203              	@ ../Utilities/STM32F4-Discovery/stm32f4_discovery.c:145: }
 145:../Utilities/STM32F4-Discovery/stm32f4_discovery.c **** }
 204              		.loc 1 145 1 view .LVU25
 205 000e 7047     		bx	lr	@
 206              	.L8:
 207              		.align	2
 208              	.L7:
 209 0010 00000000 		.word	.LANCHOR2
 210 0014 00000000 		.word	.LANCHOR1
 211              		.cfi_endproc
 212              	.LFE111:
 213              		.size	STM_EVAL_LEDOn, .-STM_EVAL_LEDOn
 214              		.section	.text.STM_EVAL_LEDOff,"ax",%progbits
 215              		.align	1
 216              		.p2align 2,,3
 217              		.global	STM_EVAL_LEDOff
 218              		.syntax unified
 219              		.thumb
 220              		.thumb_func
 221              		.type	STM_EVAL_LEDOff, %function
 222              	STM_EVAL_LEDOff:
 223              	.LVL5:
 224              	.LFB112:
 146:../Utilities/STM32F4-Discovery/stm32f4_discovery.c **** 
 147:../Utilities/STM32F4-Discovery/stm32f4_discovery.c **** /**
 148:../Utilities/STM32F4-Discovery/stm32f4_discovery.c ****   * @brief  Turns selected LED Off.
 149:../Utilities/STM32F4-Discovery/stm32f4_discovery.c ****   * @param  Led: Specifies the Led to be set off. 
 150:../Utilities/STM32F4-Discovery/stm32f4_discovery.c ****   *   This parameter can be one of following parameters:
 151:../Utilities/STM32F4-Discovery/stm32f4_discovery.c ****   *     @arg LED4
 152:../Utilities/STM32F4-Discovery/stm32f4_discovery.c ****   *     @arg LED3
 153:../Utilities/STM32F4-Discovery/stm32f4_discovery.c ****   *     @arg LED5
 154:../Utilities/STM32F4-Discovery/stm32f4_discovery.c ****   *     @arg LED6 
 155:../Utilities/STM32F4-Discovery/stm32f4_discovery.c ****   * @retval None
 156:../Utilities/STM32F4-Discovery/stm32f4_discovery.c ****   */
 157:../Utilities/STM32F4-Discovery/stm32f4_discovery.c **** void STM_EVAL_LEDOff(Led_TypeDef Led)
 158:../Utilities/STM32F4-Discovery/stm32f4_discovery.c **** {
 225              		.loc 1 158 1 is_stmt 1 view -0
 226              		.cfi_startproc
 227              		@ args = 0, pretend = 0, frame = 0
 228              		@ frame_needed = 0, uses_anonymous_args = 0
 229              		@ link register save eliminated.
 159:../Utilities/STM32F4-Discovery/stm32f4_discovery.c ****   GPIO_PORT[Led]->BSRRH = GPIO_PIN[Led];  
 230              		.loc 1 159 3 view .LVU27
 231              	@ ../Utilities/STM32F4-Discovery/stm32f4_discovery.c:159:   GPIO_PORT[Led]->BSRRH = GPIO_PIN[Led]; 
 232              		.loc 1 159 12 is_stmt 0 view .LVU28
 233 0000 034B     		ldr	r3, .L10	@ tmp117,
 234              	@ ../Utilities/STM32F4-Discovery/stm32f4_discovery.c:159:   GPIO_PORT[Led]->BSRRH = GPIO_PIN[Led]; 
ARM GAS  C:\Users\admin\AppData\Local\Temp\ccWCJ6Yj.s 			page 8


 235              		.loc 1 159 35 view .LVU29
 236 0002 044A     		ldr	r2, .L10+4	@ tmp118,
 237              	@ ../Utilities/STM32F4-Discovery/stm32f4_discovery.c:159:   GPIO_PORT[Led]->BSRRH = GPIO_PIN[Led]; 
 238              		.loc 1 159 12 view .LVU30
 239 0004 53F82030 		ldr	r3, [r3, r0, lsl #2]	@ _2, GPIO_PORT[_1]
 240              	@ ../Utilities/STM32F4-Discovery/stm32f4_discovery.c:159:   GPIO_PORT[Led]->BSRRH = GPIO_PIN[Led]; 
 241              		.loc 1 159 35 view .LVU31
 242 0008 32F81020 		ldrh	r2, [r2, r0, lsl #1]	@ _3, GPIO_PIN[_1]
 243              	@ ../Utilities/STM32F4-Discovery/stm32f4_discovery.c:159:   GPIO_PORT[Led]->BSRRH = GPIO_PIN[Led]; 
 244              		.loc 1 159 25 view .LVU32
 245 000c 5A83     		strh	r2, [r3, #26]	@ movhi	@ _3, _2->BSRRH
 246              	@ ../Utilities/STM32F4-Discovery/stm32f4_discovery.c:160: }
 160:../Utilities/STM32F4-Discovery/stm32f4_discovery.c **** }
 247              		.loc 1 160 1 view .LVU33
 248 000e 7047     		bx	lr	@
 249              	.L11:
 250              		.align	2
 251              	.L10:
 252 0010 00000000 		.word	.LANCHOR2
 253 0014 00000000 		.word	.LANCHOR1
 254              		.cfi_endproc
 255              	.LFE112:
 256              		.size	STM_EVAL_LEDOff, .-STM_EVAL_LEDOff
 257              		.section	.text.STM_EVAL_LEDToggle,"ax",%progbits
 258              		.align	1
 259              		.p2align 2,,3
 260              		.global	STM_EVAL_LEDToggle
 261              		.syntax unified
 262              		.thumb
 263              		.thumb_func
 264              		.type	STM_EVAL_LEDToggle, %function
 265              	STM_EVAL_LEDToggle:
 266              	.LVL6:
 267              	.LFB113:
 161:../Utilities/STM32F4-Discovery/stm32f4_discovery.c **** 
 162:../Utilities/STM32F4-Discovery/stm32f4_discovery.c **** /**
 163:../Utilities/STM32F4-Discovery/stm32f4_discovery.c ****   * @brief  Toggles the selected LED.
 164:../Utilities/STM32F4-Discovery/stm32f4_discovery.c ****   * @param  Led: Specifies the Led to be toggled. 
 165:../Utilities/STM32F4-Discovery/stm32f4_discovery.c ****   *   This parameter can be one of following parameters:
 166:../Utilities/STM32F4-Discovery/stm32f4_discovery.c ****   *     @arg LED4
 167:../Utilities/STM32F4-Discovery/stm32f4_discovery.c ****   *     @arg LED3
 168:../Utilities/STM32F4-Discovery/stm32f4_discovery.c ****   *     @arg LED5
 169:../Utilities/STM32F4-Discovery/stm32f4_discovery.c ****   *     @arg LED6  
 170:../Utilities/STM32F4-Discovery/stm32f4_discovery.c ****   * @retval None
 171:../Utilities/STM32F4-Discovery/stm32f4_discovery.c ****   */
 172:../Utilities/STM32F4-Discovery/stm32f4_discovery.c **** void STM_EVAL_LEDToggle(Led_TypeDef Led)
 173:../Utilities/STM32F4-Discovery/stm32f4_discovery.c **** {
 268              		.loc 1 173 1 is_stmt 1 view -0
 269              		.cfi_startproc
 270              		@ args = 0, pretend = 0, frame = 0
 271              		@ frame_needed = 0, uses_anonymous_args = 0
 272              		@ link register save eliminated.
 174:../Utilities/STM32F4-Discovery/stm32f4_discovery.c ****   GPIO_PORT[Led]->ODR ^= GPIO_PIN[Led];
 273              		.loc 1 174 3 view .LVU35
 274              	@ ../Utilities/STM32F4-Discovery/stm32f4_discovery.c:174:   GPIO_PORT[Led]->ODR ^= GPIO_PIN[Led];
 275              		.loc 1 174 12 is_stmt 0 view .LVU36
 276 0000 044A     		ldr	r2, .L13	@ tmp120,
ARM GAS  C:\Users\admin\AppData\Local\Temp\ccWCJ6Yj.s 			page 9


 277              	@ ../Utilities/STM32F4-Discovery/stm32f4_discovery.c:174:   GPIO_PORT[Led]->ODR ^= GPIO_PIN[Led];
 278              		.loc 1 174 34 view .LVU37
 279 0002 054B     		ldr	r3, .L13+4	@ tmp121,
 280              	@ ../Utilities/STM32F4-Discovery/stm32f4_discovery.c:174:   GPIO_PORT[Led]->ODR ^= GPIO_PIN[Led];
 281              		.loc 1 174 12 view .LVU38
 282 0004 52F82020 		ldr	r2, [r2, r0, lsl #2]	@ _2, GPIO_PORT[_1]
 283              	@ ../Utilities/STM32F4-Discovery/stm32f4_discovery.c:174:   GPIO_PORT[Led]->ODR ^= GPIO_PIN[Led];
 284              		.loc 1 174 34 view .LVU39
 285 0008 33F81030 		ldrh	r3, [r3, r0, lsl #1]	@ GPIO_PIN[_1], GPIO_PIN[_1]
 286              	@ ../Utilities/STM32F4-Discovery/stm32f4_discovery.c:174:   GPIO_PORT[Led]->ODR ^= GPIO_PIN[Led];
 287              		.loc 1 174 23 view .LVU40
 288 000c 5169     		ldr	r1, [r2, #20]	@ _3, _2->ODR
 289 000e 4B40     		eors	r3, r3, r1	@, _6, GPIO_PIN[_1], _3
 290 0010 5361     		str	r3, [r2, #20]	@ _6, _2->ODR
 291              	@ ../Utilities/STM32F4-Discovery/stm32f4_discovery.c:175: }
 175:../Utilities/STM32F4-Discovery/stm32f4_discovery.c **** }
 292              		.loc 1 175 1 view .LVU41
 293 0012 7047     		bx	lr	@
 294              	.L14:
 295              		.align	2
 296              	.L13:
 297 0014 00000000 		.word	.LANCHOR2
 298 0018 00000000 		.word	.LANCHOR1
 299              		.cfi_endproc
 300              	.LFE113:
 301              		.size	STM_EVAL_LEDToggle, .-STM_EVAL_LEDToggle
 302              		.section	.text.STM_EVAL_PBInit,"ax",%progbits
 303              		.align	1
 304              		.p2align 2,,3
 305              		.global	STM_EVAL_PBInit
 306              		.syntax unified
 307              		.thumb
 308              		.thumb_func
 309              		.type	STM_EVAL_PBInit, %function
 310              	STM_EVAL_PBInit:
 311              	.LVL7:
 312              	.LFB114:
 176:../Utilities/STM32F4-Discovery/stm32f4_discovery.c **** 
 177:../Utilities/STM32F4-Discovery/stm32f4_discovery.c **** /**
 178:../Utilities/STM32F4-Discovery/stm32f4_discovery.c ****   * @brief  Configures Button GPIO and EXTI Line.
 179:../Utilities/STM32F4-Discovery/stm32f4_discovery.c ****   * @param  Button: Specifies the Button to be configured.
 180:../Utilities/STM32F4-Discovery/stm32f4_discovery.c ****   *   This parameter should be: BUTTON_USER
 181:../Utilities/STM32F4-Discovery/stm32f4_discovery.c ****   * @param  Button_Mode: Specifies Button mode.
 182:../Utilities/STM32F4-Discovery/stm32f4_discovery.c ****   *   This parameter can be one of following parameters:   
 183:../Utilities/STM32F4-Discovery/stm32f4_discovery.c ****   *     @arg BUTTON_MODE_GPIO: Button will be used as simple IO 
 184:../Utilities/STM32F4-Discovery/stm32f4_discovery.c ****   *     @arg BUTTON_MODE_EXTI: Button will be connected to EXTI line with interrupt
 185:../Utilities/STM32F4-Discovery/stm32f4_discovery.c ****   *                            generation capability  
 186:../Utilities/STM32F4-Discovery/stm32f4_discovery.c ****   * @retval None
 187:../Utilities/STM32F4-Discovery/stm32f4_discovery.c ****   */
 188:../Utilities/STM32F4-Discovery/stm32f4_discovery.c **** void STM_EVAL_PBInit(Button_TypeDef Button, ButtonMode_TypeDef Button_Mode)
 189:../Utilities/STM32F4-Discovery/stm32f4_discovery.c **** {
 313              		.loc 1 189 1 is_stmt 1 view -0
 314              		.cfi_startproc
 315              		@ args = 0, pretend = 0, frame = 24
 316              		@ frame_needed = 0, uses_anonymous_args = 0
 190:../Utilities/STM32F4-Discovery/stm32f4_discovery.c ****   GPIO_InitTypeDef GPIO_InitStructure;
 317              		.loc 1 190 3 view .LVU43
ARM GAS  C:\Users\admin\AppData\Local\Temp\ccWCJ6Yj.s 			page 10


 191:../Utilities/STM32F4-Discovery/stm32f4_discovery.c ****   EXTI_InitTypeDef EXTI_InitStructure;
 318              		.loc 1 191 3 view .LVU44
 192:../Utilities/STM32F4-Discovery/stm32f4_discovery.c ****   NVIC_InitTypeDef NVIC_InitStructure;
 319              		.loc 1 192 3 view .LVU45
 193:../Utilities/STM32F4-Discovery/stm32f4_discovery.c **** 
 194:../Utilities/STM32F4-Discovery/stm32f4_discovery.c ****   /* Enable the BUTTON Clock */
 195:../Utilities/STM32F4-Discovery/stm32f4_discovery.c ****   RCC_AHB1PeriphClockCmd(BUTTON_CLK[Button], ENABLE);
 320              		.loc 1 195 3 view .LVU46
 321              	@ ../Utilities/STM32F4-Discovery/stm32f4_discovery.c:189: {
 189:../Utilities/STM32F4-Discovery/stm32f4_discovery.c ****   GPIO_InitTypeDef GPIO_InitStructure;
 322              		.loc 1 189 1 is_stmt 0 view .LVU47
 323 0000 70B5     		push	{r4, r5, r6, lr}	@
 324              		.cfi_def_cfa_offset 16
 325              		.cfi_offset 4, -16
 326              		.cfi_offset 5, -12
 327              		.cfi_offset 6, -8
 328              		.cfi_offset 14, -4
 329 0002 0C46     		mov	r4, r1	@ tmp134, Button_Mode
 330              	@ ../Utilities/STM32F4-Discovery/stm32f4_discovery.c:195:   RCC_AHB1PeriphClockCmd(BUTTON_CLK[Butto
 331              		.loc 1 195 3 view .LVU48
 332 0004 0121     		movs	r1, #1	@,
 333              	.LVL8:
 334              	@ ../Utilities/STM32F4-Discovery/stm32f4_discovery.c:189: {
 189:../Utilities/STM32F4-Discovery/stm32f4_discovery.c ****   GPIO_InitTypeDef GPIO_InitStructure;
 335              		.loc 1 189 1 view .LVU49
 336 0006 86B0     		sub	sp, sp, #24	@,,
 337              		.cfi_def_cfa_offset 40
 338              	@ ../Utilities/STM32F4-Discovery/stm32f4_discovery.c:189: {
 189:../Utilities/STM32F4-Discovery/stm32f4_discovery.c ****   GPIO_InitTypeDef GPIO_InitStructure;
 339              		.loc 1 189 1 view .LVU50
 340 0008 0546     		mov	r5, r0	@ tmp133, Button
 341              	@ ../Utilities/STM32F4-Discovery/stm32f4_discovery.c:195:   RCC_AHB1PeriphClockCmd(BUTTON_CLK[Butto
 342              		.loc 1 195 3 view .LVU51
 343 000a 0846     		mov	r0, r1	@,
 344              	.LVL9:
 345              		.loc 1 195 3 view .LVU52
 346 000c FFF7FEFF 		bl	RCC_AHB1PeriphClockCmd		@
 347              	.LVL10:
 196:../Utilities/STM32F4-Discovery/stm32f4_discovery.c ****   RCC_APB2PeriphClockCmd(RCC_APB2Periph_SYSCFG, ENABLE);
 348              		.loc 1 196 3 is_stmt 1 view .LVU53
 349 0010 0121     		movs	r1, #1	@,
 350 0012 4FF48040 		mov	r0, #16384	@,
 351 0016 FFF7FEFF 		bl	RCC_APB2PeriphClockCmd		@
 352              	.LVL11:
 197:../Utilities/STM32F4-Discovery/stm32f4_discovery.c **** 
 198:../Utilities/STM32F4-Discovery/stm32f4_discovery.c ****   /* Configure Button pin as input */
 199:../Utilities/STM32F4-Discovery/stm32f4_discovery.c ****   GPIO_InitStructure.GPIO_Mode = GPIO_Mode_IN;
 353              		.loc 1 199 3 view .LVU54
 354              	@ ../Utilities/STM32F4-Discovery/stm32f4_discovery.c:202:   GPIO_Init(BUTTON_PORT[Button], &GPIO_In
 200:../Utilities/STM32F4-Discovery/stm32f4_discovery.c ****   GPIO_InitStructure.GPIO_PuPd = GPIO_PuPd_NOPULL;
 201:../Utilities/STM32F4-Discovery/stm32f4_discovery.c ****   GPIO_InitStructure.GPIO_Pin = BUTTON_PIN[Button];
 202:../Utilities/STM32F4-Discovery/stm32f4_discovery.c ****   GPIO_Init(BUTTON_PORT[Button], &GPIO_InitStructure);
 355              		.loc 1 202 3 is_stmt 0 view .LVU55
 356 001a 134A     		ldr	r2, .L19	@ tmp123,
 357              	@ ../Utilities/STM32F4-Discovery/stm32f4_discovery.c:199:   GPIO_InitStructure.GPIO_Mode = GPIO_Mod
 199:../Utilities/STM32F4-Discovery/stm32f4_discovery.c ****   GPIO_InitStructure.GPIO_PuPd = GPIO_PuPd_NOPULL;
 358              		.loc 1 199 32 view .LVU56
ARM GAS  C:\Users\admin\AppData\Local\Temp\ccWCJ6Yj.s 			page 11


 359 001c 0026     		movs	r6, #0	@ tmp117,
 360              	@ ../Utilities/STM32F4-Discovery/stm32f4_discovery.c:201:   GPIO_InitStructure.GPIO_Pin = BUTTON_PI
 201:../Utilities/STM32F4-Discovery/stm32f4_discovery.c ****   GPIO_Init(BUTTON_PORT[Button], &GPIO_InitStructure);
 361              		.loc 1 201 31 view .LVU57
 362 001e 0123     		movs	r3, #1	@ tmp121,
 363              	@ ../Utilities/STM32F4-Discovery/stm32f4_discovery.c:202:   GPIO_Init(BUTTON_PORT[Button], &GPIO_In
 364              		.loc 1 202 3 view .LVU58
 365 0020 52F82500 		ldr	r0, [r2, r5, lsl #2]	@, BUTTON_PORT[_1]
 366              	@ ../Utilities/STM32F4-Discovery/stm32f4_discovery.c:199:   GPIO_InitStructure.GPIO_Mode = GPIO_Mod
 199:../Utilities/STM32F4-Discovery/stm32f4_discovery.c ****   GPIO_InitStructure.GPIO_PuPd = GPIO_PuPd_NOPULL;
 367              		.loc 1 199 32 view .LVU59
 368 0024 8DF80C60 		strb	r6, [sp, #12]	@ tmp117, GPIO_InitStructure.GPIO_Mode
 200:../Utilities/STM32F4-Discovery/stm32f4_discovery.c ****   GPIO_InitStructure.GPIO_PuPd = GPIO_PuPd_NOPULL;
 369              		.loc 1 200 3 is_stmt 1 view .LVU60
 370              	@ ../Utilities/STM32F4-Discovery/stm32f4_discovery.c:202:   GPIO_Init(BUTTON_PORT[Button], &GPIO_In
 371              		.loc 1 202 3 is_stmt 0 view .LVU61
 372 0028 02A9     		add	r1, sp, #8	@,,
 373              	@ ../Utilities/STM32F4-Discovery/stm32f4_discovery.c:200:   GPIO_InitStructure.GPIO_PuPd = GPIO_PuP
 200:../Utilities/STM32F4-Discovery/stm32f4_discovery.c ****   GPIO_InitStructure.GPIO_PuPd = GPIO_PuPd_NOPULL;
 374              		.loc 1 200 32 view .LVU62
 375 002a 8DF80F60 		strb	r6, [sp, #15]	@ tmp117, GPIO_InitStructure.GPIO_PuPd
 201:../Utilities/STM32F4-Discovery/stm32f4_discovery.c ****   GPIO_Init(BUTTON_PORT[Button], &GPIO_InitStructure);
 376              		.loc 1 201 3 is_stmt 1 view .LVU63
 377              	@ ../Utilities/STM32F4-Discovery/stm32f4_discovery.c:201:   GPIO_InitStructure.GPIO_Pin = BUTTON_PI
 201:../Utilities/STM32F4-Discovery/stm32f4_discovery.c ****   GPIO_Init(BUTTON_PORT[Button], &GPIO_InitStructure);
 378              		.loc 1 201 31 is_stmt 0 view .LVU64
 379 002e 0293     		str	r3, [sp, #8]	@ tmp121, GPIO_InitStructure.GPIO_Pin
 380              		.loc 1 202 3 is_stmt 1 view .LVU65
 381 0030 FFF7FEFF 		bl	GPIO_Init		@
 382              	.LVL12:
 203:../Utilities/STM32F4-Discovery/stm32f4_discovery.c **** 
 204:../Utilities/STM32F4-Discovery/stm32f4_discovery.c ****   if (Button_Mode == BUTTON_MODE_EXTI)
 383              		.loc 1 204 3 view .LVU66
 384              	@ ../Utilities/STM32F4-Discovery/stm32f4_discovery.c:204:   if (Button_Mode == BUTTON_MODE_EXTI)
 385              		.loc 1 204 6 is_stmt 0 view .LVU67
 386 0034 012C     		cmp	r4, #1	@ Button_Mode,
 387 0036 01D0     		beq	.L18		@,
 388              	@ ../Utilities/STM32F4-Discovery/stm32f4_discovery.c:224: }
 205:../Utilities/STM32F4-Discovery/stm32f4_discovery.c ****   {
 206:../Utilities/STM32F4-Discovery/stm32f4_discovery.c ****     /* Connect Button EXTI Line to Button GPIO Pin */
 207:../Utilities/STM32F4-Discovery/stm32f4_discovery.c ****     SYSCFG_EXTILineConfig(BUTTON_PORT_SOURCE[Button], BUTTON_PIN_SOURCE[Button]);
 208:../Utilities/STM32F4-Discovery/stm32f4_discovery.c **** 
 209:../Utilities/STM32F4-Discovery/stm32f4_discovery.c ****     /* Configure Button EXTI line */
 210:../Utilities/STM32F4-Discovery/stm32f4_discovery.c ****     EXTI_InitStructure.EXTI_Line = BUTTON_EXTI_LINE[Button];
 211:../Utilities/STM32F4-Discovery/stm32f4_discovery.c ****     EXTI_InitStructure.EXTI_Mode = EXTI_Mode_Interrupt;
 212:../Utilities/STM32F4-Discovery/stm32f4_discovery.c ****     EXTI_InitStructure.EXTI_Trigger = EXTI_Trigger_Rising;  
 213:../Utilities/STM32F4-Discovery/stm32f4_discovery.c ****     EXTI_InitStructure.EXTI_LineCmd = ENABLE;
 214:../Utilities/STM32F4-Discovery/stm32f4_discovery.c ****     EXTI_Init(&EXTI_InitStructure);
 215:../Utilities/STM32F4-Discovery/stm32f4_discovery.c **** 
 216:../Utilities/STM32F4-Discovery/stm32f4_discovery.c ****     /* Enable and set Button EXTI Interrupt to the lowest priority */
 217:../Utilities/STM32F4-Discovery/stm32f4_discovery.c ****     NVIC_InitStructure.NVIC_IRQChannel = BUTTON_IRQn[Button];
 218:../Utilities/STM32F4-Discovery/stm32f4_discovery.c ****     NVIC_InitStructure.NVIC_IRQChannelPreemptionPriority = 0x0F;
 219:../Utilities/STM32F4-Discovery/stm32f4_discovery.c ****     NVIC_InitStructure.NVIC_IRQChannelSubPriority = 0x0F;
 220:../Utilities/STM32F4-Discovery/stm32f4_discovery.c ****     NVIC_InitStructure.NVIC_IRQChannelCmd = ENABLE;
 221:../Utilities/STM32F4-Discovery/stm32f4_discovery.c **** 
 222:../Utilities/STM32F4-Discovery/stm32f4_discovery.c ****     NVIC_Init(&NVIC_InitStructure); 
 223:../Utilities/STM32F4-Discovery/stm32f4_discovery.c ****   }
ARM GAS  C:\Users\admin\AppData\Local\Temp\ccWCJ6Yj.s 			page 12


 224:../Utilities/STM32F4-Discovery/stm32f4_discovery.c **** }
 389              		.loc 1 224 1 view .LVU68
 390 0038 06B0     		add	sp, sp, #24	@,,
 391              		.cfi_remember_state
 392              		.cfi_def_cfa_offset 16
 393              		@ sp needed	@
 394 003a 70BD     		pop	{r4, r5, r6, pc}	@
 395              	.L18:
 396              		.cfi_restore_state
 207:../Utilities/STM32F4-Discovery/stm32f4_discovery.c **** 
 397              		.loc 1 207 5 is_stmt 1 view .LVU69
 398 003c 3146     		mov	r1, r6	@, tmp117
 399 003e 3046     		mov	r0, r6	@, tmp1
 400 0040 FFF7FEFF 		bl	SYSCFG_EXTILineConfig		@
 401              	.LVL13:
 210:../Utilities/STM32F4-Discovery/stm32f4_discovery.c ****     EXTI_InitStructure.EXTI_Mode = EXTI_Mode_Interrupt;
 402              		.loc 1 210 5 view .LVU70
 403              	@ ../Utilities/STM32F4-Discovery/stm32f4_discovery.c:214:     EXTI_Init(&EXTI_InitStructure);
 214:../Utilities/STM32F4-Discovery/stm32f4_discovery.c **** 
 404              		.loc 1 214 5 is_stmt 0 view .LVU71
 405 0044 04A8     		add	r0, sp, #16	@,,
 406              	@ ../Utilities/STM32F4-Discovery/stm32f4_discovery.c:211:     EXTI_InitStructure.EXTI_Mode = EXTI_M
 211:../Utilities/STM32F4-Discovery/stm32f4_discovery.c ****     EXTI_InitStructure.EXTI_Trigger = EXTI_Trigger_Rising;  
 407              		.loc 1 211 34 view .LVU72
 408 0046 4FF40063 		mov	r3, #2048	@ tmp127,
 409 004a ADF81430 		strh	r3, [sp, #20]	@ movhi	@ tmp127, MEM <vector(2) unsigned char> [(<unnamed type> *)&EXTI_InitSt
 410              	@ ../Utilities/STM32F4-Discovery/stm32f4_discovery.c:210:     EXTI_InitStructure.EXTI_Line = BUTTON
 210:../Utilities/STM32F4-Discovery/stm32f4_discovery.c ****     EXTI_InitStructure.EXTI_Mode = EXTI_Mode_Interrupt;
 411              		.loc 1 210 34 view .LVU73
 412 004e 0494     		str	r4, [sp, #16]	@ Button_Mode, EXTI_InitStructure.EXTI_Line
 211:../Utilities/STM32F4-Discovery/stm32f4_discovery.c ****     EXTI_InitStructure.EXTI_Trigger = EXTI_Trigger_Rising;  
 413              		.loc 1 211 5 is_stmt 1 view .LVU74
 212:../Utilities/STM32F4-Discovery/stm32f4_discovery.c ****     EXTI_InitStructure.EXTI_LineCmd = ENABLE;
 414              		.loc 1 212 5 view .LVU75
 213:../Utilities/STM32F4-Discovery/stm32f4_discovery.c ****     EXTI_Init(&EXTI_InitStructure);
 415              		.loc 1 213 5 view .LVU76
 416              	@ ../Utilities/STM32F4-Discovery/stm32f4_discovery.c:213:     EXTI_InitStructure.EXTI_LineCmd = ENA
 213:../Utilities/STM32F4-Discovery/stm32f4_discovery.c ****     EXTI_Init(&EXTI_InitStructure);
 417              		.loc 1 213 37 is_stmt 0 view .LVU77
 418 0050 8DF81640 		strb	r4, [sp, #22]	@ Button_Mode, EXTI_InitStructure.EXTI_LineCmd
 214:../Utilities/STM32F4-Discovery/stm32f4_discovery.c **** 
 419              		.loc 1 214 5 is_stmt 1 view .LVU78
 420 0054 FFF7FEFF 		bl	EXTI_Init		@
 421              	.LVL14:
 217:../Utilities/STM32F4-Discovery/stm32f4_discovery.c ****     NVIC_InitStructure.NVIC_IRQChannelPreemptionPriority = 0x0F;
 422              		.loc 1 217 5 view .LVU79
 218:../Utilities/STM32F4-Discovery/stm32f4_discovery.c ****     NVIC_InitStructure.NVIC_IRQChannelSubPriority = 0x0F;
 423              		.loc 1 218 5 view .LVU80
 219:../Utilities/STM32F4-Discovery/stm32f4_discovery.c ****     NVIC_InitStructure.NVIC_IRQChannelCmd = ENABLE;
 424              		.loc 1 219 5 view .LVU81
 220:../Utilities/STM32F4-Discovery/stm32f4_discovery.c **** 
 425              		.loc 1 220 5 view .LVU82
 426              	@ ../Utilities/STM32F4-Discovery/stm32f4_discovery.c:217:     NVIC_InitStructure.NVIC_IRQChannel = 
 217:../Utilities/STM32F4-Discovery/stm32f4_discovery.c ****     NVIC_InitStructure.NVIC_IRQChannelPreemptionPriority = 0x0F;
 427              		.loc 1 217 40 is_stmt 0 view .LVU83
 428 0058 044B     		ldr	r3, .L19+4	@ tmp131,
 429 005a 0193     		str	r3, [sp, #4]	@ tmp131, MEM <vector(4) unsigned char> [(unsigned char *)&NVIC_InitStructure]
ARM GAS  C:\Users\admin\AppData\Local\Temp\ccWCJ6Yj.s 			page 13


 222:../Utilities/STM32F4-Discovery/stm32f4_discovery.c ****   }
 430              		.loc 1 222 5 is_stmt 1 view .LVU84
 431 005c 01A8     		add	r0, sp, #4	@,,
 432 005e FFF7FEFF 		bl	NVIC_Init		@
 433              	.LVL15:
 434              	@ ../Utilities/STM32F4-Discovery/stm32f4_discovery.c:224: }
 435              		.loc 1 224 1 is_stmt 0 view .LVU85
 436 0062 06B0     		add	sp, sp, #24	@,,
 437              		.cfi_def_cfa_offset 16
 438              		@ sp needed	@
 439 0064 70BD     		pop	{r4, r5, r6, pc}	@
 440              	.L20:
 441 0066 00BF     		.align	2
 442              	.L19:
 443 0068 00000000 		.word	.LANCHOR3
 444 006c 060F0F01 		.word	17764102
 445              		.cfi_endproc
 446              	.LFE114:
 447              		.size	STM_EVAL_PBInit, .-STM_EVAL_PBInit
 448              		.section	.text.STM_EVAL_PBGetState,"ax",%progbits
 449              		.align	1
 450              		.p2align 2,,3
 451              		.global	STM_EVAL_PBGetState
 452              		.syntax unified
 453              		.thumb
 454              		.thumb_func
 455              		.type	STM_EVAL_PBGetState, %function
 456              	STM_EVAL_PBGetState:
 457              	.LVL16:
 458              	.LFB115:
 225:../Utilities/STM32F4-Discovery/stm32f4_discovery.c **** 
 226:../Utilities/STM32F4-Discovery/stm32f4_discovery.c **** /**
 227:../Utilities/STM32F4-Discovery/stm32f4_discovery.c ****   * @brief  Returns the selected Button state.
 228:../Utilities/STM32F4-Discovery/stm32f4_discovery.c ****   * @param  Button: Specifies the Button to be checked.
 229:../Utilities/STM32F4-Discovery/stm32f4_discovery.c ****   *   This parameter should be: BUTTON_USER  
 230:../Utilities/STM32F4-Discovery/stm32f4_discovery.c ****   * @retval The Button GPIO pin value.
 231:../Utilities/STM32F4-Discovery/stm32f4_discovery.c ****   */
 232:../Utilities/STM32F4-Discovery/stm32f4_discovery.c **** uint32_t STM_EVAL_PBGetState(Button_TypeDef Button)
 233:../Utilities/STM32F4-Discovery/stm32f4_discovery.c **** {
 459              		.loc 1 233 1 is_stmt 1 view -0
 460              		.cfi_startproc
 461              		@ args = 0, pretend = 0, frame = 0
 462              		@ frame_needed = 0, uses_anonymous_args = 0
 234:../Utilities/STM32F4-Discovery/stm32f4_discovery.c ****   return GPIO_ReadInputDataBit(BUTTON_PORT[Button], BUTTON_PIN[Button]);
 463              		.loc 1 234 3 view .LVU87
 464              	@ ../Utilities/STM32F4-Discovery/stm32f4_discovery.c:233: {
 233:../Utilities/STM32F4-Discovery/stm32f4_discovery.c ****   return GPIO_ReadInputDataBit(BUTTON_PORT[Button], BUTTON_PIN[Button]);
 465              		.loc 1 233 1 is_stmt 0 view .LVU88
 466 0000 08B5     		push	{r3, lr}	@
 467              		.cfi_def_cfa_offset 8
 468              		.cfi_offset 3, -8
 469              		.cfi_offset 14, -4
 470              	@ ../Utilities/STM32F4-Discovery/stm32f4_discovery.c:234:   return GPIO_ReadInputDataBit(BUTTON_POR
 471              		.loc 1 234 10 view .LVU89
 472 0002 034B     		ldr	r3, .L23	@ tmp118,
 473 0004 0121     		movs	r1, #1	@,
 474 0006 53F82000 		ldr	r0, [r3, r0, lsl #2]	@, BUTTON_PORT[_1]
ARM GAS  C:\Users\admin\AppData\Local\Temp\ccWCJ6Yj.s 			page 14


 475              	.LVL17:
 476              		.loc 1 234 10 view .LVU90
 477 000a FFF7FEFF 		bl	GPIO_ReadInputDataBit		@
 478              	.LVL18:
 479              	@ ../Utilities/STM32F4-Discovery/stm32f4_discovery.c:235: }
 235:../Utilities/STM32F4-Discovery/stm32f4_discovery.c **** }
 480              		.loc 1 235 1 view .LVU91
 481 000e 08BD     		pop	{r3, pc}	@
 482              	.L24:
 483              		.align	2
 484              	.L23:
 485 0010 00000000 		.word	.LANCHOR3
 486              		.cfi_endproc
 487              	.LFE115:
 488              		.size	STM_EVAL_PBGetState, .-STM_EVAL_PBGetState
 489              		.global	NVIC_InitStructure
 490              		.global	BUTTON_IRQn
 491              		.global	BUTTON_PIN_SOURCE
 492              		.global	BUTTON_PORT_SOURCE
 493              		.global	BUTTON_EXTI_LINE
 494              		.global	BUTTON_CLK
 495              		.global	BUTTON_PIN
 496              		.global	BUTTON_PORT
 497              		.global	GPIO_CLK
 498              		.global	GPIO_PIN
 499              		.global	GPIO_PORT
 500              		.section	.bss.NVIC_InitStructure,"aw",%nobits
 501              		.align	2
 502              		.type	NVIC_InitStructure, %object
 503              		.size	NVIC_InitStructure, 4
 504              	NVIC_InitStructure:
 505 0000 00000000 		.space	4
 506              		.section	.data.BUTTON_PORT,"aw"
 507              		.align	2
 508              		.set	.LANCHOR3,. + 0
 509              		.type	BUTTON_PORT, %object
 510              		.size	BUTTON_PORT, 4
 511              	BUTTON_PORT:
 512 0000 00000240 		.word	1073872896
 513              		.section	.data.GPIO_PORT,"aw"
 514              		.align	2
 515              		.set	.LANCHOR2,. + 0
 516              		.type	GPIO_PORT, %object
 517              		.size	GPIO_PORT, 16
 518              	GPIO_PORT:
 519 0000 000C0240 		.word	1073875968
 520 0004 000C0240 		.word	1073875968
 521 0008 000C0240 		.word	1073875968
 522 000c 000C0240 		.word	1073875968
 523              		.section	.rodata.BUTTON_CLK,"a"
 524              		.align	2
 525              		.type	BUTTON_CLK, %object
 526              		.size	BUTTON_CLK, 4
 527              	BUTTON_CLK:
 528 0000 01000000 		.word	1
 529              		.section	.rodata.BUTTON_EXTI_LINE,"a"
 530              		.align	2
ARM GAS  C:\Users\admin\AppData\Local\Temp\ccWCJ6Yj.s 			page 15


 531              		.type	BUTTON_EXTI_LINE, %object
 532              		.size	BUTTON_EXTI_LINE, 2
 533              	BUTTON_EXTI_LINE:
 534 0000 0100     		.short	1
 535              		.section	.rodata.BUTTON_IRQn,"a"
 536              		.align	2
 537              		.type	BUTTON_IRQn, %object
 538              		.size	BUTTON_IRQn, 1
 539              	BUTTON_IRQn:
 540 0000 06       		.ascii	"\006"
 541              		.section	.rodata.BUTTON_PIN,"a"
 542              		.align	2
 543              		.type	BUTTON_PIN, %object
 544              		.size	BUTTON_PIN, 2
 545              	BUTTON_PIN:
 546 0000 0100     		.short	1
 547              		.section	.rodata.BUTTON_PIN_SOURCE,"a"
 548              		.align	2
 549              		.type	BUTTON_PIN_SOURCE, %object
 550              		.size	BUTTON_PIN_SOURCE, 1
 551              	BUTTON_PIN_SOURCE:
 552 0000 00       		.space	1
 553              		.section	.rodata.BUTTON_PORT_SOURCE,"a"
 554              		.align	2
 555              		.type	BUTTON_PORT_SOURCE, %object
 556              		.size	BUTTON_PORT_SOURCE, 1
 557              	BUTTON_PORT_SOURCE:
 558 0000 00       		.space	1
 559              		.section	.rodata.GPIO_CLK,"a"
 560              		.align	2
 561              		.set	.LANCHOR0,. + 0
 562              		.type	GPIO_CLK, %object
 563              		.size	GPIO_CLK, 16
 564              	GPIO_CLK:
 565 0000 08000000 		.word	8
 566 0004 08000000 		.word	8
 567 0008 08000000 		.word	8
 568 000c 08000000 		.word	8
 569              		.section	.rodata.GPIO_PIN,"a"
 570              		.align	2
 571              		.set	.LANCHOR1,. + 0
 572              		.type	GPIO_PIN, %object
 573              		.size	GPIO_PIN, 8
 574              	GPIO_PIN:
 575 0000 0010     		.short	4096
 576 0002 0020     		.short	8192
 577 0004 0040     		.short	16384
 578 0006 0080     		.short	-32768
 579              		.text
 580              	.Letext0:
 581              		.file 2 "c:\\program files (x86)\\gnu arm embedded toolchain\\10 2021.10\\arm-none-eabi\\include\\
 582              		.file 3 "c:\\program files (x86)\\gnu arm embedded toolchain\\10 2021.10\\arm-none-eabi\\include\\
 583              		.file 4 "../Libraries/CMSIS/ST/STM32F4xx/Include/stm32f4xx.h"
 584              		.file 5 "../Libraries/STM32F4xx_StdPeriph_Driver/inc/stm32f4xx_gpio.h"
 585              		.file 6 "../Libraries/STM32F4xx_StdPeriph_Driver/inc/stm32f4xx_exti.h"
 586              		.file 7 "../Libraries/STM32F4xx_StdPeriph_Driver/inc/misc.h"
 587              		.file 8 "../Utilities/STM32F4-Discovery/stm32f4_discovery.h"
ARM GAS  C:\Users\admin\AppData\Local\Temp\ccWCJ6Yj.s 			page 16


 588              		.file 9 "../Libraries/STM32F4xx_StdPeriph_Driver/inc/stm32f4xx_rcc.h"
 589              		.file 10 "../Libraries/STM32F4xx_StdPeriph_Driver/inc/stm32f4xx_syscfg.h"