ARM GAS  C:\Users\admin\AppData\Local\Temp\ccAAMi0y.s 			page 1


   1              		.cpu cortex-m4
   2              		.arch armv7e-m
   3              		.fpu fpv4-sp-d16
   4              		.eabi_attribute 27, 1	@ Tag_ABI_HardFP_use
   5              		.eabi_attribute 28, 1	@ Tag_ABI_VFP_args
   6              		.eabi_attribute 23, 1	@ Tag_ABI_FP_number_model
   7              		.eabi_attribute 24, 1	@ Tag_ABI_align8_needed
   8              		.eabi_attribute 25, 1	@ Tag_ABI_align8_preserved
   9              		.eabi_attribute 26, 1	@ Tag_ABI_enum_size
  10              		.eabi_attribute 30, 2	@ Tag_ABI_optimization_goals
  11              		.eabi_attribute 34, 1	@ Tag_CPU_unaligned_access
  12              		.eabi_attribute 18, 4	@ Tag_ABI_PCS_wchar_t
  13              		.file	"stm32f4xx_cryp_aes.c"
  14              	@ GNU C89 (GNU Arm Embedded Toolchain 10.3-2021.10) version 10.3.1 20210824 (release) (arm-none-eab
  15              	@	compiled by GNU C version 7.3-win32 20180312, GMP version 6.1.0, MPFR version 3.1.4, MPC version 
  16              	
  17              	@ GGC heuristics: --param ggc-min-expand=100 --param ggc-min-heapsize=131072
  18              	@ options passed:  -I . -I . -I ../Utilities/STM32F4-Discovery/
  19              	@ -I ../Libraries/STM32_USB_Device_Library/Class/audio/inc/
  20              	@ -I ../Libraries/STM32_USB_Device_Library/Core/inc/
  21              	@ -I ../Libraries/STM32_USB_OTG_Driver/inc/
  22              	@ -I ../Utilities/STM32F4-Discovery/
  23              	@ -I ../Libraries/STM32F4xx_StdPeriph_Driver/inc/
  24              	@ -I ../Utilities/STM32F4-Discovery/
  25              	@ -I ../Libraries/CMSIS/ST/STM32F4xx/Include/
  26              	@ -I ../Libraries/CMSIS/Include/ -imultilib thumb/v7e-m+fp/hard
  27              	@ -iprefix c:\program files (x86)\gnu arm embedded toolchain\10 2021.10\bin\../lib/gcc/arm-none-eab
  28              	@ -isysroot c:\program files (x86)\gnu arm embedded toolchain\10 2021.10\bin\../arm-none-eabi
  29              	@ -MD out/stm32f4xx_cryp_aes.d -MF out/stm32f4xx_cryp_aes.d -MP
  30              	@ -MQ out/stm32f4xx_cryp_aes.o -D__USES_INITFINI__ -D STM32F4XX
  31              	@ -D __VFP_FP__ -D USE_USB_OTG_FS
  32              	@ ../Libraries/STM32F4xx_StdPeriph_Driver/src/stm32f4xx_cryp_aes.c
  33              	@ -mcpu=cortex-m4 -mthumb -mfloat-abi=hard -mfpu=fpv4-sp-d16
  34              	@ -mlibarch=armv7e-m+fp -march=armv7e-m+fp
  35              	@ -auxbase-strip out/stm32f4xx_cryp_aes.o -g -ggdb3 -O3 -Wall
  36              	@ -Wstrict-prototypes -Wextra -std=gnu90 -ffast-math -ffunction-sections
  37              	@ -fdata-sections -fverbose-asm
  38              	@ options enabled:  -faggressive-loop-optimizations -falign-functions
  39              	@ -falign-jumps -falign-labels -falign-loops -fallocation-dce
  40              	@ -fassociative-math -fauto-inc-dec -fbranch-count-reg -fcaller-saves
  41              	@ -fcombine-stack-adjustments -fcompare-elim -fcprop-registers
  42              	@ -fcrossjumping -fcse-follow-jumps -fcx-limited-range -fdata-sections
  43              	@ -fdefer-pop -fdelete-null-pointer-checks -fdevirtualize
  44              	@ -fdevirtualize-speculatively -fdwarf2-cfi-asm -fearly-inlining
  45              	@ -feliminate-unused-debug-symbols -feliminate-unused-debug-types
  46              	@ -fexpensive-optimizations -ffinite-math-only -fforward-propagate
  47              	@ -ffp-int-builtin-inexact -ffunction-cse -ffunction-sections -fgcse
  48              	@ -fgcse-after-reload -fgcse-lm -fgnu-unique -fguess-branch-probability
  49              	@ -fhoist-adjacent-loads -fident -fif-conversion -fif-conversion2
  50              	@ -findirect-inlining -finline -finline-atomics -finline-functions
  51              	@ -finline-functions-called-once -finline-small-functions -fipa-bit-cp
  52              	@ -fipa-cp -fipa-cp-clone -fipa-icf -fipa-icf-functions -fipa-icf-variables
  53              	@ -fipa-profile -fipa-pure-const -fipa-ra -fipa-reference
  54              	@ -fipa-reference-addressable -fipa-sra -fipa-stack-alignment -fipa-vrp
  55              	@ -fira-hoist-pressure -fira-share-save-slots -fira-share-spill-slots
  56              	@ -fisolate-erroneous-paths-dereference -fivopts -fkeep-static-consts
  57              	@ -fleading-underscore -flifetime-dse -floop-interchange
ARM GAS  C:\Users\admin\AppData\Local\Temp\ccAAMi0y.s 			page 2


  58              	@ -floop-unroll-and-jam -flra-remat -fmerge-constants -fmerge-debug-strings
  59              	@ -fmove-loop-invariants -fomit-frame-pointer -foptimize-sibling-calls
  60              	@ -foptimize-strlen -fpartial-inlining -fpeel-loops -fpeephole -fpeephole2
  61              	@ -fplt -fpredictive-commoning -fprefetch-loop-arrays -freciprocal-math
  62              	@ -freg-struct-return -freorder-blocks -freorder-functions
  63              	@ -frerun-cse-after-loop -fsched-critical-path-heuristic
  64              	@ -fsched-dep-count-heuristic -fsched-group-heuristic -fsched-interblock
  65              	@ -fsched-last-insn-heuristic -fsched-pressure -fsched-rank-heuristic
  66              	@ -fsched-spec -fsched-spec-insn-heuristic -fsched-stalled-insns-dep
  67              	@ -fschedule-insns -fschedule-insns2 -fsection-anchors
  68              	@ -fsemantic-interposition -fshow-column -fshrink-wrap
  69              	@ -fshrink-wrap-separate -fsplit-ivs-in-unroller -fsplit-loops
  70              	@ -fsplit-paths -fsplit-wide-types -fssa-backprop -fssa-phiopt -fstdarg-opt
  71              	@ -fstore-merging -fstrict-aliasing -fstrict-volatile-bitfields
  72              	@ -fsync-libcalls -fthread-jumps -ftoplevel-reorder -ftree-bit-ccp
  73              	@ -ftree-builtin-call-dce -ftree-ccp -ftree-ch -ftree-coalesce-vars
  74              	@ -ftree-copy-prop -ftree-cselim -ftree-dce -ftree-dominator-opts
  75              	@ -ftree-dse -ftree-forwprop -ftree-fre -ftree-loop-distribute-patterns
  76              	@ -ftree-loop-distribution -ftree-loop-if-convert -ftree-loop-im
  77              	@ -ftree-loop-ivcanon -ftree-loop-optimize -ftree-loop-vectorize
  78              	@ -ftree-parallelize-loops= -ftree-partial-pre -ftree-phiprop -ftree-pre
  79              	@ -ftree-pta -ftree-reassoc -ftree-scev-cprop -ftree-sink
  80              	@ -ftree-slp-vectorize -ftree-slsr -ftree-sra -ftree-switch-conversion
  81              	@ -ftree-tail-merge -ftree-ter -ftree-vrp -funit-at-a-time
  82              	@ -funsafe-math-optimizations -funswitch-loops -fvar-tracking
  83              	@ -fvar-tracking-assignments -fverbose-asm -fversion-loops-for-strides
  84              	@ -fzero-initialized-in-bss -masm-syntax-unified -mbe32 -mlittle-endian
  85              	@ -mpic-data-is-text-relative -msched-prolog -mthumb -munaligned-access
  86              	@ -mvectorize-with-neon-quad
  87              	
  88              		.text
  89              	.Ltext0:
  90              		.cfi_sections	.debug_frame
  91              		.section	.text.CRYP_AES_ECB,"ax",%progbits
  92              		.align	1
  93              		.p2align 2,,3
  94              		.global	CRYP_AES_ECB
  95              		.syntax unified
  96              		.thumb
  97              		.thumb_func
  98              		.type	CRYP_AES_ECB, %function
  99              	CRYP_AES_ECB:
 100              	.LVL0:
 101              	.LFB110:
 102              		.file 1 "../Libraries/STM32F4xx_StdPeriph_Driver/src/stm32f4xx_cryp_aes.c"
   1:../Libraries/STM32F4xx_StdPeriph_Driver/src/stm32f4xx_cryp_aes.c **** /**
   2:../Libraries/STM32F4xx_StdPeriph_Driver/src/stm32f4xx_cryp_aes.c ****   ******************************************************************************
   3:../Libraries/STM32F4xx_StdPeriph_Driver/src/stm32f4xx_cryp_aes.c ****   * @file    stm32f4xx_cryp_aes.c
   4:../Libraries/STM32F4xx_StdPeriph_Driver/src/stm32f4xx_cryp_aes.c ****   * @author  MCD Application Team
   5:../Libraries/STM32F4xx_StdPeriph_Driver/src/stm32f4xx_cryp_aes.c ****   * @version V1.0.0
   6:../Libraries/STM32F4xx_StdPeriph_Driver/src/stm32f4xx_cryp_aes.c ****   * @date    30-September-2011
   7:../Libraries/STM32F4xx_StdPeriph_Driver/src/stm32f4xx_cryp_aes.c ****   * @brief   This file provides high level functions to encrypt and decrypt an 
   8:../Libraries/STM32F4xx_StdPeriph_Driver/src/stm32f4xx_cryp_aes.c ****   *          input message using AES in ECB/CBC/CTR modes.
   9:../Libraries/STM32F4xx_StdPeriph_Driver/src/stm32f4xx_cryp_aes.c ****   *          It uses the stm32f4xx_cryp.c/.h drivers to access the STM32F4xx CRYP
  10:../Libraries/STM32F4xx_StdPeriph_Driver/src/stm32f4xx_cryp_aes.c ****   *          peripheral.
  11:../Libraries/STM32F4xx_StdPeriph_Driver/src/stm32f4xx_cryp_aes.c ****   *
  12:../Libraries/STM32F4xx_StdPeriph_Driver/src/stm32f4xx_cryp_aes.c ****   *  @verbatim
ARM GAS  C:\Users\admin\AppData\Local\Temp\ccAAMi0y.s 			page 3


  13:../Libraries/STM32F4xx_StdPeriph_Driver/src/stm32f4xx_cryp_aes.c ****   *
  14:../Libraries/STM32F4xx_StdPeriph_Driver/src/stm32f4xx_cryp_aes.c ****   *          ===================================================================
  15:../Libraries/STM32F4xx_StdPeriph_Driver/src/stm32f4xx_cryp_aes.c ****   *                                   How to use this driver
  16:../Libraries/STM32F4xx_StdPeriph_Driver/src/stm32f4xx_cryp_aes.c ****   *          ===================================================================
  17:../Libraries/STM32F4xx_StdPeriph_Driver/src/stm32f4xx_cryp_aes.c ****   *          1. Enable The CRYP controller clock using 
  18:../Libraries/STM32F4xx_StdPeriph_Driver/src/stm32f4xx_cryp_aes.c ****   *            RCC_AHB2PeriphClockCmd(RCC_AHB2Periph_CRYP, ENABLE); function.
  19:../Libraries/STM32F4xx_StdPeriph_Driver/src/stm32f4xx_cryp_aes.c ****   *
  20:../Libraries/STM32F4xx_StdPeriph_Driver/src/stm32f4xx_cryp_aes.c ****   *          2. Encrypt and decrypt using AES in ECB Mode using CRYP_AES_ECB()
  21:../Libraries/STM32F4xx_StdPeriph_Driver/src/stm32f4xx_cryp_aes.c ****   *             function.
  22:../Libraries/STM32F4xx_StdPeriph_Driver/src/stm32f4xx_cryp_aes.c ****   *
  23:../Libraries/STM32F4xx_StdPeriph_Driver/src/stm32f4xx_cryp_aes.c ****   *          3. Encrypt and decrypt using AES in CBC Mode using CRYP_AES_CBC()
  24:../Libraries/STM32F4xx_StdPeriph_Driver/src/stm32f4xx_cryp_aes.c ****   *             function.
  25:../Libraries/STM32F4xx_StdPeriph_Driver/src/stm32f4xx_cryp_aes.c ****   *
  26:../Libraries/STM32F4xx_StdPeriph_Driver/src/stm32f4xx_cryp_aes.c ****   *          4. Encrypt and decrypt using AES in CTR Mode using CRYP_AES_CTR()
  27:../Libraries/STM32F4xx_StdPeriph_Driver/src/stm32f4xx_cryp_aes.c ****   *             function.
  28:../Libraries/STM32F4xx_StdPeriph_Driver/src/stm32f4xx_cryp_aes.c ****   *
  29:../Libraries/STM32F4xx_StdPeriph_Driver/src/stm32f4xx_cryp_aes.c ****   *  @endverbatim
  30:../Libraries/STM32F4xx_StdPeriph_Driver/src/stm32f4xx_cryp_aes.c ****   *
  31:../Libraries/STM32F4xx_StdPeriph_Driver/src/stm32f4xx_cryp_aes.c ****   ******************************************************************************
  32:../Libraries/STM32F4xx_StdPeriph_Driver/src/stm32f4xx_cryp_aes.c ****   * @attention
  33:../Libraries/STM32F4xx_StdPeriph_Driver/src/stm32f4xx_cryp_aes.c ****   *
  34:../Libraries/STM32F4xx_StdPeriph_Driver/src/stm32f4xx_cryp_aes.c ****   * THE PRESENT FIRMWARE WHICH IS FOR GUIDANCE ONLY AIMS AT PROVIDING CUSTOMERS
  35:../Libraries/STM32F4xx_StdPeriph_Driver/src/stm32f4xx_cryp_aes.c ****   * WITH CODING INFORMATION REGARDING THEIR PRODUCTS IN ORDER FOR THEM TO SAVE
  36:../Libraries/STM32F4xx_StdPeriph_Driver/src/stm32f4xx_cryp_aes.c ****   * TIME. AS A RESULT, STMICROELECTRONICS SHALL NOT BE HELD LIABLE FOR ANY
  37:../Libraries/STM32F4xx_StdPeriph_Driver/src/stm32f4xx_cryp_aes.c ****   * DIRECT, INDIRECT OR CONSEQUENTIAL DAMAGES WITH RESPECT TO ANY CLAIMS ARISING
  38:../Libraries/STM32F4xx_StdPeriph_Driver/src/stm32f4xx_cryp_aes.c ****   * FROM THE CONTENT OF SUCH FIRMWARE AND/OR THE USE MADE BY CUSTOMERS OF THE
  39:../Libraries/STM32F4xx_StdPeriph_Driver/src/stm32f4xx_cryp_aes.c ****   * CODING INFORMATION CONTAINED HEREIN IN CONNECTION WITH THEIR PRODUCTS.
  40:../Libraries/STM32F4xx_StdPeriph_Driver/src/stm32f4xx_cryp_aes.c ****   *
  41:../Libraries/STM32F4xx_StdPeriph_Driver/src/stm32f4xx_cryp_aes.c ****   * <h2><center>&copy; COPYRIGHT 2011 STMicroelectronics</center></h2>
  42:../Libraries/STM32F4xx_StdPeriph_Driver/src/stm32f4xx_cryp_aes.c ****   ******************************************************************************  
  43:../Libraries/STM32F4xx_StdPeriph_Driver/src/stm32f4xx_cryp_aes.c ****   */
  44:../Libraries/STM32F4xx_StdPeriph_Driver/src/stm32f4xx_cryp_aes.c **** 
  45:../Libraries/STM32F4xx_StdPeriph_Driver/src/stm32f4xx_cryp_aes.c **** /* Includes ------------------------------------------------------------------*/
  46:../Libraries/STM32F4xx_StdPeriph_Driver/src/stm32f4xx_cryp_aes.c **** #include "stm32f4xx_cryp.h"
  47:../Libraries/STM32F4xx_StdPeriph_Driver/src/stm32f4xx_cryp_aes.c **** 
  48:../Libraries/STM32F4xx_StdPeriph_Driver/src/stm32f4xx_cryp_aes.c **** /** @addtogroup STM32F4xx_StdPeriph_Driver
  49:../Libraries/STM32F4xx_StdPeriph_Driver/src/stm32f4xx_cryp_aes.c ****   * @{
  50:../Libraries/STM32F4xx_StdPeriph_Driver/src/stm32f4xx_cryp_aes.c ****   */
  51:../Libraries/STM32F4xx_StdPeriph_Driver/src/stm32f4xx_cryp_aes.c **** 
  52:../Libraries/STM32F4xx_StdPeriph_Driver/src/stm32f4xx_cryp_aes.c **** /** @defgroup CRYP 
  53:../Libraries/STM32F4xx_StdPeriph_Driver/src/stm32f4xx_cryp_aes.c ****   * @brief CRYP driver modules
  54:../Libraries/STM32F4xx_StdPeriph_Driver/src/stm32f4xx_cryp_aes.c ****   * @{
  55:../Libraries/STM32F4xx_StdPeriph_Driver/src/stm32f4xx_cryp_aes.c ****   */
  56:../Libraries/STM32F4xx_StdPeriph_Driver/src/stm32f4xx_cryp_aes.c **** 
  57:../Libraries/STM32F4xx_StdPeriph_Driver/src/stm32f4xx_cryp_aes.c **** /* Private typedef -----------------------------------------------------------*/
  58:../Libraries/STM32F4xx_StdPeriph_Driver/src/stm32f4xx_cryp_aes.c **** /* Private define ------------------------------------------------------------*/
  59:../Libraries/STM32F4xx_StdPeriph_Driver/src/stm32f4xx_cryp_aes.c **** #define AESBUSY_TIMEOUT    ((uint32_t) 0x00010000)
  60:../Libraries/STM32F4xx_StdPeriph_Driver/src/stm32f4xx_cryp_aes.c **** 
  61:../Libraries/STM32F4xx_StdPeriph_Driver/src/stm32f4xx_cryp_aes.c **** /* Private macro -------------------------------------------------------------*/
  62:../Libraries/STM32F4xx_StdPeriph_Driver/src/stm32f4xx_cryp_aes.c **** /* Private variables ---------------------------------------------------------*/
  63:../Libraries/STM32F4xx_StdPeriph_Driver/src/stm32f4xx_cryp_aes.c **** /* Private function prototypes -----------------------------------------------*/
  64:../Libraries/STM32F4xx_StdPeriph_Driver/src/stm32f4xx_cryp_aes.c **** /* Private functions ---------------------------------------------------------*/
  65:../Libraries/STM32F4xx_StdPeriph_Driver/src/stm32f4xx_cryp_aes.c **** 
  66:../Libraries/STM32F4xx_StdPeriph_Driver/src/stm32f4xx_cryp_aes.c **** /** @defgroup CRYP_Private_Functions
  67:../Libraries/STM32F4xx_StdPeriph_Driver/src/stm32f4xx_cryp_aes.c ****   * @{
  68:../Libraries/STM32F4xx_StdPeriph_Driver/src/stm32f4xx_cryp_aes.c ****   */ 
  69:../Libraries/STM32F4xx_StdPeriph_Driver/src/stm32f4xx_cryp_aes.c **** 
ARM GAS  C:\Users\admin\AppData\Local\Temp\ccAAMi0y.s 			page 4


  70:../Libraries/STM32F4xx_StdPeriph_Driver/src/stm32f4xx_cryp_aes.c **** /** @defgroup CRYP_Group6 High Level AES functions
  71:../Libraries/STM32F4xx_StdPeriph_Driver/src/stm32f4xx_cryp_aes.c ****  *  @brief   High Level AES functions 
  72:../Libraries/STM32F4xx_StdPeriph_Driver/src/stm32f4xx_cryp_aes.c ****  *
  73:../Libraries/STM32F4xx_StdPeriph_Driver/src/stm32f4xx_cryp_aes.c **** @verbatim   
  74:../Libraries/STM32F4xx_StdPeriph_Driver/src/stm32f4xx_cryp_aes.c ****  ===============================================================================
  75:../Libraries/STM32F4xx_StdPeriph_Driver/src/stm32f4xx_cryp_aes.c ****                           High Level AES functions
  76:../Libraries/STM32F4xx_StdPeriph_Driver/src/stm32f4xx_cryp_aes.c ****  ===============================================================================
  77:../Libraries/STM32F4xx_StdPeriph_Driver/src/stm32f4xx_cryp_aes.c **** 
  78:../Libraries/STM32F4xx_StdPeriph_Driver/src/stm32f4xx_cryp_aes.c **** 
  79:../Libraries/STM32F4xx_StdPeriph_Driver/src/stm32f4xx_cryp_aes.c **** @endverbatim
  80:../Libraries/STM32F4xx_StdPeriph_Driver/src/stm32f4xx_cryp_aes.c ****   * @{
  81:../Libraries/STM32F4xx_StdPeriph_Driver/src/stm32f4xx_cryp_aes.c ****   */
  82:../Libraries/STM32F4xx_StdPeriph_Driver/src/stm32f4xx_cryp_aes.c **** 
  83:../Libraries/STM32F4xx_StdPeriph_Driver/src/stm32f4xx_cryp_aes.c **** /**
  84:../Libraries/STM32F4xx_StdPeriph_Driver/src/stm32f4xx_cryp_aes.c ****   * @brief  Encrypt and decrypt using AES in ECB Mode
  85:../Libraries/STM32F4xx_StdPeriph_Driver/src/stm32f4xx_cryp_aes.c ****   * @param  Mode: encryption or decryption Mode.
  86:../Libraries/STM32F4xx_StdPeriph_Driver/src/stm32f4xx_cryp_aes.c ****   *          This parameter can be one of the following values:
  87:../Libraries/STM32F4xx_StdPeriph_Driver/src/stm32f4xx_cryp_aes.c ****   *            @arg MODE_ENCRYPT: Encryption
  88:../Libraries/STM32F4xx_StdPeriph_Driver/src/stm32f4xx_cryp_aes.c ****   *            @arg MODE_DECRYPT: Decryption
  89:../Libraries/STM32F4xx_StdPeriph_Driver/src/stm32f4xx_cryp_aes.c ****   * @param  Key: Key used for AES algorithm.
  90:../Libraries/STM32F4xx_StdPeriph_Driver/src/stm32f4xx_cryp_aes.c ****   * @param  Keysize: length of the Key, must be a 128, 192 or 256.
  91:../Libraries/STM32F4xx_StdPeriph_Driver/src/stm32f4xx_cryp_aes.c ****   * @param  Input: pointer to the Input buffer.
  92:../Libraries/STM32F4xx_StdPeriph_Driver/src/stm32f4xx_cryp_aes.c ****   * @param  Ilength: length of the Input buffer, must be a multiple of 16.
  93:../Libraries/STM32F4xx_StdPeriph_Driver/src/stm32f4xx_cryp_aes.c ****   * @param  Output: pointer to the returned buffer.
  94:../Libraries/STM32F4xx_StdPeriph_Driver/src/stm32f4xx_cryp_aes.c ****   * @retval An ErrorStatus enumeration value:
  95:../Libraries/STM32F4xx_StdPeriph_Driver/src/stm32f4xx_cryp_aes.c ****   *          - SUCCESS: Operation done
  96:../Libraries/STM32F4xx_StdPeriph_Driver/src/stm32f4xx_cryp_aes.c ****   *          - ERROR: Operation failed
  97:../Libraries/STM32F4xx_StdPeriph_Driver/src/stm32f4xx_cryp_aes.c ****   */
  98:../Libraries/STM32F4xx_StdPeriph_Driver/src/stm32f4xx_cryp_aes.c **** ErrorStatus CRYP_AES_ECB(uint8_t Mode, uint8_t* Key, uint16_t Keysize,
  99:../Libraries/STM32F4xx_StdPeriph_Driver/src/stm32f4xx_cryp_aes.c ****                          uint8_t* Input, uint32_t Ilength, uint8_t* Output)
 100:../Libraries/STM32F4xx_StdPeriph_Driver/src/stm32f4xx_cryp_aes.c **** {
 103              		.loc 1 100 1 view -0
 104              		.cfi_startproc
 105              		@ args = 8, pretend = 0, frame = 48
 106              		@ frame_needed = 0, uses_anonymous_args = 0
 107              		.loc 1 100 1 is_stmt 0 view .LVU1
 108 0000 2DE9F043 		push	{r4, r5, r6, r7, r8, r9, lr}	@
 109              		.cfi_def_cfa_offset 28
 110              		.cfi_offset 4, -28
 111              		.cfi_offset 5, -24
 112              		.cfi_offset 6, -20
 113              		.cfi_offset 7, -16
 114              		.cfi_offset 8, -12
 115              		.cfi_offset 9, -8
 116              		.cfi_offset 14, -4
 117 0004 8DB0     		sub	sp, sp, #52	@,,
 118              		.cfi_def_cfa_offset 80
 119              	@ ../Libraries/STM32F4xx_StdPeriph_Driver/src/stm32f4xx_cryp_aes.c:100: {
 120              		.loc 1 100 1 view .LVU2
 121 0006 1546     		mov	r5, r2	@ Keysize, tmp290
 122 0008 0646     		mov	r6, r0	@ Mode, tmp288
 123              	@ ../Libraries/STM32F4xx_StdPeriph_Driver/src/stm32f4xx_cryp_aes.c:103:   __IO uint32_t counter = 0
 101:../Libraries/STM32F4xx_StdPeriph_Driver/src/stm32f4xx_cryp_aes.c ****   CRYP_InitTypeDef AES_CRYP_InitStructure;
 102:../Libraries/STM32F4xx_StdPeriph_Driver/src/stm32f4xx_cryp_aes.c ****   CRYP_KeyInitTypeDef AES_CRYP_KeyInitStructure;
 103:../Libraries/STM32F4xx_StdPeriph_Driver/src/stm32f4xx_cryp_aes.c ****   __IO uint32_t counter = 0;
 124              		.loc 1 103 17 view .LVU3
 125 000a 4FF00009 		mov	r9, #0	@ tmp213,
ARM GAS  C:\Users\admin\AppData\Local\Temp\ccAAMi0y.s 			page 5


 126              	@ ../Libraries/STM32F4xx_StdPeriph_Driver/src/stm32f4xx_cryp_aes.c:112:   CRYP_KeyStructInit(&AES_C
 104:../Libraries/STM32F4xx_StdPeriph_Driver/src/stm32f4xx_cryp_aes.c ****   uint32_t busystatus = 0;
 105:../Libraries/STM32F4xx_StdPeriph_Driver/src/stm32f4xx_cryp_aes.c ****   ErrorStatus status = SUCCESS;
 106:../Libraries/STM32F4xx_StdPeriph_Driver/src/stm32f4xx_cryp_aes.c ****   uint32_t keyaddr    = (uint32_t)Key;
 107:../Libraries/STM32F4xx_StdPeriph_Driver/src/stm32f4xx_cryp_aes.c ****   uint32_t inputaddr  = (uint32_t)Input;
 108:../Libraries/STM32F4xx_StdPeriph_Driver/src/stm32f4xx_cryp_aes.c ****   uint32_t outputaddr = (uint32_t)Output;
 109:../Libraries/STM32F4xx_StdPeriph_Driver/src/stm32f4xx_cryp_aes.c ****   uint32_t i = 0;
 110:../Libraries/STM32F4xx_StdPeriph_Driver/src/stm32f4xx_cryp_aes.c **** 
 111:../Libraries/STM32F4xx_StdPeriph_Driver/src/stm32f4xx_cryp_aes.c ****   /* Crypto structures initialisation*/
 112:../Libraries/STM32F4xx_StdPeriph_Driver/src/stm32f4xx_cryp_aes.c ****   CRYP_KeyStructInit(&AES_CRYP_KeyInitStructure);
 127              		.loc 1 112 3 view .LVU4
 128 000e 04A8     		add	r0, sp, #16	@ tmp299,,
 129              	.LVL1:
 130              	@ ../Libraries/STM32F4xx_StdPeriph_Driver/src/stm32f4xx_cryp_aes.c:100: {
 100:../Libraries/STM32F4xx_StdPeriph_Driver/src/stm32f4xx_cryp_aes.c ****   CRYP_InitTypeDef AES_CRYP_InitStructure;
 131              		.loc 1 100 1 view .LVU5
 132 0010 DDF85080 		ldr	r8, [sp, #80]	@ Ilength, Ilength
 101:../Libraries/STM32F4xx_StdPeriph_Driver/src/stm32f4xx_cryp_aes.c ****   CRYP_InitTypeDef AES_CRYP_InitStructure;
 133              		.loc 1 101 3 is_stmt 1 view .LVU6
 102:../Libraries/STM32F4xx_StdPeriph_Driver/src/stm32f4xx_cryp_aes.c ****   __IO uint32_t counter = 0;
 134              		.loc 1 102 3 view .LVU7
 103:../Libraries/STM32F4xx_StdPeriph_Driver/src/stm32f4xx_cryp_aes.c ****   uint32_t busystatus = 0;
 135              		.loc 1 103 3 view .LVU8
 136              	@ ../Libraries/STM32F4xx_StdPeriph_Driver/src/stm32f4xx_cryp_aes.c:103:   __IO uint32_t counter = 0
 103:../Libraries/STM32F4xx_StdPeriph_Driver/src/stm32f4xx_cryp_aes.c ****   uint32_t busystatus = 0;
 137              		.loc 1 103 17 is_stmt 0 view .LVU9
 138 0014 CDF80490 		str	r9, [sp, #4]	@ tmp213, counter
 104:../Libraries/STM32F4xx_StdPeriph_Driver/src/stm32f4xx_cryp_aes.c ****   ErrorStatus status = SUCCESS;
 139              		.loc 1 104 3 is_stmt 1 view .LVU10
 140              	.LVL2:
 105:../Libraries/STM32F4xx_StdPeriph_Driver/src/stm32f4xx_cryp_aes.c ****   uint32_t keyaddr    = (uint32_t)Key;
 141              		.loc 1 105 3 view .LVU11
 106:../Libraries/STM32F4xx_StdPeriph_Driver/src/stm32f4xx_cryp_aes.c ****   uint32_t inputaddr  = (uint32_t)Input;
 142              		.loc 1 106 3 view .LVU12
 143              	@ ../Libraries/STM32F4xx_StdPeriph_Driver/src/stm32f4xx_cryp_aes.c:100: {
 100:../Libraries/STM32F4xx_StdPeriph_Driver/src/stm32f4xx_cryp_aes.c ****   CRYP_InitTypeDef AES_CRYP_InitStructure;
 144              		.loc 1 100 1 is_stmt 0 view .LVU13
 145 0018 0C46     		mov	r4, r1	@ Key, tmp289
 146              	.LVL3:
 107:../Libraries/STM32F4xx_StdPeriph_Driver/src/stm32f4xx_cryp_aes.c ****   uint32_t outputaddr = (uint32_t)Output;
 147              		.loc 1 107 3 is_stmt 1 view .LVU14
 108:../Libraries/STM32F4xx_StdPeriph_Driver/src/stm32f4xx_cryp_aes.c ****   uint32_t i = 0;
 148              		.loc 1 108 3 view .LVU15
 109:../Libraries/STM32F4xx_StdPeriph_Driver/src/stm32f4xx_cryp_aes.c **** 
 149              		.loc 1 109 3 view .LVU16
 150              		.loc 1 112 3 view .LVU17
 151              	@ ../Libraries/STM32F4xx_StdPeriph_Driver/src/stm32f4xx_cryp_aes.c:100: {
 100:../Libraries/STM32F4xx_StdPeriph_Driver/src/stm32f4xx_cryp_aes.c ****   CRYP_InitTypeDef AES_CRYP_InitStructure;
 152              		.loc 1 100 1 is_stmt 0 view .LVU18
 153 001a 1F46     		mov	r7, r3	@ Input, tmp291
 154              	@ ../Libraries/STM32F4xx_StdPeriph_Driver/src/stm32f4xx_cryp_aes.c:112:   CRYP_KeyStructInit(&AES_C
 155              		.loc 1 112 3 view .LVU19
 156 001c FFF7FEFF 		bl	CRYP_KeyStructInit		@
 157              	.LVL4:
 113:../Libraries/STM32F4xx_StdPeriph_Driver/src/stm32f4xx_cryp_aes.c **** 
 114:../Libraries/STM32F4xx_StdPeriph_Driver/src/stm32f4xx_cryp_aes.c ****   switch(Keysize)
 158              		.loc 1 114 3 is_stmt 1 view .LVU20
ARM GAS  C:\Users\admin\AppData\Local\Temp\ccAAMi0y.s 			page 6


 159 0020 C02D     		cmp	r5, #192	@ Keysize,
 160 0022 00F0A180 		beq	.L2		@,
 161 0026 B5F5807F 		cmp	r5, #256	@ Keysize,
 162 002a 00F0B480 		beq	.L3		@,
 163 002e 802D     		cmp	r5, #128	@ Keysize,
 164 0030 00F08B80 		beq	.L25		@,
 165              	.LVL5:
 166              	.L4:
 115:../Libraries/STM32F4xx_StdPeriph_Driver/src/stm32f4xx_cryp_aes.c ****   {
 116:../Libraries/STM32F4xx_StdPeriph_Driver/src/stm32f4xx_cryp_aes.c ****     case 128:
 117:../Libraries/STM32F4xx_StdPeriph_Driver/src/stm32f4xx_cryp_aes.c ****     AES_CRYP_InitStructure.CRYP_KeySize = CRYP_KeySize_128b;
 118:../Libraries/STM32F4xx_StdPeriph_Driver/src/stm32f4xx_cryp_aes.c ****     AES_CRYP_KeyInitStructure.CRYP_Key2Left = __REV(*(uint32_t*)(keyaddr));
 119:../Libraries/STM32F4xx_StdPeriph_Driver/src/stm32f4xx_cryp_aes.c ****     keyaddr+=4;
 120:../Libraries/STM32F4xx_StdPeriph_Driver/src/stm32f4xx_cryp_aes.c ****     AES_CRYP_KeyInitStructure.CRYP_Key2Right= __REV(*(uint32_t*)(keyaddr));
 121:../Libraries/STM32F4xx_StdPeriph_Driver/src/stm32f4xx_cryp_aes.c ****     keyaddr+=4;
 122:../Libraries/STM32F4xx_StdPeriph_Driver/src/stm32f4xx_cryp_aes.c ****     AES_CRYP_KeyInitStructure.CRYP_Key3Left = __REV(*(uint32_t*)(keyaddr));
 123:../Libraries/STM32F4xx_StdPeriph_Driver/src/stm32f4xx_cryp_aes.c ****     keyaddr+=4;
 124:../Libraries/STM32F4xx_StdPeriph_Driver/src/stm32f4xx_cryp_aes.c ****     AES_CRYP_KeyInitStructure.CRYP_Key3Right= __REV(*(uint32_t*)(keyaddr));
 125:../Libraries/STM32F4xx_StdPeriph_Driver/src/stm32f4xx_cryp_aes.c ****     break;
 126:../Libraries/STM32F4xx_StdPeriph_Driver/src/stm32f4xx_cryp_aes.c ****     case 192:
 127:../Libraries/STM32F4xx_StdPeriph_Driver/src/stm32f4xx_cryp_aes.c ****     AES_CRYP_InitStructure.CRYP_KeySize  = CRYP_KeySize_192b;
 128:../Libraries/STM32F4xx_StdPeriph_Driver/src/stm32f4xx_cryp_aes.c ****     AES_CRYP_KeyInitStructure.CRYP_Key1Left = __REV(*(uint32_t*)(keyaddr));
 129:../Libraries/STM32F4xx_StdPeriph_Driver/src/stm32f4xx_cryp_aes.c ****     keyaddr+=4;
 130:../Libraries/STM32F4xx_StdPeriph_Driver/src/stm32f4xx_cryp_aes.c ****     AES_CRYP_KeyInitStructure.CRYP_Key1Right= __REV(*(uint32_t*)(keyaddr));
 131:../Libraries/STM32F4xx_StdPeriph_Driver/src/stm32f4xx_cryp_aes.c ****     keyaddr+=4;
 132:../Libraries/STM32F4xx_StdPeriph_Driver/src/stm32f4xx_cryp_aes.c ****     AES_CRYP_KeyInitStructure.CRYP_Key2Left = __REV(*(uint32_t*)(keyaddr));
 133:../Libraries/STM32F4xx_StdPeriph_Driver/src/stm32f4xx_cryp_aes.c ****     keyaddr+=4;
 134:../Libraries/STM32F4xx_StdPeriph_Driver/src/stm32f4xx_cryp_aes.c ****     AES_CRYP_KeyInitStructure.CRYP_Key2Right= __REV(*(uint32_t*)(keyaddr));
 135:../Libraries/STM32F4xx_StdPeriph_Driver/src/stm32f4xx_cryp_aes.c ****     keyaddr+=4;
 136:../Libraries/STM32F4xx_StdPeriph_Driver/src/stm32f4xx_cryp_aes.c ****     AES_CRYP_KeyInitStructure.CRYP_Key3Left = __REV(*(uint32_t*)(keyaddr));
 137:../Libraries/STM32F4xx_StdPeriph_Driver/src/stm32f4xx_cryp_aes.c ****     keyaddr+=4;
 138:../Libraries/STM32F4xx_StdPeriph_Driver/src/stm32f4xx_cryp_aes.c ****     AES_CRYP_KeyInitStructure.CRYP_Key3Right= __REV(*(uint32_t*)(keyaddr));
 139:../Libraries/STM32F4xx_StdPeriph_Driver/src/stm32f4xx_cryp_aes.c ****     break;
 140:../Libraries/STM32F4xx_StdPeriph_Driver/src/stm32f4xx_cryp_aes.c ****     case 256:
 141:../Libraries/STM32F4xx_StdPeriph_Driver/src/stm32f4xx_cryp_aes.c ****     AES_CRYP_InitStructure.CRYP_KeySize  = CRYP_KeySize_256b;
 142:../Libraries/STM32F4xx_StdPeriph_Driver/src/stm32f4xx_cryp_aes.c ****     AES_CRYP_KeyInitStructure.CRYP_Key0Left = __REV(*(uint32_t*)(keyaddr));
 143:../Libraries/STM32F4xx_StdPeriph_Driver/src/stm32f4xx_cryp_aes.c ****     keyaddr+=4;
 144:../Libraries/STM32F4xx_StdPeriph_Driver/src/stm32f4xx_cryp_aes.c ****     AES_CRYP_KeyInitStructure.CRYP_Key0Right= __REV(*(uint32_t*)(keyaddr));
 145:../Libraries/STM32F4xx_StdPeriph_Driver/src/stm32f4xx_cryp_aes.c ****     keyaddr+=4;
 146:../Libraries/STM32F4xx_StdPeriph_Driver/src/stm32f4xx_cryp_aes.c ****     AES_CRYP_KeyInitStructure.CRYP_Key1Left = __REV(*(uint32_t*)(keyaddr));
 147:../Libraries/STM32F4xx_StdPeriph_Driver/src/stm32f4xx_cryp_aes.c ****     keyaddr+=4;
 148:../Libraries/STM32F4xx_StdPeriph_Driver/src/stm32f4xx_cryp_aes.c ****     AES_CRYP_KeyInitStructure.CRYP_Key1Right= __REV(*(uint32_t*)(keyaddr));
 149:../Libraries/STM32F4xx_StdPeriph_Driver/src/stm32f4xx_cryp_aes.c ****     keyaddr+=4;
 150:../Libraries/STM32F4xx_StdPeriph_Driver/src/stm32f4xx_cryp_aes.c ****     AES_CRYP_KeyInitStructure.CRYP_Key2Left = __REV(*(uint32_t*)(keyaddr));
 151:../Libraries/STM32F4xx_StdPeriph_Driver/src/stm32f4xx_cryp_aes.c ****     keyaddr+=4;
 152:../Libraries/STM32F4xx_StdPeriph_Driver/src/stm32f4xx_cryp_aes.c ****     AES_CRYP_KeyInitStructure.CRYP_Key2Right= __REV(*(uint32_t*)(keyaddr));
 153:../Libraries/STM32F4xx_StdPeriph_Driver/src/stm32f4xx_cryp_aes.c ****     keyaddr+=4;
 154:../Libraries/STM32F4xx_StdPeriph_Driver/src/stm32f4xx_cryp_aes.c ****     AES_CRYP_KeyInitStructure.CRYP_Key3Left = __REV(*(uint32_t*)(keyaddr));
 155:../Libraries/STM32F4xx_StdPeriph_Driver/src/stm32f4xx_cryp_aes.c ****     keyaddr+=4;
 156:../Libraries/STM32F4xx_StdPeriph_Driver/src/stm32f4xx_cryp_aes.c ****     AES_CRYP_KeyInitStructure.CRYP_Key3Right= __REV(*(uint32_t*)(keyaddr));
 157:../Libraries/STM32F4xx_StdPeriph_Driver/src/stm32f4xx_cryp_aes.c ****     break;
 158:../Libraries/STM32F4xx_StdPeriph_Driver/src/stm32f4xx_cryp_aes.c ****     default:
 159:../Libraries/STM32F4xx_StdPeriph_Driver/src/stm32f4xx_cryp_aes.c ****     break;
 160:../Libraries/STM32F4xx_StdPeriph_Driver/src/stm32f4xx_cryp_aes.c ****   }
 161:../Libraries/STM32F4xx_StdPeriph_Driver/src/stm32f4xx_cryp_aes.c **** 
 162:../Libraries/STM32F4xx_StdPeriph_Driver/src/stm32f4xx_cryp_aes.c ****   /*------------------ AES Decryption ------------------*/
 163:../Libraries/STM32F4xx_StdPeriph_Driver/src/stm32f4xx_cryp_aes.c ****   if(Mode == MODE_DECRYPT) /* AES decryption */
ARM GAS  C:\Users\admin\AppData\Local\Temp\ccAAMi0y.s 			page 7


 167              		.loc 1 163 3 view .LVU21
 168              	@ ../Libraries/STM32F4xx_StdPeriph_Driver/src/stm32f4xx_cryp_aes.c:163:   if(Mode == MODE_DECRYPT) 
 169              		.loc 1 163 5 is_stmt 0 view .LVU22
 170 0034 6EBB     		cbnz	r6, .L5	@ Mode,
 164:../Libraries/STM32F4xx_StdPeriph_Driver/src/stm32f4xx_cryp_aes.c ****   {
 165:../Libraries/STM32F4xx_StdPeriph_Driver/src/stm32f4xx_cryp_aes.c ****     /* Flush IN/OUT FIFOs */
 166:../Libraries/STM32F4xx_StdPeriph_Driver/src/stm32f4xx_cryp_aes.c ****     CRYP_FIFOFlush();
 171              		.loc 1 166 5 is_stmt 1 view .LVU23
 172              	@ ../Libraries/STM32F4xx_StdPeriph_Driver/src/stm32f4xx_cryp_aes.c:172:     CRYP_Init(&AES_CRYP_Ini
 167:../Libraries/STM32F4xx_StdPeriph_Driver/src/stm32f4xx_cryp_aes.c **** 
 168:../Libraries/STM32F4xx_StdPeriph_Driver/src/stm32f4xx_cryp_aes.c ****     /* Crypto Init for Key preparation for decryption process */
 169:../Libraries/STM32F4xx_StdPeriph_Driver/src/stm32f4xx_cryp_aes.c ****     AES_CRYP_InitStructure.CRYP_AlgoDir = CRYP_AlgoDir_Decrypt;
 170:../Libraries/STM32F4xx_StdPeriph_Driver/src/stm32f4xx_cryp_aes.c ****     AES_CRYP_InitStructure.CRYP_AlgoMode = CRYP_AlgoMode_AES_Key;
 171:../Libraries/STM32F4xx_StdPeriph_Driver/src/stm32f4xx_cryp_aes.c ****     AES_CRYP_InitStructure.CRYP_DataType = CRYP_DataType_32b;
 172:../Libraries/STM32F4xx_StdPeriph_Driver/src/stm32f4xx_cryp_aes.c ****     CRYP_Init(&AES_CRYP_InitStructure);
 173              		.loc 1 172 5 is_stmt 0 view .LVU24
 174 0036 02AC     		add	r4, sp, #8	@ tmp282,,
 175              	.LVL6:
 176              	@ ../Libraries/STM32F4xx_StdPeriph_Driver/src/stm32f4xx_cryp_aes.c:166:     CRYP_FIFOFlush();
 166:../Libraries/STM32F4xx_StdPeriph_Driver/src/stm32f4xx_cryp_aes.c **** 
 177              		.loc 1 166 5 view .LVU25
 178 0038 FFF7FEFF 		bl	CRYP_FIFOFlush		@
 179              	.LVL7:
 169:../Libraries/STM32F4xx_StdPeriph_Driver/src/stm32f4xx_cryp_aes.c ****     AES_CRYP_InitStructure.CRYP_AlgoMode = CRYP_AlgoMode_AES_Key;
 180              		.loc 1 169 5 is_stmt 1 view .LVU26
 170:../Libraries/STM32F4xx_StdPeriph_Driver/src/stm32f4xx_cryp_aes.c ****     AES_CRYP_InitStructure.CRYP_DataType = CRYP_DataType_32b;
 181              		.loc 1 170 5 view .LVU27
 182              	@ ../Libraries/STM32F4xx_StdPeriph_Driver/src/stm32f4xx_cryp_aes.c:169:     AES_CRYP_InitStructure.
 169:../Libraries/STM32F4xx_StdPeriph_Driver/src/stm32f4xx_cryp_aes.c ****     AES_CRYP_InitStructure.CRYP_AlgoMode = CRYP_AlgoMode_AES_Key;
 183              		.loc 1 169 41 is_stmt 0 view .LVU28
 184 003c 664B     		ldr	r3, .L28	@ tmp257,
 185 003e 0293     		str	r3, [sp, #8]	@ tmp257, MEM <vector(2) short unsigned int> [(short unsigned int *)&AES_CRYP_Ini
 171:../Libraries/STM32F4xx_StdPeriph_Driver/src/stm32f4xx_cryp_aes.c ****     CRYP_Init(&AES_CRYP_InitStructure);
 186              		.loc 1 171 5 is_stmt 1 view .LVU29
 187              	@ ../Libraries/STM32F4xx_StdPeriph_Driver/src/stm32f4xx_cryp_aes.c:172:     CRYP_Init(&AES_CRYP_Ini
 188              		.loc 1 172 5 is_stmt 0 view .LVU30
 189 0040 2046     		mov	r0, r4	@, tmp282
 190              	@ ../Libraries/STM32F4xx_StdPeriph_Driver/src/stm32f4xx_cryp_aes.c:171:     AES_CRYP_InitStructure.
 171:../Libraries/STM32F4xx_StdPeriph_Driver/src/stm32f4xx_cryp_aes.c ****     CRYP_Init(&AES_CRYP_InitStructure);
 191              		.loc 1 171 42 view .LVU31
 192 0042 ADF80C60 		strh	r6, [sp, #12]	@ movhi	@ Mode, AES_CRYP_InitStructure.CRYP_DataType
 193              		.loc 1 172 5 is_stmt 1 view .LVU32
 194 0046 FFF7FEFF 		bl	CRYP_Init		@
 195              	.LVL8:
 173:../Libraries/STM32F4xx_StdPeriph_Driver/src/stm32f4xx_cryp_aes.c **** 
 174:../Libraries/STM32F4xx_StdPeriph_Driver/src/stm32f4xx_cryp_aes.c ****     /* Key Initialisation */
 175:../Libraries/STM32F4xx_StdPeriph_Driver/src/stm32f4xx_cryp_aes.c ****     CRYP_KeyInit(&AES_CRYP_KeyInitStructure);
 196              		.loc 1 175 5 view .LVU33
 197 004a 04A8     		add	r0, sp, #16	@ tmp300,,
 198 004c FFF7FEFF 		bl	CRYP_KeyInit		@
 199              	.LVL9:
 176:../Libraries/STM32F4xx_StdPeriph_Driver/src/stm32f4xx_cryp_aes.c **** 
 177:../Libraries/STM32F4xx_StdPeriph_Driver/src/stm32f4xx_cryp_aes.c ****     /* Enable Crypto processor */
 178:../Libraries/STM32F4xx_StdPeriph_Driver/src/stm32f4xx_cryp_aes.c ****     CRYP_Cmd(ENABLE);
 200              		.loc 1 178 5 view .LVU34
 201 0050 0120     		movs	r0, #1	@,
 202 0052 FFF7FEFF 		bl	CRYP_Cmd		@
ARM GAS  C:\Users\admin\AppData\Local\Temp\ccAAMi0y.s 			page 8


 203              	.LVL10:
 204 0056 02E0     		b	.L7		@
 205              	.LVL11:
 206              	.L26:
 207              	@ ../Libraries/STM32F4xx_StdPeriph_Driver/src/stm32f4xx_cryp_aes.c:185:     }while ((counter != AES
 179:../Libraries/STM32F4xx_StdPeriph_Driver/src/stm32f4xx_cryp_aes.c **** 
 180:../Libraries/STM32F4xx_StdPeriph_Driver/src/stm32f4xx_cryp_aes.c ****     /* wait until the Busy flag is RESET */
 181:../Libraries/STM32F4xx_StdPeriph_Driver/src/stm32f4xx_cryp_aes.c ****     do
 182:../Libraries/STM32F4xx_StdPeriph_Driver/src/stm32f4xx_cryp_aes.c ****     {
 183:../Libraries/STM32F4xx_StdPeriph_Driver/src/stm32f4xx_cryp_aes.c ****       busystatus = CRYP_GetFlagStatus(CRYP_FLAG_BUSY);
 184:../Libraries/STM32F4xx_StdPeriph_Driver/src/stm32f4xx_cryp_aes.c ****       counter++;
 185:../Libraries/STM32F4xx_StdPeriph_Driver/src/stm32f4xx_cryp_aes.c ****     }while ((counter != AESBUSY_TIMEOUT) && (busystatus != RESET));
 208              		.loc 1 185 42 is_stmt 0 discriminator 1 view .LVU35
 209 0058 0028     		cmp	r0, #0	@ tmp262
 210 005a 00F0B980 		beq	.L8	@
 211              	.LVL12:
 212              	.L7:
 181:../Libraries/STM32F4xx_StdPeriph_Driver/src/stm32f4xx_cryp_aes.c ****     {
 213              		.loc 1 181 5 is_stmt 1 discriminator 2 view .LVU36
 183:../Libraries/STM32F4xx_StdPeriph_Driver/src/stm32f4xx_cryp_aes.c ****       counter++;
 214              		.loc 1 183 7 discriminator 2 view .LVU37
 215              	@ ../Libraries/STM32F4xx_StdPeriph_Driver/src/stm32f4xx_cryp_aes.c:183:       busystatus = CRYP_Get
 183:../Libraries/STM32F4xx_StdPeriph_Driver/src/stm32f4xx_cryp_aes.c ****       counter++;
 216              		.loc 1 183 20 is_stmt 0 discriminator 2 view .LVU38
 217 005e 1020     		movs	r0, #16	@,
 218 0060 FFF7FEFF 		bl	CRYP_GetFlagStatus		@
 219              	.LVL13:
 220              	@ ../Libraries/STM32F4xx_StdPeriph_Driver/src/stm32f4xx_cryp_aes.c:184:       counter++;
 184:../Libraries/STM32F4xx_StdPeriph_Driver/src/stm32f4xx_cryp_aes.c ****     }while ((counter != AESBUSY_TIMEOUT) && (busystatus != RESET));
 221              		.loc 1 184 14 discriminator 2 view .LVU39
 222 0064 019A     		ldr	r2, [sp, #4]	@ counter.18_35, counter
 223              	.LVL14:
 184:../Libraries/STM32F4xx_StdPeriph_Driver/src/stm32f4xx_cryp_aes.c ****     }while ((counter != AESBUSY_TIMEOUT) && (busystatus != RESET));
 224              		.loc 1 184 7 is_stmt 1 discriminator 2 view .LVU40
 225              	@ ../Libraries/STM32F4xx_StdPeriph_Driver/src/stm32f4xx_cryp_aes.c:184:       counter++;
 184:../Libraries/STM32F4xx_StdPeriph_Driver/src/stm32f4xx_cryp_aes.c ****     }while ((counter != AESBUSY_TIMEOUT) && (busystatus != RESET));
 226              		.loc 1 184 14 is_stmt 0 discriminator 2 view .LVU41
 227 0066 0132     		adds	r2, r2, #1	@ _36, counter.18_35,
 228 0068 0192     		str	r2, [sp, #4]	@ _36, counter
 229              		.loc 1 185 12 is_stmt 1 discriminator 2 view .LVU42
 230              	@ ../Libraries/STM32F4xx_StdPeriph_Driver/src/stm32f4xx_cryp_aes.c:185:     }while ((counter != AES
 231              		.loc 1 185 22 is_stmt 0 discriminator 2 view .LVU43
 232 006a 019B     		ldr	r3, [sp, #4]	@ counter.19_37, counter
 233              	@ ../Libraries/STM32F4xx_StdPeriph_Driver/src/stm32f4xx_cryp_aes.c:185:     }while ((counter != AES
 234              		.loc 1 185 5 discriminator 2 view .LVU44
 235 006c B3F5803F 		cmp	r3, #65536	@ counter.19_37,
 236 0070 F2D1     		bne	.L26		@,
 186:../Libraries/STM32F4xx_StdPeriph_Driver/src/stm32f4xx_cryp_aes.c **** 
 187:../Libraries/STM32F4xx_StdPeriph_Driver/src/stm32f4xx_cryp_aes.c ****     if (busystatus != RESET)
 237              		.loc 1 187 5 is_stmt 1 view .LVU45
 238              	@ ../Libraries/STM32F4xx_StdPeriph_Driver/src/stm32f4xx_cryp_aes.c:187:     if (busystatus != RESET
 239              		.loc 1 187 8 is_stmt 0 view .LVU46
 240 0072 0028     		cmp	r0, #0	@ tmp262
 241 0074 00F0AC80 		beq	.L8	@
 242              	.LVL15:
 188:../Libraries/STM32F4xx_StdPeriph_Driver/src/stm32f4xx_cryp_aes.c ****    {
 189:../Libraries/STM32F4xx_StdPeriph_Driver/src/stm32f4xx_cryp_aes.c ****        status = ERROR;
ARM GAS  C:\Users\admin\AppData\Local\Temp\ccAAMi0y.s 			page 9


 190:../Libraries/STM32F4xx_StdPeriph_Driver/src/stm32f4xx_cryp_aes.c ****     }
 191:../Libraries/STM32F4xx_StdPeriph_Driver/src/stm32f4xx_cryp_aes.c ****     else
 192:../Libraries/STM32F4xx_StdPeriph_Driver/src/stm32f4xx_cryp_aes.c ****     {
 193:../Libraries/STM32F4xx_StdPeriph_Driver/src/stm32f4xx_cryp_aes.c ****       /* Crypto Init for decryption process */  
 194:../Libraries/STM32F4xx_StdPeriph_Driver/src/stm32f4xx_cryp_aes.c ****       AES_CRYP_InitStructure.CRYP_AlgoDir = CRYP_AlgoDir_Decrypt;
 195:../Libraries/STM32F4xx_StdPeriph_Driver/src/stm32f4xx_cryp_aes.c ****     }
 196:../Libraries/STM32F4xx_StdPeriph_Driver/src/stm32f4xx_cryp_aes.c ****   }
 197:../Libraries/STM32F4xx_StdPeriph_Driver/src/stm32f4xx_cryp_aes.c ****   /*------------------ AES Encryption ------------------*/
 198:../Libraries/STM32F4xx_StdPeriph_Driver/src/stm32f4xx_cryp_aes.c ****   else /* AES encryption */
 199:../Libraries/STM32F4xx_StdPeriph_Driver/src/stm32f4xx_cryp_aes.c ****   {
 200:../Libraries/STM32F4xx_StdPeriph_Driver/src/stm32f4xx_cryp_aes.c **** 
 201:../Libraries/STM32F4xx_StdPeriph_Driver/src/stm32f4xx_cryp_aes.c ****     CRYP_KeyInit(&AES_CRYP_KeyInitStructure);
 202:../Libraries/STM32F4xx_StdPeriph_Driver/src/stm32f4xx_cryp_aes.c **** 
 203:../Libraries/STM32F4xx_StdPeriph_Driver/src/stm32f4xx_cryp_aes.c ****     /* Crypto Init for Encryption process */
 204:../Libraries/STM32F4xx_StdPeriph_Driver/src/stm32f4xx_cryp_aes.c ****     AES_CRYP_InitStructure.CRYP_AlgoDir  = CRYP_AlgoDir_Encrypt;
 205:../Libraries/STM32F4xx_StdPeriph_Driver/src/stm32f4xx_cryp_aes.c ****   }
 206:../Libraries/STM32F4xx_StdPeriph_Driver/src/stm32f4xx_cryp_aes.c **** 
 207:../Libraries/STM32F4xx_StdPeriph_Driver/src/stm32f4xx_cryp_aes.c ****   AES_CRYP_InitStructure.CRYP_AlgoMode = CRYP_AlgoMode_AES_ECB;
 243              		.loc 1 207 3 is_stmt 1 view .LVU47
 208:../Libraries/STM32F4xx_StdPeriph_Driver/src/stm32f4xx_cryp_aes.c ****   AES_CRYP_InitStructure.CRYP_DataType = CRYP_DataType_8b;
 244              		.loc 1 208 3 view .LVU48
 245              	@ ../Libraries/STM32F4xx_StdPeriph_Driver/src/stm32f4xx_cryp_aes.c:207:   AES_CRYP_InitStructure.CR
 207:../Libraries/STM32F4xx_StdPeriph_Driver/src/stm32f4xx_cryp_aes.c ****   AES_CRYP_InitStructure.CRYP_DataType = CRYP_DataType_8b;
 246              		.loc 1 207 40 is_stmt 0 view .LVU49
 247 0078 584B     		ldr	r3, .L28+4	@ tmp268,
 248 007a CDF80A30 		str	r3, [sp, #10]	@ unaligned	@ tmp268, MEM <vector(2) short unsigned int> [(short unsigned int *)
 209:../Libraries/STM32F4xx_StdPeriph_Driver/src/stm32f4xx_cryp_aes.c ****   CRYP_Init(&AES_CRYP_InitStructure);
 249              		.loc 1 209 3 is_stmt 1 view .LVU50
 250 007e 2046     		mov	r0, r4	@, tmp282
 251              	.LVL16:
 252              		.loc 1 209 3 is_stmt 0 view .LVU51
 253 0080 FFF7FEFF 		bl	CRYP_Init		@
 254              	.LVL17:
 210:../Libraries/STM32F4xx_StdPeriph_Driver/src/stm32f4xx_cryp_aes.c **** 
 211:../Libraries/STM32F4xx_StdPeriph_Driver/src/stm32f4xx_cryp_aes.c ****   /* Flush IN/OUT FIFOs */
 212:../Libraries/STM32F4xx_StdPeriph_Driver/src/stm32f4xx_cryp_aes.c ****   CRYP_FIFOFlush();
 255              		.loc 1 212 3 is_stmt 1 view .LVU52
 256 0084 FFF7FEFF 		bl	CRYP_FIFOFlush		@
 257              	.LVL18:
 213:../Libraries/STM32F4xx_StdPeriph_Driver/src/stm32f4xx_cryp_aes.c **** 
 214:../Libraries/STM32F4xx_StdPeriph_Driver/src/stm32f4xx_cryp_aes.c ****   /* Enable Crypto processor */
 215:../Libraries/STM32F4xx_StdPeriph_Driver/src/stm32f4xx_cryp_aes.c ****   CRYP_Cmd(ENABLE);
 258              		.loc 1 215 3 view .LVU53
 259 0088 0120     		movs	r0, #1	@,
 260 008a FFF7FEFF 		bl	CRYP_Cmd		@
 261              	.LVL19:
 216:../Libraries/STM32F4xx_StdPeriph_Driver/src/stm32f4xx_cryp_aes.c **** 
 217:../Libraries/STM32F4xx_StdPeriph_Driver/src/stm32f4xx_cryp_aes.c ****   for(i=0; ((i<Ilength) && (status != ERROR)); i+=16)
 262              		.loc 1 217 3 view .LVU54
 263              		.loc 1 217 12 view .LVU55
 264              	@ ../Libraries/STM32F4xx_StdPeriph_Driver/src/stm32f4xx_cryp_aes.c:189:        status = ERROR;
 189:../Libraries/STM32F4xx_StdPeriph_Driver/src/stm32f4xx_cryp_aes.c ****     }
 265              		.loc 1 189 15 is_stmt 0 view .LVU56
 266 008e 0024     		movs	r4, #0	@ <retval>,
 267 0090 3CE0     		b	.L11		@
 268              	.LVL20:
 269              	.L5:
ARM GAS  C:\Users\admin\AppData\Local\Temp\ccAAMi0y.s 			page 10


 201:../Libraries/STM32F4xx_StdPeriph_Driver/src/stm32f4xx_cryp_aes.c **** 
 270              		.loc 1 201 5 is_stmt 1 view .LVU57
 271 0092 04A8     		add	r0, sp, #16	@ tmp301,,
 272 0094 FFF7FEFF 		bl	CRYP_KeyInit		@
 273              	.LVL21:
 204:../Libraries/STM32F4xx_StdPeriph_Driver/src/stm32f4xx_cryp_aes.c ****   }
 274              		.loc 1 204 5 view .LVU58
 275              	@ ../Libraries/STM32F4xx_StdPeriph_Driver/src/stm32f4xx_cryp_aes.c:204:     AES_CRYP_InitStructure.
 204:../Libraries/STM32F4xx_StdPeriph_Driver/src/stm32f4xx_cryp_aes.c ****   }
 276              		.loc 1 204 42 is_stmt 0 view .LVU59
 277 0098 0023     		movs	r3, #0	@ tmp267,
 278 009a ADF80830 		strh	r3, [sp, #8]	@ movhi	@ tmp267, AES_CRYP_InitStructure.CRYP_AlgoDir
 279 009e 02AC     		add	r4, sp, #8	@ tmp282,,
 280              	.LVL22:
 281              	.L10:
 207:../Libraries/STM32F4xx_StdPeriph_Driver/src/stm32f4xx_cryp_aes.c ****   AES_CRYP_InitStructure.CRYP_DataType = CRYP_DataType_8b;
 282              		.loc 1 207 3 is_stmt 1 view .LVU60
 208:../Libraries/STM32F4xx_StdPeriph_Driver/src/stm32f4xx_cryp_aes.c ****   CRYP_Init(&AES_CRYP_InitStructure);
 283              		.loc 1 208 3 view .LVU61
 284              	@ ../Libraries/STM32F4xx_StdPeriph_Driver/src/stm32f4xx_cryp_aes.c:207:   AES_CRYP_InitStructure.CR
 207:../Libraries/STM32F4xx_StdPeriph_Driver/src/stm32f4xx_cryp_aes.c ****   AES_CRYP_InitStructure.CRYP_DataType = CRYP_DataType_8b;
 285              		.loc 1 207 40 is_stmt 0 view .LVU62
 286 00a0 4E4B     		ldr	r3, .L28+4	@ tmp280,
 287 00a2 CDF80A30 		str	r3, [sp, #10]	@ unaligned	@ tmp280, MEM <vector(2) short unsigned int> [(short unsigned int *)
 209:../Libraries/STM32F4xx_StdPeriph_Driver/src/stm32f4xx_cryp_aes.c **** 
 288              		.loc 1 209 3 is_stmt 1 view .LVU63
 289 00a6 2046     		mov	r0, r4	@, tmp282
 290 00a8 FFF7FEFF 		bl	CRYP_Init		@
 291              	.LVL23:
 212:../Libraries/STM32F4xx_StdPeriph_Driver/src/stm32f4xx_cryp_aes.c **** 
 292              		.loc 1 212 3 view .LVU64
 293 00ac FFF7FEFF 		bl	CRYP_FIFOFlush		@
 294              	.LVL24:
 215:../Libraries/STM32F4xx_StdPeriph_Driver/src/stm32f4xx_cryp_aes.c **** 
 295              		.loc 1 215 3 view .LVU65
 296 00b0 0120     		movs	r0, #1	@,
 297 00b2 FFF7FEFF 		bl	CRYP_Cmd		@
 298              	.LVL25:
 299              		.loc 1 217 3 view .LVU66
 300              		.loc 1 217 12 view .LVU67
 301              	@ ../Libraries/STM32F4xx_StdPeriph_Driver/src/stm32f4xx_cryp_aes.c:217:   for(i=0; ((i<Ilength) && 
 302              		.loc 1 217 3 is_stmt 0 view .LVU68
 303 00b6 B8F1000F 		cmp	r8, #0	@ Ilength
 304 00ba 44D0     		beq	.L17	@
 305 00bc 159B     		ldr	r3, [sp, #84]	@ tmp302, Output
 306 00be 03F11005 		add	r5, r3, #16	@ ivtmp.112, tmp302,
 307 00c2 6FF00F03 		mvn	r3, #15	@ tmp285,
 308 00c6 07F11004 		add	r4, r7, #16	@ ivtmp.110, Input,
 309              	@ ../Libraries/STM32F4xx_StdPeriph_Driver/src/stm32f4xx_cryp_aes.c:231:     counter = 0;
 218:../Libraries/STM32F4xx_StdPeriph_Driver/src/stm32f4xx_cryp_aes.c ****   {
 219:../Libraries/STM32F4xx_StdPeriph_Driver/src/stm32f4xx_cryp_aes.c **** 
 220:../Libraries/STM32F4xx_StdPeriph_Driver/src/stm32f4xx_cryp_aes.c ****     /* Write the Input block in the IN FIFO */
 221:../Libraries/STM32F4xx_StdPeriph_Driver/src/stm32f4xx_cryp_aes.c ****     CRYP_DataIn(*(uint32_t*)(inputaddr));
 222:../Libraries/STM32F4xx_StdPeriph_Driver/src/stm32f4xx_cryp_aes.c ****     inputaddr+=4;
 223:../Libraries/STM32F4xx_StdPeriph_Driver/src/stm32f4xx_cryp_aes.c ****     CRYP_DataIn(*(uint32_t*)(inputaddr));
 224:../Libraries/STM32F4xx_StdPeriph_Driver/src/stm32f4xx_cryp_aes.c ****     inputaddr+=4;
 225:../Libraries/STM32F4xx_StdPeriph_Driver/src/stm32f4xx_cryp_aes.c ****     CRYP_DataIn(*(uint32_t*)(inputaddr));
ARM GAS  C:\Users\admin\AppData\Local\Temp\ccAAMi0y.s 			page 11


 226:../Libraries/STM32F4xx_StdPeriph_Driver/src/stm32f4xx_cryp_aes.c ****     inputaddr+=4;
 227:../Libraries/STM32F4xx_StdPeriph_Driver/src/stm32f4xx_cryp_aes.c ****     CRYP_DataIn(*(uint32_t*)(inputaddr));
 228:../Libraries/STM32F4xx_StdPeriph_Driver/src/stm32f4xx_cryp_aes.c ****     inputaddr+=4;
 229:../Libraries/STM32F4xx_StdPeriph_Driver/src/stm32f4xx_cryp_aes.c **** 
 230:../Libraries/STM32F4xx_StdPeriph_Driver/src/stm32f4xx_cryp_aes.c ****     /* Wait until the complete message has been processed */
 231:../Libraries/STM32F4xx_StdPeriph_Driver/src/stm32f4xx_cryp_aes.c ****     counter = 0;
 310              		.loc 1 231 13 view .LVU69
 311 00ca 0026     		movs	r6, #0	@ tmp274,
 312              	@ ../Libraries/STM32F4xx_StdPeriph_Driver/src/stm32f4xx_cryp_aes.c:217:   for(i=0; ((i<Ilength) && 
 217:../Libraries/STM32F4xx_StdPeriph_Driver/src/stm32f4xx_cryp_aes.c ****   {
 313              		.loc 1 217 3 view .LVU70
 314 00cc DF1B     		subs	r7, r3, r7	@ tmp286, tmp285, Input
 315              	.LVL26:
 316              	.L15:
 221:../Libraries/STM32F4xx_StdPeriph_Driver/src/stm32f4xx_cryp_aes.c ****     inputaddr+=4;
 317              		.loc 1 221 5 is_stmt 1 view .LVU71
 318 00ce 54F8100C 		ldr	r0, [r4, #-16]	@, MEM[base: _73, offset: 4294967280B]
 319 00d2 FFF7FEFF 		bl	CRYP_DataIn		@
 320              	.LVL27:
 222:../Libraries/STM32F4xx_StdPeriph_Driver/src/stm32f4xx_cryp_aes.c ****     CRYP_DataIn(*(uint32_t*)(inputaddr));
 321              		.loc 1 222 5 view .LVU72
 223:../Libraries/STM32F4xx_StdPeriph_Driver/src/stm32f4xx_cryp_aes.c ****     inputaddr+=4;
 322              		.loc 1 223 5 view .LVU73
 323 00d6 54F80C0C 		ldr	r0, [r4, #-12]	@, MEM[base: _73, offset: 4294967284B]
 324 00da FFF7FEFF 		bl	CRYP_DataIn		@
 325              	.LVL28:
 224:../Libraries/STM32F4xx_StdPeriph_Driver/src/stm32f4xx_cryp_aes.c ****     CRYP_DataIn(*(uint32_t*)(inputaddr));
 326              		.loc 1 224 5 view .LVU74
 225:../Libraries/STM32F4xx_StdPeriph_Driver/src/stm32f4xx_cryp_aes.c ****     inputaddr+=4;
 327              		.loc 1 225 5 view .LVU75
 328 00de 54F8080C 		ldr	r0, [r4, #-8]	@, MEM[base: _73, offset: 4294967288B]
 329 00e2 FFF7FEFF 		bl	CRYP_DataIn		@
 330              	.LVL29:
 226:../Libraries/STM32F4xx_StdPeriph_Driver/src/stm32f4xx_cryp_aes.c ****     CRYP_DataIn(*(uint32_t*)(inputaddr));
 331              		.loc 1 226 5 view .LVU76
 227:../Libraries/STM32F4xx_StdPeriph_Driver/src/stm32f4xx_cryp_aes.c ****     inputaddr+=4;
 332              		.loc 1 227 5 view .LVU77
 333 00e6 54F8040C 		ldr	r0, [r4, #-4]	@, MEM[base: _73, offset: 4294967292B]
 334 00ea FFF7FEFF 		bl	CRYP_DataIn		@
 335              	.LVL30:
 228:../Libraries/STM32F4xx_StdPeriph_Driver/src/stm32f4xx_cryp_aes.c **** 
 336              		.loc 1 228 5 view .LVU78
 337              		.loc 1 231 5 view .LVU79
 338              	@ ../Libraries/STM32F4xx_StdPeriph_Driver/src/stm32f4xx_cryp_aes.c:231:     counter = 0;
 339              		.loc 1 231 13 is_stmt 0 view .LVU80
 340 00ee 0196     		str	r6, [sp, #4]	@ tmp274, counter
 341 00f0 00E0     		b	.L13		@
 342              	.LVL31:
 343              	.L27:
 344              	@ ../Libraries/STM32F4xx_StdPeriph_Driver/src/stm32f4xx_cryp_aes.c:236:     }while ((counter != AES
 232:../Libraries/STM32F4xx_StdPeriph_Driver/src/stm32f4xx_cryp_aes.c ****     do
 233:../Libraries/STM32F4xx_StdPeriph_Driver/src/stm32f4xx_cryp_aes.c ****     {
 234:../Libraries/STM32F4xx_StdPeriph_Driver/src/stm32f4xx_cryp_aes.c ****       busystatus = CRYP_GetFlagStatus(CRYP_FLAG_BUSY);
 235:../Libraries/STM32F4xx_StdPeriph_Driver/src/stm32f4xx_cryp_aes.c ****       counter++;
 236:../Libraries/STM32F4xx_StdPeriph_Driver/src/stm32f4xx_cryp_aes.c ****     }while ((counter != AESBUSY_TIMEOUT) && (busystatus != RESET));
 345              		.loc 1 236 42 discriminator 1 view .LVU81
 346 00f2 90B1     		cbz	r0, .L14	@ tmp275,
ARM GAS  C:\Users\admin\AppData\Local\Temp\ccAAMi0y.s 			page 12


 347              	.LVL32:
 348              	.L13:
 232:../Libraries/STM32F4xx_StdPeriph_Driver/src/stm32f4xx_cryp_aes.c ****     do
 349              		.loc 1 232 5 is_stmt 1 discriminator 2 view .LVU82
 234:../Libraries/STM32F4xx_StdPeriph_Driver/src/stm32f4xx_cryp_aes.c ****       counter++;
 350              		.loc 1 234 7 discriminator 2 view .LVU83
 351              	@ ../Libraries/STM32F4xx_StdPeriph_Driver/src/stm32f4xx_cryp_aes.c:234:       busystatus = CRYP_Get
 234:../Libraries/STM32F4xx_StdPeriph_Driver/src/stm32f4xx_cryp_aes.c ****       counter++;
 352              		.loc 1 234 20 is_stmt 0 discriminator 2 view .LVU84
 353 00f4 1020     		movs	r0, #16	@,
 354 00f6 FFF7FEFF 		bl	CRYP_GetFlagStatus		@
 355              	.LVL33:
 356              	@ ../Libraries/STM32F4xx_StdPeriph_Driver/src/stm32f4xx_cryp_aes.c:235:       counter++;
 235:../Libraries/STM32F4xx_StdPeriph_Driver/src/stm32f4xx_cryp_aes.c ****     }while ((counter != AESBUSY_TIMEOUT) && (busystatus != RESET));
 357              		.loc 1 235 14 discriminator 2 view .LVU85
 358 00fa 019B     		ldr	r3, [sp, #4]	@ counter.24_47, counter
 359              	.LVL34:
 235:../Libraries/STM32F4xx_StdPeriph_Driver/src/stm32f4xx_cryp_aes.c ****     }while ((counter != AESBUSY_TIMEOUT) && (busystatus != RESET));
 360              		.loc 1 235 7 is_stmt 1 discriminator 2 view .LVU86
 361              	@ ../Libraries/STM32F4xx_StdPeriph_Driver/src/stm32f4xx_cryp_aes.c:235:       counter++;
 235:../Libraries/STM32F4xx_StdPeriph_Driver/src/stm32f4xx_cryp_aes.c ****     }while ((counter != AESBUSY_TIMEOUT) && (busystatus != RESET));
 362              		.loc 1 235 14 is_stmt 0 discriminator 2 view .LVU87
 363 00fc 0133     		adds	r3, r3, #1	@ _48, counter.24_47,
 364 00fe 0193     		str	r3, [sp, #4]	@ _48, counter
 365              		.loc 1 236 12 is_stmt 1 discriminator 2 view .LVU88
 366              	@ ../Libraries/STM32F4xx_StdPeriph_Driver/src/stm32f4xx_cryp_aes.c:236:     }while ((counter != AES
 367              		.loc 1 236 22 is_stmt 0 discriminator 2 view .LVU89
 368 0100 019B     		ldr	r3, [sp, #4]	@ counter.25_49, counter
 369              	@ ../Libraries/STM32F4xx_StdPeriph_Driver/src/stm32f4xx_cryp_aes.c:236:     }while ((counter != AES
 370              		.loc 1 236 5 discriminator 2 view .LVU90
 371 0102 B3F5803F 		cmp	r3, #65536	@ counter.25_49,
 372 0106 F4D1     		bne	.L27		@,
 237:../Libraries/STM32F4xx_StdPeriph_Driver/src/stm32f4xx_cryp_aes.c **** 
 238:../Libraries/STM32F4xx_StdPeriph_Driver/src/stm32f4xx_cryp_aes.c ****     if (busystatus != RESET)
 373              		.loc 1 238 5 is_stmt 1 view .LVU91
 374              	@ ../Libraries/STM32F4xx_StdPeriph_Driver/src/stm32f4xx_cryp_aes.c:238:     if (busystatus != RESET
 375              		.loc 1 238 8 is_stmt 0 view .LVU92
 376 0108 38B1     		cbz	r0, .L14	@ tmp275,
 377              	@ ../Libraries/STM32F4xx_StdPeriph_Driver/src/stm32f4xx_cryp_aes.c:240:        status = ERROR;
 239:../Libraries/STM32F4xx_StdPeriph_Driver/src/stm32f4xx_cryp_aes.c ****    {
 240:../Libraries/STM32F4xx_StdPeriph_Driver/src/stm32f4xx_cryp_aes.c ****        status = ERROR;
 378              		.loc 1 240 15 view .LVU93
 379 010a 0024     		movs	r4, #0	@ <retval>,
 380              	.LVL35:
 381              	.L11:
 241:../Libraries/STM32F4xx_StdPeriph_Driver/src/stm32f4xx_cryp_aes.c ****     }
 242:../Libraries/STM32F4xx_StdPeriph_Driver/src/stm32f4xx_cryp_aes.c ****     else
 243:../Libraries/STM32F4xx_StdPeriph_Driver/src/stm32f4xx_cryp_aes.c ****     {
 244:../Libraries/STM32F4xx_StdPeriph_Driver/src/stm32f4xx_cryp_aes.c **** 
 245:../Libraries/STM32F4xx_StdPeriph_Driver/src/stm32f4xx_cryp_aes.c ****       /* Read the Output block from the Output FIFO */
 246:../Libraries/STM32F4xx_StdPeriph_Driver/src/stm32f4xx_cryp_aes.c ****       *(uint32_t*)(outputaddr) = CRYP_DataOut();
 247:../Libraries/STM32F4xx_StdPeriph_Driver/src/stm32f4xx_cryp_aes.c ****       outputaddr+=4;
 248:../Libraries/STM32F4xx_StdPeriph_Driver/src/stm32f4xx_cryp_aes.c ****       *(uint32_t*)(outputaddr) = CRYP_DataOut();
 249:../Libraries/STM32F4xx_StdPeriph_Driver/src/stm32f4xx_cryp_aes.c ****       outputaddr+=4;
 250:../Libraries/STM32F4xx_StdPeriph_Driver/src/stm32f4xx_cryp_aes.c ****       *(uint32_t*)(outputaddr) = CRYP_DataOut();
 251:../Libraries/STM32F4xx_StdPeriph_Driver/src/stm32f4xx_cryp_aes.c ****       outputaddr+=4;
 252:../Libraries/STM32F4xx_StdPeriph_Driver/src/stm32f4xx_cryp_aes.c ****       *(uint32_t*)(outputaddr) = CRYP_DataOut(); 
ARM GAS  C:\Users\admin\AppData\Local\Temp\ccAAMi0y.s 			page 13


 253:../Libraries/STM32F4xx_StdPeriph_Driver/src/stm32f4xx_cryp_aes.c ****       outputaddr+=4;
 254:../Libraries/STM32F4xx_StdPeriph_Driver/src/stm32f4xx_cryp_aes.c ****     }
 255:../Libraries/STM32F4xx_StdPeriph_Driver/src/stm32f4xx_cryp_aes.c ****   }
 256:../Libraries/STM32F4xx_StdPeriph_Driver/src/stm32f4xx_cryp_aes.c **** 
 257:../Libraries/STM32F4xx_StdPeriph_Driver/src/stm32f4xx_cryp_aes.c ****   /* Disable Crypto */
 258:../Libraries/STM32F4xx_StdPeriph_Driver/src/stm32f4xx_cryp_aes.c ****   CRYP_Cmd(DISABLE);
 382              		.loc 1 258 3 is_stmt 1 view .LVU94
 383 010c 0020     		movs	r0, #0	@,
 384 010e FFF7FEFF 		bl	CRYP_Cmd		@
 385              	.LVL36:
 259:../Libraries/STM32F4xx_StdPeriph_Driver/src/stm32f4xx_cryp_aes.c **** 
 260:../Libraries/STM32F4xx_StdPeriph_Driver/src/stm32f4xx_cryp_aes.c ****   return status; 
 386              		.loc 1 260 3 view .LVU95
 387              	@ ../Libraries/STM32F4xx_StdPeriph_Driver/src/stm32f4xx_cryp_aes.c:261: }
 261:../Libraries/STM32F4xx_StdPeriph_Driver/src/stm32f4xx_cryp_aes.c **** }
 388              		.loc 1 261 1 is_stmt 0 view .LVU96
 389 0112 2046     		mov	r0, r4	@, <retval>
 390 0114 0DB0     		add	sp, sp, #52	@,,
 391              		.cfi_remember_state
 392              		.cfi_def_cfa_offset 28
 393              		@ sp needed	@
 394 0116 BDE8F083 		pop	{r4, r5, r6, r7, r8, r9, pc}	@
 395              	.LVL37:
 396              	.L14:
 397              		.cfi_restore_state
 246:../Libraries/STM32F4xx_StdPeriph_Driver/src/stm32f4xx_cryp_aes.c ****       outputaddr+=4;
 398              		.loc 1 246 7 is_stmt 1 view .LVU97
 399              	@ ../Libraries/STM32F4xx_StdPeriph_Driver/src/stm32f4xx_cryp_aes.c:246:       *(uint32_t*)(outputad
 246:../Libraries/STM32F4xx_StdPeriph_Driver/src/stm32f4xx_cryp_aes.c ****       outputaddr+=4;
 400              		.loc 1 246 34 is_stmt 0 view .LVU98
 401 011a FFF7FEFF 		bl	CRYP_DataOut		@
 402              	.LVL38:
 403              	@ ../Libraries/STM32F4xx_StdPeriph_Driver/src/stm32f4xx_cryp_aes.c:246:       *(uint32_t*)(outputad
 246:../Libraries/STM32F4xx_StdPeriph_Driver/src/stm32f4xx_cryp_aes.c ****       outputaddr+=4;
 404              		.loc 1 246 32 view .LVU99
 405 011e 45F8100C 		str	r0, [r5, #-16]	@ tmp294, MEM[base: _200, offset: 4294967280B]
 247:../Libraries/STM32F4xx_StdPeriph_Driver/src/stm32f4xx_cryp_aes.c ****       *(uint32_t*)(outputaddr) = CRYP_DataOut();
 406              		.loc 1 247 7 is_stmt 1 view .LVU100
 407              	.LVL39:
 248:../Libraries/STM32F4xx_StdPeriph_Driver/src/stm32f4xx_cryp_aes.c ****       outputaddr+=4;
 408              		.loc 1 248 7 view .LVU101
 409              	@ ../Libraries/STM32F4xx_StdPeriph_Driver/src/stm32f4xx_cryp_aes.c:248:       *(uint32_t*)(outputad
 248:../Libraries/STM32F4xx_StdPeriph_Driver/src/stm32f4xx_cryp_aes.c ****       outputaddr+=4;
 410              		.loc 1 248 34 is_stmt 0 view .LVU102
 411 0122 FFF7FEFF 		bl	CRYP_DataOut		@
 412              	.LVL40:
 413              	@ ../Libraries/STM32F4xx_StdPeriph_Driver/src/stm32f4xx_cryp_aes.c:248:       *(uint32_t*)(outputad
 248:../Libraries/STM32F4xx_StdPeriph_Driver/src/stm32f4xx_cryp_aes.c ****       outputaddr+=4;
 414              		.loc 1 248 32 view .LVU103
 415 0126 45F80C0C 		str	r0, [r5, #-12]	@ tmp295, MEM[base: _200, offset: 4294967284B]
 249:../Libraries/STM32F4xx_StdPeriph_Driver/src/stm32f4xx_cryp_aes.c ****       *(uint32_t*)(outputaddr) = CRYP_DataOut();
 416              		.loc 1 249 7 is_stmt 1 view .LVU104
 417              	.LVL41:
 250:../Libraries/STM32F4xx_StdPeriph_Driver/src/stm32f4xx_cryp_aes.c ****       outputaddr+=4;
 418              		.loc 1 250 7 view .LVU105
 419              	@ ../Libraries/STM32F4xx_StdPeriph_Driver/src/stm32f4xx_cryp_aes.c:250:       *(uint32_t*)(outputad
 250:../Libraries/STM32F4xx_StdPeriph_Driver/src/stm32f4xx_cryp_aes.c ****       outputaddr+=4;
ARM GAS  C:\Users\admin\AppData\Local\Temp\ccAAMi0y.s 			page 14


 420              		.loc 1 250 34 is_stmt 0 view .LVU106
 421 012a FFF7FEFF 		bl	CRYP_DataOut		@
 422              	.LVL42:
 423              	@ ../Libraries/STM32F4xx_StdPeriph_Driver/src/stm32f4xx_cryp_aes.c:250:       *(uint32_t*)(outputad
 250:../Libraries/STM32F4xx_StdPeriph_Driver/src/stm32f4xx_cryp_aes.c ****       outputaddr+=4;
 424              		.loc 1 250 32 view .LVU107
 425 012e 45F8080C 		str	r0, [r5, #-8]	@ tmp296, MEM[base: _200, offset: 4294967288B]
 251:../Libraries/STM32F4xx_StdPeriph_Driver/src/stm32f4xx_cryp_aes.c ****       *(uint32_t*)(outputaddr) = CRYP_DataOut(); 
 426              		.loc 1 251 7 is_stmt 1 view .LVU108
 427              	.LVL43:
 252:../Libraries/STM32F4xx_StdPeriph_Driver/src/stm32f4xx_cryp_aes.c ****       outputaddr+=4;
 428              		.loc 1 252 7 view .LVU109
 429              	@ ../Libraries/STM32F4xx_StdPeriph_Driver/src/stm32f4xx_cryp_aes.c:252:       *(uint32_t*)(outputad
 252:../Libraries/STM32F4xx_StdPeriph_Driver/src/stm32f4xx_cryp_aes.c ****       outputaddr+=4;
 430              		.loc 1 252 34 is_stmt 0 view .LVU110
 431 0132 FFF7FEFF 		bl	CRYP_DataOut		@
 432              	.LVL44:
 433              	@ ../Libraries/STM32F4xx_StdPeriph_Driver/src/stm32f4xx_cryp_aes.c:217:   for(i=0; ((i<Ilength) && 
 217:../Libraries/STM32F4xx_StdPeriph_Driver/src/stm32f4xx_cryp_aes.c ****   {
 434              		.loc 1 217 3 view .LVU111
 435 0136 1034     		adds	r4, r4, #16	@ ivtmp.110, ivtmp.110,
 436              	.LVL45:
 217:../Libraries/STM32F4xx_StdPeriph_Driver/src/stm32f4xx_cryp_aes.c ****   {
 437              		.loc 1 217 3 view .LVU112
 438 0138 3B19     		adds	r3, r7, r4	@ i, tmp286, ivtmp.110
 439 013a 9845     		cmp	r8, r3	@ Ilength, i
 440              	@ ../Libraries/STM32F4xx_StdPeriph_Driver/src/stm32f4xx_cryp_aes.c:252:       *(uint32_t*)(outputad
 252:../Libraries/STM32F4xx_StdPeriph_Driver/src/stm32f4xx_cryp_aes.c ****       outputaddr+=4;
 441              		.loc 1 252 32 view .LVU113
 442 013c 45F8040C 		str	r0, [r5, #-4]	@ tmp297, MEM[base: _200, offset: 4294967292B]
 253:../Libraries/STM32F4xx_StdPeriph_Driver/src/stm32f4xx_cryp_aes.c ****     }
 443              		.loc 1 253 7 is_stmt 1 view .LVU114
 444              	.LVL46:
 217:../Libraries/STM32F4xx_StdPeriph_Driver/src/stm32f4xx_cryp_aes.c ****   {
 445              		.loc 1 217 48 view .LVU115
 217:../Libraries/STM32F4xx_StdPeriph_Driver/src/stm32f4xx_cryp_aes.c ****   {
 446              		.loc 1 217 12 view .LVU116
 447              	@ ../Libraries/STM32F4xx_StdPeriph_Driver/src/stm32f4xx_cryp_aes.c:217:   for(i=0; ((i<Ilength) && 
 217:../Libraries/STM32F4xx_StdPeriph_Driver/src/stm32f4xx_cryp_aes.c ****   {
 448              		.loc 1 217 3 is_stmt 0 view .LVU117
 449 0140 05F11005 		add	r5, r5, #16	@ ivtmp.112, ivtmp.112,
 450 0144 C3D8     		bhi	.L15		@,
 451              	.LVL47:
 452              	.L17:
 453              	@ ../Libraries/STM32F4xx_StdPeriph_Driver/src/stm32f4xx_cryp_aes.c:100: {
 100:../Libraries/STM32F4xx_StdPeriph_Driver/src/stm32f4xx_cryp_aes.c ****   CRYP_InitTypeDef AES_CRYP_InitStructure;
 454              		.loc 1 100 1 view .LVU118
 455 0146 0124     		movs	r4, #1	@ <retval>,
 456 0148 E0E7     		b	.L11		@
 457              	.LVL48:
 458              	.L25:
 117:../Libraries/STM32F4xx_StdPeriph_Driver/src/stm32f4xx_cryp_aes.c ****     AES_CRYP_KeyInitStructure.CRYP_Key2Left = __REV(*(uint32_t*)(keyaddr));
 459              		.loc 1 117 5 is_stmt 1 view .LVU119
 460              	.LBB126:
 461              	.LBB127:
 462              	@ ../Libraries/CMSIS/Include/core_cmInstr.h:352:   __ASM volatile ("rev %0, %1" : "=r" (result) : "
 463              		.file 2 "../Libraries/CMSIS/Include/core_cmInstr.h"
ARM GAS  C:\Users\admin\AppData\Local\Temp\ccAAMi0y.s 			page 15


   1:../Libraries/CMSIS/Include/core_cmInstr.h **** /**************************************************************************//**
   2:../Libraries/CMSIS/Include/core_cmInstr.h ****  * @file     core_cmInstr.h
   3:../Libraries/CMSIS/Include/core_cmInstr.h ****  * @brief    CMSIS Cortex-M Core Instruction Access Header File
   4:../Libraries/CMSIS/Include/core_cmInstr.h ****  * @version  V2.10
   5:../Libraries/CMSIS/Include/core_cmInstr.h ****  * @date     19. July 2011
   6:../Libraries/CMSIS/Include/core_cmInstr.h ****  *
   7:../Libraries/CMSIS/Include/core_cmInstr.h ****  * @note
   8:../Libraries/CMSIS/Include/core_cmInstr.h ****  * Copyright (C) 2009-2011 ARM Limited. All rights reserved.
   9:../Libraries/CMSIS/Include/core_cmInstr.h ****  *
  10:../Libraries/CMSIS/Include/core_cmInstr.h ****  * @par
  11:../Libraries/CMSIS/Include/core_cmInstr.h ****  * ARM Limited (ARM) is supplying this software for use with Cortex-M 
  12:../Libraries/CMSIS/Include/core_cmInstr.h ****  * processor based microcontrollers.  This file can be freely distributed 
  13:../Libraries/CMSIS/Include/core_cmInstr.h ****  * within development tools that are supporting such ARM based processors. 
  14:../Libraries/CMSIS/Include/core_cmInstr.h ****  *
  15:../Libraries/CMSIS/Include/core_cmInstr.h ****  * @par
  16:../Libraries/CMSIS/Include/core_cmInstr.h ****  * THIS SOFTWARE IS PROVIDED "AS IS".  NO WARRANTIES, WHETHER EXPRESS, IMPLIED
  17:../Libraries/CMSIS/Include/core_cmInstr.h ****  * OR STATUTORY, INCLUDING, BUT NOT LIMITED TO, IMPLIED WARRANTIES OF
  18:../Libraries/CMSIS/Include/core_cmInstr.h ****  * MERCHANTABILITY AND FITNESS FOR A PARTICULAR PURPOSE APPLY TO THIS SOFTWARE.
  19:../Libraries/CMSIS/Include/core_cmInstr.h ****  * ARM SHALL NOT, IN ANY CIRCUMSTANCES, BE LIABLE FOR SPECIAL, INCIDENTAL, OR
  20:../Libraries/CMSIS/Include/core_cmInstr.h ****  * CONSEQUENTIAL DAMAGES, FOR ANY REASON WHATSOEVER.
  21:../Libraries/CMSIS/Include/core_cmInstr.h ****  *
  22:../Libraries/CMSIS/Include/core_cmInstr.h ****  ******************************************************************************/
  23:../Libraries/CMSIS/Include/core_cmInstr.h **** 
  24:../Libraries/CMSIS/Include/core_cmInstr.h **** #ifndef __CORE_CMINSTR_H
  25:../Libraries/CMSIS/Include/core_cmInstr.h **** #define __CORE_CMINSTR_H
  26:../Libraries/CMSIS/Include/core_cmInstr.h **** 
  27:../Libraries/CMSIS/Include/core_cmInstr.h **** 
  28:../Libraries/CMSIS/Include/core_cmInstr.h **** /* ##########################  Core Instruction Access  ######################### */
  29:../Libraries/CMSIS/Include/core_cmInstr.h **** /** \defgroup CMSIS_Core_InstructionInterface CMSIS Core Instruction Interface
  30:../Libraries/CMSIS/Include/core_cmInstr.h ****   Access to dedicated instructions
  31:../Libraries/CMSIS/Include/core_cmInstr.h ****   @{
  32:../Libraries/CMSIS/Include/core_cmInstr.h **** */
  33:../Libraries/CMSIS/Include/core_cmInstr.h **** 
  34:../Libraries/CMSIS/Include/core_cmInstr.h **** #if   defined ( __CC_ARM ) /*------------------RealView Compiler -----------------*/
  35:../Libraries/CMSIS/Include/core_cmInstr.h **** /* ARM armcc specific functions */
  36:../Libraries/CMSIS/Include/core_cmInstr.h **** 
  37:../Libraries/CMSIS/Include/core_cmInstr.h **** #if (__ARMCC_VERSION < 400677)
  38:../Libraries/CMSIS/Include/core_cmInstr.h ****   #error "Please use ARM Compiler Toolchain V4.0.677 or later!"
  39:../Libraries/CMSIS/Include/core_cmInstr.h **** #endif
  40:../Libraries/CMSIS/Include/core_cmInstr.h **** 
  41:../Libraries/CMSIS/Include/core_cmInstr.h **** 
  42:../Libraries/CMSIS/Include/core_cmInstr.h **** /** \brief  No Operation
  43:../Libraries/CMSIS/Include/core_cmInstr.h **** 
  44:../Libraries/CMSIS/Include/core_cmInstr.h ****     No Operation does nothing. This instruction can be used for code alignment purposes.
  45:../Libraries/CMSIS/Include/core_cmInstr.h ****  */
  46:../Libraries/CMSIS/Include/core_cmInstr.h **** #define __NOP                             __nop
  47:../Libraries/CMSIS/Include/core_cmInstr.h **** 
  48:../Libraries/CMSIS/Include/core_cmInstr.h **** 
  49:../Libraries/CMSIS/Include/core_cmInstr.h **** /** \brief  Wait For Interrupt
  50:../Libraries/CMSIS/Include/core_cmInstr.h **** 
  51:../Libraries/CMSIS/Include/core_cmInstr.h ****     Wait For Interrupt is a hint instruction that suspends execution
  52:../Libraries/CMSIS/Include/core_cmInstr.h ****     until one of a number of events occurs.
  53:../Libraries/CMSIS/Include/core_cmInstr.h ****  */
  54:../Libraries/CMSIS/Include/core_cmInstr.h **** #define __WFI                             __wfi
  55:../Libraries/CMSIS/Include/core_cmInstr.h **** 
  56:../Libraries/CMSIS/Include/core_cmInstr.h **** 
  57:../Libraries/CMSIS/Include/core_cmInstr.h **** /** \brief  Wait For Event
ARM GAS  C:\Users\admin\AppData\Local\Temp\ccAAMi0y.s 			page 16


  58:../Libraries/CMSIS/Include/core_cmInstr.h **** 
  59:../Libraries/CMSIS/Include/core_cmInstr.h ****     Wait For Event is a hint instruction that permits the processor to enter
  60:../Libraries/CMSIS/Include/core_cmInstr.h ****     a low-power state until one of a number of events occurs.
  61:../Libraries/CMSIS/Include/core_cmInstr.h ****  */
  62:../Libraries/CMSIS/Include/core_cmInstr.h **** #define __WFE                             __wfe
  63:../Libraries/CMSIS/Include/core_cmInstr.h **** 
  64:../Libraries/CMSIS/Include/core_cmInstr.h **** 
  65:../Libraries/CMSIS/Include/core_cmInstr.h **** /** \brief  Send Event
  66:../Libraries/CMSIS/Include/core_cmInstr.h **** 
  67:../Libraries/CMSIS/Include/core_cmInstr.h ****     Send Event is a hint instruction. It causes an event to be signaled to the CPU.
  68:../Libraries/CMSIS/Include/core_cmInstr.h ****  */
  69:../Libraries/CMSIS/Include/core_cmInstr.h **** #define __SEV                             __sev
  70:../Libraries/CMSIS/Include/core_cmInstr.h **** 
  71:../Libraries/CMSIS/Include/core_cmInstr.h **** 
  72:../Libraries/CMSIS/Include/core_cmInstr.h **** /** \brief  Instruction Synchronization Barrier
  73:../Libraries/CMSIS/Include/core_cmInstr.h **** 
  74:../Libraries/CMSIS/Include/core_cmInstr.h ****     Instruction Synchronization Barrier flushes the pipeline in the processor, 
  75:../Libraries/CMSIS/Include/core_cmInstr.h ****     so that all instructions following the ISB are fetched from cache or 
  76:../Libraries/CMSIS/Include/core_cmInstr.h ****     memory, after the instruction has been completed.
  77:../Libraries/CMSIS/Include/core_cmInstr.h ****  */
  78:../Libraries/CMSIS/Include/core_cmInstr.h **** #define __ISB()                           __isb(0xF)
  79:../Libraries/CMSIS/Include/core_cmInstr.h **** 
  80:../Libraries/CMSIS/Include/core_cmInstr.h **** 
  81:../Libraries/CMSIS/Include/core_cmInstr.h **** /** \brief  Data Synchronization Barrier
  82:../Libraries/CMSIS/Include/core_cmInstr.h **** 
  83:../Libraries/CMSIS/Include/core_cmInstr.h ****     This function acts as a special kind of Data Memory Barrier. 
  84:../Libraries/CMSIS/Include/core_cmInstr.h ****     It completes when all explicit memory accesses before this instruction complete.
  85:../Libraries/CMSIS/Include/core_cmInstr.h ****  */
  86:../Libraries/CMSIS/Include/core_cmInstr.h **** #define __DSB()                           __dsb(0xF)
  87:../Libraries/CMSIS/Include/core_cmInstr.h **** 
  88:../Libraries/CMSIS/Include/core_cmInstr.h **** 
  89:../Libraries/CMSIS/Include/core_cmInstr.h **** /** \brief  Data Memory Barrier
  90:../Libraries/CMSIS/Include/core_cmInstr.h **** 
  91:../Libraries/CMSIS/Include/core_cmInstr.h ****     This function ensures the apparent order of the explicit memory operations before 
  92:../Libraries/CMSIS/Include/core_cmInstr.h ****     and after the instruction, without ensuring their completion.
  93:../Libraries/CMSIS/Include/core_cmInstr.h ****  */
  94:../Libraries/CMSIS/Include/core_cmInstr.h **** #define __DMB()                           __dmb(0xF)
  95:../Libraries/CMSIS/Include/core_cmInstr.h **** 
  96:../Libraries/CMSIS/Include/core_cmInstr.h **** 
  97:../Libraries/CMSIS/Include/core_cmInstr.h **** /** \brief  Reverse byte order (32 bit)
  98:../Libraries/CMSIS/Include/core_cmInstr.h **** 
  99:../Libraries/CMSIS/Include/core_cmInstr.h ****     This function reverses the byte order in integer value.
 100:../Libraries/CMSIS/Include/core_cmInstr.h **** 
 101:../Libraries/CMSIS/Include/core_cmInstr.h ****     \param [in]    value  Value to reverse
 102:../Libraries/CMSIS/Include/core_cmInstr.h ****     \return               Reversed value
 103:../Libraries/CMSIS/Include/core_cmInstr.h ****  */
 104:../Libraries/CMSIS/Include/core_cmInstr.h **** #define __REV                             __rev
 105:../Libraries/CMSIS/Include/core_cmInstr.h **** 
 106:../Libraries/CMSIS/Include/core_cmInstr.h **** 
 107:../Libraries/CMSIS/Include/core_cmInstr.h **** /** \brief  Reverse byte order (16 bit)
 108:../Libraries/CMSIS/Include/core_cmInstr.h **** 
 109:../Libraries/CMSIS/Include/core_cmInstr.h ****     This function reverses the byte order in two unsigned short values.
 110:../Libraries/CMSIS/Include/core_cmInstr.h **** 
 111:../Libraries/CMSIS/Include/core_cmInstr.h ****     \param [in]    value  Value to reverse
 112:../Libraries/CMSIS/Include/core_cmInstr.h ****     \return               Reversed value
 113:../Libraries/CMSIS/Include/core_cmInstr.h ****  */
 114:../Libraries/CMSIS/Include/core_cmInstr.h **** static __INLINE __ASM uint32_t __REV16(uint32_t value)
ARM GAS  C:\Users\admin\AppData\Local\Temp\ccAAMi0y.s 			page 17


 115:../Libraries/CMSIS/Include/core_cmInstr.h **** {
 116:../Libraries/CMSIS/Include/core_cmInstr.h ****   rev16 r0, r0
 117:../Libraries/CMSIS/Include/core_cmInstr.h ****   bx lr
 118:../Libraries/CMSIS/Include/core_cmInstr.h **** }
 119:../Libraries/CMSIS/Include/core_cmInstr.h **** 
 120:../Libraries/CMSIS/Include/core_cmInstr.h **** 
 121:../Libraries/CMSIS/Include/core_cmInstr.h **** /** \brief  Reverse byte order in signed short value
 122:../Libraries/CMSIS/Include/core_cmInstr.h **** 
 123:../Libraries/CMSIS/Include/core_cmInstr.h ****     This function reverses the byte order in a signed short value with sign extension to integer.
 124:../Libraries/CMSIS/Include/core_cmInstr.h **** 
 125:../Libraries/CMSIS/Include/core_cmInstr.h ****     \param [in]    value  Value to reverse
 126:../Libraries/CMSIS/Include/core_cmInstr.h ****     \return               Reversed value
 127:../Libraries/CMSIS/Include/core_cmInstr.h ****  */
 128:../Libraries/CMSIS/Include/core_cmInstr.h **** static __INLINE __ASM int32_t __REVSH(int32_t value)
 129:../Libraries/CMSIS/Include/core_cmInstr.h **** {
 130:../Libraries/CMSIS/Include/core_cmInstr.h ****   revsh r0, r0
 131:../Libraries/CMSIS/Include/core_cmInstr.h ****   bx lr
 132:../Libraries/CMSIS/Include/core_cmInstr.h **** }
 133:../Libraries/CMSIS/Include/core_cmInstr.h **** 
 134:../Libraries/CMSIS/Include/core_cmInstr.h **** 
 135:../Libraries/CMSIS/Include/core_cmInstr.h **** #if       (__CORTEX_M >= 0x03)
 136:../Libraries/CMSIS/Include/core_cmInstr.h **** 
 137:../Libraries/CMSIS/Include/core_cmInstr.h **** /** \brief  Reverse bit order of value
 138:../Libraries/CMSIS/Include/core_cmInstr.h **** 
 139:../Libraries/CMSIS/Include/core_cmInstr.h ****     This function reverses the bit order of the given value.
 140:../Libraries/CMSIS/Include/core_cmInstr.h **** 
 141:../Libraries/CMSIS/Include/core_cmInstr.h ****     \param [in]    value  Value to reverse
 142:../Libraries/CMSIS/Include/core_cmInstr.h ****     \return               Reversed value
 143:../Libraries/CMSIS/Include/core_cmInstr.h ****  */
 144:../Libraries/CMSIS/Include/core_cmInstr.h **** #define __RBIT                            __rbit
 145:../Libraries/CMSIS/Include/core_cmInstr.h **** 
 146:../Libraries/CMSIS/Include/core_cmInstr.h **** 
 147:../Libraries/CMSIS/Include/core_cmInstr.h **** /** \brief  LDR Exclusive (8 bit)
 148:../Libraries/CMSIS/Include/core_cmInstr.h **** 
 149:../Libraries/CMSIS/Include/core_cmInstr.h ****     This function performs a exclusive LDR command for 8 bit value.
 150:../Libraries/CMSIS/Include/core_cmInstr.h **** 
 151:../Libraries/CMSIS/Include/core_cmInstr.h ****     \param [in]    ptr  Pointer to data
 152:../Libraries/CMSIS/Include/core_cmInstr.h ****     \return             value of type uint8_t at (*ptr)
 153:../Libraries/CMSIS/Include/core_cmInstr.h ****  */
 154:../Libraries/CMSIS/Include/core_cmInstr.h **** #define __LDREXB(ptr)                     ((uint8_t ) __ldrex(ptr))
 155:../Libraries/CMSIS/Include/core_cmInstr.h **** 
 156:../Libraries/CMSIS/Include/core_cmInstr.h **** 
 157:../Libraries/CMSIS/Include/core_cmInstr.h **** /** \brief  LDR Exclusive (16 bit)
 158:../Libraries/CMSIS/Include/core_cmInstr.h **** 
 159:../Libraries/CMSIS/Include/core_cmInstr.h ****     This function performs a exclusive LDR command for 16 bit values.
 160:../Libraries/CMSIS/Include/core_cmInstr.h **** 
 161:../Libraries/CMSIS/Include/core_cmInstr.h ****     \param [in]    ptr  Pointer to data
 162:../Libraries/CMSIS/Include/core_cmInstr.h ****     \return        value of type uint16_t at (*ptr)
 163:../Libraries/CMSIS/Include/core_cmInstr.h ****  */
 164:../Libraries/CMSIS/Include/core_cmInstr.h **** #define __LDREXH(ptr)                     ((uint16_t) __ldrex(ptr))
 165:../Libraries/CMSIS/Include/core_cmInstr.h **** 
 166:../Libraries/CMSIS/Include/core_cmInstr.h **** 
 167:../Libraries/CMSIS/Include/core_cmInstr.h **** /** \brief  LDR Exclusive (32 bit)
 168:../Libraries/CMSIS/Include/core_cmInstr.h **** 
 169:../Libraries/CMSIS/Include/core_cmInstr.h ****     This function performs a exclusive LDR command for 32 bit values.
 170:../Libraries/CMSIS/Include/core_cmInstr.h **** 
 171:../Libraries/CMSIS/Include/core_cmInstr.h ****     \param [in]    ptr  Pointer to data
ARM GAS  C:\Users\admin\AppData\Local\Temp\ccAAMi0y.s 			page 18


 172:../Libraries/CMSIS/Include/core_cmInstr.h ****     \return        value of type uint32_t at (*ptr)
 173:../Libraries/CMSIS/Include/core_cmInstr.h ****  */
 174:../Libraries/CMSIS/Include/core_cmInstr.h **** #define __LDREXW(ptr)                     ((uint32_t ) __ldrex(ptr))
 175:../Libraries/CMSIS/Include/core_cmInstr.h **** 
 176:../Libraries/CMSIS/Include/core_cmInstr.h **** 
 177:../Libraries/CMSIS/Include/core_cmInstr.h **** /** \brief  STR Exclusive (8 bit)
 178:../Libraries/CMSIS/Include/core_cmInstr.h **** 
 179:../Libraries/CMSIS/Include/core_cmInstr.h ****     This function performs a exclusive STR command for 8 bit values.
 180:../Libraries/CMSIS/Include/core_cmInstr.h **** 
 181:../Libraries/CMSIS/Include/core_cmInstr.h ****     \param [in]  value  Value to store
 182:../Libraries/CMSIS/Include/core_cmInstr.h ****     \param [in]    ptr  Pointer to location
 183:../Libraries/CMSIS/Include/core_cmInstr.h ****     \return          0  Function succeeded
 184:../Libraries/CMSIS/Include/core_cmInstr.h ****     \return          1  Function failed
 185:../Libraries/CMSIS/Include/core_cmInstr.h ****  */
 186:../Libraries/CMSIS/Include/core_cmInstr.h **** #define __STREXB(value, ptr)              __strex(value, ptr)
 187:../Libraries/CMSIS/Include/core_cmInstr.h **** 
 188:../Libraries/CMSIS/Include/core_cmInstr.h **** 
 189:../Libraries/CMSIS/Include/core_cmInstr.h **** /** \brief  STR Exclusive (16 bit)
 190:../Libraries/CMSIS/Include/core_cmInstr.h **** 
 191:../Libraries/CMSIS/Include/core_cmInstr.h ****     This function performs a exclusive STR command for 16 bit values.
 192:../Libraries/CMSIS/Include/core_cmInstr.h **** 
 193:../Libraries/CMSIS/Include/core_cmInstr.h ****     \param [in]  value  Value to store
 194:../Libraries/CMSIS/Include/core_cmInstr.h ****     \param [in]    ptr  Pointer to location
 195:../Libraries/CMSIS/Include/core_cmInstr.h ****     \return          0  Function succeeded
 196:../Libraries/CMSIS/Include/core_cmInstr.h ****     \return          1  Function failed
 197:../Libraries/CMSIS/Include/core_cmInstr.h ****  */
 198:../Libraries/CMSIS/Include/core_cmInstr.h **** #define __STREXH(value, ptr)              __strex(value, ptr)
 199:../Libraries/CMSIS/Include/core_cmInstr.h **** 
 200:../Libraries/CMSIS/Include/core_cmInstr.h **** 
 201:../Libraries/CMSIS/Include/core_cmInstr.h **** /** \brief  STR Exclusive (32 bit)
 202:../Libraries/CMSIS/Include/core_cmInstr.h **** 
 203:../Libraries/CMSIS/Include/core_cmInstr.h ****     This function performs a exclusive STR command for 32 bit values.
 204:../Libraries/CMSIS/Include/core_cmInstr.h **** 
 205:../Libraries/CMSIS/Include/core_cmInstr.h ****     \param [in]  value  Value to store
 206:../Libraries/CMSIS/Include/core_cmInstr.h ****     \param [in]    ptr  Pointer to location
 207:../Libraries/CMSIS/Include/core_cmInstr.h ****     \return          0  Function succeeded
 208:../Libraries/CMSIS/Include/core_cmInstr.h ****     \return          1  Function failed
 209:../Libraries/CMSIS/Include/core_cmInstr.h ****  */
 210:../Libraries/CMSIS/Include/core_cmInstr.h **** #define __STREXW(value, ptr)              __strex(value, ptr)
 211:../Libraries/CMSIS/Include/core_cmInstr.h **** 
 212:../Libraries/CMSIS/Include/core_cmInstr.h **** 
 213:../Libraries/CMSIS/Include/core_cmInstr.h **** /** \brief  Remove the exclusive lock
 214:../Libraries/CMSIS/Include/core_cmInstr.h **** 
 215:../Libraries/CMSIS/Include/core_cmInstr.h ****     This function removes the exclusive lock which is created by LDREX.
 216:../Libraries/CMSIS/Include/core_cmInstr.h **** 
 217:../Libraries/CMSIS/Include/core_cmInstr.h ****  */
 218:../Libraries/CMSIS/Include/core_cmInstr.h **** #define __CLREX                           __clrex
 219:../Libraries/CMSIS/Include/core_cmInstr.h **** 
 220:../Libraries/CMSIS/Include/core_cmInstr.h **** 
 221:../Libraries/CMSIS/Include/core_cmInstr.h **** /** \brief  Signed Saturate
 222:../Libraries/CMSIS/Include/core_cmInstr.h **** 
 223:../Libraries/CMSIS/Include/core_cmInstr.h ****     This function saturates a signed value.
 224:../Libraries/CMSIS/Include/core_cmInstr.h **** 
 225:../Libraries/CMSIS/Include/core_cmInstr.h ****     \param [in]  value  Value to be saturated
 226:../Libraries/CMSIS/Include/core_cmInstr.h ****     \param [in]    sat  Bit position to saturate to (1..32)
 227:../Libraries/CMSIS/Include/core_cmInstr.h ****     \return             Saturated value
 228:../Libraries/CMSIS/Include/core_cmInstr.h ****  */
ARM GAS  C:\Users\admin\AppData\Local\Temp\ccAAMi0y.s 			page 19


 229:../Libraries/CMSIS/Include/core_cmInstr.h **** #define __SSAT                            __ssat
 230:../Libraries/CMSIS/Include/core_cmInstr.h **** 
 231:../Libraries/CMSIS/Include/core_cmInstr.h **** 
 232:../Libraries/CMSIS/Include/core_cmInstr.h **** /** \brief  Unsigned Saturate
 233:../Libraries/CMSIS/Include/core_cmInstr.h **** 
 234:../Libraries/CMSIS/Include/core_cmInstr.h ****     This function saturates an unsigned value.
 235:../Libraries/CMSIS/Include/core_cmInstr.h **** 
 236:../Libraries/CMSIS/Include/core_cmInstr.h ****     \param [in]  value  Value to be saturated
 237:../Libraries/CMSIS/Include/core_cmInstr.h ****     \param [in]    sat  Bit position to saturate to (0..31)
 238:../Libraries/CMSIS/Include/core_cmInstr.h ****     \return             Saturated value
 239:../Libraries/CMSIS/Include/core_cmInstr.h ****  */
 240:../Libraries/CMSIS/Include/core_cmInstr.h **** #define __USAT                            __usat
 241:../Libraries/CMSIS/Include/core_cmInstr.h **** 
 242:../Libraries/CMSIS/Include/core_cmInstr.h **** 
 243:../Libraries/CMSIS/Include/core_cmInstr.h **** /** \brief  Count leading zeros
 244:../Libraries/CMSIS/Include/core_cmInstr.h **** 
 245:../Libraries/CMSIS/Include/core_cmInstr.h ****     This function counts the number of leading zeros of a data value.
 246:../Libraries/CMSIS/Include/core_cmInstr.h **** 
 247:../Libraries/CMSIS/Include/core_cmInstr.h ****     \param [in]  value  Value to count the leading zeros
 248:../Libraries/CMSIS/Include/core_cmInstr.h ****     \return             number of leading zeros in value
 249:../Libraries/CMSIS/Include/core_cmInstr.h ****  */
 250:../Libraries/CMSIS/Include/core_cmInstr.h **** #define __CLZ                             __clz 
 251:../Libraries/CMSIS/Include/core_cmInstr.h **** 
 252:../Libraries/CMSIS/Include/core_cmInstr.h **** #endif /* (__CORTEX_M >= 0x03) */
 253:../Libraries/CMSIS/Include/core_cmInstr.h **** 
 254:../Libraries/CMSIS/Include/core_cmInstr.h **** 
 255:../Libraries/CMSIS/Include/core_cmInstr.h **** 
 256:../Libraries/CMSIS/Include/core_cmInstr.h **** #elif defined ( __ICCARM__ ) /*------------------ ICC Compiler -------------------*/
 257:../Libraries/CMSIS/Include/core_cmInstr.h **** /* IAR iccarm specific functions */
 258:../Libraries/CMSIS/Include/core_cmInstr.h **** 
 259:../Libraries/CMSIS/Include/core_cmInstr.h **** #include <cmsis_iar.h>
 260:../Libraries/CMSIS/Include/core_cmInstr.h **** 
 261:../Libraries/CMSIS/Include/core_cmInstr.h **** 
 262:../Libraries/CMSIS/Include/core_cmInstr.h **** #elif defined ( __GNUC__ ) /*------------------ GNU Compiler ---------------------*/
 263:../Libraries/CMSIS/Include/core_cmInstr.h **** /* GNU gcc specific functions */
 264:../Libraries/CMSIS/Include/core_cmInstr.h **** 
 265:../Libraries/CMSIS/Include/core_cmInstr.h **** /** \brief  No Operation
 266:../Libraries/CMSIS/Include/core_cmInstr.h **** 
 267:../Libraries/CMSIS/Include/core_cmInstr.h ****     No Operation does nothing. This instruction can be used for code alignment purposes.
 268:../Libraries/CMSIS/Include/core_cmInstr.h ****  */
 269:../Libraries/CMSIS/Include/core_cmInstr.h **** __attribute__( ( always_inline ) ) static __INLINE void __NOP(void)
 270:../Libraries/CMSIS/Include/core_cmInstr.h **** {
 271:../Libraries/CMSIS/Include/core_cmInstr.h ****   __ASM volatile ("nop");
 272:../Libraries/CMSIS/Include/core_cmInstr.h **** }
 273:../Libraries/CMSIS/Include/core_cmInstr.h **** 
 274:../Libraries/CMSIS/Include/core_cmInstr.h **** 
 275:../Libraries/CMSIS/Include/core_cmInstr.h **** /** \brief  Wait For Interrupt
 276:../Libraries/CMSIS/Include/core_cmInstr.h **** 
 277:../Libraries/CMSIS/Include/core_cmInstr.h ****     Wait For Interrupt is a hint instruction that suspends execution
 278:../Libraries/CMSIS/Include/core_cmInstr.h ****     until one of a number of events occurs.
 279:../Libraries/CMSIS/Include/core_cmInstr.h ****  */
 280:../Libraries/CMSIS/Include/core_cmInstr.h **** __attribute__( ( always_inline ) ) static __INLINE void __WFI(void)
 281:../Libraries/CMSIS/Include/core_cmInstr.h **** {
 282:../Libraries/CMSIS/Include/core_cmInstr.h ****   __ASM volatile ("wfi");
 283:../Libraries/CMSIS/Include/core_cmInstr.h **** }
 284:../Libraries/CMSIS/Include/core_cmInstr.h **** 
 285:../Libraries/CMSIS/Include/core_cmInstr.h **** 
ARM GAS  C:\Users\admin\AppData\Local\Temp\ccAAMi0y.s 			page 20


 286:../Libraries/CMSIS/Include/core_cmInstr.h **** /** \brief  Wait For Event
 287:../Libraries/CMSIS/Include/core_cmInstr.h **** 
 288:../Libraries/CMSIS/Include/core_cmInstr.h ****     Wait For Event is a hint instruction that permits the processor to enter
 289:../Libraries/CMSIS/Include/core_cmInstr.h ****     a low-power state until one of a number of events occurs.
 290:../Libraries/CMSIS/Include/core_cmInstr.h ****  */
 291:../Libraries/CMSIS/Include/core_cmInstr.h **** __attribute__( ( always_inline ) ) static __INLINE void __WFE(void)
 292:../Libraries/CMSIS/Include/core_cmInstr.h **** {
 293:../Libraries/CMSIS/Include/core_cmInstr.h ****   __ASM volatile ("wfe");
 294:../Libraries/CMSIS/Include/core_cmInstr.h **** }
 295:../Libraries/CMSIS/Include/core_cmInstr.h **** 
 296:../Libraries/CMSIS/Include/core_cmInstr.h **** 
 297:../Libraries/CMSIS/Include/core_cmInstr.h **** /** \brief  Send Event
 298:../Libraries/CMSIS/Include/core_cmInstr.h **** 
 299:../Libraries/CMSIS/Include/core_cmInstr.h ****     Send Event is a hint instruction. It causes an event to be signaled to the CPU.
 300:../Libraries/CMSIS/Include/core_cmInstr.h ****  */
 301:../Libraries/CMSIS/Include/core_cmInstr.h **** __attribute__( ( always_inline ) ) static __INLINE void __SEV(void)
 302:../Libraries/CMSIS/Include/core_cmInstr.h **** {
 303:../Libraries/CMSIS/Include/core_cmInstr.h ****   __ASM volatile ("sev");
 304:../Libraries/CMSIS/Include/core_cmInstr.h **** }
 305:../Libraries/CMSIS/Include/core_cmInstr.h **** 
 306:../Libraries/CMSIS/Include/core_cmInstr.h **** 
 307:../Libraries/CMSIS/Include/core_cmInstr.h **** /** \brief  Instruction Synchronization Barrier
 308:../Libraries/CMSIS/Include/core_cmInstr.h **** 
 309:../Libraries/CMSIS/Include/core_cmInstr.h ****     Instruction Synchronization Barrier flushes the pipeline in the processor, 
 310:../Libraries/CMSIS/Include/core_cmInstr.h ****     so that all instructions following the ISB are fetched from cache or 
 311:../Libraries/CMSIS/Include/core_cmInstr.h ****     memory, after the instruction has been completed.
 312:../Libraries/CMSIS/Include/core_cmInstr.h ****  */
 313:../Libraries/CMSIS/Include/core_cmInstr.h **** __attribute__( ( always_inline ) ) static __INLINE void __ISB(void)
 314:../Libraries/CMSIS/Include/core_cmInstr.h **** {
 315:../Libraries/CMSIS/Include/core_cmInstr.h ****   __ASM volatile ("isb");
 316:../Libraries/CMSIS/Include/core_cmInstr.h **** }
 317:../Libraries/CMSIS/Include/core_cmInstr.h **** 
 318:../Libraries/CMSIS/Include/core_cmInstr.h **** 
 319:../Libraries/CMSIS/Include/core_cmInstr.h **** /** \brief  Data Synchronization Barrier
 320:../Libraries/CMSIS/Include/core_cmInstr.h **** 
 321:../Libraries/CMSIS/Include/core_cmInstr.h ****     This function acts as a special kind of Data Memory Barrier. 
 322:../Libraries/CMSIS/Include/core_cmInstr.h ****     It completes when all explicit memory accesses before this instruction complete.
 323:../Libraries/CMSIS/Include/core_cmInstr.h ****  */
 324:../Libraries/CMSIS/Include/core_cmInstr.h **** __attribute__( ( always_inline ) ) static __INLINE void __DSB(void)
 325:../Libraries/CMSIS/Include/core_cmInstr.h **** {
 326:../Libraries/CMSIS/Include/core_cmInstr.h ****   __ASM volatile ("dsb");
 327:../Libraries/CMSIS/Include/core_cmInstr.h **** }
 328:../Libraries/CMSIS/Include/core_cmInstr.h **** 
 329:../Libraries/CMSIS/Include/core_cmInstr.h **** 
 330:../Libraries/CMSIS/Include/core_cmInstr.h **** /** \brief  Data Memory Barrier
 331:../Libraries/CMSIS/Include/core_cmInstr.h **** 
 332:../Libraries/CMSIS/Include/core_cmInstr.h ****     This function ensures the apparent order of the explicit memory operations before 
 333:../Libraries/CMSIS/Include/core_cmInstr.h ****     and after the instruction, without ensuring their completion.
 334:../Libraries/CMSIS/Include/core_cmInstr.h ****  */
 335:../Libraries/CMSIS/Include/core_cmInstr.h **** __attribute__( ( always_inline ) ) static __INLINE void __DMB(void)
 336:../Libraries/CMSIS/Include/core_cmInstr.h **** {
 337:../Libraries/CMSIS/Include/core_cmInstr.h ****   __ASM volatile ("dmb");
 338:../Libraries/CMSIS/Include/core_cmInstr.h **** }
 339:../Libraries/CMSIS/Include/core_cmInstr.h **** 
 340:../Libraries/CMSIS/Include/core_cmInstr.h **** 
 341:../Libraries/CMSIS/Include/core_cmInstr.h **** /** \brief  Reverse byte order (32 bit)
 342:../Libraries/CMSIS/Include/core_cmInstr.h **** 
ARM GAS  C:\Users\admin\AppData\Local\Temp\ccAAMi0y.s 			page 21


 343:../Libraries/CMSIS/Include/core_cmInstr.h ****     This function reverses the byte order in integer value.
 344:../Libraries/CMSIS/Include/core_cmInstr.h **** 
 345:../Libraries/CMSIS/Include/core_cmInstr.h ****     \param [in]    value  Value to reverse
 346:../Libraries/CMSIS/Include/core_cmInstr.h ****     \return               Reversed value
 347:../Libraries/CMSIS/Include/core_cmInstr.h ****  */
 348:../Libraries/CMSIS/Include/core_cmInstr.h **** __attribute__( ( always_inline ) ) static __INLINE uint32_t __REV(uint32_t value)
 349:../Libraries/CMSIS/Include/core_cmInstr.h **** {
 350:../Libraries/CMSIS/Include/core_cmInstr.h ****   uint32_t result;
 351:../Libraries/CMSIS/Include/core_cmInstr.h ****   
 352:../Libraries/CMSIS/Include/core_cmInstr.h ****   __ASM volatile ("rev %0, %1" : "=r" (result) : "r" (value) );
 464              		.loc 2 352 3 is_stmt 0 view .LVU120
 465 014a 2368     		ldr	r3, [r4]	@ MEM[(uint32_t *)Key_75(D)], MEM[(uint32_t *)Key_75(D)]
 466              	.LBE127:
 467              	.LBE126:
 468              	@ ../Libraries/STM32F4xx_StdPeriph_Driver/src/stm32f4xx_cryp_aes.c:117:     AES_CRYP_InitStructure.
 117:../Libraries/STM32F4xx_StdPeriph_Driver/src/stm32f4xx_cryp_aes.c ****     AES_CRYP_KeyInitStructure.CRYP_Key2Left = __REV(*(uint32_t*)(keyaddr));
 469              		.loc 1 117 41 view .LVU121
 470 014c ADF80E90 		strh	r9, [sp, #14]	@ movhi	@ tmp213, AES_CRYP_InitStructure.CRYP_KeySize
 118:../Libraries/STM32F4xx_StdPeriph_Driver/src/stm32f4xx_cryp_aes.c ****     keyaddr+=4;
 471              		.loc 1 118 5 is_stmt 1 view .LVU122
 472              	.LVL49:
 473              	.LBB129:
 474              	.LBI126:
 348:../Libraries/CMSIS/Include/core_cmInstr.h **** {
 475              		.loc 2 348 61 view .LVU123
 476              	.LBB128:
 350:../Libraries/CMSIS/Include/core_cmInstr.h ****   
 477              		.loc 2 350 3 view .LVU124
 478              		.loc 2 352 3 view .LVU125
 479              		.syntax unified
 480              	@ 352 "../Libraries/CMSIS/Include/core_cmInstr.h" 1
 481 0150 1BBA     		rev r3, r3	@ result, MEM[(uint32_t *)Key_75(D)]
 482              	@ 0 "" 2
 483              	.LVL50:
 353:../Libraries/CMSIS/Include/core_cmInstr.h ****   return(result);
 484              		.loc 2 353 3 view .LVU126
 485              		.loc 2 353 3 is_stmt 0 view .LVU127
 486              		.thumb
 487              		.syntax unified
 488              	.LBE128:
 489              	.LBE129:
 490              	@ ../Libraries/STM32F4xx_StdPeriph_Driver/src/stm32f4xx_cryp_aes.c:118:     AES_CRYP_KeyInitStructu
 118:../Libraries/STM32F4xx_StdPeriph_Driver/src/stm32f4xx_cryp_aes.c ****     keyaddr+=4;
 491              		.loc 1 118 45 view .LVU128
 492 0152 0893     		str	r3, [sp, #32]	@ result, AES_CRYP_KeyInitStructure.CRYP_Key2Left
 119:../Libraries/STM32F4xx_StdPeriph_Driver/src/stm32f4xx_cryp_aes.c ****     AES_CRYP_KeyInitStructure.CRYP_Key2Right= __REV(*(uint32_t*)(keyaddr));
 493              		.loc 1 119 5 is_stmt 1 view .LVU129
 494              	.LVL51:
 120:../Libraries/STM32F4xx_StdPeriph_Driver/src/stm32f4xx_cryp_aes.c ****     keyaddr+=4;
 495              		.loc 1 120 5 view .LVU130
 496              	.LBB130:
 497              	.LBI130:
 348:../Libraries/CMSIS/Include/core_cmInstr.h **** {
 498              		.loc 2 348 61 view .LVU131
 499              	.LBB131:
 350:../Libraries/CMSIS/Include/core_cmInstr.h ****   
 500              		.loc 2 350 3 view .LVU132
ARM GAS  C:\Users\admin\AppData\Local\Temp\ccAAMi0y.s 			page 22


 352:../Libraries/CMSIS/Include/core_cmInstr.h ****   return(result);
 501              		.loc 2 352 3 view .LVU133
 502 0154 6368     		ldr	r3, [r4, #4]	@ *keyaddr.1_2, *keyaddr.1_2
 503              		.syntax unified
 504              	@ 352 "../Libraries/CMSIS/Include/core_cmInstr.h" 1
 505 0156 1BBA     		rev r3, r3	@ result, *keyaddr.1_2
 506              	@ 0 "" 2
 507              	.LVL52:
 508              		.loc 2 353 3 view .LVU134
 509              		.loc 2 353 3 is_stmt 0 view .LVU135
 510              		.thumb
 511              		.syntax unified
 512              	.LBE131:
 513              	.LBE130:
 514              	@ ../Libraries/STM32F4xx_StdPeriph_Driver/src/stm32f4xx_cryp_aes.c:120:     AES_CRYP_KeyInitStructu
 120:../Libraries/STM32F4xx_StdPeriph_Driver/src/stm32f4xx_cryp_aes.c ****     keyaddr+=4;
 515              		.loc 1 120 45 view .LVU136
 516 0158 0993     		str	r3, [sp, #36]	@ result, AES_CRYP_KeyInitStructure.CRYP_Key2Right
 121:../Libraries/STM32F4xx_StdPeriph_Driver/src/stm32f4xx_cryp_aes.c ****     AES_CRYP_KeyInitStructure.CRYP_Key3Left = __REV(*(uint32_t*)(keyaddr));
 517              		.loc 1 121 5 is_stmt 1 view .LVU137
 518              	.LVL53:
 122:../Libraries/STM32F4xx_StdPeriph_Driver/src/stm32f4xx_cryp_aes.c ****     keyaddr+=4;
 519              		.loc 1 122 5 view .LVU138
 520              	.LBB132:
 521              	.LBI132:
 348:../Libraries/CMSIS/Include/core_cmInstr.h **** {
 522              		.loc 2 348 61 view .LVU139
 523              	.LBB133:
 350:../Libraries/CMSIS/Include/core_cmInstr.h ****   
 524              		.loc 2 350 3 view .LVU140
 352:../Libraries/CMSIS/Include/core_cmInstr.h ****   return(result);
 525              		.loc 2 352 3 view .LVU141
 526 015a A368     		ldr	r3, [r4, #8]	@ *keyaddr.2_4, *keyaddr.2_4
 527              		.syntax unified
 528              	@ 352 "../Libraries/CMSIS/Include/core_cmInstr.h" 1
 529 015c 1BBA     		rev r3, r3	@ result, *keyaddr.2_4
 530              	@ 0 "" 2
 531              	.LVL54:
 532              		.loc 2 353 3 view .LVU142
 533              		.loc 2 353 3 is_stmt 0 view .LVU143
 534              		.thumb
 535              		.syntax unified
 536              	.LBE133:
 537              	.LBE132:
 538              	@ ../Libraries/STM32F4xx_StdPeriph_Driver/src/stm32f4xx_cryp_aes.c:122:     AES_CRYP_KeyInitStructu
 122:../Libraries/STM32F4xx_StdPeriph_Driver/src/stm32f4xx_cryp_aes.c ****     keyaddr+=4;
 539              		.loc 1 122 45 view .LVU144
 540 015e 0A93     		str	r3, [sp, #40]	@ result, AES_CRYP_KeyInitStructure.CRYP_Key3Left
 123:../Libraries/STM32F4xx_StdPeriph_Driver/src/stm32f4xx_cryp_aes.c ****     AES_CRYP_KeyInitStructure.CRYP_Key3Right= __REV(*(uint32_t*)(keyaddr));
 541              		.loc 1 123 5 is_stmt 1 view .LVU145
 542              	.LVL55:
 124:../Libraries/STM32F4xx_StdPeriph_Driver/src/stm32f4xx_cryp_aes.c ****     break;
 543              		.loc 1 124 5 view .LVU146
 544              	.LBB134:
 545              	.LBI134:
 348:../Libraries/CMSIS/Include/core_cmInstr.h **** {
 546              		.loc 2 348 61 view .LVU147
ARM GAS  C:\Users\admin\AppData\Local\Temp\ccAAMi0y.s 			page 23


 547              	.LBB135:
 350:../Libraries/CMSIS/Include/core_cmInstr.h ****   
 548              		.loc 2 350 3 view .LVU148
 352:../Libraries/CMSIS/Include/core_cmInstr.h ****   return(result);
 549              		.loc 2 352 3 view .LVU149
 550 0160 E368     		ldr	r3, [r4, #12]	@ *keyaddr.3_6, *keyaddr.3_6
 551              		.syntax unified
 552              	@ 352 "../Libraries/CMSIS/Include/core_cmInstr.h" 1
 553 0162 1BBA     		rev r3, r3	@ result, *keyaddr.3_6
 554              	@ 0 "" 2
 555              	.LVL56:
 556              		.loc 2 353 3 view .LVU150
 557              		.loc 2 353 3 is_stmt 0 view .LVU151
 558              		.thumb
 559              		.syntax unified
 560              	.LBE135:
 561              	.LBE134:
 562              	@ ../Libraries/STM32F4xx_StdPeriph_Driver/src/stm32f4xx_cryp_aes.c:124:     AES_CRYP_KeyInitStructu
 124:../Libraries/STM32F4xx_StdPeriph_Driver/src/stm32f4xx_cryp_aes.c ****     break;
 563              		.loc 1 124 45 view .LVU152
 564 0164 0B93     		str	r3, [sp, #44]	@ result, AES_CRYP_KeyInitStructure.CRYP_Key3Right
 125:../Libraries/STM32F4xx_StdPeriph_Driver/src/stm32f4xx_cryp_aes.c ****     case 192:
 565              		.loc 1 125 5 is_stmt 1 view .LVU153
 566 0166 65E7     		b	.L4		@
 567              	.LVL57:
 568              	.L2:
 127:../Libraries/STM32F4xx_StdPeriph_Driver/src/stm32f4xx_cryp_aes.c ****     AES_CRYP_KeyInitStructure.CRYP_Key1Left = __REV(*(uint32_t*)(keyaddr));
 569              		.loc 1 127 5 view .LVU154
 570              	@ ../Libraries/STM32F4xx_StdPeriph_Driver/src/stm32f4xx_cryp_aes.c:127:     AES_CRYP_InitStructure.
 127:../Libraries/STM32F4xx_StdPeriph_Driver/src/stm32f4xx_cryp_aes.c ****     AES_CRYP_KeyInitStructure.CRYP_Key1Left = __REV(*(uint32_t*)(keyaddr));
 571              		.loc 1 127 42 is_stmt 0 view .LVU155
 572 0168 4FF48073 		mov	r3, #256	@ tmp226,
 573 016c ADF80E30 		strh	r3, [sp, #14]	@ movhi	@ tmp226, AES_CRYP_InitStructure.CRYP_KeySize
 128:../Libraries/STM32F4xx_StdPeriph_Driver/src/stm32f4xx_cryp_aes.c ****     keyaddr+=4;
 574              		.loc 1 128 5 is_stmt 1 view .LVU156
 575              	.LVL58:
 576              	.LBB136:
 577              	.LBI136:
 348:../Libraries/CMSIS/Include/core_cmInstr.h **** {
 578              		.loc 2 348 61 view .LVU157
 579              	.LBB137:
 350:../Libraries/CMSIS/Include/core_cmInstr.h ****   
 580              		.loc 2 350 3 view .LVU158
 352:../Libraries/CMSIS/Include/core_cmInstr.h ****   return(result);
 581              		.loc 2 352 3 view .LVU159
 582 0170 2368     		ldr	r3, [r4]	@ MEM[(uint32_t *)Key_75(D)], MEM[(uint32_t *)Key_75(D)]
 583              		.syntax unified
 584              	@ 352 "../Libraries/CMSIS/Include/core_cmInstr.h" 1
 585 0172 1BBA     		rev r3, r3	@ result, MEM[(uint32_t *)Key_75(D)]
 586              	@ 0 "" 2
 587              	.LVL59:
 588              		.loc 2 353 3 view .LVU160
 589              		.loc 2 353 3 is_stmt 0 view .LVU161
 590              		.thumb
 591              		.syntax unified
 592              	.LBE137:
 593              	.LBE136:
ARM GAS  C:\Users\admin\AppData\Local\Temp\ccAAMi0y.s 			page 24


 594              	@ ../Libraries/STM32F4xx_StdPeriph_Driver/src/stm32f4xx_cryp_aes.c:128:     AES_CRYP_KeyInitStructu
 128:../Libraries/STM32F4xx_StdPeriph_Driver/src/stm32f4xx_cryp_aes.c ****     keyaddr+=4;
 595              		.loc 1 128 45 view .LVU162
 596 0174 0693     		str	r3, [sp, #24]	@ result, AES_CRYP_KeyInitStructure.CRYP_Key1Left
 129:../Libraries/STM32F4xx_StdPeriph_Driver/src/stm32f4xx_cryp_aes.c ****     AES_CRYP_KeyInitStructure.CRYP_Key1Right= __REV(*(uint32_t*)(keyaddr));
 597              		.loc 1 129 5 is_stmt 1 view .LVU163
 598              	.LVL60:
 130:../Libraries/STM32F4xx_StdPeriph_Driver/src/stm32f4xx_cryp_aes.c ****     keyaddr+=4;
 599              		.loc 1 130 5 view .LVU164
 600              	.LBB138:
 601              	.LBI138:
 348:../Libraries/CMSIS/Include/core_cmInstr.h **** {
 602              		.loc 2 348 61 view .LVU165
 603              	.LBB139:
 350:../Libraries/CMSIS/Include/core_cmInstr.h ****   
 604              		.loc 2 350 3 view .LVU166
 352:../Libraries/CMSIS/Include/core_cmInstr.h ****   return(result);
 605              		.loc 2 352 3 view .LVU167
 606 0176 6368     		ldr	r3, [r4, #4]	@ *keyaddr.5_9, *keyaddr.5_9
 607              		.syntax unified
 608              	@ 352 "../Libraries/CMSIS/Include/core_cmInstr.h" 1
 609 0178 1BBA     		rev r3, r3	@ result, *keyaddr.5_9
 610              	@ 0 "" 2
 611              	.LVL61:
 612              		.loc 2 353 3 view .LVU168
 613              		.loc 2 353 3 is_stmt 0 view .LVU169
 614              		.thumb
 615              		.syntax unified
 616              	.LBE139:
 617              	.LBE138:
 618              	@ ../Libraries/STM32F4xx_StdPeriph_Driver/src/stm32f4xx_cryp_aes.c:130:     AES_CRYP_KeyInitStructu
 130:../Libraries/STM32F4xx_StdPeriph_Driver/src/stm32f4xx_cryp_aes.c ****     keyaddr+=4;
 619              		.loc 1 130 45 view .LVU170
 620 017a 0793     		str	r3, [sp, #28]	@ result, AES_CRYP_KeyInitStructure.CRYP_Key1Right
 131:../Libraries/STM32F4xx_StdPeriph_Driver/src/stm32f4xx_cryp_aes.c ****     AES_CRYP_KeyInitStructure.CRYP_Key2Left = __REV(*(uint32_t*)(keyaddr));
 621              		.loc 1 131 5 is_stmt 1 view .LVU171
 622              	.LVL62:
 132:../Libraries/STM32F4xx_StdPeriph_Driver/src/stm32f4xx_cryp_aes.c ****     keyaddr+=4;
 623              		.loc 1 132 5 view .LVU172
 624              	.LBB140:
 625              	.LBI140:
 348:../Libraries/CMSIS/Include/core_cmInstr.h **** {
 626              		.loc 2 348 61 view .LVU173
 627              	.LBB141:
 350:../Libraries/CMSIS/Include/core_cmInstr.h ****   
 628              		.loc 2 350 3 view .LVU174
 352:../Libraries/CMSIS/Include/core_cmInstr.h ****   return(result);
 629              		.loc 2 352 3 view .LVU175
 630 017c A368     		ldr	r3, [r4, #8]	@ *keyaddr.6_11, *keyaddr.6_11
 631              		.syntax unified
 632              	@ 352 "../Libraries/CMSIS/Include/core_cmInstr.h" 1
 633 017e 1BBA     		rev r3, r3	@ result, *keyaddr.6_11
 634              	@ 0 "" 2
 635              	.LVL63:
 636              		.loc 2 353 3 view .LVU176
 637              		.loc 2 353 3 is_stmt 0 view .LVU177
 638              		.thumb
ARM GAS  C:\Users\admin\AppData\Local\Temp\ccAAMi0y.s 			page 25


 639              		.syntax unified
 640              	.LBE141:
 641              	.LBE140:
 642              	@ ../Libraries/STM32F4xx_StdPeriph_Driver/src/stm32f4xx_cryp_aes.c:132:     AES_CRYP_KeyInitStructu
 132:../Libraries/STM32F4xx_StdPeriph_Driver/src/stm32f4xx_cryp_aes.c ****     keyaddr+=4;
 643              		.loc 1 132 45 view .LVU178
 644 0180 0893     		str	r3, [sp, #32]	@ result, AES_CRYP_KeyInitStructure.CRYP_Key2Left
 133:../Libraries/STM32F4xx_StdPeriph_Driver/src/stm32f4xx_cryp_aes.c ****     AES_CRYP_KeyInitStructure.CRYP_Key2Right= __REV(*(uint32_t*)(keyaddr));
 645              		.loc 1 133 5 is_stmt 1 view .LVU179
 646              	.LVL64:
 134:../Libraries/STM32F4xx_StdPeriph_Driver/src/stm32f4xx_cryp_aes.c ****     keyaddr+=4;
 647              		.loc 1 134 5 view .LVU180
 648              	.LBB142:
 649              	.LBI142:
 348:../Libraries/CMSIS/Include/core_cmInstr.h **** {
 650              		.loc 2 348 61 view .LVU181
 651              	.LBB143:
 350:../Libraries/CMSIS/Include/core_cmInstr.h ****   
 652              		.loc 2 350 3 view .LVU182
 352:../Libraries/CMSIS/Include/core_cmInstr.h ****   return(result);
 653              		.loc 2 352 3 view .LVU183
 654 0182 E368     		ldr	r3, [r4, #12]	@ *keyaddr.7_13, *keyaddr.7_13
 655              		.syntax unified
 656              	@ 352 "../Libraries/CMSIS/Include/core_cmInstr.h" 1
 657 0184 1BBA     		rev r3, r3	@ result, *keyaddr.7_13
 658              	@ 0 "" 2
 659              	.LVL65:
 660              		.loc 2 353 3 view .LVU184
 661              		.loc 2 353 3 is_stmt 0 view .LVU185
 662              		.thumb
 663              		.syntax unified
 664              	.LBE143:
 665              	.LBE142:
 666              	@ ../Libraries/STM32F4xx_StdPeriph_Driver/src/stm32f4xx_cryp_aes.c:134:     AES_CRYP_KeyInitStructu
 134:../Libraries/STM32F4xx_StdPeriph_Driver/src/stm32f4xx_cryp_aes.c ****     keyaddr+=4;
 667              		.loc 1 134 45 view .LVU186
 668 0186 0993     		str	r3, [sp, #36]	@ result, AES_CRYP_KeyInitStructure.CRYP_Key2Right
 135:../Libraries/STM32F4xx_StdPeriph_Driver/src/stm32f4xx_cryp_aes.c ****     AES_CRYP_KeyInitStructure.CRYP_Key3Left = __REV(*(uint32_t*)(keyaddr));
 669              		.loc 1 135 5 is_stmt 1 view .LVU187
 670              	.LVL66:
 136:../Libraries/STM32F4xx_StdPeriph_Driver/src/stm32f4xx_cryp_aes.c ****     keyaddr+=4;
 671              		.loc 1 136 5 view .LVU188
 672              	.LBB144:
 673              	.LBI144:
 348:../Libraries/CMSIS/Include/core_cmInstr.h **** {
 674              		.loc 2 348 61 view .LVU189
 675              	.LBB145:
 350:../Libraries/CMSIS/Include/core_cmInstr.h ****   
 676              		.loc 2 350 3 view .LVU190
 352:../Libraries/CMSIS/Include/core_cmInstr.h ****   return(result);
 677              		.loc 2 352 3 view .LVU191
 678 0188 2369     		ldr	r3, [r4, #16]	@ *keyaddr.8_15, *keyaddr.8_15
 679              		.syntax unified
 680              	@ 352 "../Libraries/CMSIS/Include/core_cmInstr.h" 1
 681 018a 1BBA     		rev r3, r3	@ result, *keyaddr.8_15
 682              	@ 0 "" 2
 683              	.LVL67:
ARM GAS  C:\Users\admin\AppData\Local\Temp\ccAAMi0y.s 			page 26


 684              		.loc 2 353 3 view .LVU192
 685              		.loc 2 353 3 is_stmt 0 view .LVU193
 686              		.thumb
 687              		.syntax unified
 688              	.LBE145:
 689              	.LBE144:
 690              	@ ../Libraries/STM32F4xx_StdPeriph_Driver/src/stm32f4xx_cryp_aes.c:136:     AES_CRYP_KeyInitStructu
 136:../Libraries/STM32F4xx_StdPeriph_Driver/src/stm32f4xx_cryp_aes.c ****     keyaddr+=4;
 691              		.loc 1 136 45 view .LVU194
 692 018c 0A93     		str	r3, [sp, #40]	@ result, AES_CRYP_KeyInitStructure.CRYP_Key3Left
 137:../Libraries/STM32F4xx_StdPeriph_Driver/src/stm32f4xx_cryp_aes.c ****     AES_CRYP_KeyInitStructure.CRYP_Key3Right= __REV(*(uint32_t*)(keyaddr));
 693              		.loc 1 137 5 is_stmt 1 view .LVU195
 694              	.LVL68:
 138:../Libraries/STM32F4xx_StdPeriph_Driver/src/stm32f4xx_cryp_aes.c ****     break;
 695              		.loc 1 138 5 view .LVU196
 696              	.LBB146:
 697              	.LBI146:
 348:../Libraries/CMSIS/Include/core_cmInstr.h **** {
 698              		.loc 2 348 61 view .LVU197
 699              	.LBB147:
 350:../Libraries/CMSIS/Include/core_cmInstr.h ****   
 700              		.loc 2 350 3 view .LVU198
 352:../Libraries/CMSIS/Include/core_cmInstr.h ****   return(result);
 701              		.loc 2 352 3 view .LVU199
 702 018e 6369     		ldr	r3, [r4, #20]	@ *keyaddr.9_17, *keyaddr.9_17
 703              		.syntax unified
 704              	@ 352 "../Libraries/CMSIS/Include/core_cmInstr.h" 1
 705 0190 1BBA     		rev r3, r3	@ result, *keyaddr.9_17
 706              	@ 0 "" 2
 707              	.LVL69:
 708              		.loc 2 353 3 view .LVU200
 709              		.loc 2 353 3 is_stmt 0 view .LVU201
 710              		.thumb
 711              		.syntax unified
 712              	.LBE147:
 713              	.LBE146:
 714              	@ ../Libraries/STM32F4xx_StdPeriph_Driver/src/stm32f4xx_cryp_aes.c:138:     AES_CRYP_KeyInitStructu
 138:../Libraries/STM32F4xx_StdPeriph_Driver/src/stm32f4xx_cryp_aes.c ****     break;
 715              		.loc 1 138 45 view .LVU202
 716 0192 0B93     		str	r3, [sp, #44]	@ result, AES_CRYP_KeyInitStructure.CRYP_Key3Right
 139:../Libraries/STM32F4xx_StdPeriph_Driver/src/stm32f4xx_cryp_aes.c ****     case 256:
 717              		.loc 1 139 5 is_stmt 1 view .LVU203
 718 0194 4EE7     		b	.L4		@
 719              	.LVL70:
 720              	.L3:
 141:../Libraries/STM32F4xx_StdPeriph_Driver/src/stm32f4xx_cryp_aes.c ****     AES_CRYP_KeyInitStructure.CRYP_Key0Left = __REV(*(uint32_t*)(keyaddr));
 721              		.loc 1 141 5 view .LVU204
 722              	@ ../Libraries/STM32F4xx_StdPeriph_Driver/src/stm32f4xx_cryp_aes.c:141:     AES_CRYP_InitStructure.
 141:../Libraries/STM32F4xx_StdPeriph_Driver/src/stm32f4xx_cryp_aes.c ****     AES_CRYP_KeyInitStructure.CRYP_Key0Left = __REV(*(uint32_t*)(keyaddr));
 723              		.loc 1 141 42 is_stmt 0 view .LVU205
 724 0196 4FF40073 		mov	r3, #512	@ tmp240,
 725 019a ADF80E30 		strh	r3, [sp, #14]	@ movhi	@ tmp240, AES_CRYP_InitStructure.CRYP_KeySize
 142:../Libraries/STM32F4xx_StdPeriph_Driver/src/stm32f4xx_cryp_aes.c ****     keyaddr+=4;
 726              		.loc 1 142 5 is_stmt 1 view .LVU206
 727              	.LVL71:
 728              	.LBB148:
 729              	.LBI148:
ARM GAS  C:\Users\admin\AppData\Local\Temp\ccAAMi0y.s 			page 27


 348:../Libraries/CMSIS/Include/core_cmInstr.h **** {
 730              		.loc 2 348 61 view .LVU207
 731              	.LBB149:
 350:../Libraries/CMSIS/Include/core_cmInstr.h ****   
 732              		.loc 2 350 3 view .LVU208
 352:../Libraries/CMSIS/Include/core_cmInstr.h ****   return(result);
 733              		.loc 2 352 3 view .LVU209
 734 019e 2368     		ldr	r3, [r4]	@ MEM[(uint32_t *)Key_75(D)], MEM[(uint32_t *)Key_75(D)]
 735              		.syntax unified
 736              	@ 352 "../Libraries/CMSIS/Include/core_cmInstr.h" 1
 737 01a0 1BBA     		rev r3, r3	@ result, MEM[(uint32_t *)Key_75(D)]
 738              	@ 0 "" 2
 739              	.LVL72:
 740              		.loc 2 353 3 view .LVU210
 741              		.loc 2 353 3 is_stmt 0 view .LVU211
 742              		.thumb
 743              		.syntax unified
 744              	.LBE149:
 745              	.LBE148:
 746              	@ ../Libraries/STM32F4xx_StdPeriph_Driver/src/stm32f4xx_cryp_aes.c:142:     AES_CRYP_KeyInitStructu
 142:../Libraries/STM32F4xx_StdPeriph_Driver/src/stm32f4xx_cryp_aes.c ****     keyaddr+=4;
 747              		.loc 1 142 45 view .LVU212
 748 01a2 0493     		str	r3, [sp, #16]	@ result, AES_CRYP_KeyInitStructure.CRYP_Key0Left
 143:../Libraries/STM32F4xx_StdPeriph_Driver/src/stm32f4xx_cryp_aes.c ****     AES_CRYP_KeyInitStructure.CRYP_Key0Right= __REV(*(uint32_t*)(keyaddr));
 749              		.loc 1 143 5 is_stmt 1 view .LVU213
 750              	.LVL73:
 144:../Libraries/STM32F4xx_StdPeriph_Driver/src/stm32f4xx_cryp_aes.c ****     keyaddr+=4;
 751              		.loc 1 144 5 view .LVU214
 752              	.LBB150:
 753              	.LBI150:
 348:../Libraries/CMSIS/Include/core_cmInstr.h **** {
 754              		.loc 2 348 61 view .LVU215
 755              	.LBB151:
 350:../Libraries/CMSIS/Include/core_cmInstr.h ****   
 756              		.loc 2 350 3 view .LVU216
 352:../Libraries/CMSIS/Include/core_cmInstr.h ****   return(result);
 757              		.loc 2 352 3 view .LVU217
 758 01a4 6368     		ldr	r3, [r4, #4]	@ *keyaddr.11_20, *keyaddr.11_20
 759              		.syntax unified
 760              	@ 352 "../Libraries/CMSIS/Include/core_cmInstr.h" 1
 761 01a6 1BBA     		rev r3, r3	@ result, *keyaddr.11_20
 762              	@ 0 "" 2
 763              	.LVL74:
 764              		.loc 2 353 3 view .LVU218
 765              		.loc 2 353 3 is_stmt 0 view .LVU219
 766              		.thumb
 767              		.syntax unified
 768              	.LBE151:
 769              	.LBE150:
 770              	@ ../Libraries/STM32F4xx_StdPeriph_Driver/src/stm32f4xx_cryp_aes.c:144:     AES_CRYP_KeyInitStructu
 144:../Libraries/STM32F4xx_StdPeriph_Driver/src/stm32f4xx_cryp_aes.c ****     keyaddr+=4;
 771              		.loc 1 144 45 view .LVU220
 772 01a8 0593     		str	r3, [sp, #20]	@ result, AES_CRYP_KeyInitStructure.CRYP_Key0Right
 145:../Libraries/STM32F4xx_StdPeriph_Driver/src/stm32f4xx_cryp_aes.c ****     AES_CRYP_KeyInitStructure.CRYP_Key1Left = __REV(*(uint32_t*)(keyaddr));
 773              		.loc 1 145 5 is_stmt 1 view .LVU221
 774              	.LVL75:
 146:../Libraries/STM32F4xx_StdPeriph_Driver/src/stm32f4xx_cryp_aes.c ****     keyaddr+=4;
ARM GAS  C:\Users\admin\AppData\Local\Temp\ccAAMi0y.s 			page 28


 775              		.loc 1 146 5 view .LVU222
 776              	.LBB152:
 777              	.LBI152:
 348:../Libraries/CMSIS/Include/core_cmInstr.h **** {
 778              		.loc 2 348 61 view .LVU223
 779              	.LBB153:
 350:../Libraries/CMSIS/Include/core_cmInstr.h ****   
 780              		.loc 2 350 3 view .LVU224
 352:../Libraries/CMSIS/Include/core_cmInstr.h ****   return(result);
 781              		.loc 2 352 3 view .LVU225
 782 01aa A368     		ldr	r3, [r4, #8]	@ *keyaddr.12_22, *keyaddr.12_22
 783              		.syntax unified
 784              	@ 352 "../Libraries/CMSIS/Include/core_cmInstr.h" 1
 785 01ac 1BBA     		rev r3, r3	@ result, *keyaddr.12_22
 786              	@ 0 "" 2
 787              	.LVL76:
 788              		.loc 2 353 3 view .LVU226
 789              		.loc 2 353 3 is_stmt 0 view .LVU227
 790              		.thumb
 791              		.syntax unified
 792              	.LBE153:
 793              	.LBE152:
 794              	@ ../Libraries/STM32F4xx_StdPeriph_Driver/src/stm32f4xx_cryp_aes.c:146:     AES_CRYP_KeyInitStructu
 146:../Libraries/STM32F4xx_StdPeriph_Driver/src/stm32f4xx_cryp_aes.c ****     keyaddr+=4;
 795              		.loc 1 146 45 view .LVU228
 796 01ae 0693     		str	r3, [sp, #24]	@ result, AES_CRYP_KeyInitStructure.CRYP_Key1Left
 147:../Libraries/STM32F4xx_StdPeriph_Driver/src/stm32f4xx_cryp_aes.c ****     AES_CRYP_KeyInitStructure.CRYP_Key1Right= __REV(*(uint32_t*)(keyaddr));
 797              		.loc 1 147 5 is_stmt 1 view .LVU229
 798              	.LVL77:
 148:../Libraries/STM32F4xx_StdPeriph_Driver/src/stm32f4xx_cryp_aes.c ****     keyaddr+=4;
 799              		.loc 1 148 5 view .LVU230
 800              	.LBB154:
 801              	.LBI154:
 348:../Libraries/CMSIS/Include/core_cmInstr.h **** {
 802              		.loc 2 348 61 view .LVU231
 803              	.LBB155:
 350:../Libraries/CMSIS/Include/core_cmInstr.h ****   
 804              		.loc 2 350 3 view .LVU232
 352:../Libraries/CMSIS/Include/core_cmInstr.h ****   return(result);
 805              		.loc 2 352 3 view .LVU233
 806 01b0 E368     		ldr	r3, [r4, #12]	@ *keyaddr.13_24, *keyaddr.13_24
 807              		.syntax unified
 808              	@ 352 "../Libraries/CMSIS/Include/core_cmInstr.h" 1
 809 01b2 1BBA     		rev r3, r3	@ result, *keyaddr.13_24
 810              	@ 0 "" 2
 811              	.LVL78:
 812              		.loc 2 353 3 view .LVU234
 813              		.loc 2 353 3 is_stmt 0 view .LVU235
 814              		.thumb
 815              		.syntax unified
 816              	.LBE155:
 817              	.LBE154:
 818              	@ ../Libraries/STM32F4xx_StdPeriph_Driver/src/stm32f4xx_cryp_aes.c:148:     AES_CRYP_KeyInitStructu
 148:../Libraries/STM32F4xx_StdPeriph_Driver/src/stm32f4xx_cryp_aes.c ****     keyaddr+=4;
 819              		.loc 1 148 45 view .LVU236
 820 01b4 0793     		str	r3, [sp, #28]	@ result, AES_CRYP_KeyInitStructure.CRYP_Key1Right
 149:../Libraries/STM32F4xx_StdPeriph_Driver/src/stm32f4xx_cryp_aes.c ****     AES_CRYP_KeyInitStructure.CRYP_Key2Left = __REV(*(uint32_t*)(keyaddr));
ARM GAS  C:\Users\admin\AppData\Local\Temp\ccAAMi0y.s 			page 29


 821              		.loc 1 149 5 is_stmt 1 view .LVU237
 822              	.LVL79:
 150:../Libraries/STM32F4xx_StdPeriph_Driver/src/stm32f4xx_cryp_aes.c ****     keyaddr+=4;
 823              		.loc 1 150 5 view .LVU238
 824              	.LBB156:
 825              	.LBI156:
 348:../Libraries/CMSIS/Include/core_cmInstr.h **** {
 826              		.loc 2 348 61 view .LVU239
 827              	.LBB157:
 350:../Libraries/CMSIS/Include/core_cmInstr.h ****   
 828              		.loc 2 350 3 view .LVU240
 352:../Libraries/CMSIS/Include/core_cmInstr.h ****   return(result);
 829              		.loc 2 352 3 view .LVU241
 830 01b6 2369     		ldr	r3, [r4, #16]	@ *keyaddr.14_26, *keyaddr.14_26
 831              		.syntax unified
 832              	@ 352 "../Libraries/CMSIS/Include/core_cmInstr.h" 1
 833 01b8 1BBA     		rev r3, r3	@ result, *keyaddr.14_26
 834              	@ 0 "" 2
 835              	.LVL80:
 836              		.loc 2 353 3 view .LVU242
 837              		.loc 2 353 3 is_stmt 0 view .LVU243
 838              		.thumb
 839              		.syntax unified
 840              	.LBE157:
 841              	.LBE156:
 842              	@ ../Libraries/STM32F4xx_StdPeriph_Driver/src/stm32f4xx_cryp_aes.c:150:     AES_CRYP_KeyInitStructu
 150:../Libraries/STM32F4xx_StdPeriph_Driver/src/stm32f4xx_cryp_aes.c ****     keyaddr+=4;
 843              		.loc 1 150 45 view .LVU244
 844 01ba 0893     		str	r3, [sp, #32]	@ result, AES_CRYP_KeyInitStructure.CRYP_Key2Left
 151:../Libraries/STM32F4xx_StdPeriph_Driver/src/stm32f4xx_cryp_aes.c ****     AES_CRYP_KeyInitStructure.CRYP_Key2Right= __REV(*(uint32_t*)(keyaddr));
 845              		.loc 1 151 5 is_stmt 1 view .LVU245
 846              	.LVL81:
 152:../Libraries/STM32F4xx_StdPeriph_Driver/src/stm32f4xx_cryp_aes.c ****     keyaddr+=4;
 847              		.loc 1 152 5 view .LVU246
 848              	.LBB158:
 849              	.LBI158:
 348:../Libraries/CMSIS/Include/core_cmInstr.h **** {
 850              		.loc 2 348 61 view .LVU247
 851              	.LBB159:
 350:../Libraries/CMSIS/Include/core_cmInstr.h ****   
 852              		.loc 2 350 3 view .LVU248
 352:../Libraries/CMSIS/Include/core_cmInstr.h ****   return(result);
 853              		.loc 2 352 3 view .LVU249
 854 01bc 6369     		ldr	r3, [r4, #20]	@ *keyaddr.15_28, *keyaddr.15_28
 855              		.syntax unified
 856              	@ 352 "../Libraries/CMSIS/Include/core_cmInstr.h" 1
 857 01be 1BBA     		rev r3, r3	@ result, *keyaddr.15_28
 858              	@ 0 "" 2
 859              	.LVL82:
 860              		.loc 2 353 3 view .LVU250
 861              		.loc 2 353 3 is_stmt 0 view .LVU251
 862              		.thumb
 863              		.syntax unified
 864              	.LBE159:
 865              	.LBE158:
 866              	@ ../Libraries/STM32F4xx_StdPeriph_Driver/src/stm32f4xx_cryp_aes.c:152:     AES_CRYP_KeyInitStructu
 152:../Libraries/STM32F4xx_StdPeriph_Driver/src/stm32f4xx_cryp_aes.c ****     keyaddr+=4;
ARM GAS  C:\Users\admin\AppData\Local\Temp\ccAAMi0y.s 			page 30


 867              		.loc 1 152 45 view .LVU252
 868 01c0 0993     		str	r3, [sp, #36]	@ result, AES_CRYP_KeyInitStructure.CRYP_Key2Right
 153:../Libraries/STM32F4xx_StdPeriph_Driver/src/stm32f4xx_cryp_aes.c ****     AES_CRYP_KeyInitStructure.CRYP_Key3Left = __REV(*(uint32_t*)(keyaddr));
 869              		.loc 1 153 5 is_stmt 1 view .LVU253
 870              	.LVL83:
 154:../Libraries/STM32F4xx_StdPeriph_Driver/src/stm32f4xx_cryp_aes.c ****     keyaddr+=4;
 871              		.loc 1 154 5 view .LVU254
 872              	.LBB160:
 873              	.LBI160:
 348:../Libraries/CMSIS/Include/core_cmInstr.h **** {
 874              		.loc 2 348 61 view .LVU255
 875              	.LBB161:
 350:../Libraries/CMSIS/Include/core_cmInstr.h ****   
 876              		.loc 2 350 3 view .LVU256
 352:../Libraries/CMSIS/Include/core_cmInstr.h ****   return(result);
 877              		.loc 2 352 3 view .LVU257
 878 01c2 A369     		ldr	r3, [r4, #24]	@ *keyaddr.16_30, *keyaddr.16_30
 879              		.syntax unified
 880              	@ 352 "../Libraries/CMSIS/Include/core_cmInstr.h" 1
 881 01c4 1BBA     		rev r3, r3	@ result, *keyaddr.16_30
 882              	@ 0 "" 2
 883              	.LVL84:
 884              		.loc 2 353 3 view .LVU258
 885              		.loc 2 353 3 is_stmt 0 view .LVU259
 886              		.thumb
 887              		.syntax unified
 888              	.LBE161:
 889              	.LBE160:
 890              	@ ../Libraries/STM32F4xx_StdPeriph_Driver/src/stm32f4xx_cryp_aes.c:154:     AES_CRYP_KeyInitStructu
 154:../Libraries/STM32F4xx_StdPeriph_Driver/src/stm32f4xx_cryp_aes.c ****     keyaddr+=4;
 891              		.loc 1 154 45 view .LVU260
 892 01c6 0A93     		str	r3, [sp, #40]	@ result, AES_CRYP_KeyInitStructure.CRYP_Key3Left
 155:../Libraries/STM32F4xx_StdPeriph_Driver/src/stm32f4xx_cryp_aes.c ****     AES_CRYP_KeyInitStructure.CRYP_Key3Right= __REV(*(uint32_t*)(keyaddr));
 893              		.loc 1 155 5 is_stmt 1 view .LVU261
 894              	.LVL85:
 156:../Libraries/STM32F4xx_StdPeriph_Driver/src/stm32f4xx_cryp_aes.c ****     break;
 895              		.loc 1 156 5 view .LVU262
 896              	.LBB162:
 897              	.LBI162:
 348:../Libraries/CMSIS/Include/core_cmInstr.h **** {
 898              		.loc 2 348 61 view .LVU263
 899              	.LBB163:
 350:../Libraries/CMSIS/Include/core_cmInstr.h ****   
 900              		.loc 2 350 3 view .LVU264
 352:../Libraries/CMSIS/Include/core_cmInstr.h ****   return(result);
 901              		.loc 2 352 3 view .LVU265
 902 01c8 E369     		ldr	r3, [r4, #28]	@ *keyaddr.17_32, *keyaddr.17_32
 903              		.syntax unified
 904              	@ 352 "../Libraries/CMSIS/Include/core_cmInstr.h" 1
 905 01ca 1BBA     		rev r3, r3	@ result, *keyaddr.17_32
 906              	@ 0 "" 2
 907              	.LVL86:
 908              		.loc 2 353 3 view .LVU266
 909              		.loc 2 353 3 is_stmt 0 view .LVU267
 910              		.thumb
 911              		.syntax unified
 912              	.LBE163:
ARM GAS  C:\Users\admin\AppData\Local\Temp\ccAAMi0y.s 			page 31


 913              	.LBE162:
 914              	@ ../Libraries/STM32F4xx_StdPeriph_Driver/src/stm32f4xx_cryp_aes.c:156:     AES_CRYP_KeyInitStructu
 156:../Libraries/STM32F4xx_StdPeriph_Driver/src/stm32f4xx_cryp_aes.c ****     break;
 915              		.loc 1 156 45 view .LVU268
 916 01cc 0B93     		str	r3, [sp, #44]	@ result, AES_CRYP_KeyInitStructure.CRYP_Key3Right
 157:../Libraries/STM32F4xx_StdPeriph_Driver/src/stm32f4xx_cryp_aes.c ****     default:
 917              		.loc 1 157 5 is_stmt 1 view .LVU269
 918 01ce 31E7     		b	.L4		@
 919              	.LVL87:
 920              	.L8:
 194:../Libraries/STM32F4xx_StdPeriph_Driver/src/stm32f4xx_cryp_aes.c ****     }
 921              		.loc 1 194 7 view .LVU270
 922              	@ ../Libraries/STM32F4xx_StdPeriph_Driver/src/stm32f4xx_cryp_aes.c:194:       AES_CRYP_InitStructur
 194:../Libraries/STM32F4xx_StdPeriph_Driver/src/stm32f4xx_cryp_aes.c ****     }
 923              		.loc 1 194 43 is_stmt 0 view .LVU271
 924 01d0 0423     		movs	r3, #4	@ tmp264,
 925 01d2 ADF80830 		strh	r3, [sp, #8]	@ movhi	@ tmp264, AES_CRYP_InitStructure.CRYP_AlgoDir
 926 01d6 63E7     		b	.L10		@
 927              	.L29:
 928              		.align	2
 929              	.L28:
 930 01d8 04003800 		.word	3670020
 931 01dc 20008000 		.word	8388640
 932              		.cfi_endproc
 933              	.LFE110:
 934              		.size	CRYP_AES_ECB, .-CRYP_AES_ECB
 935              		.section	.text.CRYP_AES_CBC,"ax",%progbits
 936              		.align	1
 937              		.p2align 2,,3
 938              		.global	CRYP_AES_CBC
 939              		.syntax unified
 940              		.thumb
 941              		.thumb_func
 942              		.type	CRYP_AES_CBC, %function
 943              	CRYP_AES_CBC:
 944              	.LVL88:
 945              	.LFB111:
 262:../Libraries/STM32F4xx_StdPeriph_Driver/src/stm32f4xx_cryp_aes.c **** 
 263:../Libraries/STM32F4xx_StdPeriph_Driver/src/stm32f4xx_cryp_aes.c **** /**
 264:../Libraries/STM32F4xx_StdPeriph_Driver/src/stm32f4xx_cryp_aes.c ****   * @brief  Encrypt and decrypt using AES in CBC Mode
 265:../Libraries/STM32F4xx_StdPeriph_Driver/src/stm32f4xx_cryp_aes.c ****   * @param  Mode: encryption or decryption Mode.
 266:../Libraries/STM32F4xx_StdPeriph_Driver/src/stm32f4xx_cryp_aes.c ****   *          This parameter can be one of the following values:
 267:../Libraries/STM32F4xx_StdPeriph_Driver/src/stm32f4xx_cryp_aes.c ****   *            @arg MODE_ENCRYPT: Encryption
 268:../Libraries/STM32F4xx_StdPeriph_Driver/src/stm32f4xx_cryp_aes.c ****   *            @arg MODE_DECRYPT: Decryption
 269:../Libraries/STM32F4xx_StdPeriph_Driver/src/stm32f4xx_cryp_aes.c ****   * @param  InitVectors: Initialisation Vectors used for AES algorithm.
 270:../Libraries/STM32F4xx_StdPeriph_Driver/src/stm32f4xx_cryp_aes.c ****   * @param  Key: Key used for AES algorithm.
 271:../Libraries/STM32F4xx_StdPeriph_Driver/src/stm32f4xx_cryp_aes.c ****   * @param  Keysize: length of the Key, must be a 128, 192 or 256.
 272:../Libraries/STM32F4xx_StdPeriph_Driver/src/stm32f4xx_cryp_aes.c ****   * @param  Input: pointer to the Input buffer.
 273:../Libraries/STM32F4xx_StdPeriph_Driver/src/stm32f4xx_cryp_aes.c ****   * @param  Ilength: length of the Input buffer, must be a multiple of 16.
 274:../Libraries/STM32F4xx_StdPeriph_Driver/src/stm32f4xx_cryp_aes.c ****   * @param  Output: pointer to the returned buffer.
 275:../Libraries/STM32F4xx_StdPeriph_Driver/src/stm32f4xx_cryp_aes.c ****   * @retval An ErrorStatus enumeration value:
 276:../Libraries/STM32F4xx_StdPeriph_Driver/src/stm32f4xx_cryp_aes.c ****   *          - SUCCESS: Operation done
 277:../Libraries/STM32F4xx_StdPeriph_Driver/src/stm32f4xx_cryp_aes.c ****   *          - ERROR: Operation failed
 278:../Libraries/STM32F4xx_StdPeriph_Driver/src/stm32f4xx_cryp_aes.c ****   */
 279:../Libraries/STM32F4xx_StdPeriph_Driver/src/stm32f4xx_cryp_aes.c **** ErrorStatus CRYP_AES_CBC(uint8_t Mode, uint8_t InitVectors[16], uint8_t *Key,
 280:../Libraries/STM32F4xx_StdPeriph_Driver/src/stm32f4xx_cryp_aes.c ****                          uint16_t Keysize, uint8_t *Input, uint32_t Ilength,
 281:../Libraries/STM32F4xx_StdPeriph_Driver/src/stm32f4xx_cryp_aes.c ****                          uint8_t *Output)
ARM GAS  C:\Users\admin\AppData\Local\Temp\ccAAMi0y.s 			page 32


 282:../Libraries/STM32F4xx_StdPeriph_Driver/src/stm32f4xx_cryp_aes.c **** {
 946              		.loc 1 282 1 is_stmt 1 view -0
 947              		.cfi_startproc
 948              		@ args = 12, pretend = 0, frame = 64
 949              		@ frame_needed = 0, uses_anonymous_args = 0
 950              		.loc 1 282 1 is_stmt 0 view .LVU273
 951 0000 2DE9F047 		push	{r4, r5, r6, r7, r8, r9, r10, lr}	@
 952              		.cfi_def_cfa_offset 32
 953              		.cfi_offset 4, -32
 954              		.cfi_offset 5, -28
 955              		.cfi_offset 6, -24
 956              		.cfi_offset 7, -20
 957              		.cfi_offset 8, -16
 958              		.cfi_offset 9, -12
 959              		.cfi_offset 10, -8
 960              		.cfi_offset 14, -4
 961 0004 90B0     		sub	sp, sp, #64	@,,
 962              		.cfi_def_cfa_offset 96
 963              	@ ../Libraries/STM32F4xx_StdPeriph_Driver/src/stm32f4xx_cryp_aes.c:282: {
 964              		.loc 1 282 1 view .LVU274
 965 0006 1E46     		mov	r6, r3	@ Keysize, tmp317
 966 0008 8146     		mov	r9, r0	@ Mode, tmp314
 967              	@ ../Libraries/STM32F4xx_StdPeriph_Driver/src/stm32f4xx_cryp_aes.c:286:   __IO uint32_t counter = 0
 283:../Libraries/STM32F4xx_StdPeriph_Driver/src/stm32f4xx_cryp_aes.c ****   CRYP_InitTypeDef AES_CRYP_InitStructure;
 284:../Libraries/STM32F4xx_StdPeriph_Driver/src/stm32f4xx_cryp_aes.c ****   CRYP_KeyInitTypeDef AES_CRYP_KeyInitStructure;
 285:../Libraries/STM32F4xx_StdPeriph_Driver/src/stm32f4xx_cryp_aes.c ****   CRYP_IVInitTypeDef AES_CRYP_IVInitStructure;
 286:../Libraries/STM32F4xx_StdPeriph_Driver/src/stm32f4xx_cryp_aes.c ****   __IO uint32_t counter = 0;
 968              		.loc 1 286 17 view .LVU275
 969 000a 4FF0000A 		mov	r10, #0	@ tmp229,
 970              	@ ../Libraries/STM32F4xx_StdPeriph_Driver/src/stm32f4xx_cryp_aes.c:296:   CRYP_KeyStructInit(&AES_C
 287:../Libraries/STM32F4xx_StdPeriph_Driver/src/stm32f4xx_cryp_aes.c ****   uint32_t busystatus = 0;
 288:../Libraries/STM32F4xx_StdPeriph_Driver/src/stm32f4xx_cryp_aes.c ****   ErrorStatus status = SUCCESS;
 289:../Libraries/STM32F4xx_StdPeriph_Driver/src/stm32f4xx_cryp_aes.c ****   uint32_t keyaddr    = (uint32_t)Key;
 290:../Libraries/STM32F4xx_StdPeriph_Driver/src/stm32f4xx_cryp_aes.c ****   uint32_t inputaddr  = (uint32_t)Input;
 291:../Libraries/STM32F4xx_StdPeriph_Driver/src/stm32f4xx_cryp_aes.c ****   uint32_t outputaddr = (uint32_t)Output;
 292:../Libraries/STM32F4xx_StdPeriph_Driver/src/stm32f4xx_cryp_aes.c ****   uint32_t ivaddr     = (uint32_t)InitVectors;
 293:../Libraries/STM32F4xx_StdPeriph_Driver/src/stm32f4xx_cryp_aes.c ****   uint32_t i = 0;
 294:../Libraries/STM32F4xx_StdPeriph_Driver/src/stm32f4xx_cryp_aes.c **** 
 295:../Libraries/STM32F4xx_StdPeriph_Driver/src/stm32f4xx_cryp_aes.c ****   /* Crypto structures initialisation*/
 296:../Libraries/STM32F4xx_StdPeriph_Driver/src/stm32f4xx_cryp_aes.c ****   CRYP_KeyStructInit(&AES_CRYP_KeyInitStructure);
 971              		.loc 1 296 3 view .LVU276
 972 000e 08A8     		add	r0, sp, #32	@ tmp325,,
 973              	.LVL89:
 974              	@ ../Libraries/STM32F4xx_StdPeriph_Driver/src/stm32f4xx_cryp_aes.c:282: {
 282:../Libraries/STM32F4xx_StdPeriph_Driver/src/stm32f4xx_cryp_aes.c ****   CRYP_InitTypeDef AES_CRYP_InitStructure;
 975              		.loc 1 282 1 view .LVU277
 976 0010 189F     		ldr	r7, [sp, #96]	@ Input, Input
 977 0012 DDF86480 		ldr	r8, [sp, #100]	@ Ilength, Ilength
 283:../Libraries/STM32F4xx_StdPeriph_Driver/src/stm32f4xx_cryp_aes.c ****   CRYP_InitTypeDef AES_CRYP_InitStructure;
 978              		.loc 1 283 3 is_stmt 1 view .LVU278
 284:../Libraries/STM32F4xx_StdPeriph_Driver/src/stm32f4xx_cryp_aes.c ****   CRYP_IVInitTypeDef AES_CRYP_IVInitStructure;
 979              		.loc 1 284 3 view .LVU279
 285:../Libraries/STM32F4xx_StdPeriph_Driver/src/stm32f4xx_cryp_aes.c ****   __IO uint32_t counter = 0;
 980              		.loc 1 285 3 view .LVU280
 286:../Libraries/STM32F4xx_StdPeriph_Driver/src/stm32f4xx_cryp_aes.c ****   uint32_t busystatus = 0;
 981              		.loc 1 286 3 view .LVU281
 287:../Libraries/STM32F4xx_StdPeriph_Driver/src/stm32f4xx_cryp_aes.c ****   ErrorStatus status = SUCCESS;
ARM GAS  C:\Users\admin\AppData\Local\Temp\ccAAMi0y.s 			page 33


 982              		.loc 1 287 3 view .LVU282
 983              	.LVL90:
 288:../Libraries/STM32F4xx_StdPeriph_Driver/src/stm32f4xx_cryp_aes.c ****   uint32_t keyaddr    = (uint32_t)Key;
 984              		.loc 1 288 3 view .LVU283
 289:../Libraries/STM32F4xx_StdPeriph_Driver/src/stm32f4xx_cryp_aes.c ****   uint32_t inputaddr  = (uint32_t)Input;
 985              		.loc 1 289 3 view .LVU284
 986              	@ ../Libraries/STM32F4xx_StdPeriph_Driver/src/stm32f4xx_cryp_aes.c:286:   __IO uint32_t counter = 0
 286:../Libraries/STM32F4xx_StdPeriph_Driver/src/stm32f4xx_cryp_aes.c ****   uint32_t busystatus = 0;
 987              		.loc 1 286 17 is_stmt 0 view .LVU285
 988 0016 CDF804A0 		str	r10, [sp, #4]	@ tmp229, counter
 989              	@ ../Libraries/STM32F4xx_StdPeriph_Driver/src/stm32f4xx_cryp_aes.c:282: {
 282:../Libraries/STM32F4xx_StdPeriph_Driver/src/stm32f4xx_cryp_aes.c ****   CRYP_InitTypeDef AES_CRYP_InitStructure;
 990              		.loc 1 282 1 view .LVU286
 991 001a 0D46     		mov	r5, r1	@ InitVectors, tmp315
 992 001c 1446     		mov	r4, r2	@ Key, tmp316
 993              	.LVL91:
 290:../Libraries/STM32F4xx_StdPeriph_Driver/src/stm32f4xx_cryp_aes.c ****   uint32_t outputaddr = (uint32_t)Output;
 994              		.loc 1 290 3 is_stmt 1 view .LVU287
 291:../Libraries/STM32F4xx_StdPeriph_Driver/src/stm32f4xx_cryp_aes.c ****   uint32_t ivaddr     = (uint32_t)InitVectors;
 995              		.loc 1 291 3 view .LVU288
 292:../Libraries/STM32F4xx_StdPeriph_Driver/src/stm32f4xx_cryp_aes.c ****   uint32_t i = 0;
 996              		.loc 1 292 3 view .LVU289
 293:../Libraries/STM32F4xx_StdPeriph_Driver/src/stm32f4xx_cryp_aes.c **** 
 997              		.loc 1 293 3 view .LVU290
 998              		.loc 1 296 3 view .LVU291
 999 001e FFF7FEFF 		bl	CRYP_KeyStructInit		@
 1000              	.LVL92:
 297:../Libraries/STM32F4xx_StdPeriph_Driver/src/stm32f4xx_cryp_aes.c **** 
 298:../Libraries/STM32F4xx_StdPeriph_Driver/src/stm32f4xx_cryp_aes.c ****   switch(Keysize)
 1001              		.loc 1 298 3 view .LVU292
 1002 0022 C02E     		cmp	r6, #192	@ Keysize,
 1003 0024 00F0D580 		beq	.L31		@,
 1004 0028 B6F5807F 		cmp	r6, #256	@ Keysize,
 1005 002c 00F0B480 		beq	.L32		@,
 1006 0030 802E     		cmp	r6, #128	@ Keysize,
 1007 0032 00F09E80 		beq	.L53		@,
 1008              	.LVL93:
 1009              	.L33:
 299:../Libraries/STM32F4xx_StdPeriph_Driver/src/stm32f4xx_cryp_aes.c ****   {
 300:../Libraries/STM32F4xx_StdPeriph_Driver/src/stm32f4xx_cryp_aes.c ****     case 128:
 301:../Libraries/STM32F4xx_StdPeriph_Driver/src/stm32f4xx_cryp_aes.c ****     AES_CRYP_InitStructure.CRYP_KeySize = CRYP_KeySize_128b;
 302:../Libraries/STM32F4xx_StdPeriph_Driver/src/stm32f4xx_cryp_aes.c ****     AES_CRYP_KeyInitStructure.CRYP_Key2Left = __REV(*(uint32_t*)(keyaddr));
 303:../Libraries/STM32F4xx_StdPeriph_Driver/src/stm32f4xx_cryp_aes.c ****     keyaddr+=4;
 304:../Libraries/STM32F4xx_StdPeriph_Driver/src/stm32f4xx_cryp_aes.c ****     AES_CRYP_KeyInitStructure.CRYP_Key2Right= __REV(*(uint32_t*)(keyaddr));
 305:../Libraries/STM32F4xx_StdPeriph_Driver/src/stm32f4xx_cryp_aes.c ****     keyaddr+=4;
 306:../Libraries/STM32F4xx_StdPeriph_Driver/src/stm32f4xx_cryp_aes.c ****     AES_CRYP_KeyInitStructure.CRYP_Key3Left = __REV(*(uint32_t*)(keyaddr));
 307:../Libraries/STM32F4xx_StdPeriph_Driver/src/stm32f4xx_cryp_aes.c ****     keyaddr+=4;
 308:../Libraries/STM32F4xx_StdPeriph_Driver/src/stm32f4xx_cryp_aes.c ****     AES_CRYP_KeyInitStructure.CRYP_Key3Right= __REV(*(uint32_t*)(keyaddr));
 309:../Libraries/STM32F4xx_StdPeriph_Driver/src/stm32f4xx_cryp_aes.c ****     break;
 310:../Libraries/STM32F4xx_StdPeriph_Driver/src/stm32f4xx_cryp_aes.c ****     case 192:
 311:../Libraries/STM32F4xx_StdPeriph_Driver/src/stm32f4xx_cryp_aes.c ****     AES_CRYP_InitStructure.CRYP_KeySize  = CRYP_KeySize_192b;
 312:../Libraries/STM32F4xx_StdPeriph_Driver/src/stm32f4xx_cryp_aes.c ****     AES_CRYP_KeyInitStructure.CRYP_Key1Left = __REV(*(uint32_t*)(keyaddr));
 313:../Libraries/STM32F4xx_StdPeriph_Driver/src/stm32f4xx_cryp_aes.c ****     keyaddr+=4;
 314:../Libraries/STM32F4xx_StdPeriph_Driver/src/stm32f4xx_cryp_aes.c ****     AES_CRYP_KeyInitStructure.CRYP_Key1Right= __REV(*(uint32_t*)(keyaddr));
 315:../Libraries/STM32F4xx_StdPeriph_Driver/src/stm32f4xx_cryp_aes.c ****     keyaddr+=4;
 316:../Libraries/STM32F4xx_StdPeriph_Driver/src/stm32f4xx_cryp_aes.c ****     AES_CRYP_KeyInitStructure.CRYP_Key2Left = __REV(*(uint32_t*)(keyaddr));
 317:../Libraries/STM32F4xx_StdPeriph_Driver/src/stm32f4xx_cryp_aes.c ****     keyaddr+=4;
ARM GAS  C:\Users\admin\AppData\Local\Temp\ccAAMi0y.s 			page 34


 318:../Libraries/STM32F4xx_StdPeriph_Driver/src/stm32f4xx_cryp_aes.c ****     AES_CRYP_KeyInitStructure.CRYP_Key2Right= __REV(*(uint32_t*)(keyaddr));
 319:../Libraries/STM32F4xx_StdPeriph_Driver/src/stm32f4xx_cryp_aes.c ****     keyaddr+=4;
 320:../Libraries/STM32F4xx_StdPeriph_Driver/src/stm32f4xx_cryp_aes.c ****     AES_CRYP_KeyInitStructure.CRYP_Key3Left = __REV(*(uint32_t*)(keyaddr));
 321:../Libraries/STM32F4xx_StdPeriph_Driver/src/stm32f4xx_cryp_aes.c ****     keyaddr+=4;
 322:../Libraries/STM32F4xx_StdPeriph_Driver/src/stm32f4xx_cryp_aes.c ****     AES_CRYP_KeyInitStructure.CRYP_Key3Right= __REV(*(uint32_t*)(keyaddr));
 323:../Libraries/STM32F4xx_StdPeriph_Driver/src/stm32f4xx_cryp_aes.c ****     break;
 324:../Libraries/STM32F4xx_StdPeriph_Driver/src/stm32f4xx_cryp_aes.c ****     case 256:
 325:../Libraries/STM32F4xx_StdPeriph_Driver/src/stm32f4xx_cryp_aes.c ****     AES_CRYP_InitStructure.CRYP_KeySize  = CRYP_KeySize_256b;
 326:../Libraries/STM32F4xx_StdPeriph_Driver/src/stm32f4xx_cryp_aes.c ****     AES_CRYP_KeyInitStructure.CRYP_Key0Left = __REV(*(uint32_t*)(keyaddr));
 327:../Libraries/STM32F4xx_StdPeriph_Driver/src/stm32f4xx_cryp_aes.c ****     keyaddr+=4;
 328:../Libraries/STM32F4xx_StdPeriph_Driver/src/stm32f4xx_cryp_aes.c ****     AES_CRYP_KeyInitStructure.CRYP_Key0Right= __REV(*(uint32_t*)(keyaddr));
 329:../Libraries/STM32F4xx_StdPeriph_Driver/src/stm32f4xx_cryp_aes.c ****     keyaddr+=4;
 330:../Libraries/STM32F4xx_StdPeriph_Driver/src/stm32f4xx_cryp_aes.c ****     AES_CRYP_KeyInitStructure.CRYP_Key1Left = __REV(*(uint32_t*)(keyaddr));
 331:../Libraries/STM32F4xx_StdPeriph_Driver/src/stm32f4xx_cryp_aes.c ****     keyaddr+=4;
 332:../Libraries/STM32F4xx_StdPeriph_Driver/src/stm32f4xx_cryp_aes.c ****     AES_CRYP_KeyInitStructure.CRYP_Key1Right= __REV(*(uint32_t*)(keyaddr));
 333:../Libraries/STM32F4xx_StdPeriph_Driver/src/stm32f4xx_cryp_aes.c ****     keyaddr+=4;
 334:../Libraries/STM32F4xx_StdPeriph_Driver/src/stm32f4xx_cryp_aes.c ****     AES_CRYP_KeyInitStructure.CRYP_Key2Left = __REV(*(uint32_t*)(keyaddr));
 335:../Libraries/STM32F4xx_StdPeriph_Driver/src/stm32f4xx_cryp_aes.c ****     keyaddr+=4;
 336:../Libraries/STM32F4xx_StdPeriph_Driver/src/stm32f4xx_cryp_aes.c ****     AES_CRYP_KeyInitStructure.CRYP_Key2Right= __REV(*(uint32_t*)(keyaddr));
 337:../Libraries/STM32F4xx_StdPeriph_Driver/src/stm32f4xx_cryp_aes.c ****     keyaddr+=4;
 338:../Libraries/STM32F4xx_StdPeriph_Driver/src/stm32f4xx_cryp_aes.c ****     AES_CRYP_KeyInitStructure.CRYP_Key3Left = __REV(*(uint32_t*)(keyaddr));
 339:../Libraries/STM32F4xx_StdPeriph_Driver/src/stm32f4xx_cryp_aes.c ****     keyaddr+=4;
 340:../Libraries/STM32F4xx_StdPeriph_Driver/src/stm32f4xx_cryp_aes.c ****     AES_CRYP_KeyInitStructure.CRYP_Key3Right= __REV(*(uint32_t*)(keyaddr));
 341:../Libraries/STM32F4xx_StdPeriph_Driver/src/stm32f4xx_cryp_aes.c ****     break;
 342:../Libraries/STM32F4xx_StdPeriph_Driver/src/stm32f4xx_cryp_aes.c ****     default:
 343:../Libraries/STM32F4xx_StdPeriph_Driver/src/stm32f4xx_cryp_aes.c ****     break;
 344:../Libraries/STM32F4xx_StdPeriph_Driver/src/stm32f4xx_cryp_aes.c ****   }
 345:../Libraries/STM32F4xx_StdPeriph_Driver/src/stm32f4xx_cryp_aes.c **** 
 346:../Libraries/STM32F4xx_StdPeriph_Driver/src/stm32f4xx_cryp_aes.c ****   /* CRYP Initialization Vectors */
 347:../Libraries/STM32F4xx_StdPeriph_Driver/src/stm32f4xx_cryp_aes.c ****   AES_CRYP_IVInitStructure.CRYP_IV0Left = __REV(*(uint32_t*)(ivaddr));
 1010              		.loc 1 347 3 view .LVU293
 1011              	.LBB164:
 1012              	.LBI164:
 348:../Libraries/CMSIS/Include/core_cmInstr.h **** {
 1013              		.loc 2 348 61 view .LVU294
 1014              	.LBB165:
 350:../Libraries/CMSIS/Include/core_cmInstr.h ****   
 1015              		.loc 2 350 3 view .LVU295
 352:../Libraries/CMSIS/Include/core_cmInstr.h ****   return(result);
 1016              		.loc 2 352 3 view .LVU296
 1017 0036 2B68     		ldr	r3, [r5]	@ MEM[(uint32_t *)InitVectors_88(D)], MEM[(uint32_t *)InitVectors_88(D)]
 1018              		.syntax unified
 1019              	@ 352 "../Libraries/CMSIS/Include/core_cmInstr.h" 1
 1020 0038 1BBA     		rev r3, r3	@ result, MEM[(uint32_t *)InitVectors_88(D)]
 1021              	@ 0 "" 2
 1022              	.LVL94:
 1023              		.loc 2 353 3 view .LVU297
 1024              		.loc 2 353 3 is_stmt 0 view .LVU298
 1025              		.thumb
 1026              		.syntax unified
 1027              	.LBE165:
 1028              	.LBE164:
 1029              	@ ../Libraries/STM32F4xx_StdPeriph_Driver/src/stm32f4xx_cryp_aes.c:347:   AES_CRYP_IVInitStructure.
 1030              		.loc 1 347 41 view .LVU299
 1031 003a 0493     		str	r3, [sp, #16]	@ result, AES_CRYP_IVInitStructure.CRYP_IV0Left
 348:../Libraries/STM32F4xx_StdPeriph_Driver/src/stm32f4xx_cryp_aes.c ****   ivaddr+=4;
 1032              		.loc 1 348 3 is_stmt 1 view .LVU300
ARM GAS  C:\Users\admin\AppData\Local\Temp\ccAAMi0y.s 			page 35


 1033              	.LVL95:
 349:../Libraries/STM32F4xx_StdPeriph_Driver/src/stm32f4xx_cryp_aes.c ****   AES_CRYP_IVInitStructure.CRYP_IV0Right= __REV(*(uint32_t*)(ivaddr));
 1034              		.loc 1 349 3 view .LVU301
 1035              	.LBB166:
 1036              	.LBI166:
 348:../Libraries/CMSIS/Include/core_cmInstr.h **** {
 1037              		.loc 2 348 61 view .LVU302
 1038              	.LBB167:
 350:../Libraries/CMSIS/Include/core_cmInstr.h ****   
 1039              		.loc 2 350 3 view .LVU303
 352:../Libraries/CMSIS/Include/core_cmInstr.h ****   return(result);
 1040              		.loc 2 352 3 view .LVU304
 1041 003c 6B68     		ldr	r3, [r5, #4]	@ *ivaddr.49_35, *ivaddr.49_35
 1042              		.syntax unified
 1043              	@ 352 "../Libraries/CMSIS/Include/core_cmInstr.h" 1
 1044 003e 1BBA     		rev r3, r3	@ result, *ivaddr.49_35
 1045              	@ 0 "" 2
 1046              	.LVL96:
 1047              		.loc 2 353 3 view .LVU305
 1048              		.loc 2 353 3 is_stmt 0 view .LVU306
 1049              		.thumb
 1050              		.syntax unified
 1051              	.LBE167:
 1052              	.LBE166:
 1053              	@ ../Libraries/STM32F4xx_StdPeriph_Driver/src/stm32f4xx_cryp_aes.c:349:   AES_CRYP_IVInitStructure.
 1054              		.loc 1 349 41 view .LVU307
 1055 0040 0593     		str	r3, [sp, #20]	@ result, AES_CRYP_IVInitStructure.CRYP_IV0Right
 350:../Libraries/STM32F4xx_StdPeriph_Driver/src/stm32f4xx_cryp_aes.c ****   ivaddr+=4;
 1056              		.loc 1 350 3 is_stmt 1 view .LVU308
 1057              	.LVL97:
 351:../Libraries/STM32F4xx_StdPeriph_Driver/src/stm32f4xx_cryp_aes.c ****   AES_CRYP_IVInitStructure.CRYP_IV1Left = __REV(*(uint32_t*)(ivaddr));
 1058              		.loc 1 351 3 view .LVU309
 1059              	.LBB168:
 1060              	.LBI168:
 348:../Libraries/CMSIS/Include/core_cmInstr.h **** {
 1061              		.loc 2 348 61 view .LVU310
 1062              	.LBB169:
 350:../Libraries/CMSIS/Include/core_cmInstr.h ****   
 1063              		.loc 2 350 3 view .LVU311
 352:../Libraries/CMSIS/Include/core_cmInstr.h ****   return(result);
 1064              		.loc 2 352 3 view .LVU312
 1065 0042 AB68     		ldr	r3, [r5, #8]	@ *ivaddr.50_37, *ivaddr.50_37
 1066              		.syntax unified
 1067              	@ 352 "../Libraries/CMSIS/Include/core_cmInstr.h" 1
 1068 0044 1BBA     		rev r3, r3	@ result, *ivaddr.50_37
 1069              	@ 0 "" 2
 1070              	.LVL98:
 1071              		.loc 2 353 3 view .LVU313
 1072              		.loc 2 353 3 is_stmt 0 view .LVU314
 1073              		.thumb
 1074              		.syntax unified
 1075              	.LBE169:
 1076              	.LBE168:
 1077              	@ ../Libraries/STM32F4xx_StdPeriph_Driver/src/stm32f4xx_cryp_aes.c:351:   AES_CRYP_IVInitStructure.
 1078              		.loc 1 351 41 view .LVU315
 1079 0046 0693     		str	r3, [sp, #24]	@ result, AES_CRYP_IVInitStructure.CRYP_IV1Left
 352:../Libraries/STM32F4xx_StdPeriph_Driver/src/stm32f4xx_cryp_aes.c ****   ivaddr+=4;
ARM GAS  C:\Users\admin\AppData\Local\Temp\ccAAMi0y.s 			page 36


 1080              		.loc 1 352 3 is_stmt 1 view .LVU316
 1081              	.LVL99:
 353:../Libraries/STM32F4xx_StdPeriph_Driver/src/stm32f4xx_cryp_aes.c ****   AES_CRYP_IVInitStructure.CRYP_IV1Right= __REV(*(uint32_t*)(ivaddr));
 1082              		.loc 1 353 3 view .LVU317
 1083              	.LBB170:
 1084              	.LBI170:
 348:../Libraries/CMSIS/Include/core_cmInstr.h **** {
 1085              		.loc 2 348 61 view .LVU318
 1086              	.LBB171:
 350:../Libraries/CMSIS/Include/core_cmInstr.h ****   
 1087              		.loc 2 350 3 view .LVU319
 352:../Libraries/CMSIS/Include/core_cmInstr.h ****   return(result);
 1088              		.loc 2 352 3 view .LVU320
 1089 0048 EB68     		ldr	r3, [r5, #12]	@ *ivaddr.51_39, *ivaddr.51_39
 1090              		.syntax unified
 1091              	@ 352 "../Libraries/CMSIS/Include/core_cmInstr.h" 1
 1092 004a 1BBA     		rev r3, r3	@ result, *ivaddr.51_39
 1093              	@ 0 "" 2
 1094              	.LVL100:
 1095              		.loc 2 353 3 view .LVU321
 1096              		.loc 2 353 3 is_stmt 0 view .LVU322
 1097              		.thumb
 1098              		.syntax unified
 1099              	.LBE171:
 1100              	.LBE170:
 1101              	@ ../Libraries/STM32F4xx_StdPeriph_Driver/src/stm32f4xx_cryp_aes.c:353:   AES_CRYP_IVInitStructure.
 1102              		.loc 1 353 41 view .LVU323
 1103 004c 0793     		str	r3, [sp, #28]	@ result, AES_CRYP_IVInitStructure.CRYP_IV1Right
 354:../Libraries/STM32F4xx_StdPeriph_Driver/src/stm32f4xx_cryp_aes.c **** 
 355:../Libraries/STM32F4xx_StdPeriph_Driver/src/stm32f4xx_cryp_aes.c **** 
 356:../Libraries/STM32F4xx_StdPeriph_Driver/src/stm32f4xx_cryp_aes.c ****   /*------------------ AES Decryption ------------------*/
 357:../Libraries/STM32F4xx_StdPeriph_Driver/src/stm32f4xx_cryp_aes.c ****   if(Mode == MODE_DECRYPT) /* AES decryption */
 1104              		.loc 1 357 3 is_stmt 1 view .LVU324
 1105              	@ ../Libraries/STM32F4xx_StdPeriph_Driver/src/stm32f4xx_cryp_aes.c:357:   if(Mode == MODE_DECRYPT) 
 1106              		.loc 1 357 5 is_stmt 0 view .LVU325
 1107 004e B9F1000F 		cmp	r9, #0	@ Mode
 1108 0052 2FD1     		bne	.L34	@
 358:../Libraries/STM32F4xx_StdPeriph_Driver/src/stm32f4xx_cryp_aes.c ****   {
 359:../Libraries/STM32F4xx_StdPeriph_Driver/src/stm32f4xx_cryp_aes.c ****     /* Flush IN/OUT FIFOs */
 360:../Libraries/STM32F4xx_StdPeriph_Driver/src/stm32f4xx_cryp_aes.c ****     CRYP_FIFOFlush();
 1109              		.loc 1 360 5 is_stmt 1 view .LVU326
 1110              	@ ../Libraries/STM32F4xx_StdPeriph_Driver/src/stm32f4xx_cryp_aes.c:367:     CRYP_Init(&AES_CRYP_Ini
 361:../Libraries/STM32F4xx_StdPeriph_Driver/src/stm32f4xx_cryp_aes.c **** 
 362:../Libraries/STM32F4xx_StdPeriph_Driver/src/stm32f4xx_cryp_aes.c ****     /* Crypto Init for Key preparation for decryption process */
 363:../Libraries/STM32F4xx_StdPeriph_Driver/src/stm32f4xx_cryp_aes.c ****     AES_CRYP_InitStructure.CRYP_AlgoDir = CRYP_AlgoDir_Decrypt;
 364:../Libraries/STM32F4xx_StdPeriph_Driver/src/stm32f4xx_cryp_aes.c ****     AES_CRYP_InitStructure.CRYP_AlgoMode = CRYP_AlgoMode_AES_Key;
 365:../Libraries/STM32F4xx_StdPeriph_Driver/src/stm32f4xx_cryp_aes.c ****     AES_CRYP_InitStructure.CRYP_DataType = CRYP_DataType_32b;
 366:../Libraries/STM32F4xx_StdPeriph_Driver/src/stm32f4xx_cryp_aes.c **** 
 367:../Libraries/STM32F4xx_StdPeriph_Driver/src/stm32f4xx_cryp_aes.c ****     CRYP_Init(&AES_CRYP_InitStructure);
 1111              		.loc 1 367 5 is_stmt 0 view .LVU327
 1112 0054 02AC     		add	r4, sp, #8	@ tmp308,,
 1113              	.LVL101:
 1114              	@ ../Libraries/STM32F4xx_StdPeriph_Driver/src/stm32f4xx_cryp_aes.c:360:     CRYP_FIFOFlush();
 360:../Libraries/STM32F4xx_StdPeriph_Driver/src/stm32f4xx_cryp_aes.c **** 
 1115              		.loc 1 360 5 view .LVU328
 1116 0056 FFF7FEFF 		bl	CRYP_FIFOFlush		@
 1117              	.LVL102:
ARM GAS  C:\Users\admin\AppData\Local\Temp\ccAAMi0y.s 			page 37


 363:../Libraries/STM32F4xx_StdPeriph_Driver/src/stm32f4xx_cryp_aes.c ****     AES_CRYP_InitStructure.CRYP_AlgoMode = CRYP_AlgoMode_AES_Key;
 1118              		.loc 1 363 5 is_stmt 1 view .LVU329
 364:../Libraries/STM32F4xx_StdPeriph_Driver/src/stm32f4xx_cryp_aes.c ****     AES_CRYP_InitStructure.CRYP_DataType = CRYP_DataType_32b;
 1119              		.loc 1 364 5 view .LVU330
 1120              	@ ../Libraries/STM32F4xx_StdPeriph_Driver/src/stm32f4xx_cryp_aes.c:363:     AES_CRYP_InitStructure.
 363:../Libraries/STM32F4xx_StdPeriph_Driver/src/stm32f4xx_cryp_aes.c ****     AES_CRYP_InitStructure.CRYP_AlgoMode = CRYP_AlgoMode_AES_Key;
 1121              		.loc 1 363 41 is_stmt 0 view .LVU331
 1122 005a 694B     		ldr	r3, .L56	@ tmp281,
 1123 005c 0293     		str	r3, [sp, #8]	@ tmp281, MEM <vector(2) short unsigned int> [(short unsigned int *)&AES_CRYP_Ini
 365:../Libraries/STM32F4xx_StdPeriph_Driver/src/stm32f4xx_cryp_aes.c **** 
 1124              		.loc 1 365 5 is_stmt 1 view .LVU332
 1125              	@ ../Libraries/STM32F4xx_StdPeriph_Driver/src/stm32f4xx_cryp_aes.c:367:     CRYP_Init(&AES_CRYP_Ini
 1126              		.loc 1 367 5 is_stmt 0 view .LVU333
 1127 005e 2046     		mov	r0, r4	@, tmp308
 1128              	@ ../Libraries/STM32F4xx_StdPeriph_Driver/src/stm32f4xx_cryp_aes.c:365:     AES_CRYP_InitStructure.
 365:../Libraries/STM32F4xx_StdPeriph_Driver/src/stm32f4xx_cryp_aes.c **** 
 1129              		.loc 1 365 42 view .LVU334
 1130 0060 ADF80C90 		strh	r9, [sp, #12]	@ movhi	@ Mode, AES_CRYP_InitStructure.CRYP_DataType
 1131              		.loc 1 367 5 is_stmt 1 view .LVU335
 1132 0064 FFF7FEFF 		bl	CRYP_Init		@
 1133              	.LVL103:
 368:../Libraries/STM32F4xx_StdPeriph_Driver/src/stm32f4xx_cryp_aes.c **** 
 369:../Libraries/STM32F4xx_StdPeriph_Driver/src/stm32f4xx_cryp_aes.c ****     /* Key Initialisation */
 370:../Libraries/STM32F4xx_StdPeriph_Driver/src/stm32f4xx_cryp_aes.c ****     CRYP_KeyInit(&AES_CRYP_KeyInitStructure);
 1134              		.loc 1 370 5 view .LVU336
 1135 0068 08A8     		add	r0, sp, #32	@ tmp326,,
 1136 006a FFF7FEFF 		bl	CRYP_KeyInit		@
 1137              	.LVL104:
 371:../Libraries/STM32F4xx_StdPeriph_Driver/src/stm32f4xx_cryp_aes.c **** 
 372:../Libraries/STM32F4xx_StdPeriph_Driver/src/stm32f4xx_cryp_aes.c ****     /* Enable Crypto processor */
 373:../Libraries/STM32F4xx_StdPeriph_Driver/src/stm32f4xx_cryp_aes.c ****     CRYP_Cmd(ENABLE);
 1138              		.loc 1 373 5 view .LVU337
 1139 006e 0120     		movs	r0, #1	@,
 1140 0070 FFF7FEFF 		bl	CRYP_Cmd		@
 1141              	.LVL105:
 1142 0074 02E0     		b	.L36		@
 1143              	.LVL106:
 1144              	.L54:
 1145              	@ ../Libraries/STM32F4xx_StdPeriph_Driver/src/stm32f4xx_cryp_aes.c:380:     }while ((counter != AES
 374:../Libraries/STM32F4xx_StdPeriph_Driver/src/stm32f4xx_cryp_aes.c **** 
 375:../Libraries/STM32F4xx_StdPeriph_Driver/src/stm32f4xx_cryp_aes.c ****     /* wait until the Busy flag is RESET */
 376:../Libraries/STM32F4xx_StdPeriph_Driver/src/stm32f4xx_cryp_aes.c ****     do
 377:../Libraries/STM32F4xx_StdPeriph_Driver/src/stm32f4xx_cryp_aes.c ****     {
 378:../Libraries/STM32F4xx_StdPeriph_Driver/src/stm32f4xx_cryp_aes.c ****       busystatus = CRYP_GetFlagStatus(CRYP_FLAG_BUSY);
 379:../Libraries/STM32F4xx_StdPeriph_Driver/src/stm32f4xx_cryp_aes.c ****       counter++;
 380:../Libraries/STM32F4xx_StdPeriph_Driver/src/stm32f4xx_cryp_aes.c ****     }while ((counter != AESBUSY_TIMEOUT) && (busystatus != RESET));
 1146              		.loc 1 380 42 is_stmt 0 discriminator 1 view .LVU338
 1147 0076 0028     		cmp	r0, #0	@ tmp286
 1148 0078 00F08A80 		beq	.L37	@
 1149              	.LVL107:
 1150              	.L36:
 376:../Libraries/STM32F4xx_StdPeriph_Driver/src/stm32f4xx_cryp_aes.c ****     {
 1151              		.loc 1 376 5 is_stmt 1 discriminator 2 view .LVU339
 378:../Libraries/STM32F4xx_StdPeriph_Driver/src/stm32f4xx_cryp_aes.c ****       counter++;
 1152              		.loc 1 378 7 discriminator 2 view .LVU340
 1153              	@ ../Libraries/STM32F4xx_StdPeriph_Driver/src/stm32f4xx_cryp_aes.c:378:       busystatus = CRYP_Get
 378:../Libraries/STM32F4xx_StdPeriph_Driver/src/stm32f4xx_cryp_aes.c ****       counter++;
ARM GAS  C:\Users\admin\AppData\Local\Temp\ccAAMi0y.s 			page 38


 1154              		.loc 1 378 20 is_stmt 0 discriminator 2 view .LVU341
 1155 007c 1020     		movs	r0, #16	@,
 1156 007e FFF7FEFF 		bl	CRYP_GetFlagStatus		@
 1157              	.LVL108:
 1158              	@ ../Libraries/STM32F4xx_StdPeriph_Driver/src/stm32f4xx_cryp_aes.c:379:       counter++;
 379:../Libraries/STM32F4xx_StdPeriph_Driver/src/stm32f4xx_cryp_aes.c ****     }while ((counter != AESBUSY_TIMEOUT) && (busystatus != RESET));
 1159              		.loc 1 379 14 discriminator 2 view .LVU342
 1160 0082 019B     		ldr	r3, [sp, #4]	@ counter.52_42, counter
 1161              	.LVL109:
 379:../Libraries/STM32F4xx_StdPeriph_Driver/src/stm32f4xx_cryp_aes.c ****     }while ((counter != AESBUSY_TIMEOUT) && (busystatus != RESET));
 1162              		.loc 1 379 7 is_stmt 1 discriminator 2 view .LVU343
 1163              	@ ../Libraries/STM32F4xx_StdPeriph_Driver/src/stm32f4xx_cryp_aes.c:379:       counter++;
 379:../Libraries/STM32F4xx_StdPeriph_Driver/src/stm32f4xx_cryp_aes.c ****     }while ((counter != AESBUSY_TIMEOUT) && (busystatus != RESET));
 1164              		.loc 1 379 14 is_stmt 0 discriminator 2 view .LVU344
 1165 0084 0133     		adds	r3, r3, #1	@ _43, counter.52_42,
 1166 0086 0193     		str	r3, [sp, #4]	@ _43, counter
 1167              		.loc 1 380 12 is_stmt 1 discriminator 2 view .LVU345
 1168              	@ ../Libraries/STM32F4xx_StdPeriph_Driver/src/stm32f4xx_cryp_aes.c:380:     }while ((counter != AES
 1169              		.loc 1 380 22 is_stmt 0 discriminator 2 view .LVU346
 1170 0088 019B     		ldr	r3, [sp, #4]	@ counter.53_44, counter
 1171              	@ ../Libraries/STM32F4xx_StdPeriph_Driver/src/stm32f4xx_cryp_aes.c:380:     }while ((counter != AES
 1172              		.loc 1 380 5 discriminator 2 view .LVU347
 1173 008a B3F5803F 		cmp	r3, #65536	@ counter.53_44,
 1174 008e F2D1     		bne	.L54		@,
 381:../Libraries/STM32F4xx_StdPeriph_Driver/src/stm32f4xx_cryp_aes.c **** 
 382:../Libraries/STM32F4xx_StdPeriph_Driver/src/stm32f4xx_cryp_aes.c ****     if (busystatus != RESET)
 1175              		.loc 1 382 5 is_stmt 1 view .LVU348
 1176              	@ ../Libraries/STM32F4xx_StdPeriph_Driver/src/stm32f4xx_cryp_aes.c:382:     if (busystatus != RESET
 1177              		.loc 1 382 8 is_stmt 0 view .LVU349
 1178 0090 0028     		cmp	r0, #0	@ tmp286
 1179 0092 7DD0     		beq	.L37	@
 1180              	.LVL110:
 383:../Libraries/STM32F4xx_StdPeriph_Driver/src/stm32f4xx_cryp_aes.c ****    {
 384:../Libraries/STM32F4xx_StdPeriph_Driver/src/stm32f4xx_cryp_aes.c ****        status = ERROR;
 385:../Libraries/STM32F4xx_StdPeriph_Driver/src/stm32f4xx_cryp_aes.c ****     }
 386:../Libraries/STM32F4xx_StdPeriph_Driver/src/stm32f4xx_cryp_aes.c ****     else
 387:../Libraries/STM32F4xx_StdPeriph_Driver/src/stm32f4xx_cryp_aes.c ****     {
 388:../Libraries/STM32F4xx_StdPeriph_Driver/src/stm32f4xx_cryp_aes.c ****       /* Crypto Init for decryption process */  
 389:../Libraries/STM32F4xx_StdPeriph_Driver/src/stm32f4xx_cryp_aes.c ****       AES_CRYP_InitStructure.CRYP_AlgoDir = CRYP_AlgoDir_Decrypt;
 390:../Libraries/STM32F4xx_StdPeriph_Driver/src/stm32f4xx_cryp_aes.c ****     }
 391:../Libraries/STM32F4xx_StdPeriph_Driver/src/stm32f4xx_cryp_aes.c ****   }
 392:../Libraries/STM32F4xx_StdPeriph_Driver/src/stm32f4xx_cryp_aes.c ****   /*------------------ AES Encryption ------------------*/
 393:../Libraries/STM32F4xx_StdPeriph_Driver/src/stm32f4xx_cryp_aes.c ****   else /* AES encryption */
 394:../Libraries/STM32F4xx_StdPeriph_Driver/src/stm32f4xx_cryp_aes.c ****   {
 395:../Libraries/STM32F4xx_StdPeriph_Driver/src/stm32f4xx_cryp_aes.c ****     CRYP_KeyInit(&AES_CRYP_KeyInitStructure);
 396:../Libraries/STM32F4xx_StdPeriph_Driver/src/stm32f4xx_cryp_aes.c **** 
 397:../Libraries/STM32F4xx_StdPeriph_Driver/src/stm32f4xx_cryp_aes.c ****     /* Crypto Init for Encryption process */
 398:../Libraries/STM32F4xx_StdPeriph_Driver/src/stm32f4xx_cryp_aes.c ****     AES_CRYP_InitStructure.CRYP_AlgoDir  = CRYP_AlgoDir_Encrypt;
 399:../Libraries/STM32F4xx_StdPeriph_Driver/src/stm32f4xx_cryp_aes.c ****   }
 400:../Libraries/STM32F4xx_StdPeriph_Driver/src/stm32f4xx_cryp_aes.c ****   AES_CRYP_InitStructure.CRYP_AlgoMode = CRYP_AlgoMode_AES_CBC;
 1181              		.loc 1 400 3 is_stmt 1 view .LVU350
 401:../Libraries/STM32F4xx_StdPeriph_Driver/src/stm32f4xx_cryp_aes.c ****   AES_CRYP_InitStructure.CRYP_DataType = CRYP_DataType_8b;
 1182              		.loc 1 401 3 view .LVU351
 1183              	@ ../Libraries/STM32F4xx_StdPeriph_Driver/src/stm32f4xx_cryp_aes.c:400:   AES_CRYP_InitStructure.CR
 400:../Libraries/STM32F4xx_StdPeriph_Driver/src/stm32f4xx_cryp_aes.c ****   AES_CRYP_InitStructure.CRYP_DataType = CRYP_DataType_8b;
 1184              		.loc 1 400 40 is_stmt 0 view .LVU352
 1185 0094 5B4B     		ldr	r3, .L56+4	@ tmp292,
ARM GAS  C:\Users\admin\AppData\Local\Temp\ccAAMi0y.s 			page 39


 1186 0096 CDF80A30 		str	r3, [sp, #10]	@ unaligned	@ tmp292, MEM <vector(2) short unsigned int> [(short unsigned int *)
 402:../Libraries/STM32F4xx_StdPeriph_Driver/src/stm32f4xx_cryp_aes.c ****   CRYP_Init(&AES_CRYP_InitStructure);
 1187              		.loc 1 402 3 is_stmt 1 view .LVU353
 1188 009a 2046     		mov	r0, r4	@, tmp308
 1189              	.LVL111:
 1190              		.loc 1 402 3 is_stmt 0 view .LVU354
 1191 009c FFF7FEFF 		bl	CRYP_Init		@
 1192              	.LVL112:
 403:../Libraries/STM32F4xx_StdPeriph_Driver/src/stm32f4xx_cryp_aes.c **** 
 404:../Libraries/STM32F4xx_StdPeriph_Driver/src/stm32f4xx_cryp_aes.c ****   /* CRYP Initialization Vectors */
 405:../Libraries/STM32F4xx_StdPeriph_Driver/src/stm32f4xx_cryp_aes.c ****   CRYP_IVInit(&AES_CRYP_IVInitStructure);
 1193              		.loc 1 405 3 is_stmt 1 view .LVU355
 1194 00a0 04A8     		add	r0, sp, #16	@,,
 1195 00a2 FFF7FEFF 		bl	CRYP_IVInit		@
 1196              	.LVL113:
 406:../Libraries/STM32F4xx_StdPeriph_Driver/src/stm32f4xx_cryp_aes.c **** 
 407:../Libraries/STM32F4xx_StdPeriph_Driver/src/stm32f4xx_cryp_aes.c ****   /* Flush IN/OUT FIFOs */
 408:../Libraries/STM32F4xx_StdPeriph_Driver/src/stm32f4xx_cryp_aes.c ****   CRYP_FIFOFlush();
 1197              		.loc 1 408 3 view .LVU356
 1198 00a6 FFF7FEFF 		bl	CRYP_FIFOFlush		@
 1199              	.LVL114:
 409:../Libraries/STM32F4xx_StdPeriph_Driver/src/stm32f4xx_cryp_aes.c **** 
 410:../Libraries/STM32F4xx_StdPeriph_Driver/src/stm32f4xx_cryp_aes.c ****   /* Enable Crypto processor */
 411:../Libraries/STM32F4xx_StdPeriph_Driver/src/stm32f4xx_cryp_aes.c ****   CRYP_Cmd(ENABLE);
 1200              		.loc 1 411 3 view .LVU357
 1201 00aa 0120     		movs	r0, #1	@,
 1202 00ac FFF7FEFF 		bl	CRYP_Cmd		@
 1203              	.LVL115:
 412:../Libraries/STM32F4xx_StdPeriph_Driver/src/stm32f4xx_cryp_aes.c **** 
 413:../Libraries/STM32F4xx_StdPeriph_Driver/src/stm32f4xx_cryp_aes.c **** 
 414:../Libraries/STM32F4xx_StdPeriph_Driver/src/stm32f4xx_cryp_aes.c ****   for(i=0; ((i<Ilength) && (status != ERROR)); i+=16)
 1204              		.loc 1 414 3 view .LVU358
 1205              		.loc 1 414 12 view .LVU359
 1206              	@ ../Libraries/STM32F4xx_StdPeriph_Driver/src/stm32f4xx_cryp_aes.c:384:        status = ERROR;
 384:../Libraries/STM32F4xx_StdPeriph_Driver/src/stm32f4xx_cryp_aes.c ****     }
 1207              		.loc 1 384 15 is_stmt 0 view .LVU360
 1208 00b0 0024     		movs	r4, #0	@ <retval>,
 1209 00b2 3FE0     		b	.L40		@
 1210              	.LVL116:
 1211              	.L34:
 395:../Libraries/STM32F4xx_StdPeriph_Driver/src/stm32f4xx_cryp_aes.c **** 
 1212              		.loc 1 395 5 is_stmt 1 view .LVU361
 1213 00b4 08A8     		add	r0, sp, #32	@ tmp327,,
 1214 00b6 FFF7FEFF 		bl	CRYP_KeyInit		@
 1215              	.LVL117:
 398:../Libraries/STM32F4xx_StdPeriph_Driver/src/stm32f4xx_cryp_aes.c ****   }
 1216              		.loc 1 398 5 view .LVU362
 1217              	@ ../Libraries/STM32F4xx_StdPeriph_Driver/src/stm32f4xx_cryp_aes.c:398:     AES_CRYP_InitStructure.
 398:../Libraries/STM32F4xx_StdPeriph_Driver/src/stm32f4xx_cryp_aes.c ****   }
 1218              		.loc 1 398 42 is_stmt 0 view .LVU363
 1219 00ba 0023     		movs	r3, #0	@ tmp291,
 1220 00bc ADF80830 		strh	r3, [sp, #8]	@ movhi	@ tmp291, AES_CRYP_InitStructure.CRYP_AlgoDir
 1221 00c0 02AC     		add	r4, sp, #8	@ tmp308,,
 1222              	.LVL118:
 1223              	.L39:
 400:../Libraries/STM32F4xx_StdPeriph_Driver/src/stm32f4xx_cryp_aes.c ****   AES_CRYP_InitStructure.CRYP_DataType = CRYP_DataType_8b;
 1224              		.loc 1 400 3 is_stmt 1 view .LVU364
ARM GAS  C:\Users\admin\AppData\Local\Temp\ccAAMi0y.s 			page 40


 401:../Libraries/STM32F4xx_StdPeriph_Driver/src/stm32f4xx_cryp_aes.c ****   CRYP_Init(&AES_CRYP_InitStructure);
 1225              		.loc 1 401 3 view .LVU365
 1226              	@ ../Libraries/STM32F4xx_StdPeriph_Driver/src/stm32f4xx_cryp_aes.c:400:   AES_CRYP_InitStructure.CR
 400:../Libraries/STM32F4xx_StdPeriph_Driver/src/stm32f4xx_cryp_aes.c ****   AES_CRYP_InitStructure.CRYP_DataType = CRYP_DataType_8b;
 1227              		.loc 1 400 40 is_stmt 0 view .LVU366
 1228 00c2 504B     		ldr	r3, .L56+4	@ tmp305,
 1229 00c4 CDF80A30 		str	r3, [sp, #10]	@ unaligned	@ tmp305, MEM <vector(2) short unsigned int> [(short unsigned int *)
 402:../Libraries/STM32F4xx_StdPeriph_Driver/src/stm32f4xx_cryp_aes.c **** 
 1230              		.loc 1 402 3 is_stmt 1 view .LVU367
 1231 00c8 2046     		mov	r0, r4	@, tmp308
 1232 00ca FFF7FEFF 		bl	CRYP_Init		@
 1233              	.LVL119:
 405:../Libraries/STM32F4xx_StdPeriph_Driver/src/stm32f4xx_cryp_aes.c **** 
 1234              		.loc 1 405 3 view .LVU368
 1235 00ce 04A8     		add	r0, sp, #16	@,,
 1236 00d0 FFF7FEFF 		bl	CRYP_IVInit		@
 1237              	.LVL120:
 408:../Libraries/STM32F4xx_StdPeriph_Driver/src/stm32f4xx_cryp_aes.c **** 
 1238              		.loc 1 408 3 view .LVU369
 1239 00d4 FFF7FEFF 		bl	CRYP_FIFOFlush		@
 1240              	.LVL121:
 411:../Libraries/STM32F4xx_StdPeriph_Driver/src/stm32f4xx_cryp_aes.c **** 
 1241              		.loc 1 411 3 view .LVU370
 1242 00d8 0120     		movs	r0, #1	@,
 1243 00da FFF7FEFF 		bl	CRYP_Cmd		@
 1244              	.LVL122:
 1245              		.loc 1 414 3 view .LVU371
 1246              		.loc 1 414 12 view .LVU372
 1247              	@ ../Libraries/STM32F4xx_StdPeriph_Driver/src/stm32f4xx_cryp_aes.c:414:   for(i=0; ((i<Ilength) && 
 1248              		.loc 1 414 3 is_stmt 0 view .LVU373
 1249 00de B8F1000F 		cmp	r8, #0	@ Ilength
 1250 00e2 44D0     		beq	.L46	@
 1251 00e4 1A9B     		ldr	r3, [sp, #104]	@ tmp328, Output
 1252 00e6 03F11005 		add	r5, r3, #16	@ ivtmp.131, tmp328,
 1253              	.LVL123:
 1254              		.loc 1 414 3 view .LVU374
 1255 00ea 6FF00F03 		mvn	r3, #15	@ tmp311,
 1256 00ee 07F11004 		add	r4, r7, #16	@ ivtmp.129, Input,
 1257              	@ ../Libraries/STM32F4xx_StdPeriph_Driver/src/stm32f4xx_cryp_aes.c:427:     counter = 0;
 415:../Libraries/STM32F4xx_StdPeriph_Driver/src/stm32f4xx_cryp_aes.c ****   {
 416:../Libraries/STM32F4xx_StdPeriph_Driver/src/stm32f4xx_cryp_aes.c **** 
 417:../Libraries/STM32F4xx_StdPeriph_Driver/src/stm32f4xx_cryp_aes.c ****     /* Write the Input block in the IN FIFO */
 418:../Libraries/STM32F4xx_StdPeriph_Driver/src/stm32f4xx_cryp_aes.c ****     CRYP_DataIn(*(uint32_t*)(inputaddr));
 419:../Libraries/STM32F4xx_StdPeriph_Driver/src/stm32f4xx_cryp_aes.c ****     inputaddr+=4;
 420:../Libraries/STM32F4xx_StdPeriph_Driver/src/stm32f4xx_cryp_aes.c ****     CRYP_DataIn(*(uint32_t*)(inputaddr));
 421:../Libraries/STM32F4xx_StdPeriph_Driver/src/stm32f4xx_cryp_aes.c ****     inputaddr+=4;
 422:../Libraries/STM32F4xx_StdPeriph_Driver/src/stm32f4xx_cryp_aes.c ****     CRYP_DataIn(*(uint32_t*)(inputaddr));
 423:../Libraries/STM32F4xx_StdPeriph_Driver/src/stm32f4xx_cryp_aes.c ****     inputaddr+=4;
 424:../Libraries/STM32F4xx_StdPeriph_Driver/src/stm32f4xx_cryp_aes.c ****     CRYP_DataIn(*(uint32_t*)(inputaddr));
 425:../Libraries/STM32F4xx_StdPeriph_Driver/src/stm32f4xx_cryp_aes.c ****     inputaddr+=4;
 426:../Libraries/STM32F4xx_StdPeriph_Driver/src/stm32f4xx_cryp_aes.c ****     /* Wait until the complete message has been processed */
 427:../Libraries/STM32F4xx_StdPeriph_Driver/src/stm32f4xx_cryp_aes.c ****     counter = 0;
 1258              		.loc 1 427 13 view .LVU375
 1259 00f2 0026     		movs	r6, #0	@ tmp299,
 1260              	@ ../Libraries/STM32F4xx_StdPeriph_Driver/src/stm32f4xx_cryp_aes.c:414:   for(i=0; ((i<Ilength) && 
 414:../Libraries/STM32F4xx_StdPeriph_Driver/src/stm32f4xx_cryp_aes.c ****   {
 1261              		.loc 1 414 3 view .LVU376
ARM GAS  C:\Users\admin\AppData\Local\Temp\ccAAMi0y.s 			page 41


 1262 00f4 DF1B     		subs	r7, r3, r7	@ tmp312, tmp311, Input
 1263              	.LVL124:
 1264              	.L44:
 418:../Libraries/STM32F4xx_StdPeriph_Driver/src/stm32f4xx_cryp_aes.c ****     inputaddr+=4;
 1265              		.loc 1 418 5 is_stmt 1 view .LVU377
 1266 00f6 54F8100C 		ldr	r0, [r4, #-16]	@, MEM[base: _218, offset: 4294967280B]
 1267 00fa FFF7FEFF 		bl	CRYP_DataIn		@
 1268              	.LVL125:
 419:../Libraries/STM32F4xx_StdPeriph_Driver/src/stm32f4xx_cryp_aes.c ****     CRYP_DataIn(*(uint32_t*)(inputaddr));
 1269              		.loc 1 419 5 view .LVU378
 420:../Libraries/STM32F4xx_StdPeriph_Driver/src/stm32f4xx_cryp_aes.c ****     inputaddr+=4;
 1270              		.loc 1 420 5 view .LVU379
 1271 00fe 54F80C0C 		ldr	r0, [r4, #-12]	@, MEM[base: _218, offset: 4294967284B]
 1272 0102 FFF7FEFF 		bl	CRYP_DataIn		@
 1273              	.LVL126:
 421:../Libraries/STM32F4xx_StdPeriph_Driver/src/stm32f4xx_cryp_aes.c ****     CRYP_DataIn(*(uint32_t*)(inputaddr));
 1274              		.loc 1 421 5 view .LVU380
 422:../Libraries/STM32F4xx_StdPeriph_Driver/src/stm32f4xx_cryp_aes.c ****     inputaddr+=4;
 1275              		.loc 1 422 5 view .LVU381
 1276 0106 54F8080C 		ldr	r0, [r4, #-8]	@, MEM[base: _218, offset: 4294967288B]
 1277 010a FFF7FEFF 		bl	CRYP_DataIn		@
 1278              	.LVL127:
 423:../Libraries/STM32F4xx_StdPeriph_Driver/src/stm32f4xx_cryp_aes.c ****     CRYP_DataIn(*(uint32_t*)(inputaddr));
 1279              		.loc 1 423 5 view .LVU382
 424:../Libraries/STM32F4xx_StdPeriph_Driver/src/stm32f4xx_cryp_aes.c ****     inputaddr+=4;
 1280              		.loc 1 424 5 view .LVU383
 1281 010e 54F8040C 		ldr	r0, [r4, #-4]	@, MEM[base: _218, offset: 4294967292B]
 1282 0112 FFF7FEFF 		bl	CRYP_DataIn		@
 1283              	.LVL128:
 425:../Libraries/STM32F4xx_StdPeriph_Driver/src/stm32f4xx_cryp_aes.c ****     /* Wait until the complete message has been processed */
 1284              		.loc 1 425 5 view .LVU384
 1285              		.loc 1 427 5 view .LVU385
 1286              	@ ../Libraries/STM32F4xx_StdPeriph_Driver/src/stm32f4xx_cryp_aes.c:427:     counter = 0;
 1287              		.loc 1 427 13 is_stmt 0 view .LVU386
 1288 0116 0196     		str	r6, [sp, #4]	@ tmp299, counter
 1289 0118 00E0     		b	.L42		@
 1290              	.LVL129:
 1291              	.L55:
 1292              	@ ../Libraries/STM32F4xx_StdPeriph_Driver/src/stm32f4xx_cryp_aes.c:432:     }while ((counter != AES
 428:../Libraries/STM32F4xx_StdPeriph_Driver/src/stm32f4xx_cryp_aes.c ****     do
 429:../Libraries/STM32F4xx_StdPeriph_Driver/src/stm32f4xx_cryp_aes.c ****     {
 430:../Libraries/STM32F4xx_StdPeriph_Driver/src/stm32f4xx_cryp_aes.c ****       busystatus = CRYP_GetFlagStatus(CRYP_FLAG_BUSY);
 431:../Libraries/STM32F4xx_StdPeriph_Driver/src/stm32f4xx_cryp_aes.c ****       counter++;
 432:../Libraries/STM32F4xx_StdPeriph_Driver/src/stm32f4xx_cryp_aes.c ****     }while ((counter != AESBUSY_TIMEOUT) && (busystatus != RESET));
 1293              		.loc 1 432 42 discriminator 1 view .LVU387
 1294 011a 90B1     		cbz	r0, .L43	@ tmp300,
 1295              	.LVL130:
 1296              	.L42:
 428:../Libraries/STM32F4xx_StdPeriph_Driver/src/stm32f4xx_cryp_aes.c ****     do
 1297              		.loc 1 428 5 is_stmt 1 discriminator 2 view .LVU388
 430:../Libraries/STM32F4xx_StdPeriph_Driver/src/stm32f4xx_cryp_aes.c ****       counter++;
 1298              		.loc 1 430 7 discriminator 2 view .LVU389
 1299              	@ ../Libraries/STM32F4xx_StdPeriph_Driver/src/stm32f4xx_cryp_aes.c:430:       busystatus = CRYP_Get
 430:../Libraries/STM32F4xx_StdPeriph_Driver/src/stm32f4xx_cryp_aes.c ****       counter++;
 1300              		.loc 1 430 20 is_stmt 0 discriminator 2 view .LVU390
 1301 011c 1020     		movs	r0, #16	@,
 1302 011e FFF7FEFF 		bl	CRYP_GetFlagStatus		@
ARM GAS  C:\Users\admin\AppData\Local\Temp\ccAAMi0y.s 			page 42


 1303              	.LVL131:
 1304              	@ ../Libraries/STM32F4xx_StdPeriph_Driver/src/stm32f4xx_cryp_aes.c:431:       counter++;
 431:../Libraries/STM32F4xx_StdPeriph_Driver/src/stm32f4xx_cryp_aes.c ****     }while ((counter != AESBUSY_TIMEOUT) && (busystatus != RESET));
 1305              		.loc 1 431 14 discriminator 2 view .LVU391
 1306 0122 019B     		ldr	r3, [sp, #4]	@ counter.58_54, counter
 1307              	.LVL132:
 431:../Libraries/STM32F4xx_StdPeriph_Driver/src/stm32f4xx_cryp_aes.c ****     }while ((counter != AESBUSY_TIMEOUT) && (busystatus != RESET));
 1308              		.loc 1 431 7 is_stmt 1 discriminator 2 view .LVU392
 1309              	@ ../Libraries/STM32F4xx_StdPeriph_Driver/src/stm32f4xx_cryp_aes.c:431:       counter++;
 431:../Libraries/STM32F4xx_StdPeriph_Driver/src/stm32f4xx_cryp_aes.c ****     }while ((counter != AESBUSY_TIMEOUT) && (busystatus != RESET));
 1310              		.loc 1 431 14 is_stmt 0 discriminator 2 view .LVU393
 1311 0124 0133     		adds	r3, r3, #1	@ _55, counter.58_54,
 1312 0126 0193     		str	r3, [sp, #4]	@ _55, counter
 1313              		.loc 1 432 12 is_stmt 1 discriminator 2 view .LVU394
 1314              	@ ../Libraries/STM32F4xx_StdPeriph_Driver/src/stm32f4xx_cryp_aes.c:432:     }while ((counter != AES
 1315              		.loc 1 432 22 is_stmt 0 discriminator 2 view .LVU395
 1316 0128 019B     		ldr	r3, [sp, #4]	@ counter.59_56, counter
 1317              	@ ../Libraries/STM32F4xx_StdPeriph_Driver/src/stm32f4xx_cryp_aes.c:432:     }while ((counter != AES
 1318              		.loc 1 432 5 discriminator 2 view .LVU396
 1319 012a B3F5803F 		cmp	r3, #65536	@ counter.59_56,
 1320 012e F4D1     		bne	.L55		@,
 433:../Libraries/STM32F4xx_StdPeriph_Driver/src/stm32f4xx_cryp_aes.c **** 
 434:../Libraries/STM32F4xx_StdPeriph_Driver/src/stm32f4xx_cryp_aes.c ****     if (busystatus != RESET)
 1321              		.loc 1 434 5 is_stmt 1 view .LVU397
 1322              	@ ../Libraries/STM32F4xx_StdPeriph_Driver/src/stm32f4xx_cryp_aes.c:434:     if (busystatus != RESET
 1323              		.loc 1 434 8 is_stmt 0 view .LVU398
 1324 0130 38B1     		cbz	r0, .L43	@ tmp300,
 1325              	@ ../Libraries/STM32F4xx_StdPeriph_Driver/src/stm32f4xx_cryp_aes.c:436:        status = ERROR;
 435:../Libraries/STM32F4xx_StdPeriph_Driver/src/stm32f4xx_cryp_aes.c ****    {
 436:../Libraries/STM32F4xx_StdPeriph_Driver/src/stm32f4xx_cryp_aes.c ****        status = ERROR;
 1326              		.loc 1 436 15 view .LVU399
 1327 0132 0024     		movs	r4, #0	@ <retval>,
 1328              	.LVL133:
 1329              	.L40:
 437:../Libraries/STM32F4xx_StdPeriph_Driver/src/stm32f4xx_cryp_aes.c ****     }
 438:../Libraries/STM32F4xx_StdPeriph_Driver/src/stm32f4xx_cryp_aes.c ****     else
 439:../Libraries/STM32F4xx_StdPeriph_Driver/src/stm32f4xx_cryp_aes.c ****     {
 440:../Libraries/STM32F4xx_StdPeriph_Driver/src/stm32f4xx_cryp_aes.c **** 
 441:../Libraries/STM32F4xx_StdPeriph_Driver/src/stm32f4xx_cryp_aes.c ****       /* Read the Output block from the Output FIFO */
 442:../Libraries/STM32F4xx_StdPeriph_Driver/src/stm32f4xx_cryp_aes.c ****       *(uint32_t*)(outputaddr) = CRYP_DataOut();
 443:../Libraries/STM32F4xx_StdPeriph_Driver/src/stm32f4xx_cryp_aes.c ****       outputaddr+=4;
 444:../Libraries/STM32F4xx_StdPeriph_Driver/src/stm32f4xx_cryp_aes.c ****       *(uint32_t*)(outputaddr) = CRYP_DataOut();
 445:../Libraries/STM32F4xx_StdPeriph_Driver/src/stm32f4xx_cryp_aes.c ****       outputaddr+=4;
 446:../Libraries/STM32F4xx_StdPeriph_Driver/src/stm32f4xx_cryp_aes.c ****       *(uint32_t*)(outputaddr) = CRYP_DataOut();
 447:../Libraries/STM32F4xx_StdPeriph_Driver/src/stm32f4xx_cryp_aes.c ****       outputaddr+=4;
 448:../Libraries/STM32F4xx_StdPeriph_Driver/src/stm32f4xx_cryp_aes.c ****       *(uint32_t*)(outputaddr) = CRYP_DataOut();
 449:../Libraries/STM32F4xx_StdPeriph_Driver/src/stm32f4xx_cryp_aes.c ****       outputaddr+=4;
 450:../Libraries/STM32F4xx_StdPeriph_Driver/src/stm32f4xx_cryp_aes.c ****     }
 451:../Libraries/STM32F4xx_StdPeriph_Driver/src/stm32f4xx_cryp_aes.c ****   }
 452:../Libraries/STM32F4xx_StdPeriph_Driver/src/stm32f4xx_cryp_aes.c **** 
 453:../Libraries/STM32F4xx_StdPeriph_Driver/src/stm32f4xx_cryp_aes.c ****   /* Disable Crypto */
 454:../Libraries/STM32F4xx_StdPeriph_Driver/src/stm32f4xx_cryp_aes.c ****   CRYP_Cmd(DISABLE);
 1330              		.loc 1 454 3 is_stmt 1 view .LVU400
 1331 0134 0020     		movs	r0, #0	@,
 1332 0136 FFF7FEFF 		bl	CRYP_Cmd		@
 1333              	.LVL134:
 455:../Libraries/STM32F4xx_StdPeriph_Driver/src/stm32f4xx_cryp_aes.c **** 
ARM GAS  C:\Users\admin\AppData\Local\Temp\ccAAMi0y.s 			page 43


 456:../Libraries/STM32F4xx_StdPeriph_Driver/src/stm32f4xx_cryp_aes.c ****   return status;
 1334              		.loc 1 456 3 view .LVU401
 1335              	@ ../Libraries/STM32F4xx_StdPeriph_Driver/src/stm32f4xx_cryp_aes.c:457: }
 457:../Libraries/STM32F4xx_StdPeriph_Driver/src/stm32f4xx_cryp_aes.c **** }
 1336              		.loc 1 457 1 is_stmt 0 view .LVU402
 1337 013a 2046     		mov	r0, r4	@, <retval>
 1338 013c 10B0     		add	sp, sp, #64	@,,
 1339              		.cfi_remember_state
 1340              		.cfi_def_cfa_offset 32
 1341              		@ sp needed	@
 1342 013e BDE8F087 		pop	{r4, r5, r6, r7, r8, r9, r10, pc}	@
 1343              	.LVL135:
 1344              	.L43:
 1345              		.cfi_restore_state
 442:../Libraries/STM32F4xx_StdPeriph_Driver/src/stm32f4xx_cryp_aes.c ****       outputaddr+=4;
 1346              		.loc 1 442 7 is_stmt 1 view .LVU403
 1347              	@ ../Libraries/STM32F4xx_StdPeriph_Driver/src/stm32f4xx_cryp_aes.c:442:       *(uint32_t*)(outputad
 442:../Libraries/STM32F4xx_StdPeriph_Driver/src/stm32f4xx_cryp_aes.c ****       outputaddr+=4;
 1348              		.loc 1 442 34 is_stmt 0 view .LVU404
 1349 0142 FFF7FEFF 		bl	CRYP_DataOut		@
 1350              	.LVL136:
 1351              	@ ../Libraries/STM32F4xx_StdPeriph_Driver/src/stm32f4xx_cryp_aes.c:442:       *(uint32_t*)(outputad
 442:../Libraries/STM32F4xx_StdPeriph_Driver/src/stm32f4xx_cryp_aes.c ****       outputaddr+=4;
 1352              		.loc 1 442 32 view .LVU405
 1353 0146 45F8100C 		str	r0, [r5, #-16]	@ tmp320, MEM[base: _223, offset: 4294967280B]
 443:../Libraries/STM32F4xx_StdPeriph_Driver/src/stm32f4xx_cryp_aes.c ****       *(uint32_t*)(outputaddr) = CRYP_DataOut();
 1354              		.loc 1 443 7 is_stmt 1 view .LVU406
 1355              	.LVL137:
 444:../Libraries/STM32F4xx_StdPeriph_Driver/src/stm32f4xx_cryp_aes.c ****       outputaddr+=4;
 1356              		.loc 1 444 7 view .LVU407
 1357              	@ ../Libraries/STM32F4xx_StdPeriph_Driver/src/stm32f4xx_cryp_aes.c:444:       *(uint32_t*)(outputad
 444:../Libraries/STM32F4xx_StdPeriph_Driver/src/stm32f4xx_cryp_aes.c ****       outputaddr+=4;
 1358              		.loc 1 444 34 is_stmt 0 view .LVU408
 1359 014a FFF7FEFF 		bl	CRYP_DataOut		@
 1360              	.LVL138:
 1361              	@ ../Libraries/STM32F4xx_StdPeriph_Driver/src/stm32f4xx_cryp_aes.c:444:       *(uint32_t*)(outputad
 444:../Libraries/STM32F4xx_StdPeriph_Driver/src/stm32f4xx_cryp_aes.c ****       outputaddr+=4;
 1362              		.loc 1 444 32 view .LVU409
 1363 014e 45F80C0C 		str	r0, [r5, #-12]	@ tmp321, MEM[base: _223, offset: 4294967284B]
 445:../Libraries/STM32F4xx_StdPeriph_Driver/src/stm32f4xx_cryp_aes.c ****       *(uint32_t*)(outputaddr) = CRYP_DataOut();
 1364              		.loc 1 445 7 is_stmt 1 view .LVU410
 1365              	.LVL139:
 446:../Libraries/STM32F4xx_StdPeriph_Driver/src/stm32f4xx_cryp_aes.c ****       outputaddr+=4;
 1366              		.loc 1 446 7 view .LVU411
 1367              	@ ../Libraries/STM32F4xx_StdPeriph_Driver/src/stm32f4xx_cryp_aes.c:446:       *(uint32_t*)(outputad
 446:../Libraries/STM32F4xx_StdPeriph_Driver/src/stm32f4xx_cryp_aes.c ****       outputaddr+=4;
 1368              		.loc 1 446 34 is_stmt 0 view .LVU412
 1369 0152 FFF7FEFF 		bl	CRYP_DataOut		@
 1370              	.LVL140:
 1371              	@ ../Libraries/STM32F4xx_StdPeriph_Driver/src/stm32f4xx_cryp_aes.c:446:       *(uint32_t*)(outputad
 446:../Libraries/STM32F4xx_StdPeriph_Driver/src/stm32f4xx_cryp_aes.c ****       outputaddr+=4;
 1372              		.loc 1 446 32 view .LVU413
 1373 0156 45F8080C 		str	r0, [r5, #-8]	@ tmp322, MEM[base: _223, offset: 4294967288B]
 447:../Libraries/STM32F4xx_StdPeriph_Driver/src/stm32f4xx_cryp_aes.c ****       *(uint32_t*)(outputaddr) = CRYP_DataOut();
 1374              		.loc 1 447 7 is_stmt 1 view .LVU414
 1375              	.LVL141:
 448:../Libraries/STM32F4xx_StdPeriph_Driver/src/stm32f4xx_cryp_aes.c ****       outputaddr+=4;
ARM GAS  C:\Users\admin\AppData\Local\Temp\ccAAMi0y.s 			page 44


 1376              		.loc 1 448 7 view .LVU415
 1377              	@ ../Libraries/STM32F4xx_StdPeriph_Driver/src/stm32f4xx_cryp_aes.c:448:       *(uint32_t*)(outputad
 448:../Libraries/STM32F4xx_StdPeriph_Driver/src/stm32f4xx_cryp_aes.c ****       outputaddr+=4;
 1378              		.loc 1 448 34 is_stmt 0 view .LVU416
 1379 015a FFF7FEFF 		bl	CRYP_DataOut		@
 1380              	.LVL142:
 1381              	@ ../Libraries/STM32F4xx_StdPeriph_Driver/src/stm32f4xx_cryp_aes.c:414:   for(i=0; ((i<Ilength) && 
 414:../Libraries/STM32F4xx_StdPeriph_Driver/src/stm32f4xx_cryp_aes.c ****   {
 1382              		.loc 1 414 3 view .LVU417
 1383 015e 1034     		adds	r4, r4, #16	@ ivtmp.129, ivtmp.129,
 1384              	.LVL143:
 414:../Libraries/STM32F4xx_StdPeriph_Driver/src/stm32f4xx_cryp_aes.c ****   {
 1385              		.loc 1 414 3 view .LVU418
 1386 0160 3B19     		adds	r3, r7, r4	@ i, tmp312, ivtmp.129
 1387 0162 9845     		cmp	r8, r3	@ Ilength, i
 1388              	@ ../Libraries/STM32F4xx_StdPeriph_Driver/src/stm32f4xx_cryp_aes.c:448:       *(uint32_t*)(outputad
 448:../Libraries/STM32F4xx_StdPeriph_Driver/src/stm32f4xx_cryp_aes.c ****       outputaddr+=4;
 1389              		.loc 1 448 32 view .LVU419
 1390 0164 45F8040C 		str	r0, [r5, #-4]	@ tmp323, MEM[base: _223, offset: 4294967292B]
 449:../Libraries/STM32F4xx_StdPeriph_Driver/src/stm32f4xx_cryp_aes.c ****     }
 1391              		.loc 1 449 7 is_stmt 1 view .LVU420
 1392              	.LVL144:
 414:../Libraries/STM32F4xx_StdPeriph_Driver/src/stm32f4xx_cryp_aes.c ****   {
 1393              		.loc 1 414 48 view .LVU421
 414:../Libraries/STM32F4xx_StdPeriph_Driver/src/stm32f4xx_cryp_aes.c ****   {
 1394              		.loc 1 414 12 view .LVU422
 1395              	@ ../Libraries/STM32F4xx_StdPeriph_Driver/src/stm32f4xx_cryp_aes.c:414:   for(i=0; ((i<Ilength) && 
 414:../Libraries/STM32F4xx_StdPeriph_Driver/src/stm32f4xx_cryp_aes.c ****   {
 1396              		.loc 1 414 3 is_stmt 0 view .LVU423
 1397 0168 05F11005 		add	r5, r5, #16	@ ivtmp.131, ivtmp.131,
 1398 016c C3D8     		bhi	.L44		@,
 1399              	.LVL145:
 1400              	.L46:
 1401              	@ ../Libraries/STM32F4xx_StdPeriph_Driver/src/stm32f4xx_cryp_aes.c:282: {
 282:../Libraries/STM32F4xx_StdPeriph_Driver/src/stm32f4xx_cryp_aes.c ****   CRYP_InitTypeDef AES_CRYP_InitStructure;
 1402              		.loc 1 282 1 view .LVU424
 1403 016e 0124     		movs	r4, #1	@ <retval>,
 1404 0170 E0E7     		b	.L40		@
 1405              	.LVL146:
 1406              	.L53:
 301:../Libraries/STM32F4xx_StdPeriph_Driver/src/stm32f4xx_cryp_aes.c ****     AES_CRYP_KeyInitStructure.CRYP_Key2Left = __REV(*(uint32_t*)(keyaddr));
 1407              		.loc 1 301 5 is_stmt 1 view .LVU425
 1408              	.LBB172:
 1409              	.LBB173:
 1410              	@ ../Libraries/CMSIS/Include/core_cmInstr.h:352:   __ASM volatile ("rev %0, %1" : "=r" (result) : "
 352:../Libraries/CMSIS/Include/core_cmInstr.h ****   return(result);
 1411              		.loc 2 352 3 is_stmt 0 view .LVU426
 1412 0172 2368     		ldr	r3, [r4]	@ MEM[(uint32_t *)Key_82(D)], MEM[(uint32_t *)Key_82(D)]
 1413              	.LBE173:
 1414              	.LBE172:
 1415              	@ ../Libraries/STM32F4xx_StdPeriph_Driver/src/stm32f4xx_cryp_aes.c:301:     AES_CRYP_InitStructure.
 301:../Libraries/STM32F4xx_StdPeriph_Driver/src/stm32f4xx_cryp_aes.c ****     AES_CRYP_KeyInitStructure.CRYP_Key2Left = __REV(*(uint32_t*)(keyaddr));
 1416              		.loc 1 301 41 view .LVU427
 1417 0174 ADF80EA0 		strh	r10, [sp, #14]	@ movhi	@ tmp229, AES_CRYP_InitStructure.CRYP_KeySize
 302:../Libraries/STM32F4xx_StdPeriph_Driver/src/stm32f4xx_cryp_aes.c ****     keyaddr+=4;
 1418              		.loc 1 302 5 is_stmt 1 view .LVU428
 1419              	.LVL147:
ARM GAS  C:\Users\admin\AppData\Local\Temp\ccAAMi0y.s 			page 45


 1420              	.LBB175:
 1421              	.LBI172:
 348:../Libraries/CMSIS/Include/core_cmInstr.h **** {
 1422              		.loc 2 348 61 view .LVU429
 1423              	.LBB174:
 350:../Libraries/CMSIS/Include/core_cmInstr.h ****   
 1424              		.loc 2 350 3 view .LVU430
 352:../Libraries/CMSIS/Include/core_cmInstr.h ****   return(result);
 1425              		.loc 2 352 3 view .LVU431
 1426              		.syntax unified
 1427              	@ 352 "../Libraries/CMSIS/Include/core_cmInstr.h" 1
 1428 0178 1BBA     		rev r3, r3	@ result, MEM[(uint32_t *)Key_82(D)]
 1429              	@ 0 "" 2
 1430              	.LVL148:
 1431              		.loc 2 353 3 view .LVU432
 1432              		.loc 2 353 3 is_stmt 0 view .LVU433
 1433              		.thumb
 1434              		.syntax unified
 1435              	.LBE174:
 1436              	.LBE175:
 1437              	@ ../Libraries/STM32F4xx_StdPeriph_Driver/src/stm32f4xx_cryp_aes.c:302:     AES_CRYP_KeyInitStructu
 302:../Libraries/STM32F4xx_StdPeriph_Driver/src/stm32f4xx_cryp_aes.c ****     keyaddr+=4;
 1438              		.loc 1 302 45 view .LVU434
 1439 017a 0C93     		str	r3, [sp, #48]	@ result, AES_CRYP_KeyInitStructure.CRYP_Key2Left
 303:../Libraries/STM32F4xx_StdPeriph_Driver/src/stm32f4xx_cryp_aes.c ****     AES_CRYP_KeyInitStructure.CRYP_Key2Right= __REV(*(uint32_t*)(keyaddr));
 1440              		.loc 1 303 5 is_stmt 1 view .LVU435
 1441              	.LVL149:
 304:../Libraries/STM32F4xx_StdPeriph_Driver/src/stm32f4xx_cryp_aes.c ****     keyaddr+=4;
 1442              		.loc 1 304 5 view .LVU436
 1443              	.LBB176:
 1444              	.LBI176:
 348:../Libraries/CMSIS/Include/core_cmInstr.h **** {
 1445              		.loc 2 348 61 view .LVU437
 1446              	.LBB177:
 350:../Libraries/CMSIS/Include/core_cmInstr.h ****   
 1447              		.loc 2 350 3 view .LVU438
 352:../Libraries/CMSIS/Include/core_cmInstr.h ****   return(result);
 1448              		.loc 2 352 3 view .LVU439
 1449 017c 6368     		ldr	r3, [r4, #4]	@ *keyaddr.31_2, *keyaddr.31_2
 1450              		.syntax unified
 1451              	@ 352 "../Libraries/CMSIS/Include/core_cmInstr.h" 1
 1452 017e 1BBA     		rev r3, r3	@ result, *keyaddr.31_2
 1453              	@ 0 "" 2
 1454              	.LVL150:
 1455              		.loc 2 353 3 view .LVU440
 1456              		.loc 2 353 3 is_stmt 0 view .LVU441
 1457              		.thumb
 1458              		.syntax unified
 1459              	.LBE177:
 1460              	.LBE176:
 1461              	@ ../Libraries/STM32F4xx_StdPeriph_Driver/src/stm32f4xx_cryp_aes.c:304:     AES_CRYP_KeyInitStructu
 304:../Libraries/STM32F4xx_StdPeriph_Driver/src/stm32f4xx_cryp_aes.c ****     keyaddr+=4;
 1462              		.loc 1 304 45 view .LVU442
 1463 0180 0D93     		str	r3, [sp, #52]	@ result, AES_CRYP_KeyInitStructure.CRYP_Key2Right
 305:../Libraries/STM32F4xx_StdPeriph_Driver/src/stm32f4xx_cryp_aes.c ****     AES_CRYP_KeyInitStructure.CRYP_Key3Left = __REV(*(uint32_t*)(keyaddr));
 1464              		.loc 1 305 5 is_stmt 1 view .LVU443
 1465              	.LVL151:
ARM GAS  C:\Users\admin\AppData\Local\Temp\ccAAMi0y.s 			page 46


 306:../Libraries/STM32F4xx_StdPeriph_Driver/src/stm32f4xx_cryp_aes.c ****     keyaddr+=4;
 1466              		.loc 1 306 5 view .LVU444
 1467              	.LBB178:
 1468              	.LBI178:
 348:../Libraries/CMSIS/Include/core_cmInstr.h **** {
 1469              		.loc 2 348 61 view .LVU445
 1470              	.LBB179:
 350:../Libraries/CMSIS/Include/core_cmInstr.h ****   
 1471              		.loc 2 350 3 view .LVU446
 352:../Libraries/CMSIS/Include/core_cmInstr.h ****   return(result);
 1472              		.loc 2 352 3 view .LVU447
 1473 0182 A368     		ldr	r3, [r4, #8]	@ *keyaddr.32_4, *keyaddr.32_4
 1474              		.syntax unified
 1475              	@ 352 "../Libraries/CMSIS/Include/core_cmInstr.h" 1
 1476 0184 1BBA     		rev r3, r3	@ result, *keyaddr.32_4
 1477              	@ 0 "" 2
 1478              	.LVL152:
 1479              		.loc 2 353 3 view .LVU448
 1480              		.loc 2 353 3 is_stmt 0 view .LVU449
 1481              		.thumb
 1482              		.syntax unified
 1483              	.LBE179:
 1484              	.LBE178:
 1485              	@ ../Libraries/STM32F4xx_StdPeriph_Driver/src/stm32f4xx_cryp_aes.c:306:     AES_CRYP_KeyInitStructu
 306:../Libraries/STM32F4xx_StdPeriph_Driver/src/stm32f4xx_cryp_aes.c ****     keyaddr+=4;
 1486              		.loc 1 306 45 view .LVU450
 1487 0186 0E93     		str	r3, [sp, #56]	@ result, AES_CRYP_KeyInitStructure.CRYP_Key3Left
 307:../Libraries/STM32F4xx_StdPeriph_Driver/src/stm32f4xx_cryp_aes.c ****     AES_CRYP_KeyInitStructure.CRYP_Key3Right= __REV(*(uint32_t*)(keyaddr));
 1488              		.loc 1 307 5 is_stmt 1 view .LVU451
 1489              	.LVL153:
 308:../Libraries/STM32F4xx_StdPeriph_Driver/src/stm32f4xx_cryp_aes.c ****     break;
 1490              		.loc 1 308 5 view .LVU452
 1491              	.LBB180:
 1492              	.LBI180:
 348:../Libraries/CMSIS/Include/core_cmInstr.h **** {
 1493              		.loc 2 348 61 view .LVU453
 1494              	.LBB181:
 350:../Libraries/CMSIS/Include/core_cmInstr.h ****   
 1495              		.loc 2 350 3 view .LVU454
 352:../Libraries/CMSIS/Include/core_cmInstr.h ****   return(result);
 1496              		.loc 2 352 3 view .LVU455
 1497 0188 E368     		ldr	r3, [r4, #12]	@ *keyaddr.33_6, *keyaddr.33_6
 1498              		.syntax unified
 1499              	@ 352 "../Libraries/CMSIS/Include/core_cmInstr.h" 1
 1500 018a 1BBA     		rev r3, r3	@ result, *keyaddr.33_6
 1501              	@ 0 "" 2
 1502              	.LVL154:
 1503              		.loc 2 353 3 view .LVU456
 1504              		.loc 2 353 3 is_stmt 0 view .LVU457
 1505              		.thumb
 1506              		.syntax unified
 1507              	.LBE181:
 1508              	.LBE180:
 1509              	@ ../Libraries/STM32F4xx_StdPeriph_Driver/src/stm32f4xx_cryp_aes.c:308:     AES_CRYP_KeyInitStructu
 308:../Libraries/STM32F4xx_StdPeriph_Driver/src/stm32f4xx_cryp_aes.c ****     break;
 1510              		.loc 1 308 45 view .LVU458
 1511 018c 0F93     		str	r3, [sp, #60]	@ result, AES_CRYP_KeyInitStructure.CRYP_Key3Right
ARM GAS  C:\Users\admin\AppData\Local\Temp\ccAAMi0y.s 			page 47


 309:../Libraries/STM32F4xx_StdPeriph_Driver/src/stm32f4xx_cryp_aes.c ****     case 192:
 1512              		.loc 1 309 5 is_stmt 1 view .LVU459
 1513 018e 52E7     		b	.L33		@
 1514              	.LVL155:
 1515              	.L37:
 389:../Libraries/STM32F4xx_StdPeriph_Driver/src/stm32f4xx_cryp_aes.c ****     }
 1516              		.loc 1 389 7 view .LVU460
 1517              	@ ../Libraries/STM32F4xx_StdPeriph_Driver/src/stm32f4xx_cryp_aes.c:389:       AES_CRYP_InitStructur
 389:../Libraries/STM32F4xx_StdPeriph_Driver/src/stm32f4xx_cryp_aes.c ****     }
 1518              		.loc 1 389 43 is_stmt 0 view .LVU461
 1519 0190 0423     		movs	r3, #4	@ tmp288,
 1520 0192 ADF80830 		strh	r3, [sp, #8]	@ movhi	@ tmp288, AES_CRYP_InitStructure.CRYP_AlgoDir
 1521 0196 94E7     		b	.L39		@
 1522              	.LVL156:
 1523              	.L32:
 325:../Libraries/STM32F4xx_StdPeriph_Driver/src/stm32f4xx_cryp_aes.c ****     AES_CRYP_KeyInitStructure.CRYP_Key0Left = __REV(*(uint32_t*)(keyaddr));
 1524              		.loc 1 325 5 is_stmt 1 view .LVU462
 1525              	@ ../Libraries/STM32F4xx_StdPeriph_Driver/src/stm32f4xx_cryp_aes.c:325:     AES_CRYP_InitStructure.
 325:../Libraries/STM32F4xx_StdPeriph_Driver/src/stm32f4xx_cryp_aes.c ****     AES_CRYP_KeyInitStructure.CRYP_Key0Left = __REV(*(uint32_t*)(keyaddr));
 1526              		.loc 1 325 42 is_stmt 0 view .LVU463
 1527 0198 4FF40073 		mov	r3, #512	@ tmp256,
 1528 019c ADF80E30 		strh	r3, [sp, #14]	@ movhi	@ tmp256, AES_CRYP_InitStructure.CRYP_KeySize
 326:../Libraries/STM32F4xx_StdPeriph_Driver/src/stm32f4xx_cryp_aes.c ****     keyaddr+=4;
 1529              		.loc 1 326 5 is_stmt 1 view .LVU464
 1530              	.LVL157:
 1531              	.LBB182:
 1532              	.LBI182:
 348:../Libraries/CMSIS/Include/core_cmInstr.h **** {
 1533              		.loc 2 348 61 view .LVU465
 1534              	.LBB183:
 350:../Libraries/CMSIS/Include/core_cmInstr.h ****   
 1535              		.loc 2 350 3 view .LVU466
 352:../Libraries/CMSIS/Include/core_cmInstr.h ****   return(result);
 1536              		.loc 2 352 3 view .LVU467
 1537 01a0 2368     		ldr	r3, [r4]	@ MEM[(uint32_t *)Key_82(D)], MEM[(uint32_t *)Key_82(D)]
 1538              		.syntax unified
 1539              	@ 352 "../Libraries/CMSIS/Include/core_cmInstr.h" 1
 1540 01a2 1BBA     		rev r3, r3	@ result, MEM[(uint32_t *)Key_82(D)]
 1541              	@ 0 "" 2
 1542              	.LVL158:
 1543              		.loc 2 353 3 view .LVU468
 1544              		.loc 2 353 3 is_stmt 0 view .LVU469
 1545              		.thumb
 1546              		.syntax unified
 1547              	.LBE183:
 1548              	.LBE182:
 1549              	@ ../Libraries/STM32F4xx_StdPeriph_Driver/src/stm32f4xx_cryp_aes.c:326:     AES_CRYP_KeyInitStructu
 326:../Libraries/STM32F4xx_StdPeriph_Driver/src/stm32f4xx_cryp_aes.c ****     keyaddr+=4;
 1550              		.loc 1 326 45 view .LVU470
 1551 01a4 0893     		str	r3, [sp, #32]	@ result, AES_CRYP_KeyInitStructure.CRYP_Key0Left
 327:../Libraries/STM32F4xx_StdPeriph_Driver/src/stm32f4xx_cryp_aes.c ****     AES_CRYP_KeyInitStructure.CRYP_Key0Right= __REV(*(uint32_t*)(keyaddr));
 1552              		.loc 1 327 5 is_stmt 1 view .LVU471
 1553              	.LVL159:
 328:../Libraries/STM32F4xx_StdPeriph_Driver/src/stm32f4xx_cryp_aes.c ****     keyaddr+=4;
 1554              		.loc 1 328 5 view .LVU472
 1555              	.LBB184:
 1556              	.LBI184:
ARM GAS  C:\Users\admin\AppData\Local\Temp\ccAAMi0y.s 			page 48


 348:../Libraries/CMSIS/Include/core_cmInstr.h **** {
 1557              		.loc 2 348 61 view .LVU473
 1558              	.LBB185:
 350:../Libraries/CMSIS/Include/core_cmInstr.h ****   
 1559              		.loc 2 350 3 view .LVU474
 352:../Libraries/CMSIS/Include/core_cmInstr.h ****   return(result);
 1560              		.loc 2 352 3 view .LVU475
 1561 01a6 6368     		ldr	r3, [r4, #4]	@ *keyaddr.41_20, *keyaddr.41_20
 1562              		.syntax unified
 1563              	@ 352 "../Libraries/CMSIS/Include/core_cmInstr.h" 1
 1564 01a8 1BBA     		rev r3, r3	@ result, *keyaddr.41_20
 1565              	@ 0 "" 2
 1566              	.LVL160:
 1567              		.loc 2 353 3 view .LVU476
 1568              		.loc 2 353 3 is_stmt 0 view .LVU477
 1569              		.thumb
 1570              		.syntax unified
 1571              	.LBE185:
 1572              	.LBE184:
 1573              	@ ../Libraries/STM32F4xx_StdPeriph_Driver/src/stm32f4xx_cryp_aes.c:328:     AES_CRYP_KeyInitStructu
 328:../Libraries/STM32F4xx_StdPeriph_Driver/src/stm32f4xx_cryp_aes.c ****     keyaddr+=4;
 1574              		.loc 1 328 45 view .LVU478
 1575 01aa 0993     		str	r3, [sp, #36]	@ result, AES_CRYP_KeyInitStructure.CRYP_Key0Right
 329:../Libraries/STM32F4xx_StdPeriph_Driver/src/stm32f4xx_cryp_aes.c ****     AES_CRYP_KeyInitStructure.CRYP_Key1Left = __REV(*(uint32_t*)(keyaddr));
 1576              		.loc 1 329 5 is_stmt 1 view .LVU479
 1577              	.LVL161:
 330:../Libraries/STM32F4xx_StdPeriph_Driver/src/stm32f4xx_cryp_aes.c ****     keyaddr+=4;
 1578              		.loc 1 330 5 view .LVU480
 1579              	.LBB186:
 1580              	.LBI186:
 348:../Libraries/CMSIS/Include/core_cmInstr.h **** {
 1581              		.loc 2 348 61 view .LVU481
 1582              	.LBB187:
 350:../Libraries/CMSIS/Include/core_cmInstr.h ****   
 1583              		.loc 2 350 3 view .LVU482
 352:../Libraries/CMSIS/Include/core_cmInstr.h ****   return(result);
 1584              		.loc 2 352 3 view .LVU483
 1585 01ac A368     		ldr	r3, [r4, #8]	@ *keyaddr.42_22, *keyaddr.42_22
 1586              		.syntax unified
 1587              	@ 352 "../Libraries/CMSIS/Include/core_cmInstr.h" 1
 1588 01ae 1BBA     		rev r3, r3	@ result, *keyaddr.42_22
 1589              	@ 0 "" 2
 1590              	.LVL162:
 1591              		.loc 2 353 3 view .LVU484
 1592              		.loc 2 353 3 is_stmt 0 view .LVU485
 1593              		.thumb
 1594              		.syntax unified
 1595              	.LBE187:
 1596              	.LBE186:
 1597              	@ ../Libraries/STM32F4xx_StdPeriph_Driver/src/stm32f4xx_cryp_aes.c:330:     AES_CRYP_KeyInitStructu
 330:../Libraries/STM32F4xx_StdPeriph_Driver/src/stm32f4xx_cryp_aes.c ****     keyaddr+=4;
 1598              		.loc 1 330 45 view .LVU486
 1599 01b0 0A93     		str	r3, [sp, #40]	@ result, AES_CRYP_KeyInitStructure.CRYP_Key1Left
 331:../Libraries/STM32F4xx_StdPeriph_Driver/src/stm32f4xx_cryp_aes.c ****     AES_CRYP_KeyInitStructure.CRYP_Key1Right= __REV(*(uint32_t*)(keyaddr));
 1600              		.loc 1 331 5 is_stmt 1 view .LVU487
 1601              	.LVL163:
 332:../Libraries/STM32F4xx_StdPeriph_Driver/src/stm32f4xx_cryp_aes.c ****     keyaddr+=4;
ARM GAS  C:\Users\admin\AppData\Local\Temp\ccAAMi0y.s 			page 49


 1602              		.loc 1 332 5 view .LVU488
 1603              	.LBB188:
 1604              	.LBI188:
 348:../Libraries/CMSIS/Include/core_cmInstr.h **** {
 1605              		.loc 2 348 61 view .LVU489
 1606              	.LBB189:
 350:../Libraries/CMSIS/Include/core_cmInstr.h ****   
 1607              		.loc 2 350 3 view .LVU490
 352:../Libraries/CMSIS/Include/core_cmInstr.h ****   return(result);
 1608              		.loc 2 352 3 view .LVU491
 1609 01b2 E368     		ldr	r3, [r4, #12]	@ *keyaddr.43_24, *keyaddr.43_24
 1610              		.syntax unified
 1611              	@ 352 "../Libraries/CMSIS/Include/core_cmInstr.h" 1
 1612 01b4 1BBA     		rev r3, r3	@ result, *keyaddr.43_24
 1613              	@ 0 "" 2
 1614              	.LVL164:
 1615              		.loc 2 353 3 view .LVU492
 1616              		.loc 2 353 3 is_stmt 0 view .LVU493
 1617              		.thumb
 1618              		.syntax unified
 1619              	.LBE189:
 1620              	.LBE188:
 1621              	@ ../Libraries/STM32F4xx_StdPeriph_Driver/src/stm32f4xx_cryp_aes.c:332:     AES_CRYP_KeyInitStructu
 332:../Libraries/STM32F4xx_StdPeriph_Driver/src/stm32f4xx_cryp_aes.c ****     keyaddr+=4;
 1622              		.loc 1 332 45 view .LVU494
 1623 01b6 0B93     		str	r3, [sp, #44]	@ result, AES_CRYP_KeyInitStructure.CRYP_Key1Right
 333:../Libraries/STM32F4xx_StdPeriph_Driver/src/stm32f4xx_cryp_aes.c ****     AES_CRYP_KeyInitStructure.CRYP_Key2Left = __REV(*(uint32_t*)(keyaddr));
 1624              		.loc 1 333 5 is_stmt 1 view .LVU495
 1625              	.LVL165:
 334:../Libraries/STM32F4xx_StdPeriph_Driver/src/stm32f4xx_cryp_aes.c ****     keyaddr+=4;
 1626              		.loc 1 334 5 view .LVU496
 1627              	.LBB190:
 1628              	.LBI190:
 348:../Libraries/CMSIS/Include/core_cmInstr.h **** {
 1629              		.loc 2 348 61 view .LVU497
 1630              	.LBB191:
 350:../Libraries/CMSIS/Include/core_cmInstr.h ****   
 1631              		.loc 2 350 3 view .LVU498
 352:../Libraries/CMSIS/Include/core_cmInstr.h ****   return(result);
 1632              		.loc 2 352 3 view .LVU499
 1633 01b8 2369     		ldr	r3, [r4, #16]	@ *keyaddr.44_26, *keyaddr.44_26
 1634              		.syntax unified
 1635              	@ 352 "../Libraries/CMSIS/Include/core_cmInstr.h" 1
 1636 01ba 1BBA     		rev r3, r3	@ result, *keyaddr.44_26
 1637              	@ 0 "" 2
 1638              	.LVL166:
 1639              		.loc 2 353 3 view .LVU500
 1640              		.loc 2 353 3 is_stmt 0 view .LVU501
 1641              		.thumb
 1642              		.syntax unified
 1643              	.LBE191:
 1644              	.LBE190:
 1645              	@ ../Libraries/STM32F4xx_StdPeriph_Driver/src/stm32f4xx_cryp_aes.c:334:     AES_CRYP_KeyInitStructu
 334:../Libraries/STM32F4xx_StdPeriph_Driver/src/stm32f4xx_cryp_aes.c ****     keyaddr+=4;
 1646              		.loc 1 334 45 view .LVU502
 1647 01bc 0C93     		str	r3, [sp, #48]	@ result, AES_CRYP_KeyInitStructure.CRYP_Key2Left
 335:../Libraries/STM32F4xx_StdPeriph_Driver/src/stm32f4xx_cryp_aes.c ****     AES_CRYP_KeyInitStructure.CRYP_Key2Right= __REV(*(uint32_t*)(keyaddr));
ARM GAS  C:\Users\admin\AppData\Local\Temp\ccAAMi0y.s 			page 50


 1648              		.loc 1 335 5 is_stmt 1 view .LVU503
 1649              	.LVL167:
 336:../Libraries/STM32F4xx_StdPeriph_Driver/src/stm32f4xx_cryp_aes.c ****     keyaddr+=4;
 1650              		.loc 1 336 5 view .LVU504
 1651              	.LBB192:
 1652              	.LBI192:
 348:../Libraries/CMSIS/Include/core_cmInstr.h **** {
 1653              		.loc 2 348 61 view .LVU505
 1654              	.LBB193:
 350:../Libraries/CMSIS/Include/core_cmInstr.h ****   
 1655              		.loc 2 350 3 view .LVU506
 352:../Libraries/CMSIS/Include/core_cmInstr.h ****   return(result);
 1656              		.loc 2 352 3 view .LVU507
 1657 01be 6369     		ldr	r3, [r4, #20]	@ *keyaddr.45_28, *keyaddr.45_28
 1658              		.syntax unified
 1659              	@ 352 "../Libraries/CMSIS/Include/core_cmInstr.h" 1
 1660 01c0 1BBA     		rev r3, r3	@ result, *keyaddr.45_28
 1661              	@ 0 "" 2
 1662              	.LVL168:
 1663              		.loc 2 353 3 view .LVU508
 1664              		.loc 2 353 3 is_stmt 0 view .LVU509
 1665              		.thumb
 1666              		.syntax unified
 1667              	.LBE193:
 1668              	.LBE192:
 1669              	@ ../Libraries/STM32F4xx_StdPeriph_Driver/src/stm32f4xx_cryp_aes.c:336:     AES_CRYP_KeyInitStructu
 336:../Libraries/STM32F4xx_StdPeriph_Driver/src/stm32f4xx_cryp_aes.c ****     keyaddr+=4;
 1670              		.loc 1 336 45 view .LVU510
 1671 01c2 0D93     		str	r3, [sp, #52]	@ result, AES_CRYP_KeyInitStructure.CRYP_Key2Right
 337:../Libraries/STM32F4xx_StdPeriph_Driver/src/stm32f4xx_cryp_aes.c ****     AES_CRYP_KeyInitStructure.CRYP_Key3Left = __REV(*(uint32_t*)(keyaddr));
 1672              		.loc 1 337 5 is_stmt 1 view .LVU511
 1673              	.LVL169:
 338:../Libraries/STM32F4xx_StdPeriph_Driver/src/stm32f4xx_cryp_aes.c ****     keyaddr+=4;
 1674              		.loc 1 338 5 view .LVU512
 1675              	.LBB194:
 1676              	.LBI194:
 348:../Libraries/CMSIS/Include/core_cmInstr.h **** {
 1677              		.loc 2 348 61 view .LVU513
 1678              	.LBB195:
 350:../Libraries/CMSIS/Include/core_cmInstr.h ****   
 1679              		.loc 2 350 3 view .LVU514
 352:../Libraries/CMSIS/Include/core_cmInstr.h ****   return(result);
 1680              		.loc 2 352 3 view .LVU515
 1681 01c4 A369     		ldr	r3, [r4, #24]	@ *keyaddr.46_30, *keyaddr.46_30
 1682              		.syntax unified
 1683              	@ 352 "../Libraries/CMSIS/Include/core_cmInstr.h" 1
 1684 01c6 1BBA     		rev r3, r3	@ result, *keyaddr.46_30
 1685              	@ 0 "" 2
 1686              	.LVL170:
 1687              		.loc 2 353 3 view .LVU516
 1688              		.loc 2 353 3 is_stmt 0 view .LVU517
 1689              		.thumb
 1690              		.syntax unified
 1691              	.LBE195:
 1692              	.LBE194:
 1693              	@ ../Libraries/STM32F4xx_StdPeriph_Driver/src/stm32f4xx_cryp_aes.c:338:     AES_CRYP_KeyInitStructu
 338:../Libraries/STM32F4xx_StdPeriph_Driver/src/stm32f4xx_cryp_aes.c ****     keyaddr+=4;
ARM GAS  C:\Users\admin\AppData\Local\Temp\ccAAMi0y.s 			page 51


 1694              		.loc 1 338 45 view .LVU518
 1695 01c8 0E93     		str	r3, [sp, #56]	@ result, AES_CRYP_KeyInitStructure.CRYP_Key3Left
 339:../Libraries/STM32F4xx_StdPeriph_Driver/src/stm32f4xx_cryp_aes.c ****     AES_CRYP_KeyInitStructure.CRYP_Key3Right= __REV(*(uint32_t*)(keyaddr));
 1696              		.loc 1 339 5 is_stmt 1 view .LVU519
 1697              	.LVL171:
 340:../Libraries/STM32F4xx_StdPeriph_Driver/src/stm32f4xx_cryp_aes.c ****     break;
 1698              		.loc 1 340 5 view .LVU520
 1699              	.LBB196:
 1700              	.LBI196:
 348:../Libraries/CMSIS/Include/core_cmInstr.h **** {
 1701              		.loc 2 348 61 view .LVU521
 1702              	.LBB197:
 350:../Libraries/CMSIS/Include/core_cmInstr.h ****   
 1703              		.loc 2 350 3 view .LVU522
 352:../Libraries/CMSIS/Include/core_cmInstr.h ****   return(result);
 1704              		.loc 2 352 3 view .LVU523
 1705 01ca E369     		ldr	r3, [r4, #28]	@ *keyaddr.47_32, *keyaddr.47_32
 1706              		.syntax unified
 1707              	@ 352 "../Libraries/CMSIS/Include/core_cmInstr.h" 1
 1708 01cc 1BBA     		rev r3, r3	@ result, *keyaddr.47_32
 1709              	@ 0 "" 2
 1710              	.LVL172:
 1711              		.loc 2 353 3 view .LVU524
 1712              		.loc 2 353 3 is_stmt 0 view .LVU525
 1713              		.thumb
 1714              		.syntax unified
 1715              	.LBE197:
 1716              	.LBE196:
 1717              	@ ../Libraries/STM32F4xx_StdPeriph_Driver/src/stm32f4xx_cryp_aes.c:340:     AES_CRYP_KeyInitStructu
 340:../Libraries/STM32F4xx_StdPeriph_Driver/src/stm32f4xx_cryp_aes.c ****     break;
 1718              		.loc 1 340 45 view .LVU526
 1719 01ce 0F93     		str	r3, [sp, #60]	@ result, AES_CRYP_KeyInitStructure.CRYP_Key3Right
 341:../Libraries/STM32F4xx_StdPeriph_Driver/src/stm32f4xx_cryp_aes.c ****     default:
 1720              		.loc 1 341 5 is_stmt 1 view .LVU527
 1721 01d0 31E7     		b	.L33		@
 1722              	.LVL173:
 1723              	.L31:
 311:../Libraries/STM32F4xx_StdPeriph_Driver/src/stm32f4xx_cryp_aes.c ****     AES_CRYP_KeyInitStructure.CRYP_Key1Left = __REV(*(uint32_t*)(keyaddr));
 1724              		.loc 1 311 5 view .LVU528
 1725              	@ ../Libraries/STM32F4xx_StdPeriph_Driver/src/stm32f4xx_cryp_aes.c:311:     AES_CRYP_InitStructure.
 311:../Libraries/STM32F4xx_StdPeriph_Driver/src/stm32f4xx_cryp_aes.c ****     AES_CRYP_KeyInitStructure.CRYP_Key1Left = __REV(*(uint32_t*)(keyaddr));
 1726              		.loc 1 311 42 is_stmt 0 view .LVU529
 1727 01d2 4FF48073 		mov	r3, #256	@ tmp242,
 1728 01d6 ADF80E30 		strh	r3, [sp, #14]	@ movhi	@ tmp242, AES_CRYP_InitStructure.CRYP_KeySize
 312:../Libraries/STM32F4xx_StdPeriph_Driver/src/stm32f4xx_cryp_aes.c ****     keyaddr+=4;
 1729              		.loc 1 312 5 is_stmt 1 view .LVU530
 1730              	.LVL174:
 1731              	.LBB198:
 1732              	.LBI198:
 348:../Libraries/CMSIS/Include/core_cmInstr.h **** {
 1733              		.loc 2 348 61 view .LVU531
 1734              	.LBB199:
 350:../Libraries/CMSIS/Include/core_cmInstr.h ****   
 1735              		.loc 2 350 3 view .LVU532
 352:../Libraries/CMSIS/Include/core_cmInstr.h ****   return(result);
 1736              		.loc 2 352 3 view .LVU533
 1737 01da 2368     		ldr	r3, [r4]	@ MEM[(uint32_t *)Key_82(D)], MEM[(uint32_t *)Key_82(D)]
ARM GAS  C:\Users\admin\AppData\Local\Temp\ccAAMi0y.s 			page 52


 1738              		.syntax unified
 1739              	@ 352 "../Libraries/CMSIS/Include/core_cmInstr.h" 1
 1740 01dc 1BBA     		rev r3, r3	@ result, MEM[(uint32_t *)Key_82(D)]
 1741              	@ 0 "" 2
 1742              	.LVL175:
 1743              		.loc 2 353 3 view .LVU534
 1744              		.loc 2 353 3 is_stmt 0 view .LVU535
 1745              		.thumb
 1746              		.syntax unified
 1747              	.LBE199:
 1748              	.LBE198:
 1749              	@ ../Libraries/STM32F4xx_StdPeriph_Driver/src/stm32f4xx_cryp_aes.c:312:     AES_CRYP_KeyInitStructu
 312:../Libraries/STM32F4xx_StdPeriph_Driver/src/stm32f4xx_cryp_aes.c ****     keyaddr+=4;
 1750              		.loc 1 312 45 view .LVU536
 1751 01de 0A93     		str	r3, [sp, #40]	@ result, AES_CRYP_KeyInitStructure.CRYP_Key1Left
 313:../Libraries/STM32F4xx_StdPeriph_Driver/src/stm32f4xx_cryp_aes.c ****     AES_CRYP_KeyInitStructure.CRYP_Key1Right= __REV(*(uint32_t*)(keyaddr));
 1752              		.loc 1 313 5 is_stmt 1 view .LVU537
 1753              	.LVL176:
 314:../Libraries/STM32F4xx_StdPeriph_Driver/src/stm32f4xx_cryp_aes.c ****     keyaddr+=4;
 1754              		.loc 1 314 5 view .LVU538
 1755              	.LBB200:
 1756              	.LBI200:
 348:../Libraries/CMSIS/Include/core_cmInstr.h **** {
 1757              		.loc 2 348 61 view .LVU539
 1758              	.LBB201:
 350:../Libraries/CMSIS/Include/core_cmInstr.h ****   
 1759              		.loc 2 350 3 view .LVU540
 352:../Libraries/CMSIS/Include/core_cmInstr.h ****   return(result);
 1760              		.loc 2 352 3 view .LVU541
 1761 01e0 6368     		ldr	r3, [r4, #4]	@ *keyaddr.35_9, *keyaddr.35_9
 1762              		.syntax unified
 1763              	@ 352 "../Libraries/CMSIS/Include/core_cmInstr.h" 1
 1764 01e2 1BBA     		rev r3, r3	@ result, *keyaddr.35_9
 1765              	@ 0 "" 2
 1766              	.LVL177:
 1767              		.loc 2 353 3 view .LVU542
 1768              		.loc 2 353 3 is_stmt 0 view .LVU543
 1769              		.thumb
 1770              		.syntax unified
 1771              	.LBE201:
 1772              	.LBE200:
 1773              	@ ../Libraries/STM32F4xx_StdPeriph_Driver/src/stm32f4xx_cryp_aes.c:314:     AES_CRYP_KeyInitStructu
 314:../Libraries/STM32F4xx_StdPeriph_Driver/src/stm32f4xx_cryp_aes.c ****     keyaddr+=4;
 1774              		.loc 1 314 45 view .LVU544
 1775 01e4 0B93     		str	r3, [sp, #44]	@ result, AES_CRYP_KeyInitStructure.CRYP_Key1Right
 315:../Libraries/STM32F4xx_StdPeriph_Driver/src/stm32f4xx_cryp_aes.c ****     AES_CRYP_KeyInitStructure.CRYP_Key2Left = __REV(*(uint32_t*)(keyaddr));
 1776              		.loc 1 315 5 is_stmt 1 view .LVU545
 1777              	.LVL178:
 316:../Libraries/STM32F4xx_StdPeriph_Driver/src/stm32f4xx_cryp_aes.c ****     keyaddr+=4;
 1778              		.loc 1 316 5 view .LVU546
 1779              	.LBB202:
 1780              	.LBI202:
 348:../Libraries/CMSIS/Include/core_cmInstr.h **** {
 1781              		.loc 2 348 61 view .LVU547
 1782              	.LBB203:
 350:../Libraries/CMSIS/Include/core_cmInstr.h ****   
 1783              		.loc 2 350 3 view .LVU548
ARM GAS  C:\Users\admin\AppData\Local\Temp\ccAAMi0y.s 			page 53


 352:../Libraries/CMSIS/Include/core_cmInstr.h ****   return(result);
 1784              		.loc 2 352 3 view .LVU549
 1785 01e6 A368     		ldr	r3, [r4, #8]	@ *keyaddr.36_11, *keyaddr.36_11
 1786              		.syntax unified
 1787              	@ 352 "../Libraries/CMSIS/Include/core_cmInstr.h" 1
 1788 01e8 1BBA     		rev r3, r3	@ result, *keyaddr.36_11
 1789              	@ 0 "" 2
 1790              	.LVL179:
 1791              		.loc 2 353 3 view .LVU550
 1792              		.loc 2 353 3 is_stmt 0 view .LVU551
 1793              		.thumb
 1794              		.syntax unified
 1795              	.LBE203:
 1796              	.LBE202:
 1797              	@ ../Libraries/STM32F4xx_StdPeriph_Driver/src/stm32f4xx_cryp_aes.c:316:     AES_CRYP_KeyInitStructu
 316:../Libraries/STM32F4xx_StdPeriph_Driver/src/stm32f4xx_cryp_aes.c ****     keyaddr+=4;
 1798              		.loc 1 316 45 view .LVU552
 1799 01ea 0C93     		str	r3, [sp, #48]	@ result, AES_CRYP_KeyInitStructure.CRYP_Key2Left
 317:../Libraries/STM32F4xx_StdPeriph_Driver/src/stm32f4xx_cryp_aes.c ****     AES_CRYP_KeyInitStructure.CRYP_Key2Right= __REV(*(uint32_t*)(keyaddr));
 1800              		.loc 1 317 5 is_stmt 1 view .LVU553
 1801              	.LVL180:
 318:../Libraries/STM32F4xx_StdPeriph_Driver/src/stm32f4xx_cryp_aes.c ****     keyaddr+=4;
 1802              		.loc 1 318 5 view .LVU554
 1803              	.LBB204:
 1804              	.LBI204:
 348:../Libraries/CMSIS/Include/core_cmInstr.h **** {
 1805              		.loc 2 348 61 view .LVU555
 1806              	.LBB205:
 350:../Libraries/CMSIS/Include/core_cmInstr.h ****   
 1807              		.loc 2 350 3 view .LVU556
 352:../Libraries/CMSIS/Include/core_cmInstr.h ****   return(result);
 1808              		.loc 2 352 3 view .LVU557
 1809 01ec E368     		ldr	r3, [r4, #12]	@ *keyaddr.37_13, *keyaddr.37_13
 1810              		.syntax unified
 1811              	@ 352 "../Libraries/CMSIS/Include/core_cmInstr.h" 1
 1812 01ee 1BBA     		rev r3, r3	@ result, *keyaddr.37_13
 1813              	@ 0 "" 2
 1814              	.LVL181:
 1815              		.loc 2 353 3 view .LVU558
 1816              		.loc 2 353 3 is_stmt 0 view .LVU559
 1817              		.thumb
 1818              		.syntax unified
 1819              	.LBE205:
 1820              	.LBE204:
 1821              	@ ../Libraries/STM32F4xx_StdPeriph_Driver/src/stm32f4xx_cryp_aes.c:318:     AES_CRYP_KeyInitStructu
 318:../Libraries/STM32F4xx_StdPeriph_Driver/src/stm32f4xx_cryp_aes.c ****     keyaddr+=4;
 1822              		.loc 1 318 45 view .LVU560
 1823 01f0 0D93     		str	r3, [sp, #52]	@ result, AES_CRYP_KeyInitStructure.CRYP_Key2Right
 319:../Libraries/STM32F4xx_StdPeriph_Driver/src/stm32f4xx_cryp_aes.c ****     AES_CRYP_KeyInitStructure.CRYP_Key3Left = __REV(*(uint32_t*)(keyaddr));
 1824              		.loc 1 319 5 is_stmt 1 view .LVU561
 1825              	.LVL182:
 320:../Libraries/STM32F4xx_StdPeriph_Driver/src/stm32f4xx_cryp_aes.c ****     keyaddr+=4;
 1826              		.loc 1 320 5 view .LVU562
 1827              	.LBB206:
 1828              	.LBI206:
 348:../Libraries/CMSIS/Include/core_cmInstr.h **** {
 1829              		.loc 2 348 61 view .LVU563
ARM GAS  C:\Users\admin\AppData\Local\Temp\ccAAMi0y.s 			page 54


 1830              	.LBB207:
 350:../Libraries/CMSIS/Include/core_cmInstr.h ****   
 1831              		.loc 2 350 3 view .LVU564
 352:../Libraries/CMSIS/Include/core_cmInstr.h ****   return(result);
 1832              		.loc 2 352 3 view .LVU565
 1833 01f2 2369     		ldr	r3, [r4, #16]	@ *keyaddr.38_15, *keyaddr.38_15
 1834              		.syntax unified
 1835              	@ 352 "../Libraries/CMSIS/Include/core_cmInstr.h" 1
 1836 01f4 1BBA     		rev r3, r3	@ result, *keyaddr.38_15
 1837              	@ 0 "" 2
 1838              	.LVL183:
 1839              		.loc 2 353 3 view .LVU566
 1840              		.loc 2 353 3 is_stmt 0 view .LVU567
 1841              		.thumb
 1842              		.syntax unified
 1843              	.LBE207:
 1844              	.LBE206:
 1845              	@ ../Libraries/STM32F4xx_StdPeriph_Driver/src/stm32f4xx_cryp_aes.c:320:     AES_CRYP_KeyInitStructu
 320:../Libraries/STM32F4xx_StdPeriph_Driver/src/stm32f4xx_cryp_aes.c ****     keyaddr+=4;
 1846              		.loc 1 320 45 view .LVU568
 1847 01f6 0E93     		str	r3, [sp, #56]	@ result, AES_CRYP_KeyInitStructure.CRYP_Key3Left
 321:../Libraries/STM32F4xx_StdPeriph_Driver/src/stm32f4xx_cryp_aes.c ****     AES_CRYP_KeyInitStructure.CRYP_Key3Right= __REV(*(uint32_t*)(keyaddr));
 1848              		.loc 1 321 5 is_stmt 1 view .LVU569
 1849              	.LVL184:
 322:../Libraries/STM32F4xx_StdPeriph_Driver/src/stm32f4xx_cryp_aes.c ****     break;
 1850              		.loc 1 322 5 view .LVU570
 1851              	.LBB208:
 1852              	.LBI208:
 348:../Libraries/CMSIS/Include/core_cmInstr.h **** {
 1853              		.loc 2 348 61 view .LVU571
 1854              	.LBB209:
 350:../Libraries/CMSIS/Include/core_cmInstr.h ****   
 1855              		.loc 2 350 3 view .LVU572
 352:../Libraries/CMSIS/Include/core_cmInstr.h ****   return(result);
 1856              		.loc 2 352 3 view .LVU573
 1857 01f8 6369     		ldr	r3, [r4, #20]	@ *keyaddr.39_17, *keyaddr.39_17
 1858              		.syntax unified
 1859              	@ 352 "../Libraries/CMSIS/Include/core_cmInstr.h" 1
 1860 01fa 1BBA     		rev r3, r3	@ result, *keyaddr.39_17
 1861              	@ 0 "" 2
 1862              	.LVL185:
 1863              		.loc 2 353 3 view .LVU574
 1864              		.loc 2 353 3 is_stmt 0 view .LVU575
 1865              		.thumb
 1866              		.syntax unified
 1867              	.LBE209:
 1868              	.LBE208:
 1869              	@ ../Libraries/STM32F4xx_StdPeriph_Driver/src/stm32f4xx_cryp_aes.c:322:     AES_CRYP_KeyInitStructu
 322:../Libraries/STM32F4xx_StdPeriph_Driver/src/stm32f4xx_cryp_aes.c ****     break;
 1870              		.loc 1 322 45 view .LVU576
 1871 01fc 0F93     		str	r3, [sp, #60]	@ result, AES_CRYP_KeyInitStructure.CRYP_Key3Right
 323:../Libraries/STM32F4xx_StdPeriph_Driver/src/stm32f4xx_cryp_aes.c ****     case 256:
 1872              		.loc 1 323 5 is_stmt 1 view .LVU577
 1873 01fe 1AE7     		b	.L33		@
 1874              	.L57:
 1875              		.align	2
 1876              	.L56:
ARM GAS  C:\Users\admin\AppData\Local\Temp\ccAAMi0y.s 			page 55


 1877 0200 04003800 		.word	3670020
 1878 0204 28008000 		.word	8388648
 1879              		.cfi_endproc
 1880              	.LFE111:
 1881              		.size	CRYP_AES_CBC, .-CRYP_AES_CBC
 1882              		.section	.text.CRYP_AES_CTR,"ax",%progbits
 1883              		.align	1
 1884              		.p2align 2,,3
 1885              		.global	CRYP_AES_CTR
 1886              		.syntax unified
 1887              		.thumb
 1888              		.thumb_func
 1889              		.type	CRYP_AES_CTR, %function
 1890              	CRYP_AES_CTR:
 1891              	.LVL186:
 1892              	.LFB112:
 458:../Libraries/STM32F4xx_StdPeriph_Driver/src/stm32f4xx_cryp_aes.c **** 
 459:../Libraries/STM32F4xx_StdPeriph_Driver/src/stm32f4xx_cryp_aes.c **** /**
 460:../Libraries/STM32F4xx_StdPeriph_Driver/src/stm32f4xx_cryp_aes.c ****   * @brief  Encrypt and decrypt using AES in CTR Mode
 461:../Libraries/STM32F4xx_StdPeriph_Driver/src/stm32f4xx_cryp_aes.c ****   * @param  Mode: encryption or decryption Mode.
 462:../Libraries/STM32F4xx_StdPeriph_Driver/src/stm32f4xx_cryp_aes.c ****   *           This parameter can be one of the following values:
 463:../Libraries/STM32F4xx_StdPeriph_Driver/src/stm32f4xx_cryp_aes.c ****   *            @arg MODE_ENCRYPT: Encryption
 464:../Libraries/STM32F4xx_StdPeriph_Driver/src/stm32f4xx_cryp_aes.c ****   *            @arg MODE_DECRYPT: Decryption
 465:../Libraries/STM32F4xx_StdPeriph_Driver/src/stm32f4xx_cryp_aes.c ****   * @param  InitVectors: Initialisation Vectors used for AES algorithm.
 466:../Libraries/STM32F4xx_StdPeriph_Driver/src/stm32f4xx_cryp_aes.c ****   * @param  Key: Key used for AES algorithm.
 467:../Libraries/STM32F4xx_StdPeriph_Driver/src/stm32f4xx_cryp_aes.c ****   * @param  Keysize: length of the Key, must be a 128, 192 or 256.
 468:../Libraries/STM32F4xx_StdPeriph_Driver/src/stm32f4xx_cryp_aes.c ****   * @param  Input: pointer to the Input buffer.
 469:../Libraries/STM32F4xx_StdPeriph_Driver/src/stm32f4xx_cryp_aes.c ****   * @param  Ilength: length of the Input buffer, must be a multiple of 16.
 470:../Libraries/STM32F4xx_StdPeriph_Driver/src/stm32f4xx_cryp_aes.c ****   * @param  Output: pointer to the returned buffer.
 471:../Libraries/STM32F4xx_StdPeriph_Driver/src/stm32f4xx_cryp_aes.c ****   * @retval An ErrorStatus enumeration value:
 472:../Libraries/STM32F4xx_StdPeriph_Driver/src/stm32f4xx_cryp_aes.c ****   *          - SUCCESS: Operation done
 473:../Libraries/STM32F4xx_StdPeriph_Driver/src/stm32f4xx_cryp_aes.c ****   *          - ERROR: Operation failed
 474:../Libraries/STM32F4xx_StdPeriph_Driver/src/stm32f4xx_cryp_aes.c ****   */
 475:../Libraries/STM32F4xx_StdPeriph_Driver/src/stm32f4xx_cryp_aes.c **** ErrorStatus CRYP_AES_CTR(uint8_t Mode, uint8_t InitVectors[16], uint8_t *Key, 
 476:../Libraries/STM32F4xx_StdPeriph_Driver/src/stm32f4xx_cryp_aes.c ****                          uint16_t Keysize, uint8_t *Input, uint32_t Ilength,
 477:../Libraries/STM32F4xx_StdPeriph_Driver/src/stm32f4xx_cryp_aes.c ****                          uint8_t *Output)
 478:../Libraries/STM32F4xx_StdPeriph_Driver/src/stm32f4xx_cryp_aes.c **** {
 1893              		.loc 1 478 1 view -0
 1894              		.cfi_startproc
 1895              		@ args = 12, pretend = 0, frame = 64
 1896              		@ frame_needed = 0, uses_anonymous_args = 0
 1897              		.loc 1 478 1 is_stmt 0 view .LVU579
 1898 0000 2DE9F047 		push	{r4, r5, r6, r7, r8, r9, r10, lr}	@
 1899              		.cfi_def_cfa_offset 32
 1900              		.cfi_offset 4, -32
 1901              		.cfi_offset 5, -28
 1902              		.cfi_offset 6, -24
 1903              		.cfi_offset 7, -20
 1904              		.cfi_offset 8, -16
 1905              		.cfi_offset 9, -12
 1906              		.cfi_offset 10, -8
 1907              		.cfi_offset 14, -4
 1908 0004 90B0     		sub	sp, sp, #64	@,,
 1909              		.cfi_def_cfa_offset 96
 1910              	@ ../Libraries/STM32F4xx_StdPeriph_Driver/src/stm32f4xx_cryp_aes.c:478: {
 1911              		.loc 1 478 1 view .LVU580
 1912 0006 9946     		mov	r9, r3	@ Keysize, tmp302
ARM GAS  C:\Users\admin\AppData\Local\Temp\ccAAMi0y.s 			page 56


 1913 0008 8246     		mov	r10, r0	@ Mode, tmp299
 1914              	@ ../Libraries/STM32F4xx_StdPeriph_Driver/src/stm32f4xx_cryp_aes.c:482:   __IO uint32_t counter = 0
 479:../Libraries/STM32F4xx_StdPeriph_Driver/src/stm32f4xx_cryp_aes.c ****   CRYP_InitTypeDef AES_CRYP_InitStructure;
 480:../Libraries/STM32F4xx_StdPeriph_Driver/src/stm32f4xx_cryp_aes.c ****   CRYP_KeyInitTypeDef AES_CRYP_KeyInitStructure;
 481:../Libraries/STM32F4xx_StdPeriph_Driver/src/stm32f4xx_cryp_aes.c ****   CRYP_IVInitTypeDef AES_CRYP_IVInitStructure;
 482:../Libraries/STM32F4xx_StdPeriph_Driver/src/stm32f4xx_cryp_aes.c ****   __IO uint32_t counter = 0;
 1915              		.loc 1 482 17 view .LVU581
 1916 000a 0025     		movs	r5, #0	@ tmp225,
 1917              	@ ../Libraries/STM32F4xx_StdPeriph_Driver/src/stm32f4xx_cryp_aes.c:492:   CRYP_KeyStructInit(&AES_C
 483:../Libraries/STM32F4xx_StdPeriph_Driver/src/stm32f4xx_cryp_aes.c ****   uint32_t busystatus = 0;
 484:../Libraries/STM32F4xx_StdPeriph_Driver/src/stm32f4xx_cryp_aes.c ****   ErrorStatus status = SUCCESS;
 485:../Libraries/STM32F4xx_StdPeriph_Driver/src/stm32f4xx_cryp_aes.c ****   uint32_t keyaddr    = (uint32_t)Key;
 486:../Libraries/STM32F4xx_StdPeriph_Driver/src/stm32f4xx_cryp_aes.c ****   uint32_t inputaddr  = (uint32_t)Input;
 487:../Libraries/STM32F4xx_StdPeriph_Driver/src/stm32f4xx_cryp_aes.c ****   uint32_t outputaddr = (uint32_t)Output;
 488:../Libraries/STM32F4xx_StdPeriph_Driver/src/stm32f4xx_cryp_aes.c ****   uint32_t ivaddr     = (uint32_t)InitVectors;
 489:../Libraries/STM32F4xx_StdPeriph_Driver/src/stm32f4xx_cryp_aes.c ****   uint32_t i = 0;
 490:../Libraries/STM32F4xx_StdPeriph_Driver/src/stm32f4xx_cryp_aes.c **** 
 491:../Libraries/STM32F4xx_StdPeriph_Driver/src/stm32f4xx_cryp_aes.c ****   /* Crypto structures initialisation*/
 492:../Libraries/STM32F4xx_StdPeriph_Driver/src/stm32f4xx_cryp_aes.c ****   CRYP_KeyStructInit(&AES_CRYP_KeyInitStructure);
 1918              		.loc 1 492 3 view .LVU582
 1919 000c 08A8     		add	r0, sp, #32	@ tmp309,,
 1920              	.LVL187:
 1921              	@ ../Libraries/STM32F4xx_StdPeriph_Driver/src/stm32f4xx_cryp_aes.c:478: {
 478:../Libraries/STM32F4xx_StdPeriph_Driver/src/stm32f4xx_cryp_aes.c ****   CRYP_InitTypeDef AES_CRYP_InitStructure;
 1922              		.loc 1 478 1 view .LVU583
 1923 000e 189F     		ldr	r7, [sp, #96]	@ Input, Input
 1924 0010 DDF86480 		ldr	r8, [sp, #100]	@ Ilength, Ilength
 479:../Libraries/STM32F4xx_StdPeriph_Driver/src/stm32f4xx_cryp_aes.c ****   CRYP_InitTypeDef AES_CRYP_InitStructure;
 1925              		.loc 1 479 3 is_stmt 1 view .LVU584
 480:../Libraries/STM32F4xx_StdPeriph_Driver/src/stm32f4xx_cryp_aes.c ****   CRYP_IVInitTypeDef AES_CRYP_IVInitStructure;
 1926              		.loc 1 480 3 view .LVU585
 481:../Libraries/STM32F4xx_StdPeriph_Driver/src/stm32f4xx_cryp_aes.c ****   __IO uint32_t counter = 0;
 1927              		.loc 1 481 3 view .LVU586
 482:../Libraries/STM32F4xx_StdPeriph_Driver/src/stm32f4xx_cryp_aes.c ****   uint32_t busystatus = 0;
 1928              		.loc 1 482 3 view .LVU587
 483:../Libraries/STM32F4xx_StdPeriph_Driver/src/stm32f4xx_cryp_aes.c ****   ErrorStatus status = SUCCESS;
 1929              		.loc 1 483 3 view .LVU588
 1930              	.LVL188:
 484:../Libraries/STM32F4xx_StdPeriph_Driver/src/stm32f4xx_cryp_aes.c ****   uint32_t keyaddr    = (uint32_t)Key;
 1931              		.loc 1 484 3 view .LVU589
 485:../Libraries/STM32F4xx_StdPeriph_Driver/src/stm32f4xx_cryp_aes.c ****   uint32_t inputaddr  = (uint32_t)Input;
 1932              		.loc 1 485 3 view .LVU590
 1933              	@ ../Libraries/STM32F4xx_StdPeriph_Driver/src/stm32f4xx_cryp_aes.c:482:   __IO uint32_t counter = 0
 482:../Libraries/STM32F4xx_StdPeriph_Driver/src/stm32f4xx_cryp_aes.c ****   uint32_t busystatus = 0;
 1934              		.loc 1 482 17 is_stmt 0 view .LVU591
 1935 0014 0195     		str	r5, [sp, #4]	@ tmp225, counter
 1936              	@ ../Libraries/STM32F4xx_StdPeriph_Driver/src/stm32f4xx_cryp_aes.c:478: {
 478:../Libraries/STM32F4xx_StdPeriph_Driver/src/stm32f4xx_cryp_aes.c ****   CRYP_InitTypeDef AES_CRYP_InitStructure;
 1937              		.loc 1 478 1 view .LVU592
 1938 0016 0E46     		mov	r6, r1	@ InitVectors, tmp300
 1939 0018 1446     		mov	r4, r2	@ Key, tmp301
 1940              	.LVL189:
 486:../Libraries/STM32F4xx_StdPeriph_Driver/src/stm32f4xx_cryp_aes.c ****   uint32_t outputaddr = (uint32_t)Output;
 1941              		.loc 1 486 3 is_stmt 1 view .LVU593
 487:../Libraries/STM32F4xx_StdPeriph_Driver/src/stm32f4xx_cryp_aes.c ****   uint32_t ivaddr     = (uint32_t)InitVectors;
 1942              		.loc 1 487 3 view .LVU594
 488:../Libraries/STM32F4xx_StdPeriph_Driver/src/stm32f4xx_cryp_aes.c ****   uint32_t i = 0;
ARM GAS  C:\Users\admin\AppData\Local\Temp\ccAAMi0y.s 			page 57


 1943              		.loc 1 488 3 view .LVU595
 489:../Libraries/STM32F4xx_StdPeriph_Driver/src/stm32f4xx_cryp_aes.c **** 
 1944              		.loc 1 489 3 view .LVU596
 1945              		.loc 1 492 3 view .LVU597
 1946 001a FFF7FEFF 		bl	CRYP_KeyStructInit		@
 1947              	.LVL190:
 493:../Libraries/STM32F4xx_StdPeriph_Driver/src/stm32f4xx_cryp_aes.c **** 
 494:../Libraries/STM32F4xx_StdPeriph_Driver/src/stm32f4xx_cryp_aes.c ****   switch(Keysize)
 1948              		.loc 1 494 3 view .LVU598
 1949 001e B9F1C00F 		cmp	r9, #192	@ Keysize,
 1950 0022 00F0A480 		beq	.L59		@,
 1951 0026 B9F5807F 		cmp	r9, #256	@ Keysize,
 1952 002a 00F08380 		beq	.L60		@,
 1953 002e B9F1800F 		cmp	r9, #128	@ Keysize,
 1954 0032 70D0     		beq	.L77		@,
 1955              	.LVL191:
 1956              	.L61:
 495:../Libraries/STM32F4xx_StdPeriph_Driver/src/stm32f4xx_cryp_aes.c ****   {
 496:../Libraries/STM32F4xx_StdPeriph_Driver/src/stm32f4xx_cryp_aes.c ****     case 128:
 497:../Libraries/STM32F4xx_StdPeriph_Driver/src/stm32f4xx_cryp_aes.c ****     AES_CRYP_InitStructure.CRYP_KeySize = CRYP_KeySize_128b;
 498:../Libraries/STM32F4xx_StdPeriph_Driver/src/stm32f4xx_cryp_aes.c ****     AES_CRYP_KeyInitStructure.CRYP_Key2Left = __REV(*(uint32_t*)(keyaddr));
 499:../Libraries/STM32F4xx_StdPeriph_Driver/src/stm32f4xx_cryp_aes.c ****     keyaddr+=4;
 500:../Libraries/STM32F4xx_StdPeriph_Driver/src/stm32f4xx_cryp_aes.c ****     AES_CRYP_KeyInitStructure.CRYP_Key2Right= __REV(*(uint32_t*)(keyaddr));
 501:../Libraries/STM32F4xx_StdPeriph_Driver/src/stm32f4xx_cryp_aes.c ****     keyaddr+=4;
 502:../Libraries/STM32F4xx_StdPeriph_Driver/src/stm32f4xx_cryp_aes.c ****     AES_CRYP_KeyInitStructure.CRYP_Key3Left = __REV(*(uint32_t*)(keyaddr));
 503:../Libraries/STM32F4xx_StdPeriph_Driver/src/stm32f4xx_cryp_aes.c ****     keyaddr+=4;
 504:../Libraries/STM32F4xx_StdPeriph_Driver/src/stm32f4xx_cryp_aes.c ****     AES_CRYP_KeyInitStructure.CRYP_Key3Right= __REV(*(uint32_t*)(keyaddr));
 505:../Libraries/STM32F4xx_StdPeriph_Driver/src/stm32f4xx_cryp_aes.c ****     break;
 506:../Libraries/STM32F4xx_StdPeriph_Driver/src/stm32f4xx_cryp_aes.c ****     case 192:
 507:../Libraries/STM32F4xx_StdPeriph_Driver/src/stm32f4xx_cryp_aes.c ****     AES_CRYP_InitStructure.CRYP_KeySize  = CRYP_KeySize_192b;
 508:../Libraries/STM32F4xx_StdPeriph_Driver/src/stm32f4xx_cryp_aes.c ****     AES_CRYP_KeyInitStructure.CRYP_Key1Left = __REV(*(uint32_t*)(keyaddr));
 509:../Libraries/STM32F4xx_StdPeriph_Driver/src/stm32f4xx_cryp_aes.c ****     keyaddr+=4;
 510:../Libraries/STM32F4xx_StdPeriph_Driver/src/stm32f4xx_cryp_aes.c ****     AES_CRYP_KeyInitStructure.CRYP_Key1Right= __REV(*(uint32_t*)(keyaddr));
 511:../Libraries/STM32F4xx_StdPeriph_Driver/src/stm32f4xx_cryp_aes.c ****     keyaddr+=4;
 512:../Libraries/STM32F4xx_StdPeriph_Driver/src/stm32f4xx_cryp_aes.c ****     AES_CRYP_KeyInitStructure.CRYP_Key2Left = __REV(*(uint32_t*)(keyaddr));
 513:../Libraries/STM32F4xx_StdPeriph_Driver/src/stm32f4xx_cryp_aes.c ****     keyaddr+=4;
 514:../Libraries/STM32F4xx_StdPeriph_Driver/src/stm32f4xx_cryp_aes.c ****     AES_CRYP_KeyInitStructure.CRYP_Key2Right= __REV(*(uint32_t*)(keyaddr));
 515:../Libraries/STM32F4xx_StdPeriph_Driver/src/stm32f4xx_cryp_aes.c ****     keyaddr+=4;
 516:../Libraries/STM32F4xx_StdPeriph_Driver/src/stm32f4xx_cryp_aes.c ****     AES_CRYP_KeyInitStructure.CRYP_Key3Left = __REV(*(uint32_t*)(keyaddr));
 517:../Libraries/STM32F4xx_StdPeriph_Driver/src/stm32f4xx_cryp_aes.c ****     keyaddr+=4;
 518:../Libraries/STM32F4xx_StdPeriph_Driver/src/stm32f4xx_cryp_aes.c ****     AES_CRYP_KeyInitStructure.CRYP_Key3Right= __REV(*(uint32_t*)(keyaddr));
 519:../Libraries/STM32F4xx_StdPeriph_Driver/src/stm32f4xx_cryp_aes.c ****     break;
 520:../Libraries/STM32F4xx_StdPeriph_Driver/src/stm32f4xx_cryp_aes.c ****     case 256:
 521:../Libraries/STM32F4xx_StdPeriph_Driver/src/stm32f4xx_cryp_aes.c ****     AES_CRYP_InitStructure.CRYP_KeySize  = CRYP_KeySize_256b;
 522:../Libraries/STM32F4xx_StdPeriph_Driver/src/stm32f4xx_cryp_aes.c ****     AES_CRYP_KeyInitStructure.CRYP_Key0Left = __REV(*(uint32_t*)(keyaddr));
 523:../Libraries/STM32F4xx_StdPeriph_Driver/src/stm32f4xx_cryp_aes.c ****     keyaddr+=4;
 524:../Libraries/STM32F4xx_StdPeriph_Driver/src/stm32f4xx_cryp_aes.c ****     AES_CRYP_KeyInitStructure.CRYP_Key0Right= __REV(*(uint32_t*)(keyaddr));
 525:../Libraries/STM32F4xx_StdPeriph_Driver/src/stm32f4xx_cryp_aes.c ****     keyaddr+=4;
 526:../Libraries/STM32F4xx_StdPeriph_Driver/src/stm32f4xx_cryp_aes.c ****     AES_CRYP_KeyInitStructure.CRYP_Key1Left = __REV(*(uint32_t*)(keyaddr));
 527:../Libraries/STM32F4xx_StdPeriph_Driver/src/stm32f4xx_cryp_aes.c ****     keyaddr+=4;
 528:../Libraries/STM32F4xx_StdPeriph_Driver/src/stm32f4xx_cryp_aes.c ****     AES_CRYP_KeyInitStructure.CRYP_Key1Right= __REV(*(uint32_t*)(keyaddr));
 529:../Libraries/STM32F4xx_StdPeriph_Driver/src/stm32f4xx_cryp_aes.c ****     keyaddr+=4;
 530:../Libraries/STM32F4xx_StdPeriph_Driver/src/stm32f4xx_cryp_aes.c ****     AES_CRYP_KeyInitStructure.CRYP_Key2Left = __REV(*(uint32_t*)(keyaddr));
 531:../Libraries/STM32F4xx_StdPeriph_Driver/src/stm32f4xx_cryp_aes.c ****     keyaddr+=4;
 532:../Libraries/STM32F4xx_StdPeriph_Driver/src/stm32f4xx_cryp_aes.c ****     AES_CRYP_KeyInitStructure.CRYP_Key2Right= __REV(*(uint32_t*)(keyaddr));
 533:../Libraries/STM32F4xx_StdPeriph_Driver/src/stm32f4xx_cryp_aes.c ****     keyaddr+=4;
 534:../Libraries/STM32F4xx_StdPeriph_Driver/src/stm32f4xx_cryp_aes.c ****     AES_CRYP_KeyInitStructure.CRYP_Key3Left = __REV(*(uint32_t*)(keyaddr));
ARM GAS  C:\Users\admin\AppData\Local\Temp\ccAAMi0y.s 			page 58


 535:../Libraries/STM32F4xx_StdPeriph_Driver/src/stm32f4xx_cryp_aes.c ****     keyaddr+=4;
 536:../Libraries/STM32F4xx_StdPeriph_Driver/src/stm32f4xx_cryp_aes.c ****     AES_CRYP_KeyInitStructure.CRYP_Key3Right= __REV(*(uint32_t*)(keyaddr));
 537:../Libraries/STM32F4xx_StdPeriph_Driver/src/stm32f4xx_cryp_aes.c ****     break;
 538:../Libraries/STM32F4xx_StdPeriph_Driver/src/stm32f4xx_cryp_aes.c ****     default:
 539:../Libraries/STM32F4xx_StdPeriph_Driver/src/stm32f4xx_cryp_aes.c ****     break;
 540:../Libraries/STM32F4xx_StdPeriph_Driver/src/stm32f4xx_cryp_aes.c ****   }
 541:../Libraries/STM32F4xx_StdPeriph_Driver/src/stm32f4xx_cryp_aes.c ****   /* CRYP Initialization Vectors */
 542:../Libraries/STM32F4xx_StdPeriph_Driver/src/stm32f4xx_cryp_aes.c ****   AES_CRYP_IVInitStructure.CRYP_IV0Left = __REV(*(uint32_t*)(ivaddr));
 1957              		.loc 1 542 3 view .LVU599
 1958              	.LBB210:
 1959              	.LBI210:
 348:../Libraries/CMSIS/Include/core_cmInstr.h **** {
 1960              		.loc 2 348 61 view .LVU600
 1961              	.LBB211:
 350:../Libraries/CMSIS/Include/core_cmInstr.h ****   
 1962              		.loc 2 350 3 view .LVU601
 352:../Libraries/CMSIS/Include/core_cmInstr.h ****   return(result);
 1963              		.loc 2 352 3 view .LVU602
 1964 0034 3368     		ldr	r3, [r6]	@ MEM[(uint32_t *)InitVectors_81(D)], MEM[(uint32_t *)InitVectors_81(D)]
 1965              		.syntax unified
 1966              	@ 352 "../Libraries/CMSIS/Include/core_cmInstr.h" 1
 1967 0036 1BBA     		rev r3, r3	@ result, MEM[(uint32_t *)InitVectors_81(D)]
 1968              	@ 0 "" 2
 1969              	.LVL192:
 1970              		.loc 2 353 3 view .LVU603
 1971              		.loc 2 353 3 is_stmt 0 view .LVU604
 1972              		.thumb
 1973              		.syntax unified
 1974              	.LBE211:
 1975              	.LBE210:
 1976              	@ ../Libraries/STM32F4xx_StdPeriph_Driver/src/stm32f4xx_cryp_aes.c:542:   AES_CRYP_IVInitStructure.
 1977              		.loc 1 542 41 view .LVU605
 1978 0038 0493     		str	r3, [sp, #16]	@ result, AES_CRYP_IVInitStructure.CRYP_IV0Left
 543:../Libraries/STM32F4xx_StdPeriph_Driver/src/stm32f4xx_cryp_aes.c ****   ivaddr+=4;
 1979              		.loc 1 543 3 is_stmt 1 view .LVU606
 1980              	.LVL193:
 544:../Libraries/STM32F4xx_StdPeriph_Driver/src/stm32f4xx_cryp_aes.c ****   AES_CRYP_IVInitStructure.CRYP_IV0Right= __REV(*(uint32_t*)(ivaddr));
 1981              		.loc 1 544 3 view .LVU607
 1982              	.LBB212:
 1983              	.LBI212:
 348:../Libraries/CMSIS/Include/core_cmInstr.h **** {
 1984              		.loc 2 348 61 view .LVU608
 1985              	.LBB213:
 350:../Libraries/CMSIS/Include/core_cmInstr.h ****   
 1986              		.loc 2 350 3 view .LVU609
 352:../Libraries/CMSIS/Include/core_cmInstr.h ****   return(result);
 1987              		.loc 2 352 3 view .LVU610
 1988 003a 7368     		ldr	r3, [r6, #4]	@ *ivaddr.83_35, *ivaddr.83_35
 1989              		.syntax unified
 1990              	@ 352 "../Libraries/CMSIS/Include/core_cmInstr.h" 1
 1991 003c 1BBA     		rev r3, r3	@ result, *ivaddr.83_35
 1992              	@ 0 "" 2
 1993              	.LVL194:
 1994              		.loc 2 353 3 view .LVU611
 1995              		.loc 2 353 3 is_stmt 0 view .LVU612
 1996              		.thumb
 1997              		.syntax unified
ARM GAS  C:\Users\admin\AppData\Local\Temp\ccAAMi0y.s 			page 59


 1998              	.LBE213:
 1999              	.LBE212:
 2000              	@ ../Libraries/STM32F4xx_StdPeriph_Driver/src/stm32f4xx_cryp_aes.c:544:   AES_CRYP_IVInitStructure.
 2001              		.loc 1 544 41 view .LVU613
 2002 003e 0593     		str	r3, [sp, #20]	@ result, AES_CRYP_IVInitStructure.CRYP_IV0Right
 545:../Libraries/STM32F4xx_StdPeriph_Driver/src/stm32f4xx_cryp_aes.c ****   ivaddr+=4;
 2003              		.loc 1 545 3 is_stmt 1 view .LVU614
 2004              	.LVL195:
 546:../Libraries/STM32F4xx_StdPeriph_Driver/src/stm32f4xx_cryp_aes.c ****   AES_CRYP_IVInitStructure.CRYP_IV1Left = __REV(*(uint32_t*)(ivaddr));
 2005              		.loc 1 546 3 view .LVU615
 2006              	.LBB214:
 2007              	.LBI214:
 348:../Libraries/CMSIS/Include/core_cmInstr.h **** {
 2008              		.loc 2 348 61 view .LVU616
 2009              	.LBB215:
 350:../Libraries/CMSIS/Include/core_cmInstr.h ****   
 2010              		.loc 2 350 3 view .LVU617
 352:../Libraries/CMSIS/Include/core_cmInstr.h ****   return(result);
 2011              		.loc 2 352 3 view .LVU618
 2012 0040 B368     		ldr	r3, [r6, #8]	@ *ivaddr.84_37, *ivaddr.84_37
 2013              		.syntax unified
 2014              	@ 352 "../Libraries/CMSIS/Include/core_cmInstr.h" 1
 2015 0042 1BBA     		rev r3, r3	@ result, *ivaddr.84_37
 2016              	@ 0 "" 2
 2017              	.LVL196:
 2018              		.loc 2 353 3 view .LVU619
 2019              		.loc 2 353 3 is_stmt 0 view .LVU620
 2020              		.thumb
 2021              		.syntax unified
 2022              	.LBE215:
 2023              	.LBE214:
 2024              	@ ../Libraries/STM32F4xx_StdPeriph_Driver/src/stm32f4xx_cryp_aes.c:546:   AES_CRYP_IVInitStructure.
 2025              		.loc 1 546 41 view .LVU621
 2026 0044 0693     		str	r3, [sp, #24]	@ result, AES_CRYP_IVInitStructure.CRYP_IV1Left
 547:../Libraries/STM32F4xx_StdPeriph_Driver/src/stm32f4xx_cryp_aes.c ****   ivaddr+=4;
 2027              		.loc 1 547 3 is_stmt 1 view .LVU622
 2028              	.LVL197:
 548:../Libraries/STM32F4xx_StdPeriph_Driver/src/stm32f4xx_cryp_aes.c ****   AES_CRYP_IVInitStructure.CRYP_IV1Right= __REV(*(uint32_t*)(ivaddr));
 2029              		.loc 1 548 3 view .LVU623
 2030              	.LBB216:
 2031              	.LBI216:
 348:../Libraries/CMSIS/Include/core_cmInstr.h **** {
 2032              		.loc 2 348 61 view .LVU624
 2033              	.LBB217:
 350:../Libraries/CMSIS/Include/core_cmInstr.h ****   
 2034              		.loc 2 350 3 view .LVU625
 352:../Libraries/CMSIS/Include/core_cmInstr.h ****   return(result);
 2035              		.loc 2 352 3 view .LVU626
 2036 0046 F368     		ldr	r3, [r6, #12]	@ *ivaddr.85_39, *ivaddr.85_39
 2037              		.syntax unified
 2038              	@ 352 "../Libraries/CMSIS/Include/core_cmInstr.h" 1
 2039 0048 1BBA     		rev r3, r3	@ result, *ivaddr.85_39
 2040              	@ 0 "" 2
 2041              	.LVL198:
 2042              		.loc 2 353 3 view .LVU627
 2043              		.loc 2 353 3 is_stmt 0 view .LVU628
 2044              		.thumb
ARM GAS  C:\Users\admin\AppData\Local\Temp\ccAAMi0y.s 			page 60


 2045              		.syntax unified
 2046              	.LBE217:
 2047              	.LBE216:
 2048              	@ ../Libraries/STM32F4xx_StdPeriph_Driver/src/stm32f4xx_cryp_aes.c:551:   CRYP_KeyInit(&AES_CRYP_Ke
 549:../Libraries/STM32F4xx_StdPeriph_Driver/src/stm32f4xx_cryp_aes.c **** 
 550:../Libraries/STM32F4xx_StdPeriph_Driver/src/stm32f4xx_cryp_aes.c ****   /* Key Initialisation */
 551:../Libraries/STM32F4xx_StdPeriph_Driver/src/stm32f4xx_cryp_aes.c ****   CRYP_KeyInit(&AES_CRYP_KeyInitStructure);
 2049              		.loc 1 551 3 view .LVU629
 2050 004a 08A8     		add	r0, sp, #32	@ tmp310,,
 2051              	@ ../Libraries/STM32F4xx_StdPeriph_Driver/src/stm32f4xx_cryp_aes.c:548:   AES_CRYP_IVInitStructure.
 548:../Libraries/STM32F4xx_StdPeriph_Driver/src/stm32f4xx_cryp_aes.c **** 
 2052              		.loc 1 548 41 view .LVU630
 2053 004c 0793     		str	r3, [sp, #28]	@ result, AES_CRYP_IVInitStructure.CRYP_IV1Right
 2054              		.loc 1 551 3 is_stmt 1 view .LVU631
 2055 004e FFF7FEFF 		bl	CRYP_KeyInit		@
 2056              	.LVL199:
 552:../Libraries/STM32F4xx_StdPeriph_Driver/src/stm32f4xx_cryp_aes.c **** 
 553:../Libraries/STM32F4xx_StdPeriph_Driver/src/stm32f4xx_cryp_aes.c ****   /*------------------ AES Decryption ------------------*/
 554:../Libraries/STM32F4xx_StdPeriph_Driver/src/stm32f4xx_cryp_aes.c ****   if(Mode == MODE_DECRYPT) /* AES decryption */
 2057              		.loc 1 554 3 view .LVU632
 2058              	@ ../Libraries/STM32F4xx_StdPeriph_Driver/src/stm32f4xx_cryp_aes.c:563:     AES_CRYP_InitStructure.
 555:../Libraries/STM32F4xx_StdPeriph_Driver/src/stm32f4xx_cryp_aes.c ****   {
 556:../Libraries/STM32F4xx_StdPeriph_Driver/src/stm32f4xx_cryp_aes.c ****     /* Crypto Init for decryption process */
 557:../Libraries/STM32F4xx_StdPeriph_Driver/src/stm32f4xx_cryp_aes.c ****     AES_CRYP_InitStructure.CRYP_AlgoDir = CRYP_AlgoDir_Decrypt;
 558:../Libraries/STM32F4xx_StdPeriph_Driver/src/stm32f4xx_cryp_aes.c ****   }
 559:../Libraries/STM32F4xx_StdPeriph_Driver/src/stm32f4xx_cryp_aes.c ****   /*------------------ AES Encryption ------------------*/
 560:../Libraries/STM32F4xx_StdPeriph_Driver/src/stm32f4xx_cryp_aes.c ****   else /* AES encryption */
 561:../Libraries/STM32F4xx_StdPeriph_Driver/src/stm32f4xx_cryp_aes.c ****   {
 562:../Libraries/STM32F4xx_StdPeriph_Driver/src/stm32f4xx_cryp_aes.c ****     /* Crypto Init for Encryption process */
 563:../Libraries/STM32F4xx_StdPeriph_Driver/src/stm32f4xx_cryp_aes.c ****     AES_CRYP_InitStructure.CRYP_AlgoDir = CRYP_AlgoDir_Encrypt;
 2059              		.loc 1 563 41 is_stmt 0 view .LVU633
 2060 0052 BAF1000F 		cmp	r10, #0	@ Mode,
 2061 0056 0CBF     		ite	eq
 2062 0058 0423     		moveq	r3, #4	@ cstore_197,
 2063 005a 0023     		movne	r3, #0	@ cstore_197,
 2064              	@ ../Libraries/STM32F4xx_StdPeriph_Driver/src/stm32f4xx_cryp_aes.c:565:   AES_CRYP_InitStructure.CR
 564:../Libraries/STM32F4xx_StdPeriph_Driver/src/stm32f4xx_cryp_aes.c ****   }
 565:../Libraries/STM32F4xx_StdPeriph_Driver/src/stm32f4xx_cryp_aes.c ****   AES_CRYP_InitStructure.CRYP_AlgoMode = CRYP_AlgoMode_AES_CTR;
 2065              		.loc 1 565 40 view .LVU634
 2066 005c 3022     		movs	r2, #48	@ tmp280,
 2067              	@ ../Libraries/STM32F4xx_StdPeriph_Driver/src/stm32f4xx_cryp_aes.c:567:   CRYP_Init(&AES_CRYP_InitS
 566:../Libraries/STM32F4xx_StdPeriph_Driver/src/stm32f4xx_cryp_aes.c ****   AES_CRYP_InitStructure.CRYP_DataType = CRYP_DataType_8b;
 567:../Libraries/STM32F4xx_StdPeriph_Driver/src/stm32f4xx_cryp_aes.c ****   CRYP_Init(&AES_CRYP_InitStructure);
 2068              		.loc 1 567 3 view .LVU635
 2069 005e 02A8     		add	r0, sp, #8	@,,
 2070 0060 ADF80830 		strh	r3, [sp, #8]	@ movhi	@ cstore_197, AES_CRYP_InitStructure.CRYP_AlgoDir
 565:../Libraries/STM32F4xx_StdPeriph_Driver/src/stm32f4xx_cryp_aes.c ****   AES_CRYP_InitStructure.CRYP_DataType = CRYP_DataType_8b;
 2071              		.loc 1 565 3 is_stmt 1 view .LVU636
 566:../Libraries/STM32F4xx_StdPeriph_Driver/src/stm32f4xx_cryp_aes.c ****   AES_CRYP_InitStructure.CRYP_DataType = CRYP_DataType_8b;
 2072              		.loc 1 566 3 view .LVU637
 2073              	@ ../Libraries/STM32F4xx_StdPeriph_Driver/src/stm32f4xx_cryp_aes.c:566:   AES_CRYP_InitStructure.CR
 566:../Libraries/STM32F4xx_StdPeriph_Driver/src/stm32f4xx_cryp_aes.c ****   AES_CRYP_InitStructure.CRYP_DataType = CRYP_DataType_8b;
 2074              		.loc 1 566 40 is_stmt 0 view .LVU638
 2075 0064 8023     		movs	r3, #128	@ tmp282,
 2076              	@ ../Libraries/STM32F4xx_StdPeriph_Driver/src/stm32f4xx_cryp_aes.c:565:   AES_CRYP_InitStructure.CR
 565:../Libraries/STM32F4xx_StdPeriph_Driver/src/stm32f4xx_cryp_aes.c ****   AES_CRYP_InitStructure.CRYP_DataType = CRYP_DataType_8b;
 2077              		.loc 1 565 40 view .LVU639
ARM GAS  C:\Users\admin\AppData\Local\Temp\ccAAMi0y.s 			page 61


 2078 0066 ADF80A20 		strh	r2, [sp, #10]	@ movhi	@ tmp280, AES_CRYP_InitStructure.CRYP_AlgoMode
 2079              	@ ../Libraries/STM32F4xx_StdPeriph_Driver/src/stm32f4xx_cryp_aes.c:566:   AES_CRYP_InitStructure.CR
 566:../Libraries/STM32F4xx_StdPeriph_Driver/src/stm32f4xx_cryp_aes.c ****   AES_CRYP_InitStructure.CRYP_DataType = CRYP_DataType_8b;
 2080              		.loc 1 566 40 view .LVU640
 2081 006a ADF80C30 		strh	r3, [sp, #12]	@ movhi	@ tmp282, AES_CRYP_InitStructure.CRYP_DataType
 2082              		.loc 1 567 3 is_stmt 1 view .LVU641
 2083 006e FFF7FEFF 		bl	CRYP_Init		@
 2084              	.LVL200:
 568:../Libraries/STM32F4xx_StdPeriph_Driver/src/stm32f4xx_cryp_aes.c **** 
 569:../Libraries/STM32F4xx_StdPeriph_Driver/src/stm32f4xx_cryp_aes.c ****   /* CRYP Initialization Vectors */
 570:../Libraries/STM32F4xx_StdPeriph_Driver/src/stm32f4xx_cryp_aes.c ****   CRYP_IVInit(&AES_CRYP_IVInitStructure);
 2085              		.loc 1 570 3 view .LVU642
 2086 0072 04A8     		add	r0, sp, #16	@,,
 2087 0074 FFF7FEFF 		bl	CRYP_IVInit		@
 2088              	.LVL201:
 571:../Libraries/STM32F4xx_StdPeriph_Driver/src/stm32f4xx_cryp_aes.c **** 
 572:../Libraries/STM32F4xx_StdPeriph_Driver/src/stm32f4xx_cryp_aes.c ****   /* Flush IN/OUT FIFOs */
 573:../Libraries/STM32F4xx_StdPeriph_Driver/src/stm32f4xx_cryp_aes.c ****   CRYP_FIFOFlush();
 2089              		.loc 1 573 3 view .LVU643
 2090 0078 FFF7FEFF 		bl	CRYP_FIFOFlush		@
 2091              	.LVL202:
 574:../Libraries/STM32F4xx_StdPeriph_Driver/src/stm32f4xx_cryp_aes.c **** 
 575:../Libraries/STM32F4xx_StdPeriph_Driver/src/stm32f4xx_cryp_aes.c ****   /* Enable Crypto processor */
 576:../Libraries/STM32F4xx_StdPeriph_Driver/src/stm32f4xx_cryp_aes.c ****   CRYP_Cmd(ENABLE);
 2092              		.loc 1 576 3 view .LVU644
 2093 007c 0120     		movs	r0, #1	@,
 2094 007e FFF7FEFF 		bl	CRYP_Cmd		@
 2095              	.LVL203:
 577:../Libraries/STM32F4xx_StdPeriph_Driver/src/stm32f4xx_cryp_aes.c **** 
 578:../Libraries/STM32F4xx_StdPeriph_Driver/src/stm32f4xx_cryp_aes.c ****   for(i=0; ((i<Ilength) && (status != ERROR)); i+=16)
 2096              		.loc 1 578 3 view .LVU645
 2097              		.loc 1 578 12 view .LVU646
 2098              	@ ../Libraries/STM32F4xx_StdPeriph_Driver/src/stm32f4xx_cryp_aes.c:578:   for(i=0; ((i<Ilength) && 
 2099              		.loc 1 578 3 is_stmt 0 view .LVU647
 2100 0082 B8F1000F 		cmp	r8, #0	@ Ilength
 2101 0086 44D0     		beq	.L63	@
 2102 0088 1A9B     		ldr	r3, [sp, #104]	@ tmp311, Output
 2103 008a 03F11005 		add	r5, r3, #16	@ ivtmp.144, tmp311,
 2104 008e 6FF00F03 		mvn	r3, #15	@ tmp297,
 2105 0092 07F11004 		add	r4, r7, #16	@ ivtmp.143, Input,
 2106              	.LVL204:
 2107              	@ ../Libraries/STM32F4xx_StdPeriph_Driver/src/stm32f4xx_cryp_aes.c:591:     counter = 0;
 579:../Libraries/STM32F4xx_StdPeriph_Driver/src/stm32f4xx_cryp_aes.c ****   {
 580:../Libraries/STM32F4xx_StdPeriph_Driver/src/stm32f4xx_cryp_aes.c **** 
 581:../Libraries/STM32F4xx_StdPeriph_Driver/src/stm32f4xx_cryp_aes.c ****     /* Write the Input block in the IN FIFO */
 582:../Libraries/STM32F4xx_StdPeriph_Driver/src/stm32f4xx_cryp_aes.c ****     CRYP_DataIn(*(uint32_t*)(inputaddr));
 583:../Libraries/STM32F4xx_StdPeriph_Driver/src/stm32f4xx_cryp_aes.c ****     inputaddr+=4;
 584:../Libraries/STM32F4xx_StdPeriph_Driver/src/stm32f4xx_cryp_aes.c ****     CRYP_DataIn(*(uint32_t*)(inputaddr));
 585:../Libraries/STM32F4xx_StdPeriph_Driver/src/stm32f4xx_cryp_aes.c ****     inputaddr+=4;
 586:../Libraries/STM32F4xx_StdPeriph_Driver/src/stm32f4xx_cryp_aes.c ****     CRYP_DataIn(*(uint32_t*)(inputaddr));
 587:../Libraries/STM32F4xx_StdPeriph_Driver/src/stm32f4xx_cryp_aes.c ****     inputaddr+=4;
 588:../Libraries/STM32F4xx_StdPeriph_Driver/src/stm32f4xx_cryp_aes.c ****     CRYP_DataIn(*(uint32_t*)(inputaddr));
 589:../Libraries/STM32F4xx_StdPeriph_Driver/src/stm32f4xx_cryp_aes.c ****     inputaddr+=4;
 590:../Libraries/STM32F4xx_StdPeriph_Driver/src/stm32f4xx_cryp_aes.c ****     /* Wait until the complete message has been processed */
 591:../Libraries/STM32F4xx_StdPeriph_Driver/src/stm32f4xx_cryp_aes.c ****     counter = 0;
 2108              		.loc 1 591 13 view .LVU648
 2109 0096 0026     		movs	r6, #0	@ tmp289,
ARM GAS  C:\Users\admin\AppData\Local\Temp\ccAAMi0y.s 			page 62


 2110              	.LVL205:
 2111              	@ ../Libraries/STM32F4xx_StdPeriph_Driver/src/stm32f4xx_cryp_aes.c:578:   for(i=0; ((i<Ilength) && 
 578:../Libraries/STM32F4xx_StdPeriph_Driver/src/stm32f4xx_cryp_aes.c ****   {
 2112              		.loc 1 578 3 view .LVU649
 2113 0098 DF1B     		subs	r7, r3, r7	@ tmp298, tmp297, Input
 2114              	.LVL206:
 2115              	.L68:
 582:../Libraries/STM32F4xx_StdPeriph_Driver/src/stm32f4xx_cryp_aes.c ****     inputaddr+=4;
 2116              		.loc 1 582 5 is_stmt 1 view .LVU650
 2117 009a 54F8100C 		ldr	r0, [r4, #-16]	@, MEM[base: _63, offset: 4294967280B]
 2118 009e FFF7FEFF 		bl	CRYP_DataIn		@
 2119              	.LVL207:
 583:../Libraries/STM32F4xx_StdPeriph_Driver/src/stm32f4xx_cryp_aes.c ****     CRYP_DataIn(*(uint32_t*)(inputaddr));
 2120              		.loc 1 583 5 view .LVU651
 584:../Libraries/STM32F4xx_StdPeriph_Driver/src/stm32f4xx_cryp_aes.c ****     inputaddr+=4;
 2121              		.loc 1 584 5 view .LVU652
 2122 00a2 54F80C0C 		ldr	r0, [r4, #-12]	@, MEM[base: _63, offset: 4294967284B]
 2123 00a6 FFF7FEFF 		bl	CRYP_DataIn		@
 2124              	.LVL208:
 585:../Libraries/STM32F4xx_StdPeriph_Driver/src/stm32f4xx_cryp_aes.c ****     CRYP_DataIn(*(uint32_t*)(inputaddr));
 2125              		.loc 1 585 5 view .LVU653
 586:../Libraries/STM32F4xx_StdPeriph_Driver/src/stm32f4xx_cryp_aes.c ****     inputaddr+=4;
 2126              		.loc 1 586 5 view .LVU654
 2127 00aa 54F8080C 		ldr	r0, [r4, #-8]	@, MEM[base: _63, offset: 4294967288B]
 2128 00ae FFF7FEFF 		bl	CRYP_DataIn		@
 2129              	.LVL209:
 587:../Libraries/STM32F4xx_StdPeriph_Driver/src/stm32f4xx_cryp_aes.c ****     CRYP_DataIn(*(uint32_t*)(inputaddr));
 2130              		.loc 1 587 5 view .LVU655
 588:../Libraries/STM32F4xx_StdPeriph_Driver/src/stm32f4xx_cryp_aes.c ****     inputaddr+=4;
 2131              		.loc 1 588 5 view .LVU656
 2132 00b2 54F8040C 		ldr	r0, [r4, #-4]	@, MEM[base: _63, offset: 4294967292B]
 2133 00b6 FFF7FEFF 		bl	CRYP_DataIn		@
 2134              	.LVL210:
 589:../Libraries/STM32F4xx_StdPeriph_Driver/src/stm32f4xx_cryp_aes.c ****     /* Wait until the complete message has been processed */
 2135              		.loc 1 589 5 view .LVU657
 2136              		.loc 1 591 5 view .LVU658
 2137              	@ ../Libraries/STM32F4xx_StdPeriph_Driver/src/stm32f4xx_cryp_aes.c:591:     counter = 0;
 2138              		.loc 1 591 13 is_stmt 0 view .LVU659
 2139 00ba 0196     		str	r6, [sp, #4]	@ tmp289, counter
 2140 00bc 00E0     		b	.L65		@
 2141              	.LVL211:
 2142              	.L78:
 2143              	@ ../Libraries/STM32F4xx_StdPeriph_Driver/src/stm32f4xx_cryp_aes.c:596:     }while ((counter != AES
 592:../Libraries/STM32F4xx_StdPeriph_Driver/src/stm32f4xx_cryp_aes.c ****     do
 593:../Libraries/STM32F4xx_StdPeriph_Driver/src/stm32f4xx_cryp_aes.c ****     {
 594:../Libraries/STM32F4xx_StdPeriph_Driver/src/stm32f4xx_cryp_aes.c ****       busystatus = CRYP_GetFlagStatus(CRYP_FLAG_BUSY);
 595:../Libraries/STM32F4xx_StdPeriph_Driver/src/stm32f4xx_cryp_aes.c ****       counter++;
 596:../Libraries/STM32F4xx_StdPeriph_Driver/src/stm32f4xx_cryp_aes.c ****     }while ((counter != AESBUSY_TIMEOUT) && (busystatus != RESET));
 2144              		.loc 1 596 42 discriminator 1 view .LVU660
 2145 00be 90B1     		cbz	r0, .L66	@ tmp290,
 2146              	.LVL212:
 2147              	.L65:
 592:../Libraries/STM32F4xx_StdPeriph_Driver/src/stm32f4xx_cryp_aes.c ****     do
 2148              		.loc 1 592 5 is_stmt 1 discriminator 2 view .LVU661
 594:../Libraries/STM32F4xx_StdPeriph_Driver/src/stm32f4xx_cryp_aes.c ****       counter++;
 2149              		.loc 1 594 7 discriminator 2 view .LVU662
 2150              	@ ../Libraries/STM32F4xx_StdPeriph_Driver/src/stm32f4xx_cryp_aes.c:594:       busystatus = CRYP_Get
ARM GAS  C:\Users\admin\AppData\Local\Temp\ccAAMi0y.s 			page 63


 594:../Libraries/STM32F4xx_StdPeriph_Driver/src/stm32f4xx_cryp_aes.c ****       counter++;
 2151              		.loc 1 594 20 is_stmt 0 discriminator 2 view .LVU663
 2152 00c0 1020     		movs	r0, #16	@,
 2153 00c2 FFF7FEFF 		bl	CRYP_GetFlagStatus		@
 2154              	.LVL213:
 2155              	@ ../Libraries/STM32F4xx_StdPeriph_Driver/src/stm32f4xx_cryp_aes.c:595:       counter++;
