ARM GAS  C:\Users\admin\AppData\Local\Temp\cc9u7EuA.s 			page 1


   1              		.cpu cortex-m4
   2              		.arch armv7e-m
   3              		.fpu fpv4-sp-d16
   4              		.eabi_attribute 27, 1	@ Tag_ABI_HardFP_use
   5              		.eabi_attribute 28, 1	@ Tag_ABI_VFP_args
   6              		.eabi_attribute 23, 1	@ Tag_ABI_FP_number_model
   7              		.eabi_attribute 24, 1	@ Tag_ABI_align8_needed
   8              		.eabi_attribute 25, 1	@ Tag_ABI_align8_preserved
   9              		.eabi_attribute 26, 1	@ Tag_ABI_enum_size
  10              		.eabi_attribute 30, 2	@ Tag_ABI_optimization_goals
  11              		.eabi_attribute 34, 1	@ Tag_CPU_unaligned_access
  12              		.eabi_attribute 18, 4	@ Tag_ABI_PCS_wchar_t
  13              		.file	"stm32f4xx_pwr.c"
  14              	@ GNU C89 (GNU Arm Embedded Toolchain 10.3-2021.10) version 10.3.1 20210824 (release) (arm-none-eab
  15              	@	compiled by GNU C version 7.3-win32 20180312, GMP version 6.1.0, MPFR version 3.1.4, MPC version 
  16              	
  17              	@ GGC heuristics: --param ggc-min-expand=100 --param ggc-min-heapsize=131072
  18              	@ options passed:  -I . -I . -I ../Utilities/STM32F4-Discovery/
  19              	@ -I ../Libraries/STM32_USB_Device_Library/Class/audio/inc/
  20              	@ -I ../Libraries/STM32_USB_Device_Library/Core/inc/
  21              	@ -I ../Libraries/STM32_USB_OTG_Driver/inc/
  22              	@ -I ../Utilities/STM32F4-Discovery/
  23              	@ -I ../Libraries/STM32F4xx_StdPeriph_Driver/inc/
  24              	@ -I ../Utilities/STM32F4-Discovery/
  25              	@ -I ../Libraries/CMSIS/ST/STM32F4xx/Include/
  26              	@ -I ../Libraries/CMSIS/Include/ -imultilib thumb/v7e-m+fp/hard
  27              	@ -iprefix c:\program files (x86)\gnu arm embedded toolchain\10 2021.10\bin\../lib/gcc/arm-none-eab
  28              	@ -isysroot c:\program files (x86)\gnu arm embedded toolchain\10 2021.10\bin\../arm-none-eabi
  29              	@ -MD out/stm32f4xx_pwr.d -MF out/stm32f4xx_pwr.d -MP
  30              	@ -MQ out/stm32f4xx_pwr.o -D__USES_INITFINI__ -D STM32F4XX -D __VFP_FP__
  31              	@ -D USE_USB_OTG_FS
  32              	@ ../Libraries/STM32F4xx_StdPeriph_Driver/src/stm32f4xx_pwr.c
  33              	@ -mcpu=cortex-m4 -mthumb -mfloat-abi=hard -mfpu=fpv4-sp-d16
  34              	@ -mlibarch=armv7e-m+fp -march=armv7e-m+fp
  35              	@ -auxbase-strip out/stm32f4xx_pwr.o -g -ggdb3 -O3 -Wall
  36              	@ -Wstrict-prototypes -Wextra -std=gnu90 -ffast-math -ffunction-sections
  37              	@ -fdata-sections -fverbose-asm
  38              	@ options enabled:  -faggressive-loop-optimizations -falign-functions
  39              	@ -falign-jumps -falign-labels -falign-loops -fallocation-dce
  40              	@ -fassociative-math -fauto-inc-dec -fbranch-count-reg -fcaller-saves
  41              	@ -fcombine-stack-adjustments -fcompare-elim -fcprop-registers
  42              	@ -fcrossjumping -fcse-follow-jumps -fcx-limited-range -fdata-sections
  43              	@ -fdefer-pop -fdelete-null-pointer-checks -fdevirtualize
  44              	@ -fdevirtualize-speculatively -fdwarf2-cfi-asm -fearly-inlining
  45              	@ -feliminate-unused-debug-symbols -feliminate-unused-debug-types
  46              	@ -fexpensive-optimizations -ffinite-math-only -fforward-propagate
  47              	@ -ffp-int-builtin-inexact -ffunction-cse -ffunction-sections -fgcse
  48              	@ -fgcse-after-reload -fgcse-lm -fgnu-unique -fguess-branch-probability
  49              	@ -fhoist-adjacent-loads -fident -fif-conversion -fif-conversion2
  50              	@ -findirect-inlining -finline -finline-atomics -finline-functions
  51              	@ -finline-functions-called-once -finline-small-functions -fipa-bit-cp
  52              	@ -fipa-cp -fipa-cp-clone -fipa-icf -fipa-icf-functions -fipa-icf-variables
  53              	@ -fipa-profile -fipa-pure-const -fipa-ra -fipa-reference
  54              	@ -fipa-reference-addressable -fipa-sra -fipa-stack-alignment -fipa-vrp
  55              	@ -fira-hoist-pressure -fira-share-save-slots -fira-share-spill-slots
  56              	@ -fisolate-erroneous-paths-dereference -fivopts -fkeep-static-consts
  57              	@ -fleading-underscore -flifetime-dse -floop-interchange
ARM GAS  C:\Users\admin\AppData\Local\Temp\cc9u7EuA.s 			page 2


  58              	@ -floop-unroll-and-jam -flra-remat -fmerge-constants -fmerge-debug-strings
  59              	@ -fmove-loop-invariants -fomit-frame-pointer -foptimize-sibling-calls
  60              	@ -foptimize-strlen -fpartial-inlining -fpeel-loops -fpeephole -fpeephole2
  61              	@ -fplt -fpredictive-commoning -fprefetch-loop-arrays -freciprocal-math
  62              	@ -freg-struct-return -freorder-blocks -freorder-functions
  63              	@ -frerun-cse-after-loop -fsched-critical-path-heuristic
  64              	@ -fsched-dep-count-heuristic -fsched-group-heuristic -fsched-interblock
  65              	@ -fsched-last-insn-heuristic -fsched-pressure -fsched-rank-heuristic
  66              	@ -fsched-spec -fsched-spec-insn-heuristic -fsched-stalled-insns-dep
  67              	@ -fschedule-insns -fschedule-insns2 -fsection-anchors
  68              	@ -fsemantic-interposition -fshow-column -fshrink-wrap
  69              	@ -fshrink-wrap-separate -fsplit-ivs-in-unroller -fsplit-loops
  70              	@ -fsplit-paths -fsplit-wide-types -fssa-backprop -fssa-phiopt -fstdarg-opt
  71              	@ -fstore-merging -fstrict-aliasing -fstrict-volatile-bitfields
  72              	@ -fsync-libcalls -fthread-jumps -ftoplevel-reorder -ftree-bit-ccp
  73              	@ -ftree-builtin-call-dce -ftree-ccp -ftree-ch -ftree-coalesce-vars
  74              	@ -ftree-copy-prop -ftree-cselim -ftree-dce -ftree-dominator-opts
  75              	@ -ftree-dse -ftree-forwprop -ftree-fre -ftree-loop-distribute-patterns
  76              	@ -ftree-loop-distribution -ftree-loop-if-convert -ftree-loop-im
  77              	@ -ftree-loop-ivcanon -ftree-loop-optimize -ftree-loop-vectorize
  78              	@ -ftree-parallelize-loops= -ftree-partial-pre -ftree-phiprop -ftree-pre
  79              	@ -ftree-pta -ftree-reassoc -ftree-scev-cprop -ftree-sink
  80              	@ -ftree-slp-vectorize -ftree-slsr -ftree-sra -ftree-switch-conversion
  81              	@ -ftree-tail-merge -ftree-ter -ftree-vrp -funit-at-a-time
  82              	@ -funsafe-math-optimizations -funswitch-loops -fvar-tracking
  83              	@ -fvar-tracking-assignments -fverbose-asm -fversion-loops-for-strides
  84              	@ -fzero-initialized-in-bss -masm-syntax-unified -mbe32 -mlittle-endian
  85              	@ -mpic-data-is-text-relative -msched-prolog -mthumb -munaligned-access
  86              	@ -mvectorize-with-neon-quad
  87              	
  88              		.text
  89              	.Ltext0:
  90              		.cfi_sections	.debug_frame
  91              		.section	.text.PWR_DeInit,"ax",%progbits
  92              		.align	1
  93              		.p2align 2,,3
  94              		.global	PWR_DeInit
  95              		.syntax unified
  96              		.thumb
  97              		.thumb_func
  98              		.type	PWR_DeInit, %function
  99              	PWR_DeInit:
 100              	.LFB110:
 101              		.file 1 "../Libraries/STM32F4xx_StdPeriph_Driver/src/stm32f4xx_pwr.c"
   1:../Libraries/STM32F4xx_StdPeriph_Driver/src/stm32f4xx_pwr.c **** /**
   2:../Libraries/STM32F4xx_StdPeriph_Driver/src/stm32f4xx_pwr.c ****   ******************************************************************************
   3:../Libraries/STM32F4xx_StdPeriph_Driver/src/stm32f4xx_pwr.c ****   * @file    stm32f4xx_pwr.c
   4:../Libraries/STM32F4xx_StdPeriph_Driver/src/stm32f4xx_pwr.c ****   * @author  MCD Application Team
   5:../Libraries/STM32F4xx_StdPeriph_Driver/src/stm32f4xx_pwr.c ****   * @version V1.0.0
   6:../Libraries/STM32F4xx_StdPeriph_Driver/src/stm32f4xx_pwr.c ****   * @date    30-September-2011
   7:../Libraries/STM32F4xx_StdPeriph_Driver/src/stm32f4xx_pwr.c ****   * @brief   This file provides firmware functions to manage the following 
   8:../Libraries/STM32F4xx_StdPeriph_Driver/src/stm32f4xx_pwr.c ****   *          functionalities of the Power Controller (PWR) peripheral:           
   9:../Libraries/STM32F4xx_StdPeriph_Driver/src/stm32f4xx_pwr.c ****   *           - Backup Domain Access
  10:../Libraries/STM32F4xx_StdPeriph_Driver/src/stm32f4xx_pwr.c ****   *           - PVD configuration
  11:../Libraries/STM32F4xx_StdPeriph_Driver/src/stm32f4xx_pwr.c ****   *           - WakeUp pin configuration
  12:../Libraries/STM32F4xx_StdPeriph_Driver/src/stm32f4xx_pwr.c ****   *           - Main and Backup Regulators configuration
  13:../Libraries/STM32F4xx_StdPeriph_Driver/src/stm32f4xx_pwr.c ****   *           - FLASH Power Down configuration
ARM GAS  C:\Users\admin\AppData\Local\Temp\cc9u7EuA.s 			page 3


  14:../Libraries/STM32F4xx_StdPeriph_Driver/src/stm32f4xx_pwr.c ****   *           - Low Power modes configuration
  15:../Libraries/STM32F4xx_StdPeriph_Driver/src/stm32f4xx_pwr.c ****   *           - Flags management
  16:../Libraries/STM32F4xx_StdPeriph_Driver/src/stm32f4xx_pwr.c ****   *               
  17:../Libraries/STM32F4xx_StdPeriph_Driver/src/stm32f4xx_pwr.c ****   ******************************************************************************
  18:../Libraries/STM32F4xx_StdPeriph_Driver/src/stm32f4xx_pwr.c ****   * @attention
  19:../Libraries/STM32F4xx_StdPeriph_Driver/src/stm32f4xx_pwr.c ****   *
  20:../Libraries/STM32F4xx_StdPeriph_Driver/src/stm32f4xx_pwr.c ****   * THE PRESENT FIRMWARE WHICH IS FOR GUIDANCE ONLY AIMS AT PROVIDING CUSTOMERS
  21:../Libraries/STM32F4xx_StdPeriph_Driver/src/stm32f4xx_pwr.c ****   * WITH CODING INFORMATION REGARDING THEIR PRODUCTS IN ORDER FOR THEM TO SAVE
  22:../Libraries/STM32F4xx_StdPeriph_Driver/src/stm32f4xx_pwr.c ****   * TIME. AS A RESULT, STMICROELECTRONICS SHALL NOT BE HELD LIABLE FOR ANY
  23:../Libraries/STM32F4xx_StdPeriph_Driver/src/stm32f4xx_pwr.c ****   * DIRECT, INDIRECT OR CONSEQUENTIAL DAMAGES WITH RESPECT TO ANY CLAIMS ARISING
  24:../Libraries/STM32F4xx_StdPeriph_Driver/src/stm32f4xx_pwr.c ****   * FROM THE CONTENT OF SUCH FIRMWARE AND/OR THE USE MADE BY CUSTOMERS OF THE
  25:../Libraries/STM32F4xx_StdPeriph_Driver/src/stm32f4xx_pwr.c ****   * CODING INFORMATION CONTAINED HEREIN IN CONNECTION WITH THEIR PRODUCTS.
  26:../Libraries/STM32F4xx_StdPeriph_Driver/src/stm32f4xx_pwr.c ****   *
  27:../Libraries/STM32F4xx_StdPeriph_Driver/src/stm32f4xx_pwr.c ****   * <h2><center>&copy; COPYRIGHT 2011 STMicroelectronics</center></h2>
  28:../Libraries/STM32F4xx_StdPeriph_Driver/src/stm32f4xx_pwr.c ****   ******************************************************************************
  29:../Libraries/STM32F4xx_StdPeriph_Driver/src/stm32f4xx_pwr.c ****   */ 
  30:../Libraries/STM32F4xx_StdPeriph_Driver/src/stm32f4xx_pwr.c **** 
  31:../Libraries/STM32F4xx_StdPeriph_Driver/src/stm32f4xx_pwr.c **** /* Includes ------------------------------------------------------------------*/
  32:../Libraries/STM32F4xx_StdPeriph_Driver/src/stm32f4xx_pwr.c **** #include "stm32f4xx_pwr.h"
  33:../Libraries/STM32F4xx_StdPeriph_Driver/src/stm32f4xx_pwr.c **** #include "stm32f4xx_rcc.h"
  34:../Libraries/STM32F4xx_StdPeriph_Driver/src/stm32f4xx_pwr.c **** 
  35:../Libraries/STM32F4xx_StdPeriph_Driver/src/stm32f4xx_pwr.c **** /** @addtogroup STM32F4xx_StdPeriph_Driver
  36:../Libraries/STM32F4xx_StdPeriph_Driver/src/stm32f4xx_pwr.c ****   * @{
  37:../Libraries/STM32F4xx_StdPeriph_Driver/src/stm32f4xx_pwr.c ****   */
  38:../Libraries/STM32F4xx_StdPeriph_Driver/src/stm32f4xx_pwr.c **** 
  39:../Libraries/STM32F4xx_StdPeriph_Driver/src/stm32f4xx_pwr.c **** /** @defgroup PWR 
  40:../Libraries/STM32F4xx_StdPeriph_Driver/src/stm32f4xx_pwr.c ****   * @brief PWR driver modules
  41:../Libraries/STM32F4xx_StdPeriph_Driver/src/stm32f4xx_pwr.c ****   * @{
  42:../Libraries/STM32F4xx_StdPeriph_Driver/src/stm32f4xx_pwr.c ****   */ 
  43:../Libraries/STM32F4xx_StdPeriph_Driver/src/stm32f4xx_pwr.c **** 
  44:../Libraries/STM32F4xx_StdPeriph_Driver/src/stm32f4xx_pwr.c **** /* Private typedef -----------------------------------------------------------*/
  45:../Libraries/STM32F4xx_StdPeriph_Driver/src/stm32f4xx_pwr.c **** /* Private define ------------------------------------------------------------*/
  46:../Libraries/STM32F4xx_StdPeriph_Driver/src/stm32f4xx_pwr.c **** /* --------- PWR registers bit address in the alias region ---------- */
  47:../Libraries/STM32F4xx_StdPeriph_Driver/src/stm32f4xx_pwr.c **** #define PWR_OFFSET               (PWR_BASE - PERIPH_BASE)
  48:../Libraries/STM32F4xx_StdPeriph_Driver/src/stm32f4xx_pwr.c **** 
  49:../Libraries/STM32F4xx_StdPeriph_Driver/src/stm32f4xx_pwr.c **** /* --- CR Register ---*/
  50:../Libraries/STM32F4xx_StdPeriph_Driver/src/stm32f4xx_pwr.c **** 
  51:../Libraries/STM32F4xx_StdPeriph_Driver/src/stm32f4xx_pwr.c **** /* Alias word address of DBP bit */
  52:../Libraries/STM32F4xx_StdPeriph_Driver/src/stm32f4xx_pwr.c **** #define CR_OFFSET                (PWR_OFFSET + 0x00)
  53:../Libraries/STM32F4xx_StdPeriph_Driver/src/stm32f4xx_pwr.c **** #define DBP_BitNumber            0x08
  54:../Libraries/STM32F4xx_StdPeriph_Driver/src/stm32f4xx_pwr.c **** #define CR_DBP_BB                (PERIPH_BB_BASE + (CR_OFFSET * 32) + (DBP_BitNumber * 4))
  55:../Libraries/STM32F4xx_StdPeriph_Driver/src/stm32f4xx_pwr.c **** 
  56:../Libraries/STM32F4xx_StdPeriph_Driver/src/stm32f4xx_pwr.c **** /* Alias word address of PVDE bit */
  57:../Libraries/STM32F4xx_StdPeriph_Driver/src/stm32f4xx_pwr.c **** #define PVDE_BitNumber           0x04
  58:../Libraries/STM32F4xx_StdPeriph_Driver/src/stm32f4xx_pwr.c **** #define CR_PVDE_BB               (PERIPH_BB_BASE + (CR_OFFSET * 32) + (PVDE_BitNumber * 4))
  59:../Libraries/STM32F4xx_StdPeriph_Driver/src/stm32f4xx_pwr.c **** 
  60:../Libraries/STM32F4xx_StdPeriph_Driver/src/stm32f4xx_pwr.c **** /* Alias word address of FPDS bit */
  61:../Libraries/STM32F4xx_StdPeriph_Driver/src/stm32f4xx_pwr.c **** #define FPDS_BitNumber           0x09
  62:../Libraries/STM32F4xx_StdPeriph_Driver/src/stm32f4xx_pwr.c **** #define CR_FPDS_BB               (PERIPH_BB_BASE + (CR_OFFSET * 32) + (FPDS_BitNumber * 4))
  63:../Libraries/STM32F4xx_StdPeriph_Driver/src/stm32f4xx_pwr.c **** 
  64:../Libraries/STM32F4xx_StdPeriph_Driver/src/stm32f4xx_pwr.c **** /* Alias word address of PMODE bit */
  65:../Libraries/STM32F4xx_StdPeriph_Driver/src/stm32f4xx_pwr.c **** #define PMODE_BitNumber           0x0E
  66:../Libraries/STM32F4xx_StdPeriph_Driver/src/stm32f4xx_pwr.c **** #define CR_PMODE_BB               (PERIPH_BB_BASE + (CR_OFFSET * 32) + (PMODE_BitNumber * 4))
  67:../Libraries/STM32F4xx_StdPeriph_Driver/src/stm32f4xx_pwr.c **** 
  68:../Libraries/STM32F4xx_StdPeriph_Driver/src/stm32f4xx_pwr.c **** 
  69:../Libraries/STM32F4xx_StdPeriph_Driver/src/stm32f4xx_pwr.c **** /* --- CSR Register ---*/
  70:../Libraries/STM32F4xx_StdPeriph_Driver/src/stm32f4xx_pwr.c **** 
ARM GAS  C:\Users\admin\AppData\Local\Temp\cc9u7EuA.s 			page 4


  71:../Libraries/STM32F4xx_StdPeriph_Driver/src/stm32f4xx_pwr.c **** /* Alias word address of EWUP bit */
  72:../Libraries/STM32F4xx_StdPeriph_Driver/src/stm32f4xx_pwr.c **** #define CSR_OFFSET               (PWR_OFFSET + 0x04)
  73:../Libraries/STM32F4xx_StdPeriph_Driver/src/stm32f4xx_pwr.c **** #define EWUP_BitNumber           0x08
  74:../Libraries/STM32F4xx_StdPeriph_Driver/src/stm32f4xx_pwr.c **** #define CSR_EWUP_BB              (PERIPH_BB_BASE + (CSR_OFFSET * 32) + (EWUP_BitNumber * 4))
  75:../Libraries/STM32F4xx_StdPeriph_Driver/src/stm32f4xx_pwr.c **** 
  76:../Libraries/STM32F4xx_StdPeriph_Driver/src/stm32f4xx_pwr.c **** /* Alias word address of BRE bit */
  77:../Libraries/STM32F4xx_StdPeriph_Driver/src/stm32f4xx_pwr.c **** #define BRE_BitNumber            0x09
  78:../Libraries/STM32F4xx_StdPeriph_Driver/src/stm32f4xx_pwr.c **** #define CSR_BRE_BB              (PERIPH_BB_BASE + (CSR_OFFSET * 32) + (BRE_BitNumber * 4))
  79:../Libraries/STM32F4xx_StdPeriph_Driver/src/stm32f4xx_pwr.c **** 
  80:../Libraries/STM32F4xx_StdPeriph_Driver/src/stm32f4xx_pwr.c **** /* ------------------ PWR registers bit mask ------------------------ */
  81:../Libraries/STM32F4xx_StdPeriph_Driver/src/stm32f4xx_pwr.c **** 
  82:../Libraries/STM32F4xx_StdPeriph_Driver/src/stm32f4xx_pwr.c **** /* CR register bit mask */
  83:../Libraries/STM32F4xx_StdPeriph_Driver/src/stm32f4xx_pwr.c **** #define CR_DS_MASK               ((uint32_t)0xFFFFFFFC)
  84:../Libraries/STM32F4xx_StdPeriph_Driver/src/stm32f4xx_pwr.c **** #define CR_PLS_MASK              ((uint32_t)0xFFFFFF1F)
  85:../Libraries/STM32F4xx_StdPeriph_Driver/src/stm32f4xx_pwr.c **** 
  86:../Libraries/STM32F4xx_StdPeriph_Driver/src/stm32f4xx_pwr.c **** /* Private macro -------------------------------------------------------------*/
  87:../Libraries/STM32F4xx_StdPeriph_Driver/src/stm32f4xx_pwr.c **** /* Private variables ---------------------------------------------------------*/
  88:../Libraries/STM32F4xx_StdPeriph_Driver/src/stm32f4xx_pwr.c **** /* Private function prototypes -----------------------------------------------*/
  89:../Libraries/STM32F4xx_StdPeriph_Driver/src/stm32f4xx_pwr.c **** /* Private functions ---------------------------------------------------------*/
  90:../Libraries/STM32F4xx_StdPeriph_Driver/src/stm32f4xx_pwr.c **** 
  91:../Libraries/STM32F4xx_StdPeriph_Driver/src/stm32f4xx_pwr.c **** /** @defgroup PWR_Private_Functions
  92:../Libraries/STM32F4xx_StdPeriph_Driver/src/stm32f4xx_pwr.c ****   * @{
  93:../Libraries/STM32F4xx_StdPeriph_Driver/src/stm32f4xx_pwr.c ****   */
  94:../Libraries/STM32F4xx_StdPeriph_Driver/src/stm32f4xx_pwr.c **** 
  95:../Libraries/STM32F4xx_StdPeriph_Driver/src/stm32f4xx_pwr.c **** /** @defgroup PWR_Group1 Backup Domain Access function 
  96:../Libraries/STM32F4xx_StdPeriph_Driver/src/stm32f4xx_pwr.c ****  *  @brief   Backup Domain Access function  
  97:../Libraries/STM32F4xx_StdPeriph_Driver/src/stm32f4xx_pwr.c ****  *
  98:../Libraries/STM32F4xx_StdPeriph_Driver/src/stm32f4xx_pwr.c **** @verbatim   
  99:../Libraries/STM32F4xx_StdPeriph_Driver/src/stm32f4xx_pwr.c ****  ===============================================================================
 100:../Libraries/STM32F4xx_StdPeriph_Driver/src/stm32f4xx_pwr.c ****                             Backup Domain Access function 
 101:../Libraries/STM32F4xx_StdPeriph_Driver/src/stm32f4xx_pwr.c ****  ===============================================================================  
 102:../Libraries/STM32F4xx_StdPeriph_Driver/src/stm32f4xx_pwr.c **** 
 103:../Libraries/STM32F4xx_StdPeriph_Driver/src/stm32f4xx_pwr.c ****   After reset, the backup domain (RTC registers, RTC backup data 
 104:../Libraries/STM32F4xx_StdPeriph_Driver/src/stm32f4xx_pwr.c ****   registers and backup SRAM) is protected against possible unwanted 
 105:../Libraries/STM32F4xx_StdPeriph_Driver/src/stm32f4xx_pwr.c ****   write accesses. 
 106:../Libraries/STM32F4xx_StdPeriph_Driver/src/stm32f4xx_pwr.c ****   To enable access to the RTC Domain and RTC registers, proceed as follows:
 107:../Libraries/STM32F4xx_StdPeriph_Driver/src/stm32f4xx_pwr.c ****     - Enable the Power Controller (PWR) APB1 interface clock using the
 108:../Libraries/STM32F4xx_StdPeriph_Driver/src/stm32f4xx_pwr.c ****       RCC_APB1PeriphClockCmd() function.
 109:../Libraries/STM32F4xx_StdPeriph_Driver/src/stm32f4xx_pwr.c ****     - Enable access to RTC domain using the PWR_BackupAccessCmd() function.
 110:../Libraries/STM32F4xx_StdPeriph_Driver/src/stm32f4xx_pwr.c **** 
 111:../Libraries/STM32F4xx_StdPeriph_Driver/src/stm32f4xx_pwr.c **** @endverbatim
 112:../Libraries/STM32F4xx_StdPeriph_Driver/src/stm32f4xx_pwr.c ****   * @{
 113:../Libraries/STM32F4xx_StdPeriph_Driver/src/stm32f4xx_pwr.c ****   */
 114:../Libraries/STM32F4xx_StdPeriph_Driver/src/stm32f4xx_pwr.c **** 
 115:../Libraries/STM32F4xx_StdPeriph_Driver/src/stm32f4xx_pwr.c **** /**
 116:../Libraries/STM32F4xx_StdPeriph_Driver/src/stm32f4xx_pwr.c ****   * @brief  Deinitializes the PWR peripheral registers to their default reset values.     
 117:../Libraries/STM32F4xx_StdPeriph_Driver/src/stm32f4xx_pwr.c ****   * @param  None
 118:../Libraries/STM32F4xx_StdPeriph_Driver/src/stm32f4xx_pwr.c ****   * @retval None
 119:../Libraries/STM32F4xx_StdPeriph_Driver/src/stm32f4xx_pwr.c ****   */
 120:../Libraries/STM32F4xx_StdPeriph_Driver/src/stm32f4xx_pwr.c **** void PWR_DeInit(void)
 121:../Libraries/STM32F4xx_StdPeriph_Driver/src/stm32f4xx_pwr.c **** {
 102              		.loc 1 121 1 view -0
 103              		.cfi_startproc
 104              		@ args = 0, pretend = 0, frame = 0
 105              		@ frame_needed = 0, uses_anonymous_args = 0
 122:../Libraries/STM32F4xx_StdPeriph_Driver/src/stm32f4xx_pwr.c ****   RCC_APB1PeriphResetCmd(RCC_APB1Periph_PWR, ENABLE);
 106              		.loc 1 122 3 view .LVU1
ARM GAS  C:\Users\admin\AppData\Local\Temp\cc9u7EuA.s 			page 5


 107              	@ ../Libraries/STM32F4xx_StdPeriph_Driver/src/stm32f4xx_pwr.c:121: {
 121:../Libraries/STM32F4xx_StdPeriph_Driver/src/stm32f4xx_pwr.c ****   RCC_APB1PeriphResetCmd(RCC_APB1Periph_PWR, ENABLE);
 108              		.loc 1 121 1 is_stmt 0 view .LVU2
 109 0000 08B5     		push	{r3, lr}	@
 110              		.cfi_def_cfa_offset 8
 111              		.cfi_offset 3, -8
 112              		.cfi_offset 14, -4
 113              	@ ../Libraries/STM32F4xx_StdPeriph_Driver/src/stm32f4xx_pwr.c:122:   RCC_APB1PeriphResetCmd(RCC_APB
 114              		.loc 1 122 3 view .LVU3
 115 0002 0121     		movs	r1, #1	@,
 116 0004 4FF08050 		mov	r0, #268435456	@,
 117 0008 FFF7FEFF 		bl	RCC_APB1PeriphResetCmd		@
 118              	.LVL0:
 123:../Libraries/STM32F4xx_StdPeriph_Driver/src/stm32f4xx_pwr.c ****   RCC_APB1PeriphResetCmd(RCC_APB1Periph_PWR, DISABLE);
 119              		.loc 1 123 3 is_stmt 1 view .LVU4
 120              	@ ../Libraries/STM32F4xx_StdPeriph_Driver/src/stm32f4xx_pwr.c:124: }
 124:../Libraries/STM32F4xx_StdPeriph_Driver/src/stm32f4xx_pwr.c **** }
 121              		.loc 1 124 1 is_stmt 0 view .LVU5
 122 000c BDE80840 		pop	{r3, lr}	@
 123              		.cfi_restore 14
 124              		.cfi_restore 3
 125              		.cfi_def_cfa_offset 0
 126              	@ ../Libraries/STM32F4xx_StdPeriph_Driver/src/stm32f4xx_pwr.c:123:   RCC_APB1PeriphResetCmd(RCC_APB
 123:../Libraries/STM32F4xx_StdPeriph_Driver/src/stm32f4xx_pwr.c ****   RCC_APB1PeriphResetCmd(RCC_APB1Periph_PWR, DISABLE);
 127              		.loc 1 123 3 view .LVU6
 128 0010 0021     		movs	r1, #0	@,
 129 0012 4FF08050 		mov	r0, #268435456	@,
 130 0016 FFF7FEBF 		b	RCC_APB1PeriphResetCmd		@
 131              	.LVL1:
 132              		.cfi_endproc
 133              	.LFE110:
 134              		.size	PWR_DeInit, .-PWR_DeInit
 135 001a 00BF     		.section	.text.PWR_BackupAccessCmd,"ax",%progbits
 136              		.align	1
 137              		.p2align 2,,3
 138              		.global	PWR_BackupAccessCmd
 139              		.syntax unified
 140              		.thumb
 141              		.thumb_func
 142              		.type	PWR_BackupAccessCmd, %function
 143              	PWR_BackupAccessCmd:
 144              	.LVL2:
 145              	.LFB111:
 125:../Libraries/STM32F4xx_StdPeriph_Driver/src/stm32f4xx_pwr.c **** 
 126:../Libraries/STM32F4xx_StdPeriph_Driver/src/stm32f4xx_pwr.c **** /**
 127:../Libraries/STM32F4xx_StdPeriph_Driver/src/stm32f4xx_pwr.c ****   * @brief  Enables or disables access to the backup domain (RTC registers, RTC 
 128:../Libraries/STM32F4xx_StdPeriph_Driver/src/stm32f4xx_pwr.c ****   *         backup data registers and backup SRAM).
 129:../Libraries/STM32F4xx_StdPeriph_Driver/src/stm32f4xx_pwr.c ****   * @note   If the HSE divided by 2, 3, ..31 is used as the RTC clock, the 
 130:../Libraries/STM32F4xx_StdPeriph_Driver/src/stm32f4xx_pwr.c ****   *         Backup Domain Access should be kept enabled.
 131:../Libraries/STM32F4xx_StdPeriph_Driver/src/stm32f4xx_pwr.c ****   * @param  NewState: new state of the access to the backup domain.
 132:../Libraries/STM32F4xx_StdPeriph_Driver/src/stm32f4xx_pwr.c ****   *          This parameter can be: ENABLE or DISABLE.
 133:../Libraries/STM32F4xx_StdPeriph_Driver/src/stm32f4xx_pwr.c ****   * @retval None
 134:../Libraries/STM32F4xx_StdPeriph_Driver/src/stm32f4xx_pwr.c ****   */
 135:../Libraries/STM32F4xx_StdPeriph_Driver/src/stm32f4xx_pwr.c **** void PWR_BackupAccessCmd(FunctionalState NewState)
 136:../Libraries/STM32F4xx_StdPeriph_Driver/src/stm32f4xx_pwr.c **** {
 146              		.loc 1 136 1 is_stmt 1 view -0
 147              		.cfi_startproc
ARM GAS  C:\Users\admin\AppData\Local\Temp\cc9u7EuA.s 			page 6


 148              		@ args = 0, pretend = 0, frame = 0
 149              		@ frame_needed = 0, uses_anonymous_args = 0
 137:../Libraries/STM32F4xx_StdPeriph_Driver/src/stm32f4xx_pwr.c ****   /* Check the parameters */
 138:../Libraries/STM32F4xx_StdPeriph_Driver/src/stm32f4xx_pwr.c ****   assert_param(IS_FUNCTIONAL_STATE(NewState));
 150              		.loc 1 138 3 view .LVU8
 151              	@ ../Libraries/STM32F4xx_StdPeriph_Driver/src/stm32f4xx_pwr.c:136: {
 136:../Libraries/STM32F4xx_StdPeriph_Driver/src/stm32f4xx_pwr.c ****   /* Check the parameters */
 152              		.loc 1 136 1 is_stmt 0 view .LVU9
 153 0000 10B5     		push	{r4, lr}	@
 154              		.cfi_def_cfa_offset 8
 155              		.cfi_offset 4, -8
 156              		.cfi_offset 14, -4
 157              	@ ../Libraries/STM32F4xx_StdPeriph_Driver/src/stm32f4xx_pwr.c:138:   assert_param(IS_FUNCTIONAL_STA
 158              		.loc 1 138 3 view .LVU10
 159 0002 0128     		cmp	r0, #1	@ NewState,
 160              	@ ../Libraries/STM32F4xx_StdPeriph_Driver/src/stm32f4xx_pwr.c:136: {
 136:../Libraries/STM32F4xx_StdPeriph_Driver/src/stm32f4xx_pwr.c ****   /* Check the parameters */
 161              		.loc 1 136 1 view .LVU11
 162 0004 0446     		mov	r4, r0	@ NewState, tmp122
 163              	@ ../Libraries/STM32F4xx_StdPeriph_Driver/src/stm32f4xx_pwr.c:138:   assert_param(IS_FUNCTIONAL_STA
 164              		.loc 1 138 3 view .LVU12
 165 0006 8CBF     		ite	hi
 166 0008 0020     		movhi	r0, #0	@,
 167              	.LVL3:
 168              		.loc 1 138 3 view .LVU13
 169 000a 0120     		movls	r0, #1	@,
 170 000c FFF7FEFF 		bl	assert_param		@
 171              	.LVL4:
 139:../Libraries/STM32F4xx_StdPeriph_Driver/src/stm32f4xx_pwr.c ****   
 140:../Libraries/STM32F4xx_StdPeriph_Driver/src/stm32f4xx_pwr.c ****   *(__IO uint32_t *) CR_DBP_BB = (uint32_t)NewState;
 172              		.loc 1 140 3 is_stmt 1 view .LVU14
 173              	@ ../Libraries/STM32F4xx_StdPeriph_Driver/src/stm32f4xx_pwr.c:140:   *(__IO uint32_t *) CR_DBP_BB =
 174              		.loc 1 140 32 is_stmt 0 view .LVU15
 175 0010 014B     		ldr	r3, .L6	@ tmp121,
 176 0012 1C62     		str	r4, [r3, #32]	@ NewState, MEM[(volatile uint32_t *)1108213792B]
 177              	@ ../Libraries/STM32F4xx_StdPeriph_Driver/src/stm32f4xx_pwr.c:141: }
 141:../Libraries/STM32F4xx_StdPeriph_Driver/src/stm32f4xx_pwr.c **** }
 178              		.loc 1 141 1 view .LVU16
 179 0014 10BD     		pop	{r4, pc}	@
 180              	.L7:
 181 0016 00BF     		.align	2
 182              	.L6:
 183 0018 00000E42 		.word	1108213760
 184              		.cfi_endproc
 185              	.LFE111:
 186              		.size	PWR_BackupAccessCmd, .-PWR_BackupAccessCmd
 187              		.section	.text.PWR_PVDLevelConfig,"ax",%progbits
 188              		.align	1
 189              		.p2align 2,,3
 190              		.global	PWR_PVDLevelConfig
 191              		.syntax unified
 192              		.thumb
 193              		.thumb_func
 194              		.type	PWR_PVDLevelConfig, %function
 195              	PWR_PVDLevelConfig:
 196              	.LVL5:
 197              	.LFB112:
ARM GAS  C:\Users\admin\AppData\Local\Temp\cc9u7EuA.s 			page 7


 142:../Libraries/STM32F4xx_StdPeriph_Driver/src/stm32f4xx_pwr.c **** 
 143:../Libraries/STM32F4xx_StdPeriph_Driver/src/stm32f4xx_pwr.c **** /**
 144:../Libraries/STM32F4xx_StdPeriph_Driver/src/stm32f4xx_pwr.c ****   * @}
 145:../Libraries/STM32F4xx_StdPeriph_Driver/src/stm32f4xx_pwr.c ****   */
 146:../Libraries/STM32F4xx_StdPeriph_Driver/src/stm32f4xx_pwr.c **** 
 147:../Libraries/STM32F4xx_StdPeriph_Driver/src/stm32f4xx_pwr.c **** /** @defgroup PWR_Group2 PVD configuration functions
 148:../Libraries/STM32F4xx_StdPeriph_Driver/src/stm32f4xx_pwr.c ****  *  @brief   PVD configuration functions 
 149:../Libraries/STM32F4xx_StdPeriph_Driver/src/stm32f4xx_pwr.c ****  *
 150:../Libraries/STM32F4xx_StdPeriph_Driver/src/stm32f4xx_pwr.c **** @verbatim   
 151:../Libraries/STM32F4xx_StdPeriph_Driver/src/stm32f4xx_pwr.c ****  ===============================================================================
 152:../Libraries/STM32F4xx_StdPeriph_Driver/src/stm32f4xx_pwr.c ****                            PVD configuration functions
 153:../Libraries/STM32F4xx_StdPeriph_Driver/src/stm32f4xx_pwr.c ****  ===============================================================================  
 154:../Libraries/STM32F4xx_StdPeriph_Driver/src/stm32f4xx_pwr.c **** 
 155:../Libraries/STM32F4xx_StdPeriph_Driver/src/stm32f4xx_pwr.c ****  - The PVD is used to monitor the VDD power supply by comparing it to a threshold
 156:../Libraries/STM32F4xx_StdPeriph_Driver/src/stm32f4xx_pwr.c ****    selected by the PVD Level (PLS[2:0] bits in the PWR_CR).
 157:../Libraries/STM32F4xx_StdPeriph_Driver/src/stm32f4xx_pwr.c ****  - A PVDO flag is available to indicate if VDD/VDDA is higher or lower than the 
 158:../Libraries/STM32F4xx_StdPeriph_Driver/src/stm32f4xx_pwr.c ****    PVD threshold. This event is internally connected to the EXTI line16
 159:../Libraries/STM32F4xx_StdPeriph_Driver/src/stm32f4xx_pwr.c ****    and can generate an interrupt if enabled through the EXTI registers.
 160:../Libraries/STM32F4xx_StdPeriph_Driver/src/stm32f4xx_pwr.c ****  - The PVD is stopped in Standby mode.
 161:../Libraries/STM32F4xx_StdPeriph_Driver/src/stm32f4xx_pwr.c **** 
 162:../Libraries/STM32F4xx_StdPeriph_Driver/src/stm32f4xx_pwr.c **** @endverbatim
 163:../Libraries/STM32F4xx_StdPeriph_Driver/src/stm32f4xx_pwr.c ****   * @{
 164:../Libraries/STM32F4xx_StdPeriph_Driver/src/stm32f4xx_pwr.c ****   */
 165:../Libraries/STM32F4xx_StdPeriph_Driver/src/stm32f4xx_pwr.c **** 
 166:../Libraries/STM32F4xx_StdPeriph_Driver/src/stm32f4xx_pwr.c **** /**
 167:../Libraries/STM32F4xx_StdPeriph_Driver/src/stm32f4xx_pwr.c ****   * @brief  Configures the voltage threshold detected by the Power Voltage Detector(PVD).
 168:../Libraries/STM32F4xx_StdPeriph_Driver/src/stm32f4xx_pwr.c ****   * @param  PWR_PVDLevel: specifies the PVD detection level
 169:../Libraries/STM32F4xx_StdPeriph_Driver/src/stm32f4xx_pwr.c ****   *          This parameter can be one of the following values:
 170:../Libraries/STM32F4xx_StdPeriph_Driver/src/stm32f4xx_pwr.c ****   *            @arg PWR_PVDLevel_0: PVD detection level set to 2.0V
 171:../Libraries/STM32F4xx_StdPeriph_Driver/src/stm32f4xx_pwr.c ****   *            @arg PWR_PVDLevel_1: PVD detection level set to 2.2V
 172:../Libraries/STM32F4xx_StdPeriph_Driver/src/stm32f4xx_pwr.c ****   *            @arg PWR_PVDLevel_2: PVD detection level set to 2.3V
 173:../Libraries/STM32F4xx_StdPeriph_Driver/src/stm32f4xx_pwr.c ****   *            @arg PWR_PVDLevel_3: PVD detection level set to 2.5V
 174:../Libraries/STM32F4xx_StdPeriph_Driver/src/stm32f4xx_pwr.c ****   *            @arg PWR_PVDLevel_4: PVD detection level set to 2.7V
 175:../Libraries/STM32F4xx_StdPeriph_Driver/src/stm32f4xx_pwr.c ****   *            @arg PWR_PVDLevel_5: PVD detection level set to 2.8V
 176:../Libraries/STM32F4xx_StdPeriph_Driver/src/stm32f4xx_pwr.c ****   *            @arg PWR_PVDLevel_6: PVD detection level set to 2.9V
 177:../Libraries/STM32F4xx_StdPeriph_Driver/src/stm32f4xx_pwr.c ****   *            @arg PWR_PVDLevel_7: PVD detection level set to 3.0V
 178:../Libraries/STM32F4xx_StdPeriph_Driver/src/stm32f4xx_pwr.c ****   * @note   Refer to the electrical characteristics of you device datasheet for more details. 
 179:../Libraries/STM32F4xx_StdPeriph_Driver/src/stm32f4xx_pwr.c ****   * @retval None
 180:../Libraries/STM32F4xx_StdPeriph_Driver/src/stm32f4xx_pwr.c ****   */
 181:../Libraries/STM32F4xx_StdPeriph_Driver/src/stm32f4xx_pwr.c **** void PWR_PVDLevelConfig(uint32_t PWR_PVDLevel)
 182:../Libraries/STM32F4xx_StdPeriph_Driver/src/stm32f4xx_pwr.c **** {
 198              		.loc 1 182 1 is_stmt 1 view -0
 199              		.cfi_startproc
 200              		@ args = 0, pretend = 0, frame = 0
 201              		@ frame_needed = 0, uses_anonymous_args = 0
 183:../Libraries/STM32F4xx_StdPeriph_Driver/src/stm32f4xx_pwr.c ****   uint32_t tmpreg = 0;
 202              		.loc 1 183 3 view .LVU18
 184:../Libraries/STM32F4xx_StdPeriph_Driver/src/stm32f4xx_pwr.c ****   
 185:../Libraries/STM32F4xx_StdPeriph_Driver/src/stm32f4xx_pwr.c ****   /* Check the parameters */
 186:../Libraries/STM32F4xx_StdPeriph_Driver/src/stm32f4xx_pwr.c ****   assert_param(IS_PWR_PVD_LEVEL(PWR_PVDLevel));
 203              		.loc 1 186 3 view .LVU19
 204              	@ ../Libraries/STM32F4xx_StdPeriph_Driver/src/stm32f4xx_pwr.c:182: {
 182:../Libraries/STM32F4xx_StdPeriph_Driver/src/stm32f4xx_pwr.c ****   uint32_t tmpreg = 0;
 205              		.loc 1 182 1 is_stmt 0 view .LVU20
 206 0000 10B5     		push	{r4, lr}	@
 207              		.cfi_def_cfa_offset 8
 208              		.cfi_offset 4, -8
ARM GAS  C:\Users\admin\AppData\Local\Temp\cc9u7EuA.s 			page 8


 209              		.cfi_offset 14, -4
 210              	@ ../Libraries/STM32F4xx_StdPeriph_Driver/src/stm32f4xx_pwr.c:182: {
 182:../Libraries/STM32F4xx_StdPeriph_Driver/src/stm32f4xx_pwr.c ****   uint32_t tmpreg = 0;
 211              		.loc 1 182 1 view .LVU21
 212 0002 0446     		mov	r4, r0	@ PWR_PVDLevel, tmp124
 213              	@ ../Libraries/STM32F4xx_StdPeriph_Driver/src/stm32f4xx_pwr.c:186:   assert_param(IS_PWR_PVD_LEVEL(
 214              		.loc 1 186 3 view .LVU22
 215 0004 30F06000 		bics	r0, r0, #96	@ _14, PWR_PVDLevel,
 216              	.LVL6:
 217              	@ ../Libraries/STM32F4xx_StdPeriph_Driver/src/stm32f4xx_pwr.c:186:   assert_param(IS_PWR_PVD_LEVEL(
 218              		.loc 1 186 16 view .LVU23
 219 0008 1DBF     		ittte	ne
 220 000a 8038     		subne	r0, #128	@ iftmp.0_1,
 221 000c B0FA80F0 		clzne	r0, r0	@ iftmp.0_1, iftmp.0_1
 222 0010 4009     		lsrne	r0, r0, #5	@ iftmp.0_1, iftmp.0_1,
 223              	@ ../Libraries/STM32F4xx_StdPeriph_Driver/src/stm32f4xx_pwr.c:186:   assert_param(IS_PWR_PVD_LEVEL(
 224              		.loc 1 186 3 view .LVU24
 225 0012 0120     		moveq	r0, #1	@ iftmp.0_1,
 226 0014 FFF7FEFF 		bl	assert_param		@
 227              	.LVL7:
 187:../Libraries/STM32F4xx_StdPeriph_Driver/src/stm32f4xx_pwr.c ****   
 188:../Libraries/STM32F4xx_StdPeriph_Driver/src/stm32f4xx_pwr.c ****   tmpreg = PWR->CR;
 228              		.loc 1 188 3 is_stmt 1 view .LVU25
 229              	@ ../Libraries/STM32F4xx_StdPeriph_Driver/src/stm32f4xx_pwr.c:188:   tmpreg = PWR->CR;
 230              		.loc 1 188 10 is_stmt 0 view .LVU26
 231 0018 034B     		ldr	r3, .L12	@ tmp122,
 232 001a 1868     		ldr	r0, [r3]	@ tmpreg, MEM[(struct PWR_TypeDef *)1073770496B].CR
 233              	.LVL8:
 189:../Libraries/STM32F4xx_StdPeriph_Driver/src/stm32f4xx_pwr.c ****   
 190:../Libraries/STM32F4xx_StdPeriph_Driver/src/stm32f4xx_pwr.c ****   /* Clear PLS[7:5] bits */
 191:../Libraries/STM32F4xx_StdPeriph_Driver/src/stm32f4xx_pwr.c ****   tmpreg &= CR_PLS_MASK;
 234              		.loc 1 191 3 is_stmt 1 view .LVU27
 235              	@ ../Libraries/STM32F4xx_StdPeriph_Driver/src/stm32f4xx_pwr.c:191:   tmpreg &= CR_PLS_MASK;
 236              		.loc 1 191 10 is_stmt 0 view .LVU28
 237 001c 20F0E000 		bic	r0, r0, #224	@ tmpreg, tmpreg,
 238              	.LVL9:
 192:../Libraries/STM32F4xx_StdPeriph_Driver/src/stm32f4xx_pwr.c ****   
 193:../Libraries/STM32F4xx_StdPeriph_Driver/src/stm32f4xx_pwr.c ****   /* Set PLS[7:5] bits according to PWR_PVDLevel value */
 194:../Libraries/STM32F4xx_StdPeriph_Driver/src/stm32f4xx_pwr.c ****   tmpreg |= PWR_PVDLevel;
 239              		.loc 1 194 3 is_stmt 1 view .LVU29
 240              	@ ../Libraries/STM32F4xx_StdPeriph_Driver/src/stm32f4xx_pwr.c:194:   tmpreg |= PWR_PVDLevel;
 241              		.loc 1 194 10 is_stmt 0 view .LVU30
 242 0020 0443     		orrs	r4, r4, r0	@, tmpreg, PWR_PVDLevel, tmpreg
 243              	.LVL10:
 195:../Libraries/STM32F4xx_StdPeriph_Driver/src/stm32f4xx_pwr.c ****   
 196:../Libraries/STM32F4xx_StdPeriph_Driver/src/stm32f4xx_pwr.c ****   /* Store the new value */
 197:../Libraries/STM32F4xx_StdPeriph_Driver/src/stm32f4xx_pwr.c ****   PWR->CR = tmpreg;
 244              		.loc 1 197 3 is_stmt 1 view .LVU31
 245              	@ ../Libraries/STM32F4xx_StdPeriph_Driver/src/stm32f4xx_pwr.c:197:   PWR->CR = tmpreg;
 246              		.loc 1 197 11 is_stmt 0 view .LVU32
 247 0022 1C60     		str	r4, [r3]	@ tmpreg, MEM[(struct PWR_TypeDef *)1073770496B].CR
 248              	@ ../Libraries/STM32F4xx_StdPeriph_Driver/src/stm32f4xx_pwr.c:198: }
 198:../Libraries/STM32F4xx_StdPeriph_Driver/src/stm32f4xx_pwr.c **** }
 249              		.loc 1 198 1 view .LVU33
 250 0024 10BD     		pop	{r4, pc}	@
 251              	.LVL11:
 252              	.L13:
ARM GAS  C:\Users\admin\AppData\Local\Temp\cc9u7EuA.s 			page 9


 253              		.loc 1 198 1 view .LVU34
 254 0026 00BF     		.align	2
 255              	.L12:
 256 0028 00700040 		.word	1073770496
 257              		.cfi_endproc
 258              	.LFE112:
 259              		.size	PWR_PVDLevelConfig, .-PWR_PVDLevelConfig
 260              		.section	.text.PWR_PVDCmd,"ax",%progbits
 261              		.align	1
 262              		.p2align 2,,3
 263              		.global	PWR_PVDCmd
 264              		.syntax unified
 265              		.thumb
 266              		.thumb_func
 267              		.type	PWR_PVDCmd, %function
 268              	PWR_PVDCmd:
 269              	.LVL12:
 270              	.LFB113:
 199:../Libraries/STM32F4xx_StdPeriph_Driver/src/stm32f4xx_pwr.c **** 
 200:../Libraries/STM32F4xx_StdPeriph_Driver/src/stm32f4xx_pwr.c **** /**
 201:../Libraries/STM32F4xx_StdPeriph_Driver/src/stm32f4xx_pwr.c ****   * @brief  Enables or disables the Power Voltage Detector(PVD).
 202:../Libraries/STM32F4xx_StdPeriph_Driver/src/stm32f4xx_pwr.c ****   * @param  NewState: new state of the PVD.
 203:../Libraries/STM32F4xx_StdPeriph_Driver/src/stm32f4xx_pwr.c ****   *         This parameter can be: ENABLE or DISABLE.
 204:../Libraries/STM32F4xx_StdPeriph_Driver/src/stm32f4xx_pwr.c ****   * @retval None
 205:../Libraries/STM32F4xx_StdPeriph_Driver/src/stm32f4xx_pwr.c ****   */
 206:../Libraries/STM32F4xx_StdPeriph_Driver/src/stm32f4xx_pwr.c **** void PWR_PVDCmd(FunctionalState NewState)
 207:../Libraries/STM32F4xx_StdPeriph_Driver/src/stm32f4xx_pwr.c **** {
 271              		.loc 1 207 1 is_stmt 1 view -0
 272              		.cfi_startproc
 273              		@ args = 0, pretend = 0, frame = 0
 274              		@ frame_needed = 0, uses_anonymous_args = 0
 208:../Libraries/STM32F4xx_StdPeriph_Driver/src/stm32f4xx_pwr.c ****   /* Check the parameters */
 209:../Libraries/STM32F4xx_StdPeriph_Driver/src/stm32f4xx_pwr.c ****   assert_param(IS_FUNCTIONAL_STATE(NewState));
 275              		.loc 1 209 3 view .LVU36
 276              	@ ../Libraries/STM32F4xx_StdPeriph_Driver/src/stm32f4xx_pwr.c:207: {
 207:../Libraries/STM32F4xx_StdPeriph_Driver/src/stm32f4xx_pwr.c ****   /* Check the parameters */
 277              		.loc 1 207 1 is_stmt 0 view .LVU37
 278 0000 10B5     		push	{r4, lr}	@
 279              		.cfi_def_cfa_offset 8
 280              		.cfi_offset 4, -8
 281              		.cfi_offset 14, -4
 282              	@ ../Libraries/STM32F4xx_StdPeriph_Driver/src/stm32f4xx_pwr.c:209:   assert_param(IS_FUNCTIONAL_STA
 283              		.loc 1 209 3 view .LVU38
 284 0002 0128     		cmp	r0, #1	@ NewState,
 285              	@ ../Libraries/STM32F4xx_StdPeriph_Driver/src/stm32f4xx_pwr.c:207: {
 207:../Libraries/STM32F4xx_StdPeriph_Driver/src/stm32f4xx_pwr.c ****   /* Check the parameters */
 286              		.loc 1 207 1 view .LVU39
 287 0004 0446     		mov	r4, r0	@ NewState, tmp122
 288              	@ ../Libraries/STM32F4xx_StdPeriph_Driver/src/stm32f4xx_pwr.c:209:   assert_param(IS_FUNCTIONAL_STA
 289              		.loc 1 209 3 view .LVU40
 290 0006 8CBF     		ite	hi
 291 0008 0020     		movhi	r0, #0	@,
 292              	.LVL13:
 293              		.loc 1 209 3 view .LVU41
 294 000a 0120     		movls	r0, #1	@,
 295 000c FFF7FEFF 		bl	assert_param		@
 296              	.LVL14:
ARM GAS  C:\Users\admin\AppData\Local\Temp\cc9u7EuA.s 			page 10


 210:../Libraries/STM32F4xx_StdPeriph_Driver/src/stm32f4xx_pwr.c ****   
 211:../Libraries/STM32F4xx_StdPeriph_Driver/src/stm32f4xx_pwr.c ****   *(__IO uint32_t *) CR_PVDE_BB = (uint32_t)NewState;
 297              		.loc 1 211 3 is_stmt 1 view .LVU42
 298              	@ ../Libraries/STM32F4xx_StdPeriph_Driver/src/stm32f4xx_pwr.c:211:   *(__IO uint32_t *) CR_PVDE_BB 
 299              		.loc 1 211 33 is_stmt 0 view .LVU43
 300 0010 014B     		ldr	r3, .L16	@ tmp121,
 301 0012 1C61     		str	r4, [r3, #16]	@ NewState, MEM[(volatile uint32_t *)1108213776B]
 302              	@ ../Libraries/STM32F4xx_StdPeriph_Driver/src/stm32f4xx_pwr.c:212: }
 212:../Libraries/STM32F4xx_StdPeriph_Driver/src/stm32f4xx_pwr.c **** }
 303              		.loc 1 212 1 view .LVU44
 304 0014 10BD     		pop	{r4, pc}	@
 305              	.L17:
 306 0016 00BF     		.align	2
 307              	.L16:
 308 0018 00000E42 		.word	1108213760
 309              		.cfi_endproc
 310              	.LFE113:
 311              		.size	PWR_PVDCmd, .-PWR_PVDCmd
 312              		.section	.text.PWR_WakeUpPinCmd,"ax",%progbits
 313              		.align	1
 314              		.p2align 2,,3
 315              		.global	PWR_WakeUpPinCmd
 316              		.syntax unified
 317              		.thumb
 318              		.thumb_func
 319              		.type	PWR_WakeUpPinCmd, %function
 320              	PWR_WakeUpPinCmd:
 321              	.LVL15:
 322              	.LFB114:
 213:../Libraries/STM32F4xx_StdPeriph_Driver/src/stm32f4xx_pwr.c **** 
 214:../Libraries/STM32F4xx_StdPeriph_Driver/src/stm32f4xx_pwr.c **** /**
 215:../Libraries/STM32F4xx_StdPeriph_Driver/src/stm32f4xx_pwr.c ****   * @}
 216:../Libraries/STM32F4xx_StdPeriph_Driver/src/stm32f4xx_pwr.c ****   */
 217:../Libraries/STM32F4xx_StdPeriph_Driver/src/stm32f4xx_pwr.c **** 
 218:../Libraries/STM32F4xx_StdPeriph_Driver/src/stm32f4xx_pwr.c **** /** @defgroup PWR_Group3 WakeUp pin configuration functions
 219:../Libraries/STM32F4xx_StdPeriph_Driver/src/stm32f4xx_pwr.c ****  *  @brief   WakeUp pin configuration functions 
 220:../Libraries/STM32F4xx_StdPeriph_Driver/src/stm32f4xx_pwr.c ****  *
 221:../Libraries/STM32F4xx_StdPeriph_Driver/src/stm32f4xx_pwr.c **** @verbatim   
 222:../Libraries/STM32F4xx_StdPeriph_Driver/src/stm32f4xx_pwr.c ****  ===============================================================================
 223:../Libraries/STM32F4xx_StdPeriph_Driver/src/stm32f4xx_pwr.c ****                     WakeUp pin configuration functions
 224:../Libraries/STM32F4xx_StdPeriph_Driver/src/stm32f4xx_pwr.c ****  ===============================================================================  
 225:../Libraries/STM32F4xx_StdPeriph_Driver/src/stm32f4xx_pwr.c **** 
 226:../Libraries/STM32F4xx_StdPeriph_Driver/src/stm32f4xx_pwr.c ****  - WakeUp pin is used to wakeup the system from Standby mode. This pin is 
 227:../Libraries/STM32F4xx_StdPeriph_Driver/src/stm32f4xx_pwr.c ****    forced in input pull down configuration and is active on rising edges.
 228:../Libraries/STM32F4xx_StdPeriph_Driver/src/stm32f4xx_pwr.c ****  - There is only one WakeUp pin: WakeUp Pin 1 on PA.00.
 229:../Libraries/STM32F4xx_StdPeriph_Driver/src/stm32f4xx_pwr.c **** 
 230:../Libraries/STM32F4xx_StdPeriph_Driver/src/stm32f4xx_pwr.c **** @endverbatim
 231:../Libraries/STM32F4xx_StdPeriph_Driver/src/stm32f4xx_pwr.c ****   * @{
 232:../Libraries/STM32F4xx_StdPeriph_Driver/src/stm32f4xx_pwr.c ****   */
 233:../Libraries/STM32F4xx_StdPeriph_Driver/src/stm32f4xx_pwr.c **** 
 234:../Libraries/STM32F4xx_StdPeriph_Driver/src/stm32f4xx_pwr.c **** /**
 235:../Libraries/STM32F4xx_StdPeriph_Driver/src/stm32f4xx_pwr.c ****   * @brief  Enables or disables the WakeUp Pin functionality.
 236:../Libraries/STM32F4xx_StdPeriph_Driver/src/stm32f4xx_pwr.c ****   * @param  NewState: new state of the WakeUp Pin functionality.
 237:../Libraries/STM32F4xx_StdPeriph_Driver/src/stm32f4xx_pwr.c ****   *         This parameter can be: ENABLE or DISABLE.
 238:../Libraries/STM32F4xx_StdPeriph_Driver/src/stm32f4xx_pwr.c ****   * @retval None
 239:../Libraries/STM32F4xx_StdPeriph_Driver/src/stm32f4xx_pwr.c ****   */
 240:../Libraries/STM32F4xx_StdPeriph_Driver/src/stm32f4xx_pwr.c **** void PWR_WakeUpPinCmd(FunctionalState NewState)
ARM GAS  C:\Users\admin\AppData\Local\Temp\cc9u7EuA.s 			page 11


 241:../Libraries/STM32F4xx_StdPeriph_Driver/src/stm32f4xx_pwr.c **** {
 323              		.loc 1 241 1 is_stmt 1 view -0
 324              		.cfi_startproc
 325              		@ args = 0, pretend = 0, frame = 0
 326              		@ frame_needed = 0, uses_anonymous_args = 0
 242:../Libraries/STM32F4xx_StdPeriph_Driver/src/stm32f4xx_pwr.c ****   /* Check the parameters */  
 243:../Libraries/STM32F4xx_StdPeriph_Driver/src/stm32f4xx_pwr.c ****   assert_param(IS_FUNCTIONAL_STATE(NewState));
 327              		.loc 1 243 3 view .LVU46
 328              	@ ../Libraries/STM32F4xx_StdPeriph_Driver/src/stm32f4xx_pwr.c:241: {
 241:../Libraries/STM32F4xx_StdPeriph_Driver/src/stm32f4xx_pwr.c ****   /* Check the parameters */  
 329              		.loc 1 241 1 is_stmt 0 view .LVU47
 330 0000 10B5     		push	{r4, lr}	@
 331              		.cfi_def_cfa_offset 8
 332              		.cfi_offset 4, -8
 333              		.cfi_offset 14, -4
 334              	@ ../Libraries/STM32F4xx_StdPeriph_Driver/src/stm32f4xx_pwr.c:243:   assert_param(IS_FUNCTIONAL_STA
 335              		.loc 1 243 3 view .LVU48
 336 0002 0128     		cmp	r0, #1	@ NewState,
 337              	@ ../Libraries/STM32F4xx_StdPeriph_Driver/src/stm32f4xx_pwr.c:241: {
 241:../Libraries/STM32F4xx_StdPeriph_Driver/src/stm32f4xx_pwr.c ****   /* Check the parameters */  
 338              		.loc 1 241 1 view .LVU49
 339 0004 0446     		mov	r4, r0	@ NewState, tmp122
 340              	@ ../Libraries/STM32F4xx_StdPeriph_Driver/src/stm32f4xx_pwr.c:243:   assert_param(IS_FUNCTIONAL_STA
 341              		.loc 1 243 3 view .LVU50
 342 0006 8CBF     		ite	hi
 343 0008 0020     		movhi	r0, #0	@,
 344              	.LVL16:
 345              		.loc 1 243 3 view .LVU51
 346 000a 0120     		movls	r0, #1	@,
 347 000c FFF7FEFF 		bl	assert_param		@
 348              	.LVL17:
 244:../Libraries/STM32F4xx_StdPeriph_Driver/src/stm32f4xx_pwr.c **** 
 245:../Libraries/STM32F4xx_StdPeriph_Driver/src/stm32f4xx_pwr.c ****   *(__IO uint32_t *) CSR_EWUP_BB = (uint32_t)NewState;
 349              		.loc 1 245 3 is_stmt 1 view .LVU52
 350              	@ ../Libraries/STM32F4xx_StdPeriph_Driver/src/stm32f4xx_pwr.c:245:   *(__IO uint32_t *) CSR_EWUP_BB
 351              		.loc 1 245 34 is_stmt 0 view .LVU53
 352 0010 014B     		ldr	r3, .L20	@ tmp121,
 353 0012 C3F8A040 		str	r4, [r3, #160]	@ NewState, MEM[(volatile uint32_t *)1108213920B]
 354              	@ ../Libraries/STM32F4xx_StdPeriph_Driver/src/stm32f4xx_pwr.c:246: }
 246:../Libraries/STM32F4xx_StdPeriph_Driver/src/stm32f4xx_pwr.c **** }
 355              		.loc 1 246 1 view .LVU54
 356 0016 10BD     		pop	{r4, pc}	@
 357              	.L21:
 358              		.align	2
 359              	.L20:
 360 0018 00000E42 		.word	1108213760
 361              		.cfi_endproc
 362              	.LFE114:
 363              		.size	PWR_WakeUpPinCmd, .-PWR_WakeUpPinCmd
 364              		.section	.text.PWR_BackupRegulatorCmd,"ax",%progbits
 365              		.align	1
 366              		.p2align 2,,3
 367              		.global	PWR_BackupRegulatorCmd
 368              		.syntax unified
 369              		.thumb
 370              		.thumb_func
 371              		.type	PWR_BackupRegulatorCmd, %function
ARM GAS  C:\Users\admin\AppData\Local\Temp\cc9u7EuA.s 			page 12


 372              	PWR_BackupRegulatorCmd:
 373              	.LVL18:
 374              	.LFB115:
 247:../Libraries/STM32F4xx_StdPeriph_Driver/src/stm32f4xx_pwr.c **** 
 248:../Libraries/STM32F4xx_StdPeriph_Driver/src/stm32f4xx_pwr.c **** /**
 249:../Libraries/STM32F4xx_StdPeriph_Driver/src/stm32f4xx_pwr.c ****   * @}
 250:../Libraries/STM32F4xx_StdPeriph_Driver/src/stm32f4xx_pwr.c ****   */
 251:../Libraries/STM32F4xx_StdPeriph_Driver/src/stm32f4xx_pwr.c **** 
 252:../Libraries/STM32F4xx_StdPeriph_Driver/src/stm32f4xx_pwr.c **** /** @defgroup PWR_Group4 Main and Backup Regulators configuration functions
 253:../Libraries/STM32F4xx_StdPeriph_Driver/src/stm32f4xx_pwr.c ****  *  @brief   Main and Backup Regulators configuration functions 
 254:../Libraries/STM32F4xx_StdPeriph_Driver/src/stm32f4xx_pwr.c ****  *
 255:../Libraries/STM32F4xx_StdPeriph_Driver/src/stm32f4xx_pwr.c **** @verbatim   
 256:../Libraries/STM32F4xx_StdPeriph_Driver/src/stm32f4xx_pwr.c ****  ===============================================================================
 257:../Libraries/STM32F4xx_StdPeriph_Driver/src/stm32f4xx_pwr.c ****                     Main and Backup Regulators configuration functions
 258:../Libraries/STM32F4xx_StdPeriph_Driver/src/stm32f4xx_pwr.c ****  ===============================================================================  
 259:../Libraries/STM32F4xx_StdPeriph_Driver/src/stm32f4xx_pwr.c **** 
 260:../Libraries/STM32F4xx_StdPeriph_Driver/src/stm32f4xx_pwr.c ****  - The backup domain includes 4 Kbytes of backup SRAM accessible only from the 
 261:../Libraries/STM32F4xx_StdPeriph_Driver/src/stm32f4xx_pwr.c ****    CPU, and address in 32-bit, 16-bit or 8-bit mode. Its content is retained 
 262:../Libraries/STM32F4xx_StdPeriph_Driver/src/stm32f4xx_pwr.c ****    even in Standby or VBAT mode when the low power backup regulator is enabled. 
 263:../Libraries/STM32F4xx_StdPeriph_Driver/src/stm32f4xx_pwr.c ****    It can be considered as an internal EEPROM when VBAT is always present.
 264:../Libraries/STM32F4xx_StdPeriph_Driver/src/stm32f4xx_pwr.c ****    You can use the PWR_BackupRegulatorCmd() function to enable the low power
 265:../Libraries/STM32F4xx_StdPeriph_Driver/src/stm32f4xx_pwr.c ****    backup regulator and use the PWR_GetFlagStatus(PWR_FLAG_BRR) to check if it is
 266:../Libraries/STM32F4xx_StdPeriph_Driver/src/stm32f4xx_pwr.c ****    ready or not. 
 267:../Libraries/STM32F4xx_StdPeriph_Driver/src/stm32f4xx_pwr.c **** 
 268:../Libraries/STM32F4xx_StdPeriph_Driver/src/stm32f4xx_pwr.c ****  - When the backup domain is supplied by VDD (analog switch connected to VDD) 
 269:../Libraries/STM32F4xx_StdPeriph_Driver/src/stm32f4xx_pwr.c ****    the backup SRAM is powered from VDD which replaces the VBAT power supply to 
 270:../Libraries/STM32F4xx_StdPeriph_Driver/src/stm32f4xx_pwr.c ****    save battery life.
 271:../Libraries/STM32F4xx_StdPeriph_Driver/src/stm32f4xx_pwr.c **** 
 272:../Libraries/STM32F4xx_StdPeriph_Driver/src/stm32f4xx_pwr.c ****  - The backup SRAM is not mass erased by an tamper event. It is read protected 
 273:../Libraries/STM32F4xx_StdPeriph_Driver/src/stm32f4xx_pwr.c ****    to prevent confidential data, such as cryptographic private key, from being 
 274:../Libraries/STM32F4xx_StdPeriph_Driver/src/stm32f4xx_pwr.c ****    accessed. The backup SRAM can be erased only through the Flash interface when
 275:../Libraries/STM32F4xx_StdPeriph_Driver/src/stm32f4xx_pwr.c ****    a protection level change from level 1 to level 0 is requested. 
 276:../Libraries/STM32F4xx_StdPeriph_Driver/src/stm32f4xx_pwr.c ****    Refer to the description of Read protection (RDP) in the Flash programming manual.
 277:../Libraries/STM32F4xx_StdPeriph_Driver/src/stm32f4xx_pwr.c **** 
 278:../Libraries/STM32F4xx_StdPeriph_Driver/src/stm32f4xx_pwr.c ****  - The main internal regulator can be configured to have a tradeoff between performance
 279:../Libraries/STM32F4xx_StdPeriph_Driver/src/stm32f4xx_pwr.c ****    and power consumption when the device does not operate at the maximum frequency. 
 280:../Libraries/STM32F4xx_StdPeriph_Driver/src/stm32f4xx_pwr.c ****    This is done through PWR_MainRegulatorModeConfig() function which configure VOS bit
 281:../Libraries/STM32F4xx_StdPeriph_Driver/src/stm32f4xx_pwr.c ****    in PWR_CR register: 
 282:../Libraries/STM32F4xx_StdPeriph_Driver/src/stm32f4xx_pwr.c ****       - When this bit is set (Regulator voltage output Scale 1 mode selected) the System
 283:../Libraries/STM32F4xx_StdPeriph_Driver/src/stm32f4xx_pwr.c ****         frequency can go up to 168 MHz. 
 284:../Libraries/STM32F4xx_StdPeriph_Driver/src/stm32f4xx_pwr.c ****       - When this bit is reset (Regulator voltage output Scale 2 mode selected) the System
 285:../Libraries/STM32F4xx_StdPeriph_Driver/src/stm32f4xx_pwr.c ****         frequency can go up to 144 MHz. 
 286:../Libraries/STM32F4xx_StdPeriph_Driver/src/stm32f4xx_pwr.c ****    Refer to the datasheets for more details.
 287:../Libraries/STM32F4xx_StdPeriph_Driver/src/stm32f4xx_pwr.c ****            
 288:../Libraries/STM32F4xx_StdPeriph_Driver/src/stm32f4xx_pwr.c **** @endverbatim
 289:../Libraries/STM32F4xx_StdPeriph_Driver/src/stm32f4xx_pwr.c ****   * @{
 290:../Libraries/STM32F4xx_StdPeriph_Driver/src/stm32f4xx_pwr.c ****   */
 291:../Libraries/STM32F4xx_StdPeriph_Driver/src/stm32f4xx_pwr.c **** 
 292:../Libraries/STM32F4xx_StdPeriph_Driver/src/stm32f4xx_pwr.c **** /**
 293:../Libraries/STM32F4xx_StdPeriph_Driver/src/stm32f4xx_pwr.c ****   * @brief  Enables or disables the Backup Regulator.
 294:../Libraries/STM32F4xx_StdPeriph_Driver/src/stm32f4xx_pwr.c ****   * @param  NewState: new state of the Backup Regulator.
 295:../Libraries/STM32F4xx_StdPeriph_Driver/src/stm32f4xx_pwr.c ****   *          This parameter can be: ENABLE or DISABLE.
 296:../Libraries/STM32F4xx_StdPeriph_Driver/src/stm32f4xx_pwr.c ****   * @retval None
 297:../Libraries/STM32F4xx_StdPeriph_Driver/src/stm32f4xx_pwr.c ****   */
 298:../Libraries/STM32F4xx_StdPeriph_Driver/src/stm32f4xx_pwr.c **** void PWR_BackupRegulatorCmd(FunctionalState NewState)
 299:../Libraries/STM32F4xx_StdPeriph_Driver/src/stm32f4xx_pwr.c **** {
 375              		.loc 1 299 1 is_stmt 1 view -0
ARM GAS  C:\Users\admin\AppData\Local\Temp\cc9u7EuA.s 			page 13


 376              		.cfi_startproc
 377              		@ args = 0, pretend = 0, frame = 0
 378              		@ frame_needed = 0, uses_anonymous_args = 0
 300:../Libraries/STM32F4xx_StdPeriph_Driver/src/stm32f4xx_pwr.c ****   /* Check the parameters */
 301:../Libraries/STM32F4xx_StdPeriph_Driver/src/stm32f4xx_pwr.c ****   assert_param(IS_FUNCTIONAL_STATE(NewState));
 379              		.loc 1 301 3 view .LVU56
 380              	@ ../Libraries/STM32F4xx_StdPeriph_Driver/src/stm32f4xx_pwr.c:299: {
 299:../Libraries/STM32F4xx_StdPeriph_Driver/src/stm32f4xx_pwr.c ****   /* Check the parameters */
 381              		.loc 1 299 1 is_stmt 0 view .LVU57
 382 0000 10B5     		push	{r4, lr}	@
 383              		.cfi_def_cfa_offset 8
 384              		.cfi_offset 4, -8
 385              		.cfi_offset 14, -4
 386              	@ ../Libraries/STM32F4xx_StdPeriph_Driver/src/stm32f4xx_pwr.c:301:   assert_param(IS_FUNCTIONAL_STA
 387              		.loc 1 301 3 view .LVU58
 388 0002 0128     		cmp	r0, #1	@ NewState,
 389              	@ ../Libraries/STM32F4xx_StdPeriph_Driver/src/stm32f4xx_pwr.c:299: {
 299:../Libraries/STM32F4xx_StdPeriph_Driver/src/stm32f4xx_pwr.c ****   /* Check the parameters */
 390              		.loc 1 299 1 view .LVU59
 391 0004 0446     		mov	r4, r0	@ NewState, tmp122
 392              	@ ../Libraries/STM32F4xx_StdPeriph_Driver/src/stm32f4xx_pwr.c:301:   assert_param(IS_FUNCTIONAL_STA
 393              		.loc 1 301 3 view .LVU60
 394 0006 8CBF     		ite	hi
 395 0008 0020     		movhi	r0, #0	@,
 396              	.LVL19:
 397              		.loc 1 301 3 view .LVU61
 398 000a 0120     		movls	r0, #1	@,
 399 000c FFF7FEFF 		bl	assert_param		@
 400              	.LVL20:
 302:../Libraries/STM32F4xx_StdPeriph_Driver/src/stm32f4xx_pwr.c **** 
 303:../Libraries/STM32F4xx_StdPeriph_Driver/src/stm32f4xx_pwr.c ****   *(__IO uint32_t *) CSR_BRE_BB = (uint32_t)NewState;
 401              		.loc 1 303 3 is_stmt 1 view .LVU62
 402              	@ ../Libraries/STM32F4xx_StdPeriph_Driver/src/stm32f4xx_pwr.c:303:   *(__IO uint32_t *) CSR_BRE_BB 
 403              		.loc 1 303 33 is_stmt 0 view .LVU63
 404 0010 014B     		ldr	r3, .L24	@ tmp121,
 405 0012 C3F8A440 		str	r4, [r3, #164]	@ NewState, MEM[(volatile uint32_t *)1108213924B]
 406              	@ ../Libraries/STM32F4xx_StdPeriph_Driver/src/stm32f4xx_pwr.c:304: }
 304:../Libraries/STM32F4xx_StdPeriph_Driver/src/stm32f4xx_pwr.c **** }
 407              		.loc 1 304 1 view .LVU64
 408 0016 10BD     		pop	{r4, pc}	@
 409              	.L25:
 410              		.align	2
 411              	.L24:
 412 0018 00000E42 		.word	1108213760
 413              		.cfi_endproc
 414              	.LFE115:
 415              		.size	PWR_BackupRegulatorCmd, .-PWR_BackupRegulatorCmd
 416              		.section	.text.PWR_MainRegulatorModeConfig,"ax",%progbits
 417              		.align	1
 418              		.p2align 2,,3
 419              		.global	PWR_MainRegulatorModeConfig
 420              		.syntax unified
 421              		.thumb
 422              		.thumb_func
 423              		.type	PWR_MainRegulatorModeConfig, %function
 424              	PWR_MainRegulatorModeConfig:
 425              	.LVL21:
ARM GAS  C:\Users\admin\AppData\Local\Temp\cc9u7EuA.s 			page 14


 426              	.LFB116:
 305:../Libraries/STM32F4xx_StdPeriph_Driver/src/stm32f4xx_pwr.c **** 
 306:../Libraries/STM32F4xx_StdPeriph_Driver/src/stm32f4xx_pwr.c **** /**
 307:../Libraries/STM32F4xx_StdPeriph_Driver/src/stm32f4xx_pwr.c ****   * @brief  Configures the main internal regulator output voltage.
 308:../Libraries/STM32F4xx_StdPeriph_Driver/src/stm32f4xx_pwr.c ****   * @param  PWR_Regulator_Voltage: specifies the regulator output voltage to achieve
 309:../Libraries/STM32F4xx_StdPeriph_Driver/src/stm32f4xx_pwr.c ****   *         a tradeoff between performance and power consumption when the device does
 310:../Libraries/STM32F4xx_StdPeriph_Driver/src/stm32f4xx_pwr.c ****   *         not operate at the maximum frequency (refer to the datasheets for more details).
 311:../Libraries/STM32F4xx_StdPeriph_Driver/src/stm32f4xx_pwr.c ****   *          This parameter can be one of the following values:
 312:../Libraries/STM32F4xx_StdPeriph_Driver/src/stm32f4xx_pwr.c ****   *            @arg PWR_Regulator_Voltage_Scale1: Regulator voltage output Scale 1 mode, 
 313:../Libraries/STM32F4xx_StdPeriph_Driver/src/stm32f4xx_pwr.c ****   *                                                System frequency up to 168 MHz. 
 314:../Libraries/STM32F4xx_StdPeriph_Driver/src/stm32f4xx_pwr.c ****   *            @arg PWR_Regulator_Voltage_Scale2: Regulator voltage output Scale 2 mode, 
 315:../Libraries/STM32F4xx_StdPeriph_Driver/src/stm32f4xx_pwr.c ****   *                                                System frequency up to 144 MHz.    
 316:../Libraries/STM32F4xx_StdPeriph_Driver/src/stm32f4xx_pwr.c ****   * @retval None
 317:../Libraries/STM32F4xx_StdPeriph_Driver/src/stm32f4xx_pwr.c ****   */
 318:../Libraries/STM32F4xx_StdPeriph_Driver/src/stm32f4xx_pwr.c **** void PWR_MainRegulatorModeConfig(uint32_t PWR_Regulator_Voltage)
 319:../Libraries/STM32F4xx_StdPeriph_Driver/src/stm32f4xx_pwr.c **** {
 427              		.loc 1 319 1 is_stmt 1 view -0
 428              		.cfi_startproc
 429              		@ args = 0, pretend = 0, frame = 0
 430              		@ frame_needed = 0, uses_anonymous_args = 0
 320:../Libraries/STM32F4xx_StdPeriph_Driver/src/stm32f4xx_pwr.c ****   /* Check the parameters */
 321:../Libraries/STM32F4xx_StdPeriph_Driver/src/stm32f4xx_pwr.c ****   assert_param(IS_PWR_REGULATOR_VOLTAGE(PWR_Regulator_Voltage));
 431              		.loc 1 321 3 view .LVU66
 432 0000 B0F5804F 		cmp	r0, #16384	@ PWR_Regulator_Voltage,
 433              	@ ../Libraries/STM32F4xx_StdPeriph_Driver/src/stm32f4xx_pwr.c:319: {
 319:../Libraries/STM32F4xx_StdPeriph_Driver/src/stm32f4xx_pwr.c ****   /* Check the parameters */
 434              		.loc 1 319 1 is_stmt 0 view .LVU67
 435 0004 10B5     		push	{r4, lr}	@
 436              		.cfi_def_cfa_offset 8
 437              		.cfi_offset 4, -8
 438              		.cfi_offset 14, -4
 439              	@ ../Libraries/STM32F4xx_StdPeriph_Driver/src/stm32f4xx_pwr.c:321:   assert_param(IS_PWR_REGULATOR_
 440              		.loc 1 321 3 view .LVU68
 441 0006 0CD0     		beq	.L27		@,
 442 0008 0446     		mov	r4, r0	@ PWR_Regulator_Voltage, tmp126
 443              	@ ../Libraries/STM32F4xx_StdPeriph_Driver/src/stm32f4xx_pwr.c:321:   assert_param(IS_PWR_REGULATOR_
 444              		.loc 1 321 3 discriminator 2 view .LVU69
 445 000a B0FA80F0 		clz	r0, r0	@, PWR_Regulator_Voltage
 446              	.LVL22:
 447              		.loc 1 321 3 discriminator 2 view .LVU70
 448 000e 4009     		lsrs	r0, r0, #5	@,,
 449 0010 FFF7FEFF 		bl	assert_param		@
 450              	.LVL23:
 322:../Libraries/STM32F4xx_StdPeriph_Driver/src/stm32f4xx_pwr.c **** 
 323:../Libraries/STM32F4xx_StdPeriph_Driver/src/stm32f4xx_pwr.c ****   if (PWR_Regulator_Voltage == PWR_Regulator_Voltage_Scale2)
 451              		.loc 1 323 3 is_stmt 1 discriminator 2 view .LVU71
 452              	@ ../Libraries/STM32F4xx_StdPeriph_Driver/src/stm32f4xx_pwr.c:323:   if (PWR_Regulator_Voltage == P
 453              		.loc 1 323 6 is_stmt 0 discriminator 2 view .LVU72
 454 0014 44B9     		cbnz	r4, .L28	@ PWR_Regulator_Voltage,
 324:../Libraries/STM32F4xx_StdPeriph_Driver/src/stm32f4xx_pwr.c ****   {
 325:../Libraries/STM32F4xx_StdPeriph_Driver/src/stm32f4xx_pwr.c ****     PWR->CR &= ~PWR_Regulator_Voltage_Scale1;
 455              		.loc 1 325 5 is_stmt 1 view .LVU73
 456              	@ ../Libraries/STM32F4xx_StdPeriph_Driver/src/stm32f4xx_pwr.c:325:     PWR->CR &= ~PWR_Regulator_Vo
 457              		.loc 1 325 13 is_stmt 0 view .LVU74
 458 0016 074A     		ldr	r2, .L31	@ tmp122,
 459 0018 1368     		ldr	r3, [r2]	@ _1, MEM[(struct PWR_TypeDef *)1073770496B].CR
 460 001a 23F48043 		bic	r3, r3, #16384	@ _2, _1,
ARM GAS  C:\Users\admin\AppData\Local\Temp\cc9u7EuA.s 			page 15


 461 001e 1360     		str	r3, [r2]	@ _2,
 462              	@ ../Libraries/STM32F4xx_StdPeriph_Driver/src/stm32f4xx_pwr.c:331: }
 326:../Libraries/STM32F4xx_StdPeriph_Driver/src/stm32f4xx_pwr.c ****   }
 327:../Libraries/STM32F4xx_StdPeriph_Driver/src/stm32f4xx_pwr.c ****   else
 328:../Libraries/STM32F4xx_StdPeriph_Driver/src/stm32f4xx_pwr.c ****   {    
 329:../Libraries/STM32F4xx_StdPeriph_Driver/src/stm32f4xx_pwr.c ****     PWR->CR |= PWR_Regulator_Voltage_Scale1;
 330:../Libraries/STM32F4xx_StdPeriph_Driver/src/stm32f4xx_pwr.c ****   }
 331:../Libraries/STM32F4xx_StdPeriph_Driver/src/stm32f4xx_pwr.c **** }
 463              		.loc 1 331 1 view .LVU75
 464 0020 10BD     		pop	{r4, pc}	@
 465              	.LVL24:
 466              	.L27:
 467              	@ ../Libraries/STM32F4xx_StdPeriph_Driver/src/stm32f4xx_pwr.c:321:   assert_param(IS_PWR_REGULATOR_
 321:../Libraries/STM32F4xx_StdPeriph_Driver/src/stm32f4xx_pwr.c **** 
 468              		.loc 1 321 3 view .LVU76
 469 0022 0120     		movs	r0, #1	@,
 470              	.LVL25:
 321:../Libraries/STM32F4xx_StdPeriph_Driver/src/stm32f4xx_pwr.c **** 
 471              		.loc 1 321 3 view .LVU77
 472 0024 FFF7FEFF 		bl	assert_param		@
 473              	.LVL26:
 323:../Libraries/STM32F4xx_StdPeriph_Driver/src/stm32f4xx_pwr.c ****   {
 474              		.loc 1 323 3 is_stmt 1 view .LVU78
 475              	.L28:
 329:../Libraries/STM32F4xx_StdPeriph_Driver/src/stm32f4xx_pwr.c ****   }
 476              		.loc 1 329 5 view .LVU79
 477              	@ ../Libraries/STM32F4xx_StdPeriph_Driver/src/stm32f4xx_pwr.c:329:     PWR->CR |= PWR_Regulator_Vol
 329:../Libraries/STM32F4xx_StdPeriph_Driver/src/stm32f4xx_pwr.c ****   }
 478              		.loc 1 329 13 is_stmt 0 view .LVU80
 479 0028 024A     		ldr	r2, .L31	@ tmp124,
 480 002a 1368     		ldr	r3, [r2]	@ _3, MEM[(struct PWR_TypeDef *)1073770496B].CR
 481 002c 43F48043 		orr	r3, r3, #16384	@ _4, _3,
 482 0030 1360     		str	r3, [r2]	@ _4,
 483              	@ ../Libraries/STM32F4xx_StdPeriph_Driver/src/stm32f4xx_pwr.c:331: }
 484              		.loc 1 331 1 view .LVU81
 485 0032 10BD     		pop	{r4, pc}	@
 486              	.L32:
 487              		.align	2
 488              	.L31:
 489 0034 00700040 		.word	1073770496
 490              		.cfi_endproc
 491              	.LFE116:
 492              		.size	PWR_MainRegulatorModeConfig, .-PWR_MainRegulatorModeConfig
 493              		.section	.text.PWR_FlashPowerDownCmd,"ax",%progbits
 494              		.align	1
 495              		.p2align 2,,3
 496              		.global	PWR_FlashPowerDownCmd
 497              		.syntax unified
 498              		.thumb
 499              		.thumb_func
 500              		.type	PWR_FlashPowerDownCmd, %function
 501              	PWR_FlashPowerDownCmd:
 502              	.LVL27:
 503              	.LFB117:
 332:../Libraries/STM32F4xx_StdPeriph_Driver/src/stm32f4xx_pwr.c **** 
 333:../Libraries/STM32F4xx_StdPeriph_Driver/src/stm32f4xx_pwr.c **** /**
 334:../Libraries/STM32F4xx_StdPeriph_Driver/src/stm32f4xx_pwr.c ****   * @}
ARM GAS  C:\Users\admin\AppData\Local\Temp\cc9u7EuA.s 			page 16


 335:../Libraries/STM32F4xx_StdPeriph_Driver/src/stm32f4xx_pwr.c ****   */
 336:../Libraries/STM32F4xx_StdPeriph_Driver/src/stm32f4xx_pwr.c **** 
 337:../Libraries/STM32F4xx_StdPeriph_Driver/src/stm32f4xx_pwr.c **** /** @defgroup PWR_Group5 FLASH Power Down configuration functions
 338:../Libraries/STM32F4xx_StdPeriph_Driver/src/stm32f4xx_pwr.c ****  *  @brief   FLASH Power Down configuration functions 
 339:../Libraries/STM32F4xx_StdPeriph_Driver/src/stm32f4xx_pwr.c ****  *
 340:../Libraries/STM32F4xx_StdPeriph_Driver/src/stm32f4xx_pwr.c **** @verbatim   
 341:../Libraries/STM32F4xx_StdPeriph_Driver/src/stm32f4xx_pwr.c ****  ===============================================================================
 342:../Libraries/STM32F4xx_StdPeriph_Driver/src/stm32f4xx_pwr.c ****            FLASH Power Down configuration functions
 343:../Libraries/STM32F4xx_StdPeriph_Driver/src/stm32f4xx_pwr.c ****  ===============================================================================  
 344:../Libraries/STM32F4xx_StdPeriph_Driver/src/stm32f4xx_pwr.c **** 
 345:../Libraries/STM32F4xx_StdPeriph_Driver/src/stm32f4xx_pwr.c ****  - By setting the FPDS bit in the PWR_CR register by using the PWR_FlashPowerDownCmd()
 346:../Libraries/STM32F4xx_StdPeriph_Driver/src/stm32f4xx_pwr.c ****    function, the Flash memory also enters power down mode when the device enters 
 347:../Libraries/STM32F4xx_StdPeriph_Driver/src/stm32f4xx_pwr.c ****    Stop mode. When the Flash memory is in power down mode, an additional startup 
 348:../Libraries/STM32F4xx_StdPeriph_Driver/src/stm32f4xx_pwr.c ****    delay is incurred when waking up from Stop mode.
 349:../Libraries/STM32F4xx_StdPeriph_Driver/src/stm32f4xx_pwr.c **** 
 350:../Libraries/STM32F4xx_StdPeriph_Driver/src/stm32f4xx_pwr.c **** @endverbatim
 351:../Libraries/STM32F4xx_StdPeriph_Driver/src/stm32f4xx_pwr.c ****   * @{
 352:../Libraries/STM32F4xx_StdPeriph_Driver/src/stm32f4xx_pwr.c ****   */
 353:../Libraries/STM32F4xx_StdPeriph_Driver/src/stm32f4xx_pwr.c **** 
 354:../Libraries/STM32F4xx_StdPeriph_Driver/src/stm32f4xx_pwr.c **** /**
 355:../Libraries/STM32F4xx_StdPeriph_Driver/src/stm32f4xx_pwr.c ****   * @brief  Enables or disables the Flash Power Down in STOP mode.
 356:../Libraries/STM32F4xx_StdPeriph_Driver/src/stm32f4xx_pwr.c ****   * @param  NewState: new state of the Flash power mode.
 357:../Libraries/STM32F4xx_StdPeriph_Driver/src/stm32f4xx_pwr.c ****   *          This parameter can be: ENABLE or DISABLE.
 358:../Libraries/STM32F4xx_StdPeriph_Driver/src/stm32f4xx_pwr.c ****   * @retval None
 359:../Libraries/STM32F4xx_StdPeriph_Driver/src/stm32f4xx_pwr.c ****   */
 360:../Libraries/STM32F4xx_StdPeriph_Driver/src/stm32f4xx_pwr.c **** void PWR_FlashPowerDownCmd(FunctionalState NewState)
 361:../Libraries/STM32F4xx_StdPeriph_Driver/src/stm32f4xx_pwr.c **** {
 504              		.loc 1 361 1 is_stmt 1 view -0
 505              		.cfi_startproc
 506              		@ args = 0, pretend = 0, frame = 0
 507              		@ frame_needed = 0, uses_anonymous_args = 0
 362:../Libraries/STM32F4xx_StdPeriph_Driver/src/stm32f4xx_pwr.c ****   /* Check the parameters */
 363:../Libraries/STM32F4xx_StdPeriph_Driver/src/stm32f4xx_pwr.c ****   assert_param(IS_FUNCTIONAL_STATE(NewState));
 508              		.loc 1 363 3 view .LVU83
 509              	@ ../Libraries/STM32F4xx_StdPeriph_Driver/src/stm32f4xx_pwr.c:361: {
 361:../Libraries/STM32F4xx_StdPeriph_Driver/src/stm32f4xx_pwr.c ****   /* Check the parameters */
 510              		.loc 1 361 1 is_stmt 0 view .LVU84
 511 0000 10B5     		push	{r4, lr}	@
 512              		.cfi_def_cfa_offset 8
 513              		.cfi_offset 4, -8
 514              		.cfi_offset 14, -4
 515              	@ ../Libraries/STM32F4xx_StdPeriph_Driver/src/stm32f4xx_pwr.c:363:   assert_param(IS_FUNCTIONAL_STA
 516              		.loc 1 363 3 view .LVU85
 517 0002 0128     		cmp	r0, #1	@ NewState,
 518              	@ ../Libraries/STM32F4xx_StdPeriph_Driver/src/stm32f4xx_pwr.c:361: {
 361:../Libraries/STM32F4xx_StdPeriph_Driver/src/stm32f4xx_pwr.c ****   /* Check the parameters */
 519              		.loc 1 361 1 view .LVU86
 520 0004 0446     		mov	r4, r0	@ NewState, tmp122
 521              	@ ../Libraries/STM32F4xx_StdPeriph_Driver/src/stm32f4xx_pwr.c:363:   assert_param(IS_FUNCTIONAL_STA
 522              		.loc 1 363 3 view .LVU87
 523 0006 8CBF     		ite	hi
 524 0008 0020     		movhi	r0, #0	@,
 525              	.LVL28:
 526              		.loc 1 363 3 view .LVU88
 527 000a 0120     		movls	r0, #1	@,
 528 000c FFF7FEFF 		bl	assert_param		@
 529              	.LVL29:
ARM GAS  C:\Users\admin\AppData\Local\Temp\cc9u7EuA.s 			page 17


 364:../Libraries/STM32F4xx_StdPeriph_Driver/src/stm32f4xx_pwr.c **** 
 365:../Libraries/STM32F4xx_StdPeriph_Driver/src/stm32f4xx_pwr.c ****   *(__IO uint32_t *) CR_FPDS_BB = (uint32_t)NewState;
 530              		.loc 1 365 3 is_stmt 1 view .LVU89
 531              	@ ../Libraries/STM32F4xx_StdPeriph_Driver/src/stm32f4xx_pwr.c:365:   *(__IO uint32_t *) CR_FPDS_BB 
 532              		.loc 1 365 33 is_stmt 0 view .LVU90
 533 0010 014B     		ldr	r3, .L35	@ tmp121,
 534 0012 5C62     		str	r4, [r3, #36]	@ NewState, MEM[(volatile uint32_t *)1108213796B]
 535              	@ ../Libraries/STM32F4xx_StdPeriph_Driver/src/stm32f4xx_pwr.c:366: }
 366:../Libraries/STM32F4xx_StdPeriph_Driver/src/stm32f4xx_pwr.c **** }
 536              		.loc 1 366 1 view .LVU91
 537 0014 10BD     		pop	{r4, pc}	@
 538              	.L36:
 539 0016 00BF     		.align	2
 540              	.L35:
 541 0018 00000E42 		.word	1108213760
 542              		.cfi_endproc
 543              	.LFE117:
 544              		.size	PWR_FlashPowerDownCmd, .-PWR_FlashPowerDownCmd
 545              		.section	.text.PWR_EnterSTOPMode,"ax",%progbits
 546              		.align	1
 547              		.p2align 2,,3
 548              		.global	PWR_EnterSTOPMode
 549              		.syntax unified
 550              		.thumb
 551              		.thumb_func
 552              		.type	PWR_EnterSTOPMode, %function
 553              	PWR_EnterSTOPMode:
 554              	.LVL30:
 555              	.LFB118:
 367:../Libraries/STM32F4xx_StdPeriph_Driver/src/stm32f4xx_pwr.c **** 
 368:../Libraries/STM32F4xx_StdPeriph_Driver/src/stm32f4xx_pwr.c **** /**
 369:../Libraries/STM32F4xx_StdPeriph_Driver/src/stm32f4xx_pwr.c ****   * @}
 370:../Libraries/STM32F4xx_StdPeriph_Driver/src/stm32f4xx_pwr.c ****   */
 371:../Libraries/STM32F4xx_StdPeriph_Driver/src/stm32f4xx_pwr.c **** 
 372:../Libraries/STM32F4xx_StdPeriph_Driver/src/stm32f4xx_pwr.c **** /** @defgroup PWR_Group6 Low Power modes configuration functions
 373:../Libraries/STM32F4xx_StdPeriph_Driver/src/stm32f4xx_pwr.c ****  *  @brief   Low Power modes configuration functions 
 374:../Libraries/STM32F4xx_StdPeriph_Driver/src/stm32f4xx_pwr.c ****  *
 375:../Libraries/STM32F4xx_StdPeriph_Driver/src/stm32f4xx_pwr.c **** @verbatim   
 376:../Libraries/STM32F4xx_StdPeriph_Driver/src/stm32f4xx_pwr.c ****  ===============================================================================
 377:../Libraries/STM32F4xx_StdPeriph_Driver/src/stm32f4xx_pwr.c ****                     Low Power modes configuration functions
 378:../Libraries/STM32F4xx_StdPeriph_Driver/src/stm32f4xx_pwr.c ****  ===============================================================================  
 379:../Libraries/STM32F4xx_StdPeriph_Driver/src/stm32f4xx_pwr.c **** 
 380:../Libraries/STM32F4xx_StdPeriph_Driver/src/stm32f4xx_pwr.c ****   The devices feature 3 low-power modes:
 381:../Libraries/STM32F4xx_StdPeriph_Driver/src/stm32f4xx_pwr.c ****    - Sleep mode: Cortex-M4 core stopped, peripherals kept running.
 382:../Libraries/STM32F4xx_StdPeriph_Driver/src/stm32f4xx_pwr.c ****    - Stop mode: all clocks are stopped, regulator running, regulator in low power mode
 383:../Libraries/STM32F4xx_StdPeriph_Driver/src/stm32f4xx_pwr.c ****    - Standby mode: 1.2V domain powered off.
 384:../Libraries/STM32F4xx_StdPeriph_Driver/src/stm32f4xx_pwr.c ****    
 385:../Libraries/STM32F4xx_StdPeriph_Driver/src/stm32f4xx_pwr.c ****    Sleep mode
 386:../Libraries/STM32F4xx_StdPeriph_Driver/src/stm32f4xx_pwr.c ****    ===========
 387:../Libraries/STM32F4xx_StdPeriph_Driver/src/stm32f4xx_pwr.c ****     - Entry:
 388:../Libraries/STM32F4xx_StdPeriph_Driver/src/stm32f4xx_pwr.c ****       - The Sleep mode is entered by using the __WFI() or __WFE() functions.
 389:../Libraries/STM32F4xx_StdPeriph_Driver/src/stm32f4xx_pwr.c ****     - Exit:
 390:../Libraries/STM32F4xx_StdPeriph_Driver/src/stm32f4xx_pwr.c ****       - Any peripheral interrupt acknowledged by the nested vectored interrupt 
 391:../Libraries/STM32F4xx_StdPeriph_Driver/src/stm32f4xx_pwr.c ****         controller (NVIC) can wake up the device from Sleep mode.
 392:../Libraries/STM32F4xx_StdPeriph_Driver/src/stm32f4xx_pwr.c **** 
 393:../Libraries/STM32F4xx_StdPeriph_Driver/src/stm32f4xx_pwr.c ****    Stop mode
 394:../Libraries/STM32F4xx_StdPeriph_Driver/src/stm32f4xx_pwr.c ****    ==========
ARM GAS  C:\Users\admin\AppData\Local\Temp\cc9u7EuA.s 			page 18


 395:../Libraries/STM32F4xx_StdPeriph_Driver/src/stm32f4xx_pwr.c ****    In Stop mode, all clocks in the 1.2V domain are stopped, the PLL, the HSI,
 396:../Libraries/STM32F4xx_StdPeriph_Driver/src/stm32f4xx_pwr.c ****    and the HSE RC oscillators are disabled. Internal SRAM and register contents 
 397:../Libraries/STM32F4xx_StdPeriph_Driver/src/stm32f4xx_pwr.c ****    are preserved.
 398:../Libraries/STM32F4xx_StdPeriph_Driver/src/stm32f4xx_pwr.c ****    The voltage regulator can be configured either in normal or low-power mode.
 399:../Libraries/STM32F4xx_StdPeriph_Driver/src/stm32f4xx_pwr.c ****    To minimize the consumption In Stop mode, FLASH can be powered off before 
 400:../Libraries/STM32F4xx_StdPeriph_Driver/src/stm32f4xx_pwr.c ****    entering the Stop mode. It can be switched on again by software after exiting 
 401:../Libraries/STM32F4xx_StdPeriph_Driver/src/stm32f4xx_pwr.c ****    the Stop mode using the PWR_FlashPowerDownCmd() function. 
 402:../Libraries/STM32F4xx_StdPeriph_Driver/src/stm32f4xx_pwr.c ****    
 403:../Libraries/STM32F4xx_StdPeriph_Driver/src/stm32f4xx_pwr.c ****     - Entry:
 404:../Libraries/STM32F4xx_StdPeriph_Driver/src/stm32f4xx_pwr.c ****       - The Stop mode is entered using the PWR_EnterSTOPMode(PWR_Regulator_LowPower,) 
 405:../Libraries/STM32F4xx_StdPeriph_Driver/src/stm32f4xx_pwr.c ****         function with regulator in LowPower or with Regulator ON.
 406:../Libraries/STM32F4xx_StdPeriph_Driver/src/stm32f4xx_pwr.c ****     - Exit:
 407:../Libraries/STM32F4xx_StdPeriph_Driver/src/stm32f4xx_pwr.c ****       - Any EXTI Line (Internal or External) configured in Interrupt/Event mode.
 408:../Libraries/STM32F4xx_StdPeriph_Driver/src/stm32f4xx_pwr.c ****       
 409:../Libraries/STM32F4xx_StdPeriph_Driver/src/stm32f4xx_pwr.c ****    Standby mode
 410:../Libraries/STM32F4xx_StdPeriph_Driver/src/stm32f4xx_pwr.c ****    ============
 411:../Libraries/STM32F4xx_StdPeriph_Driver/src/stm32f4xx_pwr.c ****    The Standby mode allows to achieve the lowest power consumption. It is based 
 412:../Libraries/STM32F4xx_StdPeriph_Driver/src/stm32f4xx_pwr.c ****    on the Cortex-M4 deepsleep mode, with the voltage regulator disabled. 
 413:../Libraries/STM32F4xx_StdPeriph_Driver/src/stm32f4xx_pwr.c ****    The 1.2V domain is consequently powered off. The PLL, the HSI oscillator and 
 414:../Libraries/STM32F4xx_StdPeriph_Driver/src/stm32f4xx_pwr.c ****    the HSE oscillator are also switched off. SRAM and register contents are lost 
 415:../Libraries/STM32F4xx_StdPeriph_Driver/src/stm32f4xx_pwr.c ****    except for the RTC registers, RTC backup registers, backup SRAM and Standby 
 416:../Libraries/STM32F4xx_StdPeriph_Driver/src/stm32f4xx_pwr.c ****    circuitry.
 417:../Libraries/STM32F4xx_StdPeriph_Driver/src/stm32f4xx_pwr.c ****    
 418:../Libraries/STM32F4xx_StdPeriph_Driver/src/stm32f4xx_pwr.c ****    The voltage regulator is OFF.
 419:../Libraries/STM32F4xx_StdPeriph_Driver/src/stm32f4xx_pwr.c ****       
 420:../Libraries/STM32F4xx_StdPeriph_Driver/src/stm32f4xx_pwr.c ****     - Entry:
 421:../Libraries/STM32F4xx_StdPeriph_Driver/src/stm32f4xx_pwr.c ****       - The Standby mode is entered using the PWR_EnterSTANDBYMode() function.
 422:../Libraries/STM32F4xx_StdPeriph_Driver/src/stm32f4xx_pwr.c ****     - Exit:
 423:../Libraries/STM32F4xx_StdPeriph_Driver/src/stm32f4xx_pwr.c ****       - WKUP pin rising edge, RTC alarm (Alarm A and Alarm B), RTC wakeup,
 424:../Libraries/STM32F4xx_StdPeriph_Driver/src/stm32f4xx_pwr.c ****         tamper event, time-stamp event, external reset in NRST pin, IWDG reset.              
 425:../Libraries/STM32F4xx_StdPeriph_Driver/src/stm32f4xx_pwr.c **** 
 426:../Libraries/STM32F4xx_StdPeriph_Driver/src/stm32f4xx_pwr.c ****    Auto-wakeup (AWU) from low-power mode
 427:../Libraries/STM32F4xx_StdPeriph_Driver/src/stm32f4xx_pwr.c ****    =====================================
 428:../Libraries/STM32F4xx_StdPeriph_Driver/src/stm32f4xx_pwr.c ****    The MCU can be woken up from low-power mode by an RTC Alarm event, an RTC 
 429:../Libraries/STM32F4xx_StdPeriph_Driver/src/stm32f4xx_pwr.c ****    Wakeup event, a tamper event, a time-stamp event, or a comparator event, 
 430:../Libraries/STM32F4xx_StdPeriph_Driver/src/stm32f4xx_pwr.c ****    without depending on an external interrupt (Auto-wakeup mode).
 431:../Libraries/STM32F4xx_StdPeriph_Driver/src/stm32f4xx_pwr.c **** 
 432:../Libraries/STM32F4xx_StdPeriph_Driver/src/stm32f4xx_pwr.c ****    - RTC auto-wakeup (AWU) from the Stop mode
 433:../Libraries/STM32F4xx_StdPeriph_Driver/src/stm32f4xx_pwr.c ****      ----------------------------------------
 434:../Libraries/STM32F4xx_StdPeriph_Driver/src/stm32f4xx_pwr.c ****      
 435:../Libraries/STM32F4xx_StdPeriph_Driver/src/stm32f4xx_pwr.c ****      - To wake up from the Stop mode with an RTC alarm event, it is necessary to:
 436:../Libraries/STM32F4xx_StdPeriph_Driver/src/stm32f4xx_pwr.c ****        - Configure the EXTI Line 17 to be sensitive to rising edges (Interrupt 
 437:../Libraries/STM32F4xx_StdPeriph_Driver/src/stm32f4xx_pwr.c ****          or Event modes) using the EXTI_Init() function.
 438:../Libraries/STM32F4xx_StdPeriph_Driver/src/stm32f4xx_pwr.c ****        - Enable the RTC Alarm Interrupt using the RTC_ITConfig() function
 439:../Libraries/STM32F4xx_StdPeriph_Driver/src/stm32f4xx_pwr.c ****        - Configure the RTC to generate the RTC alarm using the RTC_SetAlarm() 
 440:../Libraries/STM32F4xx_StdPeriph_Driver/src/stm32f4xx_pwr.c ****          and RTC_AlarmCmd() functions.
 441:../Libraries/STM32F4xx_StdPeriph_Driver/src/stm32f4xx_pwr.c ****      - To wake up from the Stop mode with an RTC Tamper or time stamp event, it 
 442:../Libraries/STM32F4xx_StdPeriph_Driver/src/stm32f4xx_pwr.c ****        is necessary to:
 443:../Libraries/STM32F4xx_StdPeriph_Driver/src/stm32f4xx_pwr.c ****        - Configure the EXTI Line 21 to be sensitive to rising edges (Interrupt 
 444:../Libraries/STM32F4xx_StdPeriph_Driver/src/stm32f4xx_pwr.c ****          or Event modes) using the EXTI_Init() function.
 445:../Libraries/STM32F4xx_StdPeriph_Driver/src/stm32f4xx_pwr.c ****        - Enable the RTC Tamper or time stamp Interrupt using the RTC_ITConfig() 
 446:../Libraries/STM32F4xx_StdPeriph_Driver/src/stm32f4xx_pwr.c ****          function
 447:../Libraries/STM32F4xx_StdPeriph_Driver/src/stm32f4xx_pwr.c ****        - Configure the RTC to detect the tamper or time stamp event using the
 448:../Libraries/STM32F4xx_StdPeriph_Driver/src/stm32f4xx_pwr.c ****          RTC_TimeStampConfig(), RTC_TamperTriggerConfig() and RTC_TamperCmd()
 449:../Libraries/STM32F4xx_StdPeriph_Driver/src/stm32f4xx_pwr.c ****          functions.
 450:../Libraries/STM32F4xx_StdPeriph_Driver/src/stm32f4xx_pwr.c ****      - To wake up from the Stop mode with an RTC WakeUp event, it is necessary to:
 451:../Libraries/STM32F4xx_StdPeriph_Driver/src/stm32f4xx_pwr.c ****        - Configure the EXTI Line 22 to be sensitive to rising edges (Interrupt 
ARM GAS  C:\Users\admin\AppData\Local\Temp\cc9u7EuA.s 			page 19


 452:../Libraries/STM32F4xx_StdPeriph_Driver/src/stm32f4xx_pwr.c ****          or Event modes) using the EXTI_Init() function.
 453:../Libraries/STM32F4xx_StdPeriph_Driver/src/stm32f4xx_pwr.c ****        - Enable the RTC WakeUp Interrupt using the RTC_ITConfig() function
 454:../Libraries/STM32F4xx_StdPeriph_Driver/src/stm32f4xx_pwr.c ****        - Configure the RTC to generate the RTC WakeUp event using the RTC_WakeUpClockConfig(), 
 455:../Libraries/STM32F4xx_StdPeriph_Driver/src/stm32f4xx_pwr.c ****          RTC_SetWakeUpCounter() and RTC_WakeUpCmd() functions.
 456:../Libraries/STM32F4xx_StdPeriph_Driver/src/stm32f4xx_pwr.c **** 
 457:../Libraries/STM32F4xx_StdPeriph_Driver/src/stm32f4xx_pwr.c ****    - RTC auto-wakeup (AWU) from the Standby mode
 458:../Libraries/STM32F4xx_StdPeriph_Driver/src/stm32f4xx_pwr.c ****      -------------------------------------------
 459:../Libraries/STM32F4xx_StdPeriph_Driver/src/stm32f4xx_pwr.c ****      - To wake up from the Standby mode with an RTC alarm event, it is necessary to:
 460:../Libraries/STM32F4xx_StdPeriph_Driver/src/stm32f4xx_pwr.c ****        - Enable the RTC Alarm Interrupt using the RTC_ITConfig() function
 461:../Libraries/STM32F4xx_StdPeriph_Driver/src/stm32f4xx_pwr.c ****        - Configure the RTC to generate the RTC alarm using the RTC_SetAlarm() 
 462:../Libraries/STM32F4xx_StdPeriph_Driver/src/stm32f4xx_pwr.c ****          and RTC_AlarmCmd() functions.
 463:../Libraries/STM32F4xx_StdPeriph_Driver/src/stm32f4xx_pwr.c ****      - To wake up from the Standby mode with an RTC Tamper or time stamp event, it 
 464:../Libraries/STM32F4xx_StdPeriph_Driver/src/stm32f4xx_pwr.c ****        is necessary to:
 465:../Libraries/STM32F4xx_StdPeriph_Driver/src/stm32f4xx_pwr.c ****        - Enable the RTC Tamper or time stamp Interrupt using the RTC_ITConfig() 
 466:../Libraries/STM32F4xx_StdPeriph_Driver/src/stm32f4xx_pwr.c ****          function
 467:../Libraries/STM32F4xx_StdPeriph_Driver/src/stm32f4xx_pwr.c ****        - Configure the RTC to detect the tamper or time stamp event using the
 468:../Libraries/STM32F4xx_StdPeriph_Driver/src/stm32f4xx_pwr.c ****          RTC_TimeStampConfig(), RTC_TamperTriggerConfig() and RTC_TamperCmd()
 469:../Libraries/STM32F4xx_StdPeriph_Driver/src/stm32f4xx_pwr.c ****          functions.
 470:../Libraries/STM32F4xx_StdPeriph_Driver/src/stm32f4xx_pwr.c ****      - To wake up from the Standby mode with an RTC WakeUp event, it is necessary to:
 471:../Libraries/STM32F4xx_StdPeriph_Driver/src/stm32f4xx_pwr.c ****        - Enable the RTC WakeUp Interrupt using the RTC_ITConfig() function
 472:../Libraries/STM32F4xx_StdPeriph_Driver/src/stm32f4xx_pwr.c ****        - Configure the RTC to generate the RTC WakeUp event using the RTC_WakeUpClockConfig(), 
 473:../Libraries/STM32F4xx_StdPeriph_Driver/src/stm32f4xx_pwr.c ****          RTC_SetWakeUpCounter() and RTC_WakeUpCmd() functions.
 474:../Libraries/STM32F4xx_StdPeriph_Driver/src/stm32f4xx_pwr.c **** 
 475:../Libraries/STM32F4xx_StdPeriph_Driver/src/stm32f4xx_pwr.c **** @endverbatim
 476:../Libraries/STM32F4xx_StdPeriph_Driver/src/stm32f4xx_pwr.c ****   * @{
 477:../Libraries/STM32F4xx_StdPeriph_Driver/src/stm32f4xx_pwr.c ****   */
 478:../Libraries/STM32F4xx_StdPeriph_Driver/src/stm32f4xx_pwr.c **** 
 479:../Libraries/STM32F4xx_StdPeriph_Driver/src/stm32f4xx_pwr.c **** /**
 480:../Libraries/STM32F4xx_StdPeriph_Driver/src/stm32f4xx_pwr.c ****   * @brief  Enters STOP mode.
 481:../Libraries/STM32F4xx_StdPeriph_Driver/src/stm32f4xx_pwr.c ****   *   
 482:../Libraries/STM32F4xx_StdPeriph_Driver/src/stm32f4xx_pwr.c ****   * @note   In Stop mode, all I/O pins keep the same state as in Run mode.
 483:../Libraries/STM32F4xx_StdPeriph_Driver/src/stm32f4xx_pwr.c ****   * @note   When exiting Stop mode by issuing an interrupt or a wakeup event, 
 484:../Libraries/STM32F4xx_StdPeriph_Driver/src/stm32f4xx_pwr.c ****   *         the HSI RC oscillator is selected as system clock.
 485:../Libraries/STM32F4xx_StdPeriph_Driver/src/stm32f4xx_pwr.c ****   * @note   When the voltage regulator operates in low power mode, an additional 
 486:../Libraries/STM32F4xx_StdPeriph_Driver/src/stm32f4xx_pwr.c ****   *         startup delay is incurred when waking up from Stop mode. 
 487:../Libraries/STM32F4xx_StdPeriph_Driver/src/stm32f4xx_pwr.c ****   *         By keeping the internal regulator ON during Stop mode, the consumption 
 488:../Libraries/STM32F4xx_StdPeriph_Driver/src/stm32f4xx_pwr.c ****   *         is higher although the startup time is reduced.           
 489:../Libraries/STM32F4xx_StdPeriph_Driver/src/stm32f4xx_pwr.c ****   *     
 490:../Libraries/STM32F4xx_StdPeriph_Driver/src/stm32f4xx_pwr.c ****   * @param  PWR_Regulator: specifies the regulator state in STOP mode.
 491:../Libraries/STM32F4xx_StdPeriph_Driver/src/stm32f4xx_pwr.c ****   *          This parameter can be one of the following values:
 492:../Libraries/STM32F4xx_StdPeriph_Driver/src/stm32f4xx_pwr.c ****   *            @arg PWR_Regulator_ON: STOP mode with regulator ON
 493:../Libraries/STM32F4xx_StdPeriph_Driver/src/stm32f4xx_pwr.c ****   *            @arg PWR_Regulator_LowPower: STOP mode with regulator in low power mode
 494:../Libraries/STM32F4xx_StdPeriph_Driver/src/stm32f4xx_pwr.c ****   * @param  PWR_STOPEntry: specifies if STOP mode in entered with WFI or WFE instruction.
 495:../Libraries/STM32F4xx_StdPeriph_Driver/src/stm32f4xx_pwr.c ****   *          This parameter can be one of the following values:
 496:../Libraries/STM32F4xx_StdPeriph_Driver/src/stm32f4xx_pwr.c ****   *            @arg PWR_STOPEntry_WFI: enter STOP mode with WFI instruction
 497:../Libraries/STM32F4xx_StdPeriph_Driver/src/stm32f4xx_pwr.c ****   *            @arg PWR_STOPEntry_WFE: enter STOP mode with WFE instruction
 498:../Libraries/STM32F4xx_StdPeriph_Driver/src/stm32f4xx_pwr.c ****   * @retval None
 499:../Libraries/STM32F4xx_StdPeriph_Driver/src/stm32f4xx_pwr.c ****   */
 500:../Libraries/STM32F4xx_StdPeriph_Driver/src/stm32f4xx_pwr.c **** void PWR_EnterSTOPMode(uint32_t PWR_Regulator, uint8_t PWR_STOPEntry)
 501:../Libraries/STM32F4xx_StdPeriph_Driver/src/stm32f4xx_pwr.c **** {
 556              		.loc 1 501 1 is_stmt 1 view -0
 557              		.cfi_startproc
 558              		@ args = 0, pretend = 0, frame = 0
 559              		@ frame_needed = 0, uses_anonymous_args = 0
 502:../Libraries/STM32F4xx_StdPeriph_Driver/src/stm32f4xx_pwr.c ****   uint32_t tmpreg = 0;
 560              		.loc 1 502 3 view .LVU93
 503:../Libraries/STM32F4xx_StdPeriph_Driver/src/stm32f4xx_pwr.c ****   
ARM GAS  C:\Users\admin\AppData\Local\Temp\cc9u7EuA.s 			page 20


 504:../Libraries/STM32F4xx_StdPeriph_Driver/src/stm32f4xx_pwr.c ****   /* Check the parameters */
 505:../Libraries/STM32F4xx_StdPeriph_Driver/src/stm32f4xx_pwr.c ****   assert_param(IS_PWR_REGULATOR(PWR_Regulator));
 561              		.loc 1 505 3 view .LVU94
 562 0000 0128     		cmp	r0, #1	@ PWR_Regulator,
 563              	@ ../Libraries/STM32F4xx_StdPeriph_Driver/src/stm32f4xx_pwr.c:501: {
 501:../Libraries/STM32F4xx_StdPeriph_Driver/src/stm32f4xx_pwr.c ****   uint32_t tmpreg = 0;
 564              		.loc 1 501 1 is_stmt 0 view .LVU95
 565 0002 38B5     		push	{r3, r4, r5, lr}	@
 566              		.cfi_def_cfa_offset 16
 567              		.cfi_offset 3, -16
 568              		.cfi_offset 4, -12
 569              		.cfi_offset 5, -8
 570              		.cfi_offset 14, -4
 571              	@ ../Libraries/STM32F4xx_StdPeriph_Driver/src/stm32f4xx_pwr.c:501: {
 501:../Libraries/STM32F4xx_StdPeriph_Driver/src/stm32f4xx_pwr.c ****   uint32_t tmpreg = 0;
 572              		.loc 1 501 1 view .LVU96
 573 0004 0446     		mov	r4, r0	@ PWR_Regulator, tmp141
 574 0006 0D46     		mov	r5, r1	@ PWR_STOPEntry, tmp142
 575              	@ ../Libraries/STM32F4xx_StdPeriph_Driver/src/stm32f4xx_pwr.c:505:   assert_param(IS_PWR_REGULATOR(
 576              		.loc 1 505 3 view .LVU97
 577 0008 8CBF     		ite	hi
 578 000a 0020     		movhi	r0, #0	@,
 579              	.LVL31:
 580              		.loc 1 505 3 view .LVU98
 581 000c 0120     		movls	r0, #1	@,
 582 000e FFF7FEFF 		bl	assert_param		@
 583              	.LVL32:
 506:../Libraries/STM32F4xx_StdPeriph_Driver/src/stm32f4xx_pwr.c ****   assert_param(IS_PWR_STOP_ENTRY(PWR_STOPEntry));
 584              		.loc 1 506 3 is_stmt 1 view .LVU99
 585 0012 681E     		subs	r0, r5, #1	@ tmp133, PWR_STOPEntry,
 586 0014 0128     		cmp	r0, #1	@ tmp133,
 587 0016 8CBF     		ite	hi
 588 0018 0020     		movhi	r0, #0	@,
 589 001a 0120     		movls	r0, #1	@,
 590 001c FFF7FEFF 		bl	assert_param		@
 591              	.LVL33:
 507:../Libraries/STM32F4xx_StdPeriph_Driver/src/stm32f4xx_pwr.c ****   
 508:../Libraries/STM32F4xx_StdPeriph_Driver/src/stm32f4xx_pwr.c ****   /* Select the regulator state in STOP mode ---------------------------------*/
 509:../Libraries/STM32F4xx_StdPeriph_Driver/src/stm32f4xx_pwr.c ****   tmpreg = PWR->CR;
 592              		.loc 1 509 3 view .LVU100
 593              	@ ../Libraries/STM32F4xx_StdPeriph_Driver/src/stm32f4xx_pwr.c:509:   tmpreg = PWR->CR;
 594              		.loc 1 509 10 is_stmt 0 view .LVU101
 595 0020 0A4B     		ldr	r3, .L42	@ tmp135,
 596              	@ ../Libraries/STM32F4xx_StdPeriph_Driver/src/stm32f4xx_pwr.c:520:   SCB->SCR |= SCB_SCR_SLEEPDEEP_
 510:../Libraries/STM32F4xx_StdPeriph_Driver/src/stm32f4xx_pwr.c ****   /* Clear PDDS and LPDSR bits */
 511:../Libraries/STM32F4xx_StdPeriph_Driver/src/stm32f4xx_pwr.c ****   tmpreg &= CR_DS_MASK;
 512:../Libraries/STM32F4xx_StdPeriph_Driver/src/stm32f4xx_pwr.c ****   
 513:../Libraries/STM32F4xx_StdPeriph_Driver/src/stm32f4xx_pwr.c ****   /* Set LPDSR bit according to PWR_Regulator value */
 514:../Libraries/STM32F4xx_StdPeriph_Driver/src/stm32f4xx_pwr.c ****   tmpreg |= PWR_Regulator;
 515:../Libraries/STM32F4xx_StdPeriph_Driver/src/stm32f4xx_pwr.c ****   
 516:../Libraries/STM32F4xx_StdPeriph_Driver/src/stm32f4xx_pwr.c ****   /* Store the new value */
 517:../Libraries/STM32F4xx_StdPeriph_Driver/src/stm32f4xx_pwr.c ****   PWR->CR = tmpreg;
 518:../Libraries/STM32F4xx_StdPeriph_Driver/src/stm32f4xx_pwr.c ****   
 519:../Libraries/STM32F4xx_StdPeriph_Driver/src/stm32f4xx_pwr.c ****   /* Set SLEEPDEEP bit of Cortex System Control Register */
 520:../Libraries/STM32F4xx_StdPeriph_Driver/src/stm32f4xx_pwr.c ****   SCB->SCR |= SCB_SCR_SLEEPDEEP_Msk;
 597              		.loc 1 520 12 view .LVU102
 598 0022 0B4A     		ldr	r2, .L42+4	@ tmp137,
ARM GAS  C:\Users\admin\AppData\Local\Temp\cc9u7EuA.s 			page 21


 599              	@ ../Libraries/STM32F4xx_StdPeriph_Driver/src/stm32f4xx_pwr.c:509:   tmpreg = PWR->CR;
 509:../Libraries/STM32F4xx_StdPeriph_Driver/src/stm32f4xx_pwr.c ****   /* Clear PDDS and LPDSR bits */
 600              		.loc 1 509 10 view .LVU103
 601 0024 1868     		ldr	r0, [r3]	@ tmpreg, MEM[(struct PWR_TypeDef *)1073770496B].CR
 602              	.LVL34:
 511:../Libraries/STM32F4xx_StdPeriph_Driver/src/stm32f4xx_pwr.c ****   
 603              		.loc 1 511 3 is_stmt 1 view .LVU104
 604              	@ ../Libraries/STM32F4xx_StdPeriph_Driver/src/stm32f4xx_pwr.c:511:   tmpreg &= CR_DS_MASK;
 511:../Libraries/STM32F4xx_StdPeriph_Driver/src/stm32f4xx_pwr.c ****   
 605              		.loc 1 511 10 is_stmt 0 view .LVU105
 606 0026 20F00300 		bic	r0, r0, #3	@ tmpreg, tmpreg,
 607              	.LVL35:
 514:../Libraries/STM32F4xx_StdPeriph_Driver/src/stm32f4xx_pwr.c ****   
 608              		.loc 1 514 3 is_stmt 1 view .LVU106
 609              	@ ../Libraries/STM32F4xx_StdPeriph_Driver/src/stm32f4xx_pwr.c:514:   tmpreg |= PWR_Regulator;
 514:../Libraries/STM32F4xx_StdPeriph_Driver/src/stm32f4xx_pwr.c ****   
 610              		.loc 1 514 10 is_stmt 0 view .LVU107
 611 002a 0443     		orrs	r4, r4, r0	@, tmpreg, PWR_Regulator, tmpreg
 612              	.LVL36:
 517:../Libraries/STM32F4xx_StdPeriph_Driver/src/stm32f4xx_pwr.c ****   
 613              		.loc 1 517 3 is_stmt 1 view .LVU108
 614              	@ ../Libraries/STM32F4xx_StdPeriph_Driver/src/stm32f4xx_pwr.c:517:   PWR->CR = tmpreg;
 517:../Libraries/STM32F4xx_StdPeriph_Driver/src/stm32f4xx_pwr.c ****   
 615              		.loc 1 517 11 is_stmt 0 view .LVU109
 616 002c 1C60     		str	r4, [r3]	@ tmpreg, MEM[(struct PWR_TypeDef *)1073770496B].CR
 617              		.loc 1 520 3 is_stmt 1 view .LVU110
 618              	@ ../Libraries/STM32F4xx_StdPeriph_Driver/src/stm32f4xx_pwr.c:520:   SCB->SCR |= SCB_SCR_SLEEPDEEP_
 619              		.loc 1 520 12 is_stmt 0 view .LVU111
 620 002e 1369     		ldr	r3, [r2, #16]	@ _6, MEM[(struct SCB_Type *)3758157056B].SCR
 621              	@ ../Libraries/STM32F4xx_StdPeriph_Driver/src/stm32f4xx_pwr.c:523:   if(PWR_STOPEntry == PWR_STOPEn
 521:../Libraries/STM32F4xx_StdPeriph_Driver/src/stm32f4xx_pwr.c ****   
 522:../Libraries/STM32F4xx_StdPeriph_Driver/src/stm32f4xx_pwr.c ****   /* Select STOP mode entry --------------------------------------------------*/
 523:../Libraries/STM32F4xx_StdPeriph_Driver/src/stm32f4xx_pwr.c ****   if(PWR_STOPEntry == PWR_STOPEntry_WFI)
 622              		.loc 1 523 5 view .LVU112
 623 0030 012D     		cmp	r5, #1	@ PWR_STOPEntry,
 624              	@ ../Libraries/STM32F4xx_StdPeriph_Driver/src/stm32f4xx_pwr.c:520:   SCB->SCR |= SCB_SCR_SLEEPDEEP_
 520:../Libraries/STM32F4xx_StdPeriph_Driver/src/stm32f4xx_pwr.c ****   
 625              		.loc 1 520 12 view .LVU113
 626 0032 43F00403 		orr	r3, r3, #4	@ _7, _6,
 627 0036 1361     		str	r3, [r2, #16]	@ _7, MEM[(struct SCB_Type *)3758157056B].SCR
 628              		.loc 1 523 3 is_stmt 1 view .LVU114
 629              	@ ../Libraries/STM32F4xx_StdPeriph_Driver/src/stm32f4xx_pwr.c:523:   if(PWR_STOPEntry == PWR_STOPEn
 630              		.loc 1 523 5 is_stmt 0 view .LVU115
 631 0038 06D0     		beq	.L41		@,
 524:../Libraries/STM32F4xx_StdPeriph_Driver/src/stm32f4xx_pwr.c ****   {   
 525:../Libraries/STM32F4xx_StdPeriph_Driver/src/stm32f4xx_pwr.c ****     /* Request Wait For Interrupt */
 526:../Libraries/STM32F4xx_StdPeriph_Driver/src/stm32f4xx_pwr.c ****     __WFI();
 527:../Libraries/STM32F4xx_StdPeriph_Driver/src/stm32f4xx_pwr.c ****   }
 528:../Libraries/STM32F4xx_StdPeriph_Driver/src/stm32f4xx_pwr.c ****   else
 529:../Libraries/STM32F4xx_StdPeriph_Driver/src/stm32f4xx_pwr.c ****   {
 530:../Libraries/STM32F4xx_StdPeriph_Driver/src/stm32f4xx_pwr.c ****     /* Request Wait For Event */
 531:../Libraries/STM32F4xx_StdPeriph_Driver/src/stm32f4xx_pwr.c ****     __WFE();
 632              		.loc 1 531 5 is_stmt 1 view .LVU116
 633              	.LBB8:
 634              	.LBI8:
 635              		.file 2 "../Libraries/CMSIS/Include/core_cmInstr.h"
   1:../Libraries/CMSIS/Include/core_cmInstr.h **** /**************************************************************************//**
ARM GAS  C:\Users\admin\AppData\Local\Temp\cc9u7EuA.s 			page 22


   2:../Libraries/CMSIS/Include/core_cmInstr.h ****  * @file     core_cmInstr.h
   3:../Libraries/CMSIS/Include/core_cmInstr.h ****  * @brief    CMSIS Cortex-M Core Instruction Access Header File
   4:../Libraries/CMSIS/Include/core_cmInstr.h ****  * @version  V2.10
   5:../Libraries/CMSIS/Include/core_cmInstr.h ****  * @date     19. July 2011
   6:../Libraries/CMSIS/Include/core_cmInstr.h ****  *
   7:../Libraries/CMSIS/Include/core_cmInstr.h ****  * @note
   8:../Libraries/CMSIS/Include/core_cmInstr.h ****  * Copyright (C) 2009-2011 ARM Limited. All rights reserved.
   9:../Libraries/CMSIS/Include/core_cmInstr.h ****  *
  10:../Libraries/CMSIS/Include/core_cmInstr.h ****  * @par
  11:../Libraries/CMSIS/Include/core_cmInstr.h ****  * ARM Limited (ARM) is supplying this software for use with Cortex-M 
  12:../Libraries/CMSIS/Include/core_cmInstr.h ****  * processor based microcontrollers.  This file can be freely distributed 
  13:../Libraries/CMSIS/Include/core_cmInstr.h ****  * within development tools that are supporting such ARM based processors. 
  14:../Libraries/CMSIS/Include/core_cmInstr.h ****  *
  15:../Libraries/CMSIS/Include/core_cmInstr.h ****  * @par
  16:../Libraries/CMSIS/Include/core_cmInstr.h ****  * THIS SOFTWARE IS PROVIDED "AS IS".  NO WARRANTIES, WHETHER EXPRESS, IMPLIED
  17:../Libraries/CMSIS/Include/core_cmInstr.h ****  * OR STATUTORY, INCLUDING, BUT NOT LIMITED TO, IMPLIED WARRANTIES OF
  18:../Libraries/CMSIS/Include/core_cmInstr.h ****  * MERCHANTABILITY AND FITNESS FOR A PARTICULAR PURPOSE APPLY TO THIS SOFTWARE.
  19:../Libraries/CMSIS/Include/core_cmInstr.h ****  * ARM SHALL NOT, IN ANY CIRCUMSTANCES, BE LIABLE FOR SPECIAL, INCIDENTAL, OR
  20:../Libraries/CMSIS/Include/core_cmInstr.h ****  * CONSEQUENTIAL DAMAGES, FOR ANY REASON WHATSOEVER.
  21:../Libraries/CMSIS/Include/core_cmInstr.h ****  *
  22:../Libraries/CMSIS/Include/core_cmInstr.h ****  ******************************************************************************/
  23:../Libraries/CMSIS/Include/core_cmInstr.h **** 
  24:../Libraries/CMSIS/Include/core_cmInstr.h **** #ifndef __CORE_CMINSTR_H
  25:../Libraries/CMSIS/Include/core_cmInstr.h **** #define __CORE_CMINSTR_H
  26:../Libraries/CMSIS/Include/core_cmInstr.h **** 
  27:../Libraries/CMSIS/Include/core_cmInstr.h **** 
  28:../Libraries/CMSIS/Include/core_cmInstr.h **** /* ##########################  Core Instruction Access  ######################### */
  29:../Libraries/CMSIS/Include/core_cmInstr.h **** /** \defgroup CMSIS_Core_InstructionInterface CMSIS Core Instruction Interface
  30:../Libraries/CMSIS/Include/core_cmInstr.h ****   Access to dedicated instructions
  31:../Libraries/CMSIS/Include/core_cmInstr.h ****   @{
  32:../Libraries/CMSIS/Include/core_cmInstr.h **** */
  33:../Libraries/CMSIS/Include/core_cmInstr.h **** 
  34:../Libraries/CMSIS/Include/core_cmInstr.h **** #if   defined ( __CC_ARM ) /*------------------RealView Compiler -----------------*/
  35:../Libraries/CMSIS/Include/core_cmInstr.h **** /* ARM armcc specific functions */
  36:../Libraries/CMSIS/Include/core_cmInstr.h **** 
  37:../Libraries/CMSIS/Include/core_cmInstr.h **** #if (__ARMCC_VERSION < 400677)
  38:../Libraries/CMSIS/Include/core_cmInstr.h ****   #error "Please use ARM Compiler Toolchain V4.0.677 or later!"
  39:../Libraries/CMSIS/Include/core_cmInstr.h **** #endif
  40:../Libraries/CMSIS/Include/core_cmInstr.h **** 
  41:../Libraries/CMSIS/Include/core_cmInstr.h **** 
  42:../Libraries/CMSIS/Include/core_cmInstr.h **** /** \brief  No Operation
  43:../Libraries/CMSIS/Include/core_cmInstr.h **** 
  44:../Libraries/CMSIS/Include/core_cmInstr.h ****     No Operation does nothing. This instruction can be used for code alignment purposes.
  45:../Libraries/CMSIS/Include/core_cmInstr.h ****  */
  46:../Libraries/CMSIS/Include/core_cmInstr.h **** #define __NOP                             __nop
  47:../Libraries/CMSIS/Include/core_cmInstr.h **** 
  48:../Libraries/CMSIS/Include/core_cmInstr.h **** 
  49:../Libraries/CMSIS/Include/core_cmInstr.h **** /** \brief  Wait For Interrupt
  50:../Libraries/CMSIS/Include/core_cmInstr.h **** 
  51:../Libraries/CMSIS/Include/core_cmInstr.h ****     Wait For Interrupt is a hint instruction that suspends execution
  52:../Libraries/CMSIS/Include/core_cmInstr.h ****     until one of a number of events occurs.
  53:../Libraries/CMSIS/Include/core_cmInstr.h ****  */
  54:../Libraries/CMSIS/Include/core_cmInstr.h **** #define __WFI                             __wfi
  55:../Libraries/CMSIS/Include/core_cmInstr.h **** 
  56:../Libraries/CMSIS/Include/core_cmInstr.h **** 
  57:../Libraries/CMSIS/Include/core_cmInstr.h **** /** \brief  Wait For Event
  58:../Libraries/CMSIS/Include/core_cmInstr.h **** 
ARM GAS  C:\Users\admin\AppData\Local\Temp\cc9u7EuA.s 			page 23


  59:../Libraries/CMSIS/Include/core_cmInstr.h ****     Wait For Event is a hint instruction that permits the processor to enter
  60:../Libraries/CMSIS/Include/core_cmInstr.h ****     a low-power state until one of a number of events occurs.
  61:../Libraries/CMSIS/Include/core_cmInstr.h ****  */
  62:../Libraries/CMSIS/Include/core_cmInstr.h **** #define __WFE                             __wfe
  63:../Libraries/CMSIS/Include/core_cmInstr.h **** 
  64:../Libraries/CMSIS/Include/core_cmInstr.h **** 
  65:../Libraries/CMSIS/Include/core_cmInstr.h **** /** \brief  Send Event
  66:../Libraries/CMSIS/Include/core_cmInstr.h **** 
  67:../Libraries/CMSIS/Include/core_cmInstr.h ****     Send Event is a hint instruction. It causes an event to be signaled to the CPU.
  68:../Libraries/CMSIS/Include/core_cmInstr.h ****  */
  69:../Libraries/CMSIS/Include/core_cmInstr.h **** #define __SEV                             __sev
  70:../Libraries/CMSIS/Include/core_cmInstr.h **** 
  71:../Libraries/CMSIS/Include/core_cmInstr.h **** 
  72:../Libraries/CMSIS/Include/core_cmInstr.h **** /** \brief  Instruction Synchronization Barrier
  73:../Libraries/CMSIS/Include/core_cmInstr.h **** 
  74:../Libraries/CMSIS/Include/core_cmInstr.h ****     Instruction Synchronization Barrier flushes the pipeline in the processor, 
  75:../Libraries/CMSIS/Include/core_cmInstr.h ****     so that all instructions following the ISB are fetched from cache or 
  76:../Libraries/CMSIS/Include/core_cmInstr.h ****     memory, after the instruction has been completed.
  77:../Libraries/CMSIS/Include/core_cmInstr.h ****  */
  78:../Libraries/CMSIS/Include/core_cmInstr.h **** #define __ISB()                           __isb(0xF)
  79:../Libraries/CMSIS/Include/core_cmInstr.h **** 
  80:../Libraries/CMSIS/Include/core_cmInstr.h **** 
  81:../Libraries/CMSIS/Include/core_cmInstr.h **** /** \brief  Data Synchronization Barrier
  82:../Libraries/CMSIS/Include/core_cmInstr.h **** 
  83:../Libraries/CMSIS/Include/core_cmInstr.h ****     This function acts as a special kind of Data Memory Barrier. 
  84:../Libraries/CMSIS/Include/core_cmInstr.h ****     It completes when all explicit memory accesses before this instruction complete.
  85:../Libraries/CMSIS/Include/core_cmInstr.h ****  */
  86:../Libraries/CMSIS/Include/core_cmInstr.h **** #define __DSB()                           __dsb(0xF)
  87:../Libraries/CMSIS/Include/core_cmInstr.h **** 
  88:../Libraries/CMSIS/Include/core_cmInstr.h **** 
  89:../Libraries/CMSIS/Include/core_cmInstr.h **** /** \brief  Data Memory Barrier
  90:../Libraries/CMSIS/Include/core_cmInstr.h **** 
  91:../Libraries/CMSIS/Include/core_cmInstr.h ****     This function ensures the apparent order of the explicit memory operations before 
  92:../Libraries/CMSIS/Include/core_cmInstr.h ****     and after the instruction, without ensuring their completion.
  93:../Libraries/CMSIS/Include/core_cmInstr.h ****  */
  94:../Libraries/CMSIS/Include/core_cmInstr.h **** #define __DMB()                           __dmb(0xF)
  95:../Libraries/CMSIS/Include/core_cmInstr.h **** 
  96:../Libraries/CMSIS/Include/core_cmInstr.h **** 
  97:../Libraries/CMSIS/Include/core_cmInstr.h **** /** \brief  Reverse byte order (32 bit)
  98:../Libraries/CMSIS/Include/core_cmInstr.h **** 
  99:../Libraries/CMSIS/Include/core_cmInstr.h ****     This function reverses the byte order in integer value.
 100:../Libraries/CMSIS/Include/core_cmInstr.h **** 
 101:../Libraries/CMSIS/Include/core_cmInstr.h ****     \param [in]    value  Value to reverse
 102:../Libraries/CMSIS/Include/core_cmInstr.h ****     \return               Reversed value
 103:../Libraries/CMSIS/Include/core_cmInstr.h ****  */
 104:../Libraries/CMSIS/Include/core_cmInstr.h **** #define __REV                             __rev
 105:../Libraries/CMSIS/Include/core_cmInstr.h **** 
 106:../Libraries/CMSIS/Include/core_cmInstr.h **** 
 107:../Libraries/CMSIS/Include/core_cmInstr.h **** /** \brief  Reverse byte order (16 bit)
 108:../Libraries/CMSIS/Include/core_cmInstr.h **** 
 109:../Libraries/CMSIS/Include/core_cmInstr.h ****     This function reverses the byte order in two unsigned short values.
 110:../Libraries/CMSIS/Include/core_cmInstr.h **** 
 111:../Libraries/CMSIS/Include/core_cmInstr.h ****     \param [in]    value  Value to reverse
 112:../Libraries/CMSIS/Include/core_cmInstr.h ****     \return               Reversed value
 113:../Libraries/CMSIS/Include/core_cmInstr.h ****  */
 114:../Libraries/CMSIS/Include/core_cmInstr.h **** static __INLINE __ASM uint32_t __REV16(uint32_t value)
 115:../Libraries/CMSIS/Include/core_cmInstr.h **** {
ARM GAS  C:\Users\admin\AppData\Local\Temp\cc9u7EuA.s 			page 24


 116:../Libraries/CMSIS/Include/core_cmInstr.h ****   rev16 r0, r0
 117:../Libraries/CMSIS/Include/core_cmInstr.h ****   bx lr
 118:../Libraries/CMSIS/Include/core_cmInstr.h **** }
 119:../Libraries/CMSIS/Include/core_cmInstr.h **** 
 120:../Libraries/CMSIS/Include/core_cmInstr.h **** 
 121:../Libraries/CMSIS/Include/core_cmInstr.h **** /** \brief  Reverse byte order in signed short value
 122:../Libraries/CMSIS/Include/core_cmInstr.h **** 
 123:../Libraries/CMSIS/Include/core_cmInstr.h ****     This function reverses the byte order in a signed short value with sign extension to integer.
 124:../Libraries/CMSIS/Include/core_cmInstr.h **** 
 125:../Libraries/CMSIS/Include/core_cmInstr.h ****     \param [in]    value  Value to reverse
 126:../Libraries/CMSIS/Include/core_cmInstr.h ****     \return               Reversed value
 127:../Libraries/CMSIS/Include/core_cmInstr.h ****  */
 128:../Libraries/CMSIS/Include/core_cmInstr.h **** static __INLINE __ASM int32_t __REVSH(int32_t value)
 129:../Libraries/CMSIS/Include/core_cmInstr.h **** {
 130:../Libraries/CMSIS/Include/core_cmInstr.h ****   revsh r0, r0
 131:../Libraries/CMSIS/Include/core_cmInstr.h ****   bx lr
 132:../Libraries/CMSIS/Include/core_cmInstr.h **** }
 133:../Libraries/CMSIS/Include/core_cmInstr.h **** 
 134:../Libraries/CMSIS/Include/core_cmInstr.h **** 
 135:../Libraries/CMSIS/Include/core_cmInstr.h **** #if       (__CORTEX_M >= 0x03)
 136:../Libraries/CMSIS/Include/core_cmInstr.h **** 
 137:../Libraries/CMSIS/Include/core_cmInstr.h **** /** \brief  Reverse bit order of value
 138:../Libraries/CMSIS/Include/core_cmInstr.h **** 
 139:../Libraries/CMSIS/Include/core_cmInstr.h ****     This function reverses the bit order of the given value.
 140:../Libraries/CMSIS/Include/core_cmInstr.h **** 
 141:../Libraries/CMSIS/Include/core_cmInstr.h ****     \param [in]    value  Value to reverse
 142:../Libraries/CMSIS/Include/core_cmInstr.h ****     \return               Reversed value
 143:../Libraries/CMSIS/Include/core_cmInstr.h ****  */
 144:../Libraries/CMSIS/Include/core_cmInstr.h **** #define __RBIT                            __rbit
 145:../Libraries/CMSIS/Include/core_cmInstr.h **** 
 146:../Libraries/CMSIS/Include/core_cmInstr.h **** 
 147:../Libraries/CMSIS/Include/core_cmInstr.h **** /** \brief  LDR Exclusive (8 bit)
 148:../Libraries/CMSIS/Include/core_cmInstr.h **** 
 149:../Libraries/CMSIS/Include/core_cmInstr.h ****     This function performs a exclusive LDR command for 8 bit value.
 150:../Libraries/CMSIS/Include/core_cmInstr.h **** 
 151:../Libraries/CMSIS/Include/core_cmInstr.h ****     \param [in]    ptr  Pointer to data
 152:../Libraries/CMSIS/Include/core_cmInstr.h ****     \return             value of type uint8_t at (*ptr)
 153:../Libraries/CMSIS/Include/core_cmInstr.h ****  */
 154:../Libraries/CMSIS/Include/core_cmInstr.h **** #define __LDREXB(ptr)                     ((uint8_t ) __ldrex(ptr))
 155:../Libraries/CMSIS/Include/core_cmInstr.h **** 
 156:../Libraries/CMSIS/Include/core_cmInstr.h **** 
 157:../Libraries/CMSIS/Include/core_cmInstr.h **** /** \brief  LDR Exclusive (16 bit)
 158:../Libraries/CMSIS/Include/core_cmInstr.h **** 
 159:../Libraries/CMSIS/Include/core_cmInstr.h ****     This function performs a exclusive LDR command for 16 bit values.
 160:../Libraries/CMSIS/Include/core_cmInstr.h **** 
 161:../Libraries/CMSIS/Include/core_cmInstr.h ****     \param [in]    ptr  Pointer to data
 162:../Libraries/CMSIS/Include/core_cmInstr.h ****     \return        value of type uint16_t at (*ptr)
 163:../Libraries/CMSIS/Include/core_cmInstr.h ****  */
 164:../Libraries/CMSIS/Include/core_cmInstr.h **** #define __LDREXH(ptr)                     ((uint16_t) __ldrex(ptr))
 165:../Libraries/CMSIS/Include/core_cmInstr.h **** 
 166:../Libraries/CMSIS/Include/core_cmInstr.h **** 
 167:../Libraries/CMSIS/Include/core_cmInstr.h **** /** \brief  LDR Exclusive (32 bit)
 168:../Libraries/CMSIS/Include/core_cmInstr.h **** 
 169:../Libraries/CMSIS/Include/core_cmInstr.h ****     This function performs a exclusive LDR command for 32 bit values.
 170:../Libraries/CMSIS/Include/core_cmInstr.h **** 
 171:../Libraries/CMSIS/Include/core_cmInstr.h ****     \param [in]    ptr  Pointer to data
 172:../Libraries/CMSIS/Include/core_cmInstr.h ****     \return        value of type uint32_t at (*ptr)
ARM GAS  C:\Users\admin\AppData\Local\Temp\cc9u7EuA.s 			page 25


 173:../Libraries/CMSIS/Include/core_cmInstr.h ****  */
 174:../Libraries/CMSIS/Include/core_cmInstr.h **** #define __LDREXW(ptr)                     ((uint32_t ) __ldrex(ptr))
 175:../Libraries/CMSIS/Include/core_cmInstr.h **** 
 176:../Libraries/CMSIS/Include/core_cmInstr.h **** 
 177:../Libraries/CMSIS/Include/core_cmInstr.h **** /** \brief  STR Exclusive (8 bit)
 178:../Libraries/CMSIS/Include/core_cmInstr.h **** 
 179:../Libraries/CMSIS/Include/core_cmInstr.h ****     This function performs a exclusive STR command for 8 bit values.
 180:../Libraries/CMSIS/Include/core_cmInstr.h **** 
 181:../Libraries/CMSIS/Include/core_cmInstr.h ****     \param [in]  value  Value to store
 182:../Libraries/CMSIS/Include/core_cmInstr.h ****     \param [in]    ptr  Pointer to location
 183:../Libraries/CMSIS/Include/core_cmInstr.h ****     \return          0  Function succeeded
 184:../Libraries/CMSIS/Include/core_cmInstr.h ****     \return          1  Function failed
 185:../Libraries/CMSIS/Include/core_cmInstr.h ****  */
 186:../Libraries/CMSIS/Include/core_cmInstr.h **** #define __STREXB(value, ptr)              __strex(value, ptr)
 187:../Libraries/CMSIS/Include/core_cmInstr.h **** 
 188:../Libraries/CMSIS/Include/core_cmInstr.h **** 
 189:../Libraries/CMSIS/Include/core_cmInstr.h **** /** \brief  STR Exclusive (16 bit)
 190:../Libraries/CMSIS/Include/core_cmInstr.h **** 
 191:../Libraries/CMSIS/Include/core_cmInstr.h ****     This function performs a exclusive STR command for 16 bit values.
 192:../Libraries/CMSIS/Include/core_cmInstr.h **** 
 193:../Libraries/CMSIS/Include/core_cmInstr.h ****     \param [in]  value  Value to store
 194:../Libraries/CMSIS/Include/core_cmInstr.h ****     \param [in]    ptr  Pointer to location
 195:../Libraries/CMSIS/Include/core_cmInstr.h ****     \return          0  Function succeeded
 196:../Libraries/CMSIS/Include/core_cmInstr.h ****     \return          1  Function failed
 197:../Libraries/CMSIS/Include/core_cmInstr.h ****  */
 198:../Libraries/CMSIS/Include/core_cmInstr.h **** #define __STREXH(value, ptr)              __strex(value, ptr)
 199:../Libraries/CMSIS/Include/core_cmInstr.h **** 
 200:../Libraries/CMSIS/Include/core_cmInstr.h **** 
 201:../Libraries/CMSIS/Include/core_cmInstr.h **** /** \brief  STR Exclusive (32 bit)
 202:../Libraries/CMSIS/Include/core_cmInstr.h **** 
 203:../Libraries/CMSIS/Include/core_cmInstr.h ****     This function performs a exclusive STR command for 32 bit values.
 204:../Libraries/CMSIS/Include/core_cmInstr.h **** 
 205:../Libraries/CMSIS/Include/core_cmInstr.h ****     \param [in]  value  Value to store
 206:../Libraries/CMSIS/Include/core_cmInstr.h ****     \param [in]    ptr  Pointer to location
 207:../Libraries/CMSIS/Include/core_cmInstr.h ****     \return          0  Function succeeded
 208:../Libraries/CMSIS/Include/core_cmInstr.h ****     \return          1  Function failed
 209:../Libraries/CMSIS/Include/core_cmInstr.h ****  */
 210:../Libraries/CMSIS/Include/core_cmInstr.h **** #define __STREXW(value, ptr)              __strex(value, ptr)
 211:../Libraries/CMSIS/Include/core_cmInstr.h **** 
 212:../Libraries/CMSIS/Include/core_cmInstr.h **** 
 213:../Libraries/CMSIS/Include/core_cmInstr.h **** /** \brief  Remove the exclusive lock
 214:../Libraries/CMSIS/Include/core_cmInstr.h **** 
 215:../Libraries/CMSIS/Include/core_cmInstr.h ****     This function removes the exclusive lock which is created by LDREX.
 216:../Libraries/CMSIS/Include/core_cmInstr.h **** 
 217:../Libraries/CMSIS/Include/core_cmInstr.h ****  */
 218:../Libraries/CMSIS/Include/core_cmInstr.h **** #define __CLREX                           __clrex
 219:../Libraries/CMSIS/Include/core_cmInstr.h **** 
 220:../Libraries/CMSIS/Include/core_cmInstr.h **** 
 221:../Libraries/CMSIS/Include/core_cmInstr.h **** /** \brief  Signed Saturate
 222:../Libraries/CMSIS/Include/core_cmInstr.h **** 
 223:../Libraries/CMSIS/Include/core_cmInstr.h ****     This function saturates a signed value.
 224:../Libraries/CMSIS/Include/core_cmInstr.h **** 
 225:../Libraries/CMSIS/Include/core_cmInstr.h ****     \param [in]  value  Value to be saturated
 226:../Libraries/CMSIS/Include/core_cmInstr.h ****     \param [in]    sat  Bit position to saturate to (1..32)
 227:../Libraries/CMSIS/Include/core_cmInstr.h ****     \return             Saturated value
 228:../Libraries/CMSIS/Include/core_cmInstr.h ****  */
 229:../Libraries/CMSIS/Include/core_cmInstr.h **** #define __SSAT                            __ssat
ARM GAS  C:\Users\admin\AppData\Local\Temp\cc9u7EuA.s 			page 26


 230:../Libraries/CMSIS/Include/core_cmInstr.h **** 
 231:../Libraries/CMSIS/Include/core_cmInstr.h **** 
 232:../Libraries/CMSIS/Include/core_cmInstr.h **** /** \brief  Unsigned Saturate
 233:../Libraries/CMSIS/Include/core_cmInstr.h **** 
 234:../Libraries/CMSIS/Include/core_cmInstr.h ****     This function saturates an unsigned value.
 235:../Libraries/CMSIS/Include/core_cmInstr.h **** 
 236:../Libraries/CMSIS/Include/core_cmInstr.h ****     \param [in]  value  Value to be saturated
 237:../Libraries/CMSIS/Include/core_cmInstr.h ****     \param [in]    sat  Bit position to saturate to (0..31)
 238:../Libraries/CMSIS/Include/core_cmInstr.h ****     \return             Saturated value
 239:../Libraries/CMSIS/Include/core_cmInstr.h ****  */
 240:../Libraries/CMSIS/Include/core_cmInstr.h **** #define __USAT                            __usat
 241:../Libraries/CMSIS/Include/core_cmInstr.h **** 
 242:../Libraries/CMSIS/Include/core_cmInstr.h **** 
 243:../Libraries/CMSIS/Include/core_cmInstr.h **** /** \brief  Count leading zeros
 244:../Libraries/CMSIS/Include/core_cmInstr.h **** 
 245:../Libraries/CMSIS/Include/core_cmInstr.h ****     This function counts the number of leading zeros of a data value.
 246:../Libraries/CMSIS/Include/core_cmInstr.h **** 
 247:../Libraries/CMSIS/Include/core_cmInstr.h ****     \param [in]  value  Value to count the leading zeros
 248:../Libraries/CMSIS/Include/core_cmInstr.h ****     \return             number of leading zeros in value
 249:../Libraries/CMSIS/Include/core_cmInstr.h ****  */
 250:../Libraries/CMSIS/Include/core_cmInstr.h **** #define __CLZ                             __clz 
 251:../Libraries/CMSIS/Include/core_cmInstr.h **** 
 252:../Libraries/CMSIS/Include/core_cmInstr.h **** #endif /* (__CORTEX_M >= 0x03) */
 253:../Libraries/CMSIS/Include/core_cmInstr.h **** 
 254:../Libraries/CMSIS/Include/core_cmInstr.h **** 
 255:../Libraries/CMSIS/Include/core_cmInstr.h **** 
 256:../Libraries/CMSIS/Include/core_cmInstr.h **** #elif defined ( __ICCARM__ ) /*------------------ ICC Compiler -------------------*/
 257:../Libraries/CMSIS/Include/core_cmInstr.h **** /* IAR iccarm specific functions */
 258:../Libraries/CMSIS/Include/core_cmInstr.h **** 
 259:../Libraries/CMSIS/Include/core_cmInstr.h **** #include <cmsis_iar.h>
 260:../Libraries/CMSIS/Include/core_cmInstr.h **** 
 261:../Libraries/CMSIS/Include/core_cmInstr.h **** 
 262:../Libraries/CMSIS/Include/core_cmInstr.h **** #elif defined ( __GNUC__ ) /*------------------ GNU Compiler ---------------------*/
 263:../Libraries/CMSIS/Include/core_cmInstr.h **** /* GNU gcc specific functions */
 264:../Libraries/CMSIS/Include/core_cmInstr.h **** 
 265:../Libraries/CMSIS/Include/core_cmInstr.h **** /** \brief  No Operation
 266:../Libraries/CMSIS/Include/core_cmInstr.h **** 
 267:../Libraries/CMSIS/Include/core_cmInstr.h ****     No Operation does nothing. This instruction can be used for code alignment purposes.
 268:../Libraries/CMSIS/Include/core_cmInstr.h ****  */
 269:../Libraries/CMSIS/Include/core_cmInstr.h **** __attribute__( ( always_inline ) ) static __INLINE void __NOP(void)
 270:../Libraries/CMSIS/Include/core_cmInstr.h **** {
 271:../Libraries/CMSIS/Include/core_cmInstr.h ****   __ASM volatile ("nop");
 272:../Libraries/CMSIS/Include/core_cmInstr.h **** }
 273:../Libraries/CMSIS/Include/core_cmInstr.h **** 
 274:../Libraries/CMSIS/Include/core_cmInstr.h **** 
 275:../Libraries/CMSIS/Include/core_cmInstr.h **** /** \brief  Wait For Interrupt
 276:../Libraries/CMSIS/Include/core_cmInstr.h **** 
 277:../Libraries/CMSIS/Include/core_cmInstr.h ****     Wait For Interrupt is a hint instruction that suspends execution
 278:../Libraries/CMSIS/Include/core_cmInstr.h ****     until one of a number of events occurs.
 279:../Libraries/CMSIS/Include/core_cmInstr.h ****  */
 280:../Libraries/CMSIS/Include/core_cmInstr.h **** __attribute__( ( always_inline ) ) static __INLINE void __WFI(void)
 281:../Libraries/CMSIS/Include/core_cmInstr.h **** {
 282:../Libraries/CMSIS/Include/core_cmInstr.h ****   __ASM volatile ("wfi");
 283:../Libraries/CMSIS/Include/core_cmInstr.h **** }
 284:../Libraries/CMSIS/Include/core_cmInstr.h **** 
 285:../Libraries/CMSIS/Include/core_cmInstr.h **** 
 286:../Libraries/CMSIS/Include/core_cmInstr.h **** /** \brief  Wait For Event
ARM GAS  C:\Users\admin\AppData\Local\Temp\cc9u7EuA.s 			page 27


 287:../Libraries/CMSIS/Include/core_cmInstr.h **** 
 288:../Libraries/CMSIS/Include/core_cmInstr.h ****     Wait For Event is a hint instruction that permits the processor to enter
 289:../Libraries/CMSIS/Include/core_cmInstr.h ****     a low-power state until one of a number of events occurs.
 290:../Libraries/CMSIS/Include/core_cmInstr.h ****  */
 291:../Libraries/CMSIS/Include/core_cmInstr.h **** __attribute__( ( always_inline ) ) static __INLINE void __WFE(void)
 636              		.loc 2 291 57 view .LVU117
 637              	.LBB9:
 292:../Libraries/CMSIS/Include/core_cmInstr.h **** {
 293:../Libraries/CMSIS/Include/core_cmInstr.h ****   __ASM volatile ("wfe");
 638              		.loc 2 293 3 view .LVU118
 639              		.syntax unified
 640              	@ 293 "../Libraries/CMSIS/Include/core_cmInstr.h" 1
 641 003a 20BF     		wfe
 642              	@ 0 "" 2
 643              		.thumb
 644              		.syntax unified
 645              	.L39:
 646              	.LBE9:
 647              	.LBE8:
 532:../Libraries/STM32F4xx_StdPeriph_Driver/src/stm32f4xx_pwr.c ****   }
 533:../Libraries/STM32F4xx_StdPeriph_Driver/src/stm32f4xx_pwr.c ****   /* Reset SLEEPDEEP bit of Cortex System Control Register */
 534:../Libraries/STM32F4xx_StdPeriph_Driver/src/stm32f4xx_pwr.c ****   SCB->SCR &= (uint32_t)~((uint32_t)SCB_SCR_SLEEPDEEP_Msk);  
 648              		.loc 1 534 3 view .LVU119
 649              	@ ../Libraries/STM32F4xx_StdPeriph_Driver/src/stm32f4xx_pwr.c:534:   SCB->SCR &= (uint32_t)~((uint3
 650              		.loc 1 534 12 is_stmt 0 view .LVU120
 651 003c 044A     		ldr	r2, .L42+4	@ tmp139,
 652 003e 1369     		ldr	r3, [r2, #16]	@ _8, MEM[(struct SCB_Type *)3758157056B].SCR
 653 0040 23F00403 		bic	r3, r3, #4	@ _9, _8,
 654 0044 1361     		str	r3, [r2, #16]	@ _9, MEM[(struct SCB_Type *)3758157056B].SCR
 655              	@ ../Libraries/STM32F4xx_StdPeriph_Driver/src/stm32f4xx_pwr.c:535: }
 535:../Libraries/STM32F4xx_StdPeriph_Driver/src/stm32f4xx_pwr.c **** }
 656              		.loc 1 535 1 view .LVU121
 657 0046 38BD     		pop	{r3, r4, r5, pc}	@
 658              	.LVL37:
 659              	.L41:
 526:../Libraries/STM32F4xx_StdPeriph_Driver/src/stm32f4xx_pwr.c ****   }
 660              		.loc 1 526 5 is_stmt 1 view .LVU122
 661              	.LBB10:
 662              	.LBI10:
 280:../Libraries/CMSIS/Include/core_cmInstr.h **** {
 663              		.loc 2 280 57 view .LVU123
 664              	.LBB11:
 282:../Libraries/CMSIS/Include/core_cmInstr.h **** }
 665              		.loc 2 282 3 view .LVU124
 666              		.syntax unified
 667              	@ 282 "../Libraries/CMSIS/Include/core_cmInstr.h" 1
 668 0048 30BF     		wfi
 669              	@ 0 "" 2
 670              	@ ../Libraries/CMSIS/Include/core_cmInstr.h:283: }
 283:../Libraries/CMSIS/Include/core_cmInstr.h **** 
 671              		.loc 2 283 1 is_stmt 0 view .LVU125
 672              		.thumb
 673              		.syntax unified
 674 004a F7E7     		b	.L39		@
 675              	.L43:
 676              		.align	2
 677              	.L42:
ARM GAS  C:\Users\admin\AppData\Local\Temp\cc9u7EuA.s 			page 28


 678 004c 00700040 		.word	1073770496
 679 0050 00ED00E0 		.word	-536810240
 680              	.LBE11:
 681              	.LBE10:
 682              		.cfi_endproc
 683              	.LFE118:
 684              		.size	PWR_EnterSTOPMode, .-PWR_EnterSTOPMode
 685              		.section	.text.PWR_EnterSTANDBYMode,"ax",%progbits
 686              		.align	1
 687              		.p2align 2,,3
 688              		.global	PWR_EnterSTANDBYMode
 689              		.syntax unified
 690              		.thumb
 691              		.thumb_func
 692              		.type	PWR_EnterSTANDBYMode, %function
 693              	PWR_EnterSTANDBYMode:
 694              	.LFB119:
 536:../Libraries/STM32F4xx_StdPeriph_Driver/src/stm32f4xx_pwr.c **** 
 537:../Libraries/STM32F4xx_StdPeriph_Driver/src/stm32f4xx_pwr.c **** /**
 538:../Libraries/STM32F4xx_StdPeriph_Driver/src/stm32f4xx_pwr.c ****   * @brief  Enters STANDBY mode.
 539:../Libraries/STM32F4xx_StdPeriph_Driver/src/stm32f4xx_pwr.c ****   * @note   In Standby mode, all I/O pins are high impedance except for:
 540:../Libraries/STM32F4xx_StdPeriph_Driver/src/stm32f4xx_pwr.c ****   *          - Reset pad (still available) 
 541:../Libraries/STM32F4xx_StdPeriph_Driver/src/stm32f4xx_pwr.c ****   *          - RTC_AF1 pin (PC13) if configured for tamper, time-stamp, RTC 
 542:../Libraries/STM32F4xx_StdPeriph_Driver/src/stm32f4xx_pwr.c ****   *            Alarm out, or RTC clock calibration out.
 543:../Libraries/STM32F4xx_StdPeriph_Driver/src/stm32f4xx_pwr.c ****   *          - RTC_AF2 pin (PI8) if configured for tamper or time-stamp.  
 544:../Libraries/STM32F4xx_StdPeriph_Driver/src/stm32f4xx_pwr.c ****   *          - WKUP pin 1 (PA0) if enabled.       
 545:../Libraries/STM32F4xx_StdPeriph_Driver/src/stm32f4xx_pwr.c ****   * @param  None
 546:../Libraries/STM32F4xx_StdPeriph_Driver/src/stm32f4xx_pwr.c ****   * @retval None
 547:../Libraries/STM32F4xx_StdPeriph_Driver/src/stm32f4xx_pwr.c ****   */
 548:../Libraries/STM32F4xx_StdPeriph_Driver/src/stm32f4xx_pwr.c **** void PWR_EnterSTANDBYMode(void)
 549:../Libraries/STM32F4xx_StdPeriph_Driver/src/stm32f4xx_pwr.c **** {
 695              		.loc 1 549 1 is_stmt 1 view -0
 696              		.cfi_startproc
 697              		@ args = 0, pretend = 0, frame = 0
 698              		@ frame_needed = 0, uses_anonymous_args = 0
 699              		@ link register save eliminated.
 550:../Libraries/STM32F4xx_StdPeriph_Driver/src/stm32f4xx_pwr.c ****   /* Clear Wakeup flag */
 551:../Libraries/STM32F4xx_StdPeriph_Driver/src/stm32f4xx_pwr.c ****   PWR->CR |= PWR_CR_CWUF;
 700              		.loc 1 551 3 view .LVU127
 701              	@ ../Libraries/STM32F4xx_StdPeriph_Driver/src/stm32f4xx_pwr.c:551:   PWR->CR |= PWR_CR_CWUF;
 702              		.loc 1 551 11 is_stmt 0 view .LVU128
 703 0000 074B     		ldr	r3, .L45	@ tmp119,
 704              	@ ../Libraries/STM32F4xx_StdPeriph_Driver/src/stm32f4xx_pwr.c:557:   SCB->SCR |= SCB_SCR_SLEEPDEEP_
 552:../Libraries/STM32F4xx_StdPeriph_Driver/src/stm32f4xx_pwr.c ****   
 553:../Libraries/STM32F4xx_StdPeriph_Driver/src/stm32f4xx_pwr.c ****   /* Select STANDBY mode */
 554:../Libraries/STM32F4xx_StdPeriph_Driver/src/stm32f4xx_pwr.c ****   PWR->CR |= PWR_CR_PDDS;
 555:../Libraries/STM32F4xx_StdPeriph_Driver/src/stm32f4xx_pwr.c ****   
 556:../Libraries/STM32F4xx_StdPeriph_Driver/src/stm32f4xx_pwr.c ****   /* Set SLEEPDEEP bit of Cortex System Control Register */
 557:../Libraries/STM32F4xx_StdPeriph_Driver/src/stm32f4xx_pwr.c ****   SCB->SCR |= SCB_SCR_SLEEPDEEP_Msk;
 705              		.loc 1 557 12 view .LVU129
 706 0002 0849     		ldr	r1, .L45+4	@ tmp123,
 707              	@ ../Libraries/STM32F4xx_StdPeriph_Driver/src/stm32f4xx_pwr.c:551:   PWR->CR |= PWR_CR_CWUF;
 551:../Libraries/STM32F4xx_StdPeriph_Driver/src/stm32f4xx_pwr.c ****   
 708              		.loc 1 551 11 view .LVU130
 709 0004 1A68     		ldr	r2, [r3]	@ _1, MEM[(struct PWR_TypeDef *)1073770496B].CR
 710 0006 42F00402 		orr	r2, r2, #4	@ _2, _1,
 711 000a 1A60     		str	r2, [r3]	@ _2, MEM[(struct PWR_TypeDef *)1073770496B].CR
ARM GAS  C:\Users\admin\AppData\Local\Temp\cc9u7EuA.s 			page 29


 554:../Libraries/STM32F4xx_StdPeriph_Driver/src/stm32f4xx_pwr.c ****   
 712              		.loc 1 554 3 is_stmt 1 view .LVU131
 713              	@ ../Libraries/STM32F4xx_StdPeriph_Driver/src/stm32f4xx_pwr.c:554:   PWR->CR |= PWR_CR_PDDS;
 554:../Libraries/STM32F4xx_StdPeriph_Driver/src/stm32f4xx_pwr.c ****   
 714              		.loc 1 554 11 is_stmt 0 view .LVU132
 715 000c 1A68     		ldr	r2, [r3]	@ _3, MEM[(struct PWR_TypeDef *)1073770496B].CR
 716 000e 42F00202 		orr	r2, r2, #2	@ _4, _3,
 717 0012 1A60     		str	r2, [r3]	@ _4, MEM[(struct PWR_TypeDef *)1073770496B].CR
 718              		.loc 1 557 3 is_stmt 1 view .LVU133
 719              	@ ../Libraries/STM32F4xx_StdPeriph_Driver/src/stm32f4xx_pwr.c:557:   SCB->SCR |= SCB_SCR_SLEEPDEEP_
 720              		.loc 1 557 12 is_stmt 0 view .LVU134
 721 0014 0B69     		ldr	r3, [r1, #16]	@ _5, MEM[(struct SCB_Type *)3758157056B].SCR
 722 0016 43F00403 		orr	r3, r3, #4	@ _6, _5,
 723 001a 0B61     		str	r3, [r1, #16]	@ _6, MEM[(struct SCB_Type *)3758157056B].SCR
 558:../Libraries/STM32F4xx_StdPeriph_Driver/src/stm32f4xx_pwr.c ****   
 559:../Libraries/STM32F4xx_StdPeriph_Driver/src/stm32f4xx_pwr.c **** /* This option is used to ensure that store operations are completed */
 560:../Libraries/STM32F4xx_StdPeriph_Driver/src/stm32f4xx_pwr.c **** #if defined ( __CC_ARM   )
 561:../Libraries/STM32F4xx_StdPeriph_Driver/src/stm32f4xx_pwr.c ****   __force_stores();
 562:../Libraries/STM32F4xx_StdPeriph_Driver/src/stm32f4xx_pwr.c **** #endif
 563:../Libraries/STM32F4xx_StdPeriph_Driver/src/stm32f4xx_pwr.c ****   /* Request Wait For Interrupt */
 564:../Libraries/STM32F4xx_StdPeriph_Driver/src/stm32f4xx_pwr.c ****   __WFI();
 724              		.loc 1 564 3 is_stmt 1 view .LVU135
 725              	.LBB12:
 726              	.LBI12:
 280:../Libraries/CMSIS/Include/core_cmInstr.h **** {
 727              		.loc 2 280 57 view .LVU136
 728              	.LBB13:
 282:../Libraries/CMSIS/Include/core_cmInstr.h **** }
 729              		.loc 2 282 3 view .LVU137
 730              		.syntax unified
 731              	@ 282 "../Libraries/CMSIS/Include/core_cmInstr.h" 1
 732 001c 30BF     		wfi
 733              	@ 0 "" 2
 734              		.thumb
 735              		.syntax unified
 736              	.LBE13:
 737              	.LBE12:
 738              	@ ../Libraries/STM32F4xx_StdPeriph_Driver/src/stm32f4xx_pwr.c:565: }
 565:../Libraries/STM32F4xx_StdPeriph_Driver/src/stm32f4xx_pwr.c **** }
 739              		.loc 1 565 1 is_stmt 0 view .LVU138
 740 001e 7047     		bx	lr	@
 741              	.L46:
 742              		.align	2
 743              	.L45:
 744 0020 00700040 		.word	1073770496
 745 0024 00ED00E0 		.word	-536810240
 746              		.cfi_endproc
 747              	.LFE119:
 748              		.size	PWR_EnterSTANDBYMode, .-PWR_EnterSTANDBYMode
 749              		.section	.text.PWR_GetFlagStatus,"ax",%progbits
 750              		.align	1
 751              		.p2align 2,,3
 752              		.global	PWR_GetFlagStatus
 753              		.syntax unified
 754              		.thumb
 755              		.thumb_func
 756              		.type	PWR_GetFlagStatus, %function
ARM GAS  C:\Users\admin\AppData\Local\Temp\cc9u7EuA.s 			page 30


 757              	PWR_GetFlagStatus:
 758              	.LVL38:
 759              	.LFB120:
 566:../Libraries/STM32F4xx_StdPeriph_Driver/src/stm32f4xx_pwr.c **** 
 567:../Libraries/STM32F4xx_StdPeriph_Driver/src/stm32f4xx_pwr.c **** /**
 568:../Libraries/STM32F4xx_StdPeriph_Driver/src/stm32f4xx_pwr.c ****   * @}
 569:../Libraries/STM32F4xx_StdPeriph_Driver/src/stm32f4xx_pwr.c ****   */
 570:../Libraries/STM32F4xx_StdPeriph_Driver/src/stm32f4xx_pwr.c **** 
 571:../Libraries/STM32F4xx_StdPeriph_Driver/src/stm32f4xx_pwr.c **** /** @defgroup PWR_Group7 Flags management functions
 572:../Libraries/STM32F4xx_StdPeriph_Driver/src/stm32f4xx_pwr.c ****  *  @brief   Flags management functions 
 573:../Libraries/STM32F4xx_StdPeriph_Driver/src/stm32f4xx_pwr.c ****  *
 574:../Libraries/STM32F4xx_StdPeriph_Driver/src/stm32f4xx_pwr.c **** @verbatim   
 575:../Libraries/STM32F4xx_StdPeriph_Driver/src/stm32f4xx_pwr.c ****  ===============================================================================
 576:../Libraries/STM32F4xx_StdPeriph_Driver/src/stm32f4xx_pwr.c ****                            Flags management functions
 577:../Libraries/STM32F4xx_StdPeriph_Driver/src/stm32f4xx_pwr.c ****  ===============================================================================  
 578:../Libraries/STM32F4xx_StdPeriph_Driver/src/stm32f4xx_pwr.c **** 
 579:../Libraries/STM32F4xx_StdPeriph_Driver/src/stm32f4xx_pwr.c **** @endverbatim
 580:../Libraries/STM32F4xx_StdPeriph_Driver/src/stm32f4xx_pwr.c ****   * @{
 581:../Libraries/STM32F4xx_StdPeriph_Driver/src/stm32f4xx_pwr.c ****   */
 582:../Libraries/STM32F4xx_StdPeriph_Driver/src/stm32f4xx_pwr.c **** 
 583:../Libraries/STM32F4xx_StdPeriph_Driver/src/stm32f4xx_pwr.c **** /**
 584:../Libraries/STM32F4xx_StdPeriph_Driver/src/stm32f4xx_pwr.c ****   * @brief  Checks whether the specified PWR flag is set or not.
 585:../Libraries/STM32F4xx_StdPeriph_Driver/src/stm32f4xx_pwr.c ****   * @param  PWR_FLAG: specifies the flag to check.
 586:../Libraries/STM32F4xx_StdPeriph_Driver/src/stm32f4xx_pwr.c ****   *          This parameter can be one of the following values:
 587:../Libraries/STM32F4xx_StdPeriph_Driver/src/stm32f4xx_pwr.c ****   *            @arg PWR_FLAG_WU: Wake Up flag. This flag indicates that a wakeup event 
 588:../Libraries/STM32F4xx_StdPeriph_Driver/src/stm32f4xx_pwr.c ****   *                  was received from the WKUP pin or from the RTC alarm (Alarm A 
 589:../Libraries/STM32F4xx_StdPeriph_Driver/src/stm32f4xx_pwr.c ****   *                  or Alarm B), RTC Tamper event, RTC TimeStamp event or RTC Wakeup.
 590:../Libraries/STM32F4xx_StdPeriph_Driver/src/stm32f4xx_pwr.c ****   *                  An additional wakeup event is detected if the WKUP pin is enabled 
 591:../Libraries/STM32F4xx_StdPeriph_Driver/src/stm32f4xx_pwr.c ****   *                  (by setting the EWUP bit) when the WKUP pin level is already high.  
 592:../Libraries/STM32F4xx_StdPeriph_Driver/src/stm32f4xx_pwr.c ****   *            @arg PWR_FLAG_SB: StandBy flag. This flag indicates that the system was
 593:../Libraries/STM32F4xx_StdPeriph_Driver/src/stm32f4xx_pwr.c ****   *                  resumed from StandBy mode.    
 594:../Libraries/STM32F4xx_StdPeriph_Driver/src/stm32f4xx_pwr.c ****   *            @arg PWR_FLAG_PVDO: PVD Output. This flag is valid only if PVD is enabled 
 595:../Libraries/STM32F4xx_StdPeriph_Driver/src/stm32f4xx_pwr.c ****   *                  by the PWR_PVDCmd() function. The PVD is stopped by Standby mode 
 596:../Libraries/STM32F4xx_StdPeriph_Driver/src/stm32f4xx_pwr.c ****   *                  For this reason, this bit is equal to 0 after Standby or reset
 597:../Libraries/STM32F4xx_StdPeriph_Driver/src/stm32f4xx_pwr.c ****   *                  until the PVDE bit is set.
 598:../Libraries/STM32F4xx_StdPeriph_Driver/src/stm32f4xx_pwr.c ****   *            @arg PWR_FLAG_BRR: Backup regulator ready flag. This bit is not reset 
 599:../Libraries/STM32F4xx_StdPeriph_Driver/src/stm32f4xx_pwr.c ****   *                  when the device wakes up from Standby mode or by a system reset 
 600:../Libraries/STM32F4xx_StdPeriph_Driver/src/stm32f4xx_pwr.c ****   *                  or power reset.  
 601:../Libraries/STM32F4xx_StdPeriph_Driver/src/stm32f4xx_pwr.c ****   *            @arg PWR_FLAG_VOSRDY: This flag indicates that the Regulator voltage 
 602:../Libraries/STM32F4xx_StdPeriph_Driver/src/stm32f4xx_pwr.c ****   *                 scaling output selection is ready. 
 603:../Libraries/STM32F4xx_StdPeriph_Driver/src/stm32f4xx_pwr.c ****   * @retval The new state of PWR_FLAG (SET or RESET).
 604:../Libraries/STM32F4xx_StdPeriph_Driver/src/stm32f4xx_pwr.c ****   */
 605:../Libraries/STM32F4xx_StdPeriph_Driver/src/stm32f4xx_pwr.c **** FlagStatus PWR_GetFlagStatus(uint32_t PWR_FLAG)
 606:../Libraries/STM32F4xx_StdPeriph_Driver/src/stm32f4xx_pwr.c **** {
 760              		.loc 1 606 1 is_stmt 1 view -0
 761              		.cfi_startproc
 762              		@ args = 0, pretend = 0, frame = 0
 763              		@ frame_needed = 0, uses_anonymous_args = 0
 607:../Libraries/STM32F4xx_StdPeriph_Driver/src/stm32f4xx_pwr.c ****   FlagStatus bitstatus = RESET;
 764              		.loc 1 607 3 view .LVU140
 608:../Libraries/STM32F4xx_StdPeriph_Driver/src/stm32f4xx_pwr.c ****   
 609:../Libraries/STM32F4xx_StdPeriph_Driver/src/stm32f4xx_pwr.c ****   /* Check the parameters */
 610:../Libraries/STM32F4xx_StdPeriph_Driver/src/stm32f4xx_pwr.c ****   assert_param(IS_PWR_GET_FLAG(PWR_FLAG));
 765              		.loc 1 610 3 view .LVU141
 766 0000 0828     		cmp	r0, #8	@ PWR_FLAG,
 767              	@ ../Libraries/STM32F4xx_StdPeriph_Driver/src/stm32f4xx_pwr.c:606: {
 606:../Libraries/STM32F4xx_StdPeriph_Driver/src/stm32f4xx_pwr.c ****   FlagStatus bitstatus = RESET;
ARM GAS  C:\Users\admin\AppData\Local\Temp\cc9u7EuA.s 			page 31


 768              		.loc 1 606 1 is_stmt 0 view .LVU142
 769 0002 10B5     		push	{r4, lr}	@
 770              		.cfi_def_cfa_offset 8
 771              		.cfi_offset 4, -8
 772              		.cfi_offset 14, -4
 773              	@ ../Libraries/STM32F4xx_StdPeriph_Driver/src/stm32f4xx_pwr.c:606: {
 606:../Libraries/STM32F4xx_StdPeriph_Driver/src/stm32f4xx_pwr.c ****   FlagStatus bitstatus = RESET;
 774              		.loc 1 606 1 view .LVU143
 775 0004 0446     		mov	r4, r0	@ PWR_FLAG, tmp138
 776              	@ ../Libraries/STM32F4xx_StdPeriph_Driver/src/stm32f4xx_pwr.c:610:   assert_param(IS_PWR_GET_FLAG(P
 777              		.loc 1 610 3 view .LVU144
 778 0006 0DD9     		bls	.L52		@,
 779              	.L48:
 780              	@ ../Libraries/STM32F4xx_StdPeriph_Driver/src/stm32f4xx_pwr.c:610:   assert_param(IS_PWR_GET_FLAG(P
 781              		.loc 1 610 3 discriminator 6 view .LVU145
 782 0008 A4F58040 		sub	r0, r4, #16384	@ iftmp.2_5, PWR_FLAG,
 783              	.LVL39:
 784              		.loc 1 610 3 discriminator 6 view .LVU146
 785 000c B0FA80F0 		clz	r0, r0	@ iftmp.2_5, iftmp.2_5
 786 0010 4009     		lsrs	r0, r0, #5	@ iftmp.2_5, iftmp.2_5,
 787              	.L49:
 788              	@ ../Libraries/STM32F4xx_StdPeriph_Driver/src/stm32f4xx_pwr.c:610:   assert_param(IS_PWR_GET_FLAG(P
 789              		.loc 1 610 3 discriminator 10 view .LVU147
 790 0012 FFF7FEFF 		bl	assert_param		@
 791              	.LVL40:
 611:../Libraries/STM32F4xx_StdPeriph_Driver/src/stm32f4xx_pwr.c ****   
 612:../Libraries/STM32F4xx_StdPeriph_Driver/src/stm32f4xx_pwr.c ****   if ((PWR->CSR & PWR_FLAG) != (uint32_t)RESET)
 792              		.loc 1 612 3 is_stmt 1 discriminator 10 view .LVU148
 793              	@ ../Libraries/STM32F4xx_StdPeriph_Driver/src/stm32f4xx_pwr.c:612:   if ((PWR->CSR & PWR_FLAG) != (
 794              		.loc 1 612 11 is_stmt 0 discriminator 10 view .LVU149
 795 0016 074B     		ldr	r3, .L53	@ tmp133,
 796 0018 5B68     		ldr	r3, [r3, #4]	@ _2, MEM[(struct PWR_TypeDef *)1073770496B].CSR
 797              	.LVL41:
 613:../Libraries/STM32F4xx_StdPeriph_Driver/src/stm32f4xx_pwr.c ****   {
 614:../Libraries/STM32F4xx_StdPeriph_Driver/src/stm32f4xx_pwr.c ****     bitstatus = SET;
 615:../Libraries/STM32F4xx_StdPeriph_Driver/src/stm32f4xx_pwr.c ****   }
 616:../Libraries/STM32F4xx_StdPeriph_Driver/src/stm32f4xx_pwr.c ****   else
 617:../Libraries/STM32F4xx_StdPeriph_Driver/src/stm32f4xx_pwr.c ****   {
 618:../Libraries/STM32F4xx_StdPeriph_Driver/src/stm32f4xx_pwr.c ****     bitstatus = RESET;
 619:../Libraries/STM32F4xx_StdPeriph_Driver/src/stm32f4xx_pwr.c ****   }
 620:../Libraries/STM32F4xx_StdPeriph_Driver/src/stm32f4xx_pwr.c ****   /* Return the flag status */
 621:../Libraries/STM32F4xx_StdPeriph_Driver/src/stm32f4xx_pwr.c ****   return bitstatus;
 798              		.loc 1 621 3 is_stmt 1 discriminator 10 view .LVU150
 799              	@ ../Libraries/STM32F4xx_StdPeriph_Driver/src/stm32f4xx_pwr.c:612:   if ((PWR->CSR & PWR_FLAG) != (
 612:../Libraries/STM32F4xx_StdPeriph_Driver/src/stm32f4xx_pwr.c ****   {
 800              		.loc 1 612 6 is_stmt 0 discriminator 10 view .LVU151
 801 001a 2342     		tst	r3, r4	@ _2, PWR_FLAG
 802              	@ ../Libraries/STM32F4xx_StdPeriph_Driver/src/stm32f4xx_pwr.c:622: }
 622:../Libraries/STM32F4xx_StdPeriph_Driver/src/stm32f4xx_pwr.c **** }
 803              		.loc 1 622 1 discriminator 10 view .LVU152
 804 001c 14BF     		ite	ne
 805 001e 0120     		movne	r0, #1	@,
 806 0020 0020     		moveq	r0, #0	@,
 807 0022 10BD     		pop	{r4, pc}	@
 808              	.LVL42:
 809              	.L52:
 810              	@ ../Libraries/STM32F4xx_StdPeriph_Driver/src/stm32f4xx_pwr.c:610:   assert_param(IS_PWR_GET_FLAG(P
ARM GAS  C:\Users\admin\AppData\Local\Temp\cc9u7EuA.s 			page 32


 610:../Libraries/STM32F4xx_StdPeriph_Driver/src/stm32f4xx_pwr.c ****   
 811              		.loc 1 610 3 view .LVU153
 812 0024 4FF48B73 		mov	r3, #278	@ tmp125,
 813 0028 C340     		lsrs	r3, r3, r0	@ tmp124, tmp125, PWR_FLAG
 814 002a DB07     		lsls	r3, r3, #31	@, tmp124,
 815 002c ECD5     		bpl	.L48		@,
 816 002e 0120     		movs	r0, #1	@ iftmp.2_5,
 817              	.LVL43:
 610:../Libraries/STM32F4xx_StdPeriph_Driver/src/stm32f4xx_pwr.c ****   
 818              		.loc 1 610 3 view .LVU154
 819 0030 EFE7     		b	.L49		@
 820              	.L54:
 821 0032 00BF     		.align	2
 822              	.L53:
 823 0034 00700040 		.word	1073770496
 824              		.cfi_endproc
 825              	.LFE120:
 826              		.size	PWR_GetFlagStatus, .-PWR_GetFlagStatus
 827              		.section	.text.PWR_ClearFlag,"ax",%progbits
 828              		.align	1
 829              		.p2align 2,,3
 830              		.global	PWR_ClearFlag
 831              		.syntax unified
 832              		.thumb
 833              		.thumb_func
 834              		.type	PWR_ClearFlag, %function
 835              	PWR_ClearFlag:
 836              	.LVL44:
 837              	.LFB121:
 623:../Libraries/STM32F4xx_StdPeriph_Driver/src/stm32f4xx_pwr.c **** 
 624:../Libraries/STM32F4xx_StdPeriph_Driver/src/stm32f4xx_pwr.c **** /**
 625:../Libraries/STM32F4xx_StdPeriph_Driver/src/stm32f4xx_pwr.c ****   * @brief  Clears the PWR's pending flags.
 626:../Libraries/STM32F4xx_StdPeriph_Driver/src/stm32f4xx_pwr.c ****   * @param  PWR_FLAG: specifies the flag to clear.
 627:../Libraries/STM32F4xx_StdPeriph_Driver/src/stm32f4xx_pwr.c ****   *          This parameter can be one of the following values:
 628:../Libraries/STM32F4xx_StdPeriph_Driver/src/stm32f4xx_pwr.c ****   *            @arg PWR_FLAG_WU: Wake Up flag
 629:../Libraries/STM32F4xx_StdPeriph_Driver/src/stm32f4xx_pwr.c ****   *            @arg PWR_FLAG_SB: StandBy flag
 630:../Libraries/STM32F4xx_StdPeriph_Driver/src/stm32f4xx_pwr.c ****   * @retval None
 631:../Libraries/STM32F4xx_StdPeriph_Driver/src/stm32f4xx_pwr.c ****   */
 632:../Libraries/STM32F4xx_StdPeriph_Driver/src/stm32f4xx_pwr.c **** void PWR_ClearFlag(uint32_t PWR_FLAG)
 633:../Libraries/STM32F4xx_StdPeriph_Driver/src/stm32f4xx_pwr.c **** {
 838              		.loc 1 633 1 is_stmt 1 view -0
 839              		.cfi_startproc
 840              		@ args = 0, pretend = 0, frame = 0
 841              		@ frame_needed = 0, uses_anonymous_args = 0
 634:../Libraries/STM32F4xx_StdPeriph_Driver/src/stm32f4xx_pwr.c ****   /* Check the parameters */
 635:../Libraries/STM32F4xx_StdPeriph_Driver/src/stm32f4xx_pwr.c ****   assert_param(IS_PWR_CLEAR_FLAG(PWR_FLAG));
 842              		.loc 1 635 3 view .LVU156
 843              	@ ../Libraries/STM32F4xx_StdPeriph_Driver/src/stm32f4xx_pwr.c:633: {
 633:../Libraries/STM32F4xx_StdPeriph_Driver/src/stm32f4xx_pwr.c ****   /* Check the parameters */
 844              		.loc 1 633 1 is_stmt 0 view .LVU157
 845 0000 10B5     		push	{r4, lr}	@
 846              		.cfi_def_cfa_offset 8
 847              		.cfi_offset 4, -8
 848              		.cfi_offset 14, -4
 849              	@ ../Libraries/STM32F4xx_StdPeriph_Driver/src/stm32f4xx_pwr.c:633: {
 633:../Libraries/STM32F4xx_StdPeriph_Driver/src/stm32f4xx_pwr.c ****   /* Check the parameters */
 850              		.loc 1 633 1 view .LVU158
ARM GAS  C:\Users\admin\AppData\Local\Temp\cc9u7EuA.s 			page 33


 851 0002 0446     		mov	r4, r0	@ PWR_FLAG, tmp126
 852              	@ ../Libraries/STM32F4xx_StdPeriph_Driver/src/stm32f4xx_pwr.c:635:   assert_param(IS_PWR_CLEAR_FLAG
 853              		.loc 1 635 16 view .LVU159
 854 0004 0138     		subs	r0, r0, #1	@ tmp120, PWR_FLAG,
 855              	.LVL45:
 856              	@ ../Libraries/STM32F4xx_StdPeriph_Driver/src/stm32f4xx_pwr.c:635:   assert_param(IS_PWR_CLEAR_FLAG
 857              		.loc 1 635 3 view .LVU160
 858 0006 0128     		cmp	r0, #1	@ tmp120,
 859 0008 8CBF     		ite	hi
 860 000a 0020     		movhi	r0, #0	@,
 861 000c 0120     		movls	r0, #1	@,
 862 000e FFF7FEFF 		bl	assert_param		@
 863              	.LVL46:
 636:../Libraries/STM32F4xx_StdPeriph_Driver/src/stm32f4xx_pwr.c ****          
 637:../Libraries/STM32F4xx_StdPeriph_Driver/src/stm32f4xx_pwr.c ****   PWR->CR |=  PWR_FLAG << 2;
 864              		.loc 1 637 3 is_stmt 1 view .LVU161
 865              	@ ../Libraries/STM32F4xx_StdPeriph_Driver/src/stm32f4xx_pwr.c:637:   PWR->CR |=  PWR_FLAG << 2;
 866              		.loc 1 637 11 is_stmt 0 view .LVU162
 867 0012 034B     		ldr	r3, .L57	@ tmp123,
 868 0014 1868     		ldr	r0, [r3]	@ _4, MEM[(struct PWR_TypeDef *)1073770496B].CR
 869 0016 40EA8404 		orr	r4, r0, r4, lsl #2	@ _6, _4, PWR_FLAG,
 870              	.LVL47:
 871              		.loc 1 637 11 view .LVU163
 872 001a 1C60     		str	r4, [r3]	@ _6, MEM[(struct PWR_TypeDef *)1073770496B].CR
 873              	@ ../Libraries/STM32F4xx_StdPeriph_Driver/src/stm32f4xx_pwr.c:638: }
 638:../Libraries/STM32F4xx_StdPeriph_Driver/src/stm32f4xx_pwr.c **** }
 874              		.loc 1 638 1 view .LVU164
 875 001c 10BD     		pop	{r4, pc}	@
 876              	.L58:
 877 001e 00BF     		.align	2
 878              	.L57:
 879 0020 00700040 		.word	1073770496
 880              		.cfi_endproc
 881              	.LFE121:
 882              		.size	PWR_ClearFlag, .-PWR_ClearFlag
 883              		.text
 884              	.Letext0:
 885              		.file 3 "c:\\program files (x86)\\gnu arm embedded toolchain\\10 2021.10\\arm-none-eabi\\include\\
 886              		.file 4 "c:\\program files (x86)\\gnu arm embedded toolchain\\10 2021.10\\arm-none-eabi\\include\\
 887              		.file 5 "../Libraries/CMSIS/Include/core_cm4.h"
 888              		.file 6 "../Libraries/CMSIS/ST/STM32F4xx/Include/stm32f4xx.h"
 889              		.file 7 "../Libraries/STM32F4xx_StdPeriph_Driver/inc/stm32f4xx_rcc.h"