ARM GAS  C:\Users\admin\AppData\Local\Temp\ccLq5Oux.s 			page 1


   1              		.cpu cortex-m4
   2              		.arch armv7e-m
   3              		.fpu fpv4-sp-d16
   4              		.eabi_attribute 27, 1	@ Tag_ABI_HardFP_use
   5              		.eabi_attribute 28, 1	@ Tag_ABI_VFP_args
   6              		.eabi_attribute 23, 1	@ Tag_ABI_FP_number_model
   7              		.eabi_attribute 24, 1	@ Tag_ABI_align8_needed
   8              		.eabi_attribute 25, 1	@ Tag_ABI_align8_preserved
   9              		.eabi_attribute 26, 1	@ Tag_ABI_enum_size
  10              		.eabi_attribute 30, 2	@ Tag_ABI_optimization_goals
  11              		.eabi_attribute 34, 1	@ Tag_CPU_unaligned_access
  12              		.eabi_attribute 18, 4	@ Tag_ABI_PCS_wchar_t
  13              		.file	"stm32f4xx_spi.c"
  14              	@ GNU C89 (GNU Arm Embedded Toolchain 10.3-2021.10) version 10.3.1 20210824 (release) (arm-none-eab
  15              	@	compiled by GNU C version 7.3-win32 20180312, GMP version 6.1.0, MPFR version 3.1.4, MPC version 
  16              	
  17              	@ GGC heuristics: --param ggc-min-expand=100 --param ggc-min-heapsize=131072
  18              	@ options passed:  -I . -I . -I ../Utilities/STM32F4-Discovery/
  19              	@ -I ../Libraries/STM32_USB_Device_Library/Class/audio/inc/
  20              	@ -I ../Libraries/STM32_USB_Device_Library/Core/inc/
  21              	@ -I ../Libraries/STM32_USB_OTG_Driver/inc/
  22              	@ -I ../Utilities/STM32F4-Discovery/
  23              	@ -I ../Libraries/STM32F4xx_StdPeriph_Driver/inc/
  24              	@ -I ../Utilities/STM32F4-Discovery/
  25              	@ -I ../Libraries/CMSIS/ST/STM32F4xx/Include/
  26              	@ -I ../Libraries/CMSIS/Include/ -imultilib thumb/v7e-m+fp/hard
  27              	@ -iprefix c:\program files (x86)\gnu arm embedded toolchain\10 2021.10\bin\../lib/gcc/arm-none-eab
  28              	@ -isysroot c:\program files (x86)\gnu arm embedded toolchain\10 2021.10\bin\../arm-none-eabi
  29              	@ -MD out/stm32f4xx_spi.d -MF out/stm32f4xx_spi.d -MP
  30              	@ -MQ out/stm32f4xx_spi.o -D__USES_INITFINI__ -D STM32F4XX -D __VFP_FP__
  31              	@ -D USE_USB_OTG_FS
  32              	@ ../Libraries/STM32F4xx_StdPeriph_Driver/src/stm32f4xx_spi.c
  33              	@ -mcpu=cortex-m4 -mthumb -mfloat-abi=hard -mfpu=fpv4-sp-d16
  34              	@ -mlibarch=armv7e-m+fp -march=armv7e-m+fp
  35              	@ -auxbase-strip out/stm32f4xx_spi.o -g -ggdb3 -O3 -Wall
  36              	@ -Wstrict-prototypes -Wextra -std=gnu90 -ffast-math -ffunction-sections
  37              	@ -fdata-sections -fverbose-asm
  38              	@ options enabled:  -faggressive-loop-optimizations -falign-functions
  39              	@ -falign-jumps -falign-labels -falign-loops -fallocation-dce
  40              	@ -fassociative-math -fauto-inc-dec -fbranch-count-reg -fcaller-saves
  41              	@ -fcombine-stack-adjustments -fcompare-elim -fcprop-registers
  42              	@ -fcrossjumping -fcse-follow-jumps -fcx-limited-range -fdata-sections
  43              	@ -fdefer-pop -fdelete-null-pointer-checks -fdevirtualize
  44              	@ -fdevirtualize-speculatively -fdwarf2-cfi-asm -fearly-inlining
  45              	@ -feliminate-unused-debug-symbols -feliminate-unused-debug-types
  46              	@ -fexpensive-optimizations -ffinite-math-only -fforward-propagate
  47              	@ -ffp-int-builtin-inexact -ffunction-cse -ffunction-sections -fgcse
  48              	@ -fgcse-after-reload -fgcse-lm -fgnu-unique -fguess-branch-probability
  49              	@ -fhoist-adjacent-loads -fident -fif-conversion -fif-conversion2
  50              	@ -findirect-inlining -finline -finline-atomics -finline-functions
  51              	@ -finline-functions-called-once -finline-small-functions -fipa-bit-cp
  52              	@ -fipa-cp -fipa-cp-clone -fipa-icf -fipa-icf-functions -fipa-icf-variables
  53              	@ -fipa-profile -fipa-pure-const -fipa-ra -fipa-reference
  54              	@ -fipa-reference-addressable -fipa-sra -fipa-stack-alignment -fipa-vrp
  55              	@ -fira-hoist-pressure -fira-share-save-slots -fira-share-spill-slots
  56              	@ -fisolate-erroneous-paths-dereference -fivopts -fkeep-static-consts
  57              	@ -fleading-underscore -flifetime-dse -floop-interchange
ARM GAS  C:\Users\admin\AppData\Local\Temp\ccLq5Oux.s 			page 2


  58              	@ -floop-unroll-and-jam -flra-remat -fmerge-constants -fmerge-debug-strings
  59              	@ -fmove-loop-invariants -fomit-frame-pointer -foptimize-sibling-calls
  60              	@ -foptimize-strlen -fpartial-inlining -fpeel-loops -fpeephole -fpeephole2
  61              	@ -fplt -fpredictive-commoning -fprefetch-loop-arrays -freciprocal-math
  62              	@ -freg-struct-return -freorder-blocks -freorder-functions
  63              	@ -frerun-cse-after-loop -fsched-critical-path-heuristic
  64              	@ -fsched-dep-count-heuristic -fsched-group-heuristic -fsched-interblock
  65              	@ -fsched-last-insn-heuristic -fsched-pressure -fsched-rank-heuristic
  66              	@ -fsched-spec -fsched-spec-insn-heuristic -fsched-stalled-insns-dep
  67              	@ -fschedule-insns -fschedule-insns2 -fsection-anchors
  68              	@ -fsemantic-interposition -fshow-column -fshrink-wrap
  69              	@ -fshrink-wrap-separate -fsplit-ivs-in-unroller -fsplit-loops
  70              	@ -fsplit-paths -fsplit-wide-types -fssa-backprop -fssa-phiopt -fstdarg-opt
  71              	@ -fstore-merging -fstrict-aliasing -fstrict-volatile-bitfields
  72              	@ -fsync-libcalls -fthread-jumps -ftoplevel-reorder -ftree-bit-ccp
  73              	@ -ftree-builtin-call-dce -ftree-ccp -ftree-ch -ftree-coalesce-vars
  74              	@ -ftree-copy-prop -ftree-cselim -ftree-dce -ftree-dominator-opts
  75              	@ -ftree-dse -ftree-forwprop -ftree-fre -ftree-loop-distribute-patterns
  76              	@ -ftree-loop-distribution -ftree-loop-if-convert -ftree-loop-im
  77              	@ -ftree-loop-ivcanon -ftree-loop-optimize -ftree-loop-vectorize
  78              	@ -ftree-parallelize-loops= -ftree-partial-pre -ftree-phiprop -ftree-pre
  79              	@ -ftree-pta -ftree-reassoc -ftree-scev-cprop -ftree-sink
  80              	@ -ftree-slp-vectorize -ftree-slsr -ftree-sra -ftree-switch-conversion
  81              	@ -ftree-tail-merge -ftree-ter -ftree-vrp -funit-at-a-time
  82              	@ -funsafe-math-optimizations -funswitch-loops -fvar-tracking
  83              	@ -fvar-tracking-assignments -fverbose-asm -fversion-loops-for-strides
  84              	@ -fzero-initialized-in-bss -masm-syntax-unified -mbe32 -mlittle-endian
  85              	@ -mpic-data-is-text-relative -msched-prolog -mthumb -munaligned-access
  86              	@ -mvectorize-with-neon-quad
  87              	
  88              		.text
  89              	.Ltext0:
  90              		.cfi_sections	.debug_frame
  91              		.section	.text.SPI_I2S_DeInit,"ax",%progbits
  92              		.align	1
  93              		.p2align 2,,3
  94              		.global	SPI_I2S_DeInit
  95              		.syntax unified
  96              		.thumb
  97              		.thumb_func
  98              		.type	SPI_I2S_DeInit, %function
  99              	SPI_I2S_DeInit:
 100              	.LVL0:
 101              	.LFB110:
 102              		.file 1 "../Libraries/STM32F4xx_StdPeriph_Driver/src/stm32f4xx_spi.c"
   1:../Libraries/STM32F4xx_StdPeriph_Driver/src/stm32f4xx_spi.c **** /**
   2:../Libraries/STM32F4xx_StdPeriph_Driver/src/stm32f4xx_spi.c ****   ******************************************************************************
   3:../Libraries/STM32F4xx_StdPeriph_Driver/src/stm32f4xx_spi.c ****   * @file    stm32f4xx_spi.c
   4:../Libraries/STM32F4xx_StdPeriph_Driver/src/stm32f4xx_spi.c ****   * @author  MCD Application Team
   5:../Libraries/STM32F4xx_StdPeriph_Driver/src/stm32f4xx_spi.c ****   * @version V1.0.0
   6:../Libraries/STM32F4xx_StdPeriph_Driver/src/stm32f4xx_spi.c ****   * @date    30-September-2011
   7:../Libraries/STM32F4xx_StdPeriph_Driver/src/stm32f4xx_spi.c ****   * @brief   This file provides firmware functions to manage the following 
   8:../Libraries/STM32F4xx_StdPeriph_Driver/src/stm32f4xx_spi.c ****   *          functionalities of the Serial peripheral interface (SPI):
   9:../Libraries/STM32F4xx_StdPeriph_Driver/src/stm32f4xx_spi.c ****   *           - Initialization and Configuration
  10:../Libraries/STM32F4xx_StdPeriph_Driver/src/stm32f4xx_spi.c ****   *           - Data transfers functions
  11:../Libraries/STM32F4xx_StdPeriph_Driver/src/stm32f4xx_spi.c ****   *           - Hardware CRC Calculation
  12:../Libraries/STM32F4xx_StdPeriph_Driver/src/stm32f4xx_spi.c ****   *           - DMA transfers management
ARM GAS  C:\Users\admin\AppData\Local\Temp\ccLq5Oux.s 			page 3


  13:../Libraries/STM32F4xx_StdPeriph_Driver/src/stm32f4xx_spi.c ****   *           - Interrupts and flags management 
  14:../Libraries/STM32F4xx_StdPeriph_Driver/src/stm32f4xx_spi.c ****   *           
  15:../Libraries/STM32F4xx_StdPeriph_Driver/src/stm32f4xx_spi.c ****   *  @verbatim
  16:../Libraries/STM32F4xx_StdPeriph_Driver/src/stm32f4xx_spi.c ****   *          
  17:../Libraries/STM32F4xx_StdPeriph_Driver/src/stm32f4xx_spi.c ****   *                    
  18:../Libraries/STM32F4xx_StdPeriph_Driver/src/stm32f4xx_spi.c ****   *          ===================================================================
  19:../Libraries/STM32F4xx_StdPeriph_Driver/src/stm32f4xx_spi.c ****   *                                 How to use this driver
  20:../Libraries/STM32F4xx_StdPeriph_Driver/src/stm32f4xx_spi.c ****   *          ===================================================================
  21:../Libraries/STM32F4xx_StdPeriph_Driver/src/stm32f4xx_spi.c ****   *    
  22:../Libraries/STM32F4xx_StdPeriph_Driver/src/stm32f4xx_spi.c ****   *          1. Enable peripheral clock using the following functions 
  23:../Libraries/STM32F4xx_StdPeriph_Driver/src/stm32f4xx_spi.c ****   *             RCC_APB2PeriphClockCmd(RCC_APB2Periph_SPI1, ENABLE) for SPI1
  24:../Libraries/STM32F4xx_StdPeriph_Driver/src/stm32f4xx_spi.c ****   *             RCC_APB1PeriphClockCmd(RCC_APB1Periph_SPI2, ENABLE) for SPI2
  25:../Libraries/STM32F4xx_StdPeriph_Driver/src/stm32f4xx_spi.c ****   *             RCC_APB1PeriphResetCmd(RCC_APB1Periph_SPI3, ENABLE) for SPI3.
  26:../Libraries/STM32F4xx_StdPeriph_Driver/src/stm32f4xx_spi.c ****   *
  27:../Libraries/STM32F4xx_StdPeriph_Driver/src/stm32f4xx_spi.c ****   *          2. Enable SCK, MOSI, MISO and NSS GPIO clocks using RCC_AHB1PeriphClockCmd()
  28:../Libraries/STM32F4xx_StdPeriph_Driver/src/stm32f4xx_spi.c ****   *             function.
  29:../Libraries/STM32F4xx_StdPeriph_Driver/src/stm32f4xx_spi.c ****   *             In I2S mode, if an external clock source is used then the I2S CKIN pin GPIO
  30:../Libraries/STM32F4xx_StdPeriph_Driver/src/stm32f4xx_spi.c ****   *             clock should also be enabled.
  31:../Libraries/STM32F4xx_StdPeriph_Driver/src/stm32f4xx_spi.c ****   *
  32:../Libraries/STM32F4xx_StdPeriph_Driver/src/stm32f4xx_spi.c ****   *          3. Peripherals alternate function: 
  33:../Libraries/STM32F4xx_StdPeriph_Driver/src/stm32f4xx_spi.c ****   *                 - Connect the pin to the desired peripherals' Alternate 
  34:../Libraries/STM32F4xx_StdPeriph_Driver/src/stm32f4xx_spi.c ****   *                   Function (AF) using GPIO_PinAFConfig() function
  35:../Libraries/STM32F4xx_StdPeriph_Driver/src/stm32f4xx_spi.c ****   *                 - Configure the desired pin in alternate function by:
  36:../Libraries/STM32F4xx_StdPeriph_Driver/src/stm32f4xx_spi.c ****   *                   GPIO_InitStruct->GPIO_Mode = GPIO_Mode_AF
  37:../Libraries/STM32F4xx_StdPeriph_Driver/src/stm32f4xx_spi.c ****   *                 - Select the type, pull-up/pull-down and output speed via 
  38:../Libraries/STM32F4xx_StdPeriph_Driver/src/stm32f4xx_spi.c ****   *                   GPIO_PuPd, GPIO_OType and GPIO_Speed members
  39:../Libraries/STM32F4xx_StdPeriph_Driver/src/stm32f4xx_spi.c ****   *                 - Call GPIO_Init() function
  40:../Libraries/STM32F4xx_StdPeriph_Driver/src/stm32f4xx_spi.c ****   *              In I2S mode, if an external clock source is used then the I2S CKIN pin
  41:../Libraries/STM32F4xx_StdPeriph_Driver/src/stm32f4xx_spi.c ****   *              should be also configured in Alternate function Push-pull pull-up mode. 
  42:../Libraries/STM32F4xx_StdPeriph_Driver/src/stm32f4xx_spi.c ****   *        
  43:../Libraries/STM32F4xx_StdPeriph_Driver/src/stm32f4xx_spi.c ****   *          4. Program the Polarity, Phase, First Data, Baud Rate Prescaler, Slave 
  44:../Libraries/STM32F4xx_StdPeriph_Driver/src/stm32f4xx_spi.c ****   *             Management, Peripheral Mode and CRC Polynomial values using the SPI_Init()
  45:../Libraries/STM32F4xx_StdPeriph_Driver/src/stm32f4xx_spi.c ****   *             function.
  46:../Libraries/STM32F4xx_StdPeriph_Driver/src/stm32f4xx_spi.c ****   *             In I2S mode, program the Mode, Standard, Data Format, MCLK Output, Audio 
  47:../Libraries/STM32F4xx_StdPeriph_Driver/src/stm32f4xx_spi.c ****   *             frequency and Polarity using I2S_Init() function.
  48:../Libraries/STM32F4xx_StdPeriph_Driver/src/stm32f4xx_spi.c ****   *             For I2S mode, make sure that either:
  49:../Libraries/STM32F4xx_StdPeriph_Driver/src/stm32f4xx_spi.c ****   *              - I2S PLL is configured using the functions RCC_I2SCLKConfig(RCC_I2S2CLKSource_PLL
  50:../Libraries/STM32F4xx_StdPeriph_Driver/src/stm32f4xx_spi.c ****   *                RCC_PLLI2SCmd(ENABLE) and RCC_GetFlagStatus(RCC_FLAG_PLLI2SRDY).
  51:../Libraries/STM32F4xx_StdPeriph_Driver/src/stm32f4xx_spi.c ****   *              or 
  52:../Libraries/STM32F4xx_StdPeriph_Driver/src/stm32f4xx_spi.c ****   *              - External clock source is configured using the function 
  53:../Libraries/STM32F4xx_StdPeriph_Driver/src/stm32f4xx_spi.c ****   *                RCC_I2SCLKConfig(RCC_I2S2CLKSource_Ext) and after setting correctly the define c
  54:../Libraries/STM32F4xx_StdPeriph_Driver/src/stm32f4xx_spi.c ****   *                I2S_EXTERNAL_CLOCK_VAL in the stm32f4xx_conf.h file. 
  55:../Libraries/STM32F4xx_StdPeriph_Driver/src/stm32f4xx_spi.c ****   *
  56:../Libraries/STM32F4xx_StdPeriph_Driver/src/stm32f4xx_spi.c ****   *          5. Enable the NVIC and the corresponding interrupt using the function 
  57:../Libraries/STM32F4xx_StdPeriph_Driver/src/stm32f4xx_spi.c ****   *             SPI_ITConfig() if you need to use interrupt mode. 
  58:../Libraries/STM32F4xx_StdPeriph_Driver/src/stm32f4xx_spi.c ****   *
  59:../Libraries/STM32F4xx_StdPeriph_Driver/src/stm32f4xx_spi.c ****   *          6. When using the DMA mode 
  60:../Libraries/STM32F4xx_StdPeriph_Driver/src/stm32f4xx_spi.c ****   *                   - Configure the DMA using DMA_Init() function
  61:../Libraries/STM32F4xx_StdPeriph_Driver/src/stm32f4xx_spi.c ****   *                   - Active the needed channel Request using SPI_I2S_DMACmd() function
  62:../Libraries/STM32F4xx_StdPeriph_Driver/src/stm32f4xx_spi.c ****   * 
  63:../Libraries/STM32F4xx_StdPeriph_Driver/src/stm32f4xx_spi.c ****   *          7. Enable the SPI using the SPI_Cmd() function or enable the I2S using
  64:../Libraries/STM32F4xx_StdPeriph_Driver/src/stm32f4xx_spi.c ****   *             I2S_Cmd().
  65:../Libraries/STM32F4xx_StdPeriph_Driver/src/stm32f4xx_spi.c ****   * 
  66:../Libraries/STM32F4xx_StdPeriph_Driver/src/stm32f4xx_spi.c ****   *          8. Enable the DMA using the DMA_Cmd() function when using DMA mode. 
  67:../Libraries/STM32F4xx_StdPeriph_Driver/src/stm32f4xx_spi.c ****   *
  68:../Libraries/STM32F4xx_StdPeriph_Driver/src/stm32f4xx_spi.c ****   *          9. Optionally, you can enable/configure the following parameters without
  69:../Libraries/STM32F4xx_StdPeriph_Driver/src/stm32f4xx_spi.c ****   *             re-initialization (i.e there is no need to call again SPI_Init() function):
ARM GAS  C:\Users\admin\AppData\Local\Temp\ccLq5Oux.s 			page 4


  70:../Libraries/STM32F4xx_StdPeriph_Driver/src/stm32f4xx_spi.c ****   *              - When bidirectional mode (SPI_Direction_1Line_Rx or SPI_Direction_1Line_Tx)
  71:../Libraries/STM32F4xx_StdPeriph_Driver/src/stm32f4xx_spi.c ****   *                is programmed as Data direction parameter using the SPI_Init() function
  72:../Libraries/STM32F4xx_StdPeriph_Driver/src/stm32f4xx_spi.c ****   *                it can be possible to switch between SPI_Direction_Tx or SPI_Direction_Rx
  73:../Libraries/STM32F4xx_StdPeriph_Driver/src/stm32f4xx_spi.c ****   *                using the SPI_BiDirectionalLineConfig() function.
  74:../Libraries/STM32F4xx_StdPeriph_Driver/src/stm32f4xx_spi.c ****   *              - When SPI_NSS_Soft is selected as Slave Select Management parameter 
  75:../Libraries/STM32F4xx_StdPeriph_Driver/src/stm32f4xx_spi.c ****   *                using the SPI_Init() function it can be possible to manage the 
  76:../Libraries/STM32F4xx_StdPeriph_Driver/src/stm32f4xx_spi.c ****   *                NSS internal signal using the SPI_NSSInternalSoftwareConfig() function.
  77:../Libraries/STM32F4xx_StdPeriph_Driver/src/stm32f4xx_spi.c ****   *              - Reconfigure the data size using the SPI_DataSizeConfig() function  
  78:../Libraries/STM32F4xx_StdPeriph_Driver/src/stm32f4xx_spi.c ****   *              - Enable or disable the SS output using the SPI_SSOutputCmd() function  
  79:../Libraries/STM32F4xx_StdPeriph_Driver/src/stm32f4xx_spi.c ****   *          
  80:../Libraries/STM32F4xx_StdPeriph_Driver/src/stm32f4xx_spi.c ****   *          10. To use the CRC Hardware calculation feature refer to the Peripheral 
  81:../Libraries/STM32F4xx_StdPeriph_Driver/src/stm32f4xx_spi.c ****   *              CRC hardware Calculation subsection.
  82:../Libraries/STM32F4xx_StdPeriph_Driver/src/stm32f4xx_spi.c ****   *   
  83:../Libraries/STM32F4xx_StdPeriph_Driver/src/stm32f4xx_spi.c ****   *
  84:../Libraries/STM32F4xx_StdPeriph_Driver/src/stm32f4xx_spi.c ****   *          It is possible to use SPI in I2S full duplex mode, in this case, each SPI 
  85:../Libraries/STM32F4xx_StdPeriph_Driver/src/stm32f4xx_spi.c ****   *          peripheral is able to manage sending and receiving data simultaneously
  86:../Libraries/STM32F4xx_StdPeriph_Driver/src/stm32f4xx_spi.c ****   *          using two data lines. Each SPI peripheral has an extended block called I2Sxext
  87:../Libraries/STM32F4xx_StdPeriph_Driver/src/stm32f4xx_spi.c ****   *          (ie. I2S2ext for SPI2 and I2S3ext for SPI3).
  88:../Libraries/STM32F4xx_StdPeriph_Driver/src/stm32f4xx_spi.c ****   *          The extension block is not a full SPI IP, it is used only as I2S slave to
  89:../Libraries/STM32F4xx_StdPeriph_Driver/src/stm32f4xx_spi.c ****   *          implement full duplex mode. The extension block uses the same clock sources
  90:../Libraries/STM32F4xx_StdPeriph_Driver/src/stm32f4xx_spi.c ****   *          as its master.          
  91:../Libraries/STM32F4xx_StdPeriph_Driver/src/stm32f4xx_spi.c ****   *          To configure I2S full duplex you have to:
  92:../Libraries/STM32F4xx_StdPeriph_Driver/src/stm32f4xx_spi.c ****   *            
  93:../Libraries/STM32F4xx_StdPeriph_Driver/src/stm32f4xx_spi.c ****   *          1. Configure SPIx in I2S mode (I2S_Init() function) as described above. 
  94:../Libraries/STM32F4xx_StdPeriph_Driver/src/stm32f4xx_spi.c ****   *           
  95:../Libraries/STM32F4xx_StdPeriph_Driver/src/stm32f4xx_spi.c ****   *          2. Call the I2S_FullDuplexConfig() function using the same strucutre passed to  
  96:../Libraries/STM32F4xx_StdPeriph_Driver/src/stm32f4xx_spi.c ****   *             I2S_Init() function.
  97:../Libraries/STM32F4xx_StdPeriph_Driver/src/stm32f4xx_spi.c ****   *            
  98:../Libraries/STM32F4xx_StdPeriph_Driver/src/stm32f4xx_spi.c ****   *          3. Call I2S_Cmd() for SPIx then for its extended block.
  99:../Libraries/STM32F4xx_StdPeriph_Driver/src/stm32f4xx_spi.c ****   *          
 100:../Libraries/STM32F4xx_StdPeriph_Driver/src/stm32f4xx_spi.c ****   *          4. To configure interrupts or DMA requests and to get/clear flag status, 
 101:../Libraries/STM32F4xx_StdPeriph_Driver/src/stm32f4xx_spi.c ****   *             use I2Sxext instance for the extension block.
 102:../Libraries/STM32F4xx_StdPeriph_Driver/src/stm32f4xx_spi.c ****   *             
 103:../Libraries/STM32F4xx_StdPeriph_Driver/src/stm32f4xx_spi.c ****   *          Functions that can be called with I2Sxext instances are:
 104:../Libraries/STM32F4xx_StdPeriph_Driver/src/stm32f4xx_spi.c ****   *          I2S_Cmd(), I2S_FullDuplexConfig(), SPI_I2S_ReceiveData(), SPI_I2S_SendData(), 
 105:../Libraries/STM32F4xx_StdPeriph_Driver/src/stm32f4xx_spi.c ****   *          SPI_I2S_DMACmd(), SPI_I2S_ITConfig(), SPI_I2S_GetFlagStatus(), SPI_I2S_ClearFlag(),
 106:../Libraries/STM32F4xx_StdPeriph_Driver/src/stm32f4xx_spi.c ****   *          SPI_I2S_GetITStatus() and SPI_I2S_ClearITPendingBit().
 107:../Libraries/STM32F4xx_StdPeriph_Driver/src/stm32f4xx_spi.c ****   *                 
 108:../Libraries/STM32F4xx_StdPeriph_Driver/src/stm32f4xx_spi.c ****   *          Example: To use SPI3 in Full duplex mode (SPI3 is Master Tx, I2S3ext is Slave Rx):
 109:../Libraries/STM32F4xx_StdPeriph_Driver/src/stm32f4xx_spi.c ****   *            
 110:../Libraries/STM32F4xx_StdPeriph_Driver/src/stm32f4xx_spi.c ****   *          RCC_APB1PeriphClockCmd(RCC_APB1Periph_SPI3, ENABLE);   
 111:../Libraries/STM32F4xx_StdPeriph_Driver/src/stm32f4xx_spi.c ****   *          I2S_StructInit(&I2SInitStruct);
 112:../Libraries/STM32F4xx_StdPeriph_Driver/src/stm32f4xx_spi.c ****   *          I2SInitStruct.Mode = I2S_Mode_MasterTx;     
 113:../Libraries/STM32F4xx_StdPeriph_Driver/src/stm32f4xx_spi.c ****   *          I2S_Init(SPI3, &I2SInitStruct);
 114:../Libraries/STM32F4xx_StdPeriph_Driver/src/stm32f4xx_spi.c ****   *          I2S_FullDuplexConfig(SPI3ext, &I2SInitStruct)
 115:../Libraries/STM32F4xx_StdPeriph_Driver/src/stm32f4xx_spi.c ****   *          I2S_Cmd(SPI3, ENABLE);
 116:../Libraries/STM32F4xx_StdPeriph_Driver/src/stm32f4xx_spi.c ****   *          I2S_Cmd(SPI3ext, ENABLE);
 117:../Libraries/STM32F4xx_StdPeriph_Driver/src/stm32f4xx_spi.c ****   *          ...
 118:../Libraries/STM32F4xx_StdPeriph_Driver/src/stm32f4xx_spi.c ****   *          while (SPI_I2S_GetFlagStatus(SPI2, SPI_FLAG_TXE) == RESET)
 119:../Libraries/STM32F4xx_StdPeriph_Driver/src/stm32f4xx_spi.c ****   *          {}
 120:../Libraries/STM32F4xx_StdPeriph_Driver/src/stm32f4xx_spi.c ****   *          SPI_I2S_SendData(SPI3, txdata[i]);
 121:../Libraries/STM32F4xx_StdPeriph_Driver/src/stm32f4xx_spi.c ****   *          ...  
 122:../Libraries/STM32F4xx_StdPeriph_Driver/src/stm32f4xx_spi.c ****   *          while (SPI_I2S_GetFlagStatus(I2S3ext, SPI_FLAG_RXNE) == RESET)
 123:../Libraries/STM32F4xx_StdPeriph_Driver/src/stm32f4xx_spi.c ****   *          {}
 124:../Libraries/STM32F4xx_StdPeriph_Driver/src/stm32f4xx_spi.c ****   *          rxdata[i] = SPI_I2S_ReceiveData(I2S3ext);
 125:../Libraries/STM32F4xx_StdPeriph_Driver/src/stm32f4xx_spi.c ****   *          ...          
 126:../Libraries/STM32F4xx_StdPeriph_Driver/src/stm32f4xx_spi.c ****   *              
ARM GAS  C:\Users\admin\AppData\Local\Temp\ccLq5Oux.s 			page 5


 127:../Libraries/STM32F4xx_StdPeriph_Driver/src/stm32f4xx_spi.c ****   *     
 128:../Libraries/STM32F4xx_StdPeriph_Driver/src/stm32f4xx_spi.c ****   * @note    In I2S mode: if an external clock is used as source clock for the I2S,  
 129:../Libraries/STM32F4xx_StdPeriph_Driver/src/stm32f4xx_spi.c ****   *          then the define I2S_EXTERNAL_CLOCK_VAL in file stm32f4xx_conf.h should 
 130:../Libraries/STM32F4xx_StdPeriph_Driver/src/stm32f4xx_spi.c ****   *          be enabled and set to the value of the source clock frequency (in Hz).
 131:../Libraries/STM32F4xx_StdPeriph_Driver/src/stm32f4xx_spi.c ****   * 
 132:../Libraries/STM32F4xx_StdPeriph_Driver/src/stm32f4xx_spi.c ****   * @note    In SPI mode: To use the SPI TI mode, call the function SPI_TIModeCmd() 
 133:../Libraries/STM32F4xx_StdPeriph_Driver/src/stm32f4xx_spi.c ****   *          just after calling the function SPI_Init().
 134:../Libraries/STM32F4xx_StdPeriph_Driver/src/stm32f4xx_spi.c ****   *
 135:../Libraries/STM32F4xx_StdPeriph_Driver/src/stm32f4xx_spi.c ****   *  @endverbatim  
 136:../Libraries/STM32F4xx_StdPeriph_Driver/src/stm32f4xx_spi.c ****   *                                  
 137:../Libraries/STM32F4xx_StdPeriph_Driver/src/stm32f4xx_spi.c ****   ******************************************************************************
 138:../Libraries/STM32F4xx_StdPeriph_Driver/src/stm32f4xx_spi.c ****   * @attention
 139:../Libraries/STM32F4xx_StdPeriph_Driver/src/stm32f4xx_spi.c ****   *
 140:../Libraries/STM32F4xx_StdPeriph_Driver/src/stm32f4xx_spi.c ****   * THE PRESENT FIRMWARE WHICH IS FOR GUIDANCE ONLY AIMS AT PROVIDING CUSTOMERS
 141:../Libraries/STM32F4xx_StdPeriph_Driver/src/stm32f4xx_spi.c ****   * WITH CODING INFORMATION REGARDING THEIR PRODUCTS IN ORDER FOR THEM TO SAVE
 142:../Libraries/STM32F4xx_StdPeriph_Driver/src/stm32f4xx_spi.c ****   * TIME. AS A RESULT, STMICROELECTRONICS SHALL NOT BE HELD LIABLE FOR ANY
 143:../Libraries/STM32F4xx_StdPeriph_Driver/src/stm32f4xx_spi.c ****   * DIRECT, INDIRECT OR CONSEQUENTIAL DAMAGES WITH RESPECT TO ANY CLAIMS ARISING
 144:../Libraries/STM32F4xx_StdPeriph_Driver/src/stm32f4xx_spi.c ****   * FROM THE CONTENT OF SUCH FIRMWARE AND/OR THE USE MADE BY CUSTOMERS OF THE
 145:../Libraries/STM32F4xx_StdPeriph_Driver/src/stm32f4xx_spi.c ****   * CODING INFORMATION CONTAINED HEREIN IN CONNECTION WITH THEIR PRODUCTS.
 146:../Libraries/STM32F4xx_StdPeriph_Driver/src/stm32f4xx_spi.c ****   *
 147:../Libraries/STM32F4xx_StdPeriph_Driver/src/stm32f4xx_spi.c ****   * <h2><center>&copy; COPYRIGHT 2011 STMicroelectronics</center></h2>
 148:../Libraries/STM32F4xx_StdPeriph_Driver/src/stm32f4xx_spi.c ****   ******************************************************************************  
 149:../Libraries/STM32F4xx_StdPeriph_Driver/src/stm32f4xx_spi.c ****   */ 
 150:../Libraries/STM32F4xx_StdPeriph_Driver/src/stm32f4xx_spi.c **** 
 151:../Libraries/STM32F4xx_StdPeriph_Driver/src/stm32f4xx_spi.c **** /* Includes ------------------------------------------------------------------*/
 152:../Libraries/STM32F4xx_StdPeriph_Driver/src/stm32f4xx_spi.c **** #include "stm32f4xx_spi.h"
 153:../Libraries/STM32F4xx_StdPeriph_Driver/src/stm32f4xx_spi.c **** #include "stm32f4xx_rcc.h"
 154:../Libraries/STM32F4xx_StdPeriph_Driver/src/stm32f4xx_spi.c **** #include <stm32f4xx_conf.h>
 155:../Libraries/STM32F4xx_StdPeriph_Driver/src/stm32f4xx_spi.c **** 
 156:../Libraries/STM32F4xx_StdPeriph_Driver/src/stm32f4xx_spi.c **** /** @addtogroup STM32F4xx_StdPeriph_Driver
 157:../Libraries/STM32F4xx_StdPeriph_Driver/src/stm32f4xx_spi.c ****   * @{
 158:../Libraries/STM32F4xx_StdPeriph_Driver/src/stm32f4xx_spi.c ****   */
 159:../Libraries/STM32F4xx_StdPeriph_Driver/src/stm32f4xx_spi.c **** 
 160:../Libraries/STM32F4xx_StdPeriph_Driver/src/stm32f4xx_spi.c **** /** @defgroup SPI 
 161:../Libraries/STM32F4xx_StdPeriph_Driver/src/stm32f4xx_spi.c ****   * @brief SPI driver modules
 162:../Libraries/STM32F4xx_StdPeriph_Driver/src/stm32f4xx_spi.c ****   * @{
 163:../Libraries/STM32F4xx_StdPeriph_Driver/src/stm32f4xx_spi.c ****   */ 
 164:../Libraries/STM32F4xx_StdPeriph_Driver/src/stm32f4xx_spi.c **** 
 165:../Libraries/STM32F4xx_StdPeriph_Driver/src/stm32f4xx_spi.c **** /* Private typedef -----------------------------------------------------------*/
 166:../Libraries/STM32F4xx_StdPeriph_Driver/src/stm32f4xx_spi.c **** /* Private define ------------------------------------------------------------*/
 167:../Libraries/STM32F4xx_StdPeriph_Driver/src/stm32f4xx_spi.c **** 
 168:../Libraries/STM32F4xx_StdPeriph_Driver/src/stm32f4xx_spi.c **** /* SPI registers Masks */
 169:../Libraries/STM32F4xx_StdPeriph_Driver/src/stm32f4xx_spi.c **** #define CR1_CLEAR_MASK            ((uint16_t)0x3040)
 170:../Libraries/STM32F4xx_StdPeriph_Driver/src/stm32f4xx_spi.c **** #define I2SCFGR_CLEAR_MASK        ((uint16_t)0xF040)
 171:../Libraries/STM32F4xx_StdPeriph_Driver/src/stm32f4xx_spi.c **** 
 172:../Libraries/STM32F4xx_StdPeriph_Driver/src/stm32f4xx_spi.c **** /* RCC PLLs masks */
 173:../Libraries/STM32F4xx_StdPeriph_Driver/src/stm32f4xx_spi.c **** #define PLLCFGR_PPLR_MASK         ((uint32_t)0x70000000)
 174:../Libraries/STM32F4xx_StdPeriph_Driver/src/stm32f4xx_spi.c **** #define PLLCFGR_PPLN_MASK         ((uint32_t)0x00007FC0)
 175:../Libraries/STM32F4xx_StdPeriph_Driver/src/stm32f4xx_spi.c **** 
 176:../Libraries/STM32F4xx_StdPeriph_Driver/src/stm32f4xx_spi.c **** #define SPI_CR2_FRF               ((uint16_t)0x0010)
 177:../Libraries/STM32F4xx_StdPeriph_Driver/src/stm32f4xx_spi.c **** #define SPI_SR_TIFRFE             ((uint16_t)0x0100)
 178:../Libraries/STM32F4xx_StdPeriph_Driver/src/stm32f4xx_spi.c **** 
 179:../Libraries/STM32F4xx_StdPeriph_Driver/src/stm32f4xx_spi.c **** /* Private macro -------------------------------------------------------------*/
 180:../Libraries/STM32F4xx_StdPeriph_Driver/src/stm32f4xx_spi.c **** /* Private variables ---------------------------------------------------------*/
 181:../Libraries/STM32F4xx_StdPeriph_Driver/src/stm32f4xx_spi.c **** /* Private function prototypes -----------------------------------------------*/
 182:../Libraries/STM32F4xx_StdPeriph_Driver/src/stm32f4xx_spi.c **** /* Private functions ---------------------------------------------------------*/
 183:../Libraries/STM32F4xx_StdPeriph_Driver/src/stm32f4xx_spi.c **** 
ARM GAS  C:\Users\admin\AppData\Local\Temp\ccLq5Oux.s 			page 6


 184:../Libraries/STM32F4xx_StdPeriph_Driver/src/stm32f4xx_spi.c **** /** @defgroup SPI_Private_Functions
 185:../Libraries/STM32F4xx_StdPeriph_Driver/src/stm32f4xx_spi.c ****   * @{
 186:../Libraries/STM32F4xx_StdPeriph_Driver/src/stm32f4xx_spi.c ****   */
 187:../Libraries/STM32F4xx_StdPeriph_Driver/src/stm32f4xx_spi.c **** 
 188:../Libraries/STM32F4xx_StdPeriph_Driver/src/stm32f4xx_spi.c **** /** @defgroup SPI_Group1 Initialization and Configuration functions
 189:../Libraries/STM32F4xx_StdPeriph_Driver/src/stm32f4xx_spi.c ****  *  @brief   Initialization and Configuration functions 
 190:../Libraries/STM32F4xx_StdPeriph_Driver/src/stm32f4xx_spi.c ****  *
 191:../Libraries/STM32F4xx_StdPeriph_Driver/src/stm32f4xx_spi.c **** @verbatim   
 192:../Libraries/STM32F4xx_StdPeriph_Driver/src/stm32f4xx_spi.c ****  ===============================================================================
 193:../Libraries/STM32F4xx_StdPeriph_Driver/src/stm32f4xx_spi.c ****                   Initialization and Configuration functions
 194:../Libraries/STM32F4xx_StdPeriph_Driver/src/stm32f4xx_spi.c ****  ===============================================================================  
 195:../Libraries/STM32F4xx_StdPeriph_Driver/src/stm32f4xx_spi.c **** 
 196:../Libraries/STM32F4xx_StdPeriph_Driver/src/stm32f4xx_spi.c ****   This section provides a set of functions allowing to initialize the SPI Direction,
 197:../Libraries/STM32F4xx_StdPeriph_Driver/src/stm32f4xx_spi.c ****   SPI Mode, SPI Data Size, SPI Polarity, SPI Phase, SPI NSS Management, SPI Baud
 198:../Libraries/STM32F4xx_StdPeriph_Driver/src/stm32f4xx_spi.c ****   Rate Prescaler, SPI First Bit and SPI CRC Polynomial.
 199:../Libraries/STM32F4xx_StdPeriph_Driver/src/stm32f4xx_spi.c ****   
 200:../Libraries/STM32F4xx_StdPeriph_Driver/src/stm32f4xx_spi.c ****   The SPI_Init() function follows the SPI configuration procedures for Master mode
 201:../Libraries/STM32F4xx_StdPeriph_Driver/src/stm32f4xx_spi.c ****   and Slave mode (details for these procedures are available in reference manual
 202:../Libraries/STM32F4xx_StdPeriph_Driver/src/stm32f4xx_spi.c ****   (RM0090)).
 203:../Libraries/STM32F4xx_StdPeriph_Driver/src/stm32f4xx_spi.c ****   
 204:../Libraries/STM32F4xx_StdPeriph_Driver/src/stm32f4xx_spi.c **** @endverbatim
 205:../Libraries/STM32F4xx_StdPeriph_Driver/src/stm32f4xx_spi.c ****   * @{
 206:../Libraries/STM32F4xx_StdPeriph_Driver/src/stm32f4xx_spi.c ****   */
 207:../Libraries/STM32F4xx_StdPeriph_Driver/src/stm32f4xx_spi.c **** 
 208:../Libraries/STM32F4xx_StdPeriph_Driver/src/stm32f4xx_spi.c **** /**
 209:../Libraries/STM32F4xx_StdPeriph_Driver/src/stm32f4xx_spi.c ****   * @brief  Deinitialize the SPIx peripheral registers to their default reset values.
 210:../Libraries/STM32F4xx_StdPeriph_Driver/src/stm32f4xx_spi.c ****   * @param  SPIx: To select the SPIx/I2Sx peripheral, where x can be: 1, 2 or 3 
 211:../Libraries/STM32F4xx_StdPeriph_Driver/src/stm32f4xx_spi.c ****   *         in SPI mode or 2 or 3 in I2S mode.   
 212:../Libraries/STM32F4xx_StdPeriph_Driver/src/stm32f4xx_spi.c ****   *         
 213:../Libraries/STM32F4xx_StdPeriph_Driver/src/stm32f4xx_spi.c ****   * @note   The extended I2S blocks (ie. I2S2ext and I2S3ext blocks) are deinitialized
 214:../Libraries/STM32F4xx_StdPeriph_Driver/src/stm32f4xx_spi.c ****   *         when the relative I2S peripheral is deinitialized (the extended block's clock
 215:../Libraries/STM32F4xx_StdPeriph_Driver/src/stm32f4xx_spi.c ****   *         is managed by the I2S peripheral clock).
 216:../Libraries/STM32F4xx_StdPeriph_Driver/src/stm32f4xx_spi.c ****   *             
 217:../Libraries/STM32F4xx_StdPeriph_Driver/src/stm32f4xx_spi.c ****   * @retval None
 218:../Libraries/STM32F4xx_StdPeriph_Driver/src/stm32f4xx_spi.c ****   */
 219:../Libraries/STM32F4xx_StdPeriph_Driver/src/stm32f4xx_spi.c **** void SPI_I2S_DeInit(SPI_TypeDef* SPIx)
 220:../Libraries/STM32F4xx_StdPeriph_Driver/src/stm32f4xx_spi.c **** {
 103              		.loc 1 220 1 view -0
 104              		.cfi_startproc
 105              		@ args = 0, pretend = 0, frame = 0
 106              		@ frame_needed = 0, uses_anonymous_args = 0
 221:../Libraries/STM32F4xx_StdPeriph_Driver/src/stm32f4xx_spi.c ****   /* Check the parameters */
 222:../Libraries/STM32F4xx_StdPeriph_Driver/src/stm32f4xx_spi.c ****   assert_param(IS_SPI_ALL_PERIPH(SPIx));
 107              		.loc 1 222 3 view .LVU1
 223:../Libraries/STM32F4xx_StdPeriph_Driver/src/stm32f4xx_spi.c **** 
 224:../Libraries/STM32F4xx_StdPeriph_Driver/src/stm32f4xx_spi.c ****   if (SPIx == SPI1)
 108              		.loc 1 224 3 view .LVU2
 109              	@ ../Libraries/STM32F4xx_StdPeriph_Driver/src/stm32f4xx_spi.c:220: {
 220:../Libraries/STM32F4xx_StdPeriph_Driver/src/stm32f4xx_spi.c ****   /* Check the parameters */
 110              		.loc 1 220 1 is_stmt 0 view .LVU3
 111 0000 08B5     		push	{r3, lr}	@
 112              		.cfi_def_cfa_offset 8
 113              		.cfi_offset 3, -8
 114              		.cfi_offset 14, -4
 115              	@ ../Libraries/STM32F4xx_StdPeriph_Driver/src/stm32f4xx_spi.c:224:   if (SPIx == SPI1)
 116              		.loc 1 224 6 view .LVU4
 117 0002 174B     		ldr	r3, .L10	@ tmp114,
ARM GAS  C:\Users\admin\AppData\Local\Temp\ccLq5Oux.s 			page 7


 118 0004 9842     		cmp	r0, r3	@ SPIx, tmp114
 119 0006 06D0     		beq	.L7		@,
 225:../Libraries/STM32F4xx_StdPeriph_Driver/src/stm32f4xx_spi.c ****   {
 226:../Libraries/STM32F4xx_StdPeriph_Driver/src/stm32f4xx_spi.c ****     /* Enable SPI1 reset state */
 227:../Libraries/STM32F4xx_StdPeriph_Driver/src/stm32f4xx_spi.c ****     RCC_APB2PeriphResetCmd(RCC_APB2Periph_SPI1, ENABLE);
 228:../Libraries/STM32F4xx_StdPeriph_Driver/src/stm32f4xx_spi.c ****     /* Release SPI1 from reset state */
 229:../Libraries/STM32F4xx_StdPeriph_Driver/src/stm32f4xx_spi.c ****     RCC_APB2PeriphResetCmd(RCC_APB2Periph_SPI1, DISABLE);
 230:../Libraries/STM32F4xx_StdPeriph_Driver/src/stm32f4xx_spi.c ****   }
 231:../Libraries/STM32F4xx_StdPeriph_Driver/src/stm32f4xx_spi.c ****   else if (SPIx == SPI2)
 120              		.loc 1 231 8 is_stmt 1 view .LVU5
 121              	@ ../Libraries/STM32F4xx_StdPeriph_Driver/src/stm32f4xx_spi.c:231:   else if (SPIx == SPI2)
 122              		.loc 1 231 11 is_stmt 0 view .LVU6
 123 0008 164B     		ldr	r3, .L10+4	@ tmp115,
 124 000a 9842     		cmp	r0, r3	@ SPIx, tmp115
 125 000c 0FD0     		beq	.L8		@,
 232:../Libraries/STM32F4xx_StdPeriph_Driver/src/stm32f4xx_spi.c ****   {
 233:../Libraries/STM32F4xx_StdPeriph_Driver/src/stm32f4xx_spi.c ****     /* Enable SPI2 reset state */
 234:../Libraries/STM32F4xx_StdPeriph_Driver/src/stm32f4xx_spi.c ****     RCC_APB1PeriphResetCmd(RCC_APB1Periph_SPI2, ENABLE);
 235:../Libraries/STM32F4xx_StdPeriph_Driver/src/stm32f4xx_spi.c ****     /* Release SPI2 from reset state */
 236:../Libraries/STM32F4xx_StdPeriph_Driver/src/stm32f4xx_spi.c ****     RCC_APB1PeriphResetCmd(RCC_APB1Periph_SPI2, DISABLE);
 237:../Libraries/STM32F4xx_StdPeriph_Driver/src/stm32f4xx_spi.c ****     }
 238:../Libraries/STM32F4xx_StdPeriph_Driver/src/stm32f4xx_spi.c ****   else
 239:../Libraries/STM32F4xx_StdPeriph_Driver/src/stm32f4xx_spi.c ****   {
 240:../Libraries/STM32F4xx_StdPeriph_Driver/src/stm32f4xx_spi.c ****     if (SPIx == SPI3)
 126              		.loc 1 240 5 is_stmt 1 view .LVU7
 127              	@ ../Libraries/STM32F4xx_StdPeriph_Driver/src/stm32f4xx_spi.c:240:     if (SPIx == SPI3)
 128              		.loc 1 240 8 is_stmt 0 view .LVU8
 129 000e 164B     		ldr	r3, .L10+8	@ tmp116,
 130 0010 9842     		cmp	r0, r3	@ SPIx, tmp116
 131 0012 18D0     		beq	.L9		@,
 132              	@ ../Libraries/STM32F4xx_StdPeriph_Driver/src/stm32f4xx_spi.c:248: }
 241:../Libraries/STM32F4xx_StdPeriph_Driver/src/stm32f4xx_spi.c ****     {
 242:../Libraries/STM32F4xx_StdPeriph_Driver/src/stm32f4xx_spi.c ****       /* Enable SPI3 reset state */
 243:../Libraries/STM32F4xx_StdPeriph_Driver/src/stm32f4xx_spi.c ****       RCC_APB1PeriphResetCmd(RCC_APB1Periph_SPI3, ENABLE);
 244:../Libraries/STM32F4xx_StdPeriph_Driver/src/stm32f4xx_spi.c ****       /* Release SPI3 from reset state */
 245:../Libraries/STM32F4xx_StdPeriph_Driver/src/stm32f4xx_spi.c ****       RCC_APB1PeriphResetCmd(RCC_APB1Periph_SPI3, DISABLE);
 246:../Libraries/STM32F4xx_StdPeriph_Driver/src/stm32f4xx_spi.c ****     }
 247:../Libraries/STM32F4xx_StdPeriph_Driver/src/stm32f4xx_spi.c ****   }
 248:../Libraries/STM32F4xx_StdPeriph_Driver/src/stm32f4xx_spi.c **** }
 133              		.loc 1 248 1 view .LVU9
 134 0014 08BD     		pop	{r3, pc}	@
 135              	.L7:
 227:../Libraries/STM32F4xx_StdPeriph_Driver/src/stm32f4xx_spi.c ****     /* Release SPI1 from reset state */
 136              		.loc 1 227 5 is_stmt 1 view .LVU10
 137 0016 0121     		movs	r1, #1	@,
 138 0018 4FF48050 		mov	r0, #4096	@,
 139              	.LVL1:
 227:../Libraries/STM32F4xx_StdPeriph_Driver/src/stm32f4xx_spi.c ****     /* Release SPI1 from reset state */
 140              		.loc 1 227 5 is_stmt 0 view .LVU11
 141 001c FFF7FEFF 		bl	RCC_APB2PeriphResetCmd		@
 142              	.LVL2:
 229:../Libraries/STM32F4xx_StdPeriph_Driver/src/stm32f4xx_spi.c ****   }
 143              		.loc 1 229 5 is_stmt 1 view .LVU12
 144              	@ ../Libraries/STM32F4xx_StdPeriph_Driver/src/stm32f4xx_spi.c:248: }
 145              		.loc 1 248 1 is_stmt 0 view .LVU13
 146 0020 BDE80840 		pop	{r3, lr}	@
 147              		.cfi_remember_state
ARM GAS  C:\Users\admin\AppData\Local\Temp\ccLq5Oux.s 			page 8


 148              		.cfi_restore 14
 149              		.cfi_restore 3
 150              		.cfi_def_cfa_offset 0
 151              	@ ../Libraries/STM32F4xx_StdPeriph_Driver/src/stm32f4xx_spi.c:229:     RCC_APB2PeriphResetCmd(RCC_A
 229:../Libraries/STM32F4xx_StdPeriph_Driver/src/stm32f4xx_spi.c ****   }
 152              		.loc 1 229 5 view .LVU14
 153 0024 0021     		movs	r1, #0	@,
 154 0026 4FF48050 		mov	r0, #4096	@,
 155 002a FFF7FEBF 		b	RCC_APB2PeriphResetCmd		@
 156              	.LVL3:
 157              	.L8:
 158              		.cfi_restore_state
 234:../Libraries/STM32F4xx_StdPeriph_Driver/src/stm32f4xx_spi.c ****     /* Release SPI2 from reset state */
 159              		.loc 1 234 5 is_stmt 1 view .LVU15
 160 002e 0121     		movs	r1, #1	@,
 161 0030 4FF48040 		mov	r0, #16384	@,
 162              	.LVL4:
 234:../Libraries/STM32F4xx_StdPeriph_Driver/src/stm32f4xx_spi.c ****     /* Release SPI2 from reset state */
 163              		.loc 1 234 5 is_stmt 0 view .LVU16
 164 0034 FFF7FEFF 		bl	RCC_APB1PeriphResetCmd		@
 165              	.LVL5:
 236:../Libraries/STM32F4xx_StdPeriph_Driver/src/stm32f4xx_spi.c ****     }
 166              		.loc 1 236 5 is_stmt 1 view .LVU17
 167              	@ ../Libraries/STM32F4xx_StdPeriph_Driver/src/stm32f4xx_spi.c:248: }
 168              		.loc 1 248 1 is_stmt 0 view .LVU18
 169 0038 BDE80840 		pop	{r3, lr}	@
 170              		.cfi_remember_state
 171              		.cfi_restore 14
 172              		.cfi_restore 3
 173              		.cfi_def_cfa_offset 0
 174              	@ ../Libraries/STM32F4xx_StdPeriph_Driver/src/stm32f4xx_spi.c:236:     RCC_APB1PeriphResetCmd(RCC_A
 236:../Libraries/STM32F4xx_StdPeriph_Driver/src/stm32f4xx_spi.c ****     }
 175              		.loc 1 236 5 view .LVU19
 176 003c 0021     		movs	r1, #0	@,
 177 003e 4FF48040 		mov	r0, #16384	@,
 178 0042 FFF7FEBF 		b	RCC_APB1PeriphResetCmd		@
 179              	.LVL6:
 180              	.L9:
 181              		.cfi_restore_state
 243:../Libraries/STM32F4xx_StdPeriph_Driver/src/stm32f4xx_spi.c ****       /* Release SPI3 from reset state */
 182              		.loc 1 243 7 is_stmt 1 view .LVU20
 183 0046 0121     		movs	r1, #1	@,
 184 0048 4FF40040 		mov	r0, #32768	@,
 185              	.LVL7:
 243:../Libraries/STM32F4xx_StdPeriph_Driver/src/stm32f4xx_spi.c ****       /* Release SPI3 from reset state */
 186              		.loc 1 243 7 is_stmt 0 view .LVU21
 187 004c FFF7FEFF 		bl	RCC_APB1PeriphResetCmd		@
 188              	.LVL8:
 245:../Libraries/STM32F4xx_StdPeriph_Driver/src/stm32f4xx_spi.c ****     }
 189              		.loc 1 245 7 is_stmt 1 view .LVU22
 190              	@ ../Libraries/STM32F4xx_StdPeriph_Driver/src/stm32f4xx_spi.c:248: }
 191              		.loc 1 248 1 is_stmt 0 view .LVU23
 192 0050 BDE80840 		pop	{r3, lr}	@
 193              		.cfi_restore 14
 194              		.cfi_restore 3
 195              		.cfi_def_cfa_offset 0
 196              	@ ../Libraries/STM32F4xx_StdPeriph_Driver/src/stm32f4xx_spi.c:245:       RCC_APB1PeriphResetCmd(RCC
ARM GAS  C:\Users\admin\AppData\Local\Temp\ccLq5Oux.s 			page 9


 245:../Libraries/STM32F4xx_StdPeriph_Driver/src/stm32f4xx_spi.c ****     }
 197              		.loc 1 245 7 view .LVU24
 198 0054 0021     		movs	r1, #0	@,
 199 0056 4FF40040 		mov	r0, #32768	@,
 200 005a FFF7FEBF 		b	RCC_APB1PeriphResetCmd		@
 201              	.LVL9:
 202              	.L11:
 203 005e 00BF     		.align	2
 204              	.L10:
 205 0060 00300140 		.word	1073819648
 206 0064 00380040 		.word	1073756160
 207 0068 003C0040 		.word	1073757184
 208              		.cfi_endproc
 209              	.LFE110:
 210              		.size	SPI_I2S_DeInit, .-SPI_I2S_DeInit
 211              		.section	.text.SPI_Init,"ax",%progbits
 212              		.align	1
 213              		.p2align 2,,3
 214              		.global	SPI_Init
 215              		.syntax unified
 216              		.thumb
 217              		.thumb_func
 218              		.type	SPI_Init, %function
 219              	SPI_Init:
 220              	.LVL10:
 221              	.LFB111:
 249:../Libraries/STM32F4xx_StdPeriph_Driver/src/stm32f4xx_spi.c **** 
 250:../Libraries/STM32F4xx_StdPeriph_Driver/src/stm32f4xx_spi.c **** /**
 251:../Libraries/STM32F4xx_StdPeriph_Driver/src/stm32f4xx_spi.c ****   * @brief  Initializes the SPIx peripheral according to the specified 
 252:../Libraries/STM32F4xx_StdPeriph_Driver/src/stm32f4xx_spi.c ****   *         parameters in the SPI_InitStruct.
 253:../Libraries/STM32F4xx_StdPeriph_Driver/src/stm32f4xx_spi.c ****   * @param  SPIx: where x can be 1, 2 or 3 to select the SPI peripheral.
 254:../Libraries/STM32F4xx_StdPeriph_Driver/src/stm32f4xx_spi.c ****   * @param  SPI_InitStruct: pointer to a SPI_InitTypeDef structure that
 255:../Libraries/STM32F4xx_StdPeriph_Driver/src/stm32f4xx_spi.c ****   *         contains the configuration information for the specified SPI peripheral.
 256:../Libraries/STM32F4xx_StdPeriph_Driver/src/stm32f4xx_spi.c ****   * @retval None
 257:../Libraries/STM32F4xx_StdPeriph_Driver/src/stm32f4xx_spi.c ****   */
 258:../Libraries/STM32F4xx_StdPeriph_Driver/src/stm32f4xx_spi.c **** void SPI_Init(SPI_TypeDef* SPIx, SPI_InitTypeDef* SPI_InitStruct)
 259:../Libraries/STM32F4xx_StdPeriph_Driver/src/stm32f4xx_spi.c **** {
 222              		.loc 1 259 1 is_stmt 1 view -0
 223              		.cfi_startproc
 224              		@ args = 0, pretend = 0, frame = 0
 225              		@ frame_needed = 0, uses_anonymous_args = 0
 260:../Libraries/STM32F4xx_StdPeriph_Driver/src/stm32f4xx_spi.c ****   uint16_t tmpreg = 0;
 226              		.loc 1 260 3 view .LVU26
 261:../Libraries/STM32F4xx_StdPeriph_Driver/src/stm32f4xx_spi.c ****   
 262:../Libraries/STM32F4xx_StdPeriph_Driver/src/stm32f4xx_spi.c ****   /* check the parameters */
 263:../Libraries/STM32F4xx_StdPeriph_Driver/src/stm32f4xx_spi.c ****   assert_param(IS_SPI_ALL_PERIPH(SPIx));
 227              		.loc 1 263 3 view .LVU27
 264:../Libraries/STM32F4xx_StdPeriph_Driver/src/stm32f4xx_spi.c ****   
 265:../Libraries/STM32F4xx_StdPeriph_Driver/src/stm32f4xx_spi.c ****   /* Check the SPI parameters */
 266:../Libraries/STM32F4xx_StdPeriph_Driver/src/stm32f4xx_spi.c ****   assert_param(IS_SPI_DIRECTION_MODE(SPI_InitStruct->SPI_Direction));
 228              		.loc 1 266 3 view .LVU28
 267:../Libraries/STM32F4xx_StdPeriph_Driver/src/stm32f4xx_spi.c ****   assert_param(IS_SPI_MODE(SPI_InitStruct->SPI_Mode));
 229              		.loc 1 267 3 view .LVU29
 268:../Libraries/STM32F4xx_StdPeriph_Driver/src/stm32f4xx_spi.c ****   assert_param(IS_SPI_DATASIZE(SPI_InitStruct->SPI_DataSize));
 230              		.loc 1 268 3 view .LVU30
 269:../Libraries/STM32F4xx_StdPeriph_Driver/src/stm32f4xx_spi.c ****   assert_param(IS_SPI_CPOL(SPI_InitStruct->SPI_CPOL));
 231              		.loc 1 269 3 view .LVU31
ARM GAS  C:\Users\admin\AppData\Local\Temp\ccLq5Oux.s 			page 10


 270:../Libraries/STM32F4xx_StdPeriph_Driver/src/stm32f4xx_spi.c ****   assert_param(IS_SPI_CPHA(SPI_InitStruct->SPI_CPHA));
 232              		.loc 1 270 3 view .LVU32
 271:../Libraries/STM32F4xx_StdPeriph_Driver/src/stm32f4xx_spi.c ****   assert_param(IS_SPI_NSS(SPI_InitStruct->SPI_NSS));
 233              		.loc 1 271 3 view .LVU33
 272:../Libraries/STM32F4xx_StdPeriph_Driver/src/stm32f4xx_spi.c ****   assert_param(IS_SPI_BAUDRATE_PRESCALER(SPI_InitStruct->SPI_BaudRatePrescaler));
 234              		.loc 1 272 3 view .LVU34
 273:../Libraries/STM32F4xx_StdPeriph_Driver/src/stm32f4xx_spi.c ****   assert_param(IS_SPI_FIRST_BIT(SPI_InitStruct->SPI_FirstBit));
 235              		.loc 1 273 3 view .LVU35
 274:../Libraries/STM32F4xx_StdPeriph_Driver/src/stm32f4xx_spi.c ****   assert_param(IS_SPI_CRC_POLYNOMIAL(SPI_InitStruct->SPI_CRCPolynomial));
 236              		.loc 1 274 3 view .LVU36
 275:../Libraries/STM32F4xx_StdPeriph_Driver/src/stm32f4xx_spi.c **** 
 276:../Libraries/STM32F4xx_StdPeriph_Driver/src/stm32f4xx_spi.c **** /*---------------------------- SPIx CR1 Configuration ------------------------*/
 277:../Libraries/STM32F4xx_StdPeriph_Driver/src/stm32f4xx_spi.c ****   /* Get the SPIx CR1 value */
 278:../Libraries/STM32F4xx_StdPeriph_Driver/src/stm32f4xx_spi.c ****   tmpreg = SPIx->CR1;
 237              		.loc 1 278 3 view .LVU37
 238              	@ ../Libraries/STM32F4xx_StdPeriph_Driver/src/stm32f4xx_spi.c:289:   tmpreg |= (uint16_t)((uint32_t
 279:../Libraries/STM32F4xx_StdPeriph_Driver/src/stm32f4xx_spi.c ****   /* Clear BIDIMode, BIDIOE, RxONLY, SSM, SSI, LSBFirst, BR, MSTR, CPOL and CPHA bits */
 280:../Libraries/STM32F4xx_StdPeriph_Driver/src/stm32f4xx_spi.c ****   tmpreg &= CR1_CLEAR_MASK;
 281:../Libraries/STM32F4xx_StdPeriph_Driver/src/stm32f4xx_spi.c ****   /* Configure SPIx: direction, NSS management, first transmitted bit, BaudRate prescaler
 282:../Libraries/STM32F4xx_StdPeriph_Driver/src/stm32f4xx_spi.c ****      master/salve mode, CPOL and CPHA */
 283:../Libraries/STM32F4xx_StdPeriph_Driver/src/stm32f4xx_spi.c ****   /* Set BIDImode, BIDIOE and RxONLY bits according to SPI_Direction value */
 284:../Libraries/STM32F4xx_StdPeriph_Driver/src/stm32f4xx_spi.c ****   /* Set SSM, SSI and MSTR bits according to SPI_Mode and SPI_NSS values */
 285:../Libraries/STM32F4xx_StdPeriph_Driver/src/stm32f4xx_spi.c ****   /* Set LSBFirst bit according to SPI_FirstBit value */
 286:../Libraries/STM32F4xx_StdPeriph_Driver/src/stm32f4xx_spi.c ****   /* Set BR bits according to SPI_BaudRatePrescaler value */
 287:../Libraries/STM32F4xx_StdPeriph_Driver/src/stm32f4xx_spi.c ****   /* Set CPOL bit according to SPI_CPOL value */
 288:../Libraries/STM32F4xx_StdPeriph_Driver/src/stm32f4xx_spi.c ****   /* Set CPHA bit according to SPI_CPHA value */
 289:../Libraries/STM32F4xx_StdPeriph_Driver/src/stm32f4xx_spi.c ****   tmpreg |= (uint16_t)((uint32_t)SPI_InitStruct->SPI_Direction | SPI_InitStruct->SPI_Mode |
 239              		.loc 1 289 13 is_stmt 0 view .LVU38
 240 0000 B1F802C0 		ldrh	ip, [r1, #2]	@, SPI_InitStruct_23(D)->SPI_Mode
 241 0004 0B88     		ldrh	r3, [r1]	@, SPI_InitStruct_23(D)->SPI_Direction
 242 0006 8A88     		ldrh	r2, [r1, #4]	@, SPI_InitStruct_23(D)->SPI_DataSize
 243 0008 43EA0C03 		orr	r3, r3, ip	@ tmp140, SPI_InitStruct_23(D)->SPI_Direction, SPI_InitStruct_23(D)->SPI_Mode
 244 000c B1F806C0 		ldrh	ip, [r1, #6]	@, SPI_InitStruct_23(D)->SPI_CPOL
 245 0010 1343     		orrs	r3, r3, r2	@, tmp143, tmp140, SPI_InitStruct_23(D)->SPI_DataSize
 246 0012 0A89     		ldrh	r2, [r1, #8]	@, SPI_InitStruct_23(D)->SPI_CPHA
 247 0014 43EA0C03 		orr	r3, r3, ip	@ tmp146, tmp143, SPI_InitStruct_23(D)->SPI_CPOL
 248              	@ ../Libraries/STM32F4xx_StdPeriph_Driver/src/stm32f4xx_spi.c:259: {
 259:../Libraries/STM32F4xx_StdPeriph_Driver/src/stm32f4xx_spi.c ****   uint16_t tmpreg = 0;
 249              		.loc 1 259 1 view .LVU39
 250 0018 00B5     		push	{lr}	@
 251              		.cfi_def_cfa_offset 4
 252              		.cfi_offset 14, -4
 253              	@ ../Libraries/STM32F4xx_StdPeriph_Driver/src/stm32f4xx_spi.c:289:   tmpreg |= (uint16_t)((uint32_t
 254              		.loc 1 289 13 view .LVU40
 255 001a B1F80AE0 		ldrh	lr, [r1, #10]	@, SPI_InitStruct_23(D)->SPI_NSS
 256 001e B1F80CC0 		ldrh	ip, [r1, #12]	@, SPI_InitStruct_23(D)->SPI_BaudRatePrescaler
 257 0022 1343     		orrs	r3, r3, r2	@, tmp149, tmp146, SPI_InitStruct_23(D)->SPI_CPHA
 258 0024 43EA0E03 		orr	r3, r3, lr	@ tmp152, tmp149, SPI_InitStruct_23(D)->SPI_NSS
 259              	@ ../Libraries/STM32F4xx_StdPeriph_Driver/src/stm32f4xx_spi.c:278:   tmpreg = SPIx->CR1;
 278:../Libraries/STM32F4xx_StdPeriph_Driver/src/stm32f4xx_spi.c ****   /* Clear BIDIMode, BIDIOE, RxONLY, SSM, SSI, LSBFirst, BR, MSTR, CPOL and CPHA bits */
 260              		.loc 1 278 10 view .LVU41
 261 0028 0288     		ldrh	r2, [r0]	@, SPIx_20(D)->CR1
 262              	.LVL11:
 280:../Libraries/STM32F4xx_StdPeriph_Driver/src/stm32f4xx_spi.c ****   /* Configure SPIx: direction, NSS management, first transmitted bit, BaudRate prescaler
 263              		.loc 1 280 3 is_stmt 1 view .LVU42
 264              	@ ../Libraries/STM32F4xx_StdPeriph_Driver/src/stm32f4xx_spi.c:289:   tmpreg |= (uint16_t)((uint32_t
 265              		.loc 1 289 13 is_stmt 0 view .LVU43
ARM GAS  C:\Users\admin\AppData\Local\Temp\ccLq5Oux.s 			page 11


 266 002a 43EA0C03 		orr	r3, r3, ip	@ tmp155, tmp152, SPI_InitStruct_23(D)->SPI_BaudRatePrescaler
 267 002e B1F80EC0 		ldrh	ip, [r1, #14]	@, SPI_InitStruct_23(D)->SPI_FirstBit
 268              	@ ../Libraries/STM32F4xx_StdPeriph_Driver/src/stm32f4xx_spi.c:280:   tmpreg &= CR1_CLEAR_MASK;
 280:../Libraries/STM32F4xx_StdPeriph_Driver/src/stm32f4xx_spi.c ****   /* Configure SPIx: direction, NSS management, first transmitted bit, BaudRate prescaler
 269              		.loc 1 280 10 view .LVU44
 270 0032 02F44152 		and	r2, r2, #12352	@ tmpreg, SPIx_20(D)->CR1,
 271              	.LVL12:
 272              		.loc 1 289 3 is_stmt 1 view .LVU45
 273              	@ ../Libraries/STM32F4xx_StdPeriph_Driver/src/stm32f4xx_spi.c:289:   tmpreg |= (uint16_t)((uint32_t
 274              		.loc 1 289 13 is_stmt 0 view .LVU46
 275 0036 43EA0C03 		orr	r3, r3, ip	@ tmp158, tmp155, SPI_InitStruct_23(D)->SPI_FirstBit
 276              	@ ../Libraries/STM32F4xx_StdPeriph_Driver/src/stm32f4xx_spi.c:289:   tmpreg |= (uint16_t)((uint32_t
 277              		.loc 1 289 10 view .LVU47
 278 003a 1343     		orrs	r3, r3, r2	@, tmp160, tmp158, tmpreg
 279 003c 9BB2     		uxth	r3, r3	@ tmpreg, tmp160
 280              	.LVL13:
 290:../Libraries/STM32F4xx_StdPeriph_Driver/src/stm32f4xx_spi.c ****                   SPI_InitStruct->SPI_DataSize | SPI_InitStruct->SPI_CPOL |  
 291:../Libraries/STM32F4xx_StdPeriph_Driver/src/stm32f4xx_spi.c ****                   SPI_InitStruct->SPI_CPHA | SPI_InitStruct->SPI_NSS |  
 292:../Libraries/STM32F4xx_StdPeriph_Driver/src/stm32f4xx_spi.c ****                   SPI_InitStruct->SPI_BaudRatePrescaler | SPI_InitStruct->SPI_FirstBit);
 293:../Libraries/STM32F4xx_StdPeriph_Driver/src/stm32f4xx_spi.c ****   /* Write to SPIx CR1 */
 294:../Libraries/STM32F4xx_StdPeriph_Driver/src/stm32f4xx_spi.c ****   SPIx->CR1 = tmpreg;
 281              		.loc 1 294 3 is_stmt 1 view .LVU48
 282              	@ ../Libraries/STM32F4xx_StdPeriph_Driver/src/stm32f4xx_spi.c:294:   SPIx->CR1 = tmpreg;
 283              		.loc 1 294 13 is_stmt 0 view .LVU49
 284 003e 0380     		strh	r3, [r0]	@ movhi	@ tmpreg, SPIx_20(D)->CR1
 295:../Libraries/STM32F4xx_StdPeriph_Driver/src/stm32f4xx_spi.c **** 
 296:../Libraries/STM32F4xx_StdPeriph_Driver/src/stm32f4xx_spi.c ****   /* Activate the SPI mode (Reset I2SMOD bit in I2SCFGR register) */
 297:../Libraries/STM32F4xx_StdPeriph_Driver/src/stm32f4xx_spi.c ****   SPIx->I2SCFGR &= (uint16_t)~((uint16_t)SPI_I2SCFGR_I2SMOD);
 285              		.loc 1 297 3 is_stmt 1 view .LVU50
 286              	@ ../Libraries/STM32F4xx_StdPeriph_Driver/src/stm32f4xx_spi.c:297:   SPIx->I2SCFGR &= (uint16_t)~((
 287              		.loc 1 297 17 is_stmt 0 view .LVU51
 288 0040 838B     		ldrh	r3, [r0, #28]	@, SPIx_20(D)->I2SCFGR
 289              	.LVL14:
 290              	@ ../Libraries/STM32F4xx_StdPeriph_Driver/src/stm32f4xx_spi.c:300:   SPIx->CRCPR = SPI_InitStruct->
 298:../Libraries/STM32F4xx_StdPeriph_Driver/src/stm32f4xx_spi.c **** /*---------------------------- SPIx CRCPOLY Configuration --------------------*/
 299:../Libraries/STM32F4xx_StdPeriph_Driver/src/stm32f4xx_spi.c ****   /* Write to SPIx CRCPOLY */
 300:../Libraries/STM32F4xx_StdPeriph_Driver/src/stm32f4xx_spi.c ****   SPIx->CRCPR = SPI_InitStruct->SPI_CRCPolynomial;
 291              		.loc 1 300 31 view .LVU52
 292 0042 0A8A     		ldrh	r2, [r1, #16]	@ _18, SPI_InitStruct_23(D)->SPI_CRCPolynomial
 293              	@ ../Libraries/STM32F4xx_StdPeriph_Driver/src/stm32f4xx_spi.c:297:   SPIx->I2SCFGR &= (uint16_t)~((
 297:../Libraries/STM32F4xx_StdPeriph_Driver/src/stm32f4xx_spi.c **** /*---------------------------- SPIx CRCPOLY Configuration --------------------*/
 294              		.loc 1 297 17 view .LVU53
 295 0044 23F40063 		bic	r3, r3, #2048	@ _17, SPIx_20(D)->I2SCFGR,
 296 0048 1B04     		lsls	r3, r3, #16	@ _17, _17,
 297 004a 1B0C     		lsrs	r3, r3, #16	@ _17, _17,
 298 004c 8383     		strh	r3, [r0, #28]	@ movhi	@ _17, SPIx_20(D)->I2SCFGR
 299              	.LVL15:
 300              		.loc 1 300 3 is_stmt 1 view .LVU54
 301              	@ ../Libraries/STM32F4xx_StdPeriph_Driver/src/stm32f4xx_spi.c:300:   SPIx->CRCPR = SPI_InitStruct->
 302              		.loc 1 300 15 is_stmt 0 view .LVU55
 303 004e 0282     		strh	r2, [r0, #16]	@ movhi	@ _18, SPIx_20(D)->CRCPR
 304              	@ ../Libraries/STM32F4xx_StdPeriph_Driver/src/stm32f4xx_spi.c:301: }
 301:../Libraries/STM32F4xx_StdPeriph_Driver/src/stm32f4xx_spi.c **** }
 305              		.loc 1 301 1 view .LVU56
 306 0050 5DF804FB 		ldr	pc, [sp], #4	@
 307              		.cfi_endproc
 308              	.LFE111:
ARM GAS  C:\Users\admin\AppData\Local\Temp\ccLq5Oux.s 			page 12


 309              		.size	SPI_Init, .-SPI_Init
 310              		.section	.text.I2S_Init,"ax",%progbits
 311              		.align	1
 312              		.p2align 2,,3
 313              		.global	I2S_Init
 314              		.syntax unified
 315              		.thumb
 316              		.thumb_func
 317              		.type	I2S_Init, %function
 318              	I2S_Init:
 319              	.LVL16:
 320              	.LFB112:
 302:../Libraries/STM32F4xx_StdPeriph_Driver/src/stm32f4xx_spi.c **** 
 303:../Libraries/STM32F4xx_StdPeriph_Driver/src/stm32f4xx_spi.c **** /**
 304:../Libraries/STM32F4xx_StdPeriph_Driver/src/stm32f4xx_spi.c ****   * @brief  Initializes the SPIx peripheral according to the specified 
 305:../Libraries/STM32F4xx_StdPeriph_Driver/src/stm32f4xx_spi.c ****   *         parameters in the I2S_InitStruct.
 306:../Libraries/STM32F4xx_StdPeriph_Driver/src/stm32f4xx_spi.c ****   * @param  SPIx: where x can be  2 or 3 to select the SPI peripheral (configured in I2S mode).
 307:../Libraries/STM32F4xx_StdPeriph_Driver/src/stm32f4xx_spi.c ****   * @param  I2S_InitStruct: pointer to an I2S_InitTypeDef structure that
 308:../Libraries/STM32F4xx_StdPeriph_Driver/src/stm32f4xx_spi.c ****   *         contains the configuration information for the specified SPI peripheral
 309:../Libraries/STM32F4xx_StdPeriph_Driver/src/stm32f4xx_spi.c ****   *         configured in I2S mode.
 310:../Libraries/STM32F4xx_StdPeriph_Driver/src/stm32f4xx_spi.c ****   *           
 311:../Libraries/STM32F4xx_StdPeriph_Driver/src/stm32f4xx_spi.c ****   * @note   The function calculates the optimal prescaler needed to obtain the most 
 312:../Libraries/STM32F4xx_StdPeriph_Driver/src/stm32f4xx_spi.c ****   *         accurate audio frequency (depending on the I2S clock source, the PLL values 
 313:../Libraries/STM32F4xx_StdPeriph_Driver/src/stm32f4xx_spi.c ****   *         and the product configuration). But in case the prescaler value is greater 
 314:../Libraries/STM32F4xx_StdPeriph_Driver/src/stm32f4xx_spi.c ****   *         than 511, the default value (0x02) will be configured instead.    
 315:../Libraries/STM32F4xx_StdPeriph_Driver/src/stm32f4xx_spi.c ****   * 
 316:../Libraries/STM32F4xx_StdPeriph_Driver/src/stm32f4xx_spi.c ****   * @note   if an external clock is used as source clock for the I2S, then the define
 317:../Libraries/STM32F4xx_StdPeriph_Driver/src/stm32f4xx_spi.c ****   *         I2S_EXTERNAL_CLOCK_VAL in file stm32f4xx_conf.h should be enabled and set
 318:../Libraries/STM32F4xx_StdPeriph_Driver/src/stm32f4xx_spi.c ****   *         to the value of the the source clock frequency (in Hz).
 319:../Libraries/STM32F4xx_StdPeriph_Driver/src/stm32f4xx_spi.c ****   *  
 320:../Libraries/STM32F4xx_StdPeriph_Driver/src/stm32f4xx_spi.c ****   * @retval None
 321:../Libraries/STM32F4xx_StdPeriph_Driver/src/stm32f4xx_spi.c ****   */
 322:../Libraries/STM32F4xx_StdPeriph_Driver/src/stm32f4xx_spi.c **** void I2S_Init(SPI_TypeDef* SPIx, I2S_InitTypeDef* I2S_InitStruct)
 323:../Libraries/STM32F4xx_StdPeriph_Driver/src/stm32f4xx_spi.c **** {
 321              		.loc 1 323 1 is_stmt 1 view -0
 322              		.cfi_startproc
 323              		@ args = 0, pretend = 0, frame = 0
 324              		@ frame_needed = 0, uses_anonymous_args = 0
 324:../Libraries/STM32F4xx_StdPeriph_Driver/src/stm32f4xx_spi.c ****   uint16_t tmpreg = 0, i2sdiv = 2, i2sodd = 0, packetlength = 1;
 325              		.loc 1 324 3 view .LVU58
 325:../Libraries/STM32F4xx_StdPeriph_Driver/src/stm32f4xx_spi.c ****   uint32_t tmp = 0, i2sclk = 0;
 326              		.loc 1 325 3 view .LVU59
 326:../Libraries/STM32F4xx_StdPeriph_Driver/src/stm32f4xx_spi.c **** #ifndef I2S_EXTERNAL_CLOCK_VAL
 327:../Libraries/STM32F4xx_StdPeriph_Driver/src/stm32f4xx_spi.c ****   uint32_t pllm = 0, plln = 0, pllr = 0;
 327              		.loc 1 327 3 view .LVU60
 328:../Libraries/STM32F4xx_StdPeriph_Driver/src/stm32f4xx_spi.c **** #endif /* I2S_EXTERNAL_CLOCK_VAL */
 329:../Libraries/STM32F4xx_StdPeriph_Driver/src/stm32f4xx_spi.c ****   
 330:../Libraries/STM32F4xx_StdPeriph_Driver/src/stm32f4xx_spi.c ****   /* Check the I2S parameters */
 331:../Libraries/STM32F4xx_StdPeriph_Driver/src/stm32f4xx_spi.c ****   assert_param(IS_SPI_23_PERIPH(SPIx));
 328              		.loc 1 331 3 view .LVU61
 332:../Libraries/STM32F4xx_StdPeriph_Driver/src/stm32f4xx_spi.c ****   assert_param(IS_I2S_MODE(I2S_InitStruct->I2S_Mode));
 329              		.loc 1 332 3 view .LVU62
 333:../Libraries/STM32F4xx_StdPeriph_Driver/src/stm32f4xx_spi.c ****   assert_param(IS_I2S_STANDARD(I2S_InitStruct->I2S_Standard));
 330              		.loc 1 333 3 view .LVU63
 334:../Libraries/STM32F4xx_StdPeriph_Driver/src/stm32f4xx_spi.c ****   assert_param(IS_I2S_DATA_FORMAT(I2S_InitStruct->I2S_DataFormat));
 331              		.loc 1 334 3 view .LVU64
 335:../Libraries/STM32F4xx_StdPeriph_Driver/src/stm32f4xx_spi.c ****   assert_param(IS_I2S_MCLK_OUTPUT(I2S_InitStruct->I2S_MCLKOutput));
ARM GAS  C:\Users\admin\AppData\Local\Temp\ccLq5Oux.s 			page 13


 332              		.loc 1 335 3 view .LVU65
 336:../Libraries/STM32F4xx_StdPeriph_Driver/src/stm32f4xx_spi.c ****   assert_param(IS_I2S_AUDIO_FREQ(I2S_InitStruct->I2S_AudioFreq));
 333              		.loc 1 336 3 view .LVU66
 337:../Libraries/STM32F4xx_StdPeriph_Driver/src/stm32f4xx_spi.c ****   assert_param(IS_I2S_CPOL(I2S_InitStruct->I2S_CPOL));  
 334              		.loc 1 337 3 view .LVU67
 338:../Libraries/STM32F4xx_StdPeriph_Driver/src/stm32f4xx_spi.c **** 
 339:../Libraries/STM32F4xx_StdPeriph_Driver/src/stm32f4xx_spi.c **** /*----------------------- SPIx I2SCFGR & I2SPR Configuration -----------------*/
 340:../Libraries/STM32F4xx_StdPeriph_Driver/src/stm32f4xx_spi.c ****   /* Clear I2SMOD, I2SE, I2SCFG, PCMSYNC, I2SSTD, CKPOL, DATLEN and CHLEN bits */
 341:../Libraries/STM32F4xx_StdPeriph_Driver/src/stm32f4xx_spi.c ****   SPIx->I2SCFGR &= I2SCFGR_CLEAR_MASK; 
 335              		.loc 1 341 3 view .LVU68
 336              	@ ../Libraries/STM32F4xx_StdPeriph_Driver/src/stm32f4xx_spi.c:341:   SPIx->I2SCFGR &= I2SCFGR_CLEAR
 337              		.loc 1 341 17 is_stmt 0 view .LVU69
 338 0000 838B     		ldrh	r3, [r0, #28]	@, SPIx_55(D)->I2SCFGR
 339 0002 23F47B63 		bic	r3, r3, #4016	@ _2, SPIx_55(D)->I2SCFGR,
 340 0006 23F00F03 		bic	r3, r3, #15	@ _2, _2,
 341 000a 1B04     		lsls	r3, r3, #16	@ _2, _2,
 342              	@ ../Libraries/STM32F4xx_StdPeriph_Driver/src/stm32f4xx_spi.c:342:   SPIx->I2SPR = 0x0002;
 342:../Libraries/STM32F4xx_StdPeriph_Driver/src/stm32f4xx_spi.c ****   SPIx->I2SPR = 0x0002;
 343              		.loc 1 342 15 view .LVU70
 344 000c 0222     		movs	r2, #2	@ tmp173,
 345              	@ ../Libraries/STM32F4xx_StdPeriph_Driver/src/stm32f4xx_spi.c:341:   SPIx->I2SCFGR &= I2SCFGR_CLEAR
 341:../Libraries/STM32F4xx_StdPeriph_Driver/src/stm32f4xx_spi.c ****   SPIx->I2SPR = 0x0002;
 346              		.loc 1 341 17 view .LVU71
 347 000e 1B0C     		lsrs	r3, r3, #16	@ _2, _2,
 348              	@ ../Libraries/STM32F4xx_StdPeriph_Driver/src/stm32f4xx_spi.c:323: {
 323:../Libraries/STM32F4xx_StdPeriph_Driver/src/stm32f4xx_spi.c ****   uint16_t tmpreg = 0, i2sdiv = 2, i2sodd = 0, packetlength = 1;
 349              		.loc 1 323 1 view .LVU72
 350 0010 2DE9F041 		push	{r4, r5, r6, r7, r8, lr}	@
 351              		.cfi_def_cfa_offset 24
 352              		.cfi_offset 4, -24
 353              		.cfi_offset 5, -20
 354              		.cfi_offset 6, -16
 355              		.cfi_offset 7, -12
 356              		.cfi_offset 8, -8
 357              		.cfi_offset 14, -4
 358              	@ ../Libraries/STM32F4xx_StdPeriph_Driver/src/stm32f4xx_spi.c:341:   SPIx->I2SCFGR &= I2SCFGR_CLEAR
 341:../Libraries/STM32F4xx_StdPeriph_Driver/src/stm32f4xx_spi.c ****   SPIx->I2SPR = 0x0002;
 359              		.loc 1 341 17 view .LVU73
 360 0014 8383     		strh	r3, [r0, #28]	@ movhi	@ _2, SPIx_55(D)->I2SCFGR
 361              		.loc 1 342 3 is_stmt 1 view .LVU74
 362              	@ ../Libraries/STM32F4xx_StdPeriph_Driver/src/stm32f4xx_spi.c:348:   if(I2S_InitStruct->I2S_AudioFr
 343:../Libraries/STM32F4xx_StdPeriph_Driver/src/stm32f4xx_spi.c ****   
 344:../Libraries/STM32F4xx_StdPeriph_Driver/src/stm32f4xx_spi.c ****   /* Get the I2SCFGR register value */
 345:../Libraries/STM32F4xx_StdPeriph_Driver/src/stm32f4xx_spi.c ****   tmpreg = SPIx->I2SCFGR;
 346:../Libraries/STM32F4xx_StdPeriph_Driver/src/stm32f4xx_spi.c ****   
 347:../Libraries/STM32F4xx_StdPeriph_Driver/src/stm32f4xx_spi.c ****   /* If the default value has to be written, reinitialize i2sdiv and i2sodd*/
 348:../Libraries/STM32F4xx_StdPeriph_Driver/src/stm32f4xx_spi.c ****   if(I2S_InitStruct->I2S_AudioFreq == I2S_AudioFreq_Default)
 363              		.loc 1 348 20 is_stmt 0 view .LVU75
 364 0016 8D68     		ldr	r5, [r1, #8]	@ _3, I2S_InitStruct_59(D)->I2S_AudioFreq
 365              	@ ../Libraries/STM32F4xx_StdPeriph_Driver/src/stm32f4xx_spi.c:342:   SPIx->I2SPR = 0x0002;
 342:../Libraries/STM32F4xx_StdPeriph_Driver/src/stm32f4xx_spi.c ****   
 366              		.loc 1 342 15 view .LVU76
 367 0018 0284     		strh	r2, [r0, #32]	@ movhi	@ tmp173, SPIx_55(D)->I2SPR
 345:../Libraries/STM32F4xx_StdPeriph_Driver/src/stm32f4xx_spi.c ****   
 368              		.loc 1 345 3 is_stmt 1 view .LVU77
 369              	@ ../Libraries/STM32F4xx_StdPeriph_Driver/src/stm32f4xx_spi.c:345:   tmpreg = SPIx->I2SCFGR;
 345:../Libraries/STM32F4xx_StdPeriph_Driver/src/stm32f4xx_spi.c ****   
ARM GAS  C:\Users\admin\AppData\Local\Temp\ccLq5Oux.s 			page 14


 370              		.loc 1 345 10 is_stmt 0 view .LVU78
 371 001a B0F81CC0 		ldrh	ip, [r0, #28]	@, SPIx_55(D)->I2SCFGR
 372              	@ ../Libraries/STM32F4xx_StdPeriph_Driver/src/stm32f4xx_spi.c:357:     if(I2S_InitStruct->I2S_DataF
 349:../Libraries/STM32F4xx_StdPeriph_Driver/src/stm32f4xx_spi.c ****   {
 350:../Libraries/STM32F4xx_StdPeriph_Driver/src/stm32f4xx_spi.c ****     i2sodd = (uint16_t)0;
 351:../Libraries/STM32F4xx_StdPeriph_Driver/src/stm32f4xx_spi.c ****     i2sdiv = (uint16_t)2;   
 352:../Libraries/STM32F4xx_StdPeriph_Driver/src/stm32f4xx_spi.c ****   }
 353:../Libraries/STM32F4xx_StdPeriph_Driver/src/stm32f4xx_spi.c ****   /* If the requested audio frequency is not the default, compute the prescaler */
 354:../Libraries/STM32F4xx_StdPeriph_Driver/src/stm32f4xx_spi.c ****   else
 355:../Libraries/STM32F4xx_StdPeriph_Driver/src/stm32f4xx_spi.c ****   {
 356:../Libraries/STM32F4xx_StdPeriph_Driver/src/stm32f4xx_spi.c ****     /* Check the frame length (For the Prescaler computing) *******************/
 357:../Libraries/STM32F4xx_StdPeriph_Driver/src/stm32f4xx_spi.c ****     if(I2S_InitStruct->I2S_DataFormat == I2S_DataFormat_16b)
 373              		.loc 1 357 22 view .LVU79
 374 001e B1F804E0 		ldrh	lr, [r1, #4]	@ _4, I2S_InitStruct_59(D)->I2S_DataFormat
 375              	@ ../Libraries/STM32F4xx_StdPeriph_Driver/src/stm32f4xx_spi.c:348:   if(I2S_InitStruct->I2S_AudioFr
 348:../Libraries/STM32F4xx_StdPeriph_Driver/src/stm32f4xx_spi.c ****   {
 376              		.loc 1 348 5 view .LVU80
 377 0022 9542     		cmp	r5, r2	@ _3,
 378              	@ ../Libraries/STM32F4xx_StdPeriph_Driver/src/stm32f4xx_spi.c:345:   tmpreg = SPIx->I2SCFGR;
 345:../Libraries/STM32F4xx_StdPeriph_Driver/src/stm32f4xx_spi.c ****   
 379              		.loc 1 345 10 view .LVU81
 380 0024 1FFA8CFC 		uxth	ip, ip	@ tmpreg, SPIx_55(D)->I2SCFGR
 381              	.LVL17:
 348:../Libraries/STM32F4xx_StdPeriph_Driver/src/stm32f4xx_spi.c ****   {
 382              		.loc 1 348 3 is_stmt 1 view .LVU82
 383              	@ ../Libraries/STM32F4xx_StdPeriph_Driver/src/stm32f4xx_spi.c:348:   if(I2S_InitStruct->I2S_AudioFr
 348:../Libraries/STM32F4xx_StdPeriph_Driver/src/stm32f4xx_spi.c ****   {
 384              		.loc 1 348 5 is_stmt 0 view .LVU83
 385 0028 4ED0     		beq	.L28		@,
 386              		.loc 1 357 5 is_stmt 1 view .LVU84
 387              	@ ../Libraries/STM32F4xx_StdPeriph_Driver/src/stm32f4xx_spi.c:384:     if ((RCC->CFGR & RCC_CFGR_I2
 358:../Libraries/STM32F4xx_StdPeriph_Driver/src/stm32f4xx_spi.c ****     {
 359:../Libraries/STM32F4xx_StdPeriph_Driver/src/stm32f4xx_spi.c ****       /* Packet length is 16 bits */
 360:../Libraries/STM32F4xx_StdPeriph_Driver/src/stm32f4xx_spi.c ****       packetlength = 1;
 361:../Libraries/STM32F4xx_StdPeriph_Driver/src/stm32f4xx_spi.c ****     }
 362:../Libraries/STM32F4xx_StdPeriph_Driver/src/stm32f4xx_spi.c ****     else
 363:../Libraries/STM32F4xx_StdPeriph_Driver/src/stm32f4xx_spi.c ****     {
 364:../Libraries/STM32F4xx_StdPeriph_Driver/src/stm32f4xx_spi.c ****       /* Packet length is 32 bits */
 365:../Libraries/STM32F4xx_StdPeriph_Driver/src/stm32f4xx_spi.c ****       packetlength = 2;
 366:../Libraries/STM32F4xx_StdPeriph_Driver/src/stm32f4xx_spi.c ****     }
 367:../Libraries/STM32F4xx_StdPeriph_Driver/src/stm32f4xx_spi.c **** 
 368:../Libraries/STM32F4xx_StdPeriph_Driver/src/stm32f4xx_spi.c ****     /* Get I2S source Clock frequency  ****************************************/
 369:../Libraries/STM32F4xx_StdPeriph_Driver/src/stm32f4xx_spi.c ****       
 370:../Libraries/STM32F4xx_StdPeriph_Driver/src/stm32f4xx_spi.c ****     /* If an external I2S clock has to be used, this define should be set  
 371:../Libraries/STM32F4xx_StdPeriph_Driver/src/stm32f4xx_spi.c ****        in the project configuration or in the stm32f4xx_conf.h file */
 372:../Libraries/STM32F4xx_StdPeriph_Driver/src/stm32f4xx_spi.c ****   #ifdef I2S_EXTERNAL_CLOCK_VAL     
 373:../Libraries/STM32F4xx_StdPeriph_Driver/src/stm32f4xx_spi.c ****     /* Set external clock as I2S clock source */
 374:../Libraries/STM32F4xx_StdPeriph_Driver/src/stm32f4xx_spi.c ****     if ((RCC->CFGR & RCC_CFGR_I2SSRC) == 0)
 375:../Libraries/STM32F4xx_StdPeriph_Driver/src/stm32f4xx_spi.c ****     {
 376:../Libraries/STM32F4xx_StdPeriph_Driver/src/stm32f4xx_spi.c ****       RCC->CFGR |= (uint32_t)RCC_CFGR_I2SSRC;
 377:../Libraries/STM32F4xx_StdPeriph_Driver/src/stm32f4xx_spi.c ****     }
 378:../Libraries/STM32F4xx_StdPeriph_Driver/src/stm32f4xx_spi.c ****     
 379:../Libraries/STM32F4xx_StdPeriph_Driver/src/stm32f4xx_spi.c ****     /* Set the I2S clock to the external clock  value */
 380:../Libraries/STM32F4xx_StdPeriph_Driver/src/stm32f4xx_spi.c ****     i2sclk = I2S_EXTERNAL_CLOCK_VAL;
 381:../Libraries/STM32F4xx_StdPeriph_Driver/src/stm32f4xx_spi.c **** 
 382:../Libraries/STM32F4xx_StdPeriph_Driver/src/stm32f4xx_spi.c ****   #else /* There is no define for External I2S clock source */
 383:../Libraries/STM32F4xx_StdPeriph_Driver/src/stm32f4xx_spi.c ****     /* Set PLLI2S as I2S clock source */
ARM GAS  C:\Users\admin\AppData\Local\Temp\ccLq5Oux.s 			page 15


 384:../Libraries/STM32F4xx_StdPeriph_Driver/src/stm32f4xx_spi.c ****     if ((RCC->CFGR & RCC_CFGR_I2SSRC) != 0)
 388              		.loc 1 384 13 is_stmt 0 view .LVU85
 389 002a 294B     		ldr	r3, .L30	@ tmp176,
 390 002c 9A68     		ldr	r2, [r3, #8]	@ _5, MEM[(struct RCC_TypeDef *)1073887232B].CFGR
 391              	@ ../Libraries/STM32F4xx_StdPeriph_Driver/src/stm32f4xx_spi.c:357:     if(I2S_InitStruct->I2S_DataF
 357:../Libraries/STM32F4xx_StdPeriph_Driver/src/stm32f4xx_spi.c ****     {
 392              		.loc 1 357 7 view .LVU86
 393 002e BEF1000F 		cmp	lr, #0	@ _4,
 394 0032 14BF     		ite	ne
 395 0034 4027     		movne	r7, #64	@ prephitmp_89,
 396 0036 2027     		moveq	r7, #32	@ prephitmp_89,
 397              	.LVL18:
 398              		.loc 1 384 5 is_stmt 1 view .LVU87
 399              	@ ../Libraries/STM32F4xx_StdPeriph_Driver/src/stm32f4xx_spi.c:384:     if ((RCC->CFGR & RCC_CFGR_I2
 400              		.loc 1 384 8 is_stmt 0 view .LVU88
 401 0038 1202     		lsls	r2, r2, #8	@, _5,
 402 003a 40D4     		bmi	.L29		@,
 403              	.L18:
 385:../Libraries/STM32F4xx_StdPeriph_Driver/src/stm32f4xx_spi.c ****     {
 386:../Libraries/STM32F4xx_StdPeriph_Driver/src/stm32f4xx_spi.c ****       RCC->CFGR &= ~(uint32_t)RCC_CFGR_I2SSRC;
 387:../Libraries/STM32F4xx_StdPeriph_Driver/src/stm32f4xx_spi.c ****     }    
 388:../Libraries/STM32F4xx_StdPeriph_Driver/src/stm32f4xx_spi.c ****     
 389:../Libraries/STM32F4xx_StdPeriph_Driver/src/stm32f4xx_spi.c ****     /* Get the PLLI2SN value */
 390:../Libraries/STM32F4xx_StdPeriph_Driver/src/stm32f4xx_spi.c ****     plln = (uint32_t)(((RCC->PLLI2SCFGR & RCC_PLLI2SCFGR_PLLI2SN) >> 6) & \
 404              		.loc 1 390 5 is_stmt 1 view .LVU89
 405              	@ ../Libraries/STM32F4xx_StdPeriph_Driver/src/stm32f4xx_spi.c:390:     plln = (uint32_t)(((RCC->PLL
 406              		.loc 1 390 28 is_stmt 0 view .LVU90
 407 003c 244A     		ldr	r2, .L30	@ tmp180,
 408              	@ ../Libraries/STM32F4xx_StdPeriph_Driver/src/stm32f4xx_spi.c:405:     if(I2S_InitStruct->I2S_MCLKO
 391:../Libraries/STM32F4xx_StdPeriph_Driver/src/stm32f4xx_spi.c ****                       (RCC_PLLI2SCFGR_PLLI2SN >> 6));
 392:../Libraries/STM32F4xx_StdPeriph_Driver/src/stm32f4xx_spi.c ****     
 393:../Libraries/STM32F4xx_StdPeriph_Driver/src/stm32f4xx_spi.c ****     /* Get the PLLI2SR value */
 394:../Libraries/STM32F4xx_StdPeriph_Driver/src/stm32f4xx_spi.c ****     pllr = (uint32_t)(((RCC->PLLI2SCFGR & RCC_PLLI2SCFGR_PLLI2SR) >> 28) & \
 395:../Libraries/STM32F4xx_StdPeriph_Driver/src/stm32f4xx_spi.c ****                       (RCC_PLLI2SCFGR_PLLI2SR >> 28));
 396:../Libraries/STM32F4xx_StdPeriph_Driver/src/stm32f4xx_spi.c ****     
 397:../Libraries/STM32F4xx_StdPeriph_Driver/src/stm32f4xx_spi.c ****     /* Get the PLLM value */
 398:../Libraries/STM32F4xx_StdPeriph_Driver/src/stm32f4xx_spi.c ****     pllm = (uint32_t)(RCC->PLLCFGR & RCC_PLLCFGR_PLLM);      
 399:../Libraries/STM32F4xx_StdPeriph_Driver/src/stm32f4xx_spi.c ****     
 400:../Libraries/STM32F4xx_StdPeriph_Driver/src/stm32f4xx_spi.c ****     /* Get the I2S source clock value */
 401:../Libraries/STM32F4xx_StdPeriph_Driver/src/stm32f4xx_spi.c ****     i2sclk = (uint32_t)(((HSE_VALUE / pllm) * plln) / pllr);
 402:../Libraries/STM32F4xx_StdPeriph_Driver/src/stm32f4xx_spi.c ****   #endif /* I2S_EXTERNAL_CLOCK_VAL */
 403:../Libraries/STM32F4xx_StdPeriph_Driver/src/stm32f4xx_spi.c ****     
 404:../Libraries/STM32F4xx_StdPeriph_Driver/src/stm32f4xx_spi.c ****     /* Compute the Real divider depending on the MCLK output state, with a floating point */
 405:../Libraries/STM32F4xx_StdPeriph_Driver/src/stm32f4xx_spi.c ****     if(I2S_InitStruct->I2S_MCLKOutput == I2S_MCLKOutput_Enable)
 409              		.loc 1 405 22 view .LVU91
 410 003e CC88     		ldrh	r4, [r1, #6]	@ _16, I2S_InitStruct_59(D)->I2S_MCLKOutput
 411              	@ ../Libraries/STM32F4xx_StdPeriph_Driver/src/stm32f4xx_spi.c:390:     plln = (uint32_t)(((RCC->PLL
 390:../Libraries/STM32F4xx_StdPeriph_Driver/src/stm32f4xx_spi.c ****                       (RCC_PLLI2SCFGR_PLLI2SN >> 6));
 412              		.loc 1 390 28 view .LVU92
 413 0040 D2F88460 		ldr	r6, [r2, #132]	@ _9, MEM[(struct RCC_TypeDef *)1073887232B].PLLI2SCFGR
 414              	.LVL19:
 394:../Libraries/STM32F4xx_StdPeriph_Driver/src/stm32f4xx_spi.c ****                       (RCC_PLLI2SCFGR_PLLI2SR >> 28));
 415              		.loc 1 394 5 is_stmt 1 view .LVU93
 416              	@ ../Libraries/STM32F4xx_StdPeriph_Driver/src/stm32f4xx_spi.c:394:     pllr = (uint32_t)(((RCC->PLL
 394:../Libraries/STM32F4xx_StdPeriph_Driver/src/stm32f4xx_spi.c ****                       (RCC_PLLI2SCFGR_PLLI2SR >> 28));
 417              		.loc 1 394 28 is_stmt 0 view .LVU94
 418 0044 D2F88430 		ldr	r3, [r2, #132]	@ _11, MEM[(struct RCC_TypeDef *)1073887232B].PLLI2SCFGR
ARM GAS  C:\Users\admin\AppData\Local\Temp\ccLq5Oux.s 			page 16


 419              	.LVL20:
 398:../Libraries/STM32F4xx_StdPeriph_Driver/src/stm32f4xx_spi.c ****     
 420              		.loc 1 398 5 is_stmt 1 view .LVU95
 421              	@ ../Libraries/STM32F4xx_StdPeriph_Driver/src/stm32f4xx_spi.c:398:     pllm = (uint32_t)(RCC->PLLCF
 398:../Libraries/STM32F4xx_StdPeriph_Driver/src/stm32f4xx_spi.c ****     
 422              		.loc 1 398 26 is_stmt 0 view .LVU96
 423 0048 5268     		ldr	r2, [r2, #4]	@ _13, MEM[(struct RCC_TypeDef *)1073887232B].PLLCFGR
 424              	.LVL21:
 401:../Libraries/STM32F4xx_StdPeriph_Driver/src/stm32f4xx_spi.c ****   #endif /* I2S_EXTERNAL_CLOCK_VAL */
 425              		.loc 1 401 5 is_stmt 1 view .LVU97
 426              	@ ../Libraries/STM32F4xx_StdPeriph_Driver/src/stm32f4xx_spi.c:405:     if(I2S_InitStruct->I2S_MCLKO
 427              		.loc 1 405 7 is_stmt 0 view .LVU98
 428 004a B4F5007F 		cmp	r4, #512	@ _16,
 429              	@ ../Libraries/STM32F4xx_StdPeriph_Driver/src/stm32f4xx_spi.c:390:     plln = (uint32_t)(((RCC->PLL
 390:../Libraries/STM32F4xx_StdPeriph_Driver/src/stm32f4xx_spi.c ****                       (RCC_PLLI2SCFGR_PLLI2SN >> 6));
 430              		.loc 1 390 10 view .LVU99
 431 004e C6F38816 		ubfx	r6, r6, #6, #9	@ plln, _9,,
 432              	.LVL22:
 433              	@ ../Libraries/STM32F4xx_StdPeriph_Driver/src/stm32f4xx_spi.c:394:     pllr = (uint32_t)(((RCC->PLL
 394:../Libraries/STM32F4xx_StdPeriph_Driver/src/stm32f4xx_spi.c ****                       (RCC_PLLI2SCFGR_PLLI2SR >> 28));
 434              		.loc 1 394 10 view .LVU100
 435 0052 C3F30273 		ubfx	r3, r3, #28, #3	@ pllr, _11,,
 436              	.LVL23:
 437              	@ ../Libraries/STM32F4xx_StdPeriph_Driver/src/stm32f4xx_spi.c:398:     pllm = (uint32_t)(RCC->PLLCF
 398:../Libraries/STM32F4xx_StdPeriph_Driver/src/stm32f4xx_spi.c ****     
 438              		.loc 1 398 10 view .LVU101
 439 0056 02F03F08 		and	r8, r2, #63	@ pllm, _13,
 440              	.LVL24:
 441              	@ ../Libraries/STM32F4xx_StdPeriph_Driver/src/stm32f4xx_spi.c:401:     i2sclk = (uint32_t)(((HSE_VA
 401:../Libraries/STM32F4xx_StdPeriph_Driver/src/stm32f4xx_spi.c ****   #endif /* I2S_EXTERNAL_CLOCK_VAL */
 442              		.loc 1 401 37 view .LVU102
 443 005a 1E4A     		ldr	r2, .L30+4	@ tmp186,
 444 005c B2FBF8F2 		udiv	r2, r2, r8	@ tmp185, tmp186, pllm
 445              	@ ../Libraries/STM32F4xx_StdPeriph_Driver/src/stm32f4xx_spi.c:401:     i2sclk = (uint32_t)(((HSE_VA
 401:../Libraries/STM32F4xx_StdPeriph_Driver/src/stm32f4xx_spi.c ****   #endif /* I2S_EXTERNAL_CLOCK_VAL */
 446              		.loc 1 401 45 view .LVU103
 447 0060 06FB02F2 		mul	r2, r6, r2	@ tmp193, plln, tmp185
 448              	@ ../Libraries/STM32F4xx_StdPeriph_Driver/src/stm32f4xx_spi.c:401:     i2sclk = (uint32_t)(((HSE_VA
 401:../Libraries/STM32F4xx_StdPeriph_Driver/src/stm32f4xx_spi.c ****   #endif /* I2S_EXTERNAL_CLOCK_VAL */
 449              		.loc 1 401 12 view .LVU104
 450 0064 B2FBF3F2 		udiv	r2, r2, r3	@ i2sclk, tmp193, pllr
 451              	.LVL25:
 452              		.loc 1 405 5 is_stmt 1 view .LVU105
 406:../Libraries/STM32F4xx_StdPeriph_Driver/src/stm32f4xx_spi.c ****     {
 407:../Libraries/STM32F4xx_StdPeriph_Driver/src/stm32f4xx_spi.c ****       /* MCLK output is enabled */
 408:../Libraries/STM32F4xx_StdPeriph_Driver/src/stm32f4xx_spi.c ****       tmp = (uint16_t)(((((i2sclk / 256) * 10) / I2S_InitStruct->I2S_AudioFreq)) + 5);
 453              		.loc 1 408 7 view .LVU106
 409:../Libraries/STM32F4xx_StdPeriph_Driver/src/stm32f4xx_spi.c ****     }
 410:../Libraries/STM32F4xx_StdPeriph_Driver/src/stm32f4xx_spi.c ****     else
 411:../Libraries/STM32F4xx_StdPeriph_Driver/src/stm32f4xx_spi.c ****     {
 412:../Libraries/STM32F4xx_StdPeriph_Driver/src/stm32f4xx_spi.c ****       /* MCLK output is disabled */
 413:../Libraries/STM32F4xx_StdPeriph_Driver/src/stm32f4xx_spi.c ****       tmp = (uint16_t)(((((i2sclk / (32 * packetlength)) *10 ) / I2S_InitStruct->I2S_AudioFreq)) + 
 454              		.loc 1 413 7 view .LVU107
 455              	@ ../Libraries/STM32F4xx_StdPeriph_Driver/src/stm32f4xx_spi.c:408:       tmp = (uint16_t)(((((i2scl
 408:../Libraries/STM32F4xx_StdPeriph_Driver/src/stm32f4xx_spi.c ****     }
 456              		.loc 1 408 35 is_stmt 0 view .LVU108
 457 0068 0CBF     		ite	eq
ARM GAS  C:\Users\admin\AppData\Local\Temp\ccLq5Oux.s 			page 17


 458 006a 120A     		lsreq	r2, r2, #8	@ tmp196, i2sclk,
 459              	.LVL26:
 460              	@ ../Libraries/STM32F4xx_StdPeriph_Driver/src/stm32f4xx_spi.c:413:       tmp = (uint16_t)(((((i2scl
 461              		.loc 1 413 35 view .LVU109
 462 006c B2FBF7F2 		udivne	r2, r2, r7	@ tmp206, i2sclk, prephitmp_89
 463              	@ ../Libraries/STM32F4xx_StdPeriph_Driver/src/stm32f4xx_spi.c:413:       tmp = (uint16_t)(((((i2scl
 464              		.loc 1 413 58 view .LVU110
 465 0070 02EB8202 		add	r2, r2, r2, lsl #2	@ tmp209, tmp206, tmp206,
 466 0074 5300     		lsls	r3, r2, #1	@ tmp210, tmp209,
 467              	.LVL27:
 468              	@ ../Libraries/STM32F4xx_StdPeriph_Driver/src/stm32f4xx_spi.c:417:     tmp = tmp / 10;  
 414:../Libraries/STM32F4xx_StdPeriph_Driver/src/stm32f4xx_spi.c ****     }
 415:../Libraries/STM32F4xx_StdPeriph_Driver/src/stm32f4xx_spi.c ****     
 416:../Libraries/STM32F4xx_StdPeriph_Driver/src/stm32f4xx_spi.c ****     /* Remove the flatting point */
 417:../Libraries/STM32F4xx_StdPeriph_Driver/src/stm32f4xx_spi.c ****     tmp = tmp / 10;  
 469              		.loc 1 417 9 view .LVU111
 470 0076 184A     		ldr	r2, .L30+8	@ tmp216,
 471              	@ ../Libraries/STM32F4xx_StdPeriph_Driver/src/stm32f4xx_spi.c:413:       tmp = (uint16_t)(((((i2scl
 413:../Libraries/STM32F4xx_StdPeriph_Driver/src/stm32f4xx_spi.c ****     }
 472              		.loc 1 413 64 view .LVU112
 473 0078 B3FBF5F3 		udiv	r3, r3, r5	@ tmp212, tmp210, _3
 474              	@ ../Libraries/STM32F4xx_StdPeriph_Driver/src/stm32f4xx_spi.c:413:       tmp = (uint16_t)(((((i2scl
 413:../Libraries/STM32F4xx_StdPeriph_Driver/src/stm32f4xx_spi.c ****     }
 475              		.loc 1 413 13 view .LVU113
 476 007c 0533     		adds	r3, r3, #5	@ tmp214, tmp212,
 477              	@ ../Libraries/STM32F4xx_StdPeriph_Driver/src/stm32f4xx_spi.c:413:       tmp = (uint16_t)(((((i2scl
 413:../Libraries/STM32F4xx_StdPeriph_Driver/src/stm32f4xx_spi.c ****     }
 478              		.loc 1 413 11 view .LVU114
 479 007e 9BB2     		uxth	r3, r3	@ tmp, tmp214
 480              	.LVL28:
 481              		.loc 1 417 5 is_stmt 1 view .LVU115
 482              	@ ../Libraries/STM32F4xx_StdPeriph_Driver/src/stm32f4xx_spi.c:417:     tmp = tmp / 10;  
 483              		.loc 1 417 9 is_stmt 0 view .LVU116
 484 0080 A2FB0323 		umull	r2, r3, r2, r3	@ tmp249, tmp215, tmp216, tmp
 485              	.LVL29:
 418:../Libraries/STM32F4xx_StdPeriph_Driver/src/stm32f4xx_spi.c ****       
 419:../Libraries/STM32F4xx_StdPeriph_Driver/src/stm32f4xx_spi.c ****     /* Check the parity of the divider */
 420:../Libraries/STM32F4xx_StdPeriph_Driver/src/stm32f4xx_spi.c ****     i2sodd = (uint16_t)(tmp & (uint16_t)0x0001);
 486              		.loc 1 420 5 is_stmt 1 view .LVU117
 421:../Libraries/STM32F4xx_StdPeriph_Driver/src/stm32f4xx_spi.c ****    
 422:../Libraries/STM32F4xx_StdPeriph_Driver/src/stm32f4xx_spi.c ****     /* Compute the i2sdiv prescaler */
 423:../Libraries/STM32F4xx_StdPeriph_Driver/src/stm32f4xx_spi.c ****     i2sdiv = (uint16_t)((tmp - i2sodd) / 2);
 487              		.loc 1 423 5 view .LVU118
 488              	@ ../Libraries/STM32F4xx_StdPeriph_Driver/src/stm32f4xx_spi.c:423:     i2sdiv = (uint16_t)((tmp - i
 489              		.loc 1 423 12 is_stmt 0 view .LVU119
 490 0084 1D09     		lsrs	r5, r3, #4	@ i2sdiv, tmp215,
 491              	.LVL30:
 424:../Libraries/STM32F4xx_StdPeriph_Driver/src/stm32f4xx_spi.c ****    
 425:../Libraries/STM32F4xx_StdPeriph_Driver/src/stm32f4xx_spi.c ****     /* Get the Mask for the Odd bit (SPI_I2SPR[8]) register */
 426:../Libraries/STM32F4xx_StdPeriph_Driver/src/stm32f4xx_spi.c ****     i2sodd = (uint16_t) (i2sodd << 8);
 492              		.loc 1 426 5 is_stmt 1 view .LVU120
 493              	@ ../Libraries/STM32F4xx_StdPeriph_Driver/src/stm32f4xx_spi.c:430:   if ((i2sdiv < 2) || (i2sdiv > 
 427:../Libraries/STM32F4xx_StdPeriph_Driver/src/stm32f4xx_spi.c ****   }
 428:../Libraries/STM32F4xx_StdPeriph_Driver/src/stm32f4xx_spi.c **** 
 429:../Libraries/STM32F4xx_StdPeriph_Driver/src/stm32f4xx_spi.c ****   /* Test if the divider is 1 or 0 or greater than 0xFF */
 430:../Libraries/STM32F4xx_StdPeriph_Driver/src/stm32f4xx_spi.c ****   if ((i2sdiv < 2) || (i2sdiv > 0xFF))
 494              		.loc 1 430 6 is_stmt 0 view .LVU121
ARM GAS  C:\Users\admin\AppData\Local\Temp\ccLq5Oux.s 			page 18


 495 0086 AA1E     		subs	r2, r5, #2	@ tmp228, i2sdiv,
 496              	@ ../Libraries/STM32F4xx_StdPeriph_Driver/src/stm32f4xx_spi.c:423:     i2sdiv = (uint16_t)((tmp - i
 423:../Libraries/STM32F4xx_StdPeriph_Driver/src/stm32f4xx_spi.c ****    
 497              		.loc 1 423 30 view .LVU122
 498 0088 C3F3C003 		ubfx	r3, r3, #3, #1	@ i2sodd, tmp215,,
 499              	.LVL31:
 500              		.loc 1 430 3 is_stmt 1 view .LVU123
 501              	@ ../Libraries/STM32F4xx_StdPeriph_Driver/src/stm32f4xx_spi.c:430:   if ((i2sdiv < 2) || (i2sdiv > 
 502              		.loc 1 430 6 is_stmt 0 view .LVU124
 503 008c FD2A     		cmp	r2, #253	@ tmp228,
 504              		.loc 1 430 6 view .LVU125
 505 008e 94BF     		ite	ls
 506 0090 45EA0323 		orrls	r3, r5, r3, lsl #8	@ _96, i2sdiv, i2sodd,
 507              	.LVL32:
 508              		.loc 1 430 6 view .LVU126
 509 0094 0223     		movhi	r3, #2	@ _96,
 510              	.LVL33:
 511              	.L16:
 431:../Libraries/STM32F4xx_StdPeriph_Driver/src/stm32f4xx_spi.c ****   {
 432:../Libraries/STM32F4xx_StdPeriph_Driver/src/stm32f4xx_spi.c ****     /* Set the default values */
 433:../Libraries/STM32F4xx_StdPeriph_Driver/src/stm32f4xx_spi.c ****     i2sdiv = 2;
 434:../Libraries/STM32F4xx_StdPeriph_Driver/src/stm32f4xx_spi.c ****     i2sodd = 0;
 435:../Libraries/STM32F4xx_StdPeriph_Driver/src/stm32f4xx_spi.c ****   }
 436:../Libraries/STM32F4xx_StdPeriph_Driver/src/stm32f4xx_spi.c **** 
 437:../Libraries/STM32F4xx_StdPeriph_Driver/src/stm32f4xx_spi.c ****   /* Write to SPIx I2SPR register the computed value */
 438:../Libraries/STM32F4xx_StdPeriph_Driver/src/stm32f4xx_spi.c ****   SPIx->I2SPR = (uint16_t)((uint16_t)i2sdiv | (uint16_t)(i2sodd | (uint16_t)I2S_InitStruct->I2S_MCL
 512              		.loc 1 438 3 is_stmt 1 view .LVU127
 513              	@ ../Libraries/STM32F4xx_StdPeriph_Driver/src/stm32f4xx_spi.c:438:   SPIx->I2SPR = (uint16_t)((uint
 514              		.loc 1 438 17 is_stmt 0 view .LVU128
 515 0096 2343     		orrs	r3, r3, r4	@, _37, _96, _16
 516              	@ ../Libraries/STM32F4xx_StdPeriph_Driver/src/stm32f4xx_spi.c:441:   tmpreg |= (uint16_t)((uint16_t
 439:../Libraries/STM32F4xx_StdPeriph_Driver/src/stm32f4xx_spi.c ****  
 440:../Libraries/STM32F4xx_StdPeriph_Driver/src/stm32f4xx_spi.c ****   /* Configure the I2S with the SPI_InitStruct values */
 441:../Libraries/STM32F4xx_StdPeriph_Driver/src/stm32f4xx_spi.c ****   tmpreg |= (uint16_t)((uint16_t)SPI_I2SCFGR_I2SMOD | (uint16_t)(I2S_InitStruct->I2S_Mode | \
 517              		.loc 1 441 10 view .LVU129
 518 0098 4A88     		ldrh	r2, [r1, #2]	@, I2S_InitStruct_59(D)->I2S_Standard
 519              	@ ../Libraries/STM32F4xx_StdPeriph_Driver/src/stm32f4xx_spi.c:438:   SPIx->I2SPR = (uint16_t)((uint
 438:../Libraries/STM32F4xx_StdPeriph_Driver/src/stm32f4xx_spi.c ****  
 520              		.loc 1 438 15 view .LVU130
 521 009a 0384     		strh	r3, [r0, #32]	@ movhi	@ _37, SPIx_55(D)->I2SPR
 522              		.loc 1 441 3 is_stmt 1 view .LVU131
 523              	@ ../Libraries/STM32F4xx_StdPeriph_Driver/src/stm32f4xx_spi.c:441:   tmpreg |= (uint16_t)((uint16_t
 524              		.loc 1 441 10 is_stmt 0 view .LVU132
 525 009c 0B88     		ldrh	r3, [r1]	@, I2S_InitStruct_59(D)->I2S_Mode
 526 009e 1343     		orrs	r3, r3, r2	@, tmp236, I2S_InitStruct_59(D)->I2S_Mode, I2S_InitStruct_59(D)->I2S_Standard
 527 00a0 8A89     		ldrh	r2, [r1, #12]	@, I2S_InitStruct_59(D)->I2S_CPOL
 528 00a2 4EEA030E 		orr	lr, lr, r3	@ tmp238, _4, tmp236
 529 00a6 4EEA020E 		orr	lr, lr, r2	@ tmp241, tmp238, I2S_InitStruct_59(D)->I2S_CPOL
 530 00aa 4CEA0E0C 		orr	ip, ip, lr	@ tmp243, tmpreg, tmp241
 531              	.LVL34:
 532              		.loc 1 441 10 view .LVU133
 533 00ae 1FFA8CFC 		uxth	ip, ip	@ _45, tmp243
 534 00b2 4CF4006C 		orr	ip, ip, #2048	@ tmpreg, _45,
 535              	.LVL35:
 442:../Libraries/STM32F4xx_StdPeriph_Driver/src/stm32f4xx_spi.c ****                   (uint16_t)(I2S_InitStruct->I2S_Standard | (uint16_t)(I2S_InitStruct->I2S_DataForm
 443:../Libraries/STM32F4xx_StdPeriph_Driver/src/stm32f4xx_spi.c ****                   (uint16_t)I2S_InitStruct->I2S_CPOL))));
 444:../Libraries/STM32F4xx_StdPeriph_Driver/src/stm32f4xx_spi.c ****  
ARM GAS  C:\Users\admin\AppData\Local\Temp\ccLq5Oux.s 			page 19


 445:../Libraries/STM32F4xx_StdPeriph_Driver/src/stm32f4xx_spi.c ****   /* Write to SPIx I2SCFGR */  
 446:../Libraries/STM32F4xx_StdPeriph_Driver/src/stm32f4xx_spi.c ****   SPIx->I2SCFGR = tmpreg;
 536              		.loc 1 446 3 is_stmt 1 view .LVU134
 537              	@ ../Libraries/STM32F4xx_StdPeriph_Driver/src/stm32f4xx_spi.c:446:   SPIx->I2SCFGR = tmpreg;
 538              		.loc 1 446 17 is_stmt 0 view .LVU135
 539 00b6 A0F81CC0 		strh	ip, [r0, #28]	@ movhi	@ tmpreg, SPIx_55(D)->I2SCFGR
 540              	@ ../Libraries/STM32F4xx_StdPeriph_Driver/src/stm32f4xx_spi.c:447: }
 447:../Libraries/STM32F4xx_StdPeriph_Driver/src/stm32f4xx_spi.c **** }
 541              		.loc 1 447 1 view .LVU136
 542 00ba BDE8F081 		pop	{r4, r5, r6, r7, r8, pc}	@
 543              	.LVL36:
 544              	.L29:
 386:../Libraries/STM32F4xx_StdPeriph_Driver/src/stm32f4xx_spi.c ****     }    
 545              		.loc 1 386 7 is_stmt 1 view .LVU137
 546              	@ ../Libraries/STM32F4xx_StdPeriph_Driver/src/stm32f4xx_spi.c:386:       RCC->CFGR &= ~(uint32_t)RC
 386:../Libraries/STM32F4xx_StdPeriph_Driver/src/stm32f4xx_spi.c ****     }    
 547              		.loc 1 386 17 is_stmt 0 view .LVU138
 548 00be 9A68     		ldr	r2, [r3, #8]	@ _7, MEM[(struct RCC_TypeDef *)1073887232B].CFGR
 549 00c0 22F40002 		bic	r2, r2, #8388608	@ _8, _7,
 550 00c4 9A60     		str	r2, [r3, #8]	@ _8, MEM[(struct RCC_TypeDef *)1073887232B].CFGR
 551 00c6 B9E7     		b	.L18		@
 552              	.LVL37:
 553              	.L28:
 554              	@ ../Libraries/STM32F4xx_StdPeriph_Driver/src/stm32f4xx_spi.c:405:     if(I2S_InitStruct->I2S_MCLKO
 405:../Libraries/STM32F4xx_StdPeriph_Driver/src/stm32f4xx_spi.c ****     {
 555              		.loc 1 405 22 view .LVU139
 556 00c8 CC88     		ldrh	r4, [r1, #6]	@ _16, I2S_InitStruct_59(D)->I2S_MCLKOutput
 557 00ca 2B46     		mov	r3, r5	@ _96, _3
 558 00cc E3E7     		b	.L16		@
 559              	.L31:
 560 00ce 00BF     		.align	2
 561              	.L30:
 562 00d0 00380240 		.word	1073887232
 563 00d4 00127A00 		.word	8000000
 564 00d8 CDCCCCCC 		.word	-858993459
 565              		.cfi_endproc
 566              	.LFE112:
 567              		.size	I2S_Init, .-I2S_Init
 568              		.section	.text.SPI_StructInit,"ax",%progbits
 569              		.align	1
 570              		.p2align 2,,3
 571              		.global	SPI_StructInit
 572              		.syntax unified
 573              		.thumb
 574              		.thumb_func
 575              		.type	SPI_StructInit, %function
 576              	SPI_StructInit:
 577              	.LVL38:
 578              	.LFB113:
 448:../Libraries/STM32F4xx_StdPeriph_Driver/src/stm32f4xx_spi.c **** 
 449:../Libraries/STM32F4xx_StdPeriph_Driver/src/stm32f4xx_spi.c **** /**
 450:../Libraries/STM32F4xx_StdPeriph_Driver/src/stm32f4xx_spi.c ****   * @brief  Fills each SPI_InitStruct member with its default value.
 451:../Libraries/STM32F4xx_StdPeriph_Driver/src/stm32f4xx_spi.c ****   * @param  SPI_InitStruct: pointer to a SPI_InitTypeDef structure which will be initialized.
 452:../Libraries/STM32F4xx_StdPeriph_Driver/src/stm32f4xx_spi.c ****   * @retval None
 453:../Libraries/STM32F4xx_StdPeriph_Driver/src/stm32f4xx_spi.c ****   */
 454:../Libraries/STM32F4xx_StdPeriph_Driver/src/stm32f4xx_spi.c **** void SPI_StructInit(SPI_InitTypeDef* SPI_InitStruct)
 455:../Libraries/STM32F4xx_StdPeriph_Driver/src/stm32f4xx_spi.c **** {
ARM GAS  C:\Users\admin\AppData\Local\Temp\ccLq5Oux.s 			page 20


 579              		.loc 1 455 1 is_stmt 1 view -0
 580              		.cfi_startproc
 581              		@ args = 0, pretend = 0, frame = 0
 582              		@ frame_needed = 0, uses_anonymous_args = 0
 583              		@ link register save eliminated.
 456:../Libraries/STM32F4xx_StdPeriph_Driver/src/stm32f4xx_spi.c **** /*--------------- Reset SPI init structure parameters values -----------------*/
 457:../Libraries/STM32F4xx_StdPeriph_Driver/src/stm32f4xx_spi.c ****   /* Initialize the SPI_Direction member */
 458:../Libraries/STM32F4xx_StdPeriph_Driver/src/stm32f4xx_spi.c ****   SPI_InitStruct->SPI_Direction = SPI_Direction_2Lines_FullDuplex;
 584              		.loc 1 458 3 view .LVU141
 459:../Libraries/STM32F4xx_StdPeriph_Driver/src/stm32f4xx_spi.c ****   /* initialize the SPI_Mode member */
 460:../Libraries/STM32F4xx_StdPeriph_Driver/src/stm32f4xx_spi.c ****   SPI_InitStruct->SPI_Mode = SPI_Mode_Slave;
 585              		.loc 1 460 3 view .LVU142
 461:../Libraries/STM32F4xx_StdPeriph_Driver/src/stm32f4xx_spi.c ****   /* initialize the SPI_DataSize member */
 462:../Libraries/STM32F4xx_StdPeriph_Driver/src/stm32f4xx_spi.c ****   SPI_InitStruct->SPI_DataSize = SPI_DataSize_8b;
 586              		.loc 1 462 3 view .LVU143
 463:../Libraries/STM32F4xx_StdPeriph_Driver/src/stm32f4xx_spi.c ****   /* Initialize the SPI_CPOL member */
 464:../Libraries/STM32F4xx_StdPeriph_Driver/src/stm32f4xx_spi.c ****   SPI_InitStruct->SPI_CPOL = SPI_CPOL_Low;
 587              		.loc 1 464 3 view .LVU144
 465:../Libraries/STM32F4xx_StdPeriph_Driver/src/stm32f4xx_spi.c ****   /* Initialize the SPI_CPHA member */
 466:../Libraries/STM32F4xx_StdPeriph_Driver/src/stm32f4xx_spi.c ****   SPI_InitStruct->SPI_CPHA = SPI_CPHA_1Edge;
 588              		.loc 1 466 3 view .LVU145
 467:../Libraries/STM32F4xx_StdPeriph_Driver/src/stm32f4xx_spi.c ****   /* Initialize the SPI_NSS member */
 468:../Libraries/STM32F4xx_StdPeriph_Driver/src/stm32f4xx_spi.c ****   SPI_InitStruct->SPI_NSS = SPI_NSS_Hard;
 589              		.loc 1 468 3 view .LVU146
 469:../Libraries/STM32F4xx_StdPeriph_Driver/src/stm32f4xx_spi.c ****   /* Initialize the SPI_BaudRatePrescaler member */
 470:../Libraries/STM32F4xx_StdPeriph_Driver/src/stm32f4xx_spi.c ****   SPI_InitStruct->SPI_BaudRatePrescaler = SPI_BaudRatePrescaler_2;
 590              		.loc 1 470 3 view .LVU147
 471:../Libraries/STM32F4xx_StdPeriph_Driver/src/stm32f4xx_spi.c ****   /* Initialize the SPI_FirstBit member */
 472:../Libraries/STM32F4xx_StdPeriph_Driver/src/stm32f4xx_spi.c ****   SPI_InitStruct->SPI_FirstBit = SPI_FirstBit_MSB;
 591              		.loc 1 472 3 view .LVU148
 592              	@ ../Libraries/STM32F4xx_StdPeriph_Driver/src/stm32f4xx_spi.c:458:   SPI_InitStruct->SPI_Direction 
 458:../Libraries/STM32F4xx_StdPeriph_Driver/src/stm32f4xx_spi.c ****   /* initialize the SPI_Mode member */
 593              		.loc 1 458 33 is_stmt 0 view .LVU149
 594 0000 0023     		movs	r3, #0	@ tmp114,
 595              	@ ../Libraries/STM32F4xx_StdPeriph_Driver/src/stm32f4xx_spi.c:474:   SPI_InitStruct->SPI_CRCPolynom
 473:../Libraries/STM32F4xx_StdPeriph_Driver/src/stm32f4xx_spi.c ****   /* Initialize the SPI_CRCPolynomial member */
 474:../Libraries/STM32F4xx_StdPeriph_Driver/src/stm32f4xx_spi.c ****   SPI_InitStruct->SPI_CRCPolynomial = 7;
 596              		.loc 1 474 37 view .LVU150
 597 0002 0722     		movs	r2, #7	@ tmp119,
 598              	@ ../Libraries/STM32F4xx_StdPeriph_Driver/src/stm32f4xx_spi.c:458:   SPI_InitStruct->SPI_Direction 
 458:../Libraries/STM32F4xx_StdPeriph_Driver/src/stm32f4xx_spi.c ****   /* initialize the SPI_Mode member */
 599              		.loc 1 458 33 view .LVU151
 600 0004 0360     		str	r3, [r0]	@ unaligned	@ tmp114, MEM <vector(2) short unsigned int> [(short unsigned int *)SPI_I
 601 0006 4360     		str	r3, [r0, #4]	@ unaligned	@ tmp114, MEM <vector(2) short unsigned int> [(short unsigned int *)S
 602 0008 8360     		str	r3, [r0, #8]	@ unaligned	@ tmp114, MEM <vector(2) short unsigned int> [(short unsigned int *)S
 603 000a C360     		str	r3, [r0, #12]	@ unaligned	@ tmp114, MEM <vector(2) short unsigned int> [(short unsigned int *)
 604              		.loc 1 474 3 is_stmt 1 view .LVU152
 605              	@ ../Libraries/STM32F4xx_StdPeriph_Driver/src/stm32f4xx_spi.c:474:   SPI_InitStruct->SPI_CRCPolynom
 606              		.loc 1 474 37 is_stmt 0 view .LVU153
 607 000c 0282     		strh	r2, [r0, #16]	@ movhi	@ tmp119, SPI_InitStruct_2(D)->SPI_CRCPolynomial
 608              	@ ../Libraries/STM32F4xx_StdPeriph_Driver/src/stm32f4xx_spi.c:475: }
 475:../Libraries/STM32F4xx_StdPeriph_Driver/src/stm32f4xx_spi.c **** }
 609              		.loc 1 475 1 view .LVU154
 610 000e 7047     		bx	lr	@
 611              		.cfi_endproc
 612              	.LFE113:
 613              		.size	SPI_StructInit, .-SPI_StructInit
ARM GAS  C:\Users\admin\AppData\Local\Temp\ccLq5Oux.s 			page 21


 614              		.section	.text.I2S_StructInit,"ax",%progbits
 615              		.align	1
 616              		.p2align 2,,3
 617              		.global	I2S_StructInit
 618              		.syntax unified
 619              		.thumb
 620              		.thumb_func
 621              		.type	I2S_StructInit, %function
 622              	I2S_StructInit:
 623              	.LVL39:
 624              	.LFB114:
 476:../Libraries/STM32F4xx_StdPeriph_Driver/src/stm32f4xx_spi.c **** 
 477:../Libraries/STM32F4xx_StdPeriph_Driver/src/stm32f4xx_spi.c **** /**
 478:../Libraries/STM32F4xx_StdPeriph_Driver/src/stm32f4xx_spi.c ****   * @brief  Fills each I2S_InitStruct member with its default value.
 479:../Libraries/STM32F4xx_StdPeriph_Driver/src/stm32f4xx_spi.c ****   * @param  I2S_InitStruct: pointer to a I2S_InitTypeDef structure which will be initialized.
 480:../Libraries/STM32F4xx_StdPeriph_Driver/src/stm32f4xx_spi.c ****   * @retval None
 481:../Libraries/STM32F4xx_StdPeriph_Driver/src/stm32f4xx_spi.c ****   */
 482:../Libraries/STM32F4xx_StdPeriph_Driver/src/stm32f4xx_spi.c **** void I2S_StructInit(I2S_InitTypeDef* I2S_InitStruct)
 483:../Libraries/STM32F4xx_StdPeriph_Driver/src/stm32f4xx_spi.c **** {
 625              		.loc 1 483 1 is_stmt 1 view -0
 626              		.cfi_startproc
 627              		@ args = 0, pretend = 0, frame = 0
 628              		@ frame_needed = 0, uses_anonymous_args = 0
 629              		@ link register save eliminated.
 484:../Libraries/STM32F4xx_StdPeriph_Driver/src/stm32f4xx_spi.c **** /*--------------- Reset I2S init structure parameters values -----------------*/
 485:../Libraries/STM32F4xx_StdPeriph_Driver/src/stm32f4xx_spi.c ****   /* Initialize the I2S_Mode member */
 486:../Libraries/STM32F4xx_StdPeriph_Driver/src/stm32f4xx_spi.c ****   I2S_InitStruct->I2S_Mode = I2S_Mode_SlaveTx;
 630              		.loc 1 486 3 view .LVU156
 487:../Libraries/STM32F4xx_StdPeriph_Driver/src/stm32f4xx_spi.c ****   
 488:../Libraries/STM32F4xx_StdPeriph_Driver/src/stm32f4xx_spi.c ****   /* Initialize the I2S_Standard member */
 489:../Libraries/STM32F4xx_StdPeriph_Driver/src/stm32f4xx_spi.c ****   I2S_InitStruct->I2S_Standard = I2S_Standard_Phillips;
 631              		.loc 1 489 3 view .LVU157
 490:../Libraries/STM32F4xx_StdPeriph_Driver/src/stm32f4xx_spi.c ****   
 491:../Libraries/STM32F4xx_StdPeriph_Driver/src/stm32f4xx_spi.c ****   /* Initialize the I2S_DataFormat member */
 492:../Libraries/STM32F4xx_StdPeriph_Driver/src/stm32f4xx_spi.c ****   I2S_InitStruct->I2S_DataFormat = I2S_DataFormat_16b;
 632              		.loc 1 492 3 view .LVU158
 493:../Libraries/STM32F4xx_StdPeriph_Driver/src/stm32f4xx_spi.c ****   
 494:../Libraries/STM32F4xx_StdPeriph_Driver/src/stm32f4xx_spi.c ****   /* Initialize the I2S_MCLKOutput member */
 495:../Libraries/STM32F4xx_StdPeriph_Driver/src/stm32f4xx_spi.c ****   I2S_InitStruct->I2S_MCLKOutput = I2S_MCLKOutput_Disable;
 633              		.loc 1 495 3 view .LVU159
 634              	@ ../Libraries/STM32F4xx_StdPeriph_Driver/src/stm32f4xx_spi.c:486:   I2S_InitStruct->I2S_Mode = I2S
 486:../Libraries/STM32F4xx_StdPeriph_Driver/src/stm32f4xx_spi.c ****   
 635              		.loc 1 486 28 is_stmt 0 view .LVU160
 636 0000 0023     		movs	r3, #0	@ tmp114,
 637              	@ ../Libraries/STM32F4xx_StdPeriph_Driver/src/stm32f4xx_spi.c:498:   I2S_InitStruct->I2S_AudioFreq 
 496:../Libraries/STM32F4xx_StdPeriph_Driver/src/stm32f4xx_spi.c ****   
 497:../Libraries/STM32F4xx_StdPeriph_Driver/src/stm32f4xx_spi.c ****   /* Initialize the I2S_AudioFreq member */
 498:../Libraries/STM32F4xx_StdPeriph_Driver/src/stm32f4xx_spi.c ****   I2S_InitStruct->I2S_AudioFreq = I2S_AudioFreq_Default;
 638              		.loc 1 498 33 view .LVU161
 639 0002 0222     		movs	r2, #2	@ tmp116,
 640              	@ ../Libraries/STM32F4xx_StdPeriph_Driver/src/stm32f4xx_spi.c:486:   I2S_InitStruct->I2S_Mode = I2S
 486:../Libraries/STM32F4xx_StdPeriph_Driver/src/stm32f4xx_spi.c ****   
 641              		.loc 1 486 28 view .LVU162
 642 0004 C0E90033 		strd	r3, r3, [r0]	@ tmp114, tmp114, I2S_InitStruct
 643              		.loc 1 498 3 is_stmt 1 view .LVU163
 644              	@ ../Libraries/STM32F4xx_StdPeriph_Driver/src/stm32f4xx_spi.c:498:   I2S_InitStruct->I2S_AudioFreq 
 645              		.loc 1 498 33 is_stmt 0 view .LVU164
ARM GAS  C:\Users\admin\AppData\Local\Temp\ccLq5Oux.s 			page 22


 646 0008 8260     		str	r2, [r0, #8]	@ tmp116, I2S_InitStruct_2(D)->I2S_AudioFreq
 499:../Libraries/STM32F4xx_StdPeriph_Driver/src/stm32f4xx_spi.c ****   
 500:../Libraries/STM32F4xx_StdPeriph_Driver/src/stm32f4xx_spi.c ****   /* Initialize the I2S_CPOL member */
 501:../Libraries/STM32F4xx_StdPeriph_Driver/src/stm32f4xx_spi.c ****   I2S_InitStruct->I2S_CPOL = I2S_CPOL_Low;
 647              		.loc 1 501 3 is_stmt 1 view .LVU165
 648              	@ ../Libraries/STM32F4xx_StdPeriph_Driver/src/stm32f4xx_spi.c:501:   I2S_InitStruct->I2S_CPOL = I2S
 649              		.loc 1 501 28 is_stmt 0 view .LVU166
 650 000a 8381     		strh	r3, [r0, #12]	@ movhi	@ tmp114, I2S_InitStruct_2(D)->I2S_CPOL
 651              	@ ../Libraries/STM32F4xx_StdPeriph_Driver/src/stm32f4xx_spi.c:502: }
 502:../Libraries/STM32F4xx_StdPeriph_Driver/src/stm32f4xx_spi.c **** }
 652              		.loc 1 502 1 view .LVU167
 653 000c 7047     		bx	lr	@
 654              		.cfi_endproc
 655              	.LFE114:
 656              		.size	I2S_StructInit, .-I2S_StructInit
 657 000e 00BF     		.section	.text.SPI_Cmd,"ax",%progbits
 658              		.align	1
 659              		.p2align 2,,3
 660              		.global	SPI_Cmd
 661              		.syntax unified
 662              		.thumb
 663              		.thumb_func
 664              		.type	SPI_Cmd, %function
 665              	SPI_Cmd:
 666              	.LVL40:
 667              	.LFB115:
 503:../Libraries/STM32F4xx_StdPeriph_Driver/src/stm32f4xx_spi.c **** 
 504:../Libraries/STM32F4xx_StdPeriph_Driver/src/stm32f4xx_spi.c **** /**
 505:../Libraries/STM32F4xx_StdPeriph_Driver/src/stm32f4xx_spi.c ****   * @brief  Enables or disables the specified SPI peripheral.
 506:../Libraries/STM32F4xx_StdPeriph_Driver/src/stm32f4xx_spi.c ****   * @param  SPIx: where x can be 1, 2 or 3 to select the SPI peripheral.
 507:../Libraries/STM32F4xx_StdPeriph_Driver/src/stm32f4xx_spi.c ****   * @param  NewState: new state of the SPIx peripheral. 
 508:../Libraries/STM32F4xx_StdPeriph_Driver/src/stm32f4xx_spi.c ****   *          This parameter can be: ENABLE or DISABLE.
 509:../Libraries/STM32F4xx_StdPeriph_Driver/src/stm32f4xx_spi.c ****   * @retval None
 510:../Libraries/STM32F4xx_StdPeriph_Driver/src/stm32f4xx_spi.c ****   */
 511:../Libraries/STM32F4xx_StdPeriph_Driver/src/stm32f4xx_spi.c **** void SPI_Cmd(SPI_TypeDef* SPIx, FunctionalState NewState)
 512:../Libraries/STM32F4xx_StdPeriph_Driver/src/stm32f4xx_spi.c **** {
 668              		.loc 1 512 1 is_stmt 1 view -0
 669              		.cfi_startproc
 670              		@ args = 0, pretend = 0, frame = 0
 671              		@ frame_needed = 0, uses_anonymous_args = 0
 672              		@ link register save eliminated.
 513:../Libraries/STM32F4xx_StdPeriph_Driver/src/stm32f4xx_spi.c ****   /* Check the parameters */
 514:../Libraries/STM32F4xx_StdPeriph_Driver/src/stm32f4xx_spi.c ****   assert_param(IS_SPI_ALL_PERIPH(SPIx));
 673              		.loc 1 514 3 view .LVU169
 515:../Libraries/STM32F4xx_StdPeriph_Driver/src/stm32f4xx_spi.c ****   assert_param(IS_FUNCTIONAL_STATE(NewState));
 674              		.loc 1 515 3 view .LVU170
 516:../Libraries/STM32F4xx_StdPeriph_Driver/src/stm32f4xx_spi.c ****   if (NewState != DISABLE)
 675              		.loc 1 516 3 view .LVU171
 676              	@ ../Libraries/STM32F4xx_StdPeriph_Driver/src/stm32f4xx_spi.c:519:     SPIx->CR1 |= SPI_CR1_SPE;
 517:../Libraries/STM32F4xx_StdPeriph_Driver/src/stm32f4xx_spi.c ****   {
 518:../Libraries/STM32F4xx_StdPeriph_Driver/src/stm32f4xx_spi.c ****     /* Enable the selected SPI peripheral */
 519:../Libraries/STM32F4xx_StdPeriph_Driver/src/stm32f4xx_spi.c ****     SPIx->CR1 |= SPI_CR1_SPE;
 677              		.loc 1 519 15 is_stmt 0 view .LVU172
 678 0000 0388     		ldrh	r3, [r0]	@,* SPIx
 679              	@ ../Libraries/STM32F4xx_StdPeriph_Driver/src/stm32f4xx_spi.c:516:   if (NewState != DISABLE)
 516:../Libraries/STM32F4xx_StdPeriph_Driver/src/stm32f4xx_spi.c ****   if (NewState != DISABLE)
 680              		.loc 1 516 6 view .LVU173
ARM GAS  C:\Users\admin\AppData\Local\Temp\ccLq5Oux.s 			page 23


 681 0002 21B1     		cbz	r1, .L35	@ tmp126,
 682              		.loc 1 519 5 is_stmt 1 view .LVU174
 683              	@ ../Libraries/STM32F4xx_StdPeriph_Driver/src/stm32f4xx_spi.c:519:     SPIx->CR1 |= SPI_CR1_SPE;
 684              		.loc 1 519 15 is_stmt 0 view .LVU175
 685 0004 9BB2     		uxth	r3, r3	@ _1, SPIx_8(D)->CR1
 686 0006 43F04003 		orr	r3, r3, #64	@ _2, _1,
 687 000a 0380     		strh	r3, [r0]	@ movhi	@ _2,* SPIx
 688 000c 7047     		bx	lr	@
 689              	.L35:
 520:../Libraries/STM32F4xx_StdPeriph_Driver/src/stm32f4xx_spi.c ****   }
 521:../Libraries/STM32F4xx_StdPeriph_Driver/src/stm32f4xx_spi.c ****   else
 522:../Libraries/STM32F4xx_StdPeriph_Driver/src/stm32f4xx_spi.c ****   {
 523:../Libraries/STM32F4xx_StdPeriph_Driver/src/stm32f4xx_spi.c ****     /* Disable the selected SPI peripheral */
 524:../Libraries/STM32F4xx_StdPeriph_Driver/src/stm32f4xx_spi.c ****     SPIx->CR1 &= (uint16_t)~((uint16_t)SPI_CR1_SPE);
 690              		.loc 1 524 5 is_stmt 1 view .LVU176
 691              	@ ../Libraries/STM32F4xx_StdPeriph_Driver/src/stm32f4xx_spi.c:524:     SPIx->CR1 &= (uint16_t)~((ui
 692              		.loc 1 524 15 is_stmt 0 view .LVU177
 693 000e 23F04003 		bic	r3, r3, #64	@ _4, SPIx_8(D)->CR1,
 694 0012 1B04     		lsls	r3, r3, #16	@ _4, _4,
 695 0014 1B0C     		lsrs	r3, r3, #16	@ _4, _4,
 696 0016 0380     		strh	r3, [r0]	@ movhi	@ _4,* SPIx
 697              	@ ../Libraries/STM32F4xx_StdPeriph_Driver/src/stm32f4xx_spi.c:526: }
 525:../Libraries/STM32F4xx_StdPeriph_Driver/src/stm32f4xx_spi.c ****   }
 526:../Libraries/STM32F4xx_StdPeriph_Driver/src/stm32f4xx_spi.c **** }
 698              		.loc 1 526 1 view .LVU178
 699 0018 7047     		bx	lr	@
 700              		.cfi_endproc
 701              	.LFE115:
 702              		.size	SPI_Cmd, .-SPI_Cmd
 703 001a 00BF     		.section	.text.I2S_Cmd,"ax",%progbits
 704              		.align	1
 705              		.p2align 2,,3
 706              		.global	I2S_Cmd
 707              		.syntax unified
 708              		.thumb
 709              		.thumb_func
 710              		.type	I2S_Cmd, %function
 711              	I2S_Cmd:
 712              	.LVL41:
 713              	.LFB116:
 527:../Libraries/STM32F4xx_StdPeriph_Driver/src/stm32f4xx_spi.c **** 
 528:../Libraries/STM32F4xx_StdPeriph_Driver/src/stm32f4xx_spi.c **** /**
 529:../Libraries/STM32F4xx_StdPeriph_Driver/src/stm32f4xx_spi.c ****   * @brief  Enables or disables the specified SPI peripheral (in I2S mode).
 530:../Libraries/STM32F4xx_StdPeriph_Driver/src/stm32f4xx_spi.c ****   * @param  SPIx: where x can be 2 or 3 to select the SPI peripheral (or I2Sxext 
 531:../Libraries/STM32F4xx_StdPeriph_Driver/src/stm32f4xx_spi.c ****   *         for full duplex mode).
 532:../Libraries/STM32F4xx_StdPeriph_Driver/src/stm32f4xx_spi.c ****   * @param  NewState: new state of the SPIx peripheral. 
 533:../Libraries/STM32F4xx_StdPeriph_Driver/src/stm32f4xx_spi.c ****   *         This parameter can be: ENABLE or DISABLE.
 534:../Libraries/STM32F4xx_StdPeriph_Driver/src/stm32f4xx_spi.c ****   * @retval None
 535:../Libraries/STM32F4xx_StdPeriph_Driver/src/stm32f4xx_spi.c ****   */
 536:../Libraries/STM32F4xx_StdPeriph_Driver/src/stm32f4xx_spi.c **** void I2S_Cmd(SPI_TypeDef* SPIx, FunctionalState NewState)
 537:../Libraries/STM32F4xx_StdPeriph_Driver/src/stm32f4xx_spi.c **** {
 714              		.loc 1 537 1 is_stmt 1 view -0
 715              		.cfi_startproc
 716              		@ args = 0, pretend = 0, frame = 0
 717              		@ frame_needed = 0, uses_anonymous_args = 0
 718              		@ link register save eliminated.
 538:../Libraries/STM32F4xx_StdPeriph_Driver/src/stm32f4xx_spi.c ****   /* Check the parameters */
ARM GAS  C:\Users\admin\AppData\Local\Temp\ccLq5Oux.s 			page 24


 539:../Libraries/STM32F4xx_StdPeriph_Driver/src/stm32f4xx_spi.c ****   assert_param(IS_SPI_23_PERIPH_EXT(SPIx));
 719              		.loc 1 539 3 view .LVU180
 540:../Libraries/STM32F4xx_StdPeriph_Driver/src/stm32f4xx_spi.c ****   assert_param(IS_FUNCTIONAL_STATE(NewState));
 720              		.loc 1 540 3 view .LVU181
 541:../Libraries/STM32F4xx_StdPeriph_Driver/src/stm32f4xx_spi.c ****   
 542:../Libraries/STM32F4xx_StdPeriph_Driver/src/stm32f4xx_spi.c ****   if (NewState != DISABLE)
 721              		.loc 1 542 3 view .LVU182
 722              	@ ../Libraries/STM32F4xx_StdPeriph_Driver/src/stm32f4xx_spi.c:545:     SPIx->I2SCFGR |= SPI_I2SCFGR
 543:../Libraries/STM32F4xx_StdPeriph_Driver/src/stm32f4xx_spi.c ****   {
 544:../Libraries/STM32F4xx_StdPeriph_Driver/src/stm32f4xx_spi.c ****     /* Enable the selected SPI peripheral (in I2S mode) */
 545:../Libraries/STM32F4xx_StdPeriph_Driver/src/stm32f4xx_spi.c ****     SPIx->I2SCFGR |= SPI_I2SCFGR_I2SE;
 723              		.loc 1 545 19 is_stmt 0 view .LVU183
 724 0000 838B     		ldrh	r3, [r0, #28]	@,
 725              	@ ../Libraries/STM32F4xx_StdPeriph_Driver/src/stm32f4xx_spi.c:542:   if (NewState != DISABLE)
 542:../Libraries/STM32F4xx_StdPeriph_Driver/src/stm32f4xx_spi.c ****   {
 726              		.loc 1 542 6 view .LVU184
 727 0002 21B1     		cbz	r1, .L38	@ tmp128,
 728              		.loc 1 545 5 is_stmt 1 view .LVU185
 729              	@ ../Libraries/STM32F4xx_StdPeriph_Driver/src/stm32f4xx_spi.c:545:     SPIx->I2SCFGR |= SPI_I2SCFGR
 730              		.loc 1 545 19 is_stmt 0 view .LVU186
 731 0004 9BB2     		uxth	r3, r3	@ _1, SPIx_8(D)->I2SCFGR
 732 0006 43F48063 		orr	r3, r3, #1024	@ _2, _1,
 733 000a 8383     		strh	r3, [r0, #28]	@ movhi	@ _2,
 734 000c 7047     		bx	lr	@
 735              	.L38:
 546:../Libraries/STM32F4xx_StdPeriph_Driver/src/stm32f4xx_spi.c ****   }
 547:../Libraries/STM32F4xx_StdPeriph_Driver/src/stm32f4xx_spi.c ****   else
 548:../Libraries/STM32F4xx_StdPeriph_Driver/src/stm32f4xx_spi.c ****   {
 549:../Libraries/STM32F4xx_StdPeriph_Driver/src/stm32f4xx_spi.c ****     /* Disable the selected SPI peripheral in I2S mode */
 550:../Libraries/STM32F4xx_StdPeriph_Driver/src/stm32f4xx_spi.c ****     SPIx->I2SCFGR &= (uint16_t)~((uint16_t)SPI_I2SCFGR_I2SE);
 736              		.loc 1 550 5 is_stmt 1 view .LVU187
 737              	@ ../Libraries/STM32F4xx_StdPeriph_Driver/src/stm32f4xx_spi.c:550:     SPIx->I2SCFGR &= (uint16_t)~
 738              		.loc 1 550 19 is_stmt 0 view .LVU188
 739 000e 23F48063 		bic	r3, r3, #1024	@ _4, SPIx_8(D)->I2SCFGR,
 740 0012 1B04     		lsls	r3, r3, #16	@ _4, _4,
 741 0014 1B0C     		lsrs	r3, r3, #16	@ _4, _4,
 742 0016 8383     		strh	r3, [r0, #28]	@ movhi	@ _4,
 743              	@ ../Libraries/STM32F4xx_StdPeriph_Driver/src/stm32f4xx_spi.c:552: }
 551:../Libraries/STM32F4xx_StdPeriph_Driver/src/stm32f4xx_spi.c ****   }
 552:../Libraries/STM32F4xx_StdPeriph_Driver/src/stm32f4xx_spi.c **** }
 744              		.loc 1 552 1 view .LVU189
 745 0018 7047     		bx	lr	@
 746              		.cfi_endproc
 747              	.LFE116:
 748              		.size	I2S_Cmd, .-I2S_Cmd
 749 001a 00BF     		.section	.text.SPI_DataSizeConfig,"ax",%progbits
 750              		.align	1
 751              		.p2align 2,,3
 752              		.global	SPI_DataSizeConfig
 753              		.syntax unified
 754              		.thumb
 755              		.thumb_func
 756              		.type	SPI_DataSizeConfig, %function
 757              	SPI_DataSizeConfig:
 758              	.LVL42:
 759              	.LFB117:
 553:../Libraries/STM32F4xx_StdPeriph_Driver/src/stm32f4xx_spi.c **** 
ARM GAS  C:\Users\admin\AppData\Local\Temp\ccLq5Oux.s 			page 25


 554:../Libraries/STM32F4xx_StdPeriph_Driver/src/stm32f4xx_spi.c **** /**
 555:../Libraries/STM32F4xx_StdPeriph_Driver/src/stm32f4xx_spi.c ****   * @brief  Configures the data size for the selected SPI.
 556:../Libraries/STM32F4xx_StdPeriph_Driver/src/stm32f4xx_spi.c ****   * @param  SPIx: where x can be 1, 2 or 3 to select the SPI peripheral.
 557:../Libraries/STM32F4xx_StdPeriph_Driver/src/stm32f4xx_spi.c ****   * @param  SPI_DataSize: specifies the SPI data size.
 558:../Libraries/STM32F4xx_StdPeriph_Driver/src/stm32f4xx_spi.c ****   *          This parameter can be one of the following values:
 559:../Libraries/STM32F4xx_StdPeriph_Driver/src/stm32f4xx_spi.c ****   *            @arg SPI_DataSize_16b: Set data frame format to 16bit
 560:../Libraries/STM32F4xx_StdPeriph_Driver/src/stm32f4xx_spi.c ****   *            @arg SPI_DataSize_8b: Set data frame format to 8bit
 561:../Libraries/STM32F4xx_StdPeriph_Driver/src/stm32f4xx_spi.c ****   * @retval None
 562:../Libraries/STM32F4xx_StdPeriph_Driver/src/stm32f4xx_spi.c ****   */
 563:../Libraries/STM32F4xx_StdPeriph_Driver/src/stm32f4xx_spi.c **** void SPI_DataSizeConfig(SPI_TypeDef* SPIx, uint16_t SPI_DataSize)
 564:../Libraries/STM32F4xx_StdPeriph_Driver/src/stm32f4xx_spi.c **** {
 760              		.loc 1 564 1 is_stmt 1 view -0
 761              		.cfi_startproc
 762              		@ args = 0, pretend = 0, frame = 0
 763              		@ frame_needed = 0, uses_anonymous_args = 0
 764              		@ link register save eliminated.
 565:../Libraries/STM32F4xx_StdPeriph_Driver/src/stm32f4xx_spi.c ****   /* Check the parameters */
 566:../Libraries/STM32F4xx_StdPeriph_Driver/src/stm32f4xx_spi.c ****   assert_param(IS_SPI_ALL_PERIPH(SPIx));
 765              		.loc 1 566 3 view .LVU191
 567:../Libraries/STM32F4xx_StdPeriph_Driver/src/stm32f4xx_spi.c ****   assert_param(IS_SPI_DATASIZE(SPI_DataSize));
 766              		.loc 1 567 3 view .LVU192
 568:../Libraries/STM32F4xx_StdPeriph_Driver/src/stm32f4xx_spi.c ****   /* Clear DFF bit */
 569:../Libraries/STM32F4xx_StdPeriph_Driver/src/stm32f4xx_spi.c ****   SPIx->CR1 &= (uint16_t)~SPI_DataSize_16b;
 767              		.loc 1 569 3 view .LVU193
 768              	@ ../Libraries/STM32F4xx_StdPeriph_Driver/src/stm32f4xx_spi.c:569:   SPIx->CR1 &= (uint16_t)~SPI_Da
 769              		.loc 1 569 13 is_stmt 0 view .LVU194
 770 0000 0388     		ldrh	r3, [r0]	@, SPIx_6(D)->CR1
 771 0002 23F40063 		bic	r3, r3, #2048	@ _2, SPIx_6(D)->CR1,
 772 0006 1B04     		lsls	r3, r3, #16	@ _2, _2,
 773 0008 1B0C     		lsrs	r3, r3, #16	@ _2, _2,
 774 000a 0380     		strh	r3, [r0]	@ movhi	@ _2, SPIx_6(D)->CR1
 570:../Libraries/STM32F4xx_StdPeriph_Driver/src/stm32f4xx_spi.c ****   /* Set new DFF bit value */
 571:../Libraries/STM32F4xx_StdPeriph_Driver/src/stm32f4xx_spi.c ****   SPIx->CR1 |= SPI_DataSize;
 775              		.loc 1 571 3 is_stmt 1 view .LVU195
 776              	@ ../Libraries/STM32F4xx_StdPeriph_Driver/src/stm32f4xx_spi.c:571:   SPIx->CR1 |= SPI_DataSize;
 777              		.loc 1 571 13 is_stmt 0 view .LVU196
 778 000c 0388     		ldrh	r3, [r0]	@, SPIx_6(D)->CR1
 779 000e 9BB2     		uxth	r3, r3	@ _3, SPIx_6(D)->CR1
 780 0010 1943     		orrs	r1, r1, r3	@, _4, tmp126, _3
 781              	.LVL43:
 782              		.loc 1 571 13 view .LVU197
 783 0012 0180     		strh	r1, [r0]	@ movhi	@ _4, SPIx_6(D)->CR1
 784              	@ ../Libraries/STM32F4xx_StdPeriph_Driver/src/stm32f4xx_spi.c:572: }
 572:../Libraries/STM32F4xx_StdPeriph_Driver/src/stm32f4xx_spi.c **** }
 785              		.loc 1 572 1 view .LVU198
 786 0014 7047     		bx	lr	@
 787              		.cfi_endproc
 788              	.LFE117:
 789              		.size	SPI_DataSizeConfig, .-SPI_DataSizeConfig
 790 0016 00BF     		.section	.text.SPI_BiDirectionalLineConfig,"ax",%progbits
 791              		.align	1
 792              		.p2align 2,,3
 793              		.global	SPI_BiDirectionalLineConfig
 794              		.syntax unified
 795              		.thumb
 796              		.thumb_func
 797              		.type	SPI_BiDirectionalLineConfig, %function
ARM GAS  C:\Users\admin\AppData\Local\Temp\ccLq5Oux.s 			page 26


 798              	SPI_BiDirectionalLineConfig:
 799              	.LVL44:
 800              	.LFB118:
 573:../Libraries/STM32F4xx_StdPeriph_Driver/src/stm32f4xx_spi.c **** 
 574:../Libraries/STM32F4xx_StdPeriph_Driver/src/stm32f4xx_spi.c **** /**
 575:../Libraries/STM32F4xx_StdPeriph_Driver/src/stm32f4xx_spi.c ****   * @brief  Selects the data transfer direction in bidirectional mode for the specified SPI.
 576:../Libraries/STM32F4xx_StdPeriph_Driver/src/stm32f4xx_spi.c ****   * @param  SPIx: where x can be 1, 2 or 3 to select the SPI peripheral.
 577:../Libraries/STM32F4xx_StdPeriph_Driver/src/stm32f4xx_spi.c ****   * @param  SPI_Direction: specifies the data transfer direction in bidirectional mode. 
 578:../Libraries/STM32F4xx_StdPeriph_Driver/src/stm32f4xx_spi.c ****   *          This parameter can be one of the following values:
 579:../Libraries/STM32F4xx_StdPeriph_Driver/src/stm32f4xx_spi.c ****   *            @arg SPI_Direction_Tx: Selects Tx transmission direction
 580:../Libraries/STM32F4xx_StdPeriph_Driver/src/stm32f4xx_spi.c ****   *            @arg SPI_Direction_Rx: Selects Rx receive direction
 581:../Libraries/STM32F4xx_StdPeriph_Driver/src/stm32f4xx_spi.c ****   * @retval None
 582:../Libraries/STM32F4xx_StdPeriph_Driver/src/stm32f4xx_spi.c ****   */
 583:../Libraries/STM32F4xx_StdPeriph_Driver/src/stm32f4xx_spi.c **** void SPI_BiDirectionalLineConfig(SPI_TypeDef* SPIx, uint16_t SPI_Direction)
 584:../Libraries/STM32F4xx_StdPeriph_Driver/src/stm32f4xx_spi.c **** {
 801              		.loc 1 584 1 is_stmt 1 view -0
 802              		.cfi_startproc
 803              		@ args = 0, pretend = 0, frame = 0
 804              		@ frame_needed = 0, uses_anonymous_args = 0
 805              		@ link register save eliminated.
 585:../Libraries/STM32F4xx_StdPeriph_Driver/src/stm32f4xx_spi.c ****   /* Check the parameters */
 586:../Libraries/STM32F4xx_StdPeriph_Driver/src/stm32f4xx_spi.c ****   assert_param(IS_SPI_ALL_PERIPH(SPIx));
 806              		.loc 1 586 3 view .LVU200
 587:../Libraries/STM32F4xx_StdPeriph_Driver/src/stm32f4xx_spi.c ****   assert_param(IS_SPI_DIRECTION(SPI_Direction));
 807              		.loc 1 587 3 view .LVU201
 588:../Libraries/STM32F4xx_StdPeriph_Driver/src/stm32f4xx_spi.c ****   if (SPI_Direction == SPI_Direction_Tx)
 808              		.loc 1 588 3 view .LVU202
 809              	@ ../Libraries/STM32F4xx_StdPeriph_Driver/src/stm32f4xx_spi.c:588:   if (SPI_Direction == SPI_Direc
 810              		.loc 1 588 6 is_stmt 0 view .LVU203
 811 0000 B1F5804F 		cmp	r1, #16384	@ tmp126,
 812              	@ ../Libraries/STM32F4xx_StdPeriph_Driver/src/stm32f4xx_spi.c:591:     SPIx->CR1 |= SPI_Direction_T
 589:../Libraries/STM32F4xx_StdPeriph_Driver/src/stm32f4xx_spi.c ****   {
 590:../Libraries/STM32F4xx_StdPeriph_Driver/src/stm32f4xx_spi.c ****     /* Set the Tx only mode */
 591:../Libraries/STM32F4xx_StdPeriph_Driver/src/stm32f4xx_spi.c ****     SPIx->CR1 |= SPI_Direction_Tx;
 813              		.loc 1 591 15 view .LVU204
 814 0004 0388     		ldrh	r3, [r0]	@,* SPIx
 815              	@ ../Libraries/STM32F4xx_StdPeriph_Driver/src/stm32f4xx_spi.c:588:   if (SPI_Direction == SPI_Direc
 588:../Libraries/STM32F4xx_StdPeriph_Driver/src/stm32f4xx_spi.c ****   if (SPI_Direction == SPI_Direction_Tx)
 816              		.loc 1 588 6 view .LVU205
 817 0006 05D0     		beq	.L44		@,
 592:../Libraries/STM32F4xx_StdPeriph_Driver/src/stm32f4xx_spi.c ****   }
 593:../Libraries/STM32F4xx_StdPeriph_Driver/src/stm32f4xx_spi.c ****   else
 594:../Libraries/STM32F4xx_StdPeriph_Driver/src/stm32f4xx_spi.c ****   {
 595:../Libraries/STM32F4xx_StdPeriph_Driver/src/stm32f4xx_spi.c ****     /* Set the Rx only mode */
 596:../Libraries/STM32F4xx_StdPeriph_Driver/src/stm32f4xx_spi.c ****     SPIx->CR1 &= SPI_Direction_Rx;
 818              		.loc 1 596 5 is_stmt 1 view .LVU206
 819              	@ ../Libraries/STM32F4xx_StdPeriph_Driver/src/stm32f4xx_spi.c:596:     SPIx->CR1 &= SPI_Direction_R
 820              		.loc 1 596 15 is_stmt 0 view .LVU207
 821 0008 23F48043 		bic	r3, r3, #16384	@ _4, SPIx_8(D)->CR1,
 822 000c 1B04     		lsls	r3, r3, #16	@ _4, _4,
 823 000e 1B0C     		lsrs	r3, r3, #16	@ _4, _4,
 824 0010 0380     		strh	r3, [r0]	@ movhi	@ _4,* SPIx
 825              	@ ../Libraries/STM32F4xx_StdPeriph_Driver/src/stm32f4xx_spi.c:598: }
 597:../Libraries/STM32F4xx_StdPeriph_Driver/src/stm32f4xx_spi.c ****   }
 598:../Libraries/STM32F4xx_StdPeriph_Driver/src/stm32f4xx_spi.c **** }
 826              		.loc 1 598 1 view .LVU208
 827 0012 7047     		bx	lr	@
ARM GAS  C:\Users\admin\AppData\Local\Temp\ccLq5Oux.s 			page 27


 828              	.L44:
 591:../Libraries/STM32F4xx_StdPeriph_Driver/src/stm32f4xx_spi.c ****   }
 829              		.loc 1 591 5 is_stmt 1 view .LVU209
 830              	@ ../Libraries/STM32F4xx_StdPeriph_Driver/src/stm32f4xx_spi.c:591:     SPIx->CR1 |= SPI_Direction_T
 591:../Libraries/STM32F4xx_StdPeriph_Driver/src/stm32f4xx_spi.c ****   }
 831              		.loc 1 591 15 is_stmt 0 view .LVU210
 832 0014 9BB2     		uxth	r3, r3	@ _1, SPIx_8(D)->CR1
 833 0016 43F48043 		orr	r3, r3, #16384	@ _2, _1,
 834 001a 0380     		strh	r3, [r0]	@ movhi	@ _2,* SPIx
 835 001c 7047     		bx	lr	@
 836              		.cfi_endproc
 837              	.LFE118:
 838              		.size	SPI_BiDirectionalLineConfig, .-SPI_BiDirectionalLineConfig
 839 001e 00BF     		.section	.text.SPI_NSSInternalSoftwareConfig,"ax",%progbits
 840              		.align	1
 841              		.p2align 2,,3
 842              		.global	SPI_NSSInternalSoftwareConfig
 843              		.syntax unified
 844              		.thumb
 845              		.thumb_func
 846              		.type	SPI_NSSInternalSoftwareConfig, %function
 847              	SPI_NSSInternalSoftwareConfig:
 848              	.LVL45:
 849              	.LFB119:
 599:../Libraries/STM32F4xx_StdPeriph_Driver/src/stm32f4xx_spi.c **** 
 600:../Libraries/STM32F4xx_StdPeriph_Driver/src/stm32f4xx_spi.c **** /**
 601:../Libraries/STM32F4xx_StdPeriph_Driver/src/stm32f4xx_spi.c ****   * @brief  Configures internally by software the NSS pin for the selected SPI.
 602:../Libraries/STM32F4xx_StdPeriph_Driver/src/stm32f4xx_spi.c ****   * @param  SPIx: where x can be 1, 2 or 3 to select the SPI peripheral.
 603:../Libraries/STM32F4xx_StdPeriph_Driver/src/stm32f4xx_spi.c ****   * @param  SPI_NSSInternalSoft: specifies the SPI NSS internal state.
 604:../Libraries/STM32F4xx_StdPeriph_Driver/src/stm32f4xx_spi.c ****   *          This parameter can be one of the following values:
 605:../Libraries/STM32F4xx_StdPeriph_Driver/src/stm32f4xx_spi.c ****   *            @arg SPI_NSSInternalSoft_Set: Set NSS pin internally
 606:../Libraries/STM32F4xx_StdPeriph_Driver/src/stm32f4xx_spi.c ****   *            @arg SPI_NSSInternalSoft_Reset: Reset NSS pin internally
 607:../Libraries/STM32F4xx_StdPeriph_Driver/src/stm32f4xx_spi.c ****   * @retval None
 608:../Libraries/STM32F4xx_StdPeriph_Driver/src/stm32f4xx_spi.c ****   */
 609:../Libraries/STM32F4xx_StdPeriph_Driver/src/stm32f4xx_spi.c **** void SPI_NSSInternalSoftwareConfig(SPI_TypeDef* SPIx, uint16_t SPI_NSSInternalSoft)
 610:../Libraries/STM32F4xx_StdPeriph_Driver/src/stm32f4xx_spi.c **** {
 850              		.loc 1 610 1 is_stmt 1 view -0
 851              		.cfi_startproc
 852              		@ args = 0, pretend = 0, frame = 0
 853              		@ frame_needed = 0, uses_anonymous_args = 0
 854              		@ link register save eliminated.
 611:../Libraries/STM32F4xx_StdPeriph_Driver/src/stm32f4xx_spi.c ****   /* Check the parameters */
 612:../Libraries/STM32F4xx_StdPeriph_Driver/src/stm32f4xx_spi.c ****   assert_param(IS_SPI_ALL_PERIPH(SPIx));
 855              		.loc 1 612 3 view .LVU212
 613:../Libraries/STM32F4xx_StdPeriph_Driver/src/stm32f4xx_spi.c ****   assert_param(IS_SPI_NSS_INTERNAL(SPI_NSSInternalSoft));
 856              		.loc 1 613 3 view .LVU213
 614:../Libraries/STM32F4xx_StdPeriph_Driver/src/stm32f4xx_spi.c ****   if (SPI_NSSInternalSoft != SPI_NSSInternalSoft_Reset)
 857              		.loc 1 614 3 view .LVU214
 858              	@ ../Libraries/STM32F4xx_StdPeriph_Driver/src/stm32f4xx_spi.c:614:   if (SPI_NSSInternalSoft != SPI
 859              		.loc 1 614 6 is_stmt 0 view .LVU215
 860 0000 4FF6FF63 		movw	r3, #65279	@ tmp119,
 861 0004 9942     		cmp	r1, r3	@ tmp127, tmp119
 862              	@ ../Libraries/STM32F4xx_StdPeriph_Driver/src/stm32f4xx_spi.c:617:     SPIx->CR1 |= SPI_NSSInternal
 615:../Libraries/STM32F4xx_StdPeriph_Driver/src/stm32f4xx_spi.c ****   {
 616:../Libraries/STM32F4xx_StdPeriph_Driver/src/stm32f4xx_spi.c ****     /* Set NSS pin internally by software */
 617:../Libraries/STM32F4xx_StdPeriph_Driver/src/stm32f4xx_spi.c ****     SPIx->CR1 |= SPI_NSSInternalSoft_Set;
 863              		.loc 1 617 15 view .LVU216
ARM GAS  C:\Users\admin\AppData\Local\Temp\ccLq5Oux.s 			page 28


 864 0006 0388     		ldrh	r3, [r0]	@,* SPIx
 865              	@ ../Libraries/STM32F4xx_StdPeriph_Driver/src/stm32f4xx_spi.c:614:   if (SPI_NSSInternalSoft != SPI
 614:../Libraries/STM32F4xx_StdPeriph_Driver/src/stm32f4xx_spi.c ****   if (SPI_NSSInternalSoft != SPI_NSSInternalSoft_Reset)
 866              		.loc 1 614 6 view .LVU217
 867 0008 04D0     		beq	.L46		@,
 868              		.loc 1 617 5 is_stmt 1 view .LVU218
 869              	@ ../Libraries/STM32F4xx_StdPeriph_Driver/src/stm32f4xx_spi.c:617:     SPIx->CR1 |= SPI_NSSInternal
 870              		.loc 1 617 15 is_stmt 0 view .LVU219
 871 000a 9BB2     		uxth	r3, r3	@ _1, SPIx_8(D)->CR1
 872 000c 43F48073 		orr	r3, r3, #256	@ _2, _1,
 873 0010 0380     		strh	r3, [r0]	@ movhi	@ _2,* SPIx
 874 0012 7047     		bx	lr	@
 875              	.L46:
 618:../Libraries/STM32F4xx_StdPeriph_Driver/src/stm32f4xx_spi.c ****   }
 619:../Libraries/STM32F4xx_StdPeriph_Driver/src/stm32f4xx_spi.c ****   else
 620:../Libraries/STM32F4xx_StdPeriph_Driver/src/stm32f4xx_spi.c ****   {
 621:../Libraries/STM32F4xx_StdPeriph_Driver/src/stm32f4xx_spi.c ****     /* Reset NSS pin internally by software */
 622:../Libraries/STM32F4xx_StdPeriph_Driver/src/stm32f4xx_spi.c ****     SPIx->CR1 &= SPI_NSSInternalSoft_Reset;
 876              		.loc 1 622 5 is_stmt 1 view .LVU220
 877              	@ ../Libraries/STM32F4xx_StdPeriph_Driver/src/stm32f4xx_spi.c:622:     SPIx->CR1 &= SPI_NSSInternal
 878              		.loc 1 622 15 is_stmt 0 view .LVU221
 879 0014 23F48073 		bic	r3, r3, #256	@ _4, SPIx_8(D)->CR1,
 880 0018 1B04     		lsls	r3, r3, #16	@ _4, _4,
 881 001a 1B0C     		lsrs	r3, r3, #16	@ _4, _4,
 882 001c 0380     		strh	r3, [r0]	@ movhi	@ _4,* SPIx
 883              	@ ../Libraries/STM32F4xx_StdPeriph_Driver/src/stm32f4xx_spi.c:624: }
 623:../Libraries/STM32F4xx_StdPeriph_Driver/src/stm32f4xx_spi.c ****   }
 624:../Libraries/STM32F4xx_StdPeriph_Driver/src/stm32f4xx_spi.c **** }
 884              		.loc 1 624 1 view .LVU222
 885 001e 7047     		bx	lr	@
 886              		.cfi_endproc
 887              	.LFE119:
 888              		.size	SPI_NSSInternalSoftwareConfig, .-SPI_NSSInternalSoftwareConfig
 889              		.section	.text.SPI_SSOutputCmd,"ax",%progbits
 890              		.align	1
 891              		.p2align 2,,3
 892              		.global	SPI_SSOutputCmd
 893              		.syntax unified
 894              		.thumb
 895              		.thumb_func
 896              		.type	SPI_SSOutputCmd, %function
 897              	SPI_SSOutputCmd:
 898              	.LVL46:
 899              	.LFB120:
 625:../Libraries/STM32F4xx_StdPeriph_Driver/src/stm32f4xx_spi.c **** 
 626:../Libraries/STM32F4xx_StdPeriph_Driver/src/stm32f4xx_spi.c **** /**
 627:../Libraries/STM32F4xx_StdPeriph_Driver/src/stm32f4xx_spi.c ****   * @brief  Enables or disables the SS output for the selected SPI.
 628:../Libraries/STM32F4xx_StdPeriph_Driver/src/stm32f4xx_spi.c ****   * @param  SPIx: where x can be 1, 2 or 3 to select the SPI peripheral.
 629:../Libraries/STM32F4xx_StdPeriph_Driver/src/stm32f4xx_spi.c ****   * @param  NewState: new state of the SPIx SS output. 
 630:../Libraries/STM32F4xx_StdPeriph_Driver/src/stm32f4xx_spi.c ****   *          This parameter can be: ENABLE or DISABLE.
 631:../Libraries/STM32F4xx_StdPeriph_Driver/src/stm32f4xx_spi.c ****   * @retval None
 632:../Libraries/STM32F4xx_StdPeriph_Driver/src/stm32f4xx_spi.c ****   */
 633:../Libraries/STM32F4xx_StdPeriph_Driver/src/stm32f4xx_spi.c **** void SPI_SSOutputCmd(SPI_TypeDef* SPIx, FunctionalState NewState)
 634:../Libraries/STM32F4xx_StdPeriph_Driver/src/stm32f4xx_spi.c **** {
 900              		.loc 1 634 1 is_stmt 1 view -0
 901              		.cfi_startproc
 902              		@ args = 0, pretend = 0, frame = 0
ARM GAS  C:\Users\admin\AppData\Local\Temp\ccLq5Oux.s 			page 29


 903              		@ frame_needed = 0, uses_anonymous_args = 0
 904              		@ link register save eliminated.
 635:../Libraries/STM32F4xx_StdPeriph_Driver/src/stm32f4xx_spi.c ****   /* Check the parameters */
 636:../Libraries/STM32F4xx_StdPeriph_Driver/src/stm32f4xx_spi.c ****   assert_param(IS_SPI_ALL_PERIPH(SPIx));
 905              		.loc 1 636 3 view .LVU224
 637:../Libraries/STM32F4xx_StdPeriph_Driver/src/stm32f4xx_spi.c ****   assert_param(IS_FUNCTIONAL_STATE(NewState));
 906              		.loc 1 637 3 view .LVU225
 638:../Libraries/STM32F4xx_StdPeriph_Driver/src/stm32f4xx_spi.c ****   if (NewState != DISABLE)
 907              		.loc 1 638 3 view .LVU226
 908              	@ ../Libraries/STM32F4xx_StdPeriph_Driver/src/stm32f4xx_spi.c:641:     SPIx->CR2 |= (uint16_t)SPI_C
 639:../Libraries/STM32F4xx_StdPeriph_Driver/src/stm32f4xx_spi.c ****   {
 640:../Libraries/STM32F4xx_StdPeriph_Driver/src/stm32f4xx_spi.c ****     /* Enable the selected SPI SS output */
 641:../Libraries/STM32F4xx_StdPeriph_Driver/src/stm32f4xx_spi.c ****     SPIx->CR2 |= (uint16_t)SPI_CR2_SSOE;
 909              		.loc 1 641 15 is_stmt 0 view .LVU227
 910 0000 8388     		ldrh	r3, [r0, #4]	@,
 911              	@ ../Libraries/STM32F4xx_StdPeriph_Driver/src/stm32f4xx_spi.c:638:   if (NewState != DISABLE)
 638:../Libraries/STM32F4xx_StdPeriph_Driver/src/stm32f4xx_spi.c ****   if (NewState != DISABLE)
 912              		.loc 1 638 6 view .LVU228
 913 0002 21B1     		cbz	r1, .L49	@ tmp128,
 914              		.loc 1 641 5 is_stmt 1 view .LVU229
 915              	@ ../Libraries/STM32F4xx_StdPeriph_Driver/src/stm32f4xx_spi.c:641:     SPIx->CR2 |= (uint16_t)SPI_C
 916              		.loc 1 641 15 is_stmt 0 view .LVU230
 917 0004 9BB2     		uxth	r3, r3	@ _1, SPIx_8(D)->CR2
 918 0006 43F00403 		orr	r3, r3, #4	@ _2, _1,
 919 000a 8380     		strh	r3, [r0, #4]	@ movhi	@ _2,
 920 000c 7047     		bx	lr	@
 921              	.L49:
 642:../Libraries/STM32F4xx_StdPeriph_Driver/src/stm32f4xx_spi.c ****   }
 643:../Libraries/STM32F4xx_StdPeriph_Driver/src/stm32f4xx_spi.c ****   else
 644:../Libraries/STM32F4xx_StdPeriph_Driver/src/stm32f4xx_spi.c ****   {
 645:../Libraries/STM32F4xx_StdPeriph_Driver/src/stm32f4xx_spi.c ****     /* Disable the selected SPI SS output */
 646:../Libraries/STM32F4xx_StdPeriph_Driver/src/stm32f4xx_spi.c ****     SPIx->CR2 &= (uint16_t)~((uint16_t)SPI_CR2_SSOE);
 922              		.loc 1 646 5 is_stmt 1 view .LVU231
 923              	@ ../Libraries/STM32F4xx_StdPeriph_Driver/src/stm32f4xx_spi.c:646:     SPIx->CR2 &= (uint16_t)~((ui
 924              		.loc 1 646 15 is_stmt 0 view .LVU232
 925 000e 23F00403 		bic	r3, r3, #4	@ _4, SPIx_8(D)->CR2,
 926 0012 1B04     		lsls	r3, r3, #16	@ _4, _4,
 927 0014 1B0C     		lsrs	r3, r3, #16	@ _4, _4,
 928 0016 8380     		strh	r3, [r0, #4]	@ movhi	@ _4,
 929              	@ ../Libraries/STM32F4xx_StdPeriph_Driver/src/stm32f4xx_spi.c:648: }
 647:../Libraries/STM32F4xx_StdPeriph_Driver/src/stm32f4xx_spi.c ****   }
 648:../Libraries/STM32F4xx_StdPeriph_Driver/src/stm32f4xx_spi.c **** }
 930              		.loc 1 648 1 view .LVU233
 931 0018 7047     		bx	lr	@
 932              		.cfi_endproc
 933              	.LFE120:
 934              		.size	SPI_SSOutputCmd, .-SPI_SSOutputCmd
 935 001a 00BF     		.section	.text.SPI_TIModeCmd,"ax",%progbits
 936              		.align	1
 937              		.p2align 2,,3
 938              		.global	SPI_TIModeCmd
 939              		.syntax unified
 940              		.thumb
 941              		.thumb_func
 942              		.type	SPI_TIModeCmd, %function
 943              	SPI_TIModeCmd:
 944              	.LVL47:
ARM GAS  C:\Users\admin\AppData\Local\Temp\ccLq5Oux.s 			page 30


 945              	.LFB121:
 649:../Libraries/STM32F4xx_StdPeriph_Driver/src/stm32f4xx_spi.c **** 
 650:../Libraries/STM32F4xx_StdPeriph_Driver/src/stm32f4xx_spi.c **** /**
 651:../Libraries/STM32F4xx_StdPeriph_Driver/src/stm32f4xx_spi.c ****   * @brief  Enables or disables the SPIx/I2Sx DMA interface.
 652:../Libraries/STM32F4xx_StdPeriph_Driver/src/stm32f4xx_spi.c ****   *   
 653:../Libraries/STM32F4xx_StdPeriph_Driver/src/stm32f4xx_spi.c ****   * @note   This function can be called only after the SPI_Init() function has 
 654:../Libraries/STM32F4xx_StdPeriph_Driver/src/stm32f4xx_spi.c ****   *         been called. 
 655:../Libraries/STM32F4xx_StdPeriph_Driver/src/stm32f4xx_spi.c ****   * @note   When TI mode is selected, the control bits SSM, SSI, CPOL and CPHA 
 656:../Libraries/STM32F4xx_StdPeriph_Driver/src/stm32f4xx_spi.c ****   *         are not taken into consideration and are configured by hardware
 657:../Libraries/STM32F4xx_StdPeriph_Driver/src/stm32f4xx_spi.c ****   *         respectively to the TI mode requirements.  
 658:../Libraries/STM32F4xx_StdPeriph_Driver/src/stm32f4xx_spi.c ****   * 
 659:../Libraries/STM32F4xx_StdPeriph_Driver/src/stm32f4xx_spi.c ****   * @param  SPIx: where x can be 1, 2 or 3 
 660:../Libraries/STM32F4xx_StdPeriph_Driver/src/stm32f4xx_spi.c ****   * @param  NewState: new state of the selected SPI TI communication mode.
 661:../Libraries/STM32F4xx_StdPeriph_Driver/src/stm32f4xx_spi.c ****   *          This parameter can be: ENABLE or DISABLE.
 662:../Libraries/STM32F4xx_StdPeriph_Driver/src/stm32f4xx_spi.c ****   * @retval None
 663:../Libraries/STM32F4xx_StdPeriph_Driver/src/stm32f4xx_spi.c ****   */
 664:../Libraries/STM32F4xx_StdPeriph_Driver/src/stm32f4xx_spi.c **** void SPI_TIModeCmd(SPI_TypeDef* SPIx, FunctionalState NewState)
 665:../Libraries/STM32F4xx_StdPeriph_Driver/src/stm32f4xx_spi.c **** {
 946              		.loc 1 665 1 is_stmt 1 view -0
 947              		.cfi_startproc
 948              		@ args = 0, pretend = 0, frame = 0
 949              		@ frame_needed = 0, uses_anonymous_args = 0
 950              		@ link register save eliminated.
 666:../Libraries/STM32F4xx_StdPeriph_Driver/src/stm32f4xx_spi.c ****   /* Check the parameters */
 667:../Libraries/STM32F4xx_StdPeriph_Driver/src/stm32f4xx_spi.c ****   assert_param(IS_SPI_ALL_PERIPH(SPIx));
 951              		.loc 1 667 3 view .LVU235
 668:../Libraries/STM32F4xx_StdPeriph_Driver/src/stm32f4xx_spi.c ****   assert_param(IS_FUNCTIONAL_STATE(NewState));
 952              		.loc 1 668 3 view .LVU236
 669:../Libraries/STM32F4xx_StdPeriph_Driver/src/stm32f4xx_spi.c **** 
 670:../Libraries/STM32F4xx_StdPeriph_Driver/src/stm32f4xx_spi.c ****   if (NewState != DISABLE)
 953              		.loc 1 670 3 view .LVU237
 954              	@ ../Libraries/STM32F4xx_StdPeriph_Driver/src/stm32f4xx_spi.c:673:     SPIx->CR2 |= SPI_CR2_FRF;
 671:../Libraries/STM32F4xx_StdPeriph_Driver/src/stm32f4xx_spi.c ****   {
 672:../Libraries/STM32F4xx_StdPeriph_Driver/src/stm32f4xx_spi.c ****     /* Enable the TI mode for the selected SPI peripheral */
 673:../Libraries/STM32F4xx_StdPeriph_Driver/src/stm32f4xx_spi.c ****     SPIx->CR2 |= SPI_CR2_FRF;
 955              		.loc 1 673 15 is_stmt 0 view .LVU238
 956 0000 8388     		ldrh	r3, [r0, #4]	@,
 957              	@ ../Libraries/STM32F4xx_StdPeriph_Driver/src/stm32f4xx_spi.c:670:   if (NewState != DISABLE)
 670:../Libraries/STM32F4xx_StdPeriph_Driver/src/stm32f4xx_spi.c ****   {
 958              		.loc 1 670 6 view .LVU239
 959 0002 21B1     		cbz	r1, .L52	@ tmp128,
 960              		.loc 1 673 5 is_stmt 1 view .LVU240
 961              	@ ../Libraries/STM32F4xx_StdPeriph_Driver/src/stm32f4xx_spi.c:673:     SPIx->CR2 |= SPI_CR2_FRF;
 962              		.loc 1 673 15 is_stmt 0 view .LVU241
 963 0004 9BB2     		uxth	r3, r3	@ _1, SPIx_8(D)->CR2
 964 0006 43F01003 		orr	r3, r3, #16	@ _2, _1,
 965 000a 8380     		strh	r3, [r0, #4]	@ movhi	@ _2,
 966 000c 7047     		bx	lr	@
 967              	.L52:
 674:../Libraries/STM32F4xx_StdPeriph_Driver/src/stm32f4xx_spi.c ****   }
 675:../Libraries/STM32F4xx_StdPeriph_Driver/src/stm32f4xx_spi.c ****   else
 676:../Libraries/STM32F4xx_StdPeriph_Driver/src/stm32f4xx_spi.c ****   {
 677:../Libraries/STM32F4xx_StdPeriph_Driver/src/stm32f4xx_spi.c ****     /* Disable the TI mode for the selected SPI peripheral */
 678:../Libraries/STM32F4xx_StdPeriph_Driver/src/stm32f4xx_spi.c ****     SPIx->CR2 &= (uint16_t)~SPI_CR2_FRF;
 968              		.loc 1 678 5 is_stmt 1 view .LVU242
 969              	@ ../Libraries/STM32F4xx_StdPeriph_Driver/src/stm32f4xx_spi.c:678:     SPIx->CR2 &= (uint16_t)~SPI_
 970              		.loc 1 678 15 is_stmt 0 view .LVU243
ARM GAS  C:\Users\admin\AppData\Local\Temp\ccLq5Oux.s 			page 31


 971 000e 23F01003 		bic	r3, r3, #16	@ _4, SPIx_8(D)->CR2,
 972 0012 1B04     		lsls	r3, r3, #16	@ _4, _4,
 973 0014 1B0C     		lsrs	r3, r3, #16	@ _4, _4,
 974 0016 8380     		strh	r3, [r0, #4]	@ movhi	@ _4,
 975              	@ ../Libraries/STM32F4xx_StdPeriph_Driver/src/stm32f4xx_spi.c:680: }
 679:../Libraries/STM32F4xx_StdPeriph_Driver/src/stm32f4xx_spi.c ****   }
 680:../Libraries/STM32F4xx_StdPeriph_Driver/src/stm32f4xx_spi.c **** }
 976              		.loc 1 680 1 view .LVU244
 977 0018 7047     		bx	lr	@
 978              		.cfi_endproc
 979              	.LFE121:
 980              		.size	SPI_TIModeCmd, .-SPI_TIModeCmd
 981 001a 00BF     		.section	.text.I2S_FullDuplexConfig,"ax",%progbits
 982              		.align	1
 983              		.p2align 2,,3
 984              		.global	I2S_FullDuplexConfig
 985              		.syntax unified
 986              		.thumb
 987              		.thumb_func
 988              		.type	I2S_FullDuplexConfig, %function
 989              	I2S_FullDuplexConfig:
 990              	.LVL48:
 991              	.LFB122:
 681:../Libraries/STM32F4xx_StdPeriph_Driver/src/stm32f4xx_spi.c **** 
 682:../Libraries/STM32F4xx_StdPeriph_Driver/src/stm32f4xx_spi.c **** /**
 683:../Libraries/STM32F4xx_StdPeriph_Driver/src/stm32f4xx_spi.c ****   * @brief  Configures the full duplex mode for the I2Sx peripheral using its
 684:../Libraries/STM32F4xx_StdPeriph_Driver/src/stm32f4xx_spi.c ****   *         extension I2Sxext according to the specified parameters in the 
 685:../Libraries/STM32F4xx_StdPeriph_Driver/src/stm32f4xx_spi.c ****   *         I2S_InitStruct.
 686:../Libraries/STM32F4xx_StdPeriph_Driver/src/stm32f4xx_spi.c ****   * @param  I2Sxext: where x can be  2 or 3 to select the I2S peripheral extension block.
 687:../Libraries/STM32F4xx_StdPeriph_Driver/src/stm32f4xx_spi.c ****   * @param  I2S_InitStruct: pointer to an I2S_InitTypeDef structure that
 688:../Libraries/STM32F4xx_StdPeriph_Driver/src/stm32f4xx_spi.c ****   *         contains the configuration information for the specified I2S peripheral
 689:../Libraries/STM32F4xx_StdPeriph_Driver/src/stm32f4xx_spi.c ****   *         extension.
 690:../Libraries/STM32F4xx_StdPeriph_Driver/src/stm32f4xx_spi.c ****   * 
 691:../Libraries/STM32F4xx_StdPeriph_Driver/src/stm32f4xx_spi.c ****   * @note   The structure pointed by I2S_InitStruct parameter should be the same
 692:../Libraries/STM32F4xx_StdPeriph_Driver/src/stm32f4xx_spi.c ****   *         used for the master I2S peripheral. In this case, if the master is 
 693:../Libraries/STM32F4xx_StdPeriph_Driver/src/stm32f4xx_spi.c ****   *         configured as transmitter, the slave will be receiver and vice versa.
 694:../Libraries/STM32F4xx_StdPeriph_Driver/src/stm32f4xx_spi.c ****   *         Or you can force a different mode by modifying the field I2S_Mode to the
 695:../Libraries/STM32F4xx_StdPeriph_Driver/src/stm32f4xx_spi.c ****   *         value I2S_SlaveRx or I2S_SlaveTx indepedently of the master configuration.    
 696:../Libraries/STM32F4xx_StdPeriph_Driver/src/stm32f4xx_spi.c ****   *         
 697:../Libraries/STM32F4xx_StdPeriph_Driver/src/stm32f4xx_spi.c ****   * @note   The I2S full duplex extension can be configured in slave mode only.    
 698:../Libraries/STM32F4xx_StdPeriph_Driver/src/stm32f4xx_spi.c ****   *  
 699:../Libraries/STM32F4xx_StdPeriph_Driver/src/stm32f4xx_spi.c ****   * @retval None
 700:../Libraries/STM32F4xx_StdPeriph_Driver/src/stm32f4xx_spi.c ****   */
 701:../Libraries/STM32F4xx_StdPeriph_Driver/src/stm32f4xx_spi.c **** void I2S_FullDuplexConfig(SPI_TypeDef* I2Sxext, I2S_InitTypeDef* I2S_InitStruct)
 702:../Libraries/STM32F4xx_StdPeriph_Driver/src/stm32f4xx_spi.c **** {
 992              		.loc 1 702 1 is_stmt 1 view -0
 993              		.cfi_startproc
 994              		@ args = 0, pretend = 0, frame = 0
 995              		@ frame_needed = 0, uses_anonymous_args = 0
 703:../Libraries/STM32F4xx_StdPeriph_Driver/src/stm32f4xx_spi.c ****   uint16_t tmpreg = 0, tmp = 0;
 996              		.loc 1 703 3 view .LVU246
 704:../Libraries/STM32F4xx_StdPeriph_Driver/src/stm32f4xx_spi.c ****   
 705:../Libraries/STM32F4xx_StdPeriph_Driver/src/stm32f4xx_spi.c ****   /* Check the I2S parameters */
 706:../Libraries/STM32F4xx_StdPeriph_Driver/src/stm32f4xx_spi.c ****   assert_param(IS_I2S_EXT_PERIPH(I2Sxext));
 997              		.loc 1 706 3 view .LVU247
 707:../Libraries/STM32F4xx_StdPeriph_Driver/src/stm32f4xx_spi.c ****   assert_param(IS_I2S_MODE(I2S_InitStruct->I2S_Mode));
 998              		.loc 1 707 3 view .LVU248
ARM GAS  C:\Users\admin\AppData\Local\Temp\ccLq5Oux.s 			page 32


 708:../Libraries/STM32F4xx_StdPeriph_Driver/src/stm32f4xx_spi.c ****   assert_param(IS_I2S_STANDARD(I2S_InitStruct->I2S_Standard));
 999              		.loc 1 708 3 view .LVU249
 709:../Libraries/STM32F4xx_StdPeriph_Driver/src/stm32f4xx_spi.c ****   assert_param(IS_I2S_DATA_FORMAT(I2S_InitStruct->I2S_DataFormat));
 1000              		.loc 1 709 3 view .LVU250
 710:../Libraries/STM32F4xx_StdPeriph_Driver/src/stm32f4xx_spi.c ****   assert_param(IS_I2S_CPOL(I2S_InitStruct->I2S_CPOL));  
 1001              		.loc 1 710 3 view .LVU251
 711:../Libraries/STM32F4xx_StdPeriph_Driver/src/stm32f4xx_spi.c **** 
 712:../Libraries/STM32F4xx_StdPeriph_Driver/src/stm32f4xx_spi.c **** /*----------------------- SPIx I2SCFGR & I2SPR Configuration -----------------*/
 713:../Libraries/STM32F4xx_StdPeriph_Driver/src/stm32f4xx_spi.c ****   /* Clear I2SMOD, I2SE, I2SCFG, PCMSYNC, I2SSTD, CKPOL, DATLEN and CHLEN bits */
 714:../Libraries/STM32F4xx_StdPeriph_Driver/src/stm32f4xx_spi.c ****   I2Sxext->I2SCFGR &= I2SCFGR_CLEAR_MASK; 
 1002              		.loc 1 714 3 view .LVU252
 1003              	@ ../Libraries/STM32F4xx_StdPeriph_Driver/src/stm32f4xx_spi.c:714:   I2Sxext->I2SCFGR &= I2SCFGR_CL
 1004              		.loc 1 714 20 is_stmt 0 view .LVU253
 1005 0000 828B     		ldrh	r2, [r0, #28]	@, I2Sxext_13(D)->I2SCFGR
 1006              	@ ../Libraries/STM32F4xx_StdPeriph_Driver/src/stm32f4xx_spi.c:721:   if ((I2S_InitStruct->I2S_Mode 
 715:../Libraries/STM32F4xx_StdPeriph_Driver/src/stm32f4xx_spi.c ****   I2Sxext->I2SPR = 0x0002;
 716:../Libraries/STM32F4xx_StdPeriph_Driver/src/stm32f4xx_spi.c ****   
 717:../Libraries/STM32F4xx_StdPeriph_Driver/src/stm32f4xx_spi.c ****   /* Get the I2SCFGR register value */
 718:../Libraries/STM32F4xx_StdPeriph_Driver/src/stm32f4xx_spi.c ****   tmpreg = I2Sxext->I2SCFGR;
 719:../Libraries/STM32F4xx_StdPeriph_Driver/src/stm32f4xx_spi.c ****   
 720:../Libraries/STM32F4xx_StdPeriph_Driver/src/stm32f4xx_spi.c ****   /* Get the mode to be configured for the extended I2S */
 721:../Libraries/STM32F4xx_StdPeriph_Driver/src/stm32f4xx_spi.c ****   if ((I2S_InitStruct->I2S_Mode == I2S_Mode_MasterTx) || (I2S_InitStruct->I2S_Mode == I2S_Mode_Slav
 1007              		.loc 1 721 55 view .LVU254
 1008 0002 B1F800C0 		ldrh	ip, [r1]	@, I2S_InitStruct_17(D)->I2S_Mode
 1009              	@ ../Libraries/STM32F4xx_StdPeriph_Driver/src/stm32f4xx_spi.c:735:   tmpreg |= (uint16_t)((uint16_t
 722:../Libraries/STM32F4xx_StdPeriph_Driver/src/stm32f4xx_spi.c ****   {
 723:../Libraries/STM32F4xx_StdPeriph_Driver/src/stm32f4xx_spi.c ****     tmp = I2S_Mode_SlaveRx;
 724:../Libraries/STM32F4xx_StdPeriph_Driver/src/stm32f4xx_spi.c ****   }
 725:../Libraries/STM32F4xx_StdPeriph_Driver/src/stm32f4xx_spi.c ****   else
 726:../Libraries/STM32F4xx_StdPeriph_Driver/src/stm32f4xx_spi.c ****   {
 727:../Libraries/STM32F4xx_StdPeriph_Driver/src/stm32f4xx_spi.c ****     if ((I2S_InitStruct->I2S_Mode == I2S_Mode_MasterRx) || (I2S_InitStruct->I2S_Mode == I2S_Mode_Sl
 728:../Libraries/STM32F4xx_StdPeriph_Driver/src/stm32f4xx_spi.c ****     {
 729:../Libraries/STM32F4xx_StdPeriph_Driver/src/stm32f4xx_spi.c ****       tmp = I2S_Mode_SlaveTx;
 730:../Libraries/STM32F4xx_StdPeriph_Driver/src/stm32f4xx_spi.c ****     }
 731:../Libraries/STM32F4xx_StdPeriph_Driver/src/stm32f4xx_spi.c ****   }
 732:../Libraries/STM32F4xx_StdPeriph_Driver/src/stm32f4xx_spi.c **** 
 733:../Libraries/STM32F4xx_StdPeriph_Driver/src/stm32f4xx_spi.c ****  
 734:../Libraries/STM32F4xx_StdPeriph_Driver/src/stm32f4xx_spi.c ****   /* Configure the I2S with the SPI_InitStruct values */
 735:../Libraries/STM32F4xx_StdPeriph_Driver/src/stm32f4xx_spi.c ****   tmpreg |= (uint16_t)((uint16_t)SPI_I2SCFGR_I2SMOD | (uint16_t)(tmp | \
 1010              		.loc 1 735 55 view .LVU255
 1011 0006 4B88     		ldrh	r3, [r1, #2]	@, I2S_InitStruct_17(D)->I2S_Standard
 1012              	@ ../Libraries/STM32F4xx_StdPeriph_Driver/src/stm32f4xx_spi.c:714:   I2Sxext->I2SCFGR &= I2SCFGR_CL
 714:../Libraries/STM32F4xx_StdPeriph_Driver/src/stm32f4xx_spi.c ****   I2Sxext->I2SPR = 0x0002;
 1013              		.loc 1 714 20 view .LVU256
 1014 0008 22F47B62 		bic	r2, r2, #4016	@ _2, I2Sxext_13(D)->I2SCFGR,
 1015 000c 22F00F02 		bic	r2, r2, #15	@ _2, _2,
 1016 0010 1204     		lsls	r2, r2, #16	@ _2, _2,
 1017 0012 120C     		lsrs	r2, r2, #16	@ _2, _2,
 1018              	@ ../Libraries/STM32F4xx_StdPeriph_Driver/src/stm32f4xx_spi.c:721:   if ((I2S_InitStruct->I2S_Mode 
 721:../Libraries/STM32F4xx_StdPeriph_Driver/src/stm32f4xx_spi.c ****   {
 1019              		.loc 1 721 55 view .LVU257
 1020 0014 2CF4007C 		bic	ip, ip, #512	@ tmp139, I2S_InitStruct_17(D)->I2S_Mode,
 1021              	@ ../Libraries/STM32F4xx_StdPeriph_Driver/src/stm32f4xx_spi.c:714:   I2Sxext->I2SCFGR &= I2SCFGR_CL
 714:../Libraries/STM32F4xx_StdPeriph_Driver/src/stm32f4xx_spi.c ****   I2Sxext->I2SPR = 0x0002;
 1022              		.loc 1 714 20 view .LVU258
 1023 0018 8283     		strh	r2, [r0, #28]	@ movhi	@ _2, I2Sxext_13(D)->I2SCFGR
 715:../Libraries/STM32F4xx_StdPeriph_Driver/src/stm32f4xx_spi.c ****   
ARM GAS  C:\Users\admin\AppData\Local\Temp\ccLq5Oux.s 			page 33


 1024              		.loc 1 715 3 is_stmt 1 view .LVU259
 1025              	@ ../Libraries/STM32F4xx_StdPeriph_Driver/src/stm32f4xx_spi.c:721:   if ((I2S_InitStruct->I2S_Mode 
 721:../Libraries/STM32F4xx_StdPeriph_Driver/src/stm32f4xx_spi.c ****   {
 1026              		.loc 1 721 55 is_stmt 0 view .LVU260
 1027 001a 1FFA8CFC 		uxth	ip, ip	@ tmp141, tmp139
 1028              	@ ../Libraries/STM32F4xx_StdPeriph_Driver/src/stm32f4xx_spi.c:735:   tmpreg |= (uint16_t)((uint16_t
 1029              		.loc 1 735 55 view .LVU261
 1030 001e 8A88     		ldrh	r2, [r1, #4]	@, I2S_InitStruct_17(D)->I2S_DataFormat
 1031 0020 8989     		ldrh	r1, [r1, #12]	@, I2S_InitStruct_17(D)->I2S_CPOL
 1032              	.LVL49:
 1033              	@ ../Libraries/STM32F4xx_StdPeriph_Driver/src/stm32f4xx_spi.c:729:       tmp = I2S_Mode_SlaveTx;
 729:../Libraries/STM32F4xx_StdPeriph_Driver/src/stm32f4xx_spi.c ****     }
 1034              		.loc 1 729 11 view .LVU262
 1035 0022 BCF1000F 		cmp	ip, #0	@ tmp141,
 1036              	@ ../Libraries/STM32F4xx_StdPeriph_Driver/src/stm32f4xx_spi.c:702: {
 702:../Libraries/STM32F4xx_StdPeriph_Driver/src/stm32f4xx_spi.c ****   uint16_t tmpreg = 0, tmp = 0;
 1037              		.loc 1 702 1 view .LVU263
 1038 0026 00B5     		push	{lr}	@
 1039              		.cfi_def_cfa_offset 4
 1040              		.cfi_offset 14, -4
 1041              	@ ../Libraries/STM32F4xx_StdPeriph_Driver/src/stm32f4xx_spi.c:715:   I2Sxext->I2SPR = 0x0002;
 715:../Libraries/STM32F4xx_StdPeriph_Driver/src/stm32f4xx_spi.c ****   
 1042              		.loc 1 715 18 view .LVU264
 1043 0028 4FF0020E 		mov	lr, #2	@ tmp135,
 1044              	@ ../Libraries/STM32F4xx_StdPeriph_Driver/src/stm32f4xx_spi.c:735:   tmpreg |= (uint16_t)((uint16_t
 1045              		.loc 1 735 55 view .LVU265
 1046 002c 42EA0302 		orr	r2, r2, r3	@ tmp144, I2S_InitStruct_17(D)->I2S_DataFormat, I2S_InitStruct_17(D)->I2S_Standard
 1047              	@ ../Libraries/STM32F4xx_StdPeriph_Driver/src/stm32f4xx_spi.c:715:   I2Sxext->I2SPR = 0x0002;
 715:../Libraries/STM32F4xx_StdPeriph_Driver/src/stm32f4xx_spi.c ****   
 1048              		.loc 1 715 18 view .LVU266
 1049 0030 A0F820E0 		strh	lr, [r0, #32]	@ movhi	@ tmp135, I2Sxext_13(D)->I2SPR
 718:../Libraries/STM32F4xx_StdPeriph_Driver/src/stm32f4xx_spi.c ****   
 1050              		.loc 1 718 3 is_stmt 1 view .LVU267
 1051              	@ ../Libraries/STM32F4xx_StdPeriph_Driver/src/stm32f4xx_spi.c:729:       tmp = I2S_Mode_SlaveTx;
 729:../Libraries/STM32F4xx_StdPeriph_Driver/src/stm32f4xx_spi.c ****     }
 1052              		.loc 1 729 11 is_stmt 0 view .LVU268
 1053 0034 0CBF     		ite	eq
 1054 0036 4FF48073 		moveq	r3, #256	@ tmp,
 1055 003a 0023     		movne	r3, #0	@ tmp,
 1056              	@ ../Libraries/STM32F4xx_StdPeriph_Driver/src/stm32f4xx_spi.c:718:   tmpreg = I2Sxext->I2SCFGR;
 718:../Libraries/STM32F4xx_StdPeriph_Driver/src/stm32f4xx_spi.c ****   
 1057              		.loc 1 718 10 view .LVU269
 1058 003c B0F81CC0 		ldrh	ip, [r0, #28]	@, I2Sxext_13(D)->I2SCFGR
 1059              	.LVL50:
 721:../Libraries/STM32F4xx_StdPeriph_Driver/src/stm32f4xx_spi.c ****   {
 1060              		.loc 1 721 3 is_stmt 1 view .LVU270
 1061              		.loc 1 735 3 view .LVU271
 1062              	@ ../Libraries/STM32F4xx_StdPeriph_Driver/src/stm32f4xx_spi.c:735:   tmpreg |= (uint16_t)((uint16_t
 1063              		.loc 1 735 55 is_stmt 0 view .LVU272
 1064 0040 1343     		orrs	r3, r3, r2	@, tmp146, tmp, tmp144
 1065              	.LVL51:
 1066              		.loc 1 735 55 view .LVU273
 1067 0042 0B43     		orrs	r3, r3, r1	@, tmp149, tmp146, I2S_InitStruct_17(D)->I2S_CPOL
 1068              	@ ../Libraries/STM32F4xx_StdPeriph_Driver/src/stm32f4xx_spi.c:735:   tmpreg |= (uint16_t)((uint16_t
 1069              		.loc 1 735 10 view .LVU274
 1070 0044 43EA0C03 		orr	r3, r3, ip	@ tmp151, tmp149, I2Sxext_13(D)->I2SCFGR
 1071 0048 9BB2     		uxth	r3, r3	@ _10, tmp151
ARM GAS  C:\Users\admin\AppData\Local\Temp\ccLq5Oux.s 			page 34


 1072 004a 43F40063 		orr	r3, r3, #2048	@ tmpreg, _10,
 1073              	.LVL52:
 736:../Libraries/STM32F4xx_StdPeriph_Driver/src/stm32f4xx_spi.c ****                   (uint16_t)(I2S_InitStruct->I2S_Standard | (uint16_t)(I2S_InitStruct->I2S_DataForm
 737:../Libraries/STM32F4xx_StdPeriph_Driver/src/stm32f4xx_spi.c ****                   (uint16_t)I2S_InitStruct->I2S_CPOL))));
 738:../Libraries/STM32F4xx_StdPeriph_Driver/src/stm32f4xx_spi.c ****  
 739:../Libraries/STM32F4xx_StdPeriph_Driver/src/stm32f4xx_spi.c ****   /* Write to SPIx I2SCFGR */  
 740:../Libraries/STM32F4xx_StdPeriph_Driver/src/stm32f4xx_spi.c ****   I2Sxext->I2SCFGR = tmpreg;
 1074              		.loc 1 740 3 is_stmt 1 view .LVU275
 1075              	@ ../Libraries/STM32F4xx_StdPeriph_Driver/src/stm32f4xx_spi.c:740:   I2Sxext->I2SCFGR = tmpreg;
 1076              		.loc 1 740 20 is_stmt 0 view .LVU276
 1077 004e 8383     		strh	r3, [r0, #28]	@ movhi	@ tmpreg, I2Sxext_13(D)->I2SCFGR
 1078              	@ ../Libraries/STM32F4xx_StdPeriph_Driver/src/stm32f4xx_spi.c:741: }
 741:../Libraries/STM32F4xx_StdPeriph_Driver/src/stm32f4xx_spi.c **** }
 1079              		.loc 1 741 1 view .LVU277
 1080 0050 5DF804FB 		ldr	pc, [sp], #4	@
 1081              		.cfi_endproc
 1082              	.LFE122:
 1083              		.size	I2S_FullDuplexConfig, .-I2S_FullDuplexConfig
 1084              		.section	.text.SPI_I2S_ReceiveData,"ax",%progbits
 1085              		.align	1
 1086              		.p2align 2,,3
 1087              		.global	SPI_I2S_ReceiveData
 1088              		.syntax unified
 1089              		.thumb
 1090              		.thumb_func
 1091              		.type	SPI_I2S_ReceiveData, %function
 1092              	SPI_I2S_ReceiveData:
 1093              	.LVL53:
 1094              	.LFB123:
 742:../Libraries/STM32F4xx_StdPeriph_Driver/src/stm32f4xx_spi.c **** 
 743:../Libraries/STM32F4xx_StdPeriph_Driver/src/stm32f4xx_spi.c **** /**
 744:../Libraries/STM32F4xx_StdPeriph_Driver/src/stm32f4xx_spi.c ****   * @}
 745:../Libraries/STM32F4xx_StdPeriph_Driver/src/stm32f4xx_spi.c ****   */
 746:../Libraries/STM32F4xx_StdPeriph_Driver/src/stm32f4xx_spi.c **** 
 747:../Libraries/STM32F4xx_StdPeriph_Driver/src/stm32f4xx_spi.c **** /** @defgroup SPI_Group2 Data transfers functions
 748:../Libraries/STM32F4xx_StdPeriph_Driver/src/stm32f4xx_spi.c ****  *  @brief   Data transfers functions
 749:../Libraries/STM32F4xx_StdPeriph_Driver/src/stm32f4xx_spi.c ****  *
 750:../Libraries/STM32F4xx_StdPeriph_Driver/src/stm32f4xx_spi.c **** @verbatim   
 751:../Libraries/STM32F4xx_StdPeriph_Driver/src/stm32f4xx_spi.c ****  ===============================================================================
 752:../Libraries/STM32F4xx_StdPeriph_Driver/src/stm32f4xx_spi.c ****                          Data transfers functions
 753:../Libraries/STM32F4xx_StdPeriph_Driver/src/stm32f4xx_spi.c ****  ===============================================================================  
 754:../Libraries/STM32F4xx_StdPeriph_Driver/src/stm32f4xx_spi.c **** 
 755:../Libraries/STM32F4xx_StdPeriph_Driver/src/stm32f4xx_spi.c ****   This section provides a set of functions allowing to manage the SPI data transfers
 756:../Libraries/STM32F4xx_StdPeriph_Driver/src/stm32f4xx_spi.c ****   
 757:../Libraries/STM32F4xx_StdPeriph_Driver/src/stm32f4xx_spi.c ****   In reception, data are received and then stored into an internal Rx buffer while 
 758:../Libraries/STM32F4xx_StdPeriph_Driver/src/stm32f4xx_spi.c ****   In transmission, data are first stored into an internal Tx buffer before being 
 759:../Libraries/STM32F4xx_StdPeriph_Driver/src/stm32f4xx_spi.c ****   transmitted.
 760:../Libraries/STM32F4xx_StdPeriph_Driver/src/stm32f4xx_spi.c **** 
 761:../Libraries/STM32F4xx_StdPeriph_Driver/src/stm32f4xx_spi.c ****   The read access of the SPI_DR register can be done using the SPI_I2S_ReceiveData()
 762:../Libraries/STM32F4xx_StdPeriph_Driver/src/stm32f4xx_spi.c ****   function and returns the Rx buffered value. Whereas a write access to the SPI_DR 
 763:../Libraries/STM32F4xx_StdPeriph_Driver/src/stm32f4xx_spi.c ****   can be done using SPI_I2S_SendData() function and stores the written data into 
 764:../Libraries/STM32F4xx_StdPeriph_Driver/src/stm32f4xx_spi.c ****   Tx buffer.
 765:../Libraries/STM32F4xx_StdPeriph_Driver/src/stm32f4xx_spi.c **** 
 766:../Libraries/STM32F4xx_StdPeriph_Driver/src/stm32f4xx_spi.c **** @endverbatim
 767:../Libraries/STM32F4xx_StdPeriph_Driver/src/stm32f4xx_spi.c ****   * @{
 768:../Libraries/STM32F4xx_StdPeriph_Driver/src/stm32f4xx_spi.c ****   */
 769:../Libraries/STM32F4xx_StdPeriph_Driver/src/stm32f4xx_spi.c **** 
ARM GAS  C:\Users\admin\AppData\Local\Temp\ccLq5Oux.s 			page 35


 770:../Libraries/STM32F4xx_StdPeriph_Driver/src/stm32f4xx_spi.c **** /**
 771:../Libraries/STM32F4xx_StdPeriph_Driver/src/stm32f4xx_spi.c ****   * @brief  Returns the most recent received data by the SPIx/I2Sx peripheral. 
 772:../Libraries/STM32F4xx_StdPeriph_Driver/src/stm32f4xx_spi.c ****   * @param  SPIx: To select the SPIx/I2Sx peripheral, where x can be: 1, 2 or 3 
 773:../Libraries/STM32F4xx_StdPeriph_Driver/src/stm32f4xx_spi.c ****   *         in SPI mode or 2 or 3 in I2S mode or I2Sxext for I2S full duplex mode. 
 774:../Libraries/STM32F4xx_StdPeriph_Driver/src/stm32f4xx_spi.c ****   * @retval The value of the received data.
 775:../Libraries/STM32F4xx_StdPeriph_Driver/src/stm32f4xx_spi.c ****   */
 776:../Libraries/STM32F4xx_StdPeriph_Driver/src/stm32f4xx_spi.c **** uint16_t SPI_I2S_ReceiveData(SPI_TypeDef* SPIx)
 777:../Libraries/STM32F4xx_StdPeriph_Driver/src/stm32f4xx_spi.c **** {
 1095              		.loc 1 777 1 is_stmt 1 view -0
 1096              		.cfi_startproc
 1097              		@ args = 0, pretend = 0, frame = 0
 1098              		@ frame_needed = 0, uses_anonymous_args = 0
 1099              		@ link register save eliminated.
 778:../Libraries/STM32F4xx_StdPeriph_Driver/src/stm32f4xx_spi.c ****   /* Check the parameters */
 779:../Libraries/STM32F4xx_StdPeriph_Driver/src/stm32f4xx_spi.c ****   assert_param(IS_SPI_ALL_PERIPH_EXT(SPIx));
 1100              		.loc 1 779 3 view .LVU279
 780:../Libraries/STM32F4xx_StdPeriph_Driver/src/stm32f4xx_spi.c ****   
 781:../Libraries/STM32F4xx_StdPeriph_Driver/src/stm32f4xx_spi.c ****   /* Return the data in the DR register */
 782:../Libraries/STM32F4xx_StdPeriph_Driver/src/stm32f4xx_spi.c ****   return SPIx->DR;
 1101              		.loc 1 782 3 view .LVU280
 1102              	@ ../Libraries/STM32F4xx_StdPeriph_Driver/src/stm32f4xx_spi.c:782:   return SPIx->DR;
 1103              		.loc 1 782 14 is_stmt 0 view .LVU281
 1104 0000 8089     		ldrh	r0, [r0, #12]	@, SPIx_2(D)->DR
 1105              	.LVL54:
 1106              	@ ../Libraries/STM32F4xx_StdPeriph_Driver/src/stm32f4xx_spi.c:783: }
 783:../Libraries/STM32F4xx_StdPeriph_Driver/src/stm32f4xx_spi.c **** }
 1107              		.loc 1 783 1 view .LVU282
 1108 0002 80B2     		uxth	r0, r0	@, SPIx_2(D)->DR
 1109 0004 7047     		bx	lr	@
 1110              		.cfi_endproc
 1111              	.LFE123:
 1112              		.size	SPI_I2S_ReceiveData, .-SPI_I2S_ReceiveData
 1113 0006 00BF     		.section	.text.SPI_I2S_SendData,"ax",%progbits
 1114              		.align	1
 1115              		.p2align 2,,3
 1116              		.global	SPI_I2S_SendData
 1117              		.syntax unified
 1118              		.thumb
 1119              		.thumb_func
 1120              		.type	SPI_I2S_SendData, %function
 1121              	SPI_I2S_SendData:
 1122              	.LVL55:
 1123              	.LFB124:
 784:../Libraries/STM32F4xx_StdPeriph_Driver/src/stm32f4xx_spi.c **** 
 785:../Libraries/STM32F4xx_StdPeriph_Driver/src/stm32f4xx_spi.c **** /**
 786:../Libraries/STM32F4xx_StdPeriph_Driver/src/stm32f4xx_spi.c ****   * @brief  Transmits a Data through the SPIx/I2Sx peripheral.
 787:../Libraries/STM32F4xx_StdPeriph_Driver/src/stm32f4xx_spi.c ****   * @param  SPIx: To select the SPIx/I2Sx peripheral, where x can be: 1, 2 or 3 
 788:../Libraries/STM32F4xx_StdPeriph_Driver/src/stm32f4xx_spi.c ****   *         in SPI mode or 2 or 3 in I2S mode or I2Sxext for I2S full duplex mode.     
 789:../Libraries/STM32F4xx_StdPeriph_Driver/src/stm32f4xx_spi.c ****   * @param  Data: Data to be transmitted.
 790:../Libraries/STM32F4xx_StdPeriph_Driver/src/stm32f4xx_spi.c ****   * @retval None
 791:../Libraries/STM32F4xx_StdPeriph_Driver/src/stm32f4xx_spi.c ****   */
 792:../Libraries/STM32F4xx_StdPeriph_Driver/src/stm32f4xx_spi.c **** void SPI_I2S_SendData(SPI_TypeDef* SPIx, uint16_t Data)
 793:../Libraries/STM32F4xx_StdPeriph_Driver/src/stm32f4xx_spi.c **** {
 1124              		.loc 1 793 1 is_stmt 1 view -0
 1125              		.cfi_startproc
 1126              		@ args = 0, pretend = 0, frame = 0
 1127              		@ frame_needed = 0, uses_anonymous_args = 0
ARM GAS  C:\Users\admin\AppData\Local\Temp\ccLq5Oux.s 			page 36


 1128              		@ link register save eliminated.
 794:../Libraries/STM32F4xx_StdPeriph_Driver/src/stm32f4xx_spi.c ****   /* Check the parameters */
 795:../Libraries/STM32F4xx_StdPeriph_Driver/src/stm32f4xx_spi.c ****   assert_param(IS_SPI_ALL_PERIPH_EXT(SPIx));
 1129              		.loc 1 795 3 view .LVU284
 796:../Libraries/STM32F4xx_StdPeriph_Driver/src/stm32f4xx_spi.c ****   
 797:../Libraries/STM32F4xx_StdPeriph_Driver/src/stm32f4xx_spi.c ****   /* Write in the DR register the data to be sent */
 798:../Libraries/STM32F4xx_StdPeriph_Driver/src/stm32f4xx_spi.c ****   SPIx->DR = Data;
 1130              		.loc 1 798 3 view .LVU285
 1131              	@ ../Libraries/STM32F4xx_StdPeriph_Driver/src/stm32f4xx_spi.c:798:   SPIx->DR = Data;
 1132              		.loc 1 798 12 is_stmt 0 view .LVU286
 1133 0000 8181     		strh	r1, [r0, #12]	@ movhi	@ Data, SPIx_2(D)->DR
 1134              	@ ../Libraries/STM32F4xx_StdPeriph_Driver/src/stm32f4xx_spi.c:799: }
 799:../Libraries/STM32F4xx_StdPeriph_Driver/src/stm32f4xx_spi.c **** }
 1135              		.loc 1 799 1 view .LVU287
 1136 0002 7047     		bx	lr	@
 1137              		.cfi_endproc
 1138              	.LFE124:
 1139              		.size	SPI_I2S_SendData, .-SPI_I2S_SendData
 1140              		.section	.text.SPI_CalculateCRC,"ax",%progbits
 1141              		.align	1
 1142              		.p2align 2,,3
 1143              		.global	SPI_CalculateCRC
 1144              		.syntax unified
 1145              		.thumb
 1146              		.thumb_func
 1147              		.type	SPI_CalculateCRC, %function
 1148              	SPI_CalculateCRC:
 1149              	.LVL56:
 1150              	.LFB125:
 800:../Libraries/STM32F4xx_StdPeriph_Driver/src/stm32f4xx_spi.c **** 
 801:../Libraries/STM32F4xx_StdPeriph_Driver/src/stm32f4xx_spi.c **** /**
 802:../Libraries/STM32F4xx_StdPeriph_Driver/src/stm32f4xx_spi.c ****   * @}
 803:../Libraries/STM32F4xx_StdPeriph_Driver/src/stm32f4xx_spi.c ****   */
 804:../Libraries/STM32F4xx_StdPeriph_Driver/src/stm32f4xx_spi.c **** 
 805:../Libraries/STM32F4xx_StdPeriph_Driver/src/stm32f4xx_spi.c **** /** @defgroup SPI_Group3 Hardware CRC Calculation functions
 806:../Libraries/STM32F4xx_StdPeriph_Driver/src/stm32f4xx_spi.c ****  *  @brief   Hardware CRC Calculation functions
 807:../Libraries/STM32F4xx_StdPeriph_Driver/src/stm32f4xx_spi.c ****  *
 808:../Libraries/STM32F4xx_StdPeriph_Driver/src/stm32f4xx_spi.c **** @verbatim   
 809:../Libraries/STM32F4xx_StdPeriph_Driver/src/stm32f4xx_spi.c ****  ===============================================================================
 810:../Libraries/STM32F4xx_StdPeriph_Driver/src/stm32f4xx_spi.c ****                          Hardware CRC Calculation functions
 811:../Libraries/STM32F4xx_StdPeriph_Driver/src/stm32f4xx_spi.c ****  ===============================================================================  
 812:../Libraries/STM32F4xx_StdPeriph_Driver/src/stm32f4xx_spi.c **** 
 813:../Libraries/STM32F4xx_StdPeriph_Driver/src/stm32f4xx_spi.c ****   This section provides a set of functions allowing to manage the SPI CRC hardware 
 814:../Libraries/STM32F4xx_StdPeriph_Driver/src/stm32f4xx_spi.c ****   calculation
 815:../Libraries/STM32F4xx_StdPeriph_Driver/src/stm32f4xx_spi.c **** 
 816:../Libraries/STM32F4xx_StdPeriph_Driver/src/stm32f4xx_spi.c ****   SPI communication using CRC is possible through the following procedure:
 817:../Libraries/STM32F4xx_StdPeriph_Driver/src/stm32f4xx_spi.c ****      1. Program the Data direction, Polarity, Phase, First Data, Baud Rate Prescaler, 
 818:../Libraries/STM32F4xx_StdPeriph_Driver/src/stm32f4xx_spi.c ****         Slave Management, Peripheral Mode and CRC Polynomial values using the SPI_Init()
 819:../Libraries/STM32F4xx_StdPeriph_Driver/src/stm32f4xx_spi.c ****         function.
 820:../Libraries/STM32F4xx_StdPeriph_Driver/src/stm32f4xx_spi.c ****      2. Enable the CRC calculation using the SPI_CalculateCRC() function.
 821:../Libraries/STM32F4xx_StdPeriph_Driver/src/stm32f4xx_spi.c ****      3. Enable the SPI using the SPI_Cmd() function
 822:../Libraries/STM32F4xx_StdPeriph_Driver/src/stm32f4xx_spi.c ****      4. Before writing the last data to the TX buffer, set the CRCNext bit using the 
 823:../Libraries/STM32F4xx_StdPeriph_Driver/src/stm32f4xx_spi.c ****       SPI_TransmitCRC() function to indicate that after transmission of the last 
 824:../Libraries/STM32F4xx_StdPeriph_Driver/src/stm32f4xx_spi.c ****       data, the CRC should be transmitted.
 825:../Libraries/STM32F4xx_StdPeriph_Driver/src/stm32f4xx_spi.c ****      5. After transmitting the last data, the SPI transmits the CRC. The SPI_CR1_CRCNEXT
 826:../Libraries/STM32F4xx_StdPeriph_Driver/src/stm32f4xx_spi.c ****         bit is reset. The CRC is also received and compared against the SPI_RXCRCR 
 827:../Libraries/STM32F4xx_StdPeriph_Driver/src/stm32f4xx_spi.c ****         value. 
ARM GAS  C:\Users\admin\AppData\Local\Temp\ccLq5Oux.s 			page 37


 828:../Libraries/STM32F4xx_StdPeriph_Driver/src/stm32f4xx_spi.c ****         If the value does not match, the SPI_FLAG_CRCERR flag is set and an interrupt
 829:../Libraries/STM32F4xx_StdPeriph_Driver/src/stm32f4xx_spi.c ****         can be generated when the SPI_I2S_IT_ERR interrupt is enabled.
 830:../Libraries/STM32F4xx_StdPeriph_Driver/src/stm32f4xx_spi.c **** 
 831:../Libraries/STM32F4xx_StdPeriph_Driver/src/stm32f4xx_spi.c **** @note It is advised not to read the calculated CRC values during the communication.
 832:../Libraries/STM32F4xx_StdPeriph_Driver/src/stm32f4xx_spi.c **** 
 833:../Libraries/STM32F4xx_StdPeriph_Driver/src/stm32f4xx_spi.c **** @note When the SPI is in slave mode, be careful to enable CRC calculation only 
 834:../Libraries/STM32F4xx_StdPeriph_Driver/src/stm32f4xx_spi.c ****       when the clock is stable, that is, when the clock is in the steady state. 
 835:../Libraries/STM32F4xx_StdPeriph_Driver/src/stm32f4xx_spi.c ****       If not, a wrong CRC calculation may be done. In fact, the CRC is sensitive 
 836:../Libraries/STM32F4xx_StdPeriph_Driver/src/stm32f4xx_spi.c ****       to the SCK slave input clock as soon as CRCEN is set, and this, whatever 
 837:../Libraries/STM32F4xx_StdPeriph_Driver/src/stm32f4xx_spi.c ****       the value of the SPE bit.
 838:../Libraries/STM32F4xx_StdPeriph_Driver/src/stm32f4xx_spi.c **** 
 839:../Libraries/STM32F4xx_StdPeriph_Driver/src/stm32f4xx_spi.c **** @note With high bitrate frequencies, be careful when transmitting the CRC.
 840:../Libraries/STM32F4xx_StdPeriph_Driver/src/stm32f4xx_spi.c ****       As the number of used CPU cycles has to be as low as possible in the CRC 
 841:../Libraries/STM32F4xx_StdPeriph_Driver/src/stm32f4xx_spi.c ****       transfer phase, it is forbidden to call software functions in the CRC 
 842:../Libraries/STM32F4xx_StdPeriph_Driver/src/stm32f4xx_spi.c ****       transmission sequence to avoid errors in the last data and CRC reception. 
 843:../Libraries/STM32F4xx_StdPeriph_Driver/src/stm32f4xx_spi.c ****       In fact, CRCNEXT bit has to be written before the end of the transmission/reception 
 844:../Libraries/STM32F4xx_StdPeriph_Driver/src/stm32f4xx_spi.c ****       of the last data.
 845:../Libraries/STM32F4xx_StdPeriph_Driver/src/stm32f4xx_spi.c **** 
 846:../Libraries/STM32F4xx_StdPeriph_Driver/src/stm32f4xx_spi.c **** @note For high bit rate frequencies, it is advised to use the DMA mode to avoid the
 847:../Libraries/STM32F4xx_StdPeriph_Driver/src/stm32f4xx_spi.c ****       degradation of the SPI speed performance due to CPU accesses impacting the 
 848:../Libraries/STM32F4xx_StdPeriph_Driver/src/stm32f4xx_spi.c ****       SPI bandwidth.
 849:../Libraries/STM32F4xx_StdPeriph_Driver/src/stm32f4xx_spi.c **** 
 850:../Libraries/STM32F4xx_StdPeriph_Driver/src/stm32f4xx_spi.c **** @note When the STM32F4xx is configured as slave and the NSS hardware mode is 
 851:../Libraries/STM32F4xx_StdPeriph_Driver/src/stm32f4xx_spi.c ****       used, the NSS pin needs to be kept low between the data phase and the CRC 
 852:../Libraries/STM32F4xx_StdPeriph_Driver/src/stm32f4xx_spi.c ****       phase.
 853:../Libraries/STM32F4xx_StdPeriph_Driver/src/stm32f4xx_spi.c **** 
 854:../Libraries/STM32F4xx_StdPeriph_Driver/src/stm32f4xx_spi.c **** @note When the SPI is configured in slave mode with the CRC feature enabled, CRC
 855:../Libraries/STM32F4xx_StdPeriph_Driver/src/stm32f4xx_spi.c ****       calculation takes place even if a high level is applied on the NSS pin. 
 856:../Libraries/STM32F4xx_StdPeriph_Driver/src/stm32f4xx_spi.c ****       This may happen for example in case of a multi-slave environment where the 
 857:../Libraries/STM32F4xx_StdPeriph_Driver/src/stm32f4xx_spi.c ****       communication master addresses slaves alternately.
 858:../Libraries/STM32F4xx_StdPeriph_Driver/src/stm32f4xx_spi.c **** 
 859:../Libraries/STM32F4xx_StdPeriph_Driver/src/stm32f4xx_spi.c **** @note Between a slave de-selection (high level on NSS) and a new slave selection 
 860:../Libraries/STM32F4xx_StdPeriph_Driver/src/stm32f4xx_spi.c ****       (low level on NSS), the CRC value should be cleared on both master and slave
 861:../Libraries/STM32F4xx_StdPeriph_Driver/src/stm32f4xx_spi.c ****       sides in order to resynchronize the master and slave for their respective 
 862:../Libraries/STM32F4xx_StdPeriph_Driver/src/stm32f4xx_spi.c ****       CRC calculation.
 863:../Libraries/STM32F4xx_StdPeriph_Driver/src/stm32f4xx_spi.c **** 
 864:../Libraries/STM32F4xx_StdPeriph_Driver/src/stm32f4xx_spi.c **** @note To clear the CRC, follow the procedure below:
 865:../Libraries/STM32F4xx_StdPeriph_Driver/src/stm32f4xx_spi.c ****         1. Disable SPI using the SPI_Cmd() function
 866:../Libraries/STM32F4xx_StdPeriph_Driver/src/stm32f4xx_spi.c ****         2. Disable the CRC calculation using the SPI_CalculateCRC() function.
 867:../Libraries/STM32F4xx_StdPeriph_Driver/src/stm32f4xx_spi.c ****         3. Enable the CRC calculation using the SPI_CalculateCRC() function.
 868:../Libraries/STM32F4xx_StdPeriph_Driver/src/stm32f4xx_spi.c ****         4. Enable SPI using the SPI_Cmd() function.
 869:../Libraries/STM32F4xx_StdPeriph_Driver/src/stm32f4xx_spi.c **** 
 870:../Libraries/STM32F4xx_StdPeriph_Driver/src/stm32f4xx_spi.c **** @endverbatim
 871:../Libraries/STM32F4xx_StdPeriph_Driver/src/stm32f4xx_spi.c ****   * @{
 872:../Libraries/STM32F4xx_StdPeriph_Driver/src/stm32f4xx_spi.c ****   */
 873:../Libraries/STM32F4xx_StdPeriph_Driver/src/stm32f4xx_spi.c **** 
 874:../Libraries/STM32F4xx_StdPeriph_Driver/src/stm32f4xx_spi.c **** /**
 875:../Libraries/STM32F4xx_StdPeriph_Driver/src/stm32f4xx_spi.c ****   * @brief  Enables or disables the CRC value calculation of the transferred bytes.
 876:../Libraries/STM32F4xx_StdPeriph_Driver/src/stm32f4xx_spi.c ****   * @param  SPIx: where x can be 1, 2 or 3 to select the SPI peripheral.
 877:../Libraries/STM32F4xx_StdPeriph_Driver/src/stm32f4xx_spi.c ****   * @param  NewState: new state of the SPIx CRC value calculation.
 878:../Libraries/STM32F4xx_StdPeriph_Driver/src/stm32f4xx_spi.c ****   *          This parameter can be: ENABLE or DISABLE.
 879:../Libraries/STM32F4xx_StdPeriph_Driver/src/stm32f4xx_spi.c ****   * @retval None
 880:../Libraries/STM32F4xx_StdPeriph_Driver/src/stm32f4xx_spi.c ****   */
 881:../Libraries/STM32F4xx_StdPeriph_Driver/src/stm32f4xx_spi.c **** void SPI_CalculateCRC(SPI_TypeDef* SPIx, FunctionalState NewState)
 882:../Libraries/STM32F4xx_StdPeriph_Driver/src/stm32f4xx_spi.c **** {
 1151              		.loc 1 882 1 is_stmt 1 view -0
 1152              		.cfi_startproc
ARM GAS  C:\Users\admin\AppData\Local\Temp\ccLq5Oux.s 			page 38


 1153              		@ args = 0, pretend = 0, frame = 0
 1154              		@ frame_needed = 0, uses_anonymous_args = 0
 1155              		@ link register save eliminated.
 883:../Libraries/STM32F4xx_StdPeriph_Driver/src/stm32f4xx_spi.c ****   /* Check the parameters */
 884:../Libraries/STM32F4xx_StdPeriph_Driver/src/stm32f4xx_spi.c ****   assert_param(IS_SPI_ALL_PERIPH(SPIx));
 1156              		.loc 1 884 3 view .LVU289
 885:../Libraries/STM32F4xx_StdPeriph_Driver/src/stm32f4xx_spi.c ****   assert_param(IS_FUNCTIONAL_STATE(NewState));
 1157              		.loc 1 885 3 view .LVU290
 886:../Libraries/STM32F4xx_StdPeriph_Driver/src/stm32f4xx_spi.c ****   if (NewState != DISABLE)
 1158              		.loc 1 886 3 view .LVU291
 1159              	@ ../Libraries/STM32F4xx_StdPeriph_Driver/src/stm32f4xx_spi.c:889:     SPIx->CR1 |= SPI_CR1_CRCEN;
 887:../Libraries/STM32F4xx_StdPeriph_Driver/src/stm32f4xx_spi.c ****   {
 888:../Libraries/STM32F4xx_StdPeriph_Driver/src/stm32f4xx_spi.c ****     /* Enable the selected SPI CRC calculation */
 889:../Libraries/STM32F4xx_StdPeriph_Driver/src/stm32f4xx_spi.c ****     SPIx->CR1 |= SPI_CR1_CRCEN;
 1160              		.loc 1 889 15 is_stmt 0 view .LVU292
 1161 0000 0388     		ldrh	r3, [r0]	@,* SPIx
 1162              	@ ../Libraries/STM32F4xx_StdPeriph_Driver/src/stm32f4xx_spi.c:886:   if (NewState != DISABLE)
 886:../Libraries/STM32F4xx_StdPeriph_Driver/src/stm32f4xx_spi.c ****   if (NewState != DISABLE)
 1163              		.loc 1 886 6 view .LVU293
 1164 0002 21B1     		cbz	r1, .L61	@ tmp126,
 1165              		.loc 1 889 5 is_stmt 1 view .LVU294
 1166              	@ ../Libraries/STM32F4xx_StdPeriph_Driver/src/stm32f4xx_spi.c:889:     SPIx->CR1 |= SPI_CR1_CRCEN;
 1167              		.loc 1 889 15 is_stmt 0 view .LVU295
 1168 0004 9BB2     		uxth	r3, r3	@ _1, SPIx_8(D)->CR1
 1169 0006 43F40053 		orr	r3, r3, #8192	@ _2, _1,
 1170 000a 0380     		strh	r3, [r0]	@ movhi	@ _2,* SPIx
 1171 000c 7047     		bx	lr	@
 1172              	.L61:
 890:../Libraries/STM32F4xx_StdPeriph_Driver/src/stm32f4xx_spi.c ****   }
 891:../Libraries/STM32F4xx_StdPeriph_Driver/src/stm32f4xx_spi.c ****   else
 892:../Libraries/STM32F4xx_StdPeriph_Driver/src/stm32f4xx_spi.c ****   {
 893:../Libraries/STM32F4xx_StdPeriph_Driver/src/stm32f4xx_spi.c ****     /* Disable the selected SPI CRC calculation */
 894:../Libraries/STM32F4xx_StdPeriph_Driver/src/stm32f4xx_spi.c ****     SPIx->CR1 &= (uint16_t)~((uint16_t)SPI_CR1_CRCEN);
 1173              		.loc 1 894 5 is_stmt 1 view .LVU296
 1174              	@ ../Libraries/STM32F4xx_StdPeriph_Driver/src/stm32f4xx_spi.c:894:     SPIx->CR1 &= (uint16_t)~((ui
 1175              		.loc 1 894 15 is_stmt 0 view .LVU297
 1176 000e 23F40053 		bic	r3, r3, #8192	@ _4, SPIx_8(D)->CR1,
 1177 0012 1B04     		lsls	r3, r3, #16	@ _4, _4,
 1178 0014 1B0C     		lsrs	r3, r3, #16	@ _4, _4,
 1179 0016 0380     		strh	r3, [r0]	@ movhi	@ _4,* SPIx
 1180              	@ ../Libraries/STM32F4xx_StdPeriph_Driver/src/stm32f4xx_spi.c:896: }
 895:../Libraries/STM32F4xx_StdPeriph_Driver/src/stm32f4xx_spi.c ****   }
 896:../Libraries/STM32F4xx_StdPeriph_Driver/src/stm32f4xx_spi.c **** }
 1181              		.loc 1 896 1 view .LVU298
 1182 0018 7047     		bx	lr	@
 1183              		.cfi_endproc
 1184              	.LFE125:
 1185              		.size	SPI_CalculateCRC, .-SPI_CalculateCRC
 1186 001a 00BF     		.section	.text.SPI_TransmitCRC,"ax",%progbits
 1187              		.align	1
 1188              		.p2align 2,,3
 1189              		.global	SPI_TransmitCRC
 1190              		.syntax unified
 1191              		.thumb
 1192              		.thumb_func
 1193              		.type	SPI_TransmitCRC, %function
 1194              	SPI_TransmitCRC:
ARM GAS  C:\Users\admin\AppData\Local\Temp\ccLq5Oux.s 			page 39


 1195              	.LVL57:
 1196              	.LFB126:
 897:../Libraries/STM32F4xx_StdPeriph_Driver/src/stm32f4xx_spi.c **** 
 898:../Libraries/STM32F4xx_StdPeriph_Driver/src/stm32f4xx_spi.c **** /**
 899:../Libraries/STM32F4xx_StdPeriph_Driver/src/stm32f4xx_spi.c ****   * @brief  Transmit the SPIx CRC value.
 900:../Libraries/STM32F4xx_StdPeriph_Driver/src/stm32f4xx_spi.c ****   * @param  SPIx: where x can be 1, 2 or 3 to select the SPI peripheral.
 901:../Libraries/STM32F4xx_StdPeriph_Driver/src/stm32f4xx_spi.c ****   * @retval None
 902:../Libraries/STM32F4xx_StdPeriph_Driver/src/stm32f4xx_spi.c ****   */
 903:../Libraries/STM32F4xx_StdPeriph_Driver/src/stm32f4xx_spi.c **** void SPI_TransmitCRC(SPI_TypeDef* SPIx)
 904:../Libraries/STM32F4xx_StdPeriph_Driver/src/stm32f4xx_spi.c **** {
 1197              		.loc 1 904 1 is_stmt 1 view -0
 1198              		.cfi_startproc
 1199              		@ args = 0, pretend = 0, frame = 0
 1200              		@ frame_needed = 0, uses_anonymous_args = 0
 1201              		@ link register save eliminated.
 905:../Libraries/STM32F4xx_StdPeriph_Driver/src/stm32f4xx_spi.c ****   /* Check the parameters */
 906:../Libraries/STM32F4xx_StdPeriph_Driver/src/stm32f4xx_spi.c ****   assert_param(IS_SPI_ALL_PERIPH(SPIx));
 1202              		.loc 1 906 3 view .LVU300
 907:../Libraries/STM32F4xx_StdPeriph_Driver/src/stm32f4xx_spi.c ****   
 908:../Libraries/STM32F4xx_StdPeriph_Driver/src/stm32f4xx_spi.c ****   /* Enable the selected SPI CRC transmission */
 909:../Libraries/STM32F4xx_StdPeriph_Driver/src/stm32f4xx_spi.c ****   SPIx->CR1 |= SPI_CR1_CRCNEXT;
 1203              		.loc 1 909 3 view .LVU301
 1204              	@ ../Libraries/STM32F4xx_StdPeriph_Driver/src/stm32f4xx_spi.c:909:   SPIx->CR1 |= SPI_CR1_CRCNEXT;
 1205              		.loc 1 909 13 is_stmt 0 view .LVU302
 1206 0000 0388     		ldrh	r3, [r0]	@, SPIx_4(D)->CR1
 1207 0002 9BB2     		uxth	r3, r3	@ _1, SPIx_4(D)->CR1
 1208 0004 43F48053 		orr	r3, r3, #4096	@ _2, _1,
 1209 0008 0380     		strh	r3, [r0]	@ movhi	@ _2, SPIx_4(D)->CR1
 1210              	@ ../Libraries/STM32F4xx_StdPeriph_Driver/src/stm32f4xx_spi.c:910: }
 910:../Libraries/STM32F4xx_StdPeriph_Driver/src/stm32f4xx_spi.c **** }
 1211              		.loc 1 910 1 view .LVU303
 1212 000a 7047     		bx	lr	@
 1213              		.cfi_endproc
 1214              	.LFE126:
 1215              		.size	SPI_TransmitCRC, .-SPI_TransmitCRC
 1216              		.section	.text.SPI_GetCRC,"ax",%progbits
 1217              		.align	1
 1218              		.p2align 2,,3
 1219              		.global	SPI_GetCRC
 1220              		.syntax unified
 1221              		.thumb
 1222              		.thumb_func
 1223              		.type	SPI_GetCRC, %function
 1224              	SPI_GetCRC:
 1225              	.LVL58:
 1226              	.LFB127:
 911:../Libraries/STM32F4xx_StdPeriph_Driver/src/stm32f4xx_spi.c **** 
 912:../Libraries/STM32F4xx_StdPeriph_Driver/src/stm32f4xx_spi.c **** /**
 913:../Libraries/STM32F4xx_StdPeriph_Driver/src/stm32f4xx_spi.c ****   * @brief  Returns the transmit or the receive CRC register value for the specified SPI.
 914:../Libraries/STM32F4xx_StdPeriph_Driver/src/stm32f4xx_spi.c ****   * @param  SPIx: where x can be 1, 2 or 3 to select the SPI peripheral.
 915:../Libraries/STM32F4xx_StdPeriph_Driver/src/stm32f4xx_spi.c ****   * @param  SPI_CRC: specifies the CRC register to be read.
 916:../Libraries/STM32F4xx_StdPeriph_Driver/src/stm32f4xx_spi.c ****   *          This parameter can be one of the following values:
 917:../Libraries/STM32F4xx_StdPeriph_Driver/src/stm32f4xx_spi.c ****   *            @arg SPI_CRC_Tx: Selects Tx CRC register
 918:../Libraries/STM32F4xx_StdPeriph_Driver/src/stm32f4xx_spi.c ****   *            @arg SPI_CRC_Rx: Selects Rx CRC register
 919:../Libraries/STM32F4xx_StdPeriph_Driver/src/stm32f4xx_spi.c ****   * @retval The selected CRC register value..
 920:../Libraries/STM32F4xx_StdPeriph_Driver/src/stm32f4xx_spi.c ****   */
 921:../Libraries/STM32F4xx_StdPeriph_Driver/src/stm32f4xx_spi.c **** uint16_t SPI_GetCRC(SPI_TypeDef* SPIx, uint8_t SPI_CRC)
ARM GAS  C:\Users\admin\AppData\Local\Temp\ccLq5Oux.s 			page 40


 922:../Libraries/STM32F4xx_StdPeriph_Driver/src/stm32f4xx_spi.c **** {
 1227              		.loc 1 922 1 is_stmt 1 view -0
 1228              		.cfi_startproc
 1229              		@ args = 0, pretend = 0, frame = 0
 1230              		@ frame_needed = 0, uses_anonymous_args = 0
 1231              		@ link register save eliminated.
 923:../Libraries/STM32F4xx_StdPeriph_Driver/src/stm32f4xx_spi.c ****   uint16_t crcreg = 0;
 1232              		.loc 1 923 3 view .LVU305
 924:../Libraries/STM32F4xx_StdPeriph_Driver/src/stm32f4xx_spi.c ****   /* Check the parameters */
 925:../Libraries/STM32F4xx_StdPeriph_Driver/src/stm32f4xx_spi.c ****   assert_param(IS_SPI_ALL_PERIPH(SPIx));
 1233              		.loc 1 925 3 view .LVU306
 926:../Libraries/STM32F4xx_StdPeriph_Driver/src/stm32f4xx_spi.c ****   assert_param(IS_SPI_CRC(SPI_CRC));
 1234              		.loc 1 926 3 view .LVU307
 927:../Libraries/STM32F4xx_StdPeriph_Driver/src/stm32f4xx_spi.c ****   if (SPI_CRC != SPI_CRC_Rx)
 1235              		.loc 1 927 3 view .LVU308
 1236              	@ ../Libraries/STM32F4xx_StdPeriph_Driver/src/stm32f4xx_spi.c:927:   if (SPI_CRC != SPI_CRC_Rx)
 1237              		.loc 1 927 6 is_stmt 0 view .LVU309
 1238 0000 0129     		cmp	r1, #1	@ tmp122,
 928:../Libraries/STM32F4xx_StdPeriph_Driver/src/stm32f4xx_spi.c ****   {
 929:../Libraries/STM32F4xx_StdPeriph_Driver/src/stm32f4xx_spi.c ****     /* Get the Tx CRC register */
 930:../Libraries/STM32F4xx_StdPeriph_Driver/src/stm32f4xx_spi.c ****     crcreg = SPIx->TXCRCR;
 1239              		.loc 1 930 5 is_stmt 1 view .LVU310
 1240              	@ ../Libraries/STM32F4xx_StdPeriph_Driver/src/stm32f4xx_spi.c:930:     crcreg = SPIx->TXCRCR;
 1241              		.loc 1 930 12 is_stmt 0 view .LVU311
 1242 0002 14BF     		ite	ne
 1243 0004 008B     		ldrhne	r0, [r0, #24]	@, SPIx_4(D)->TXCRCR
 1244              	.LVL59:
 931:../Libraries/STM32F4xx_StdPeriph_Driver/src/stm32f4xx_spi.c ****   }
 932:../Libraries/STM32F4xx_StdPeriph_Driver/src/stm32f4xx_spi.c ****   else
 933:../Libraries/STM32F4xx_StdPeriph_Driver/src/stm32f4xx_spi.c ****   {
 934:../Libraries/STM32F4xx_StdPeriph_Driver/src/stm32f4xx_spi.c ****     /* Get the Rx CRC register */
 935:../Libraries/STM32F4xx_StdPeriph_Driver/src/stm32f4xx_spi.c ****     crcreg = SPIx->RXCRCR;
 1245              		.loc 1 935 5 is_stmt 1 view .LVU312
 1246              	@ ../Libraries/STM32F4xx_StdPeriph_Driver/src/stm32f4xx_spi.c:935:     crcreg = SPIx->RXCRCR;
 1247              		.loc 1 935 12 is_stmt 0 view .LVU313
 1248 0006 808A     		ldrheq	r0, [r0, #20]	@, SPIx_4(D)->RXCRCR
 1249 0008 80B2     		uxth	r0, r0	@ <retval>, SPIx_4(D)->RXCRCR
 1250              	.LVL60:
 936:../Libraries/STM32F4xx_StdPeriph_Driver/src/stm32f4xx_spi.c ****   }
 937:../Libraries/STM32F4xx_StdPeriph_Driver/src/stm32f4xx_spi.c ****   /* Return the selected CRC register */
 938:../Libraries/STM32F4xx_StdPeriph_Driver/src/stm32f4xx_spi.c ****   return crcreg;
 1251              		.loc 1 938 3 is_stmt 1 view .LVU314
 1252              	@ ../Libraries/STM32F4xx_StdPeriph_Driver/src/stm32f4xx_spi.c:939: }
 939:../Libraries/STM32F4xx_StdPeriph_Driver/src/stm32f4xx_spi.c **** }
 1253              		.loc 1 939 1 is_stmt 0 view .LVU315
 1254 000a 7047     		bx	lr	@
 1255              		.cfi_endproc
 1256              	.LFE127:
 1257              		.size	SPI_GetCRC, .-SPI_GetCRC
 1258              		.section	.text.SPI_GetCRCPolynomial,"ax",%progbits
 1259              		.align	1
 1260              		.p2align 2,,3
 1261              		.global	SPI_GetCRCPolynomial
 1262              		.syntax unified
 1263              		.thumb
 1264              		.thumb_func
 1265              		.type	SPI_GetCRCPolynomial, %function
ARM GAS  C:\Users\admin\AppData\Local\Temp\ccLq5Oux.s 			page 41


 1266              	SPI_GetCRCPolynomial:
 1267              	.LVL61:
 1268              	.LFB128:
 940:../Libraries/STM32F4xx_StdPeriph_Driver/src/stm32f4xx_spi.c **** 
 941:../Libraries/STM32F4xx_StdPeriph_Driver/src/stm32f4xx_spi.c **** /**
 942:../Libraries/STM32F4xx_StdPeriph_Driver/src/stm32f4xx_spi.c ****   * @brief  Returns the CRC Polynomial register value for the specified SPI.
 943:../Libraries/STM32F4xx_StdPeriph_Driver/src/stm32f4xx_spi.c ****   * @param  SPIx: where x can be 1, 2 or 3 to select the SPI peripheral.
 944:../Libraries/STM32F4xx_StdPeriph_Driver/src/stm32f4xx_spi.c ****   * @retval The CRC Polynomial register value.
 945:../Libraries/STM32F4xx_StdPeriph_Driver/src/stm32f4xx_spi.c ****   */
 946:../Libraries/STM32F4xx_StdPeriph_Driver/src/stm32f4xx_spi.c **** uint16_t SPI_GetCRCPolynomial(SPI_TypeDef* SPIx)
 947:../Libraries/STM32F4xx_StdPeriph_Driver/src/stm32f4xx_spi.c **** {
 1269              		.loc 1 947 1 is_stmt 1 view -0
 1270              		.cfi_startproc
 1271              		@ args = 0, pretend = 0, frame = 0
 1272              		@ frame_needed = 0, uses_anonymous_args = 0
 1273              		@ link register save eliminated.
 948:../Libraries/STM32F4xx_StdPeriph_Driver/src/stm32f4xx_spi.c ****   /* Check the parameters */
 949:../Libraries/STM32F4xx_StdPeriph_Driver/src/stm32f4xx_spi.c ****   assert_param(IS_SPI_ALL_PERIPH(SPIx));
 1274              		.loc 1 949 3 view .LVU317
 950:../Libraries/STM32F4xx_StdPeriph_Driver/src/stm32f4xx_spi.c ****   
 951:../Libraries/STM32F4xx_StdPeriph_Driver/src/stm32f4xx_spi.c ****   /* Return the CRC polynomial register */
 952:../Libraries/STM32F4xx_StdPeriph_Driver/src/stm32f4xx_spi.c ****   return SPIx->CRCPR;
 1275              		.loc 1 952 3 view .LVU318
 1276              	@ ../Libraries/STM32F4xx_StdPeriph_Driver/src/stm32f4xx_spi.c:952:   return SPIx->CRCPR;
 1277              		.loc 1 952 14 is_stmt 0 view .LVU319
 1278 0000 008A     		ldrh	r0, [r0, #16]	@, SPIx_2(D)->CRCPR
 1279              	.LVL62:
 1280              	@ ../Libraries/STM32F4xx_StdPeriph_Driver/src/stm32f4xx_spi.c:953: }
 953:../Libraries/STM32F4xx_StdPeriph_Driver/src/stm32f4xx_spi.c **** }
 1281              		.loc 1 953 1 view .LVU320
 1282 0002 80B2     		uxth	r0, r0	@, SPIx_2(D)->CRCPR
 1283 0004 7047     		bx	lr	@
 1284              		.cfi_endproc
 1285              	.LFE128:
 1286              		.size	SPI_GetCRCPolynomial, .-SPI_GetCRCPolynomial
 1287 0006 00BF     		.section	.text.SPI_I2S_DMACmd,"ax",%progbits
 1288              		.align	1
 1289              		.p2align 2,,3
 1290              		.global	SPI_I2S_DMACmd
 1291              		.syntax unified
 1292              		.thumb
 1293              		.thumb_func
 1294              		.type	SPI_I2S_DMACmd, %function
 1295              	SPI_I2S_DMACmd:
 1296              	.LVL63:
 1297              	.LFB129:
 954:../Libraries/STM32F4xx_StdPeriph_Driver/src/stm32f4xx_spi.c **** 
 955:../Libraries/STM32F4xx_StdPeriph_Driver/src/stm32f4xx_spi.c **** /**
 956:../Libraries/STM32F4xx_StdPeriph_Driver/src/stm32f4xx_spi.c ****   * @}
 957:../Libraries/STM32F4xx_StdPeriph_Driver/src/stm32f4xx_spi.c ****   */
 958:../Libraries/STM32F4xx_StdPeriph_Driver/src/stm32f4xx_spi.c **** 
 959:../Libraries/STM32F4xx_StdPeriph_Driver/src/stm32f4xx_spi.c **** /** @defgroup SPI_Group4 DMA transfers management functions
 960:../Libraries/STM32F4xx_StdPeriph_Driver/src/stm32f4xx_spi.c ****  *  @brief   DMA transfers management functions
 961:../Libraries/STM32F4xx_StdPeriph_Driver/src/stm32f4xx_spi.c ****   *
 962:../Libraries/STM32F4xx_StdPeriph_Driver/src/stm32f4xx_spi.c **** @verbatim   
 963:../Libraries/STM32F4xx_StdPeriph_Driver/src/stm32f4xx_spi.c ****  ===============================================================================
 964:../Libraries/STM32F4xx_StdPeriph_Driver/src/stm32f4xx_spi.c ****                          DMA transfers management functions
ARM GAS  C:\Users\admin\AppData\Local\Temp\ccLq5Oux.s 			page 42


 965:../Libraries/STM32F4xx_StdPeriph_Driver/src/stm32f4xx_spi.c ****  ===============================================================================  
 966:../Libraries/STM32F4xx_StdPeriph_Driver/src/stm32f4xx_spi.c **** 
 967:../Libraries/STM32F4xx_StdPeriph_Driver/src/stm32f4xx_spi.c **** @endverbatim
 968:../Libraries/STM32F4xx_StdPeriph_Driver/src/stm32f4xx_spi.c ****   * @{
 969:../Libraries/STM32F4xx_StdPeriph_Driver/src/stm32f4xx_spi.c ****   */
 970:../Libraries/STM32F4xx_StdPeriph_Driver/src/stm32f4xx_spi.c **** 
 971:../Libraries/STM32F4xx_StdPeriph_Driver/src/stm32f4xx_spi.c **** /**
 972:../Libraries/STM32F4xx_StdPeriph_Driver/src/stm32f4xx_spi.c ****   * @brief  Enables or disables the SPIx/I2Sx DMA interface.
 973:../Libraries/STM32F4xx_StdPeriph_Driver/src/stm32f4xx_spi.c ****   * @param  SPIx: To select the SPIx/I2Sx peripheral, where x can be: 1, 2 or 3 
 974:../Libraries/STM32F4xx_StdPeriph_Driver/src/stm32f4xx_spi.c ****   *         in SPI mode or 2 or 3 in I2S mode or I2Sxext for I2S full duplex mode. 
 975:../Libraries/STM32F4xx_StdPeriph_Driver/src/stm32f4xx_spi.c ****   * @param  SPI_I2S_DMAReq: specifies the SPI DMA transfer request to be enabled or disabled. 
 976:../Libraries/STM32F4xx_StdPeriph_Driver/src/stm32f4xx_spi.c ****   *          This parameter can be any combination of the following values:
 977:../Libraries/STM32F4xx_StdPeriph_Driver/src/stm32f4xx_spi.c ****   *            @arg SPI_I2S_DMAReq_Tx: Tx buffer DMA transfer request
 978:../Libraries/STM32F4xx_StdPeriph_Driver/src/stm32f4xx_spi.c ****   *            @arg SPI_I2S_DMAReq_Rx: Rx buffer DMA transfer request
 979:../Libraries/STM32F4xx_StdPeriph_Driver/src/stm32f4xx_spi.c ****   * @param  NewState: new state of the selected SPI DMA transfer request.
 980:../Libraries/STM32F4xx_StdPeriph_Driver/src/stm32f4xx_spi.c ****   *          This parameter can be: ENABLE or DISABLE.
 981:../Libraries/STM32F4xx_StdPeriph_Driver/src/stm32f4xx_spi.c ****   * @retval None
 982:../Libraries/STM32F4xx_StdPeriph_Driver/src/stm32f4xx_spi.c ****   */
 983:../Libraries/STM32F4xx_StdPeriph_Driver/src/stm32f4xx_spi.c **** void SPI_I2S_DMACmd(SPI_TypeDef* SPIx, uint16_t SPI_I2S_DMAReq, FunctionalState NewState)
 984:../Libraries/STM32F4xx_StdPeriph_Driver/src/stm32f4xx_spi.c **** {
 1298              		.loc 1 984 1 is_stmt 1 view -0
 1299              		.cfi_startproc
 1300              		@ args = 0, pretend = 0, frame = 0
 1301              		@ frame_needed = 0, uses_anonymous_args = 0
 1302              		@ link register save eliminated.
 985:../Libraries/STM32F4xx_StdPeriph_Driver/src/stm32f4xx_spi.c ****   /* Check the parameters */
 986:../Libraries/STM32F4xx_StdPeriph_Driver/src/stm32f4xx_spi.c ****   assert_param(IS_SPI_ALL_PERIPH_EXT(SPIx));
 1303              		.loc 1 986 3 view .LVU322
 987:../Libraries/STM32F4xx_StdPeriph_Driver/src/stm32f4xx_spi.c ****   assert_param(IS_FUNCTIONAL_STATE(NewState));
 1304              		.loc 1 987 3 view .LVU323
 988:../Libraries/STM32F4xx_StdPeriph_Driver/src/stm32f4xx_spi.c ****   assert_param(IS_SPI_I2S_DMAREQ(SPI_I2S_DMAReq));
 1305              		.loc 1 988 3 view .LVU324
 989:../Libraries/STM32F4xx_StdPeriph_Driver/src/stm32f4xx_spi.c **** 
 990:../Libraries/STM32F4xx_StdPeriph_Driver/src/stm32f4xx_spi.c ****   if (NewState != DISABLE)
 1306              		.loc 1 990 3 view .LVU325
 1307              	@ ../Libraries/STM32F4xx_StdPeriph_Driver/src/stm32f4xx_spi.c:993:     SPIx->CR2 |= SPI_I2S_DMAReq;
 991:../Libraries/STM32F4xx_StdPeriph_Driver/src/stm32f4xx_spi.c ****   {
 992:../Libraries/STM32F4xx_StdPeriph_Driver/src/stm32f4xx_spi.c ****     /* Enable the selected SPI DMA requests */
 993:../Libraries/STM32F4xx_StdPeriph_Driver/src/stm32f4xx_spi.c ****     SPIx->CR2 |= SPI_I2S_DMAReq;
 1308              		.loc 1 993 15 is_stmt 0 view .LVU326
 1309 0000 8388     		ldrh	r3, [r0, #4]	@,
 1310 0002 9BB2     		uxth	r3, r3	@ _1, SPIx_9(D)->CR2
 1311              	@ ../Libraries/STM32F4xx_StdPeriph_Driver/src/stm32f4xx_spi.c:990:   if (NewState != DISABLE)
 990:../Libraries/STM32F4xx_StdPeriph_Driver/src/stm32f4xx_spi.c ****   {
 1312              		.loc 1 990 6 view .LVU327
 1313 0004 12B1     		cbz	r2, .L69	@ tmp133,
 1314              		.loc 1 993 5 is_stmt 1 view .LVU328
 1315              	@ ../Libraries/STM32F4xx_StdPeriph_Driver/src/stm32f4xx_spi.c:993:     SPIx->CR2 |= SPI_I2S_DMAReq;
 1316              		.loc 1 993 15 is_stmt 0 view .LVU329
 1317 0006 1943     		orrs	r1, r1, r3	@, _2, SPI_I2S_DMAReq, _1
 1318              	.LVL64:
 1319              		.loc 1 993 15 view .LVU330
 1320 0008 8180     		strh	r1, [r0, #4]	@ movhi	@ _2,
 1321 000a 7047     		bx	lr	@
 1322              	.LVL65:
 1323              	.L69:
 994:../Libraries/STM32F4xx_StdPeriph_Driver/src/stm32f4xx_spi.c ****   }
ARM GAS  C:\Users\admin\AppData\Local\Temp\ccLq5Oux.s 			page 43


 995:../Libraries/STM32F4xx_StdPeriph_Driver/src/stm32f4xx_spi.c ****   else
 996:../Libraries/STM32F4xx_StdPeriph_Driver/src/stm32f4xx_spi.c ****   {
 997:../Libraries/STM32F4xx_StdPeriph_Driver/src/stm32f4xx_spi.c ****     /* Disable the selected SPI DMA requests */
 998:../Libraries/STM32F4xx_StdPeriph_Driver/src/stm32f4xx_spi.c ****     SPIx->CR2 &= (uint16_t)~SPI_I2S_DMAReq;
 1324              		.loc 1 998 5 is_stmt 1 view .LVU331
 1325              	@ ../Libraries/STM32F4xx_StdPeriph_Driver/src/stm32f4xx_spi.c:998:     SPIx->CR2 &= (uint16_t)~SPI_
 1326              		.loc 1 998 15 is_stmt 0 view .LVU332
 1327 000c 23EA0101 		bic	r1, r3, r1	@ _5, _3, SPI_I2S_DMAReq
 1328              	.LVL66:
 1329              		.loc 1 998 15 view .LVU333
 1330 0010 8180     		strh	r1, [r0, #4]	@ movhi	@ _5,
 1331              	@ ../Libraries/STM32F4xx_StdPeriph_Driver/src/stm32f4xx_spi.c:1000: }
 999:../Libraries/STM32F4xx_StdPeriph_Driver/src/stm32f4xx_spi.c ****   }
1000:../Libraries/STM32F4xx_StdPeriph_Driver/src/stm32f4xx_spi.c **** }
 1332              		.loc 1 1000 1 view .LVU334
 1333 0012 7047     		bx	lr	@
 1334              		.cfi_endproc
 1335              	.LFE129:
 1336              		.size	SPI_I2S_DMACmd, .-SPI_I2S_DMACmd
 1337              		.section	.text.SPI_I2S_ITConfig,"ax",%progbits
 1338              		.align	1
 1339              		.p2align 2,,3
 1340              		.global	SPI_I2S_ITConfig
 1341              		.syntax unified
 1342              		.thumb
 1343              		.thumb_func
 1344              		.type	SPI_I2S_ITConfig, %function
 1345              	SPI_I2S_ITConfig:
 1346              	.LVL67:
 1347              	.LFB130:
1001:../Libraries/STM32F4xx_StdPeriph_Driver/src/stm32f4xx_spi.c **** 
1002:../Libraries/STM32F4xx_StdPeriph_Driver/src/stm32f4xx_spi.c **** /**
1003:../Libraries/STM32F4xx_StdPeriph_Driver/src/stm32f4xx_spi.c ****   * @}
1004:../Libraries/STM32F4xx_StdPeriph_Driver/src/stm32f4xx_spi.c ****   */
1005:../Libraries/STM32F4xx_StdPeriph_Driver/src/stm32f4xx_spi.c **** 
1006:../Libraries/STM32F4xx_StdPeriph_Driver/src/stm32f4xx_spi.c **** /** @defgroup SPI_Group5 Interrupts and flags management functions
1007:../Libraries/STM32F4xx_StdPeriph_Driver/src/stm32f4xx_spi.c ****  *  @brief   Interrupts and flags management functions
1008:../Libraries/STM32F4xx_StdPeriph_Driver/src/stm32f4xx_spi.c ****   *
1009:../Libraries/STM32F4xx_StdPeriph_Driver/src/stm32f4xx_spi.c **** @verbatim   
1010:../Libraries/STM32F4xx_StdPeriph_Driver/src/stm32f4xx_spi.c ****  ===============================================================================
1011:../Libraries/STM32F4xx_StdPeriph_Driver/src/stm32f4xx_spi.c ****                          Interrupts and flags management functions
1012:../Libraries/STM32F4xx_StdPeriph_Driver/src/stm32f4xx_spi.c ****  ===============================================================================  
1013:../Libraries/STM32F4xx_StdPeriph_Driver/src/stm32f4xx_spi.c **** 
1014:../Libraries/STM32F4xx_StdPeriph_Driver/src/stm32f4xx_spi.c ****   This section provides a set of functions allowing to configure the SPI Interrupts 
1015:../Libraries/STM32F4xx_StdPeriph_Driver/src/stm32f4xx_spi.c ****   sources and check or clear the flags or pending bits status.
1016:../Libraries/STM32F4xx_StdPeriph_Driver/src/stm32f4xx_spi.c ****   The user should identify which mode will be used in his application to manage 
1017:../Libraries/STM32F4xx_StdPeriph_Driver/src/stm32f4xx_spi.c ****   the communication: Polling mode, Interrupt mode or DMA mode. 
1018:../Libraries/STM32F4xx_StdPeriph_Driver/src/stm32f4xx_spi.c ****     
1019:../Libraries/STM32F4xx_StdPeriph_Driver/src/stm32f4xx_spi.c ****   Polling Mode
1020:../Libraries/STM32F4xx_StdPeriph_Driver/src/stm32f4xx_spi.c ****   =============
1021:../Libraries/STM32F4xx_StdPeriph_Driver/src/stm32f4xx_spi.c ****   In Polling Mode, the SPI/I2S communication can be managed by 9 flags:
1022:../Libraries/STM32F4xx_StdPeriph_Driver/src/stm32f4xx_spi.c ****      1. SPI_I2S_FLAG_TXE : to indicate the status of the transmit buffer register
1023:../Libraries/STM32F4xx_StdPeriph_Driver/src/stm32f4xx_spi.c ****      2. SPI_I2S_FLAG_RXNE : to indicate the status of the receive buffer register
1024:../Libraries/STM32F4xx_StdPeriph_Driver/src/stm32f4xx_spi.c ****      3. SPI_I2S_FLAG_BSY : to indicate the state of the communication layer of the SPI.
1025:../Libraries/STM32F4xx_StdPeriph_Driver/src/stm32f4xx_spi.c ****      4. SPI_FLAG_CRCERR : to indicate if a CRC Calculation error occur              
1026:../Libraries/STM32F4xx_StdPeriph_Driver/src/stm32f4xx_spi.c ****      5. SPI_FLAG_MODF : to indicate if a Mode Fault error occur
1027:../Libraries/STM32F4xx_StdPeriph_Driver/src/stm32f4xx_spi.c ****      6. SPI_I2S_FLAG_OVR : to indicate if an Overrun error occur
ARM GAS  C:\Users\admin\AppData\Local\Temp\ccLq5Oux.s 			page 44


1028:../Libraries/STM32F4xx_StdPeriph_Driver/src/stm32f4xx_spi.c ****      7. I2S_FLAG_TIFRFE: to indicate a Frame Format error occurs.
1029:../Libraries/STM32F4xx_StdPeriph_Driver/src/stm32f4xx_spi.c ****      8. I2S_FLAG_UDR: to indicate an Underrun error occurs.
1030:../Libraries/STM32F4xx_StdPeriph_Driver/src/stm32f4xx_spi.c ****      9. I2S_FLAG_CHSIDE: to indicate Channel Side.
1031:../Libraries/STM32F4xx_StdPeriph_Driver/src/stm32f4xx_spi.c **** 
1032:../Libraries/STM32F4xx_StdPeriph_Driver/src/stm32f4xx_spi.c **** @note Do not use the BSY flag to handle each data transmission or reception.  It is
1033:../Libraries/STM32F4xx_StdPeriph_Driver/src/stm32f4xx_spi.c ****       better to use the TXE and RXNE flags instead.
1034:../Libraries/STM32F4xx_StdPeriph_Driver/src/stm32f4xx_spi.c **** 
1035:../Libraries/STM32F4xx_StdPeriph_Driver/src/stm32f4xx_spi.c ****   In this Mode it is advised to use the following functions:
1036:../Libraries/STM32F4xx_StdPeriph_Driver/src/stm32f4xx_spi.c ****      - FlagStatus SPI_I2S_GetFlagStatus(SPI_TypeDef* SPIx, uint16_t SPI_I2S_FLAG);
1037:../Libraries/STM32F4xx_StdPeriph_Driver/src/stm32f4xx_spi.c ****      - void SPI_I2S_ClearFlag(SPI_TypeDef* SPIx, uint16_t SPI_I2S_FLAG);
1038:../Libraries/STM32F4xx_StdPeriph_Driver/src/stm32f4xx_spi.c **** 
1039:../Libraries/STM32F4xx_StdPeriph_Driver/src/stm32f4xx_spi.c ****   Interrupt Mode
1040:../Libraries/STM32F4xx_StdPeriph_Driver/src/stm32f4xx_spi.c ****   ===============
1041:../Libraries/STM32F4xx_StdPeriph_Driver/src/stm32f4xx_spi.c ****   In Interrupt Mode, the SPI communication can be managed by 3 interrupt sources
1042:../Libraries/STM32F4xx_StdPeriph_Driver/src/stm32f4xx_spi.c ****   and 7 pending bits: 
1043:../Libraries/STM32F4xx_StdPeriph_Driver/src/stm32f4xx_spi.c ****   Pending Bits:
1044:../Libraries/STM32F4xx_StdPeriph_Driver/src/stm32f4xx_spi.c ****   ------------- 
1045:../Libraries/STM32F4xx_StdPeriph_Driver/src/stm32f4xx_spi.c ****      1. SPI_I2S_IT_TXE : to indicate the status of the transmit buffer register
1046:../Libraries/STM32F4xx_StdPeriph_Driver/src/stm32f4xx_spi.c ****      2. SPI_I2S_IT_RXNE : to indicate the status of the receive buffer register
1047:../Libraries/STM32F4xx_StdPeriph_Driver/src/stm32f4xx_spi.c ****      3. SPI_IT_CRCERR : to indicate if a CRC Calculation error occur (available in SPI mode only)  
1048:../Libraries/STM32F4xx_StdPeriph_Driver/src/stm32f4xx_spi.c ****      4. SPI_IT_MODF : to indicate if a Mode Fault error occur (available in SPI mode only)
1049:../Libraries/STM32F4xx_StdPeriph_Driver/src/stm32f4xx_spi.c ****      5. SPI_I2S_IT_OVR : to indicate if an Overrun error occur
1050:../Libraries/STM32F4xx_StdPeriph_Driver/src/stm32f4xx_spi.c ****      6. I2S_IT_UDR : to indicate an Underrun Error occurs (available in I2S mode only).
1051:../Libraries/STM32F4xx_StdPeriph_Driver/src/stm32f4xx_spi.c ****      7. I2S_FLAG_TIFRFE : to indicate a Frame Format error occurs (available in TI mode only).
1052:../Libraries/STM32F4xx_StdPeriph_Driver/src/stm32f4xx_spi.c **** 
1053:../Libraries/STM32F4xx_StdPeriph_Driver/src/stm32f4xx_spi.c ****   Interrupt Source:
1054:../Libraries/STM32F4xx_StdPeriph_Driver/src/stm32f4xx_spi.c ****   -----------------
1055:../Libraries/STM32F4xx_StdPeriph_Driver/src/stm32f4xx_spi.c ****      1. SPI_I2S_IT_TXE: specifies the interrupt source for the Tx buffer empty 
1056:../Libraries/STM32F4xx_StdPeriph_Driver/src/stm32f4xx_spi.c ****                         interrupt.  
1057:../Libraries/STM32F4xx_StdPeriph_Driver/src/stm32f4xx_spi.c ****      2. SPI_I2S_IT_RXNE : specifies the interrupt source for the Rx buffer not 
1058:../Libraries/STM32F4xx_StdPeriph_Driver/src/stm32f4xx_spi.c ****                           empty interrupt.
1059:../Libraries/STM32F4xx_StdPeriph_Driver/src/stm32f4xx_spi.c ****      3. SPI_I2S_IT_ERR : specifies the interrupt source for the errors interrupt.
1060:../Libraries/STM32F4xx_StdPeriph_Driver/src/stm32f4xx_spi.c **** 
1061:../Libraries/STM32F4xx_StdPeriph_Driver/src/stm32f4xx_spi.c ****   In this Mode it is advised to use the following functions:
1062:../Libraries/STM32F4xx_StdPeriph_Driver/src/stm32f4xx_spi.c ****      - void SPI_I2S_ITConfig(SPI_TypeDef* SPIx, uint8_t SPI_I2S_IT, FunctionalState NewState);
1063:../Libraries/STM32F4xx_StdPeriph_Driver/src/stm32f4xx_spi.c ****      - ITStatus SPI_I2S_GetITStatus(SPI_TypeDef* SPIx, uint8_t SPI_I2S_IT);
1064:../Libraries/STM32F4xx_StdPeriph_Driver/src/stm32f4xx_spi.c ****      - void SPI_I2S_ClearITPendingBit(SPI_TypeDef* SPIx, uint8_t SPI_I2S_IT);
1065:../Libraries/STM32F4xx_StdPeriph_Driver/src/stm32f4xx_spi.c **** 
1066:../Libraries/STM32F4xx_StdPeriph_Driver/src/stm32f4xx_spi.c ****   DMA Mode
1067:../Libraries/STM32F4xx_StdPeriph_Driver/src/stm32f4xx_spi.c ****   ========
1068:../Libraries/STM32F4xx_StdPeriph_Driver/src/stm32f4xx_spi.c ****   In DMA Mode, the SPI communication can be managed by 2 DMA Channel requests:
1069:../Libraries/STM32F4xx_StdPeriph_Driver/src/stm32f4xx_spi.c ****      1. SPI_I2S_DMAReq_Tx: specifies the Tx buffer DMA transfer request
1070:../Libraries/STM32F4xx_StdPeriph_Driver/src/stm32f4xx_spi.c ****      2. SPI_I2S_DMAReq_Rx: specifies the Rx buffer DMA transfer request
1071:../Libraries/STM32F4xx_StdPeriph_Driver/src/stm32f4xx_spi.c **** 
1072:../Libraries/STM32F4xx_StdPeriph_Driver/src/stm32f4xx_spi.c ****   In this Mode it is advised to use the following function:
1073:../Libraries/STM32F4xx_StdPeriph_Driver/src/stm32f4xx_spi.c ****     - void SPI_I2S_DMACmd(SPI_TypeDef* SPIx, uint16_t SPI_I2S_DMAReq, FunctionalState NewState);
1074:../Libraries/STM32F4xx_StdPeriph_Driver/src/stm32f4xx_spi.c **** 
1075:../Libraries/STM32F4xx_StdPeriph_Driver/src/stm32f4xx_spi.c **** @endverbatim
1076:../Libraries/STM32F4xx_StdPeriph_Driver/src/stm32f4xx_spi.c ****   * @{
1077:../Libraries/STM32F4xx_StdPeriph_Driver/src/stm32f4xx_spi.c ****   */
1078:../Libraries/STM32F4xx_StdPeriph_Driver/src/stm32f4xx_spi.c **** 
1079:../Libraries/STM32F4xx_StdPeriph_Driver/src/stm32f4xx_spi.c **** /**
1080:../Libraries/STM32F4xx_StdPeriph_Driver/src/stm32f4xx_spi.c ****   * @brief  Enables or disables the specified SPI/I2S interrupts.
1081:../Libraries/STM32F4xx_StdPeriph_Driver/src/stm32f4xx_spi.c ****   * @param  SPIx: To select the SPIx/I2Sx peripheral, where x can be: 1, 2 or 3 
1082:../Libraries/STM32F4xx_StdPeriph_Driver/src/stm32f4xx_spi.c ****   *         in SPI mode or 2 or 3 in I2S mode or I2Sxext for I2S full duplex mode. 
1083:../Libraries/STM32F4xx_StdPeriph_Driver/src/stm32f4xx_spi.c ****   * @param  SPI_I2S_IT: specifies the SPI interrupt source to be enabled or disabled. 
1084:../Libraries/STM32F4xx_StdPeriph_Driver/src/stm32f4xx_spi.c ****   *          This parameter can be one of the following values:
ARM GAS  C:\Users\admin\AppData\Local\Temp\ccLq5Oux.s 			page 45


1085:../Libraries/STM32F4xx_StdPeriph_Driver/src/stm32f4xx_spi.c ****   *            @arg SPI_I2S_IT_TXE: Tx buffer empty interrupt mask
1086:../Libraries/STM32F4xx_StdPeriph_Driver/src/stm32f4xx_spi.c ****   *            @arg SPI_I2S_IT_RXNE: Rx buffer not empty interrupt mask
1087:../Libraries/STM32F4xx_StdPeriph_Driver/src/stm32f4xx_spi.c ****   *            @arg SPI_I2S_IT_ERR: Error interrupt mask
1088:../Libraries/STM32F4xx_StdPeriph_Driver/src/stm32f4xx_spi.c ****   * @param  NewState: new state of the specified SPI interrupt.
1089:../Libraries/STM32F4xx_StdPeriph_Driver/src/stm32f4xx_spi.c ****   *          This parameter can be: ENABLE or DISABLE.
1090:../Libraries/STM32F4xx_StdPeriph_Driver/src/stm32f4xx_spi.c ****   * @retval None
1091:../Libraries/STM32F4xx_StdPeriph_Driver/src/stm32f4xx_spi.c ****   */
1092:../Libraries/STM32F4xx_StdPeriph_Driver/src/stm32f4xx_spi.c **** void SPI_I2S_ITConfig(SPI_TypeDef* SPIx, uint8_t SPI_I2S_IT, FunctionalState NewState)
1093:../Libraries/STM32F4xx_StdPeriph_Driver/src/stm32f4xx_spi.c **** {
 1348              		.loc 1 1093 1 is_stmt 1 view -0
 1349              		.cfi_startproc
 1350              		@ args = 0, pretend = 0, frame = 0
 1351              		@ frame_needed = 0, uses_anonymous_args = 0
 1352              		@ link register save eliminated.
1094:../Libraries/STM32F4xx_StdPeriph_Driver/src/stm32f4xx_spi.c ****   uint16_t itpos = 0, itmask = 0 ;
 1353              		.loc 1 1094 3 view .LVU336
1095:../Libraries/STM32F4xx_StdPeriph_Driver/src/stm32f4xx_spi.c ****   
1096:../Libraries/STM32F4xx_StdPeriph_Driver/src/stm32f4xx_spi.c ****   /* Check the parameters */
1097:../Libraries/STM32F4xx_StdPeriph_Driver/src/stm32f4xx_spi.c ****   assert_param(IS_SPI_ALL_PERIPH_EXT(SPIx));
 1354              		.loc 1 1097 3 view .LVU337
1098:../Libraries/STM32F4xx_StdPeriph_Driver/src/stm32f4xx_spi.c ****   assert_param(IS_FUNCTIONAL_STATE(NewState));
 1355              		.loc 1 1098 3 view .LVU338
1099:../Libraries/STM32F4xx_StdPeriph_Driver/src/stm32f4xx_spi.c ****   assert_param(IS_SPI_I2S_CONFIG_IT(SPI_I2S_IT));
 1356              		.loc 1 1099 3 view .LVU339
1100:../Libraries/STM32F4xx_StdPeriph_Driver/src/stm32f4xx_spi.c **** 
1101:../Libraries/STM32F4xx_StdPeriph_Driver/src/stm32f4xx_spi.c ****   /* Get the SPI IT index */
1102:../Libraries/STM32F4xx_StdPeriph_Driver/src/stm32f4xx_spi.c ****   itpos = SPI_I2S_IT >> 4;
 1357              		.loc 1 1102 3 view .LVU340
1103:../Libraries/STM32F4xx_StdPeriph_Driver/src/stm32f4xx_spi.c **** 
1104:../Libraries/STM32F4xx_StdPeriph_Driver/src/stm32f4xx_spi.c ****   /* Set the IT mask */
1105:../Libraries/STM32F4xx_StdPeriph_Driver/src/stm32f4xx_spi.c ****   itmask = (uint16_t)1 << (uint16_t)itpos;
 1358              		.loc 1 1105 3 view .LVU341
 1359              	@ ../Libraries/STM32F4xx_StdPeriph_Driver/src/stm32f4xx_spi.c:1105:   itmask = (uint16_t)1 << (uint
 1360              		.loc 1 1105 27 is_stmt 0 view .LVU342
 1361 0000 0909     		lsrs	r1, r1, #4	@ tmp126, tmp140,
 1362              	.LVL68:
 1363              	@ ../Libraries/STM32F4xx_StdPeriph_Driver/src/stm32f4xx_spi.c:1105:   itmask = (uint16_t)1 << (uint
 1364              		.loc 1 1105 24 view .LVU343
 1365 0002 0123     		movs	r3, #1	@ tmp128,
 1366 0004 8B40     		lsls	r3, r3, r1	@ tmp127, tmp128, tmp126
 1367              	@ ../Libraries/STM32F4xx_StdPeriph_Driver/src/stm32f4xx_spi.c:1105:   itmask = (uint16_t)1 << (uint
 1368              		.loc 1 1105 10 view .LVU344
 1369 0006 9BB2     		uxth	r3, r3	@ itmask, tmp127
 1370              	.LVL69:
1106:../Libraries/STM32F4xx_StdPeriph_Driver/src/stm32f4xx_spi.c **** 
1107:../Libraries/STM32F4xx_StdPeriph_Driver/src/stm32f4xx_spi.c ****   if (NewState != DISABLE)
 1371              		.loc 1 1107 3 is_stmt 1 view .LVU345
 1372              	@ ../Libraries/STM32F4xx_StdPeriph_Driver/src/stm32f4xx_spi.c:1107:   if (NewState != DISABLE)
 1373              		.loc 1 1107 6 is_stmt 0 view .LVU346
 1374 0008 22B1     		cbz	r2, .L72	@ tmp141,
1108:../Libraries/STM32F4xx_StdPeriph_Driver/src/stm32f4xx_spi.c ****   {
1109:../Libraries/STM32F4xx_StdPeriph_Driver/src/stm32f4xx_spi.c ****     /* Enable the selected SPI interrupt */
1110:../Libraries/STM32F4xx_StdPeriph_Driver/src/stm32f4xx_spi.c ****     SPIx->CR2 |= itmask;
 1375              		.loc 1 1110 5 is_stmt 1 view .LVU347
 1376              	@ ../Libraries/STM32F4xx_StdPeriph_Driver/src/stm32f4xx_spi.c:1110:     SPIx->CR2 |= itmask;
 1377              		.loc 1 1110 15 is_stmt 0 view .LVU348
 1378 000a 8288     		ldrh	r2, [r0, #4]	@,
ARM GAS  C:\Users\admin\AppData\Local\Temp\ccLq5Oux.s 			page 46


 1379              	.LVL70:
 1380              		.loc 1 1110 15 view .LVU349
 1381 000c 92B2     		uxth	r2, r2	@ _4, SPIx_14(D)->CR2
 1382 000e 1343     		orrs	r3, r3, r2	@, _5, itmask, _4
 1383              	.LVL71:
 1384              		.loc 1 1110 15 view .LVU350
 1385 0010 8380     		strh	r3, [r0, #4]	@ movhi	@ _5,
 1386 0012 7047     		bx	lr	@
 1387              	.LVL72:
 1388              	.L72:
1111:../Libraries/STM32F4xx_StdPeriph_Driver/src/stm32f4xx_spi.c ****   }
1112:../Libraries/STM32F4xx_StdPeriph_Driver/src/stm32f4xx_spi.c ****   else
1113:../Libraries/STM32F4xx_StdPeriph_Driver/src/stm32f4xx_spi.c ****   {
1114:../Libraries/STM32F4xx_StdPeriph_Driver/src/stm32f4xx_spi.c ****     /* Disable the selected SPI interrupt */
1115:../Libraries/STM32F4xx_StdPeriph_Driver/src/stm32f4xx_spi.c ****     SPIx->CR2 &= (uint16_t)~itmask;
 1389              		.loc 1 1115 5 is_stmt 1 view .LVU351
 1390              	@ ../Libraries/STM32F4xx_StdPeriph_Driver/src/stm32f4xx_spi.c:1115:     SPIx->CR2 &= (uint16_t)~itm
 1391              		.loc 1 1115 15 is_stmt 0 view .LVU352
 1392 0014 8288     		ldrh	r2, [r0, #4]	@,
 1393              	.LVL73:
 1394              		.loc 1 1115 15 view .LVU353
 1395 0016 92B2     		uxth	r2, r2	@ _6, SPIx_14(D)->CR2
 1396 0018 22EA0303 		bic	r3, r2, r3	@ _8, _6, itmask
 1397              	.LVL74:
 1398              		.loc 1 1115 15 view .LVU354
 1399 001c 8380     		strh	r3, [r0, #4]	@ movhi	@ _8,
 1400              	@ ../Libraries/STM32F4xx_StdPeriph_Driver/src/stm32f4xx_spi.c:1117: }
1116:../Libraries/STM32F4xx_StdPeriph_Driver/src/stm32f4xx_spi.c ****   }
1117:../Libraries/STM32F4xx_StdPeriph_Driver/src/stm32f4xx_spi.c **** }
 1401              		.loc 1 1117 1 view .LVU355
 1402 001e 7047     		bx	lr	@
 1403              		.cfi_endproc
 1404              	.LFE130:
 1405              		.size	SPI_I2S_ITConfig, .-SPI_I2S_ITConfig
 1406              		.section	.text.SPI_I2S_GetFlagStatus,"ax",%progbits
 1407              		.align	1
 1408              		.p2align 2,,3
 1409              		.global	SPI_I2S_GetFlagStatus
 1410              		.syntax unified
 1411              		.thumb
 1412              		.thumb_func
 1413              		.type	SPI_I2S_GetFlagStatus, %function
 1414              	SPI_I2S_GetFlagStatus:
 1415              	.LVL75:
 1416              	.LFB131:
1118:../Libraries/STM32F4xx_StdPeriph_Driver/src/stm32f4xx_spi.c **** 
1119:../Libraries/STM32F4xx_StdPeriph_Driver/src/stm32f4xx_spi.c **** /**
1120:../Libraries/STM32F4xx_StdPeriph_Driver/src/stm32f4xx_spi.c ****   * @brief  Checks whether the specified SPIx/I2Sx flag is set or not.
1121:../Libraries/STM32F4xx_StdPeriph_Driver/src/stm32f4xx_spi.c ****   * @param  SPIx: To select the SPIx/I2Sx peripheral, where x can be: 1, 2 or 3 
1122:../Libraries/STM32F4xx_StdPeriph_Driver/src/stm32f4xx_spi.c ****   *         in SPI mode or 2 or 3 in I2S mode or I2Sxext for I2S full duplex mode. 
1123:../Libraries/STM32F4xx_StdPeriph_Driver/src/stm32f4xx_spi.c ****   * @param  SPI_I2S_FLAG: specifies the SPI flag to check. 
1124:../Libraries/STM32F4xx_StdPeriph_Driver/src/stm32f4xx_spi.c ****   *          This parameter can be one of the following values:
1125:../Libraries/STM32F4xx_StdPeriph_Driver/src/stm32f4xx_spi.c ****   *            @arg SPI_I2S_FLAG_TXE: Transmit buffer empty flag.
1126:../Libraries/STM32F4xx_StdPeriph_Driver/src/stm32f4xx_spi.c ****   *            @arg SPI_I2S_FLAG_RXNE: Receive buffer not empty flag.
1127:../Libraries/STM32F4xx_StdPeriph_Driver/src/stm32f4xx_spi.c ****   *            @arg SPI_I2S_FLAG_BSY: Busy flag.
1128:../Libraries/STM32F4xx_StdPeriph_Driver/src/stm32f4xx_spi.c ****   *            @arg SPI_I2S_FLAG_OVR: Overrun flag.
1129:../Libraries/STM32F4xx_StdPeriph_Driver/src/stm32f4xx_spi.c ****   *            @arg SPI_FLAG_MODF: Mode Fault flag.
ARM GAS  C:\Users\admin\AppData\Local\Temp\ccLq5Oux.s 			page 47


1130:../Libraries/STM32F4xx_StdPeriph_Driver/src/stm32f4xx_spi.c ****   *            @arg SPI_FLAG_CRCERR: CRC Error flag.
1131:../Libraries/STM32F4xx_StdPeriph_Driver/src/stm32f4xx_spi.c ****   *            @arg SPI_I2S_FLAG_TIFRFE: Format Error.
1132:../Libraries/STM32F4xx_StdPeriph_Driver/src/stm32f4xx_spi.c ****   *            @arg I2S_FLAG_UDR: Underrun Error flag.
1133:../Libraries/STM32F4xx_StdPeriph_Driver/src/stm32f4xx_spi.c ****   *            @arg I2S_FLAG_CHSIDE: Channel Side flag.  
1134:../Libraries/STM32F4xx_StdPeriph_Driver/src/stm32f4xx_spi.c ****   * @retval The new state of SPI_I2S_FLAG (SET or RESET).
1135:../Libraries/STM32F4xx_StdPeriph_Driver/src/stm32f4xx_spi.c ****   */
1136:../Libraries/STM32F4xx_StdPeriph_Driver/src/stm32f4xx_spi.c **** FlagStatus SPI_I2S_GetFlagStatus(SPI_TypeDef* SPIx, uint16_t SPI_I2S_FLAG)
1137:../Libraries/STM32F4xx_StdPeriph_Driver/src/stm32f4xx_spi.c **** {
 1417              		.loc 1 1137 1 is_stmt 1 view -0
 1418              		.cfi_startproc
 1419              		@ args = 0, pretend = 0, frame = 0
 1420              		@ frame_needed = 0, uses_anonymous_args = 0
 1421              		@ link register save eliminated.
1138:../Libraries/STM32F4xx_StdPeriph_Driver/src/stm32f4xx_spi.c ****   FlagStatus bitstatus = RESET;
 1422              		.loc 1 1138 3 view .LVU357
1139:../Libraries/STM32F4xx_StdPeriph_Driver/src/stm32f4xx_spi.c ****   /* Check the parameters */
1140:../Libraries/STM32F4xx_StdPeriph_Driver/src/stm32f4xx_spi.c ****   assert_param(IS_SPI_ALL_PERIPH_EXT(SPIx));
 1423              		.loc 1 1140 3 view .LVU358
1141:../Libraries/STM32F4xx_StdPeriph_Driver/src/stm32f4xx_spi.c ****   assert_param(IS_SPI_I2S_GET_FLAG(SPI_I2S_FLAG));
 1424              		.loc 1 1141 3 view .LVU359
1142:../Libraries/STM32F4xx_StdPeriph_Driver/src/stm32f4xx_spi.c ****   
1143:../Libraries/STM32F4xx_StdPeriph_Driver/src/stm32f4xx_spi.c ****   /* Check the status of the specified SPI flag */
1144:../Libraries/STM32F4xx_StdPeriph_Driver/src/stm32f4xx_spi.c ****   if ((SPIx->SR & SPI_I2S_FLAG) != (uint16_t)RESET)
 1425              		.loc 1 1144 3 view .LVU360
 1426              	@ ../Libraries/STM32F4xx_StdPeriph_Driver/src/stm32f4xx_spi.c:1144:   if ((SPIx->SR & SPI_I2S_FLAG)
 1427              		.loc 1 1144 12 is_stmt 0 view .LVU361
 1428 0000 0389     		ldrh	r3, [r0, #8]	@, SPIx_5(D)->SR
 1429              	.LVL76:
1145:../Libraries/STM32F4xx_StdPeriph_Driver/src/stm32f4xx_spi.c ****   {
1146:../Libraries/STM32F4xx_StdPeriph_Driver/src/stm32f4xx_spi.c ****     /* SPI_I2S_FLAG is set */
1147:../Libraries/STM32F4xx_StdPeriph_Driver/src/stm32f4xx_spi.c ****     bitstatus = SET;
1148:../Libraries/STM32F4xx_StdPeriph_Driver/src/stm32f4xx_spi.c ****   }
1149:../Libraries/STM32F4xx_StdPeriph_Driver/src/stm32f4xx_spi.c ****   else
1150:../Libraries/STM32F4xx_StdPeriph_Driver/src/stm32f4xx_spi.c ****   {
1151:../Libraries/STM32F4xx_StdPeriph_Driver/src/stm32f4xx_spi.c ****     /* SPI_I2S_FLAG is reset */
1152:../Libraries/STM32F4xx_StdPeriph_Driver/src/stm32f4xx_spi.c ****     bitstatus = RESET;
1153:../Libraries/STM32F4xx_StdPeriph_Driver/src/stm32f4xx_spi.c ****   }
1154:../Libraries/STM32F4xx_StdPeriph_Driver/src/stm32f4xx_spi.c ****   /* Return the SPI_I2S_FLAG status */
1155:../Libraries/STM32F4xx_StdPeriph_Driver/src/stm32f4xx_spi.c ****   return  bitstatus;
 1430              		.loc 1 1155 3 is_stmt 1 view .LVU362
 1431              	@ ../Libraries/STM32F4xx_StdPeriph_Driver/src/stm32f4xx_spi.c:1144:   if ((SPIx->SR & SPI_I2S_FLAG)
1144:../Libraries/STM32F4xx_StdPeriph_Driver/src/stm32f4xx_spi.c ****   {
 1432              		.loc 1 1144 6 is_stmt 0 view .LVU363
 1433 0002 1942     		tst	r1, r3	@ tmp127, SPIx_5(D)->SR
 1434              	@ ../Libraries/STM32F4xx_StdPeriph_Driver/src/stm32f4xx_spi.c:1156: }
1156:../Libraries/STM32F4xx_StdPeriph_Driver/src/stm32f4xx_spi.c **** }
 1435              		.loc 1 1156 1 view .LVU364
 1436 0004 14BF     		ite	ne
 1437 0006 0120     		movne	r0, #1	@,
 1438              	.LVL77:
 1439              		.loc 1 1156 1 view .LVU365
 1440 0008 0020     		moveq	r0, #0	@,
 1441 000a 7047     		bx	lr	@
 1442              		.cfi_endproc
 1443              	.LFE131:
 1444              		.size	SPI_I2S_GetFlagStatus, .-SPI_I2S_GetFlagStatus
 1445              		.section	.text.SPI_I2S_ClearFlag,"ax",%progbits
ARM GAS  C:\Users\admin\AppData\Local\Temp\ccLq5Oux.s 			page 48


 1446              		.align	1
 1447              		.p2align 2,,3
 1448              		.global	SPI_I2S_ClearFlag
 1449              		.syntax unified
 1450              		.thumb
 1451              		.thumb_func
 1452              		.type	SPI_I2S_ClearFlag, %function
 1453              	SPI_I2S_ClearFlag:
 1454              	.LVL78:
 1455              	.LFB132:
1157:../Libraries/STM32F4xx_StdPeriph_Driver/src/stm32f4xx_spi.c **** 
1158:../Libraries/STM32F4xx_StdPeriph_Driver/src/stm32f4xx_spi.c **** /**
1159:../Libraries/STM32F4xx_StdPeriph_Driver/src/stm32f4xx_spi.c ****   * @brief  Clears the SPIx CRC Error (CRCERR) flag.
1160:../Libraries/STM32F4xx_StdPeriph_Driver/src/stm32f4xx_spi.c ****   * @param  SPIx: To select the SPIx/I2Sx peripheral, where x can be: 1, 2 or 3 
1161:../Libraries/STM32F4xx_StdPeriph_Driver/src/stm32f4xx_spi.c ****   *         in SPI mode or 2 or 3 in I2S mode or I2Sxext for I2S full duplex mode. 
1162:../Libraries/STM32F4xx_StdPeriph_Driver/src/stm32f4xx_spi.c ****   * @param  SPI_I2S_FLAG: specifies the SPI flag to clear. 
1163:../Libraries/STM32F4xx_StdPeriph_Driver/src/stm32f4xx_spi.c ****   *          This function clears only CRCERR flag.
1164:../Libraries/STM32F4xx_StdPeriph_Driver/src/stm32f4xx_spi.c ****   *            @arg SPI_FLAG_CRCERR: CRC Error flag.  
1165:../Libraries/STM32F4xx_StdPeriph_Driver/src/stm32f4xx_spi.c ****   *  
1166:../Libraries/STM32F4xx_StdPeriph_Driver/src/stm32f4xx_spi.c ****   * @note   OVR (OverRun error) flag is cleared by software sequence: a read 
1167:../Libraries/STM32F4xx_StdPeriph_Driver/src/stm32f4xx_spi.c ****   *          operation to SPI_DR register (SPI_I2S_ReceiveData()) followed by a read 
1168:../Libraries/STM32F4xx_StdPeriph_Driver/src/stm32f4xx_spi.c ****   *          operation to SPI_SR register (SPI_I2S_GetFlagStatus()).
1169:../Libraries/STM32F4xx_StdPeriph_Driver/src/stm32f4xx_spi.c ****   * @note   UDR (UnderRun error) flag is cleared by a read operation to 
1170:../Libraries/STM32F4xx_StdPeriph_Driver/src/stm32f4xx_spi.c ****   *          SPI_SR register (SPI_I2S_GetFlagStatus()).   
1171:../Libraries/STM32F4xx_StdPeriph_Driver/src/stm32f4xx_spi.c ****   * @note   MODF (Mode Fault) flag is cleared by software sequence: a read/write 
1172:../Libraries/STM32F4xx_StdPeriph_Driver/src/stm32f4xx_spi.c ****   *          operation to SPI_SR register (SPI_I2S_GetFlagStatus()) followed by a 
1173:../Libraries/STM32F4xx_StdPeriph_Driver/src/stm32f4xx_spi.c ****   *          write operation to SPI_CR1 register (SPI_Cmd() to enable the SPI).
1174:../Libraries/STM32F4xx_StdPeriph_Driver/src/stm32f4xx_spi.c ****   *  
1175:../Libraries/STM32F4xx_StdPeriph_Driver/src/stm32f4xx_spi.c ****   * @retval None
1176:../Libraries/STM32F4xx_StdPeriph_Driver/src/stm32f4xx_spi.c ****   */
1177:../Libraries/STM32F4xx_StdPeriph_Driver/src/stm32f4xx_spi.c **** void SPI_I2S_ClearFlag(SPI_TypeDef* SPIx, uint16_t SPI_I2S_FLAG)
1178:../Libraries/STM32F4xx_StdPeriph_Driver/src/stm32f4xx_spi.c **** {
 1456              		.loc 1 1178 1 is_stmt 1 view -0
 1457              		.cfi_startproc
 1458              		@ args = 0, pretend = 0, frame = 0
 1459              		@ frame_needed = 0, uses_anonymous_args = 0
 1460              		@ link register save eliminated.
1179:../Libraries/STM32F4xx_StdPeriph_Driver/src/stm32f4xx_spi.c ****   /* Check the parameters */
1180:../Libraries/STM32F4xx_StdPeriph_Driver/src/stm32f4xx_spi.c ****   assert_param(IS_SPI_ALL_PERIPH_EXT(SPIx));
 1461              		.loc 1 1180 3 view .LVU367
1181:../Libraries/STM32F4xx_StdPeriph_Driver/src/stm32f4xx_spi.c ****   assert_param(IS_SPI_I2S_CLEAR_FLAG(SPI_I2S_FLAG));
 1462              		.loc 1 1181 3 view .LVU368
1182:../Libraries/STM32F4xx_StdPeriph_Driver/src/stm32f4xx_spi.c ****     
1183:../Libraries/STM32F4xx_StdPeriph_Driver/src/stm32f4xx_spi.c ****   /* Clear the selected SPI CRC Error (CRCERR) flag */
1184:../Libraries/STM32F4xx_StdPeriph_Driver/src/stm32f4xx_spi.c ****   SPIx->SR = (uint16_t)~SPI_I2S_FLAG;
 1463              		.loc 1 1184 3 view .LVU369
 1464              	@ ../Libraries/STM32F4xx_StdPeriph_Driver/src/stm32f4xx_spi.c:1184:   SPIx->SR = (uint16_t)~SPI_I2S
 1465              		.loc 1 1184 14 is_stmt 0 view .LVU370
 1466 0000 C943     		mvns	r1, r1	@ tmp116, tmp119
 1467              	.LVL79:
 1468              		.loc 1 1184 14 view .LVU371
 1469 0002 89B2     		uxth	r1, r1	@ _1, tmp116
 1470              	@ ../Libraries/STM32F4xx_StdPeriph_Driver/src/stm32f4xx_spi.c:1184:   SPIx->SR = (uint16_t)~SPI_I2S
 1471              		.loc 1 1184 12 view .LVU372
 1472 0004 0181     		strh	r1, [r0, #8]	@ movhi	@ _1, SPIx_4(D)->SR
 1473              	@ ../Libraries/STM32F4xx_StdPeriph_Driver/src/stm32f4xx_spi.c:1185: }
1185:../Libraries/STM32F4xx_StdPeriph_Driver/src/stm32f4xx_spi.c **** }
ARM GAS  C:\Users\admin\AppData\Local\Temp\ccLq5Oux.s 			page 49


 1474              		.loc 1 1185 1 view .LVU373
 1475 0006 7047     		bx	lr	@
 1476              		.cfi_endproc
 1477              	.LFE132:
 1478              		.size	SPI_I2S_ClearFlag, .-SPI_I2S_ClearFlag
 1479              		.section	.text.SPI_I2S_GetITStatus,"ax",%progbits
 1480              		.align	1
 1481              		.p2align 2,,3
 1482              		.global	SPI_I2S_GetITStatus
 1483              		.syntax unified
 1484              		.thumb
 1485              		.thumb_func
 1486              		.type	SPI_I2S_GetITStatus, %function
 1487              	SPI_I2S_GetITStatus:
 1488              	.LVL80:
 1489              	.LFB133:
1186:../Libraries/STM32F4xx_StdPeriph_Driver/src/stm32f4xx_spi.c **** 
1187:../Libraries/STM32F4xx_StdPeriph_Driver/src/stm32f4xx_spi.c **** /**
1188:../Libraries/STM32F4xx_StdPeriph_Driver/src/stm32f4xx_spi.c ****   * @brief  Checks whether the specified SPIx/I2Sx interrupt has occurred or not.
1189:../Libraries/STM32F4xx_StdPeriph_Driver/src/stm32f4xx_spi.c ****   * @param  SPIx: To select the SPIx/I2Sx peripheral, where x can be: 1, 2 or 3 
1190:../Libraries/STM32F4xx_StdPeriph_Driver/src/stm32f4xx_spi.c ****   *         in SPI mode or 2 or 3 in I2S mode or I2Sxext for I2S full duplex mode.  
1191:../Libraries/STM32F4xx_StdPeriph_Driver/src/stm32f4xx_spi.c ****   * @param  SPI_I2S_IT: specifies the SPI interrupt source to check. 
1192:../Libraries/STM32F4xx_StdPeriph_Driver/src/stm32f4xx_spi.c ****   *          This parameter can be one of the following values:
1193:../Libraries/STM32F4xx_StdPeriph_Driver/src/stm32f4xx_spi.c ****   *            @arg SPI_I2S_IT_TXE: Transmit buffer empty interrupt.
1194:../Libraries/STM32F4xx_StdPeriph_Driver/src/stm32f4xx_spi.c ****   *            @arg SPI_I2S_IT_RXNE: Receive buffer not empty interrupt.
1195:../Libraries/STM32F4xx_StdPeriph_Driver/src/stm32f4xx_spi.c ****   *            @arg SPI_I2S_IT_OVR: Overrun interrupt.
1196:../Libraries/STM32F4xx_StdPeriph_Driver/src/stm32f4xx_spi.c ****   *            @arg SPI_IT_MODF: Mode Fault interrupt.
1197:../Libraries/STM32F4xx_StdPeriph_Driver/src/stm32f4xx_spi.c ****   *            @arg SPI_IT_CRCERR: CRC Error interrupt.
1198:../Libraries/STM32F4xx_StdPeriph_Driver/src/stm32f4xx_spi.c ****   *            @arg I2S_IT_UDR: Underrun interrupt.  
1199:../Libraries/STM32F4xx_StdPeriph_Driver/src/stm32f4xx_spi.c ****   *            @arg SPI_I2S_IT_TIFRFE: Format Error interrupt.  
1200:../Libraries/STM32F4xx_StdPeriph_Driver/src/stm32f4xx_spi.c ****   * @retval The new state of SPI_I2S_IT (SET or RESET).
1201:../Libraries/STM32F4xx_StdPeriph_Driver/src/stm32f4xx_spi.c ****   */
1202:../Libraries/STM32F4xx_StdPeriph_Driver/src/stm32f4xx_spi.c **** ITStatus SPI_I2S_GetITStatus(SPI_TypeDef* SPIx, uint8_t SPI_I2S_IT)
1203:../Libraries/STM32F4xx_StdPeriph_Driver/src/stm32f4xx_spi.c **** {
 1490              		.loc 1 1203 1 is_stmt 1 view -0
 1491              		.cfi_startproc
 1492              		@ args = 0, pretend = 0, frame = 0
 1493              		@ frame_needed = 0, uses_anonymous_args = 0
 1494              		@ link register save eliminated.
1204:../Libraries/STM32F4xx_StdPeriph_Driver/src/stm32f4xx_spi.c ****   ITStatus bitstatus = RESET;
 1495              		.loc 1 1204 3 view .LVU375
1205:../Libraries/STM32F4xx_StdPeriph_Driver/src/stm32f4xx_spi.c ****   uint16_t itpos = 0, itmask = 0, enablestatus = 0;
 1496              		.loc 1 1205 3 view .LVU376
1206:../Libraries/STM32F4xx_StdPeriph_Driver/src/stm32f4xx_spi.c **** 
1207:../Libraries/STM32F4xx_StdPeriph_Driver/src/stm32f4xx_spi.c ****   /* Check the parameters */
1208:../Libraries/STM32F4xx_StdPeriph_Driver/src/stm32f4xx_spi.c ****   assert_param(IS_SPI_ALL_PERIPH_EXT(SPIx));
 1497              		.loc 1 1208 3 view .LVU377
1209:../Libraries/STM32F4xx_StdPeriph_Driver/src/stm32f4xx_spi.c ****   assert_param(IS_SPI_I2S_GET_IT(SPI_I2S_IT));
 1498              		.loc 1 1209 3 view .LVU378
1210:../Libraries/STM32F4xx_StdPeriph_Driver/src/stm32f4xx_spi.c **** 
1211:../Libraries/STM32F4xx_StdPeriph_Driver/src/stm32f4xx_spi.c ****   /* Get the SPI_I2S_IT index */
1212:../Libraries/STM32F4xx_StdPeriph_Driver/src/stm32f4xx_spi.c ****   itpos = 0x01 << (SPI_I2S_IT & 0x0F);
 1499              		.loc 1 1212 3 view .LVU379
 1500              	@ ../Libraries/STM32F4xx_StdPeriph_Driver/src/stm32f4xx_spi.c:1221:   enablestatus = (SPIx->CR2 & i
1213:../Libraries/STM32F4xx_StdPeriph_Driver/src/stm32f4xx_spi.c **** 
1214:../Libraries/STM32F4xx_StdPeriph_Driver/src/stm32f4xx_spi.c ****   /* Get the SPI_I2S_IT IT mask */
1215:../Libraries/STM32F4xx_StdPeriph_Driver/src/stm32f4xx_spi.c ****   itmask = SPI_I2S_IT >> 4;
ARM GAS  C:\Users\admin\AppData\Local\Temp\ccLq5Oux.s 			page 50


1216:../Libraries/STM32F4xx_StdPeriph_Driver/src/stm32f4xx_spi.c **** 
1217:../Libraries/STM32F4xx_StdPeriph_Driver/src/stm32f4xx_spi.c ****   /* Set the IT mask */
1218:../Libraries/STM32F4xx_StdPeriph_Driver/src/stm32f4xx_spi.c ****   itmask = 0x01 << itmask;
1219:../Libraries/STM32F4xx_StdPeriph_Driver/src/stm32f4xx_spi.c **** 
1220:../Libraries/STM32F4xx_StdPeriph_Driver/src/stm32f4xx_spi.c ****   /* Get the SPI_I2S_IT enable bit status */
1221:../Libraries/STM32F4xx_StdPeriph_Driver/src/stm32f4xx_spi.c ****   enablestatus = (SPIx->CR2 & itmask) ;
 1501              		.loc 1 1221 23 is_stmt 0 view .LVU380
 1502 0000 B0F804C0 		ldrh	ip, [r0, #4]	@, SPIx_15(D)->CR2
 1503              	.LVL81:
1215:../Libraries/STM32F4xx_StdPeriph_Driver/src/stm32f4xx_spi.c **** 
 1504              		.loc 1 1215 3 is_stmt 1 view .LVU381
1218:../Libraries/STM32F4xx_StdPeriph_Driver/src/stm32f4xx_spi.c **** 
 1505              		.loc 1 1218 3 view .LVU382
 1506              		.loc 1 1221 3 view .LVU383
 1507              	@ ../Libraries/STM32F4xx_StdPeriph_Driver/src/stm32f4xx_spi.c:1224:   if (((SPIx->SR & itpos) != (u
1222:../Libraries/STM32F4xx_StdPeriph_Driver/src/stm32f4xx_spi.c **** 
1223:../Libraries/STM32F4xx_StdPeriph_Driver/src/stm32f4xx_spi.c ****   /* Check the status of the specified SPI interrupt */
1224:../Libraries/STM32F4xx_StdPeriph_Driver/src/stm32f4xx_spi.c ****   if (((SPIx->SR & itpos) != (uint16_t)RESET) && enablestatus)
 1508              		.loc 1 1224 13 is_stmt 0 view .LVU384
 1509 0004 0089     		ldrh	r0, [r0, #8]	@, SPIx_15(D)->SR
 1510              	.LVL82:
 1511              	@ ../Libraries/STM32F4xx_StdPeriph_Driver/src/stm32f4xx_spi.c:1212:   itpos = 0x01 << (SPI_I2S_IT &
1212:../Libraries/STM32F4xx_StdPeriph_Driver/src/stm32f4xx_spi.c **** 
 1512              		.loc 1 1212 31 view .LVU385
 1513 0006 01F00F03 		and	r3, r1, #15	@ tmp134, SPI_I2S_IT,
 1514              	@ ../Libraries/STM32F4xx_StdPeriph_Driver/src/stm32f4xx_spi.c:1212:   itpos = 0x01 << (SPI_I2S_IT &
1212:../Libraries/STM32F4xx_StdPeriph_Driver/src/stm32f4xx_spi.c **** 
 1515              		.loc 1 1212 16 view .LVU386
 1516 000a 0122     		movs	r2, #1	@ tmp136,
 1517              	@ ../Libraries/STM32F4xx_StdPeriph_Driver/src/stm32f4xx_spi.c:1224:   if (((SPIx->SR & itpos) != (u
 1518              		.loc 1 1224 13 view .LVU387
 1519 000c 80B2     		uxth	r0, r0	@ _7, SPIx_15(D)->SR
 1520              	@ ../Libraries/STM32F4xx_StdPeriph_Driver/src/stm32f4xx_spi.c:1212:   itpos = 0x01 << (SPI_I2S_IT &
1212:../Libraries/STM32F4xx_StdPeriph_Driver/src/stm32f4xx_spi.c **** 
 1521              		.loc 1 1212 16 view .LVU388
 1522 000e 02FA03F3 		lsl	r3, r2, r3	@ tmp135, tmp136, tmp134
 1523              	@ ../Libraries/STM32F4xx_StdPeriph_Driver/src/stm32f4xx_spi.c:1224:   if (((SPIx->SR & itpos) != (u
 1524              		.loc 1 1224 6 view .LVU389
 1525 0012 1840     		ands	r0, r0, r3	@ tmp140, _7, tmp135
 1526              	@ ../Libraries/STM32F4xx_StdPeriph_Driver/src/stm32f4xx_spi.c:1221:   enablestatus = (SPIx->CR2 & i
1221:../Libraries/STM32F4xx_StdPeriph_Driver/src/stm32f4xx_spi.c **** 
 1527              		.loc 1 1221 23 view .LVU390
 1528 0014 1FFA8CFC 		uxth	ip, ip	@ _6, SPIx_15(D)->CR2
 1529              	.LVL83:
 1530              		.loc 1 1224 3 is_stmt 1 view .LVU391
 1531              	@ ../Libraries/STM32F4xx_StdPeriph_Driver/src/stm32f4xx_spi.c:1224:   if (((SPIx->SR & itpos) != (u
 1532              		.loc 1 1224 6 is_stmt 0 view .LVU392
 1533 0018 07D0     		beq	.L77		@,
 1534              	@ ../Libraries/STM32F4xx_StdPeriph_Driver/src/stm32f4xx_spi.c:1218:   itmask = 0x01 << itmask;
1218:../Libraries/STM32F4xx_StdPeriph_Driver/src/stm32f4xx_spi.c **** 
 1535              		.loc 1 1218 17 discriminator 1 view .LVU393
 1536 001a 0909     		lsrs	r1, r1, #4	@ tmp142, SPI_I2S_IT,
 1537              	.LVL84:
1218:../Libraries/STM32F4xx_StdPeriph_Driver/src/stm32f4xx_spi.c **** 
 1538              		.loc 1 1218 17 discriminator 1 view .LVU394
 1539 001c 02FA01F1 		lsl	r1, r2, r1	@ tmp143, tmp136, tmp142
 1540              	@ ../Libraries/STM32F4xx_StdPeriph_Driver/src/stm32f4xx_spi.c:1224:   if (((SPIx->SR & itpos) != (u
ARM GAS  C:\Users\admin\AppData\Local\Temp\ccLq5Oux.s 			page 51


 1541              		.loc 1 1224 47 discriminator 1 view .LVU395
 1542 0020 1CEA010F 		tst	ip, r1	@ _6, tmp143
 1543              	@ ../Libraries/STM32F4xx_StdPeriph_Driver/src/stm32f4xx_spi.c:1232:     bitstatus = RESET;
1225:../Libraries/STM32F4xx_StdPeriph_Driver/src/stm32f4xx_spi.c ****   {
1226:../Libraries/STM32F4xx_StdPeriph_Driver/src/stm32f4xx_spi.c ****     /* SPI_I2S_IT is set */
1227:../Libraries/STM32F4xx_StdPeriph_Driver/src/stm32f4xx_spi.c ****     bitstatus = SET;
1228:../Libraries/STM32F4xx_StdPeriph_Driver/src/stm32f4xx_spi.c ****   }
1229:../Libraries/STM32F4xx_StdPeriph_Driver/src/stm32f4xx_spi.c ****   else
1230:../Libraries/STM32F4xx_StdPeriph_Driver/src/stm32f4xx_spi.c ****   {
1231:../Libraries/STM32F4xx_StdPeriph_Driver/src/stm32f4xx_spi.c ****     /* SPI_I2S_IT is reset */
1232:../Libraries/STM32F4xx_StdPeriph_Driver/src/stm32f4xx_spi.c ****     bitstatus = RESET;
 1544              		.loc 1 1232 15 discriminator 1 view .LVU396
 1545 0024 14BF     		ite	ne
 1546 0026 1046     		movne	r0, r2	@ <retval>,
 1547 0028 0020     		moveq	r0, #0	@ <retval>,
 1548              	.L77:
 1549              	.LVL85:
1233:../Libraries/STM32F4xx_StdPeriph_Driver/src/stm32f4xx_spi.c ****   }
1234:../Libraries/STM32F4xx_StdPeriph_Driver/src/stm32f4xx_spi.c ****   /* Return the SPI_I2S_IT status */
1235:../Libraries/STM32F4xx_StdPeriph_Driver/src/stm32f4xx_spi.c ****   return bitstatus;
 1550              		.loc 1 1235 3 is_stmt 1 view .LVU397
 1551              	@ ../Libraries/STM32F4xx_StdPeriph_Driver/src/stm32f4xx_spi.c:1236: }
1236:../Libraries/STM32F4xx_StdPeriph_Driver/src/stm32f4xx_spi.c **** }
 1552              		.loc 1 1236 1 is_stmt 0 view .LVU398
 1553 002a 7047     		bx	lr	@
 1554              		.cfi_endproc
 1555              	.LFE133:
 1556              		.size	SPI_I2S_GetITStatus, .-SPI_I2S_GetITStatus
 1557              		.section	.text.SPI_I2S_ClearITPendingBit,"ax",%progbits
 1558              		.align	1
 1559              		.p2align 2,,3
 1560              		.global	SPI_I2S_ClearITPendingBit
 1561              		.syntax unified
 1562              		.thumb
 1563              		.thumb_func
 1564              		.type	SPI_I2S_ClearITPendingBit, %function
 1565              	SPI_I2S_ClearITPendingBit:
 1566              	.LVL86:
 1567              	.LFB134:
1237:../Libraries/STM32F4xx_StdPeriph_Driver/src/stm32f4xx_spi.c **** 
1238:../Libraries/STM32F4xx_StdPeriph_Driver/src/stm32f4xx_spi.c **** /**
1239:../Libraries/STM32F4xx_StdPeriph_Driver/src/stm32f4xx_spi.c ****   * @brief  Clears the SPIx CRC Error (CRCERR) interrupt pending bit.
1240:../Libraries/STM32F4xx_StdPeriph_Driver/src/stm32f4xx_spi.c ****   * @param  SPIx: To select the SPIx/I2Sx peripheral, where x can be: 1, 2 or 3 
1241:../Libraries/STM32F4xx_StdPeriph_Driver/src/stm32f4xx_spi.c ****   *         in SPI mode or 2 or 3 in I2S mode or I2Sxext for I2S full duplex mode.  
1242:../Libraries/STM32F4xx_StdPeriph_Driver/src/stm32f4xx_spi.c ****   * @param  SPI_I2S_IT: specifies the SPI interrupt pending bit to clear.
1243:../Libraries/STM32F4xx_StdPeriph_Driver/src/stm32f4xx_spi.c ****   *         This function clears only CRCERR interrupt pending bit.   
1244:../Libraries/STM32F4xx_StdPeriph_Driver/src/stm32f4xx_spi.c ****   *            @arg SPI_IT_CRCERR: CRC Error interrupt.
1245:../Libraries/STM32F4xx_StdPeriph_Driver/src/stm32f4xx_spi.c ****   *   
1246:../Libraries/STM32F4xx_StdPeriph_Driver/src/stm32f4xx_spi.c ****   * @note   OVR (OverRun Error) interrupt pending bit is cleared by software 
1247:../Libraries/STM32F4xx_StdPeriph_Driver/src/stm32f4xx_spi.c ****   *          sequence: a read operation to SPI_DR register (SPI_I2S_ReceiveData()) 
1248:../Libraries/STM32F4xx_StdPeriph_Driver/src/stm32f4xx_spi.c ****   *          followed by a read operation to SPI_SR register (SPI_I2S_GetITStatus()).
1249:../Libraries/STM32F4xx_StdPeriph_Driver/src/stm32f4xx_spi.c ****   * @note   UDR (UnderRun Error) interrupt pending bit is cleared by a read 
1250:../Libraries/STM32F4xx_StdPeriph_Driver/src/stm32f4xx_spi.c ****   *          operation to SPI_SR register (SPI_I2S_GetITStatus()).   
1251:../Libraries/STM32F4xx_StdPeriph_Driver/src/stm32f4xx_spi.c ****   * @note   MODF (Mode Fault) interrupt pending bit is cleared by software sequence:
1252:../Libraries/STM32F4xx_StdPeriph_Driver/src/stm32f4xx_spi.c ****   *          a read/write operation to SPI_SR register (SPI_I2S_GetITStatus()) 
1253:../Libraries/STM32F4xx_StdPeriph_Driver/src/stm32f4xx_spi.c ****   *          followed by a write operation to SPI_CR1 register (SPI_Cmd() to enable 
1254:../Libraries/STM32F4xx_StdPeriph_Driver/src/stm32f4xx_spi.c ****   *          the SPI).
ARM GAS  C:\Users\admin\AppData\Local\Temp\ccLq5Oux.s 			page 52


1255:../Libraries/STM32F4xx_StdPeriph_Driver/src/stm32f4xx_spi.c ****   * @retval None
1256:../Libraries/STM32F4xx_StdPeriph_Driver/src/stm32f4xx_spi.c ****   */
1257:../Libraries/STM32F4xx_StdPeriph_Driver/src/stm32f4xx_spi.c **** void SPI_I2S_ClearITPendingBit(SPI_TypeDef* SPIx, uint8_t SPI_I2S_IT)
1258:../Libraries/STM32F4xx_StdPeriph_Driver/src/stm32f4xx_spi.c **** {
 1568              		.loc 1 1258 1 is_stmt 1 view -0
 1569              		.cfi_startproc
 1570              		@ args = 0, pretend = 0, frame = 0
 1571              		@ frame_needed = 0, uses_anonymous_args = 0
 1572              		@ link register save eliminated.
1259:../Libraries/STM32F4xx_StdPeriph_Driver/src/stm32f4xx_spi.c ****   uint16_t itpos = 0;
 1573              		.loc 1 1259 3 view .LVU400
1260:../Libraries/STM32F4xx_StdPeriph_Driver/src/stm32f4xx_spi.c ****   /* Check the parameters */
1261:../Libraries/STM32F4xx_StdPeriph_Driver/src/stm32f4xx_spi.c ****   assert_param(IS_SPI_ALL_PERIPH_EXT(SPIx));
 1574              		.loc 1 1261 3 view .LVU401
1262:../Libraries/STM32F4xx_StdPeriph_Driver/src/stm32f4xx_spi.c ****   assert_param(IS_SPI_I2S_CLEAR_IT(SPI_I2S_IT));
 1575              		.loc 1 1262 3 view .LVU402
1263:../Libraries/STM32F4xx_StdPeriph_Driver/src/stm32f4xx_spi.c **** 
1264:../Libraries/STM32F4xx_StdPeriph_Driver/src/stm32f4xx_spi.c ****   /* Get the SPI_I2S IT index */
1265:../Libraries/STM32F4xx_StdPeriph_Driver/src/stm32f4xx_spi.c ****   itpos = 0x01 << (SPI_I2S_IT & 0x0F);
 1576              		.loc 1 1265 3 view .LVU403
1266:../Libraries/STM32F4xx_StdPeriph_Driver/src/stm32f4xx_spi.c **** 
1267:../Libraries/STM32F4xx_StdPeriph_Driver/src/stm32f4xx_spi.c ****   /* Clear the selected SPI CRC Error (CRCERR) interrupt pending bit */
1268:../Libraries/STM32F4xx_StdPeriph_Driver/src/stm32f4xx_spi.c ****   SPIx->SR = (uint16_t)~itpos;
 1577              		.loc 1 1268 3 view .LVU404
 1578              	@ ../Libraries/STM32F4xx_StdPeriph_Driver/src/stm32f4xx_spi.c:1265:   itpos = 0x01 << (SPI_I2S_IT &
1265:../Libraries/STM32F4xx_StdPeriph_Driver/src/stm32f4xx_spi.c **** 
 1579              		.loc 1 1265 31 is_stmt 0 view .LVU405
 1580 0000 01F00F01 		and	r1, r1, #15	@ tmp121, tmp128,
 1581              	.LVL87:
 1582              	@ ../Libraries/STM32F4xx_StdPeriph_Driver/src/stm32f4xx_spi.c:1265:   itpos = 0x01 << (SPI_I2S_IT &
1265:../Libraries/STM32F4xx_StdPeriph_Driver/src/stm32f4xx_spi.c **** 
 1583              		.loc 1 1265 16 view .LVU406
 1584 0004 0123     		movs	r3, #1	@ tmp123,
 1585 0006 8B40     		lsls	r3, r3, r1	@ tmp122, tmp123, tmp121
 1586              	@ ../Libraries/STM32F4xx_StdPeriph_Driver/src/stm32f4xx_spi.c:1268:   SPIx->SR = (uint16_t)~itpos;
 1587              		.loc 1 1268 14 view .LVU407
 1588 0008 DB43     		mvns	r3, r3	@ tmp125, tmp122
 1589 000a 9BB2     		uxth	r3, r3	@ _3, tmp125
 1590              	@ ../Libraries/STM32F4xx_StdPeriph_Driver/src/stm32f4xx_spi.c:1268:   SPIx->SR = (uint16_t)~itpos;
 1591              		.loc 1 1268 12 view .LVU408
 1592 000c 0381     		strh	r3, [r0, #8]	@ movhi	@ _3, SPIx_8(D)->SR
 1593              	@ ../Libraries/STM32F4xx_StdPeriph_Driver/src/stm32f4xx_spi.c:1269: }
1269:../Libraries/STM32F4xx_StdPeriph_Driver/src/stm32f4xx_spi.c **** }
 1594              		.loc 1 1269 1 view .LVU409
 1595 000e 7047     		bx	lr	@
 1596              		.cfi_endproc
 1597              	.LFE134:
 1598              		.size	SPI_I2S_ClearITPendingBit, .-SPI_I2S_ClearITPendingBit
 1599              		.text
 1600              	.Letext0:
 1601              		.file 2 "c:\\program files (x86)\\gnu arm embedded toolchain\\10 2021.10\\arm-none-eabi\\include\\
 1602              		.file 3 "c:\\program files (x86)\\gnu arm embedded toolchain\\10 2021.10\\arm-none-eabi\\include\\
 1603              		.file 4 "../Libraries/CMSIS/ST/STM32F4xx/Include/stm32f4xx.h"
 1604              		.file 5 "../Libraries/STM32F4xx_StdPeriph_Driver/inc/stm32f4xx_spi.h"
 1605              		.file 6 "../Libraries/STM32F4xx_StdPeriph_Driver/inc/stm32f4xx_rcc.h"