ARM GAS  C:\Users\admin\AppData\Local\Temp\ccNMST8T.s 			page 1


   1              		.cpu cortex-m4
   2              		.arch armv7e-m
   3              		.fpu fpv4-sp-d16
   4              		.eabi_attribute 27, 1	@ Tag_ABI_HardFP_use
   5              		.eabi_attribute 28, 1	@ Tag_ABI_VFP_args
   6              		.eabi_attribute 23, 1	@ Tag_ABI_FP_number_model
   7              		.eabi_attribute 24, 1	@ Tag_ABI_align8_needed
   8              		.eabi_attribute 25, 1	@ Tag_ABI_align8_preserved
   9              		.eabi_attribute 26, 1	@ Tag_ABI_enum_size
  10              		.eabi_attribute 30, 2	@ Tag_ABI_optimization_goals
  11              		.eabi_attribute 34, 1	@ Tag_CPU_unaligned_access
  12              		.eabi_attribute 18, 4	@ Tag_ABI_PCS_wchar_t
  13              		.file	"stm32f4xx_dac.c"
  14              	@ GNU C89 (GNU Arm Embedded Toolchain 10.3-2021.10) version 10.3.1 20210824 (release) (arm-none-eab
  15              	@	compiled by GNU C version 7.3-win32 20180312, GMP version 6.1.0, MPFR version 3.1.4, MPC version 
  16              	
  17              	@ GGC heuristics: --param ggc-min-expand=100 --param ggc-min-heapsize=131072
  18              	@ options passed:  -I . -I . -I ../Utilities/STM32F4-Discovery/
  19              	@ -I ../Libraries/STM32_USB_Device_Library/Class/audio/inc/
  20              	@ -I ../Libraries/STM32_USB_Device_Library/Core/inc/
  21              	@ -I ../Libraries/STM32_USB_OTG_Driver/inc/
  22              	@ -I ../Utilities/STM32F4-Discovery/
  23              	@ -I ../Libraries/STM32F4xx_StdPeriph_Driver/inc/
  24              	@ -I ../Utilities/STM32F4-Discovery/
  25              	@ -I ../Libraries/CMSIS/ST/STM32F4xx/Include/
  26              	@ -I ../Libraries/CMSIS/Include/ -imultilib thumb/v7e-m+fp/hard
  27              	@ -iprefix c:\program files (x86)\gnu arm embedded toolchain\10 2021.10\bin\../lib/gcc/arm-none-eab
  28              	@ -isysroot c:\program files (x86)\gnu arm embedded toolchain\10 2021.10\bin\../arm-none-eabi
  29              	@ -MD out/stm32f4xx_dac.d -MF out/stm32f4xx_dac.d -MP
  30              	@ -MQ out/stm32f4xx_dac.o -D__USES_INITFINI__ -D STM32F4XX -D __VFP_FP__
  31              	@ -D USE_USB_OTG_FS
  32              	@ ../Libraries/STM32F4xx_StdPeriph_Driver/src/stm32f4xx_dac.c
  33              	@ -mcpu=cortex-m4 -mthumb -mfloat-abi=hard -mfpu=fpv4-sp-d16
  34              	@ -mlibarch=armv7e-m+fp -march=armv7e-m+fp
  35              	@ -auxbase-strip out/stm32f4xx_dac.o -g -ggdb3 -O3 -Wall
  36              	@ -Wstrict-prototypes -Wextra -std=gnu90 -ffast-math -ffunction-sections
  37              	@ -fdata-sections -fverbose-asm
  38              	@ options enabled:  -faggressive-loop-optimizations -falign-functions
  39              	@ -falign-jumps -falign-labels -falign-loops -fallocation-dce
  40              	@ -fassociative-math -fauto-inc-dec -fbranch-count-reg -fcaller-saves
  41              	@ -fcombine-stack-adjustments -fcompare-elim -fcprop-registers
  42              	@ -fcrossjumping -fcse-follow-jumps -fcx-limited-range -fdata-sections
  43              	@ -fdefer-pop -fdelete-null-pointer-checks -fdevirtualize
  44              	@ -fdevirtualize-speculatively -fdwarf2-cfi-asm -fearly-inlining
  45              	@ -feliminate-unused-debug-symbols -feliminate-unused-debug-types
  46              	@ -fexpensive-optimizations -ffinite-math-only -fforward-propagate
  47              	@ -ffp-int-builtin-inexact -ffunction-cse -ffunction-sections -fgcse
  48              	@ -fgcse-after-reload -fgcse-lm -fgnu-unique -fguess-branch-probability
  49              	@ -fhoist-adjacent-loads -fident -fif-conversion -fif-conversion2
  50              	@ -findirect-inlining -finline -finline-atomics -finline-functions
  51              	@ -finline-functions-called-once -finline-small-functions -fipa-bit-cp
  52              	@ -fipa-cp -fipa-cp-clone -fipa-icf -fipa-icf-functions -fipa-icf-variables
  53              	@ -fipa-profile -fipa-pure-const -fipa-ra -fipa-reference
  54              	@ -fipa-reference-addressable -fipa-sra -fipa-stack-alignment -fipa-vrp
  55              	@ -fira-hoist-pressure -fira-share-save-slots -fira-share-spill-slots
  56              	@ -fisolate-erroneous-paths-dereference -fivopts -fkeep-static-consts
  57              	@ -fleading-underscore -flifetime-dse -floop-interchange
ARM GAS  C:\Users\admin\AppData\Local\Temp\ccNMST8T.s 			page 2


  58              	@ -floop-unroll-and-jam -flra-remat -fmerge-constants -fmerge-debug-strings
  59              	@ -fmove-loop-invariants -fomit-frame-pointer -foptimize-sibling-calls
  60              	@ -foptimize-strlen -fpartial-inlining -fpeel-loops -fpeephole -fpeephole2
  61              	@ -fplt -fpredictive-commoning -fprefetch-loop-arrays -freciprocal-math
  62              	@ -freg-struct-return -freorder-blocks -freorder-functions
  63              	@ -frerun-cse-after-loop -fsched-critical-path-heuristic
  64              	@ -fsched-dep-count-heuristic -fsched-group-heuristic -fsched-interblock
  65              	@ -fsched-last-insn-heuristic -fsched-pressure -fsched-rank-heuristic
  66              	@ -fsched-spec -fsched-spec-insn-heuristic -fsched-stalled-insns-dep
  67              	@ -fschedule-insns -fschedule-insns2 -fsection-anchors
  68              	@ -fsemantic-interposition -fshow-column -fshrink-wrap
  69              	@ -fshrink-wrap-separate -fsplit-ivs-in-unroller -fsplit-loops
  70              	@ -fsplit-paths -fsplit-wide-types -fssa-backprop -fssa-phiopt -fstdarg-opt
  71              	@ -fstore-merging -fstrict-aliasing -fstrict-volatile-bitfields
  72              	@ -fsync-libcalls -fthread-jumps -ftoplevel-reorder -ftree-bit-ccp
  73              	@ -ftree-builtin-call-dce -ftree-ccp -ftree-ch -ftree-coalesce-vars
  74              	@ -ftree-copy-prop -ftree-cselim -ftree-dce -ftree-dominator-opts
  75              	@ -ftree-dse -ftree-forwprop -ftree-fre -ftree-loop-distribute-patterns
  76              	@ -ftree-loop-distribution -ftree-loop-if-convert -ftree-loop-im
  77              	@ -ftree-loop-ivcanon -ftree-loop-optimize -ftree-loop-vectorize
  78              	@ -ftree-parallelize-loops= -ftree-partial-pre -ftree-phiprop -ftree-pre
  79              	@ -ftree-pta -ftree-reassoc -ftree-scev-cprop -ftree-sink
  80              	@ -ftree-slp-vectorize -ftree-slsr -ftree-sra -ftree-switch-conversion
  81              	@ -ftree-tail-merge -ftree-ter -ftree-vrp -funit-at-a-time
  82              	@ -funsafe-math-optimizations -funswitch-loops -fvar-tracking
  83              	@ -fvar-tracking-assignments -fverbose-asm -fversion-loops-for-strides
  84              	@ -fzero-initialized-in-bss -masm-syntax-unified -mbe32 -mlittle-endian
  85              	@ -mpic-data-is-text-relative -msched-prolog -mthumb -munaligned-access
  86              	@ -mvectorize-with-neon-quad
  87              	
  88              		.text
  89              	.Ltext0:
  90              		.cfi_sections	.debug_frame
  91              		.section	.text.DAC_DeInit,"ax",%progbits
  92              		.align	1
  93              		.p2align 2,,3
  94              		.global	DAC_DeInit
  95              		.syntax unified
  96              		.thumb
  97              		.thumb_func
  98              		.type	DAC_DeInit, %function
  99              	DAC_DeInit:
 100              	.LFB110:
 101              		.file 1 "../Libraries/STM32F4xx_StdPeriph_Driver/src/stm32f4xx_dac.c"
   1:../Libraries/STM32F4xx_StdPeriph_Driver/src/stm32f4xx_dac.c **** /**
   2:../Libraries/STM32F4xx_StdPeriph_Driver/src/stm32f4xx_dac.c ****   ******************************************************************************
   3:../Libraries/STM32F4xx_StdPeriph_Driver/src/stm32f4xx_dac.c ****   * @file    stm32f4xx_dac.c
   4:../Libraries/STM32F4xx_StdPeriph_Driver/src/stm32f4xx_dac.c ****   * @author  MCD Application Team
   5:../Libraries/STM32F4xx_StdPeriph_Driver/src/stm32f4xx_dac.c ****   * @version V1.0.0
   6:../Libraries/STM32F4xx_StdPeriph_Driver/src/stm32f4xx_dac.c ****   * @date    30-September-2011
   7:../Libraries/STM32F4xx_StdPeriph_Driver/src/stm32f4xx_dac.c ****    * @brief   This file provides firmware functions to manage the following 
   8:../Libraries/STM32F4xx_StdPeriph_Driver/src/stm32f4xx_dac.c ****   *          functionalities of the Digital-to-Analog Converter (DAC) peripheral: 
   9:../Libraries/STM32F4xx_StdPeriph_Driver/src/stm32f4xx_dac.c ****   *           - DAC channels configuration: trigger, output buffer, data format
  10:../Libraries/STM32F4xx_StdPeriph_Driver/src/stm32f4xx_dac.c ****   *           - DMA management      
  11:../Libraries/STM32F4xx_StdPeriph_Driver/src/stm32f4xx_dac.c ****   *           - Interrupts and flags management
  12:../Libraries/STM32F4xx_StdPeriph_Driver/src/stm32f4xx_dac.c ****   *
  13:../Libraries/STM32F4xx_StdPeriph_Driver/src/stm32f4xx_dac.c ****   *  @verbatim
ARM GAS  C:\Users\admin\AppData\Local\Temp\ccNMST8T.s 			page 3


  14:../Libraries/STM32F4xx_StdPeriph_Driver/src/stm32f4xx_dac.c ****   *    
  15:../Libraries/STM32F4xx_StdPeriph_Driver/src/stm32f4xx_dac.c ****   *          ===================================================================
  16:../Libraries/STM32F4xx_StdPeriph_Driver/src/stm32f4xx_dac.c ****   *                             DAC Peripheral features
  17:../Libraries/STM32F4xx_StdPeriph_Driver/src/stm32f4xx_dac.c ****   *          ===================================================================
  18:../Libraries/STM32F4xx_StdPeriph_Driver/src/stm32f4xx_dac.c ****   *          
  19:../Libraries/STM32F4xx_StdPeriph_Driver/src/stm32f4xx_dac.c ****   *          DAC Channels
  20:../Libraries/STM32F4xx_StdPeriph_Driver/src/stm32f4xx_dac.c ****   *          =============  
  21:../Libraries/STM32F4xx_StdPeriph_Driver/src/stm32f4xx_dac.c ****   *          The device integrates two 12-bit Digital Analog Converters that can 
  22:../Libraries/STM32F4xx_StdPeriph_Driver/src/stm32f4xx_dac.c ****   *          be used independently or simultaneously (dual mode):
  23:../Libraries/STM32F4xx_StdPeriph_Driver/src/stm32f4xx_dac.c ****   *            1- DAC channel1 with DAC_OUT1 (PA4) as output
  24:../Libraries/STM32F4xx_StdPeriph_Driver/src/stm32f4xx_dac.c ****   *            1- DAC channel2 with DAC_OUT2 (PA5) as output
  25:../Libraries/STM32F4xx_StdPeriph_Driver/src/stm32f4xx_dac.c ****   *
  26:../Libraries/STM32F4xx_StdPeriph_Driver/src/stm32f4xx_dac.c ****   *          DAC Triggers
  27:../Libraries/STM32F4xx_StdPeriph_Driver/src/stm32f4xx_dac.c ****   *          =============
  28:../Libraries/STM32F4xx_StdPeriph_Driver/src/stm32f4xx_dac.c ****   *          Digital to Analog conversion can be non-triggered using DAC_Trigger_None
  29:../Libraries/STM32F4xx_StdPeriph_Driver/src/stm32f4xx_dac.c ****   *          and DAC_OUT1/DAC_OUT2 is available once writing to DHRx register 
  30:../Libraries/STM32F4xx_StdPeriph_Driver/src/stm32f4xx_dac.c ****   *          using DAC_SetChannel1Data() / DAC_SetChannel2Data() functions.
  31:../Libraries/STM32F4xx_StdPeriph_Driver/src/stm32f4xx_dac.c ****   *   
  32:../Libraries/STM32F4xx_StdPeriph_Driver/src/stm32f4xx_dac.c ****   *         Digital to Analog conversion can be triggered by:
  33:../Libraries/STM32F4xx_StdPeriph_Driver/src/stm32f4xx_dac.c ****   *             1- External event: EXTI Line 9 (any GPIOx_Pin9) using DAC_Trigger_Ext_IT9.
  34:../Libraries/STM32F4xx_StdPeriph_Driver/src/stm32f4xx_dac.c ****   *                The used pin (GPIOx_Pin9) must be configured in input mode.
  35:../Libraries/STM32F4xx_StdPeriph_Driver/src/stm32f4xx_dac.c ****   *
  36:../Libraries/STM32F4xx_StdPeriph_Driver/src/stm32f4xx_dac.c ****   *             2- Timers TRGO: TIM2, TIM4, TIM5, TIM6, TIM7 and TIM8 
  37:../Libraries/STM32F4xx_StdPeriph_Driver/src/stm32f4xx_dac.c ****   *                (DAC_Trigger_T2_TRGO, DAC_Trigger_T4_TRGO...)
  38:../Libraries/STM32F4xx_StdPeriph_Driver/src/stm32f4xx_dac.c ****   *                The timer TRGO event should be selected using TIM_SelectOutputTrigger()
  39:../Libraries/STM32F4xx_StdPeriph_Driver/src/stm32f4xx_dac.c ****   *
  40:../Libraries/STM32F4xx_StdPeriph_Driver/src/stm32f4xx_dac.c ****   *             3- Software using DAC_Trigger_Software
  41:../Libraries/STM32F4xx_StdPeriph_Driver/src/stm32f4xx_dac.c ****   *
  42:../Libraries/STM32F4xx_StdPeriph_Driver/src/stm32f4xx_dac.c ****   *          DAC Buffer mode feature
  43:../Libraries/STM32F4xx_StdPeriph_Driver/src/stm32f4xx_dac.c ****   *          ========================  
  44:../Libraries/STM32F4xx_StdPeriph_Driver/src/stm32f4xx_dac.c ****   *          Each DAC channel integrates an output buffer that can be used to 
  45:../Libraries/STM32F4xx_StdPeriph_Driver/src/stm32f4xx_dac.c ****   *          reduce the output impedance, and to drive external loads directly
  46:../Libraries/STM32F4xx_StdPeriph_Driver/src/stm32f4xx_dac.c ****   *          without having to add an external operational amplifier.
  47:../Libraries/STM32F4xx_StdPeriph_Driver/src/stm32f4xx_dac.c ****   *          To enable, the output buffer use  
  48:../Libraries/STM32F4xx_StdPeriph_Driver/src/stm32f4xx_dac.c ****   *              DAC_InitStructure.DAC_OutputBuffer = DAC_OutputBuffer_Enable;
  49:../Libraries/STM32F4xx_StdPeriph_Driver/src/stm32f4xx_dac.c ****   *          
  50:../Libraries/STM32F4xx_StdPeriph_Driver/src/stm32f4xx_dac.c ****   *          Refer to the device datasheet for more details about output 
  51:../Libraries/STM32F4xx_StdPeriph_Driver/src/stm32f4xx_dac.c ****   *          impedance value with and without output buffer.
  52:../Libraries/STM32F4xx_StdPeriph_Driver/src/stm32f4xx_dac.c ****   *          
  53:../Libraries/STM32F4xx_StdPeriph_Driver/src/stm32f4xx_dac.c ****   *          DAC wave generation feature
  54:../Libraries/STM32F4xx_StdPeriph_Driver/src/stm32f4xx_dac.c ****   *          =============================      
  55:../Libraries/STM32F4xx_StdPeriph_Driver/src/stm32f4xx_dac.c ****   *          Both DAC channels can be used to generate
  56:../Libraries/STM32F4xx_StdPeriph_Driver/src/stm32f4xx_dac.c ****   *             1- Noise wave using DAC_WaveGeneration_Noise
  57:../Libraries/STM32F4xx_StdPeriph_Driver/src/stm32f4xx_dac.c ****   *             2- Triangle wave using DAC_WaveGeneration_Triangle
  58:../Libraries/STM32F4xx_StdPeriph_Driver/src/stm32f4xx_dac.c ****   *        
  59:../Libraries/STM32F4xx_StdPeriph_Driver/src/stm32f4xx_dac.c ****   *          Wave generation can be disabled using DAC_WaveGeneration_None
  60:../Libraries/STM32F4xx_StdPeriph_Driver/src/stm32f4xx_dac.c ****   *
  61:../Libraries/STM32F4xx_StdPeriph_Driver/src/stm32f4xx_dac.c ****   *          DAC data format
  62:../Libraries/STM32F4xx_StdPeriph_Driver/src/stm32f4xx_dac.c ****   *          ================   
  63:../Libraries/STM32F4xx_StdPeriph_Driver/src/stm32f4xx_dac.c ****   *          The DAC data format can be:
  64:../Libraries/STM32F4xx_StdPeriph_Driver/src/stm32f4xx_dac.c ****   *             1- 8-bit right alignment using DAC_Align_8b_R
  65:../Libraries/STM32F4xx_StdPeriph_Driver/src/stm32f4xx_dac.c ****   *             2- 12-bit left alignment using DAC_Align_12b_L
  66:../Libraries/STM32F4xx_StdPeriph_Driver/src/stm32f4xx_dac.c ****   *             3- 12-bit right alignment using DAC_Align_12b_R
  67:../Libraries/STM32F4xx_StdPeriph_Driver/src/stm32f4xx_dac.c ****   *
  68:../Libraries/STM32F4xx_StdPeriph_Driver/src/stm32f4xx_dac.c ****   *          DAC data value to voltage correspondence  
  69:../Libraries/STM32F4xx_StdPeriph_Driver/src/stm32f4xx_dac.c ****   *          ========================================  
  70:../Libraries/STM32F4xx_StdPeriph_Driver/src/stm32f4xx_dac.c ****   *          The analog output voltage on each DAC channel pin is determined
ARM GAS  C:\Users\admin\AppData\Local\Temp\ccNMST8T.s 			page 4


  71:../Libraries/STM32F4xx_StdPeriph_Driver/src/stm32f4xx_dac.c ****   *          by the following equation: 
  72:../Libraries/STM32F4xx_StdPeriph_Driver/src/stm32f4xx_dac.c ****   *          DAC_OUTx = VREF+ * DOR / 4095
  73:../Libraries/STM32F4xx_StdPeriph_Driver/src/stm32f4xx_dac.c ****   *          with  DOR is the Data Output Register
  74:../Libraries/STM32F4xx_StdPeriph_Driver/src/stm32f4xx_dac.c ****   *                VEF+ is the input voltage reference (refer to the device datasheet)
  75:../Libraries/STM32F4xx_StdPeriph_Driver/src/stm32f4xx_dac.c ****   *          e.g. To set DAC_OUT1 to 0.7V, use
  76:../Libraries/STM32F4xx_StdPeriph_Driver/src/stm32f4xx_dac.c ****   *            DAC_SetChannel1Data(DAC_Align_12b_R, 868);
  77:../Libraries/STM32F4xx_StdPeriph_Driver/src/stm32f4xx_dac.c ****   *          Assuming that VREF+ = 3.3V, DAC_OUT1 = (3.3 * 868) / 4095 = 0.7V
  78:../Libraries/STM32F4xx_StdPeriph_Driver/src/stm32f4xx_dac.c ****   *
  79:../Libraries/STM32F4xx_StdPeriph_Driver/src/stm32f4xx_dac.c ****   *          DMA requests 
  80:../Libraries/STM32F4xx_StdPeriph_Driver/src/stm32f4xx_dac.c ****   *          =============    
  81:../Libraries/STM32F4xx_StdPeriph_Driver/src/stm32f4xx_dac.c ****   *          A DMA1 request can be generated when an external trigger (but not
  82:../Libraries/STM32F4xx_StdPeriph_Driver/src/stm32f4xx_dac.c ****   *          a software trigger) occurs if DMA1 requests are enabled using
  83:../Libraries/STM32F4xx_StdPeriph_Driver/src/stm32f4xx_dac.c ****   *          DAC_DMACmd()
  84:../Libraries/STM32F4xx_StdPeriph_Driver/src/stm32f4xx_dac.c ****   *          DMA1 requests are mapped as following:
  85:../Libraries/STM32F4xx_StdPeriph_Driver/src/stm32f4xx_dac.c ****   *             1- DAC channel1 : mapped on DMA1 Stream5 channel7 which must be 
  86:../Libraries/STM32F4xx_StdPeriph_Driver/src/stm32f4xx_dac.c ****   *                               already configured
  87:../Libraries/STM32F4xx_StdPeriph_Driver/src/stm32f4xx_dac.c ****   *             2- DAC channel2 : mapped on DMA1 Stream6 channel7 which must be 
  88:../Libraries/STM32F4xx_StdPeriph_Driver/src/stm32f4xx_dac.c ****   *                               already configured
  89:../Libraries/STM32F4xx_StdPeriph_Driver/src/stm32f4xx_dac.c ****   *
  90:../Libraries/STM32F4xx_StdPeriph_Driver/src/stm32f4xx_dac.c ****   *          ===================================================================      
  91:../Libraries/STM32F4xx_StdPeriph_Driver/src/stm32f4xx_dac.c ****   *                              How to use this driver 
  92:../Libraries/STM32F4xx_StdPeriph_Driver/src/stm32f4xx_dac.c ****   *          ===================================================================          
  93:../Libraries/STM32F4xx_StdPeriph_Driver/src/stm32f4xx_dac.c ****   *            - DAC APB clock must be enabled to get write access to DAC
  94:../Libraries/STM32F4xx_StdPeriph_Driver/src/stm32f4xx_dac.c ****   *              registers using
  95:../Libraries/STM32F4xx_StdPeriph_Driver/src/stm32f4xx_dac.c ****   *              RCC_APB1PeriphClockCmd(RCC_APB1Periph_DAC, ENABLE)
  96:../Libraries/STM32F4xx_StdPeriph_Driver/src/stm32f4xx_dac.c ****   *            - Configure DAC_OUTx (DAC_OUT1: PA4, DAC_OUT2: PA5) in analog mode.
  97:../Libraries/STM32F4xx_StdPeriph_Driver/src/stm32f4xx_dac.c ****   *            - Configure the DAC channel using DAC_Init() function
  98:../Libraries/STM32F4xx_StdPeriph_Driver/src/stm32f4xx_dac.c ****   *            - Enable the DAC channel using DAC_Cmd() function
  99:../Libraries/STM32F4xx_StdPeriph_Driver/src/stm32f4xx_dac.c ****   * 
 100:../Libraries/STM32F4xx_StdPeriph_Driver/src/stm32f4xx_dac.c ****   *  @endverbatim
 101:../Libraries/STM32F4xx_StdPeriph_Driver/src/stm32f4xx_dac.c ****   *    
 102:../Libraries/STM32F4xx_StdPeriph_Driver/src/stm32f4xx_dac.c ****   ******************************************************************************
 103:../Libraries/STM32F4xx_StdPeriph_Driver/src/stm32f4xx_dac.c ****   * @attention
 104:../Libraries/STM32F4xx_StdPeriph_Driver/src/stm32f4xx_dac.c ****   *
 105:../Libraries/STM32F4xx_StdPeriph_Driver/src/stm32f4xx_dac.c ****   * THE PRESENT FIRMWARE WHICH IS FOR GUIDANCE ONLY AIMS AT PROVIDING CUSTOMERS
 106:../Libraries/STM32F4xx_StdPeriph_Driver/src/stm32f4xx_dac.c ****   * WITH CODING INFORMATION REGARDING THEIR PRODUCTS IN ORDER FOR THEM TO SAVE
 107:../Libraries/STM32F4xx_StdPeriph_Driver/src/stm32f4xx_dac.c ****   * TIME. AS A RESULT, STMICROELECTRONICS SHALL NOT BE HELD LIABLE FOR ANY
 108:../Libraries/STM32F4xx_StdPeriph_Driver/src/stm32f4xx_dac.c ****   * DIRECT, INDIRECT OR CONSEQUENTIAL DAMAGES WITH RESPECT TO ANY CLAIMS ARISING
 109:../Libraries/STM32F4xx_StdPeriph_Driver/src/stm32f4xx_dac.c ****   * FROM THE CONTENT OF SUCH FIRMWARE AND/OR THE USE MADE BY CUSTOMERS OF THE
 110:../Libraries/STM32F4xx_StdPeriph_Driver/src/stm32f4xx_dac.c ****   * CODING INFORMATION CONTAINED HEREIN IN CONNECTION WITH THEIR PRODUCTS.
 111:../Libraries/STM32F4xx_StdPeriph_Driver/src/stm32f4xx_dac.c ****   *
 112:../Libraries/STM32F4xx_StdPeriph_Driver/src/stm32f4xx_dac.c ****   * <h2><center>&copy; COPYRIGHT 2011 STMicroelectronics</center></h2>
 113:../Libraries/STM32F4xx_StdPeriph_Driver/src/stm32f4xx_dac.c ****   ******************************************************************************  
 114:../Libraries/STM32F4xx_StdPeriph_Driver/src/stm32f4xx_dac.c ****   */ 
 115:../Libraries/STM32F4xx_StdPeriph_Driver/src/stm32f4xx_dac.c **** 
 116:../Libraries/STM32F4xx_StdPeriph_Driver/src/stm32f4xx_dac.c **** 
 117:../Libraries/STM32F4xx_StdPeriph_Driver/src/stm32f4xx_dac.c **** /* Includes ------------------------------------------------------------------*/
 118:../Libraries/STM32F4xx_StdPeriph_Driver/src/stm32f4xx_dac.c **** #include "stm32f4xx_dac.h"
 119:../Libraries/STM32F4xx_StdPeriph_Driver/src/stm32f4xx_dac.c **** #include "stm32f4xx_rcc.h"
 120:../Libraries/STM32F4xx_StdPeriph_Driver/src/stm32f4xx_dac.c **** #include <stm32f4xx_conf.h>
 121:../Libraries/STM32F4xx_StdPeriph_Driver/src/stm32f4xx_dac.c **** /** @addtogroup STM32F4xx_StdPeriph_Driver
 122:../Libraries/STM32F4xx_StdPeriph_Driver/src/stm32f4xx_dac.c ****   * @{
 123:../Libraries/STM32F4xx_StdPeriph_Driver/src/stm32f4xx_dac.c ****   */
 124:../Libraries/STM32F4xx_StdPeriph_Driver/src/stm32f4xx_dac.c **** 
 125:../Libraries/STM32F4xx_StdPeriph_Driver/src/stm32f4xx_dac.c **** /** @defgroup DAC 
 126:../Libraries/STM32F4xx_StdPeriph_Driver/src/stm32f4xx_dac.c ****   * @brief DAC driver modules
 127:../Libraries/STM32F4xx_StdPeriph_Driver/src/stm32f4xx_dac.c ****   * @{
ARM GAS  C:\Users\admin\AppData\Local\Temp\ccNMST8T.s 			page 5


 128:../Libraries/STM32F4xx_StdPeriph_Driver/src/stm32f4xx_dac.c ****   */ 
 129:../Libraries/STM32F4xx_StdPeriph_Driver/src/stm32f4xx_dac.c **** 
 130:../Libraries/STM32F4xx_StdPeriph_Driver/src/stm32f4xx_dac.c **** /* Private typedef -----------------------------------------------------------*/
 131:../Libraries/STM32F4xx_StdPeriph_Driver/src/stm32f4xx_dac.c **** /* Private define ------------------------------------------------------------*/
 132:../Libraries/STM32F4xx_StdPeriph_Driver/src/stm32f4xx_dac.c **** 
 133:../Libraries/STM32F4xx_StdPeriph_Driver/src/stm32f4xx_dac.c **** /* CR register Mask */
 134:../Libraries/STM32F4xx_StdPeriph_Driver/src/stm32f4xx_dac.c **** #define CR_CLEAR_MASK              ((uint32_t)0x00000FFE)
 135:../Libraries/STM32F4xx_StdPeriph_Driver/src/stm32f4xx_dac.c **** 
 136:../Libraries/STM32F4xx_StdPeriph_Driver/src/stm32f4xx_dac.c **** /* DAC Dual Channels SWTRIG masks */
 137:../Libraries/STM32F4xx_StdPeriph_Driver/src/stm32f4xx_dac.c **** #define DUAL_SWTRIG_SET            ((uint32_t)0x00000003)
 138:../Libraries/STM32F4xx_StdPeriph_Driver/src/stm32f4xx_dac.c **** #define DUAL_SWTRIG_RESET          ((uint32_t)0xFFFFFFFC)
 139:../Libraries/STM32F4xx_StdPeriph_Driver/src/stm32f4xx_dac.c **** 
 140:../Libraries/STM32F4xx_StdPeriph_Driver/src/stm32f4xx_dac.c **** /* DHR registers offsets */
 141:../Libraries/STM32F4xx_StdPeriph_Driver/src/stm32f4xx_dac.c **** #define DHR12R1_OFFSET             ((uint32_t)0x00000008)
 142:../Libraries/STM32F4xx_StdPeriph_Driver/src/stm32f4xx_dac.c **** #define DHR12R2_OFFSET             ((uint32_t)0x00000014)
 143:../Libraries/STM32F4xx_StdPeriph_Driver/src/stm32f4xx_dac.c **** #define DHR12RD_OFFSET             ((uint32_t)0x00000020)
 144:../Libraries/STM32F4xx_StdPeriph_Driver/src/stm32f4xx_dac.c **** 
 145:../Libraries/STM32F4xx_StdPeriph_Driver/src/stm32f4xx_dac.c **** /* DOR register offset */
 146:../Libraries/STM32F4xx_StdPeriph_Driver/src/stm32f4xx_dac.c **** #define DOR_OFFSET                 ((uint32_t)0x0000002C)
 147:../Libraries/STM32F4xx_StdPeriph_Driver/src/stm32f4xx_dac.c **** 
 148:../Libraries/STM32F4xx_StdPeriph_Driver/src/stm32f4xx_dac.c **** /* Private macro -------------------------------------------------------------*/
 149:../Libraries/STM32F4xx_StdPeriph_Driver/src/stm32f4xx_dac.c **** /* Private variables ---------------------------------------------------------*/
 150:../Libraries/STM32F4xx_StdPeriph_Driver/src/stm32f4xx_dac.c **** /* Private function prototypes -----------------------------------------------*/
 151:../Libraries/STM32F4xx_StdPeriph_Driver/src/stm32f4xx_dac.c **** /* Private functions ---------------------------------------------------------*/
 152:../Libraries/STM32F4xx_StdPeriph_Driver/src/stm32f4xx_dac.c **** 
 153:../Libraries/STM32F4xx_StdPeriph_Driver/src/stm32f4xx_dac.c **** /** @defgroup DAC_Private_Functions
 154:../Libraries/STM32F4xx_StdPeriph_Driver/src/stm32f4xx_dac.c ****   * @{
 155:../Libraries/STM32F4xx_StdPeriph_Driver/src/stm32f4xx_dac.c ****   */
 156:../Libraries/STM32F4xx_StdPeriph_Driver/src/stm32f4xx_dac.c **** 
 157:../Libraries/STM32F4xx_StdPeriph_Driver/src/stm32f4xx_dac.c **** /** @defgroup DAC_Group1 DAC channels configuration
 158:../Libraries/STM32F4xx_StdPeriph_Driver/src/stm32f4xx_dac.c ****  *  @brief   DAC channels configuration: trigger, output buffer, data format 
 159:../Libraries/STM32F4xx_StdPeriph_Driver/src/stm32f4xx_dac.c ****  *
 160:../Libraries/STM32F4xx_StdPeriph_Driver/src/stm32f4xx_dac.c **** @verbatim   
 161:../Libraries/STM32F4xx_StdPeriph_Driver/src/stm32f4xx_dac.c ****  ===============================================================================
 162:../Libraries/STM32F4xx_StdPeriph_Driver/src/stm32f4xx_dac.c ****           DAC channels configuration: trigger, output buffer, data format
 163:../Libraries/STM32F4xx_StdPeriph_Driver/src/stm32f4xx_dac.c ****  ===============================================================================  
 164:../Libraries/STM32F4xx_StdPeriph_Driver/src/stm32f4xx_dac.c **** 
 165:../Libraries/STM32F4xx_StdPeriph_Driver/src/stm32f4xx_dac.c **** @endverbatim
 166:../Libraries/STM32F4xx_StdPeriph_Driver/src/stm32f4xx_dac.c ****   * @{
 167:../Libraries/STM32F4xx_StdPeriph_Driver/src/stm32f4xx_dac.c ****   */
 168:../Libraries/STM32F4xx_StdPeriph_Driver/src/stm32f4xx_dac.c **** 
 169:../Libraries/STM32F4xx_StdPeriph_Driver/src/stm32f4xx_dac.c **** /**
 170:../Libraries/STM32F4xx_StdPeriph_Driver/src/stm32f4xx_dac.c ****   * @brief  Deinitializes the DAC peripheral registers to their default reset values.
 171:../Libraries/STM32F4xx_StdPeriph_Driver/src/stm32f4xx_dac.c ****   * @param  None
 172:../Libraries/STM32F4xx_StdPeriph_Driver/src/stm32f4xx_dac.c ****   * @retval None
 173:../Libraries/STM32F4xx_StdPeriph_Driver/src/stm32f4xx_dac.c ****   */
 174:../Libraries/STM32F4xx_StdPeriph_Driver/src/stm32f4xx_dac.c **** void DAC_DeInit(void)
 175:../Libraries/STM32F4xx_StdPeriph_Driver/src/stm32f4xx_dac.c **** {
 102              		.loc 1 175 1 view -0
 103              		.cfi_startproc
 104              		@ args = 0, pretend = 0, frame = 0
 105              		@ frame_needed = 0, uses_anonymous_args = 0
 176:../Libraries/STM32F4xx_StdPeriph_Driver/src/stm32f4xx_dac.c ****   /* Enable DAC reset state */
 177:../Libraries/STM32F4xx_StdPeriph_Driver/src/stm32f4xx_dac.c ****   RCC_APB1PeriphResetCmd(RCC_APB1Periph_DAC, ENABLE);
 106              		.loc 1 177 3 view .LVU1
 107              	@ ../Libraries/STM32F4xx_StdPeriph_Driver/src/stm32f4xx_dac.c:175: {
 175:../Libraries/STM32F4xx_StdPeriph_Driver/src/stm32f4xx_dac.c ****   /* Enable DAC reset state */
ARM GAS  C:\Users\admin\AppData\Local\Temp\ccNMST8T.s 			page 6


 108              		.loc 1 175 1 is_stmt 0 view .LVU2
 109 0000 08B5     		push	{r3, lr}	@
 110              		.cfi_def_cfa_offset 8
 111              		.cfi_offset 3, -8
 112              		.cfi_offset 14, -4
 113              	@ ../Libraries/STM32F4xx_StdPeriph_Driver/src/stm32f4xx_dac.c:177:   RCC_APB1PeriphResetCmd(RCC_APB
 114              		.loc 1 177 3 view .LVU3
 115 0002 0121     		movs	r1, #1	@,
 116 0004 4FF00050 		mov	r0, #536870912	@,
 117 0008 FFF7FEFF 		bl	RCC_APB1PeriphResetCmd		@
 118              	.LVL0:
 178:../Libraries/STM32F4xx_StdPeriph_Driver/src/stm32f4xx_dac.c ****   /* Release DAC from reset state */
 179:../Libraries/STM32F4xx_StdPeriph_Driver/src/stm32f4xx_dac.c ****   RCC_APB1PeriphResetCmd(RCC_APB1Periph_DAC, DISABLE);
 119              		.loc 1 179 3 is_stmt 1 view .LVU4
 120              	@ ../Libraries/STM32F4xx_StdPeriph_Driver/src/stm32f4xx_dac.c:180: }
 180:../Libraries/STM32F4xx_StdPeriph_Driver/src/stm32f4xx_dac.c **** }
 121              		.loc 1 180 1 is_stmt 0 view .LVU5
 122 000c BDE80840 		pop	{r3, lr}	@
 123              		.cfi_restore 14
 124              		.cfi_restore 3
 125              		.cfi_def_cfa_offset 0
 126              	@ ../Libraries/STM32F4xx_StdPeriph_Driver/src/stm32f4xx_dac.c:179:   RCC_APB1PeriphResetCmd(RCC_APB
 179:../Libraries/STM32F4xx_StdPeriph_Driver/src/stm32f4xx_dac.c **** }
 127              		.loc 1 179 3 view .LVU6
 128 0010 0021     		movs	r1, #0	@,
 129 0012 4FF00050 		mov	r0, #536870912	@,
 130 0016 FFF7FEBF 		b	RCC_APB1PeriphResetCmd		@
 131              	.LVL1:
 132              		.cfi_endproc
 133              	.LFE110:
 134              		.size	DAC_DeInit, .-DAC_DeInit
 135 001a 00BF     		.section	.text.DAC_Init,"ax",%progbits
 136              		.align	1
 137              		.p2align 2,,3
 138              		.global	DAC_Init
 139              		.syntax unified
 140              		.thumb
 141              		.thumb_func
 142              		.type	DAC_Init, %function
 143              	DAC_Init:
 144              	.LVL2:
 145              	.LFB111:
 181:../Libraries/STM32F4xx_StdPeriph_Driver/src/stm32f4xx_dac.c **** 
 182:../Libraries/STM32F4xx_StdPeriph_Driver/src/stm32f4xx_dac.c **** /**
 183:../Libraries/STM32F4xx_StdPeriph_Driver/src/stm32f4xx_dac.c ****   * @brief  Initializes the DAC peripheral according to the specified parameters
 184:../Libraries/STM32F4xx_StdPeriph_Driver/src/stm32f4xx_dac.c ****   *         in the DAC_InitStruct.
 185:../Libraries/STM32F4xx_StdPeriph_Driver/src/stm32f4xx_dac.c ****   * @param  DAC_Channel: the selected DAC channel. 
 186:../Libraries/STM32F4xx_StdPeriph_Driver/src/stm32f4xx_dac.c ****   *          This parameter can be one of the following values:
 187:../Libraries/STM32F4xx_StdPeriph_Driver/src/stm32f4xx_dac.c ****   *            @arg DAC_Channel_1: DAC Channel1 selected
 188:../Libraries/STM32F4xx_StdPeriph_Driver/src/stm32f4xx_dac.c ****   *            @arg DAC_Channel_2: DAC Channel2 selected
 189:../Libraries/STM32F4xx_StdPeriph_Driver/src/stm32f4xx_dac.c ****   * @param  DAC_InitStruct: pointer to a DAC_InitTypeDef structure that contains
 190:../Libraries/STM32F4xx_StdPeriph_Driver/src/stm32f4xx_dac.c ****   *         the configuration information for the  specified DAC channel.
 191:../Libraries/STM32F4xx_StdPeriph_Driver/src/stm32f4xx_dac.c ****   * @retval None
 192:../Libraries/STM32F4xx_StdPeriph_Driver/src/stm32f4xx_dac.c ****   */
 193:../Libraries/STM32F4xx_StdPeriph_Driver/src/stm32f4xx_dac.c **** void DAC_Init(uint32_t DAC_Channel, DAC_InitTypeDef* DAC_InitStruct)
 194:../Libraries/STM32F4xx_StdPeriph_Driver/src/stm32f4xx_dac.c **** {
 146              		.loc 1 194 1 is_stmt 1 view -0
ARM GAS  C:\Users\admin\AppData\Local\Temp\ccNMST8T.s 			page 7


 147              		.cfi_startproc
 148              		@ args = 0, pretend = 0, frame = 0
 149              		@ frame_needed = 0, uses_anonymous_args = 0
 150              		@ link register save eliminated.
 195:../Libraries/STM32F4xx_StdPeriph_Driver/src/stm32f4xx_dac.c ****   uint32_t tmpreg1 = 0, tmpreg2 = 0;
 151              		.loc 1 195 3 view .LVU8
 196:../Libraries/STM32F4xx_StdPeriph_Driver/src/stm32f4xx_dac.c **** 
 197:../Libraries/STM32F4xx_StdPeriph_Driver/src/stm32f4xx_dac.c ****   /* Check the DAC parameters */
 198:../Libraries/STM32F4xx_StdPeriph_Driver/src/stm32f4xx_dac.c ****   assert_param(IS_DAC_TRIGGER(DAC_InitStruct->DAC_Trigger));
 152              		.loc 1 198 3 view .LVU9
 199:../Libraries/STM32F4xx_StdPeriph_Driver/src/stm32f4xx_dac.c ****   assert_param(IS_DAC_GENERATE_WAVE(DAC_InitStruct->DAC_WaveGeneration));
 153              		.loc 1 199 3 view .LVU10
 200:../Libraries/STM32F4xx_StdPeriph_Driver/src/stm32f4xx_dac.c ****   assert_param(IS_DAC_LFSR_UNMASK_TRIANGLE_AMPLITUDE(DAC_InitStruct->DAC_LFSRUnmask_TriangleAmplitu
 154              		.loc 1 200 3 view .LVU11
 201:../Libraries/STM32F4xx_StdPeriph_Driver/src/stm32f4xx_dac.c ****   assert_param(IS_DAC_OUTPUT_BUFFER_STATE(DAC_InitStruct->DAC_OutputBuffer));
 155              		.loc 1 201 3 view .LVU12
 202:../Libraries/STM32F4xx_StdPeriph_Driver/src/stm32f4xx_dac.c **** 
 203:../Libraries/STM32F4xx_StdPeriph_Driver/src/stm32f4xx_dac.c **** /*---------------------------- DAC CR Configuration --------------------------*/
 204:../Libraries/STM32F4xx_StdPeriph_Driver/src/stm32f4xx_dac.c ****   /* Get the DAC CR value */
 205:../Libraries/STM32F4xx_StdPeriph_Driver/src/stm32f4xx_dac.c ****   tmpreg1 = DAC->CR;
 156              		.loc 1 205 3 view .LVU13
 157              	@ ../Libraries/STM32F4xx_StdPeriph_Driver/src/stm32f4xx_dac.c:194: {
 194:../Libraries/STM32F4xx_StdPeriph_Driver/src/stm32f4xx_dac.c ****   uint32_t tmpreg1 = 0, tmpreg2 = 0;
 158              		.loc 1 194 1 is_stmt 0 view .LVU14
 159 0000 30B4     		push	{r4, r5}	@
 160              		.cfi_def_cfa_offset 8
 161              		.cfi_offset 4, -8
 162              		.cfi_offset 5, -4
 163              	@ ../Libraries/STM32F4xx_StdPeriph_Driver/src/stm32f4xx_dac.c:205:   tmpreg1 = DAC->CR;
 164              		.loc 1 205 11 view .LVU15
 165 0002 0A4C     		ldr	r4, .L6	@ tmp128,
 166              	@ ../Libraries/STM32F4xx_StdPeriph_Driver/src/stm32f4xx_dac.c:207:   tmpreg1 &= ~(CR_CLEAR_MASK << 
 206:../Libraries/STM32F4xx_StdPeriph_Driver/src/stm32f4xx_dac.c ****   /* Clear BOFFx, TENx, TSELx, WAVEx and MAMPx bits */
 207:../Libraries/STM32F4xx_StdPeriph_Driver/src/stm32f4xx_dac.c ****   tmpreg1 &= ~(CR_CLEAR_MASK << DAC_Channel);
 167              		.loc 1 207 30 view .LVU16
 168 0004 40F6FE72 		movw	r2, #4094	@ tmp130,
 169              	@ ../Libraries/STM32F4xx_StdPeriph_Driver/src/stm32f4xx_dac.c:205:   tmpreg1 = DAC->CR;
 205:../Libraries/STM32F4xx_StdPeriph_Driver/src/stm32f4xx_dac.c ****   /* Clear BOFFx, TENx, TSELx, WAVEx and MAMPx bits */
 170              		.loc 1 205 11 view .LVU17
 171 0008 2368     		ldr	r3, [r4]	@ tmpreg1, MEM[(struct DAC_TypeDef *)1073771520B].CR
 172              	.LVL3:
 173              		.loc 1 207 3 is_stmt 1 view .LVU18
 174              	@ ../Libraries/STM32F4xx_StdPeriph_Driver/src/stm32f4xx_dac.c:207:   tmpreg1 &= ~(CR_CLEAR_MASK << 
 175              		.loc 1 207 30 is_stmt 0 view .LVU19
 176 000a 8240     		lsls	r2, r2, r0	@ tmp129, tmp130, DAC_Channel
 177              	@ ../Libraries/STM32F4xx_StdPeriph_Driver/src/stm32f4xx_dac.c:207:   tmpreg1 &= ~(CR_CLEAR_MASK << 
 178              		.loc 1 207 11 view .LVU20
 179 000c 23EA0202 		bic	r2, r3, r2	@ tmpreg1, tmpreg1, tmp129
 180              	.LVL4:
 208:../Libraries/STM32F4xx_StdPeriph_Driver/src/stm32f4xx_dac.c ****   /* Configure for the selected DAC channel: buffer output, trigger, 
 209:../Libraries/STM32F4xx_StdPeriph_Driver/src/stm32f4xx_dac.c ****      wave generation, mask/amplitude for wave generation */
 210:../Libraries/STM32F4xx_StdPeriph_Driver/src/stm32f4xx_dac.c ****   /* Set TSELx and TENx bits according to DAC_Trigger value */
 211:../Libraries/STM32F4xx_StdPeriph_Driver/src/stm32f4xx_dac.c ****   /* Set WAVEx bits according to DAC_WaveGeneration value */
 212:../Libraries/STM32F4xx_StdPeriph_Driver/src/stm32f4xx_dac.c ****   /* Set MAMPx bits according to DAC_LFSRUnmask_TriangleAmplitude value */ 
 213:../Libraries/STM32F4xx_StdPeriph_Driver/src/stm32f4xx_dac.c ****   /* Set BOFFx bit according to DAC_OutputBuffer value */   
 214:../Libraries/STM32F4xx_StdPeriph_Driver/src/stm32f4xx_dac.c ****   tmpreg2 = (DAC_InitStruct->DAC_Trigger | DAC_InitStruct->DAC_WaveGeneration |
 181              		.loc 1 214 3 is_stmt 1 view .LVU21
ARM GAS  C:\Users\admin\AppData\Local\Temp\ccNMST8T.s 			page 8


 215:../Libraries/STM32F4xx_StdPeriph_Driver/src/stm32f4xx_dac.c ****              DAC_InitStruct->DAC_LFSRUnmask_TriangleAmplitude | \
 216:../Libraries/STM32F4xx_StdPeriph_Driver/src/stm32f4xx_dac.c ****              DAC_InitStruct->DAC_OutputBuffer);
 217:../Libraries/STM32F4xx_StdPeriph_Driver/src/stm32f4xx_dac.c ****   /* Calculate CR register value depending on DAC_Channel */
 218:../Libraries/STM32F4xx_StdPeriph_Driver/src/stm32f4xx_dac.c ****   tmpreg1 |= tmpreg2 << DAC_Channel;
 182              		.loc 1 218 3 view .LVU22
 183              	@ ../Libraries/STM32F4xx_StdPeriph_Driver/src/stm32f4xx_dac.c:214:   tmpreg2 = (DAC_InitStruct->DAC
 214:../Libraries/STM32F4xx_StdPeriph_Driver/src/stm32f4xx_dac.c ****              DAC_InitStruct->DAC_LFSRUnmask_TriangleAmplitude | \
 184              		.loc 1 214 42 is_stmt 0 view .LVU23
 185 0010 D1E90035 		ldrd	r3, r5, [r1]	@ DAC_InitStruct_14(D)->DAC_Trigger, tmp144, DAC_InitStruct
 186 0014 2B43     		orrs	r3, r3, r5	@, tmp132, DAC_InitStruct_14(D)->DAC_Trigger, tmp144
 187              	@ ../Libraries/STM32F4xx_StdPeriph_Driver/src/stm32f4xx_dac.c:214:   tmpreg2 = (DAC_InitStruct->DAC
 214:../Libraries/STM32F4xx_StdPeriph_Driver/src/stm32f4xx_dac.c ****              DAC_InitStruct->DAC_LFSRUnmask_TriangleAmplitude | \
 188              		.loc 1 214 79 view .LVU24
 189 0016 8D68     		ldr	r5, [r1, #8]	@ tmp145, DAC_InitStruct_14(D)->DAC_LFSRUnmask_TriangleAmplitude
 190              	@ ../Libraries/STM32F4xx_StdPeriph_Driver/src/stm32f4xx_dac.c:214:   tmpreg2 = (DAC_InitStruct->DAC
 214:../Libraries/STM32F4xx_StdPeriph_Driver/src/stm32f4xx_dac.c ****              DAC_InitStruct->DAC_LFSRUnmask_TriangleAmplitude | \
 191              		.loc 1 214 11 view .LVU25
 192 0018 C968     		ldr	r1, [r1, #12]	@ DAC_InitStruct_14(D)->DAC_OutputBuffer, DAC_InitStruct_14(D)->DAC_OutputBuffer
 193              	.LVL5:
 194              	@ ../Libraries/STM32F4xx_StdPeriph_Driver/src/stm32f4xx_dac.c:214:   tmpreg2 = (DAC_InitStruct->DAC
 214:../Libraries/STM32F4xx_StdPeriph_Driver/src/stm32f4xx_dac.c ****              DAC_InitStruct->DAC_LFSRUnmask_TriangleAmplitude | \
 195              		.loc 1 214 79 view .LVU26
 196 001a 2B43     		orrs	r3, r3, r5	@, tmp135, tmp132, tmp145
 197              	@ ../Libraries/STM32F4xx_StdPeriph_Driver/src/stm32f4xx_dac.c:214:   tmpreg2 = (DAC_InitStruct->DAC
 214:../Libraries/STM32F4xx_StdPeriph_Driver/src/stm32f4xx_dac.c ****              DAC_InitStruct->DAC_LFSRUnmask_TriangleAmplitude | \
 198              		.loc 1 214 11 view .LVU27
 199 001c 0B43     		orrs	r3, r3, r1	@, tmpreg2, tmp135, DAC_InitStruct_14(D)->DAC_OutputBuffer
 200              	@ ../Libraries/STM32F4xx_StdPeriph_Driver/src/stm32f4xx_dac.c:218:   tmpreg1 |= tmpreg2 << DAC_Chan
 201              		.loc 1 218 22 view .LVU28
 202 001e 03FA00F0 		lsl	r0, r3, r0	@ tmp139, tmpreg2, DAC_Channel
 203              	.LVL6:
 204              	@ ../Libraries/STM32F4xx_StdPeriph_Driver/src/stm32f4xx_dac.c:218:   tmpreg1 |= tmpreg2 << DAC_Chan
 205              		.loc 1 218 11 view .LVU29
 206 0022 1043     		orrs	r0, r0, r2	@, tmpreg1, tmp139, tmpreg1
 207              	.LVL7:
 219:../Libraries/STM32F4xx_StdPeriph_Driver/src/stm32f4xx_dac.c ****   /* Write to DAC CR */
 220:../Libraries/STM32F4xx_StdPeriph_Driver/src/stm32f4xx_dac.c ****   DAC->CR = tmpreg1;
 208              		.loc 1 220 3 is_stmt 1 view .LVU30
 209              	@ ../Libraries/STM32F4xx_StdPeriph_Driver/src/stm32f4xx_dac.c:220:   DAC->CR = tmpreg1;
 210              		.loc 1 220 11 is_stmt 0 view .LVU31
 211 0024 2060     		str	r0, [r4]	@ tmpreg1, MEM[(struct DAC_TypeDef *)1073771520B].CR
 212              	.LVL8:
 213              	@ ../Libraries/STM32F4xx_StdPeriph_Driver/src/stm32f4xx_dac.c:221: }
 221:../Libraries/STM32F4xx_StdPeriph_Driver/src/stm32f4xx_dac.c **** }
 214              		.loc 1 221 1 view .LVU32
 215 0026 30BC     		pop	{r4, r5}	@
 216              		.cfi_restore 5
 217              		.cfi_restore 4
 218              		.cfi_def_cfa_offset 0
 219 0028 7047     		bx	lr	@
 220              	.L7:
 221 002a 00BF     		.align	2
 222              	.L6:
 223 002c 00740040 		.word	1073771520
 224              		.cfi_endproc
 225              	.LFE111:
 226              		.size	DAC_Init, .-DAC_Init
ARM GAS  C:\Users\admin\AppData\Local\Temp\ccNMST8T.s 			page 9


 227              		.section	.text.DAC_StructInit,"ax",%progbits
 228              		.align	1
 229              		.p2align 2,,3
 230              		.global	DAC_StructInit
 231              		.syntax unified
 232              		.thumb
 233              		.thumb_func
 234              		.type	DAC_StructInit, %function
 235              	DAC_StructInit:
 236              	.LVL9:
 237              	.LFB112:
 222:../Libraries/STM32F4xx_StdPeriph_Driver/src/stm32f4xx_dac.c **** 
 223:../Libraries/STM32F4xx_StdPeriph_Driver/src/stm32f4xx_dac.c **** /**
 224:../Libraries/STM32F4xx_StdPeriph_Driver/src/stm32f4xx_dac.c ****   * @brief  Fills each DAC_InitStruct member with its default value.
 225:../Libraries/STM32F4xx_StdPeriph_Driver/src/stm32f4xx_dac.c ****   * @param  DAC_InitStruct: pointer to a DAC_InitTypeDef structure which will 
 226:../Libraries/STM32F4xx_StdPeriph_Driver/src/stm32f4xx_dac.c ****   *         be initialized.
 227:../Libraries/STM32F4xx_StdPeriph_Driver/src/stm32f4xx_dac.c ****   * @retval None
 228:../Libraries/STM32F4xx_StdPeriph_Driver/src/stm32f4xx_dac.c ****   */
 229:../Libraries/STM32F4xx_StdPeriph_Driver/src/stm32f4xx_dac.c **** void DAC_StructInit(DAC_InitTypeDef* DAC_InitStruct)
 230:../Libraries/STM32F4xx_StdPeriph_Driver/src/stm32f4xx_dac.c **** {
 238              		.loc 1 230 1 is_stmt 1 view -0
 239              		.cfi_startproc
 240              		@ args = 0, pretend = 0, frame = 0
 241              		@ frame_needed = 0, uses_anonymous_args = 0
 242              		@ link register save eliminated.
 231:../Libraries/STM32F4xx_StdPeriph_Driver/src/stm32f4xx_dac.c **** /*--------------- Reset DAC init structure parameters values -----------------*/
 232:../Libraries/STM32F4xx_StdPeriph_Driver/src/stm32f4xx_dac.c ****   /* Initialize the DAC_Trigger member */
 233:../Libraries/STM32F4xx_StdPeriph_Driver/src/stm32f4xx_dac.c ****   DAC_InitStruct->DAC_Trigger = DAC_Trigger_None;
 243              		.loc 1 233 3 view .LVU34
 244              	@ ../Libraries/STM32F4xx_StdPeriph_Driver/src/stm32f4xx_dac.c:233:   DAC_InitStruct->DAC_Trigger = 
 245              		.loc 1 233 31 is_stmt 0 view .LVU35
 246 0000 0023     		movs	r3, #0	@ tmp114,
 247              	@ ../Libraries/STM32F4xx_StdPeriph_Driver/src/stm32f4xx_dac.c:235:   DAC_InitStruct->DAC_WaveGenera
 234:../Libraries/STM32F4xx_StdPeriph_Driver/src/stm32f4xx_dac.c ****   /* Initialize the DAC_WaveGeneration member */
 235:../Libraries/STM32F4xx_StdPeriph_Driver/src/stm32f4xx_dac.c ****   DAC_InitStruct->DAC_WaveGeneration = DAC_WaveGeneration_None;
 248              		.loc 1 235 38 view .LVU36
 249 0002 C0E90033 		strd	r3, r3, [r0]	@ tmp114, tmp114, DAC_InitStruct
 236:../Libraries/STM32F4xx_StdPeriph_Driver/src/stm32f4xx_dac.c ****   /* Initialize the DAC_LFSRUnmask_TriangleAmplitude member */
 237:../Libraries/STM32F4xx_StdPeriph_Driver/src/stm32f4xx_dac.c ****   DAC_InitStruct->DAC_LFSRUnmask_TriangleAmplitude = DAC_LFSRUnmask_Bit0;
 250              		.loc 1 237 3 is_stmt 1 view .LVU37
 251              	@ ../Libraries/STM32F4xx_StdPeriph_Driver/src/stm32f4xx_dac.c:239:   DAC_InitStruct->DAC_OutputBuff
 238:../Libraries/STM32F4xx_StdPeriph_Driver/src/stm32f4xx_dac.c ****   /* Initialize the DAC_OutputBuffer member */
 239:../Libraries/STM32F4xx_StdPeriph_Driver/src/stm32f4xx_dac.c ****   DAC_InitStruct->DAC_OutputBuffer = DAC_OutputBuffer_Enable;
 252              		.loc 1 239 36 is_stmt 0 view .LVU38
 253 0006 C0E90233 		strd	r3, r3, [r0, #8]	@ tmp114, tmp114, DAC_InitStruct,
 254              	@ ../Libraries/STM32F4xx_StdPeriph_Driver/src/stm32f4xx_dac.c:240: }
 240:../Libraries/STM32F4xx_StdPeriph_Driver/src/stm32f4xx_dac.c **** }
 255              		.loc 1 240 1 view .LVU39
 256 000a 7047     		bx	lr	@
 257              		.cfi_endproc
 258              	.LFE112:
 259              		.size	DAC_StructInit, .-DAC_StructInit
 260              		.section	.text.DAC_Cmd,"ax",%progbits
 261              		.align	1
 262              		.p2align 2,,3
 263              		.global	DAC_Cmd
 264              		.syntax unified
ARM GAS  C:\Users\admin\AppData\Local\Temp\ccNMST8T.s 			page 10


 265              		.thumb
 266              		.thumb_func
 267              		.type	DAC_Cmd, %function
 268              	DAC_Cmd:
 269              	.LVL10:
 270              	.LFB113:
 241:../Libraries/STM32F4xx_StdPeriph_Driver/src/stm32f4xx_dac.c **** 
 242:../Libraries/STM32F4xx_StdPeriph_Driver/src/stm32f4xx_dac.c **** /**
 243:../Libraries/STM32F4xx_StdPeriph_Driver/src/stm32f4xx_dac.c ****   * @brief  Enables or disables the specified DAC channel.
 244:../Libraries/STM32F4xx_StdPeriph_Driver/src/stm32f4xx_dac.c ****   * @param  DAC_Channel: The selected DAC channel. 
 245:../Libraries/STM32F4xx_StdPeriph_Driver/src/stm32f4xx_dac.c ****   *          This parameter can be one of the following values:
 246:../Libraries/STM32F4xx_StdPeriph_Driver/src/stm32f4xx_dac.c ****   *            @arg DAC_Channel_1: DAC Channel1 selected
 247:../Libraries/STM32F4xx_StdPeriph_Driver/src/stm32f4xx_dac.c ****   *            @arg DAC_Channel_2: DAC Channel2 selected
 248:../Libraries/STM32F4xx_StdPeriph_Driver/src/stm32f4xx_dac.c ****   * @param  NewState: new state of the DAC channel. 
 249:../Libraries/STM32F4xx_StdPeriph_Driver/src/stm32f4xx_dac.c ****   *          This parameter can be: ENABLE or DISABLE.
 250:../Libraries/STM32F4xx_StdPeriph_Driver/src/stm32f4xx_dac.c ****   * @note   When the DAC channel is enabled the trigger source can no more be modified.
 251:../Libraries/STM32F4xx_StdPeriph_Driver/src/stm32f4xx_dac.c ****   * @retval None
 252:../Libraries/STM32F4xx_StdPeriph_Driver/src/stm32f4xx_dac.c ****   */
 253:../Libraries/STM32F4xx_StdPeriph_Driver/src/stm32f4xx_dac.c **** void DAC_Cmd(uint32_t DAC_Channel, FunctionalState NewState)
 254:../Libraries/STM32F4xx_StdPeriph_Driver/src/stm32f4xx_dac.c **** {
 271              		.loc 1 254 1 is_stmt 1 view -0
 272              		.cfi_startproc
 273              		@ args = 0, pretend = 0, frame = 0
 274              		@ frame_needed = 0, uses_anonymous_args = 0
 275              		@ link register save eliminated.
 255:../Libraries/STM32F4xx_StdPeriph_Driver/src/stm32f4xx_dac.c ****   /* Check the parameters */
 256:../Libraries/STM32F4xx_StdPeriph_Driver/src/stm32f4xx_dac.c ****   assert_param(IS_DAC_CHANNEL(DAC_Channel));
 276              		.loc 1 256 3 view .LVU41
 257:../Libraries/STM32F4xx_StdPeriph_Driver/src/stm32f4xx_dac.c ****   assert_param(IS_FUNCTIONAL_STATE(NewState));
 277              		.loc 1 257 3 view .LVU42
 258:../Libraries/STM32F4xx_StdPeriph_Driver/src/stm32f4xx_dac.c **** 
 259:../Libraries/STM32F4xx_StdPeriph_Driver/src/stm32f4xx_dac.c ****   if (NewState != DISABLE)
 278              		.loc 1 259 3 view .LVU43
 279              	@ ../Libraries/STM32F4xx_StdPeriph_Driver/src/stm32f4xx_dac.c:259:   if (NewState != DISABLE)
 280              		.loc 1 259 6 is_stmt 0 view .LVU44
 281 0000 39B1     		cbz	r1, .L10	@ tmp132,
 260:../Libraries/STM32F4xx_StdPeriph_Driver/src/stm32f4xx_dac.c ****   {
 261:../Libraries/STM32F4xx_StdPeriph_Driver/src/stm32f4xx_dac.c ****     /* Enable the selected DAC channel */
 262:../Libraries/STM32F4xx_StdPeriph_Driver/src/stm32f4xx_dac.c ****     DAC->CR |= (DAC_CR_EN1 << DAC_Channel);
 282              		.loc 1 262 5 is_stmt 1 view .LVU45
 283              	@ ../Libraries/STM32F4xx_StdPeriph_Driver/src/stm32f4xx_dac.c:262:     DAC->CR |= (DAC_CR_EN1 << DA
 284              		.loc 1 262 13 is_stmt 0 view .LVU46
 285 0002 084A     		ldr	r2, .L12	@ tmp122,
 286              	@ ../Libraries/STM32F4xx_StdPeriph_Driver/src/stm32f4xx_dac.c:262:     DAC->CR |= (DAC_CR_EN1 << DA
 287              		.loc 1 262 28 view .LVU47
 288 0004 0123     		movs	r3, #1	@ tmp124,
 289              	@ ../Libraries/STM32F4xx_StdPeriph_Driver/src/stm32f4xx_dac.c:262:     DAC->CR |= (DAC_CR_EN1 << DA
 290              		.loc 1 262 13 view .LVU48
 291 0006 1168     		ldr	r1, [r2]	@ _1, MEM[(struct DAC_TypeDef *)1073771520B].CR
 292              	.LVL11:
 293              	@ ../Libraries/STM32F4xx_StdPeriph_Driver/src/stm32f4xx_dac.c:262:     DAC->CR |= (DAC_CR_EN1 << DA
 294              		.loc 1 262 28 view .LVU49
 295 0008 03FA00F0 		lsl	r0, r3, r0	@ tmp123, tmp124, DAC_Channel
 296              	.LVL12:
 297              	@ ../Libraries/STM32F4xx_StdPeriph_Driver/src/stm32f4xx_dac.c:262:     DAC->CR |= (DAC_CR_EN1 << DA
 298              		.loc 1 262 13 view .LVU50
 299 000c 0843     		orrs	r0, r0, r1	@, _3, tmp123, _1
ARM GAS  C:\Users\admin\AppData\Local\Temp\ccNMST8T.s 			page 11


 300 000e 1060     		str	r0, [r2]	@ _3, MEM[(struct DAC_TypeDef *)1073771520B].CR
 301 0010 7047     		bx	lr	@
 302              	.LVL13:
 303              	.L10:
 263:../Libraries/STM32F4xx_StdPeriph_Driver/src/stm32f4xx_dac.c ****   }
 264:../Libraries/STM32F4xx_StdPeriph_Driver/src/stm32f4xx_dac.c ****   else
 265:../Libraries/STM32F4xx_StdPeriph_Driver/src/stm32f4xx_dac.c ****   {
 266:../Libraries/STM32F4xx_StdPeriph_Driver/src/stm32f4xx_dac.c ****     /* Disable the selected DAC channel */
 267:../Libraries/STM32F4xx_StdPeriph_Driver/src/stm32f4xx_dac.c ****     DAC->CR &= (~(DAC_CR_EN1 << DAC_Channel));
 304              		.loc 1 267 5 is_stmt 1 view .LVU51
 305              	@ ../Libraries/STM32F4xx_StdPeriph_Driver/src/stm32f4xx_dac.c:267:     DAC->CR &= (~(DAC_CR_EN1 << 
 306              		.loc 1 267 13 is_stmt 0 view .LVU52
 307 0012 0449     		ldr	r1, .L12	@ tmp126,
 308              	.LVL14:
 309              	@ ../Libraries/STM32F4xx_StdPeriph_Driver/src/stm32f4xx_dac.c:267:     DAC->CR &= (~(DAC_CR_EN1 << 
 310              		.loc 1 267 30 view .LVU53
 311 0014 0122     		movs	r2, #1	@ tmp128,
 312              	@ ../Libraries/STM32F4xx_StdPeriph_Driver/src/stm32f4xx_dac.c:267:     DAC->CR &= (~(DAC_CR_EN1 << 
 313              		.loc 1 267 13 view .LVU54
 314 0016 0B68     		ldr	r3, [r1]	@ _4, MEM[(struct DAC_TypeDef *)1073771520B].CR
 315              	@ ../Libraries/STM32F4xx_StdPeriph_Driver/src/stm32f4xx_dac.c:267:     DAC->CR &= (~(DAC_CR_EN1 << 
 316              		.loc 1 267 30 view .LVU55
 317 0018 02FA00F0 		lsl	r0, r2, r0	@ tmp127, tmp128, DAC_Channel
 318              	.LVL15:
 319              	@ ../Libraries/STM32F4xx_StdPeriph_Driver/src/stm32f4xx_dac.c:267:     DAC->CR &= (~(DAC_CR_EN1 << 
 320              		.loc 1 267 13 view .LVU56
 321 001c 23EA0000 		bic	r0, r3, r0	@ _7, _4, tmp127
 322 0020 0860     		str	r0, [r1]	@ _7, MEM[(struct DAC_TypeDef *)1073771520B].CR
 323              	@ ../Libraries/STM32F4xx_StdPeriph_Driver/src/stm32f4xx_dac.c:269: }
 268:../Libraries/STM32F4xx_StdPeriph_Driver/src/stm32f4xx_dac.c ****   }
 269:../Libraries/STM32F4xx_StdPeriph_Driver/src/stm32f4xx_dac.c **** }
 324              		.loc 1 269 1 view .LVU57
 325 0022 7047     		bx	lr	@
 326              	.L13:
 327              		.align	2
 328              	.L12:
 329 0024 00740040 		.word	1073771520
 330              		.cfi_endproc
 331              	.LFE113:
 332              		.size	DAC_Cmd, .-DAC_Cmd
 333              		.section	.text.DAC_SoftwareTriggerCmd,"ax",%progbits
 334              		.align	1
 335              		.p2align 2,,3
 336              		.global	DAC_SoftwareTriggerCmd
 337              		.syntax unified
 338              		.thumb
 339              		.thumb_func
 340              		.type	DAC_SoftwareTriggerCmd, %function
 341              	DAC_SoftwareTriggerCmd:
 342              	.LVL16:
 343              	.LFB114:
 270:../Libraries/STM32F4xx_StdPeriph_Driver/src/stm32f4xx_dac.c **** 
 271:../Libraries/STM32F4xx_StdPeriph_Driver/src/stm32f4xx_dac.c **** /**
 272:../Libraries/STM32F4xx_StdPeriph_Driver/src/stm32f4xx_dac.c ****   * @brief  Enables or disables the selected DAC channel software trigger.
 273:../Libraries/STM32F4xx_StdPeriph_Driver/src/stm32f4xx_dac.c ****   * @param  DAC_Channel: The selected DAC channel. 
 274:../Libraries/STM32F4xx_StdPeriph_Driver/src/stm32f4xx_dac.c ****   *          This parameter can be one of the following values:
 275:../Libraries/STM32F4xx_StdPeriph_Driver/src/stm32f4xx_dac.c ****   *            @arg DAC_Channel_1: DAC Channel1 selected
ARM GAS  C:\Users\admin\AppData\Local\Temp\ccNMST8T.s 			page 12


 276:../Libraries/STM32F4xx_StdPeriph_Driver/src/stm32f4xx_dac.c ****   *            @arg DAC_Channel_2: DAC Channel2 selected
 277:../Libraries/STM32F4xx_StdPeriph_Driver/src/stm32f4xx_dac.c ****   * @param  NewState: new state of the selected DAC channel software trigger.
 278:../Libraries/STM32F4xx_StdPeriph_Driver/src/stm32f4xx_dac.c ****   *          This parameter can be: ENABLE or DISABLE.
 279:../Libraries/STM32F4xx_StdPeriph_Driver/src/stm32f4xx_dac.c ****   * @retval None
 280:../Libraries/STM32F4xx_StdPeriph_Driver/src/stm32f4xx_dac.c ****   */
 281:../Libraries/STM32F4xx_StdPeriph_Driver/src/stm32f4xx_dac.c **** void DAC_SoftwareTriggerCmd(uint32_t DAC_Channel, FunctionalState NewState)
 282:../Libraries/STM32F4xx_StdPeriph_Driver/src/stm32f4xx_dac.c **** {
 344              		.loc 1 282 1 is_stmt 1 view -0
 345              		.cfi_startproc
 346              		@ args = 0, pretend = 0, frame = 0
 347              		@ frame_needed = 0, uses_anonymous_args = 0
 348              		@ link register save eliminated.
 283:../Libraries/STM32F4xx_StdPeriph_Driver/src/stm32f4xx_dac.c ****   /* Check the parameters */
 284:../Libraries/STM32F4xx_StdPeriph_Driver/src/stm32f4xx_dac.c ****   assert_param(IS_DAC_CHANNEL(DAC_Channel));
 349              		.loc 1 284 3 view .LVU59
 285:../Libraries/STM32F4xx_StdPeriph_Driver/src/stm32f4xx_dac.c ****   assert_param(IS_FUNCTIONAL_STATE(NewState));
 350              		.loc 1 285 3 view .LVU60
 286:../Libraries/STM32F4xx_StdPeriph_Driver/src/stm32f4xx_dac.c **** 
 287:../Libraries/STM32F4xx_StdPeriph_Driver/src/stm32f4xx_dac.c ****   if (NewState != DISABLE)
 351              		.loc 1 287 3 view .LVU61
 352              	@ ../Libraries/STM32F4xx_StdPeriph_Driver/src/stm32f4xx_dac.c:287:   if (NewState != DISABLE)
 353              		.loc 1 287 6 is_stmt 0 view .LVU62
 354 0000 41B1     		cbz	r1, .L15	@ tmp136,
 288:../Libraries/STM32F4xx_StdPeriph_Driver/src/stm32f4xx_dac.c ****   {
 289:../Libraries/STM32F4xx_StdPeriph_Driver/src/stm32f4xx_dac.c ****     /* Enable software trigger for the selected DAC channel */
 290:../Libraries/STM32F4xx_StdPeriph_Driver/src/stm32f4xx_dac.c ****     DAC->SWTRIGR |= (uint32_t)DAC_SWTRIGR_SWTRIG1 << (DAC_Channel >> 4);
 355              		.loc 1 290 5 is_stmt 1 view .LVU63
 356              	@ ../Libraries/STM32F4xx_StdPeriph_Driver/src/stm32f4xx_dac.c:290:     DAC->SWTRIGR |= (uint32_t)DA
 357              		.loc 1 290 18 is_stmt 0 view .LVU64
 358 0002 094A     		ldr	r2, .L17	@ tmp124,
 359              	@ ../Libraries/STM32F4xx_StdPeriph_Driver/src/stm32f4xx_dac.c:290:     DAC->SWTRIGR |= (uint32_t)DA
 360              		.loc 1 290 67 view .LVU65
 361 0004 0009     		lsrs	r0, r0, #4	@ tmp125, DAC_Channel,
 362              	.LVL17:
 363              	@ ../Libraries/STM32F4xx_StdPeriph_Driver/src/stm32f4xx_dac.c:290:     DAC->SWTRIGR |= (uint32_t)DA
 364              		.loc 1 290 18 view .LVU66
 365 0006 5168     		ldr	r1, [r2, #4]	@ _1, MEM[(struct DAC_TypeDef *)1073771520B].SWTRIGR
 366              	.LVL18:
 367              	@ ../Libraries/STM32F4xx_StdPeriph_Driver/src/stm32f4xx_dac.c:290:     DAC->SWTRIGR |= (uint32_t)DA
 368              		.loc 1 290 51 view .LVU67
 369 0008 0123     		movs	r3, #1	@ tmp127,
 370 000a 03FA00F0 		lsl	r0, r3, r0	@ tmp126, tmp127, tmp125
 371              	@ ../Libraries/STM32F4xx_StdPeriph_Driver/src/stm32f4xx_dac.c:290:     DAC->SWTRIGR |= (uint32_t)DA
 372              		.loc 1 290 18 view .LVU68
 373 000e 0843     		orrs	r0, r0, r1	@, _4, tmp126, _1
 374 0010 5060     		str	r0, [r2, #4]	@ _4, MEM[(struct DAC_TypeDef *)1073771520B].SWTRIGR
 375 0012 7047     		bx	lr	@
 376              	.LVL19:
 377              	.L15:
 291:../Libraries/STM32F4xx_StdPeriph_Driver/src/stm32f4xx_dac.c ****   }
 292:../Libraries/STM32F4xx_StdPeriph_Driver/src/stm32f4xx_dac.c ****   else
 293:../Libraries/STM32F4xx_StdPeriph_Driver/src/stm32f4xx_dac.c ****   {
 294:../Libraries/STM32F4xx_StdPeriph_Driver/src/stm32f4xx_dac.c ****     /* Disable software trigger for the selected DAC channel */
 295:../Libraries/STM32F4xx_StdPeriph_Driver/src/stm32f4xx_dac.c ****     DAC->SWTRIGR &= ~((uint32_t)DAC_SWTRIGR_SWTRIG1 << (DAC_Channel >> 4));
 378              		.loc 1 295 5 is_stmt 1 view .LVU69
 379              	@ ../Libraries/STM32F4xx_StdPeriph_Driver/src/stm32f4xx_dac.c:295:     DAC->SWTRIGR &= ~((uint32_t)
 380              		.loc 1 295 18 is_stmt 0 view .LVU70
ARM GAS  C:\Users\admin\AppData\Local\Temp\ccNMST8T.s 			page 13


 381 0014 0449     		ldr	r1, .L17	@ tmp129,
 382              	.LVL20:
 383              	@ ../Libraries/STM32F4xx_StdPeriph_Driver/src/stm32f4xx_dac.c:295:     DAC->SWTRIGR &= ~((uint32_t)
 384              		.loc 1 295 69 view .LVU71
 385 0016 0009     		lsrs	r0, r0, #4	@ tmp130, DAC_Channel,
 386              	.LVL21:
 387              	@ ../Libraries/STM32F4xx_StdPeriph_Driver/src/stm32f4xx_dac.c:295:     DAC->SWTRIGR &= ~((uint32_t)
 388              		.loc 1 295 18 view .LVU72
 389 0018 4B68     		ldr	r3, [r1, #4]	@ _5, MEM[(struct DAC_TypeDef *)1073771520B].SWTRIGR
 390              	@ ../Libraries/STM32F4xx_StdPeriph_Driver/src/stm32f4xx_dac.c:295:     DAC->SWTRIGR &= ~((uint32_t)
 391              		.loc 1 295 53 view .LVU73
 392 001a 0122     		movs	r2, #1	@ tmp132,
 393 001c 02FA00F0 		lsl	r0, r2, r0	@ tmp131, tmp132, tmp130
 394              	@ ../Libraries/STM32F4xx_StdPeriph_Driver/src/stm32f4xx_dac.c:295:     DAC->SWTRIGR &= ~((uint32_t)
 395              		.loc 1 295 18 view .LVU74
 396 0020 23EA0000 		bic	r0, r3, r0	@ _9, _5, tmp131
 397 0024 4860     		str	r0, [r1, #4]	@ _9, MEM[(struct DAC_TypeDef *)1073771520B].SWTRIGR
 398              	@ ../Libraries/STM32F4xx_StdPeriph_Driver/src/stm32f4xx_dac.c:297: }
 296:../Libraries/STM32F4xx_StdPeriph_Driver/src/stm32f4xx_dac.c ****   }
 297:../Libraries/STM32F4xx_StdPeriph_Driver/src/stm32f4xx_dac.c **** }
 399              		.loc 1 297 1 view .LVU75
 400 0026 7047     		bx	lr	@
 401              	.L18:
 402              		.align	2
 403              	.L17:
 404 0028 00740040 		.word	1073771520
 405              		.cfi_endproc
 406              	.LFE114:
 407              		.size	DAC_SoftwareTriggerCmd, .-DAC_SoftwareTriggerCmd
 408              		.section	.text.DAC_DualSoftwareTriggerCmd,"ax",%progbits
 409              		.align	1
 410              		.p2align 2,,3
 411              		.global	DAC_DualSoftwareTriggerCmd
 412              		.syntax unified
 413              		.thumb
 414              		.thumb_func
 415              		.type	DAC_DualSoftwareTriggerCmd, %function
 416              	DAC_DualSoftwareTriggerCmd:
 417              	.LVL22:
 418              	.LFB115:
 298:../Libraries/STM32F4xx_StdPeriph_Driver/src/stm32f4xx_dac.c **** 
 299:../Libraries/STM32F4xx_StdPeriph_Driver/src/stm32f4xx_dac.c **** /**
 300:../Libraries/STM32F4xx_StdPeriph_Driver/src/stm32f4xx_dac.c ****   * @brief  Enables or disables simultaneously the two DAC channels software triggers.
 301:../Libraries/STM32F4xx_StdPeriph_Driver/src/stm32f4xx_dac.c ****   * @param  NewState: new state of the DAC channels software triggers.
 302:../Libraries/STM32F4xx_StdPeriph_Driver/src/stm32f4xx_dac.c ****   *          This parameter can be: ENABLE or DISABLE.
 303:../Libraries/STM32F4xx_StdPeriph_Driver/src/stm32f4xx_dac.c ****   * @retval None
 304:../Libraries/STM32F4xx_StdPeriph_Driver/src/stm32f4xx_dac.c ****   */
 305:../Libraries/STM32F4xx_StdPeriph_Driver/src/stm32f4xx_dac.c **** void DAC_DualSoftwareTriggerCmd(FunctionalState NewState)
 306:../Libraries/STM32F4xx_StdPeriph_Driver/src/stm32f4xx_dac.c **** {
 419              		.loc 1 306 1 is_stmt 1 view -0
 420              		.cfi_startproc
 421              		@ args = 0, pretend = 0, frame = 0
 422              		@ frame_needed = 0, uses_anonymous_args = 0
 423              		@ link register save eliminated.
 307:../Libraries/STM32F4xx_StdPeriph_Driver/src/stm32f4xx_dac.c ****   /* Check the parameters */
 308:../Libraries/STM32F4xx_StdPeriph_Driver/src/stm32f4xx_dac.c ****   assert_param(IS_FUNCTIONAL_STATE(NewState));
 424              		.loc 1 308 3 view .LVU77
ARM GAS  C:\Users\admin\AppData\Local\Temp\ccNMST8T.s 			page 14


 309:../Libraries/STM32F4xx_StdPeriph_Driver/src/stm32f4xx_dac.c **** 
 310:../Libraries/STM32F4xx_StdPeriph_Driver/src/stm32f4xx_dac.c ****   if (NewState != DISABLE)
 425              		.loc 1 310 3 view .LVU78
 426              	@ ../Libraries/STM32F4xx_StdPeriph_Driver/src/stm32f4xx_dac.c:313:     DAC->SWTRIGR |= DUAL_SWTRIG_
 311:../Libraries/STM32F4xx_StdPeriph_Driver/src/stm32f4xx_dac.c ****   {
 312:../Libraries/STM32F4xx_StdPeriph_Driver/src/stm32f4xx_dac.c ****     /* Enable software trigger for both DAC channels */
 313:../Libraries/STM32F4xx_StdPeriph_Driver/src/stm32f4xx_dac.c ****     DAC->SWTRIGR |= DUAL_SWTRIG_SET;
 427              		.loc 1 313 18 is_stmt 0 view .LVU79
 428 0000 054A     		ldr	r2, .L22	@ tmp118,
 429 0002 5368     		ldr	r3, [r2, #4]	@ _1,
 430              	@ ../Libraries/STM32F4xx_StdPeriph_Driver/src/stm32f4xx_dac.c:310:   if (NewState != DISABLE)
 310:../Libraries/STM32F4xx_StdPeriph_Driver/src/stm32f4xx_dac.c ****   {
 431              		.loc 1 310 6 view .LVU80
 432 0004 18B1     		cbz	r0, .L20	@ tmp122,
 433              		.loc 1 313 5 is_stmt 1 view .LVU81
 434              	@ ../Libraries/STM32F4xx_StdPeriph_Driver/src/stm32f4xx_dac.c:313:     DAC->SWTRIGR |= DUAL_SWTRIG_
 435              		.loc 1 313 18 is_stmt 0 view .LVU82
 436 0006 43F00303 		orr	r3, r3, #3	@ _2, _1,
 437 000a 5360     		str	r3, [r2, #4]	@ _2,
 438 000c 7047     		bx	lr	@
 439              	.L20:
 314:../Libraries/STM32F4xx_StdPeriph_Driver/src/stm32f4xx_dac.c ****   }
 315:../Libraries/STM32F4xx_StdPeriph_Driver/src/stm32f4xx_dac.c ****   else
 316:../Libraries/STM32F4xx_StdPeriph_Driver/src/stm32f4xx_dac.c ****   {
 317:../Libraries/STM32F4xx_StdPeriph_Driver/src/stm32f4xx_dac.c ****     /* Disable software trigger for both DAC channels */
 318:../Libraries/STM32F4xx_StdPeriph_Driver/src/stm32f4xx_dac.c ****     DAC->SWTRIGR &= DUAL_SWTRIG_RESET;
 440              		.loc 1 318 5 is_stmt 1 view .LVU83
 441              	@ ../Libraries/STM32F4xx_StdPeriph_Driver/src/stm32f4xx_dac.c:318:     DAC->SWTRIGR &= DUAL_SWTRIG_
 442              		.loc 1 318 18 is_stmt 0 view .LVU84
 443 000e 23F00303 		bic	r3, r3, #3	@ _4, _3,
 444 0012 5360     		str	r3, [r2, #4]	@ _4,
 445              	@ ../Libraries/STM32F4xx_StdPeriph_Driver/src/stm32f4xx_dac.c:320: }
 319:../Libraries/STM32F4xx_StdPeriph_Driver/src/stm32f4xx_dac.c ****   }
 320:../Libraries/STM32F4xx_StdPeriph_Driver/src/stm32f4xx_dac.c **** }
 446              		.loc 1 320 1 view .LVU85
 447 0014 7047     		bx	lr	@
 448              	.L23:
 449 0016 00BF     		.align	2
 450              	.L22:
 451 0018 00740040 		.word	1073771520
 452              		.cfi_endproc
 453              	.LFE115:
 454              		.size	DAC_DualSoftwareTriggerCmd, .-DAC_DualSoftwareTriggerCmd
 455              		.section	.text.DAC_WaveGenerationCmd,"ax",%progbits
 456              		.align	1
 457              		.p2align 2,,3
 458              		.global	DAC_WaveGenerationCmd
 459              		.syntax unified
 460              		.thumb
 461              		.thumb_func
 462              		.type	DAC_WaveGenerationCmd, %function
 463              	DAC_WaveGenerationCmd:
 464              	.LVL23:
 465              	.LFB116:
 321:../Libraries/STM32F4xx_StdPeriph_Driver/src/stm32f4xx_dac.c **** 
 322:../Libraries/STM32F4xx_StdPeriph_Driver/src/stm32f4xx_dac.c **** /**
 323:../Libraries/STM32F4xx_StdPeriph_Driver/src/stm32f4xx_dac.c ****   * @brief  Enables or disables the selected DAC channel wave generation.
ARM GAS  C:\Users\admin\AppData\Local\Temp\ccNMST8T.s 			page 15


 324:../Libraries/STM32F4xx_StdPeriph_Driver/src/stm32f4xx_dac.c ****   * @param  DAC_Channel: The selected DAC channel. 
 325:../Libraries/STM32F4xx_StdPeriph_Driver/src/stm32f4xx_dac.c ****   *          This parameter can be one of the following values:
 326:../Libraries/STM32F4xx_StdPeriph_Driver/src/stm32f4xx_dac.c ****   *            @arg DAC_Channel_1: DAC Channel1 selected
 327:../Libraries/STM32F4xx_StdPeriph_Driver/src/stm32f4xx_dac.c ****   *            @arg DAC_Channel_2: DAC Channel2 selected
 328:../Libraries/STM32F4xx_StdPeriph_Driver/src/stm32f4xx_dac.c ****   * @param  DAC_Wave: specifies the wave type to enable or disable.
 329:../Libraries/STM32F4xx_StdPeriph_Driver/src/stm32f4xx_dac.c ****   *          This parameter can be one of the following values:
 330:../Libraries/STM32F4xx_StdPeriph_Driver/src/stm32f4xx_dac.c ****   *            @arg DAC_Wave_Noise: noise wave generation
 331:../Libraries/STM32F4xx_StdPeriph_Driver/src/stm32f4xx_dac.c ****   *            @arg DAC_Wave_Triangle: triangle wave generation
 332:../Libraries/STM32F4xx_StdPeriph_Driver/src/stm32f4xx_dac.c ****   * @param  NewState: new state of the selected DAC channel wave generation.
 333:../Libraries/STM32F4xx_StdPeriph_Driver/src/stm32f4xx_dac.c ****   *          This parameter can be: ENABLE or DISABLE.  
 334:../Libraries/STM32F4xx_StdPeriph_Driver/src/stm32f4xx_dac.c ****   * @retval None
 335:../Libraries/STM32F4xx_StdPeriph_Driver/src/stm32f4xx_dac.c ****   */
 336:../Libraries/STM32F4xx_StdPeriph_Driver/src/stm32f4xx_dac.c **** void DAC_WaveGenerationCmd(uint32_t DAC_Channel, uint32_t DAC_Wave, FunctionalState NewState)
 337:../Libraries/STM32F4xx_StdPeriph_Driver/src/stm32f4xx_dac.c **** {
 466              		.loc 1 337 1 is_stmt 1 view -0
 467              		.cfi_startproc
 468              		@ args = 0, pretend = 0, frame = 0
 469              		@ frame_needed = 0, uses_anonymous_args = 0
 470              		@ link register save eliminated.
 338:../Libraries/STM32F4xx_StdPeriph_Driver/src/stm32f4xx_dac.c ****   /* Check the parameters */
 339:../Libraries/STM32F4xx_StdPeriph_Driver/src/stm32f4xx_dac.c ****   assert_param(IS_DAC_CHANNEL(DAC_Channel));
 471              		.loc 1 339 3 view .LVU87
 340:../Libraries/STM32F4xx_StdPeriph_Driver/src/stm32f4xx_dac.c ****   assert_param(IS_DAC_WAVE(DAC_Wave)); 
 472              		.loc 1 340 3 view .LVU88
 341:../Libraries/STM32F4xx_StdPeriph_Driver/src/stm32f4xx_dac.c ****   assert_param(IS_FUNCTIONAL_STATE(NewState));
 473              		.loc 1 341 3 view .LVU89
 342:../Libraries/STM32F4xx_StdPeriph_Driver/src/stm32f4xx_dac.c **** 
 343:../Libraries/STM32F4xx_StdPeriph_Driver/src/stm32f4xx_dac.c ****   if (NewState != DISABLE)
 474              		.loc 1 343 3 view .LVU90
 475              	@ ../Libraries/STM32F4xx_StdPeriph_Driver/src/stm32f4xx_dac.c:346:     DAC->CR |= DAC_Wave << DAC_C
 344:../Libraries/STM32F4xx_StdPeriph_Driver/src/stm32f4xx_dac.c ****   {
 345:../Libraries/STM32F4xx_StdPeriph_Driver/src/stm32f4xx_dac.c ****     /* Enable the selected wave generation for the selected DAC channel */
 346:../Libraries/STM32F4xx_StdPeriph_Driver/src/stm32f4xx_dac.c ****     DAC->CR |= DAC_Wave << DAC_Channel;
 476              		.loc 1 346 13 is_stmt 0 view .LVU91
 477 0000 054B     		ldr	r3, .L27	@ tmp123,
 478              	@ ../Libraries/STM32F4xx_StdPeriph_Driver/src/stm32f4xx_dac.c:346:     DAC->CR |= DAC_Wave << DAC_C
 479              		.loc 1 346 25 view .LVU92
 480 0002 8140     		lsls	r1, r1, r0	@ tmp124, DAC_Wave, DAC_Channel
 481              	.LVL24:
 482              	@ ../Libraries/STM32F4xx_StdPeriph_Driver/src/stm32f4xx_dac.c:346:     DAC->CR |= DAC_Wave << DAC_C
 483              		.loc 1 346 13 view .LVU93
 484 0004 1868     		ldr	r0, [r3]	@ _1,
 485              	.LVL25:
 486              	@ ../Libraries/STM32F4xx_StdPeriph_Driver/src/stm32f4xx_dac.c:343:   if (NewState != DISABLE)
 343:../Libraries/STM32F4xx_StdPeriph_Driver/src/stm32f4xx_dac.c ****   {
 487              		.loc 1 343 6 view .LVU94
 488 0006 12B1     		cbz	r2, .L25	@ tmp132,
 489              		.loc 1 346 5 is_stmt 1 view .LVU95
 490              	@ ../Libraries/STM32F4xx_StdPeriph_Driver/src/stm32f4xx_dac.c:346:     DAC->CR |= DAC_Wave << DAC_C
 491              		.loc 1 346 13 is_stmt 0 view .LVU96
 492 0008 0143     		orrs	r1, r1, r0	@, _3, tmp124, _1
 493 000a 1960     		str	r1, [r3]	@ _3,
 494 000c 7047     		bx	lr	@
 495              	.L25:
 347:../Libraries/STM32F4xx_StdPeriph_Driver/src/stm32f4xx_dac.c ****   }
 348:../Libraries/STM32F4xx_StdPeriph_Driver/src/stm32f4xx_dac.c ****   else
 349:../Libraries/STM32F4xx_StdPeriph_Driver/src/stm32f4xx_dac.c ****   {
ARM GAS  C:\Users\admin\AppData\Local\Temp\ccNMST8T.s 			page 16


 350:../Libraries/STM32F4xx_StdPeriph_Driver/src/stm32f4xx_dac.c ****     /* Disable the selected wave generation for the selected DAC channel */
 351:../Libraries/STM32F4xx_StdPeriph_Driver/src/stm32f4xx_dac.c ****     DAC->CR &= ~(DAC_Wave << DAC_Channel);
 496              		.loc 1 351 5 is_stmt 1 view .LVU97
 497              	@ ../Libraries/STM32F4xx_StdPeriph_Driver/src/stm32f4xx_dac.c:351:     DAC->CR &= ~(DAC_Wave << DAC
 498              		.loc 1 351 13 is_stmt 0 view .LVU98
 499 000e 20EA0101 		bic	r1, r0, r1	@ _7, _4, tmp127
 500 0012 1960     		str	r1, [r3]	@ _7,
 501              	@ ../Libraries/STM32F4xx_StdPeriph_Driver/src/stm32f4xx_dac.c:353: }
 352:../Libraries/STM32F4xx_StdPeriph_Driver/src/stm32f4xx_dac.c ****   }
 353:../Libraries/STM32F4xx_StdPeriph_Driver/src/stm32f4xx_dac.c **** }
 502              		.loc 1 353 1 view .LVU99
 503 0014 7047     		bx	lr	@
 504              	.L28:
 505 0016 00BF     		.align	2
 506              	.L27:
 507 0018 00740040 		.word	1073771520
 508              		.cfi_endproc
 509              	.LFE116:
 510              		.size	DAC_WaveGenerationCmd, .-DAC_WaveGenerationCmd
 511              		.section	.text.DAC_SetChannel1Data,"ax",%progbits
 512              		.align	1
 513              		.p2align 2,,3
 514              		.global	DAC_SetChannel1Data
 515              		.syntax unified
 516              		.thumb
 517              		.thumb_func
 518              		.type	DAC_SetChannel1Data, %function
 519              	DAC_SetChannel1Data:
 520              	.LVL26:
 521              	.LFB117:
 354:../Libraries/STM32F4xx_StdPeriph_Driver/src/stm32f4xx_dac.c **** 
 355:../Libraries/STM32F4xx_StdPeriph_Driver/src/stm32f4xx_dac.c **** /**
 356:../Libraries/STM32F4xx_StdPeriph_Driver/src/stm32f4xx_dac.c ****   * @brief  Set the specified data holding register value for DAC channel1.
 357:../Libraries/STM32F4xx_StdPeriph_Driver/src/stm32f4xx_dac.c ****   * @param  DAC_Align: Specifies the data alignment for DAC channel1.
 358:../Libraries/STM32F4xx_StdPeriph_Driver/src/stm32f4xx_dac.c ****   *          This parameter can be one of the following values:
 359:../Libraries/STM32F4xx_StdPeriph_Driver/src/stm32f4xx_dac.c ****   *            @arg DAC_Align_8b_R: 8bit right data alignment selected
 360:../Libraries/STM32F4xx_StdPeriph_Driver/src/stm32f4xx_dac.c ****   *            @arg DAC_Align_12b_L: 12bit left data alignment selected
 361:../Libraries/STM32F4xx_StdPeriph_Driver/src/stm32f4xx_dac.c ****   *            @arg DAC_Align_12b_R: 12bit right data alignment selected
 362:../Libraries/STM32F4xx_StdPeriph_Driver/src/stm32f4xx_dac.c ****   * @param  Data: Data to be loaded in the selected data holding register.
 363:../Libraries/STM32F4xx_StdPeriph_Driver/src/stm32f4xx_dac.c ****   * @retval None
 364:../Libraries/STM32F4xx_StdPeriph_Driver/src/stm32f4xx_dac.c ****   */
 365:../Libraries/STM32F4xx_StdPeriph_Driver/src/stm32f4xx_dac.c **** void DAC_SetChannel1Data(uint32_t DAC_Align, uint16_t Data)
 366:../Libraries/STM32F4xx_StdPeriph_Driver/src/stm32f4xx_dac.c **** {  
 522              		.loc 1 366 1 is_stmt 1 view -0
 523              		.cfi_startproc
 524              		@ args = 0, pretend = 0, frame = 8
 525              		@ frame_needed = 0, uses_anonymous_args = 0
 526              		@ link register save eliminated.
 367:../Libraries/STM32F4xx_StdPeriph_Driver/src/stm32f4xx_dac.c ****   __IO uint32_t tmp = 0;
 527              		.loc 1 367 3 view .LVU101
 528              	@ ../Libraries/STM32F4xx_StdPeriph_Driver/src/stm32f4xx_dac.c:366: {  
 366:../Libraries/STM32F4xx_StdPeriph_Driver/src/stm32f4xx_dac.c ****   __IO uint32_t tmp = 0;
 529              		.loc 1 366 1 is_stmt 0 view .LVU102
 530 0000 82B0     		sub	sp, sp, #8	@,,
 531              		.cfi_def_cfa_offset 8
 532              	@ ../Libraries/STM32F4xx_StdPeriph_Driver/src/stm32f4xx_dac.c:373:   tmp = (uint32_t)DAC_BASE; 
 368:../Libraries/STM32F4xx_StdPeriph_Driver/src/stm32f4xx_dac.c ****   
ARM GAS  C:\Users\admin\AppData\Local\Temp\ccNMST8T.s 			page 17


 369:../Libraries/STM32F4xx_StdPeriph_Driver/src/stm32f4xx_dac.c ****   /* Check the parameters */
 370:../Libraries/STM32F4xx_StdPeriph_Driver/src/stm32f4xx_dac.c ****   assert_param(IS_DAC_ALIGN(DAC_Align));
 371:../Libraries/STM32F4xx_StdPeriph_Driver/src/stm32f4xx_dac.c ****   assert_param(IS_DAC_DATA(Data));
 372:../Libraries/STM32F4xx_StdPeriph_Driver/src/stm32f4xx_dac.c ****   
 373:../Libraries/STM32F4xx_StdPeriph_Driver/src/stm32f4xx_dac.c ****   tmp = (uint32_t)DAC_BASE; 
 533              		.loc 1 373 7 view .LVU103
 534 0002 064B     		ldr	r3, .L31	@ tmp122,
 535              	@ ../Libraries/STM32F4xx_StdPeriph_Driver/src/stm32f4xx_dac.c:367:   __IO uint32_t tmp = 0;
 367:../Libraries/STM32F4xx_StdPeriph_Driver/src/stm32f4xx_dac.c ****   
 536              		.loc 1 367 17 view .LVU104
 537 0004 0022     		movs	r2, #0	@ tmp121,
 538 0006 0192     		str	r2, [sp, #4]	@ tmp121, tmp
 370:../Libraries/STM32F4xx_StdPeriph_Driver/src/stm32f4xx_dac.c ****   assert_param(IS_DAC_DATA(Data));
 539              		.loc 1 370 3 is_stmt 1 view .LVU105
 371:../Libraries/STM32F4xx_StdPeriph_Driver/src/stm32f4xx_dac.c ****   
 540              		.loc 1 371 3 view .LVU106
 541              		.loc 1 373 3 view .LVU107
 542              	@ ../Libraries/STM32F4xx_StdPeriph_Driver/src/stm32f4xx_dac.c:373:   tmp = (uint32_t)DAC_BASE; 
 543              		.loc 1 373 7 is_stmt 0 view .LVU108
 544 0008 0193     		str	r3, [sp, #4]	@ tmp122, tmp
 374:../Libraries/STM32F4xx_StdPeriph_Driver/src/stm32f4xx_dac.c ****   tmp += DHR12R1_OFFSET + DAC_Align;
 545              		.loc 1 374 3 is_stmt 1 view .LVU109
 546              	@ ../Libraries/STM32F4xx_StdPeriph_Driver/src/stm32f4xx_dac.c:374:   tmp += DHR12R1_OFFSET + DAC_Al
 547              		.loc 1 374 7 is_stmt 0 view .LVU110
 548 000a 019B     		ldr	r3, [sp, #4]	@ tmp.0_1, tmp
 549 000c 0833     		adds	r3, r3, #8	@ tmp123, tmp.0_1,
 550 000e 0344     		add	r3, r3, r0	@ _3, tmp124
 551 0010 0193     		str	r3, [sp, #4]	@ _3, tmp
 375:../Libraries/STM32F4xx_StdPeriph_Driver/src/stm32f4xx_dac.c **** 
 376:../Libraries/STM32F4xx_StdPeriph_Driver/src/stm32f4xx_dac.c ****   /* Set the DAC channel1 selected data holding register */
 377:../Libraries/STM32F4xx_StdPeriph_Driver/src/stm32f4xx_dac.c ****   *(__IO uint32_t *) tmp = Data;
 552              		.loc 1 377 3 is_stmt 1 view .LVU111
 553              	@ ../Libraries/STM32F4xx_StdPeriph_Driver/src/stm32f4xx_dac.c:377:   *(__IO uint32_t *) tmp = Data;
 554              		.loc 1 377 4 is_stmt 0 view .LVU112
 555 0012 019B     		ldr	r3, [sp, #4]	@ tmp.1_4, tmp
 556              	@ ../Libraries/STM32F4xx_StdPeriph_Driver/src/stm32f4xx_dac.c:377:   *(__IO uint32_t *) tmp = Data;
 557              		.loc 1 377 26 view .LVU113
 558 0014 1960     		str	r1, [r3]	@ Data, *tmp.2_5
 559              	@ ../Libraries/STM32F4xx_StdPeriph_Driver/src/stm32f4xx_dac.c:378: }
 378:../Libraries/STM32F4xx_StdPeriph_Driver/src/stm32f4xx_dac.c **** }
 560              		.loc 1 378 1 view .LVU114
 561 0016 02B0     		add	sp, sp, #8	@,,
 562              		.cfi_def_cfa_offset 0
 563              		@ sp needed	@
 564 0018 7047     		bx	lr	@
 565              	.L32:
 566 001a 00BF     		.align	2
 567              	.L31:
 568 001c 00740040 		.word	1073771520
 569              		.cfi_endproc
 570              	.LFE117:
 571              		.size	DAC_SetChannel1Data, .-DAC_SetChannel1Data
 572              		.section	.text.DAC_SetChannel2Data,"ax",%progbits
 573              		.align	1
 574              		.p2align 2,,3
 575              		.global	DAC_SetChannel2Data
 576              		.syntax unified
ARM GAS  C:\Users\admin\AppData\Local\Temp\ccNMST8T.s 			page 18


 577              		.thumb
 578              		.thumb_func
 579              		.type	DAC_SetChannel2Data, %function
 580              	DAC_SetChannel2Data:
 581              	.LVL27:
 582              	.LFB118:
 379:../Libraries/STM32F4xx_StdPeriph_Driver/src/stm32f4xx_dac.c **** 
 380:../Libraries/STM32F4xx_StdPeriph_Driver/src/stm32f4xx_dac.c **** /**
 381:../Libraries/STM32F4xx_StdPeriph_Driver/src/stm32f4xx_dac.c ****   * @brief  Set the specified data holding register value for DAC channel2.
 382:../Libraries/STM32F4xx_StdPeriph_Driver/src/stm32f4xx_dac.c ****   * @param  DAC_Align: Specifies the data alignment for DAC channel2.
 383:../Libraries/STM32F4xx_StdPeriph_Driver/src/stm32f4xx_dac.c ****   *          This parameter can be one of the following values:
 384:../Libraries/STM32F4xx_StdPeriph_Driver/src/stm32f4xx_dac.c ****   *            @arg DAC_Align_8b_R: 8bit right data alignment selected
 385:../Libraries/STM32F4xx_StdPeriph_Driver/src/stm32f4xx_dac.c ****   *            @arg DAC_Align_12b_L: 12bit left data alignment selected
 386:../Libraries/STM32F4xx_StdPeriph_Driver/src/stm32f4xx_dac.c ****   *            @arg DAC_Align_12b_R: 12bit right data alignment selected
 387:../Libraries/STM32F4xx_StdPeriph_Driver/src/stm32f4xx_dac.c ****   * @param  Data: Data to be loaded in the selected data holding register.
 388:../Libraries/STM32F4xx_StdPeriph_Driver/src/stm32f4xx_dac.c ****   * @retval None
 389:../Libraries/STM32F4xx_StdPeriph_Driver/src/stm32f4xx_dac.c ****   */
 390:../Libraries/STM32F4xx_StdPeriph_Driver/src/stm32f4xx_dac.c **** void DAC_SetChannel2Data(uint32_t DAC_Align, uint16_t Data)
 391:../Libraries/STM32F4xx_StdPeriph_Driver/src/stm32f4xx_dac.c **** {
 583              		.loc 1 391 1 is_stmt 1 view -0
 584              		.cfi_startproc
 585              		@ args = 0, pretend = 0, frame = 8
 586              		@ frame_needed = 0, uses_anonymous_args = 0
 587              		@ link register save eliminated.
 392:../Libraries/STM32F4xx_StdPeriph_Driver/src/stm32f4xx_dac.c ****   __IO uint32_t tmp = 0;
 588              		.loc 1 392 3 view .LVU116
 589              	@ ../Libraries/STM32F4xx_StdPeriph_Driver/src/stm32f4xx_dac.c:391: {
 391:../Libraries/STM32F4xx_StdPeriph_Driver/src/stm32f4xx_dac.c ****   __IO uint32_t tmp = 0;
 590              		.loc 1 391 1 is_stmt 0 view .LVU117
 591 0000 82B0     		sub	sp, sp, #8	@,,
 592              		.cfi_def_cfa_offset 8
 593              	@ ../Libraries/STM32F4xx_StdPeriph_Driver/src/stm32f4xx_dac.c:398:   tmp = (uint32_t)DAC_BASE;
 393:../Libraries/STM32F4xx_StdPeriph_Driver/src/stm32f4xx_dac.c **** 
 394:../Libraries/STM32F4xx_StdPeriph_Driver/src/stm32f4xx_dac.c ****   /* Check the parameters */
 395:../Libraries/STM32F4xx_StdPeriph_Driver/src/stm32f4xx_dac.c ****   assert_param(IS_DAC_ALIGN(DAC_Align));
 396:../Libraries/STM32F4xx_StdPeriph_Driver/src/stm32f4xx_dac.c ****   assert_param(IS_DAC_DATA(Data));
 397:../Libraries/STM32F4xx_StdPeriph_Driver/src/stm32f4xx_dac.c ****   
 398:../Libraries/STM32F4xx_StdPeriph_Driver/src/stm32f4xx_dac.c ****   tmp = (uint32_t)DAC_BASE;
 594              		.loc 1 398 7 view .LVU118
 595 0002 064B     		ldr	r3, .L35	@ tmp122,
 596              	@ ../Libraries/STM32F4xx_StdPeriph_Driver/src/stm32f4xx_dac.c:392:   __IO uint32_t tmp = 0;
 392:../Libraries/STM32F4xx_StdPeriph_Driver/src/stm32f4xx_dac.c **** 
 597              		.loc 1 392 17 view .LVU119
 598 0004 0022     		movs	r2, #0	@ tmp121,
 599 0006 0192     		str	r2, [sp, #4]	@ tmp121, tmp
 395:../Libraries/STM32F4xx_StdPeriph_Driver/src/stm32f4xx_dac.c ****   assert_param(IS_DAC_DATA(Data));
 600              		.loc 1 395 3 is_stmt 1 view .LVU120
 396:../Libraries/STM32F4xx_StdPeriph_Driver/src/stm32f4xx_dac.c ****   
 601              		.loc 1 396 3 view .LVU121
 602              		.loc 1 398 3 view .LVU122
 603              	@ ../Libraries/STM32F4xx_StdPeriph_Driver/src/stm32f4xx_dac.c:398:   tmp = (uint32_t)DAC_BASE;
 604              		.loc 1 398 7 is_stmt 0 view .LVU123
 605 0008 0193     		str	r3, [sp, #4]	@ tmp122, tmp
 399:../Libraries/STM32F4xx_StdPeriph_Driver/src/stm32f4xx_dac.c ****   tmp += DHR12R2_OFFSET + DAC_Align;
 606              		.loc 1 399 3 is_stmt 1 view .LVU124
 607              	@ ../Libraries/STM32F4xx_StdPeriph_Driver/src/stm32f4xx_dac.c:399:   tmp += DHR12R2_OFFSET + DAC_Al
 608              		.loc 1 399 7 is_stmt 0 view .LVU125
ARM GAS  C:\Users\admin\AppData\Local\Temp\ccNMST8T.s 			page 19


 609 000a 019B     		ldr	r3, [sp, #4]	@ tmp.3_1, tmp
 610 000c 1433     		adds	r3, r3, #20	@ tmp123, tmp.3_1,
 611 000e 0344     		add	r3, r3, r0	@ _3, tmp124
 612 0010 0193     		str	r3, [sp, #4]	@ _3, tmp
 400:../Libraries/STM32F4xx_StdPeriph_Driver/src/stm32f4xx_dac.c **** 
 401:../Libraries/STM32F4xx_StdPeriph_Driver/src/stm32f4xx_dac.c ****   /* Set the DAC channel2 selected data holding register */
 402:../Libraries/STM32F4xx_StdPeriph_Driver/src/stm32f4xx_dac.c ****   *(__IO uint32_t *)tmp = Data;
 613              		.loc 1 402 3 is_stmt 1 view .LVU126
 614              	@ ../Libraries/STM32F4xx_StdPeriph_Driver/src/stm32f4xx_dac.c:402:   *(__IO uint32_t *)tmp = Data;
 615              		.loc 1 402 4 is_stmt 0 view .LVU127
 616 0012 019B     		ldr	r3, [sp, #4]	@ tmp.4_4, tmp
 617              	@ ../Libraries/STM32F4xx_StdPeriph_Driver/src/stm32f4xx_dac.c:402:   *(__IO uint32_t *)tmp = Data;
 618              		.loc 1 402 25 view .LVU128
 619 0014 1960     		str	r1, [r3]	@ Data, *tmp.5_5
 620              	@ ../Libraries/STM32F4xx_StdPeriph_Driver/src/stm32f4xx_dac.c:403: }
 403:../Libraries/STM32F4xx_StdPeriph_Driver/src/stm32f4xx_dac.c **** }
 621              		.loc 1 403 1 view .LVU129
 622 0016 02B0     		add	sp, sp, #8	@,,
 623              		.cfi_def_cfa_offset 0
 624              		@ sp needed	@
 625 0018 7047     		bx	lr	@
 626              	.L36:
 627 001a 00BF     		.align	2
 628              	.L35:
 629 001c 00740040 		.word	1073771520
 630              		.cfi_endproc
 631              	.LFE118:
 632              		.size	DAC_SetChannel2Data, .-DAC_SetChannel2Data
 633              		.section	.text.DAC_SetDualChannelData,"ax",%progbits
 634              		.align	1
 635              		.p2align 2,,3
 636              		.global	DAC_SetDualChannelData
 637              		.syntax unified
 638              		.thumb
 639              		.thumb_func
 640              		.type	DAC_SetDualChannelData, %function
 641              	DAC_SetDualChannelData:
 642              	.LVL28:
 643              	.LFB119:
 404:../Libraries/STM32F4xx_StdPeriph_Driver/src/stm32f4xx_dac.c **** 
 405:../Libraries/STM32F4xx_StdPeriph_Driver/src/stm32f4xx_dac.c **** /**
 406:../Libraries/STM32F4xx_StdPeriph_Driver/src/stm32f4xx_dac.c ****   * @brief  Set the specified data holding register value for dual channel DAC.
 407:../Libraries/STM32F4xx_StdPeriph_Driver/src/stm32f4xx_dac.c ****   * @param  DAC_Align: Specifies the data alignment for dual channel DAC.
 408:../Libraries/STM32F4xx_StdPeriph_Driver/src/stm32f4xx_dac.c ****   *          This parameter can be one of the following values:
 409:../Libraries/STM32F4xx_StdPeriph_Driver/src/stm32f4xx_dac.c ****   *            @arg DAC_Align_8b_R: 8bit right data alignment selected
 410:../Libraries/STM32F4xx_StdPeriph_Driver/src/stm32f4xx_dac.c ****   *            @arg DAC_Align_12b_L: 12bit left data alignment selected
 411:../Libraries/STM32F4xx_StdPeriph_Driver/src/stm32f4xx_dac.c ****   *            @arg DAC_Align_12b_R: 12bit right data alignment selected
 412:../Libraries/STM32F4xx_StdPeriph_Driver/src/stm32f4xx_dac.c ****   * @param  Data2: Data for DAC Channel2 to be loaded in the selected data holding register.
 413:../Libraries/STM32F4xx_StdPeriph_Driver/src/stm32f4xx_dac.c ****   * @param  Data1: Data for DAC Channel1 to be loaded in the selected data  holding register.
 414:../Libraries/STM32F4xx_StdPeriph_Driver/src/stm32f4xx_dac.c ****   * @note   In dual mode, a unique register access is required to write in both
 415:../Libraries/STM32F4xx_StdPeriph_Driver/src/stm32f4xx_dac.c ****   *          DAC channels at the same time.
 416:../Libraries/STM32F4xx_StdPeriph_Driver/src/stm32f4xx_dac.c ****   * @retval None
 417:../Libraries/STM32F4xx_StdPeriph_Driver/src/stm32f4xx_dac.c ****   */
 418:../Libraries/STM32F4xx_StdPeriph_Driver/src/stm32f4xx_dac.c **** void DAC_SetDualChannelData(uint32_t DAC_Align, uint16_t Data2, uint16_t Data1)
 419:../Libraries/STM32F4xx_StdPeriph_Driver/src/stm32f4xx_dac.c **** {
 644              		.loc 1 419 1 is_stmt 1 view -0
 645              		.cfi_startproc
ARM GAS  C:\Users\admin\AppData\Local\Temp\ccNMST8T.s 			page 20


 646              		@ args = 0, pretend = 0, frame = 0
 647              		@ frame_needed = 0, uses_anonymous_args = 0
 648              		@ link register save eliminated.
 420:../Libraries/STM32F4xx_StdPeriph_Driver/src/stm32f4xx_dac.c ****   uint32_t data = 0, tmp = 0;
 649              		.loc 1 420 3 view .LVU131
 421:../Libraries/STM32F4xx_StdPeriph_Driver/src/stm32f4xx_dac.c ****   
 422:../Libraries/STM32F4xx_StdPeriph_Driver/src/stm32f4xx_dac.c ****   /* Check the parameters */
 423:../Libraries/STM32F4xx_StdPeriph_Driver/src/stm32f4xx_dac.c ****   assert_param(IS_DAC_ALIGN(DAC_Align));
 650              		.loc 1 423 3 view .LVU132
 424:../Libraries/STM32F4xx_StdPeriph_Driver/src/stm32f4xx_dac.c ****   assert_param(IS_DAC_DATA(Data1));
 651              		.loc 1 424 3 view .LVU133
 425:../Libraries/STM32F4xx_StdPeriph_Driver/src/stm32f4xx_dac.c ****   assert_param(IS_DAC_DATA(Data2));
 652              		.loc 1 425 3 view .LVU134
 426:../Libraries/STM32F4xx_StdPeriph_Driver/src/stm32f4xx_dac.c ****   
 427:../Libraries/STM32F4xx_StdPeriph_Driver/src/stm32f4xx_dac.c ****   /* Calculate and set dual DAC data holding register value */
 428:../Libraries/STM32F4xx_StdPeriph_Driver/src/stm32f4xx_dac.c ****   if (DAC_Align == DAC_Align_8b_R)
 653              		.loc 1 428 3 view .LVU135
 429:../Libraries/STM32F4xx_StdPeriph_Driver/src/stm32f4xx_dac.c ****   {
 430:../Libraries/STM32F4xx_StdPeriph_Driver/src/stm32f4xx_dac.c ****     data = ((uint32_t)Data2 << 8) | Data1; 
 654              		.loc 1 430 5 view .LVU136
 655              	@ ../Libraries/STM32F4xx_StdPeriph_Driver/src/stm32f4xx_dac.c:428:   if (DAC_Align == DAC_Align_8b_
 428:../Libraries/STM32F4xx_StdPeriph_Driver/src/stm32f4xx_dac.c ****   {
 656              		.loc 1 428 6 is_stmt 0 view .LVU137
 657 0000 0828     		cmp	r0, #8	@ DAC_Align,
 658              	@ ../Libraries/STM32F4xx_StdPeriph_Driver/src/stm32f4xx_dac.c:438:   tmp += DHR12RD_OFFSET + DAC_Al
 431:../Libraries/STM32F4xx_StdPeriph_Driver/src/stm32f4xx_dac.c ****   }
 432:../Libraries/STM32F4xx_StdPeriph_Driver/src/stm32f4xx_dac.c ****   else
 433:../Libraries/STM32F4xx_StdPeriph_Driver/src/stm32f4xx_dac.c ****   {
 434:../Libraries/STM32F4xx_StdPeriph_Driver/src/stm32f4xx_dac.c ****     data = ((uint32_t)Data2 << 16) | Data1;
 435:../Libraries/STM32F4xx_StdPeriph_Driver/src/stm32f4xx_dac.c ****   }
 436:../Libraries/STM32F4xx_StdPeriph_Driver/src/stm32f4xx_dac.c ****   
 437:../Libraries/STM32F4xx_StdPeriph_Driver/src/stm32f4xx_dac.c ****   tmp = (uint32_t)DAC_BASE;
 438:../Libraries/STM32F4xx_StdPeriph_Driver/src/stm32f4xx_dac.c ****   tmp += DHR12RD_OFFSET + DAC_Align;
 659              		.loc 1 438 7 view .LVU138
 660 0002 044B     		ldr	r3, .L40	@ tmp127,
 661              	@ ../Libraries/STM32F4xx_StdPeriph_Driver/src/stm32f4xx_dac.c:430:     data = ((uint32_t)Data2 << 8
 430:../Libraries/STM32F4xx_StdPeriph_Driver/src/stm32f4xx_dac.c ****   }
 662              		.loc 1 430 10 view .LVU139
 663 0004 0CBF     		ite	eq
 664 0006 42EA0122 		orreq	r2, r2, r1, lsl #8	@ data, Data1, Data2,
 665              	.LVL29:
 434:../Libraries/STM32F4xx_StdPeriph_Driver/src/stm32f4xx_dac.c ****   }
 666              		.loc 1 434 5 is_stmt 1 view .LVU140
 667              	@ ../Libraries/STM32F4xx_StdPeriph_Driver/src/stm32f4xx_dac.c:434:     data = ((uint32_t)Data2 << 1
 434:../Libraries/STM32F4xx_StdPeriph_Driver/src/stm32f4xx_dac.c ****   }
 668              		.loc 1 434 10 is_stmt 0 view .LVU141
 669 000a 42EA0142 		orrne	r2, r2, r1, lsl #16	@ data, Data1, Data2,
 670              	.LVL30:
 437:../Libraries/STM32F4xx_StdPeriph_Driver/src/stm32f4xx_dac.c ****   tmp += DHR12RD_OFFSET + DAC_Align;
 671              		.loc 1 437 3 is_stmt 1 view .LVU142
 672              		.loc 1 438 3 view .LVU143
 439:../Libraries/STM32F4xx_StdPeriph_Driver/src/stm32f4xx_dac.c **** 
 440:../Libraries/STM32F4xx_StdPeriph_Driver/src/stm32f4xx_dac.c ****   /* Set the dual DAC selected data holding register */
 441:../Libraries/STM32F4xx_StdPeriph_Driver/src/stm32f4xx_dac.c ****   *(__IO uint32_t *)tmp = data;
 673              		.loc 1 441 3 view .LVU144
 674              	@ ../Libraries/STM32F4xx_StdPeriph_Driver/src/stm32f4xx_dac.c:441:   *(__IO uint32_t *)tmp = data;
 675              		.loc 1 441 25 is_stmt 0 view .LVU145
ARM GAS  C:\Users\admin\AppData\Local\Temp\ccNMST8T.s 			page 21


 676 000e C250     		str	r2, [r0, r3]	@ data, *tmp.6_7
 677              	@ ../Libraries/STM32F4xx_StdPeriph_Driver/src/stm32f4xx_dac.c:442: }
 442:../Libraries/STM32F4xx_StdPeriph_Driver/src/stm32f4xx_dac.c **** }
 678              		.loc 1 442 1 view .LVU146
 679 0010 7047     		bx	lr	@
 680              	.L41:
 681 0012 00BF     		.align	2
 682              	.L40:
 683 0014 20740040 		.word	1073771552
 684              		.cfi_endproc
 685              	.LFE119:
 686              		.size	DAC_SetDualChannelData, .-DAC_SetDualChannelData
 687              		.section	.text.DAC_GetDataOutputValue,"ax",%progbits
 688              		.align	1
 689              		.p2align 2,,3
 690              		.global	DAC_GetDataOutputValue
 691              		.syntax unified
 692              		.thumb
 693              		.thumb_func
 694              		.type	DAC_GetDataOutputValue, %function
 695              	DAC_GetDataOutputValue:
 696              	.LVL31:
 697              	.LFB120:
 443:../Libraries/STM32F4xx_StdPeriph_Driver/src/stm32f4xx_dac.c **** 
 444:../Libraries/STM32F4xx_StdPeriph_Driver/src/stm32f4xx_dac.c **** /**
 445:../Libraries/STM32F4xx_StdPeriph_Driver/src/stm32f4xx_dac.c ****   * @brief  Returns the last data output value of the selected DAC channel.
 446:../Libraries/STM32F4xx_StdPeriph_Driver/src/stm32f4xx_dac.c ****   * @param  DAC_Channel: The selected DAC channel. 
 447:../Libraries/STM32F4xx_StdPeriph_Driver/src/stm32f4xx_dac.c ****   *          This parameter can be one of the following values:
 448:../Libraries/STM32F4xx_StdPeriph_Driver/src/stm32f4xx_dac.c ****   *            @arg DAC_Channel_1: DAC Channel1 selected
 449:../Libraries/STM32F4xx_StdPeriph_Driver/src/stm32f4xx_dac.c ****   *            @arg DAC_Channel_2: DAC Channel2 selected
 450:../Libraries/STM32F4xx_StdPeriph_Driver/src/stm32f4xx_dac.c ****   * @retval The selected DAC channel data output value.
 451:../Libraries/STM32F4xx_StdPeriph_Driver/src/stm32f4xx_dac.c ****   */
 452:../Libraries/STM32F4xx_StdPeriph_Driver/src/stm32f4xx_dac.c **** uint16_t DAC_GetDataOutputValue(uint32_t DAC_Channel)
 453:../Libraries/STM32F4xx_StdPeriph_Driver/src/stm32f4xx_dac.c **** {
 698              		.loc 1 453 1 is_stmt 1 view -0
 699              		.cfi_startproc
 700              		@ args = 0, pretend = 0, frame = 8
 701              		@ frame_needed = 0, uses_anonymous_args = 0
 702              		@ link register save eliminated.
 454:../Libraries/STM32F4xx_StdPeriph_Driver/src/stm32f4xx_dac.c ****   __IO uint32_t tmp = 0;
 703              		.loc 1 454 3 view .LVU148
 704              	@ ../Libraries/STM32F4xx_StdPeriph_Driver/src/stm32f4xx_dac.c:453: {
 453:../Libraries/STM32F4xx_StdPeriph_Driver/src/stm32f4xx_dac.c ****   __IO uint32_t tmp = 0;
 705              		.loc 1 453 1 is_stmt 0 view .LVU149
 706 0000 82B0     		sub	sp, sp, #8	@,,
 707              		.cfi_def_cfa_offset 8
 708              	@ ../Libraries/STM32F4xx_StdPeriph_Driver/src/stm32f4xx_dac.c:459:   tmp = (uint32_t) DAC_BASE ;
 455:../Libraries/STM32F4xx_StdPeriph_Driver/src/stm32f4xx_dac.c ****   
 456:../Libraries/STM32F4xx_StdPeriph_Driver/src/stm32f4xx_dac.c ****   /* Check the parameters */
 457:../Libraries/STM32F4xx_StdPeriph_Driver/src/stm32f4xx_dac.c ****   assert_param(IS_DAC_CHANNEL(DAC_Channel));
 458:../Libraries/STM32F4xx_StdPeriph_Driver/src/stm32f4xx_dac.c ****   
 459:../Libraries/STM32F4xx_StdPeriph_Driver/src/stm32f4xx_dac.c ****   tmp = (uint32_t) DAC_BASE ;
 709              		.loc 1 459 7 view .LVU150
 710 0002 074B     		ldr	r3, .L44	@ tmp123,
 711              	@ ../Libraries/STM32F4xx_StdPeriph_Driver/src/stm32f4xx_dac.c:454:   __IO uint32_t tmp = 0;
 454:../Libraries/STM32F4xx_StdPeriph_Driver/src/stm32f4xx_dac.c ****   
 712              		.loc 1 454 17 view .LVU151
ARM GAS  C:\Users\admin\AppData\Local\Temp\ccNMST8T.s 			page 22


 713 0004 0022     		movs	r2, #0	@ tmp122,
 714 0006 0192     		str	r2, [sp, #4]	@ tmp122, tmp
 457:../Libraries/STM32F4xx_StdPeriph_Driver/src/stm32f4xx_dac.c ****   
 715              		.loc 1 457 3 is_stmt 1 view .LVU152
 716              		.loc 1 459 3 view .LVU153
 717              	@ ../Libraries/STM32F4xx_StdPeriph_Driver/src/stm32f4xx_dac.c:459:   tmp = (uint32_t) DAC_BASE ;
 718              		.loc 1 459 7 is_stmt 0 view .LVU154
 719 0008 0193     		str	r3, [sp, #4]	@ tmp123, tmp
 460:../Libraries/STM32F4xx_StdPeriph_Driver/src/stm32f4xx_dac.c ****   tmp += DOR_OFFSET + ((uint32_t)DAC_Channel >> 2);
 720              		.loc 1 460 3 is_stmt 1 view .LVU155
 721              	@ ../Libraries/STM32F4xx_StdPeriph_Driver/src/stm32f4xx_dac.c:460:   tmp += DOR_OFFSET + ((uint32_t
 722              		.loc 1 460 7 is_stmt 0 view .LVU156
 723 000a 019B     		ldr	r3, [sp, #4]	@ tmp.7_2, tmp
 724 000c 2C33     		adds	r3, r3, #44	@ tmp125, tmp.7_2,
 725 000e 03EB9003 		add	r3, r3, r0, lsr #2	@ _4, tmp125, tmp128,
 726 0012 0193     		str	r3, [sp, #4]	@ _4, tmp
 461:../Libraries/STM32F4xx_StdPeriph_Driver/src/stm32f4xx_dac.c ****   
 462:../Libraries/STM32F4xx_StdPeriph_Driver/src/stm32f4xx_dac.c ****   /* Returns the DAC channel data output register value */
 463:../Libraries/STM32F4xx_StdPeriph_Driver/src/stm32f4xx_dac.c ****   return (uint16_t) (*(__IO uint32_t*) tmp);
 727              		.loc 1 463 3 is_stmt 1 view .LVU157
 728              	@ ../Libraries/STM32F4xx_StdPeriph_Driver/src/stm32f4xx_dac.c:463:   return (uint16_t) (*(__IO uint
 729              		.loc 1 463 23 is_stmt 0 view .LVU158
 730 0014 019B     		ldr	r3, [sp, #4]	@ tmp.8_5, tmp
 731              	@ ../Libraries/STM32F4xx_StdPeriph_Driver/src/stm32f4xx_dac.c:463:   return (uint16_t) (*(__IO uint
 732              		.loc 1 463 22 view .LVU159
 733 0016 1868     		ldr	r0, [r3]	@ _7, *tmp.9_6
 734              	.LVL32:
 735              	@ ../Libraries/STM32F4xx_StdPeriph_Driver/src/stm32f4xx_dac.c:464: }
 464:../Libraries/STM32F4xx_StdPeriph_Driver/src/stm32f4xx_dac.c **** }
 736              		.loc 1 464 1 view .LVU160
 737 0018 80B2     		uxth	r0, r0	@, _7
 738 001a 02B0     		add	sp, sp, #8	@,,
 739              		.cfi_def_cfa_offset 0
 740              		@ sp needed	@
 741 001c 7047     		bx	lr	@
 742              	.L45:
 743 001e 00BF     		.align	2
 744              	.L44:
 745 0020 00740040 		.word	1073771520
 746              		.cfi_endproc
 747              	.LFE120:
 748              		.size	DAC_GetDataOutputValue, .-DAC_GetDataOutputValue
 749              		.section	.text.DAC_DMACmd,"ax",%progbits
 750              		.align	1
 751              		.p2align 2,,3
 752              		.global	DAC_DMACmd
 753              		.syntax unified
 754              		.thumb
 755              		.thumb_func
 756              		.type	DAC_DMACmd, %function
 757              	DAC_DMACmd:
 758              	.LVL33:
 759              	.LFB121:
 465:../Libraries/STM32F4xx_StdPeriph_Driver/src/stm32f4xx_dac.c **** /**
 466:../Libraries/STM32F4xx_StdPeriph_Driver/src/stm32f4xx_dac.c ****   * @}
 467:../Libraries/STM32F4xx_StdPeriph_Driver/src/stm32f4xx_dac.c ****   */
 468:../Libraries/STM32F4xx_StdPeriph_Driver/src/stm32f4xx_dac.c **** 
ARM GAS  C:\Users\admin\AppData\Local\Temp\ccNMST8T.s 			page 23


 469:../Libraries/STM32F4xx_StdPeriph_Driver/src/stm32f4xx_dac.c **** /** @defgroup DAC_Group2 DMA management functions
 470:../Libraries/STM32F4xx_StdPeriph_Driver/src/stm32f4xx_dac.c ****  *  @brief   DMA management functions
 471:../Libraries/STM32F4xx_StdPeriph_Driver/src/stm32f4xx_dac.c ****  *
 472:../Libraries/STM32F4xx_StdPeriph_Driver/src/stm32f4xx_dac.c **** @verbatim   
 473:../Libraries/STM32F4xx_StdPeriph_Driver/src/stm32f4xx_dac.c ****  ===============================================================================
 474:../Libraries/STM32F4xx_StdPeriph_Driver/src/stm32f4xx_dac.c ****                           DMA management functions
 475:../Libraries/STM32F4xx_StdPeriph_Driver/src/stm32f4xx_dac.c ****  ===============================================================================  
 476:../Libraries/STM32F4xx_StdPeriph_Driver/src/stm32f4xx_dac.c **** 
 477:../Libraries/STM32F4xx_StdPeriph_Driver/src/stm32f4xx_dac.c **** @endverbatim
 478:../Libraries/STM32F4xx_StdPeriph_Driver/src/stm32f4xx_dac.c ****   * @{
 479:../Libraries/STM32F4xx_StdPeriph_Driver/src/stm32f4xx_dac.c ****   */
 480:../Libraries/STM32F4xx_StdPeriph_Driver/src/stm32f4xx_dac.c **** 
 481:../Libraries/STM32F4xx_StdPeriph_Driver/src/stm32f4xx_dac.c **** /**
 482:../Libraries/STM32F4xx_StdPeriph_Driver/src/stm32f4xx_dac.c ****   * @brief  Enables or disables the specified DAC channel DMA request.
 483:../Libraries/STM32F4xx_StdPeriph_Driver/src/stm32f4xx_dac.c ****   * @note   When enabled DMA1 is generated when an external trigger (EXTI Line9,
 484:../Libraries/STM32F4xx_StdPeriph_Driver/src/stm32f4xx_dac.c ****   *         TIM2, TIM4, TIM5, TIM6, TIM7 or TIM8  but not a software trigger) occurs.
 485:../Libraries/STM32F4xx_StdPeriph_Driver/src/stm32f4xx_dac.c ****   * @param  DAC_Channel: The selected DAC channel. 
 486:../Libraries/STM32F4xx_StdPeriph_Driver/src/stm32f4xx_dac.c ****   *          This parameter can be one of the following values:
 487:../Libraries/STM32F4xx_StdPeriph_Driver/src/stm32f4xx_dac.c ****   *            @arg DAC_Channel_1: DAC Channel1 selected
 488:../Libraries/STM32F4xx_StdPeriph_Driver/src/stm32f4xx_dac.c ****   *            @arg DAC_Channel_2: DAC Channel2 selected
 489:../Libraries/STM32F4xx_StdPeriph_Driver/src/stm32f4xx_dac.c ****   * @param  NewState: new state of the selected DAC channel DMA request.
 490:../Libraries/STM32F4xx_StdPeriph_Driver/src/stm32f4xx_dac.c ****   *          This parameter can be: ENABLE or DISABLE.
 491:../Libraries/STM32F4xx_StdPeriph_Driver/src/stm32f4xx_dac.c ****   * @note   The DAC channel1 is mapped on DMA1 Stream 5 channel7 which must be
 492:../Libraries/STM32F4xx_StdPeriph_Driver/src/stm32f4xx_dac.c ****   *          already configured.
 493:../Libraries/STM32F4xx_StdPeriph_Driver/src/stm32f4xx_dac.c ****   * @note   The DAC channel2 is mapped on DMA1 Stream 6 channel7 which must be
 494:../Libraries/STM32F4xx_StdPeriph_Driver/src/stm32f4xx_dac.c ****   *          already configured.    
 495:../Libraries/STM32F4xx_StdPeriph_Driver/src/stm32f4xx_dac.c ****   * @retval None
 496:../Libraries/STM32F4xx_StdPeriph_Driver/src/stm32f4xx_dac.c ****   */
 497:../Libraries/STM32F4xx_StdPeriph_Driver/src/stm32f4xx_dac.c **** void DAC_DMACmd(uint32_t DAC_Channel, FunctionalState NewState)
 498:../Libraries/STM32F4xx_StdPeriph_Driver/src/stm32f4xx_dac.c **** {
 760              		.loc 1 498 1 is_stmt 1 view -0
 761              		.cfi_startproc
 762              		@ args = 0, pretend = 0, frame = 0
 763              		@ frame_needed = 0, uses_anonymous_args = 0
 764              		@ link register save eliminated.
 499:../Libraries/STM32F4xx_StdPeriph_Driver/src/stm32f4xx_dac.c ****   /* Check the parameters */
 500:../Libraries/STM32F4xx_StdPeriph_Driver/src/stm32f4xx_dac.c ****   assert_param(IS_DAC_CHANNEL(DAC_Channel));
 765              		.loc 1 500 3 view .LVU162
 501:../Libraries/STM32F4xx_StdPeriph_Driver/src/stm32f4xx_dac.c ****   assert_param(IS_FUNCTIONAL_STATE(NewState));
 766              		.loc 1 501 3 view .LVU163
 502:../Libraries/STM32F4xx_StdPeriph_Driver/src/stm32f4xx_dac.c **** 
 503:../Libraries/STM32F4xx_StdPeriph_Driver/src/stm32f4xx_dac.c ****   if (NewState != DISABLE)
 767              		.loc 1 503 3 view .LVU164
 768              	@ ../Libraries/STM32F4xx_StdPeriph_Driver/src/stm32f4xx_dac.c:503:   if (NewState != DISABLE)
 769              		.loc 1 503 6 is_stmt 0 view .LVU165
 770 0000 41B1     		cbz	r1, .L47	@ tmp132,
 504:../Libraries/STM32F4xx_StdPeriph_Driver/src/stm32f4xx_dac.c ****   {
 505:../Libraries/STM32F4xx_StdPeriph_Driver/src/stm32f4xx_dac.c ****     /* Enable the selected DAC channel DMA request */
 506:../Libraries/STM32F4xx_StdPeriph_Driver/src/stm32f4xx_dac.c ****     DAC->CR |= (DAC_CR_DMAEN1 << DAC_Channel);
 771              		.loc 1 506 5 is_stmt 1 view .LVU166
 772              	@ ../Libraries/STM32F4xx_StdPeriph_Driver/src/stm32f4xx_dac.c:506:     DAC->CR |= (DAC_CR_DMAEN1 <<
 773              		.loc 1 506 13 is_stmt 0 view .LVU167
 774 0002 094A     		ldr	r2, .L49	@ tmp122,
 775              	@ ../Libraries/STM32F4xx_StdPeriph_Driver/src/stm32f4xx_dac.c:506:     DAC->CR |= (DAC_CR_DMAEN1 <<
 776              		.loc 1 506 31 view .LVU168
 777 0004 4FF48053 		mov	r3, #4096	@ tmp124,
 778              	@ ../Libraries/STM32F4xx_StdPeriph_Driver/src/stm32f4xx_dac.c:506:     DAC->CR |= (DAC_CR_DMAEN1 <<
ARM GAS  C:\Users\admin\AppData\Local\Temp\ccNMST8T.s 			page 24


 779              		.loc 1 506 13 view .LVU169
 780 0008 1168     		ldr	r1, [r2]	@ _1, MEM[(struct DAC_TypeDef *)1073771520B].CR
 781              	.LVL34:
 782              	@ ../Libraries/STM32F4xx_StdPeriph_Driver/src/stm32f4xx_dac.c:506:     DAC->CR |= (DAC_CR_DMAEN1 <<
 783              		.loc 1 506 31 view .LVU170
 784 000a 03FA00F0 		lsl	r0, r3, r0	@ tmp123, tmp124, DAC_Channel
 785              	.LVL35:
 786              	@ ../Libraries/STM32F4xx_StdPeriph_Driver/src/stm32f4xx_dac.c:506:     DAC->CR |= (DAC_CR_DMAEN1 <<
 787              		.loc 1 506 13 view .LVU171
 788 000e 0843     		orrs	r0, r0, r1	@, _3, tmp123, _1
 789 0010 1060     		str	r0, [r2]	@ _3, MEM[(struct DAC_TypeDef *)1073771520B].CR
 790 0012 7047     		bx	lr	@
 791              	.LVL36:
 792              	.L47:
 507:../Libraries/STM32F4xx_StdPeriph_Driver/src/stm32f4xx_dac.c ****   }
 508:../Libraries/STM32F4xx_StdPeriph_Driver/src/stm32f4xx_dac.c ****   else
 509:../Libraries/STM32F4xx_StdPeriph_Driver/src/stm32f4xx_dac.c ****   {
 510:../Libraries/STM32F4xx_StdPeriph_Driver/src/stm32f4xx_dac.c ****     /* Disable the selected DAC channel DMA request */
 511:../Libraries/STM32F4xx_StdPeriph_Driver/src/stm32f4xx_dac.c ****     DAC->CR &= (~(DAC_CR_DMAEN1 << DAC_Channel));
 793              		.loc 1 511 5 is_stmt 1 view .LVU172
 794              	@ ../Libraries/STM32F4xx_StdPeriph_Driver/src/stm32f4xx_dac.c:511:     DAC->CR &= (~(DAC_CR_DMAEN1 
 795              		.loc 1 511 13 is_stmt 0 view .LVU173
 796 0014 0449     		ldr	r1, .L49	@ tmp126,
 797              	.LVL37:
 798              	@ ../Libraries/STM32F4xx_StdPeriph_Driver/src/stm32f4xx_dac.c:511:     DAC->CR &= (~(DAC_CR_DMAEN1 
 799              		.loc 1 511 33 view .LVU174
 800 0016 4FF48052 		mov	r2, #4096	@ tmp128,
 801              	@ ../Libraries/STM32F4xx_StdPeriph_Driver/src/stm32f4xx_dac.c:511:     DAC->CR &= (~(DAC_CR_DMAEN1 
 802              		.loc 1 511 13 view .LVU175
 803 001a 0B68     		ldr	r3, [r1]	@ _4, MEM[(struct DAC_TypeDef *)1073771520B].CR
 804              	@ ../Libraries/STM32F4xx_StdPeriph_Driver/src/stm32f4xx_dac.c:511:     DAC->CR &= (~(DAC_CR_DMAEN1 
 805              		.loc 1 511 33 view .LVU176
 806 001c 02FA00F0 		lsl	r0, r2, r0	@ tmp127, tmp128, DAC_Channel
 807              	.LVL38:
 808              	@ ../Libraries/STM32F4xx_StdPeriph_Driver/src/stm32f4xx_dac.c:511:     DAC->CR &= (~(DAC_CR_DMAEN1 
 809              		.loc 1 511 13 view .LVU177
 810 0020 23EA0000 		bic	r0, r3, r0	@ _7, _4, tmp127
 811 0024 0860     		str	r0, [r1]	@ _7, MEM[(struct DAC_TypeDef *)1073771520B].CR
 812              	@ ../Libraries/STM32F4xx_StdPeriph_Driver/src/stm32f4xx_dac.c:513: }
 512:../Libraries/STM32F4xx_StdPeriph_Driver/src/stm32f4xx_dac.c ****   }
 513:../Libraries/STM32F4xx_StdPeriph_Driver/src/stm32f4xx_dac.c **** }
 813              		.loc 1 513 1 view .LVU178
 814 0026 7047     		bx	lr	@
 815              	.L50:
 816              		.align	2
 817              	.L49:
 818 0028 00740040 		.word	1073771520
 819              		.cfi_endproc
 820              	.LFE121:
 821              		.size	DAC_DMACmd, .-DAC_DMACmd
 822              		.section	.text.DAC_ITConfig,"ax",%progbits
 823              		.align	1
 824              		.p2align 2,,3
 825              		.global	DAC_ITConfig
 826              		.syntax unified
 827              		.thumb
 828              		.thumb_func
ARM GAS  C:\Users\admin\AppData\Local\Temp\ccNMST8T.s 			page 25


 829              		.type	DAC_ITConfig, %function
 830              	DAC_ITConfig:
 831              	.LFB128:
 832              		.cfi_startproc
 833              		@ args = 0, pretend = 0, frame = 0
 834              		@ frame_needed = 0, uses_anonymous_args = 0
 835              		@ link register save eliminated.
 836 0000 054B     		ldr	r3, .L54	@ tmp123,
 837 0002 8140     		lsls	r1, r1, r0	@ tmp124, DAC_IT, DAC_Channel
 838 0004 1868     		ldr	r0, [r3]	@ _6,
 839 0006 12B1     		cbz	r2, .L52	@ tmp132,
 840 0008 0143     		orrs	r1, r1, r0	@, _8, tmp124, _6
 841 000a 1960     		str	r1, [r3]	@ _8,
 842 000c 7047     		bx	lr	@
 843              	.L52:
 844 000e 20EA0101 		bic	r1, r0, r1	@ _12, _9, tmp127
 845 0012 1960     		str	r1, [r3]	@ _12,
 846 0014 7047     		bx	lr	@
 847              	.L55:
 848 0016 00BF     		.align	2
 849              	.L54:
 850 0018 00740040 		.word	1073771520
 851              		.cfi_endproc
 852              	.LFE128:
 853              		.size	DAC_ITConfig, .-DAC_ITConfig
 854              		.section	.text.DAC_GetFlagStatus,"ax",%progbits
 855              		.align	1
 856              		.p2align 2,,3
 857              		.global	DAC_GetFlagStatus
 858              		.syntax unified
 859              		.thumb
 860              		.thumb_func
 861              		.type	DAC_GetFlagStatus, %function
 862              	DAC_GetFlagStatus:
 863              	.LVL39:
 864              	.LFB123:
 514:../Libraries/STM32F4xx_StdPeriph_Driver/src/stm32f4xx_dac.c **** /**
 515:../Libraries/STM32F4xx_StdPeriph_Driver/src/stm32f4xx_dac.c ****   * @}
 516:../Libraries/STM32F4xx_StdPeriph_Driver/src/stm32f4xx_dac.c ****   */
 517:../Libraries/STM32F4xx_StdPeriph_Driver/src/stm32f4xx_dac.c **** 
 518:../Libraries/STM32F4xx_StdPeriph_Driver/src/stm32f4xx_dac.c **** /** @defgroup DAC_Group3 Interrupts and flags management functions
 519:../Libraries/STM32F4xx_StdPeriph_Driver/src/stm32f4xx_dac.c ****  *  @brief   Interrupts and flags management functions
 520:../Libraries/STM32F4xx_StdPeriph_Driver/src/stm32f4xx_dac.c ****  *
 521:../Libraries/STM32F4xx_StdPeriph_Driver/src/stm32f4xx_dac.c **** @verbatim   
 522:../Libraries/STM32F4xx_StdPeriph_Driver/src/stm32f4xx_dac.c ****  ===============================================================================
 523:../Libraries/STM32F4xx_StdPeriph_Driver/src/stm32f4xx_dac.c ****                    Interrupts and flags management functions
 524:../Libraries/STM32F4xx_StdPeriph_Driver/src/stm32f4xx_dac.c ****  ===============================================================================  
 525:../Libraries/STM32F4xx_StdPeriph_Driver/src/stm32f4xx_dac.c **** 
 526:../Libraries/STM32F4xx_StdPeriph_Driver/src/stm32f4xx_dac.c **** @endverbatim
 527:../Libraries/STM32F4xx_StdPeriph_Driver/src/stm32f4xx_dac.c ****   * @{
 528:../Libraries/STM32F4xx_StdPeriph_Driver/src/stm32f4xx_dac.c ****   */
 529:../Libraries/STM32F4xx_StdPeriph_Driver/src/stm32f4xx_dac.c **** 
 530:../Libraries/STM32F4xx_StdPeriph_Driver/src/stm32f4xx_dac.c **** /**
 531:../Libraries/STM32F4xx_StdPeriph_Driver/src/stm32f4xx_dac.c ****   * @brief  Enables or disables the specified DAC interrupts.
 532:../Libraries/STM32F4xx_StdPeriph_Driver/src/stm32f4xx_dac.c ****   * @param  DAC_Channel: The selected DAC channel. 
 533:../Libraries/STM32F4xx_StdPeriph_Driver/src/stm32f4xx_dac.c ****   *          This parameter can be one of the following values:
 534:../Libraries/STM32F4xx_StdPeriph_Driver/src/stm32f4xx_dac.c ****   *            @arg DAC_Channel_1: DAC Channel1 selected
ARM GAS  C:\Users\admin\AppData\Local\Temp\ccNMST8T.s 			page 26


 535:../Libraries/STM32F4xx_StdPeriph_Driver/src/stm32f4xx_dac.c ****   *            @arg DAC_Channel_2: DAC Channel2 selected
 536:../Libraries/STM32F4xx_StdPeriph_Driver/src/stm32f4xx_dac.c ****   * @param  DAC_IT: specifies the DAC interrupt sources to be enabled or disabled. 
 537:../Libraries/STM32F4xx_StdPeriph_Driver/src/stm32f4xx_dac.c ****   *          This parameter can be the following values:
 538:../Libraries/STM32F4xx_StdPeriph_Driver/src/stm32f4xx_dac.c ****   *            @arg DAC_IT_DMAUDR: DMA underrun interrupt mask
 539:../Libraries/STM32F4xx_StdPeriph_Driver/src/stm32f4xx_dac.c ****   * @note   The DMA underrun occurs when a second external trigger arrives before the 
 540:../Libraries/STM32F4xx_StdPeriph_Driver/src/stm32f4xx_dac.c ****   *         acknowledgement for the first external trigger is received (first request).
 541:../Libraries/STM32F4xx_StdPeriph_Driver/src/stm32f4xx_dac.c ****   * @param  NewState: new state of the specified DAC interrupts.
 542:../Libraries/STM32F4xx_StdPeriph_Driver/src/stm32f4xx_dac.c ****   *          This parameter can be: ENABLE or DISABLE.
 543:../Libraries/STM32F4xx_StdPeriph_Driver/src/stm32f4xx_dac.c ****   * @retval None
 544:../Libraries/STM32F4xx_StdPeriph_Driver/src/stm32f4xx_dac.c ****   */ 
 545:../Libraries/STM32F4xx_StdPeriph_Driver/src/stm32f4xx_dac.c **** void DAC_ITConfig(uint32_t DAC_Channel, uint32_t DAC_IT, FunctionalState NewState)  
 546:../Libraries/STM32F4xx_StdPeriph_Driver/src/stm32f4xx_dac.c **** {
 547:../Libraries/STM32F4xx_StdPeriph_Driver/src/stm32f4xx_dac.c ****   /* Check the parameters */
 548:../Libraries/STM32F4xx_StdPeriph_Driver/src/stm32f4xx_dac.c ****   assert_param(IS_DAC_CHANNEL(DAC_Channel));
 549:../Libraries/STM32F4xx_StdPeriph_Driver/src/stm32f4xx_dac.c ****   assert_param(IS_FUNCTIONAL_STATE(NewState));
 550:../Libraries/STM32F4xx_StdPeriph_Driver/src/stm32f4xx_dac.c ****   assert_param(IS_DAC_IT(DAC_IT)); 
 551:../Libraries/STM32F4xx_StdPeriph_Driver/src/stm32f4xx_dac.c **** 
 552:../Libraries/STM32F4xx_StdPeriph_Driver/src/stm32f4xx_dac.c ****   if (NewState != DISABLE)
 553:../Libraries/STM32F4xx_StdPeriph_Driver/src/stm32f4xx_dac.c ****   {
 554:../Libraries/STM32F4xx_StdPeriph_Driver/src/stm32f4xx_dac.c ****     /* Enable the selected DAC interrupts */
 555:../Libraries/STM32F4xx_StdPeriph_Driver/src/stm32f4xx_dac.c ****     DAC->CR |=  (DAC_IT << DAC_Channel);
 556:../Libraries/STM32F4xx_StdPeriph_Driver/src/stm32f4xx_dac.c ****   }
 557:../Libraries/STM32F4xx_StdPeriph_Driver/src/stm32f4xx_dac.c ****   else
 558:../Libraries/STM32F4xx_StdPeriph_Driver/src/stm32f4xx_dac.c ****   {
 559:../Libraries/STM32F4xx_StdPeriph_Driver/src/stm32f4xx_dac.c ****     /* Disable the selected DAC interrupts */
 560:../Libraries/STM32F4xx_StdPeriph_Driver/src/stm32f4xx_dac.c ****     DAC->CR &= (~(uint32_t)(DAC_IT << DAC_Channel));
 561:../Libraries/STM32F4xx_StdPeriph_Driver/src/stm32f4xx_dac.c ****   }
 562:../Libraries/STM32F4xx_StdPeriph_Driver/src/stm32f4xx_dac.c **** }
 563:../Libraries/STM32F4xx_StdPeriph_Driver/src/stm32f4xx_dac.c **** 
 564:../Libraries/STM32F4xx_StdPeriph_Driver/src/stm32f4xx_dac.c **** /**
 565:../Libraries/STM32F4xx_StdPeriph_Driver/src/stm32f4xx_dac.c ****   * @brief  Checks whether the specified DAC flag is set or not.
 566:../Libraries/STM32F4xx_StdPeriph_Driver/src/stm32f4xx_dac.c ****   * @param  DAC_Channel: The selected DAC channel. 
 567:../Libraries/STM32F4xx_StdPeriph_Driver/src/stm32f4xx_dac.c ****   *          This parameter can be one of the following values:
 568:../Libraries/STM32F4xx_StdPeriph_Driver/src/stm32f4xx_dac.c ****   *            @arg DAC_Channel_1: DAC Channel1 selected
 569:../Libraries/STM32F4xx_StdPeriph_Driver/src/stm32f4xx_dac.c ****   *            @arg DAC_Channel_2: DAC Channel2 selected
 570:../Libraries/STM32F4xx_StdPeriph_Driver/src/stm32f4xx_dac.c ****   * @param  DAC_FLAG: specifies the flag to check. 
 571:../Libraries/STM32F4xx_StdPeriph_Driver/src/stm32f4xx_dac.c ****   *          This parameter can be only of the following value:
 572:../Libraries/STM32F4xx_StdPeriph_Driver/src/stm32f4xx_dac.c ****   *            @arg DAC_FLAG_DMAUDR: DMA underrun flag
 573:../Libraries/STM32F4xx_StdPeriph_Driver/src/stm32f4xx_dac.c ****   * @note   The DMA underrun occurs when a second external trigger arrives before the 
 574:../Libraries/STM32F4xx_StdPeriph_Driver/src/stm32f4xx_dac.c ****   *         acknowledgement for the first external trigger is received (first request).
 575:../Libraries/STM32F4xx_StdPeriph_Driver/src/stm32f4xx_dac.c ****   * @retval The new state of DAC_FLAG (SET or RESET).
 576:../Libraries/STM32F4xx_StdPeriph_Driver/src/stm32f4xx_dac.c ****   */
 577:../Libraries/STM32F4xx_StdPeriph_Driver/src/stm32f4xx_dac.c **** FlagStatus DAC_GetFlagStatus(uint32_t DAC_Channel, uint32_t DAC_FLAG)
 578:../Libraries/STM32F4xx_StdPeriph_Driver/src/stm32f4xx_dac.c **** {
 865              		.loc 1 578 1 is_stmt 1 view -0
 866              		.cfi_startproc
 867              		@ args = 0, pretend = 0, frame = 0
 868              		@ frame_needed = 0, uses_anonymous_args = 0
 869              		@ link register save eliminated.
 579:../Libraries/STM32F4xx_StdPeriph_Driver/src/stm32f4xx_dac.c ****   FlagStatus bitstatus = RESET;
 870              		.loc 1 579 3 view .LVU180
 580:../Libraries/STM32F4xx_StdPeriph_Driver/src/stm32f4xx_dac.c ****   /* Check the parameters */
 581:../Libraries/STM32F4xx_StdPeriph_Driver/src/stm32f4xx_dac.c ****   assert_param(IS_DAC_CHANNEL(DAC_Channel));
 871              		.loc 1 581 3 view .LVU181
 582:../Libraries/STM32F4xx_StdPeriph_Driver/src/stm32f4xx_dac.c ****   assert_param(IS_DAC_FLAG(DAC_FLAG));
 872              		.loc 1 582 3 view .LVU182
 583:../Libraries/STM32F4xx_StdPeriph_Driver/src/stm32f4xx_dac.c **** 
ARM GAS  C:\Users\admin\AppData\Local\Temp\ccNMST8T.s 			page 27


 584:../Libraries/STM32F4xx_StdPeriph_Driver/src/stm32f4xx_dac.c ****   /* Check the status of the specified DAC flag */
 585:../Libraries/STM32F4xx_StdPeriph_Driver/src/stm32f4xx_dac.c ****   if ((DAC->SR & (DAC_FLAG << DAC_Channel)) != (uint8_t)RESET)
 873              		.loc 1 585 3 view .LVU183
 874              	@ ../Libraries/STM32F4xx_StdPeriph_Driver/src/stm32f4xx_dac.c:585:   if ((DAC->SR & (DAC_FLAG << DA
 875              		.loc 1 585 11 is_stmt 0 view .LVU184
 876 0000 044B     		ldr	r3, .L57	@ tmp120,
 877 0002 5B6B     		ldr	r3, [r3, #52]	@ _1, MEM[(struct DAC_TypeDef *)1073771520B].SR
 878              	.LVL40:
 586:../Libraries/STM32F4xx_StdPeriph_Driver/src/stm32f4xx_dac.c ****   {
 587:../Libraries/STM32F4xx_StdPeriph_Driver/src/stm32f4xx_dac.c ****     /* DAC_FLAG is set */
 588:../Libraries/STM32F4xx_StdPeriph_Driver/src/stm32f4xx_dac.c ****     bitstatus = SET;
 589:../Libraries/STM32F4xx_StdPeriph_Driver/src/stm32f4xx_dac.c ****   }
 590:../Libraries/STM32F4xx_StdPeriph_Driver/src/stm32f4xx_dac.c ****   else
 591:../Libraries/STM32F4xx_StdPeriph_Driver/src/stm32f4xx_dac.c ****   {
 592:../Libraries/STM32F4xx_StdPeriph_Driver/src/stm32f4xx_dac.c ****     /* DAC_FLAG is reset */
 593:../Libraries/STM32F4xx_StdPeriph_Driver/src/stm32f4xx_dac.c ****     bitstatus = RESET;
 594:../Libraries/STM32F4xx_StdPeriph_Driver/src/stm32f4xx_dac.c ****   }
 595:../Libraries/STM32F4xx_StdPeriph_Driver/src/stm32f4xx_dac.c ****   /* Return the DAC_FLAG status */
 596:../Libraries/STM32F4xx_StdPeriph_Driver/src/stm32f4xx_dac.c ****   return  bitstatus;
 879              		.loc 1 596 3 is_stmt 1 view .LVU185
 880              	@ ../Libraries/STM32F4xx_StdPeriph_Driver/src/stm32f4xx_dac.c:585:   if ((DAC->SR & (DAC_FLAG << DA
 585:../Libraries/STM32F4xx_StdPeriph_Driver/src/stm32f4xx_dac.c ****   {
 881              		.loc 1 585 28 is_stmt 0 view .LVU186
 882 0004 01FA00F0 		lsl	r0, r1, r0	@ tmp122, tmp127, tmp126
 883              	.LVL41:
 884              	@ ../Libraries/STM32F4xx_StdPeriph_Driver/src/stm32f4xx_dac.c:585:   if ((DAC->SR & (DAC_FLAG << DA
 585:../Libraries/STM32F4xx_StdPeriph_Driver/src/stm32f4xx_dac.c ****   {
 885              		.loc 1 585 6 view .LVU187
 886 0008 1842     		tst	r0, r3	@ tmp122, _1
 887              	@ ../Libraries/STM32F4xx_StdPeriph_Driver/src/stm32f4xx_dac.c:597: }
 597:../Libraries/STM32F4xx_StdPeriph_Driver/src/stm32f4xx_dac.c **** }
 888              		.loc 1 597 1 view .LVU188
 889 000a 14BF     		ite	ne
 890 000c 0120     		movne	r0, #1	@,
 891 000e 0020     		moveq	r0, #0	@,
 892 0010 7047     		bx	lr	@
 893              	.L58:
 894 0012 00BF     		.align	2
 895              	.L57:
 896 0014 00740040 		.word	1073771520
 897              		.cfi_endproc
 898              	.LFE123:
 899              		.size	DAC_GetFlagStatus, .-DAC_GetFlagStatus
 900              		.section	.text.DAC_ClearFlag,"ax",%progbits
 901              		.align	1
 902              		.p2align 2,,3
 903              		.global	DAC_ClearFlag
 904              		.syntax unified
 905              		.thumb
 906              		.thumb_func
 907              		.type	DAC_ClearFlag, %function
 908              	DAC_ClearFlag:
 909              	.LVL42:
 910              	.LFB124:
 598:../Libraries/STM32F4xx_StdPeriph_Driver/src/stm32f4xx_dac.c **** 
 599:../Libraries/STM32F4xx_StdPeriph_Driver/src/stm32f4xx_dac.c **** /**
 600:../Libraries/STM32F4xx_StdPeriph_Driver/src/stm32f4xx_dac.c ****   * @brief  Clears the DAC channel's pending flags.
ARM GAS  C:\Users\admin\AppData\Local\Temp\ccNMST8T.s 			page 28


 601:../Libraries/STM32F4xx_StdPeriph_Driver/src/stm32f4xx_dac.c ****   * @param  DAC_Channel: The selected DAC channel. 
 602:../Libraries/STM32F4xx_StdPeriph_Driver/src/stm32f4xx_dac.c ****   *          This parameter can be one of the following values:
 603:../Libraries/STM32F4xx_StdPeriph_Driver/src/stm32f4xx_dac.c ****   *            @arg DAC_Channel_1: DAC Channel1 selected
 604:../Libraries/STM32F4xx_StdPeriph_Driver/src/stm32f4xx_dac.c ****   *            @arg DAC_Channel_2: DAC Channel2 selected
 605:../Libraries/STM32F4xx_StdPeriph_Driver/src/stm32f4xx_dac.c ****   * @param  DAC_FLAG: specifies the flag to clear. 
 606:../Libraries/STM32F4xx_StdPeriph_Driver/src/stm32f4xx_dac.c ****   *          This parameter can be of the following value:
 607:../Libraries/STM32F4xx_StdPeriph_Driver/src/stm32f4xx_dac.c ****   *            @arg DAC_FLAG_DMAUDR: DMA underrun flag 
 608:../Libraries/STM32F4xx_StdPeriph_Driver/src/stm32f4xx_dac.c ****   * @note   The DMA underrun occurs when a second external trigger arrives before the 
 609:../Libraries/STM32F4xx_StdPeriph_Driver/src/stm32f4xx_dac.c ****   *         acknowledgement for the first external trigger is received (first request).            
 610:../Libraries/STM32F4xx_StdPeriph_Driver/src/stm32f4xx_dac.c ****   * @retval None
 611:../Libraries/STM32F4xx_StdPeriph_Driver/src/stm32f4xx_dac.c ****   */
 612:../Libraries/STM32F4xx_StdPeriph_Driver/src/stm32f4xx_dac.c **** void DAC_ClearFlag(uint32_t DAC_Channel, uint32_t DAC_FLAG)
 613:../Libraries/STM32F4xx_StdPeriph_Driver/src/stm32f4xx_dac.c **** {
 911              		.loc 1 613 1 is_stmt 1 view -0
 912              		.cfi_startproc
 913              		@ args = 0, pretend = 0, frame = 0
 914              		@ frame_needed = 0, uses_anonymous_args = 0
 915              		@ link register save eliminated.
 614:../Libraries/STM32F4xx_StdPeriph_Driver/src/stm32f4xx_dac.c ****   /* Check the parameters */
 615:../Libraries/STM32F4xx_StdPeriph_Driver/src/stm32f4xx_dac.c ****   assert_param(IS_DAC_CHANNEL(DAC_Channel));
 916              		.loc 1 615 3 view .LVU190
 616:../Libraries/STM32F4xx_StdPeriph_Driver/src/stm32f4xx_dac.c ****   assert_param(IS_DAC_FLAG(DAC_FLAG));
 917              		.loc 1 616 3 view .LVU191
 617:../Libraries/STM32F4xx_StdPeriph_Driver/src/stm32f4xx_dac.c **** 
 618:../Libraries/STM32F4xx_StdPeriph_Driver/src/stm32f4xx_dac.c ****   /* Clear the selected DAC flags */
 619:../Libraries/STM32F4xx_StdPeriph_Driver/src/stm32f4xx_dac.c ****   DAC->SR = (DAC_FLAG << DAC_Channel);
 918              		.loc 1 619 3 view .LVU192
 919              	@ ../Libraries/STM32F4xx_StdPeriph_Driver/src/stm32f4xx_dac.c:619:   DAC->SR = (DAC_FLAG << DAC_Cha
 920              		.loc 1 619 11 is_stmt 0 view .LVU193
 921 0000 024B     		ldr	r3, .L60	@ tmp116,
 922              	@ ../Libraries/STM32F4xx_StdPeriph_Driver/src/stm32f4xx_dac.c:619:   DAC->SR = (DAC_FLAG << DAC_Cha
 923              		.loc 1 619 23 view .LVU194
 924 0002 01FA00F0 		lsl	r0, r1, r0	@ _1, tmp118, tmp117
 925              	.LVL43:
 926              	@ ../Libraries/STM32F4xx_StdPeriph_Driver/src/stm32f4xx_dac.c:619:   DAC->SR = (DAC_FLAG << DAC_Cha
 927              		.loc 1 619 11 view .LVU195
 928 0006 5863     		str	r0, [r3, #52]	@ _1, MEM[(struct DAC_TypeDef *)1073771520B].SR
 929              	@ ../Libraries/STM32F4xx_StdPeriph_Driver/src/stm32f4xx_dac.c:620: }
 620:../Libraries/STM32F4xx_StdPeriph_Driver/src/stm32f4xx_dac.c **** }
 930              		.loc 1 620 1 view .LVU196
 931 0008 7047     		bx	lr	@
 932              	.L61:
 933 000a 00BF     		.align	2
 934              	.L60:
 935 000c 00740040 		.word	1073771520
 936              		.cfi_endproc
 937              	.LFE124:
 938              		.size	DAC_ClearFlag, .-DAC_ClearFlag
 939              		.section	.text.DAC_GetITStatus,"ax",%progbits
 940              		.align	1
 941              		.p2align 2,,3
 942              		.global	DAC_GetITStatus
 943              		.syntax unified
 944              		.thumb
 945              		.thumb_func
 946              		.type	DAC_GetITStatus, %function
 947              	DAC_GetITStatus:
ARM GAS  C:\Users\admin\AppData\Local\Temp\ccNMST8T.s 			page 29


 948              	.LVL44:
 949              	.LFB125:
 621:../Libraries/STM32F4xx_StdPeriph_Driver/src/stm32f4xx_dac.c **** 
 622:../Libraries/STM32F4xx_StdPeriph_Driver/src/stm32f4xx_dac.c **** /**
 623:../Libraries/STM32F4xx_StdPeriph_Driver/src/stm32f4xx_dac.c ****   * @brief  Checks whether the specified DAC interrupt has occurred or not.
 624:../Libraries/STM32F4xx_StdPeriph_Driver/src/stm32f4xx_dac.c ****   * @param  DAC_Channel: The selected DAC channel. 
 625:../Libraries/STM32F4xx_StdPeriph_Driver/src/stm32f4xx_dac.c ****   *          This parameter can be one of the following values:
 626:../Libraries/STM32F4xx_StdPeriph_Driver/src/stm32f4xx_dac.c ****   *            @arg DAC_Channel_1: DAC Channel1 selected
 627:../Libraries/STM32F4xx_StdPeriph_Driver/src/stm32f4xx_dac.c ****   *            @arg DAC_Channel_2: DAC Channel2 selected
 628:../Libraries/STM32F4xx_StdPeriph_Driver/src/stm32f4xx_dac.c ****   * @param  DAC_IT: specifies the DAC interrupt source to check. 
 629:../Libraries/STM32F4xx_StdPeriph_Driver/src/stm32f4xx_dac.c ****   *          This parameter can be the following values:
 630:../Libraries/STM32F4xx_StdPeriph_Driver/src/stm32f4xx_dac.c ****   *            @arg DAC_IT_DMAUDR: DMA underrun interrupt mask
 631:../Libraries/STM32F4xx_StdPeriph_Driver/src/stm32f4xx_dac.c ****   * @note   The DMA underrun occurs when a second external trigger arrives before the 
 632:../Libraries/STM32F4xx_StdPeriph_Driver/src/stm32f4xx_dac.c ****   *         acknowledgement for the first external trigger is received (first request).
 633:../Libraries/STM32F4xx_StdPeriph_Driver/src/stm32f4xx_dac.c ****   * @retval The new state of DAC_IT (SET or RESET).
 634:../Libraries/STM32F4xx_StdPeriph_Driver/src/stm32f4xx_dac.c ****   */
 635:../Libraries/STM32F4xx_StdPeriph_Driver/src/stm32f4xx_dac.c **** ITStatus DAC_GetITStatus(uint32_t DAC_Channel, uint32_t DAC_IT)
 636:../Libraries/STM32F4xx_StdPeriph_Driver/src/stm32f4xx_dac.c **** {
 950              		.loc 1 636 1 is_stmt 1 view -0
 951              		.cfi_startproc
 952              		@ args = 0, pretend = 0, frame = 0
 953              		@ frame_needed = 0, uses_anonymous_args = 0
 954              		@ link register save eliminated.
 637:../Libraries/STM32F4xx_StdPeriph_Driver/src/stm32f4xx_dac.c ****   ITStatus bitstatus = RESET;
 955              		.loc 1 637 3 view .LVU198
 638:../Libraries/STM32F4xx_StdPeriph_Driver/src/stm32f4xx_dac.c ****   uint32_t enablestatus = 0;
 956              		.loc 1 638 3 view .LVU199
 639:../Libraries/STM32F4xx_StdPeriph_Driver/src/stm32f4xx_dac.c ****   
 640:../Libraries/STM32F4xx_StdPeriph_Driver/src/stm32f4xx_dac.c ****   /* Check the parameters */
 641:../Libraries/STM32F4xx_StdPeriph_Driver/src/stm32f4xx_dac.c ****   assert_param(IS_DAC_CHANNEL(DAC_Channel));
 957              		.loc 1 641 3 view .LVU200
 642:../Libraries/STM32F4xx_StdPeriph_Driver/src/stm32f4xx_dac.c ****   assert_param(IS_DAC_IT(DAC_IT));
 958              		.loc 1 642 3 view .LVU201
 643:../Libraries/STM32F4xx_StdPeriph_Driver/src/stm32f4xx_dac.c **** 
 644:../Libraries/STM32F4xx_StdPeriph_Driver/src/stm32f4xx_dac.c ****   /* Get the DAC_IT enable bit status */
 645:../Libraries/STM32F4xx_StdPeriph_Driver/src/stm32f4xx_dac.c ****   enablestatus = (DAC->CR & (DAC_IT << DAC_Channel)) ;
 959              		.loc 1 645 3 view .LVU202
 960              	@ ../Libraries/STM32F4xx_StdPeriph_Driver/src/stm32f4xx_dac.c:645:   enablestatus = (DAC->CR & (DAC
 961              		.loc 1 645 22 is_stmt 0 view .LVU203
 962 0000 054B     		ldr	r3, .L65	@ tmp122,
 963 0002 1A68     		ldr	r2, [r3]	@ _1, MEM[(struct DAC_TypeDef *)1073771520B].CR
 964              	@ ../Libraries/STM32F4xx_StdPeriph_Driver/src/stm32f4xx_dac.c:648:   if (((DAC->SR & (DAC_IT << DAC
 646:../Libraries/STM32F4xx_StdPeriph_Driver/src/stm32f4xx_dac.c ****   
 647:../Libraries/STM32F4xx_StdPeriph_Driver/src/stm32f4xx_dac.c ****   /* Check the status of the specified DAC interrupt */
 648:../Libraries/STM32F4xx_StdPeriph_Driver/src/stm32f4xx_dac.c ****   if (((DAC->SR & (DAC_IT << DAC_Channel)) != (uint32_t)RESET) && enablestatus)
 965              		.loc 1 648 12 view .LVU204
 966 0004 5B6B     		ldr	r3, [r3, #52]	@ _3, MEM[(struct DAC_TypeDef *)1073771520B].SR
 967              	@ ../Libraries/STM32F4xx_StdPeriph_Driver/src/stm32f4xx_dac.c:645:   enablestatus = (DAC->CR & (DAC
 645:../Libraries/STM32F4xx_StdPeriph_Driver/src/stm32f4xx_dac.c ****   
 968              		.loc 1 645 37 view .LVU205
 969 0006 8140     		lsls	r1, r1, r0	@ _2, tmp130, tmp129
 970              	.LVL45:
 971              		.loc 1 648 3 is_stmt 1 view .LVU206
 972              	@ ../Libraries/STM32F4xx_StdPeriph_Driver/src/stm32f4xx_dac.c:648:   if (((DAC->SR & (DAC_IT << DAC
 973              		.loc 1 648 6 is_stmt 0 view .LVU207
 974 0008 11EA0300 		ands	r0, r1, r3	@ tmp124, _2, _3
 975              	.LVL46:
ARM GAS  C:\Users\admin\AppData\Local\Temp\ccNMST8T.s 			page 30


 976              		.loc 1 648 6 view .LVU208
 977 000c 03D0     		beq	.L63		@,
 978              	@ ../Libraries/STM32F4xx_StdPeriph_Driver/src/stm32f4xx_dac.c:648:   if (((DAC->SR & (DAC_IT << DAC
 979              		.loc 1 648 64 discriminator 1 view .LVU209
 980 000e 0A42     		tst	r2, r1	@ _1, _2
 981              	@ ../Libraries/STM32F4xx_StdPeriph_Driver/src/stm32f4xx_dac.c:656:     bitstatus = RESET;
 649:../Libraries/STM32F4xx_StdPeriph_Driver/src/stm32f4xx_dac.c ****   {
 650:../Libraries/STM32F4xx_StdPeriph_Driver/src/stm32f4xx_dac.c ****     /* DAC_IT is set */
 651:../Libraries/STM32F4xx_StdPeriph_Driver/src/stm32f4xx_dac.c ****     bitstatus = SET;
 652:../Libraries/STM32F4xx_StdPeriph_Driver/src/stm32f4xx_dac.c ****   }
 653:../Libraries/STM32F4xx_StdPeriph_Driver/src/stm32f4xx_dac.c ****   else
 654:../Libraries/STM32F4xx_StdPeriph_Driver/src/stm32f4xx_dac.c ****   {
 655:../Libraries/STM32F4xx_StdPeriph_Driver/src/stm32f4xx_dac.c ****     /* DAC_IT is reset */
 656:../Libraries/STM32F4xx_StdPeriph_Driver/src/stm32f4xx_dac.c ****     bitstatus = RESET;
 982              		.loc 1 656 15 discriminator 1 view .LVU210
 983 0010 14BF     		ite	ne
 984 0012 0120     		movne	r0, #1	@ <retval>,
 985 0014 0020     		moveq	r0, #0	@ <retval>,
 986              	.L63:
 987              	.LVL47:
 657:../Libraries/STM32F4xx_StdPeriph_Driver/src/stm32f4xx_dac.c ****   }
 658:../Libraries/STM32F4xx_StdPeriph_Driver/src/stm32f4xx_dac.c ****   /* Return the DAC_IT status */
 659:../Libraries/STM32F4xx_StdPeriph_Driver/src/stm32f4xx_dac.c ****   return  bitstatus;
 988              		.loc 1 659 3 is_stmt 1 view .LVU211
 989              	@ ../Libraries/STM32F4xx_StdPeriph_Driver/src/stm32f4xx_dac.c:660: }
 660:../Libraries/STM32F4xx_StdPeriph_Driver/src/stm32f4xx_dac.c **** }
 990              		.loc 1 660 1 is_stmt 0 view .LVU212
 991 0016 7047     		bx	lr	@
 992              	.L66:
 993              		.align	2
 994              	.L65:
 995 0018 00740040 		.word	1073771520
 996              		.cfi_endproc
 997              	.LFE125:
 998              		.size	DAC_GetITStatus, .-DAC_GetITStatus
 999              		.section	.text.DAC_ClearITPendingBit,"ax",%progbits
 1000              		.align	1
 1001              		.p2align 2,,3
 1002              		.global	DAC_ClearITPendingBit
 1003              		.syntax unified
 1004              		.thumb
 1005              		.thumb_func
 1006              		.type	DAC_ClearITPendingBit, %function
 1007              	DAC_ClearITPendingBit:
 1008              	.LFB130:
 1009              		.cfi_startproc
 1010              		@ args = 0, pretend = 0, frame = 0
 1011              		@ frame_needed = 0, uses_anonymous_args = 0
 1012              		@ link register save eliminated.
 1013 0000 024B     		ldr	r3, .L68	@ tmp116,
 1014 0002 01FA00F0 		lsl	r0, r1, r0	@ _5, tmp118, tmp117
 1015 0006 5863     		str	r0, [r3, #52]	@ _5, MEM[(struct DAC_TypeDef *)1073771520B].SR
 1016 0008 7047     		bx	lr	@
 1017              	.L69:
 1018 000a 00BF     		.align	2
 1019              	.L68:
 1020 000c 00740040 		.word	1073771520
ARM GAS  C:\Users\admin\AppData\Local\Temp\ccNMST8T.s 			page 31


 1021              		.cfi_endproc
 1022              	.LFE130:
 1023              		.size	DAC_ClearITPendingBit, .-DAC_ClearITPendingBit
 1024              		.text
 1025              	.Letext0:
 1026              		.file 2 "c:\\program files (x86)\\gnu arm embedded toolchain\\10 2021.10\\arm-none-eabi\\include\\
 1027              		.file 3 "c:\\program files (x86)\\gnu arm embedded toolchain\\10 2021.10\\arm-none-eabi\\include\\
 1028              		.file 4 "../Libraries/CMSIS/ST/STM32F4xx/Include/stm32f4xx.h"
 1029              		.file 5 "../Libraries/STM32F4xx_StdPeriph_Driver/inc/stm32f4xx_dac.h"
 1030              		.file 6 "../Libraries/STM32F4xx_StdPeriph_Driver/inc/stm32f4xx_rcc.h"