ARM GAS  C:\Users\admin\AppData\Local\Temp\ccdBMIKa.s 			page 1


   1              		.cpu cortex-m4
   2              		.arch armv7e-m
   3              		.fpu fpv4-sp-d16
   4              		.eabi_attribute 27, 1	@ Tag_ABI_HardFP_use
   5              		.eabi_attribute 28, 1	@ Tag_ABI_VFP_args
   6              		.eabi_attribute 23, 1	@ Tag_ABI_FP_number_model
   7              		.eabi_attribute 24, 1	@ Tag_ABI_align8_needed
   8              		.eabi_attribute 25, 1	@ Tag_ABI_align8_preserved
   9              		.eabi_attribute 26, 1	@ Tag_ABI_enum_size
  10              		.eabi_attribute 30, 2	@ Tag_ABI_optimization_goals
  11              		.eabi_attribute 34, 1	@ Tag_CPU_unaligned_access
  12              		.eabi_attribute 18, 4	@ Tag_ABI_PCS_wchar_t
  13              		.file	"stm32f4xx_cryp.c"
  14              	@ GNU C89 (GNU Arm Embedded Toolchain 10.3-2021.10) version 10.3.1 20210824 (release) (arm-none-eab
  15              	@	compiled by GNU C version 7.3-win32 20180312, GMP version 6.1.0, MPFR version 3.1.4, MPC version 
  16              	
  17              	@ GGC heuristics: --param ggc-min-expand=100 --param ggc-min-heapsize=131072
  18              	@ options passed:  -I . -I . -I ../Utilities/STM32F4-Discovery/
  19              	@ -I ../Libraries/STM32_USB_Device_Library/Class/audio/inc/
  20              	@ -I ../Libraries/STM32_USB_Device_Library/Core/inc/
  21              	@ -I ../Libraries/STM32_USB_OTG_Driver/inc/
  22              	@ -I ../Utilities/STM32F4-Discovery/
  23              	@ -I ../Libraries/STM32F4xx_StdPeriph_Driver/inc/
  24              	@ -I ../Utilities/STM32F4-Discovery/
  25              	@ -I ../Libraries/CMSIS/ST/STM32F4xx/Include/
  26              	@ -I ../Libraries/CMSIS/Include/ -imultilib thumb/v7e-m+fp/hard
  27              	@ -iprefix c:\program files (x86)\gnu arm embedded toolchain\10 2021.10\bin\../lib/gcc/arm-none-eab
  28              	@ -isysroot c:\program files (x86)\gnu arm embedded toolchain\10 2021.10\bin\../arm-none-eabi
  29              	@ -MD out/stm32f4xx_cryp.d -MF out/stm32f4xx_cryp.d -MP
  30              	@ -MQ out/stm32f4xx_cryp.o -D__USES_INITFINI__ -D STM32F4XX -D __VFP_FP__
  31              	@ -D USE_USB_OTG_FS
  32              	@ ../Libraries/STM32F4xx_StdPeriph_Driver/src/stm32f4xx_cryp.c
  33              	@ -mcpu=cortex-m4 -mthumb -mfloat-abi=hard -mfpu=fpv4-sp-d16
  34              	@ -mlibarch=armv7e-m+fp -march=armv7e-m+fp
  35              	@ -auxbase-strip out/stm32f4xx_cryp.o -g -ggdb3 -O3 -Wall
  36              	@ -Wstrict-prototypes -Wextra -std=gnu90 -ffast-math -ffunction-sections
  37              	@ -fdata-sections -fverbose-asm
  38              	@ options enabled:  -faggressive-loop-optimizations -falign-functions
  39              	@ -falign-jumps -falign-labels -falign-loops -fallocation-dce
  40              	@ -fassociative-math -fauto-inc-dec -fbranch-count-reg -fcaller-saves
  41              	@ -fcombine-stack-adjustments -fcompare-elim -fcprop-registers
  42              	@ -fcrossjumping -fcse-follow-jumps -fcx-limited-range -fdata-sections
  43              	@ -fdefer-pop -fdelete-null-pointer-checks -fdevirtualize
  44              	@ -fdevirtualize-speculatively -fdwarf2-cfi-asm -fearly-inlining
  45              	@ -feliminate-unused-debug-symbols -feliminate-unused-debug-types
  46              	@ -fexpensive-optimizations -ffinite-math-only -fforward-propagate
  47              	@ -ffp-int-builtin-inexact -ffunction-cse -ffunction-sections -fgcse
  48              	@ -fgcse-after-reload -fgcse-lm -fgnu-unique -fguess-branch-probability
  49              	@ -fhoist-adjacent-loads -fident -fif-conversion -fif-conversion2
  50              	@ -findirect-inlining -finline -finline-atomics -finline-functions
  51              	@ -finline-functions-called-once -finline-small-functions -fipa-bit-cp
  52              	@ -fipa-cp -fipa-cp-clone -fipa-icf -fipa-icf-functions -fipa-icf-variables
  53              	@ -fipa-profile -fipa-pure-const -fipa-ra -fipa-reference
  54              	@ -fipa-reference-addressable -fipa-sra -fipa-stack-alignment -fipa-vrp
  55              	@ -fira-hoist-pressure -fira-share-save-slots -fira-share-spill-slots
  56              	@ -fisolate-erroneous-paths-dereference -fivopts -fkeep-static-consts
  57              	@ -fleading-underscore -flifetime-dse -floop-interchange
ARM GAS  C:\Users\admin\AppData\Local\Temp\ccdBMIKa.s 			page 2


  58              	@ -floop-unroll-and-jam -flra-remat -fmerge-constants -fmerge-debug-strings
  59              	@ -fmove-loop-invariants -fomit-frame-pointer -foptimize-sibling-calls
  60              	@ -foptimize-strlen -fpartial-inlining -fpeel-loops -fpeephole -fpeephole2
  61              	@ -fplt -fpredictive-commoning -fprefetch-loop-arrays -freciprocal-math
  62              	@ -freg-struct-return -freorder-blocks -freorder-functions
  63              	@ -frerun-cse-after-loop -fsched-critical-path-heuristic
  64              	@ -fsched-dep-count-heuristic -fsched-group-heuristic -fsched-interblock
  65              	@ -fsched-last-insn-heuristic -fsched-pressure -fsched-rank-heuristic
  66              	@ -fsched-spec -fsched-spec-insn-heuristic -fsched-stalled-insns-dep
  67              	@ -fschedule-insns -fschedule-insns2 -fsection-anchors
  68              	@ -fsemantic-interposition -fshow-column -fshrink-wrap
  69              	@ -fshrink-wrap-separate -fsplit-ivs-in-unroller -fsplit-loops
  70              	@ -fsplit-paths -fsplit-wide-types -fssa-backprop -fssa-phiopt -fstdarg-opt
  71              	@ -fstore-merging -fstrict-aliasing -fstrict-volatile-bitfields
  72              	@ -fsync-libcalls -fthread-jumps -ftoplevel-reorder -ftree-bit-ccp
  73              	@ -ftree-builtin-call-dce -ftree-ccp -ftree-ch -ftree-coalesce-vars
  74              	@ -ftree-copy-prop -ftree-cselim -ftree-dce -ftree-dominator-opts
  75              	@ -ftree-dse -ftree-forwprop -ftree-fre -ftree-loop-distribute-patterns
  76              	@ -ftree-loop-distribution -ftree-loop-if-convert -ftree-loop-im
  77              	@ -ftree-loop-ivcanon -ftree-loop-optimize -ftree-loop-vectorize
  78              	@ -ftree-parallelize-loops= -ftree-partial-pre -ftree-phiprop -ftree-pre
  79              	@ -ftree-pta -ftree-reassoc -ftree-scev-cprop -ftree-sink
  80              	@ -ftree-slp-vectorize -ftree-slsr -ftree-sra -ftree-switch-conversion
  81              	@ -ftree-tail-merge -ftree-ter -ftree-vrp -funit-at-a-time
  82              	@ -funsafe-math-optimizations -funswitch-loops -fvar-tracking
  83              	@ -fvar-tracking-assignments -fverbose-asm -fversion-loops-for-strides
  84              	@ -fzero-initialized-in-bss -masm-syntax-unified -mbe32 -mlittle-endian
  85              	@ -mpic-data-is-text-relative -msched-prolog -mthumb -munaligned-access
  86              	@ -mvectorize-with-neon-quad
  87              	
  88              		.text
  89              	.Ltext0:
  90              		.cfi_sections	.debug_frame
  91              		.section	.text.CRYP_DeInit,"ax",%progbits
  92              		.align	1
  93              		.p2align 2,,3
  94              		.global	CRYP_DeInit
  95              		.syntax unified
  96              		.thumb
  97              		.thumb_func
  98              		.type	CRYP_DeInit, %function
  99              	CRYP_DeInit:
 100              	.LFB110:
 101              		.file 1 "../Libraries/STM32F4xx_StdPeriph_Driver/src/stm32f4xx_cryp.c"
   1:../Libraries/STM32F4xx_StdPeriph_Driver/src/stm32f4xx_cryp.c **** /**
   2:../Libraries/STM32F4xx_StdPeriph_Driver/src/stm32f4xx_cryp.c ****   ******************************************************************************
   3:../Libraries/STM32F4xx_StdPeriph_Driver/src/stm32f4xx_cryp.c ****   * @file    stm32f4xx_cryp.c
   4:../Libraries/STM32F4xx_StdPeriph_Driver/src/stm32f4xx_cryp.c ****   * @author  MCD Application Team
   5:../Libraries/STM32F4xx_StdPeriph_Driver/src/stm32f4xx_cryp.c ****   * @version V1.0.0
   6:../Libraries/STM32F4xx_StdPeriph_Driver/src/stm32f4xx_cryp.c ****   * @date    30-September-2011
   7:../Libraries/STM32F4xx_StdPeriph_Driver/src/stm32f4xx_cryp.c ****   * @brief   This file provides firmware functions to manage the following 
   8:../Libraries/STM32F4xx_StdPeriph_Driver/src/stm32f4xx_cryp.c ****   *          functionalities of the  Cryptographic processor (CRYP) peripheral:           
   9:../Libraries/STM32F4xx_StdPeriph_Driver/src/stm32f4xx_cryp.c ****   *           - Initialization and Configuration functions
  10:../Libraries/STM32F4xx_StdPeriph_Driver/src/stm32f4xx_cryp.c ****   *           - Data treatment functions 
  11:../Libraries/STM32F4xx_StdPeriph_Driver/src/stm32f4xx_cryp.c ****   *           - Context swapping functions     
  12:../Libraries/STM32F4xx_StdPeriph_Driver/src/stm32f4xx_cryp.c ****   *           - DMA interface function       
  13:../Libraries/STM32F4xx_StdPeriph_Driver/src/stm32f4xx_cryp.c ****   *           - Interrupts and flags management       
ARM GAS  C:\Users\admin\AppData\Local\Temp\ccdBMIKa.s 			page 3


  14:../Libraries/STM32F4xx_StdPeriph_Driver/src/stm32f4xx_cryp.c ****   *
  15:../Libraries/STM32F4xx_StdPeriph_Driver/src/stm32f4xx_cryp.c ****   *  @verbatim
  16:../Libraries/STM32F4xx_StdPeriph_Driver/src/stm32f4xx_cryp.c ****   *                               
  17:../Libraries/STM32F4xx_StdPeriph_Driver/src/stm32f4xx_cryp.c ****   *          ===================================================================      
  18:../Libraries/STM32F4xx_StdPeriph_Driver/src/stm32f4xx_cryp.c ****   *                                 How to use this driver
  19:../Libraries/STM32F4xx_StdPeriph_Driver/src/stm32f4xx_cryp.c ****   *          =================================================================== 
  20:../Libraries/STM32F4xx_StdPeriph_Driver/src/stm32f4xx_cryp.c ****   *          1. Enable the CRYP controller clock using 
  21:../Libraries/STM32F4xx_StdPeriph_Driver/src/stm32f4xx_cryp.c ****   *              RCC_AHB2PeriphClockCmd(RCC_AHB2Periph_CRYP, ENABLE); function.
  22:../Libraries/STM32F4xx_StdPeriph_Driver/src/stm32f4xx_cryp.c ****   *
  23:../Libraries/STM32F4xx_StdPeriph_Driver/src/stm32f4xx_cryp.c ****   *          2. Initialise the CRYP using CRYP_Init(), CRYP_KeyInit() and if 
  24:../Libraries/STM32F4xx_StdPeriph_Driver/src/stm32f4xx_cryp.c ****   *             needed CRYP_IVInit(). 
  25:../Libraries/STM32F4xx_StdPeriph_Driver/src/stm32f4xx_cryp.c ****   *
  26:../Libraries/STM32F4xx_StdPeriph_Driver/src/stm32f4xx_cryp.c ****   *          3. Flush the IN and OUT FIFOs by using CRYP_FIFOFlush() function.
  27:../Libraries/STM32F4xx_StdPeriph_Driver/src/stm32f4xx_cryp.c ****   *
  28:../Libraries/STM32F4xx_StdPeriph_Driver/src/stm32f4xx_cryp.c ****   *          4. Enable the CRYP controller using the CRYP_Cmd() function. 
  29:../Libraries/STM32F4xx_StdPeriph_Driver/src/stm32f4xx_cryp.c ****   *
  30:../Libraries/STM32F4xx_StdPeriph_Driver/src/stm32f4xx_cryp.c ****   *          5. If using DMA for Data input and output transfer, 
  31:../Libraries/STM32F4xx_StdPeriph_Driver/src/stm32f4xx_cryp.c ****   *             Activate the needed DMA Requests using CRYP_DMACmd() function 
  32:../Libraries/STM32F4xx_StdPeriph_Driver/src/stm32f4xx_cryp.c ****   
  33:../Libraries/STM32F4xx_StdPeriph_Driver/src/stm32f4xx_cryp.c ****   *          6. If DMA is not used for data transfer, use CRYP_DataIn() and 
  34:../Libraries/STM32F4xx_StdPeriph_Driver/src/stm32f4xx_cryp.c ****   *             CRYP_DataOut() functions to enter data to IN FIFO and get result
  35:../Libraries/STM32F4xx_StdPeriph_Driver/src/stm32f4xx_cryp.c ****   *             from OUT FIFO.
  36:../Libraries/STM32F4xx_StdPeriph_Driver/src/stm32f4xx_cryp.c ****   *
  37:../Libraries/STM32F4xx_StdPeriph_Driver/src/stm32f4xx_cryp.c ****   *          7. To control CRYP events you can use one of the following 
  38:../Libraries/STM32F4xx_StdPeriph_Driver/src/stm32f4xx_cryp.c ****   *              two methods:
  39:../Libraries/STM32F4xx_StdPeriph_Driver/src/stm32f4xx_cryp.c ****   *               - Check on CRYP flags using the CRYP_GetFlagStatus() function.  
  40:../Libraries/STM32F4xx_StdPeriph_Driver/src/stm32f4xx_cryp.c ****   *               - Use CRYP interrupts through the function CRYP_ITConfig() at 
  41:../Libraries/STM32F4xx_StdPeriph_Driver/src/stm32f4xx_cryp.c ****   *                 initialization phase and CRYP_GetITStatus() function into 
  42:../Libraries/STM32F4xx_StdPeriph_Driver/src/stm32f4xx_cryp.c ****   *                 interrupt routines in processing phase.
  43:../Libraries/STM32F4xx_StdPeriph_Driver/src/stm32f4xx_cryp.c ****   *       
  44:../Libraries/STM32F4xx_StdPeriph_Driver/src/stm32f4xx_cryp.c ****   *          8. Save and restore Cryptographic processor context using  
  45:../Libraries/STM32F4xx_StdPeriph_Driver/src/stm32f4xx_cryp.c ****   *             CRYP_SaveContext() and CRYP_RestoreContext() functions.     
  46:../Libraries/STM32F4xx_StdPeriph_Driver/src/stm32f4xx_cryp.c ****   *
  47:../Libraries/STM32F4xx_StdPeriph_Driver/src/stm32f4xx_cryp.c ****   *
  48:../Libraries/STM32F4xx_StdPeriph_Driver/src/stm32f4xx_cryp.c ****   *          ===================================================================  
  49:../Libraries/STM32F4xx_StdPeriph_Driver/src/stm32f4xx_cryp.c ****   *                Procedure to perform an encryption or a decryption
  50:../Libraries/STM32F4xx_StdPeriph_Driver/src/stm32f4xx_cryp.c ****   *          ===================================================================  
  51:../Libraries/STM32F4xx_StdPeriph_Driver/src/stm32f4xx_cryp.c ****   *
  52:../Libraries/STM32F4xx_StdPeriph_Driver/src/stm32f4xx_cryp.c ****   *      Initialization
  53:../Libraries/STM32F4xx_StdPeriph_Driver/src/stm32f4xx_cryp.c ****   *      ===============  
  54:../Libraries/STM32F4xx_StdPeriph_Driver/src/stm32f4xx_cryp.c ****   *     1. Initialize the peripheral using CRYP_Init(), CRYP_KeyInit() and 
  55:../Libraries/STM32F4xx_StdPeriph_Driver/src/stm32f4xx_cryp.c ****   *        CRYP_IVInit functions:
  56:../Libraries/STM32F4xx_StdPeriph_Driver/src/stm32f4xx_cryp.c ****   *        - Configure the key size (128-, 192- or 256-bit, in the AES only) 
  57:../Libraries/STM32F4xx_StdPeriph_Driver/src/stm32f4xx_cryp.c ****   *        - Enter the symmetric key 
  58:../Libraries/STM32F4xx_StdPeriph_Driver/src/stm32f4xx_cryp.c ****   *        - Configure the data type
  59:../Libraries/STM32F4xx_StdPeriph_Driver/src/stm32f4xx_cryp.c ****   *        - In case of decryption in AES-ECB or AES-CBC, you must prepare 
  60:../Libraries/STM32F4xx_StdPeriph_Driver/src/stm32f4xx_cryp.c ****   *          the key: configure the key preparation mode. Then Enable the CRYP 
  61:../Libraries/STM32F4xx_StdPeriph_Driver/src/stm32f4xx_cryp.c ****   *          peripheral using CRYP_Cmd() function: the BUSY flag is set. 
  62:../Libraries/STM32F4xx_StdPeriph_Driver/src/stm32f4xx_cryp.c ****   *          Wait until BUSY flag is reset : the key is prepared for decryption
  63:../Libraries/STM32F4xx_StdPeriph_Driver/src/stm32f4xx_cryp.c ****   *       - Configure the algorithm and chaining (the DES/TDES in ECB/CBC, the 
  64:../Libraries/STM32F4xx_StdPeriph_Driver/src/stm32f4xx_cryp.c ****   *          AES in ECB/CBC/CTR) 
  65:../Libraries/STM32F4xx_StdPeriph_Driver/src/stm32f4xx_cryp.c ****   *       - Configure the direction (encryption/decryption).
  66:../Libraries/STM32F4xx_StdPeriph_Driver/src/stm32f4xx_cryp.c ****   *       - Write the initialization vectors (in CBC or CTR modes only)
  67:../Libraries/STM32F4xx_StdPeriph_Driver/src/stm32f4xx_cryp.c ****   *
  68:../Libraries/STM32F4xx_StdPeriph_Driver/src/stm32f4xx_cryp.c ****   *    2. Flush the IN and OUT FIFOs using the CRYP_FIFOFlush() function
  69:../Libraries/STM32F4xx_StdPeriph_Driver/src/stm32f4xx_cryp.c ****   *
  70:../Libraries/STM32F4xx_StdPeriph_Driver/src/stm32f4xx_cryp.c ****   *
ARM GAS  C:\Users\admin\AppData\Local\Temp\ccdBMIKa.s 			page 4


  71:../Libraries/STM32F4xx_StdPeriph_Driver/src/stm32f4xx_cryp.c ****   *    Basic Processing mode (polling mode) 
  72:../Libraries/STM32F4xx_StdPeriph_Driver/src/stm32f4xx_cryp.c ****   *    ====================================  
  73:../Libraries/STM32F4xx_StdPeriph_Driver/src/stm32f4xx_cryp.c ****   *    1. Enable the cryptographic processor using CRYP_Cmd() function.
  74:../Libraries/STM32F4xx_StdPeriph_Driver/src/stm32f4xx_cryp.c ****   *
  75:../Libraries/STM32F4xx_StdPeriph_Driver/src/stm32f4xx_cryp.c ****   *    2. Write the first blocks in the input FIFO (2 to 8 words) using 
  76:../Libraries/STM32F4xx_StdPeriph_Driver/src/stm32f4xx_cryp.c ****   *       CRYP_DataIn() function.
  77:../Libraries/STM32F4xx_StdPeriph_Driver/src/stm32f4xx_cryp.c ****   *
  78:../Libraries/STM32F4xx_StdPeriph_Driver/src/stm32f4xx_cryp.c ****   *    3. Repeat the following sequence until the complete message has been 
  79:../Libraries/STM32F4xx_StdPeriph_Driver/src/stm32f4xx_cryp.c ****   *       processed:
  80:../Libraries/STM32F4xx_StdPeriph_Driver/src/stm32f4xx_cryp.c ****   *
  81:../Libraries/STM32F4xx_StdPeriph_Driver/src/stm32f4xx_cryp.c ****   *       a) Wait for flag CRYP_FLAG_OFNE occurs (using CRYP_GetFlagStatus() 
  82:../Libraries/STM32F4xx_StdPeriph_Driver/src/stm32f4xx_cryp.c ****   *          function), then read the OUT-FIFO using CRYP_DataOut() function
  83:../Libraries/STM32F4xx_StdPeriph_Driver/src/stm32f4xx_cryp.c ****   *          (1 block or until the FIFO is empty)
  84:../Libraries/STM32F4xx_StdPeriph_Driver/src/stm32f4xx_cryp.c ****   *
  85:../Libraries/STM32F4xx_StdPeriph_Driver/src/stm32f4xx_cryp.c ****   *       b) Wait for flag CRYP_FLAG_IFNF occurs, (using CRYP_GetFlagStatus() 
  86:../Libraries/STM32F4xx_StdPeriph_Driver/src/stm32f4xx_cryp.c ****   *          function then write the IN FIFO using CRYP_DataIn() function 
  87:../Libraries/STM32F4xx_StdPeriph_Driver/src/stm32f4xx_cryp.c ****   *          (1 block or until the FIFO is full)
  88:../Libraries/STM32F4xx_StdPeriph_Driver/src/stm32f4xx_cryp.c ****   *
  89:../Libraries/STM32F4xx_StdPeriph_Driver/src/stm32f4xx_cryp.c ****   *    4. At the end of the processing, CRYP_FLAG_BUSY flag will be reset and 
  90:../Libraries/STM32F4xx_StdPeriph_Driver/src/stm32f4xx_cryp.c ****   *        both FIFOs are empty (CRYP_FLAG_IFEM is set and CRYP_FLAG_OFNE is 
  91:../Libraries/STM32F4xx_StdPeriph_Driver/src/stm32f4xx_cryp.c ****   *        reset). You can disable the peripheral using CRYP_Cmd() function.
  92:../Libraries/STM32F4xx_StdPeriph_Driver/src/stm32f4xx_cryp.c ****   *
  93:../Libraries/STM32F4xx_StdPeriph_Driver/src/stm32f4xx_cryp.c ****   *    Interrupts Processing mode 
  94:../Libraries/STM32F4xx_StdPeriph_Driver/src/stm32f4xx_cryp.c ****   *    ===========================
  95:../Libraries/STM32F4xx_StdPeriph_Driver/src/stm32f4xx_cryp.c ****   *    In this mode, Processing is done when the data are transferred by the 
  96:../Libraries/STM32F4xx_StdPeriph_Driver/src/stm32f4xx_cryp.c ****   *    CPU during interrupts.
  97:../Libraries/STM32F4xx_StdPeriph_Driver/src/stm32f4xx_cryp.c ****   *
  98:../Libraries/STM32F4xx_StdPeriph_Driver/src/stm32f4xx_cryp.c ****   *    1. Enable the interrupts CRYP_IT_INI and CRYP_IT_OUTI using 
  99:../Libraries/STM32F4xx_StdPeriph_Driver/src/stm32f4xx_cryp.c ****   *       CRYP_ITConfig() function.
 100:../Libraries/STM32F4xx_StdPeriph_Driver/src/stm32f4xx_cryp.c ****   *
 101:../Libraries/STM32F4xx_StdPeriph_Driver/src/stm32f4xx_cryp.c ****   *    2. Enable the cryptographic processor using CRYP_Cmd() function.
 102:../Libraries/STM32F4xx_StdPeriph_Driver/src/stm32f4xx_cryp.c ****   *
 103:../Libraries/STM32F4xx_StdPeriph_Driver/src/stm32f4xx_cryp.c ****   *    3. In the CRYP_IT_INI interrupt handler : load the input message into the 
 104:../Libraries/STM32F4xx_StdPeriph_Driver/src/stm32f4xx_cryp.c ****   *       IN FIFO using CRYP_DataIn() function . You can load 2 or 4 words at a 
 105:../Libraries/STM32F4xx_StdPeriph_Driver/src/stm32f4xx_cryp.c ****   *       time, or load data until the IN FIFO is full. When the last word of
 106:../Libraries/STM32F4xx_StdPeriph_Driver/src/stm32f4xx_cryp.c ****   *       the message has been entered into the IN FIFO, disable the CRYP_IT_INI 
 107:../Libraries/STM32F4xx_StdPeriph_Driver/src/stm32f4xx_cryp.c ****   *       interrupt (using CRYP_ITConfig() function).
 108:../Libraries/STM32F4xx_StdPeriph_Driver/src/stm32f4xx_cryp.c ****   *
 109:../Libraries/STM32F4xx_StdPeriph_Driver/src/stm32f4xx_cryp.c ****   *    4. In the CRYP_IT_OUTI interrupt handler : read the output message from 
 110:../Libraries/STM32F4xx_StdPeriph_Driver/src/stm32f4xx_cryp.c ****   *       the OUT FIFO using CRYP_DataOut() function. You can read 1 block (2 or 
 111:../Libraries/STM32F4xx_StdPeriph_Driver/src/stm32f4xx_cryp.c ****   *       4 words) at a time or read data until the FIFO is empty.
 112:../Libraries/STM32F4xx_StdPeriph_Driver/src/stm32f4xx_cryp.c ****   *       When the last word has been read, INIM=0, BUSY=0 and both FIFOs are 
 113:../Libraries/STM32F4xx_StdPeriph_Driver/src/stm32f4xx_cryp.c ****   *       empty (CRYP_FLAG_IFEM is set and CRYP_FLAG_OFNE is reset). 
 114:../Libraries/STM32F4xx_StdPeriph_Driver/src/stm32f4xx_cryp.c ****   *       You can disable the CRYP_IT_OUTI interrupt (using CRYP_ITConfig() 
 115:../Libraries/STM32F4xx_StdPeriph_Driver/src/stm32f4xx_cryp.c ****   *       function) and you can disable the peripheral using CRYP_Cmd() function.
 116:../Libraries/STM32F4xx_StdPeriph_Driver/src/stm32f4xx_cryp.c ****   *
 117:../Libraries/STM32F4xx_StdPeriph_Driver/src/stm32f4xx_cryp.c ****   *    DMA Processing mode 
 118:../Libraries/STM32F4xx_StdPeriph_Driver/src/stm32f4xx_cryp.c ****   *    ====================
 119:../Libraries/STM32F4xx_StdPeriph_Driver/src/stm32f4xx_cryp.c ****   *    In this mode, Processing is done when the DMA is used to transfer the 
 120:../Libraries/STM32F4xx_StdPeriph_Driver/src/stm32f4xx_cryp.c ****   *    data from/to the memory.
 121:../Libraries/STM32F4xx_StdPeriph_Driver/src/stm32f4xx_cryp.c ****   *
 122:../Libraries/STM32F4xx_StdPeriph_Driver/src/stm32f4xx_cryp.c ****   *    1. Configure the DMA controller to transfer the input data from the 
 123:../Libraries/STM32F4xx_StdPeriph_Driver/src/stm32f4xx_cryp.c ****   *       memory using DMA_Init() function. 
 124:../Libraries/STM32F4xx_StdPeriph_Driver/src/stm32f4xx_cryp.c ****   *       The transfer length is the length of the message. 
 125:../Libraries/STM32F4xx_StdPeriph_Driver/src/stm32f4xx_cryp.c ****   *       As message padding is not managed by the peripheral, the message 
 126:../Libraries/STM32F4xx_StdPeriph_Driver/src/stm32f4xx_cryp.c ****   *       length must be an entire number of blocks. The data are transferred 
 127:../Libraries/STM32F4xx_StdPeriph_Driver/src/stm32f4xx_cryp.c ****   *       in burst mode. The burst length is 4 words in the AES and 2 or 4 
ARM GAS  C:\Users\admin\AppData\Local\Temp\ccdBMIKa.s 			page 5


 128:../Libraries/STM32F4xx_StdPeriph_Driver/src/stm32f4xx_cryp.c ****   *       words in the DES/TDES. The DMA should be configured to set an 
 129:../Libraries/STM32F4xx_StdPeriph_Driver/src/stm32f4xx_cryp.c ****   *       interrupt on transfer completion of the output data to indicate that 
 130:../Libraries/STM32F4xx_StdPeriph_Driver/src/stm32f4xx_cryp.c ****   *       the processing is finished. 
 131:../Libraries/STM32F4xx_StdPeriph_Driver/src/stm32f4xx_cryp.c ****   *       Refer to DMA peripheral driver for more details.  
 132:../Libraries/STM32F4xx_StdPeriph_Driver/src/stm32f4xx_cryp.c ****   *
 133:../Libraries/STM32F4xx_StdPeriph_Driver/src/stm32f4xx_cryp.c ****   *    2. Enable the cryptographic processor using CRYP_Cmd() function. 
 134:../Libraries/STM32F4xx_StdPeriph_Driver/src/stm32f4xx_cryp.c ****   *       Enable the DMA requests CRYP_DMAReq_DataIN and CRYP_DMAReq_DataOUT 
 135:../Libraries/STM32F4xx_StdPeriph_Driver/src/stm32f4xx_cryp.c ****   *       using CRYP_DMACmd() function.
 136:../Libraries/STM32F4xx_StdPeriph_Driver/src/stm32f4xx_cryp.c ****   *
 137:../Libraries/STM32F4xx_StdPeriph_Driver/src/stm32f4xx_cryp.c ****   *    3. All the transfers and processing are managed by the DMA and the 
 138:../Libraries/STM32F4xx_StdPeriph_Driver/src/stm32f4xx_cryp.c ****   *       cryptographic processor. The DMA transfer complete interrupt indicates 
 139:../Libraries/STM32F4xx_StdPeriph_Driver/src/stm32f4xx_cryp.c ****   *       that the processing is complete. Both FIFOs are normally empty and 
 140:../Libraries/STM32F4xx_StdPeriph_Driver/src/stm32f4xx_cryp.c ****   *       CRYP_FLAG_BUSY flag is reset.
 141:../Libraries/STM32F4xx_StdPeriph_Driver/src/stm32f4xx_cryp.c ****   *
 142:../Libraries/STM32F4xx_StdPeriph_Driver/src/stm32f4xx_cryp.c ****   *  @endverbatim
 143:../Libraries/STM32F4xx_StdPeriph_Driver/src/stm32f4xx_cryp.c ****   *
 144:../Libraries/STM32F4xx_StdPeriph_Driver/src/stm32f4xx_cryp.c ****   ******************************************************************************
 145:../Libraries/STM32F4xx_StdPeriph_Driver/src/stm32f4xx_cryp.c ****   * @attention
 146:../Libraries/STM32F4xx_StdPeriph_Driver/src/stm32f4xx_cryp.c ****   *
 147:../Libraries/STM32F4xx_StdPeriph_Driver/src/stm32f4xx_cryp.c ****   * THE PRESENT FIRMWARE WHICH IS FOR GUIDANCE ONLY AIMS AT PROVIDING CUSTOMERS
 148:../Libraries/STM32F4xx_StdPeriph_Driver/src/stm32f4xx_cryp.c ****   * WITH CODING INFORMATION REGARDING THEIR PRODUCTS IN ORDER FOR THEM TO SAVE
 149:../Libraries/STM32F4xx_StdPeriph_Driver/src/stm32f4xx_cryp.c ****   * TIME. AS A RESULT, STMICROELECTRONICS SHALL NOT BE HELD LIABLE FOR ANY
 150:../Libraries/STM32F4xx_StdPeriph_Driver/src/stm32f4xx_cryp.c ****   * DIRECT, INDIRECT OR CONSEQUENTIAL DAMAGES WITH RESPECT TO ANY CLAIMS ARISING
 151:../Libraries/STM32F4xx_StdPeriph_Driver/src/stm32f4xx_cryp.c ****   * FROM THE CONTENT OF SUCH FIRMWARE AND/OR THE USE MADE BY CUSTOMERS OF THE
 152:../Libraries/STM32F4xx_StdPeriph_Driver/src/stm32f4xx_cryp.c ****   * CODING INFORMATION CONTAINED HEREIN IN CONNECTION WITH THEIR PRODUCTS.
 153:../Libraries/STM32F4xx_StdPeriph_Driver/src/stm32f4xx_cryp.c ****   *
 154:../Libraries/STM32F4xx_StdPeriph_Driver/src/stm32f4xx_cryp.c ****   * <h2><center>&copy; COPYRIGHT 2011 STMicroelectronics</center></h2>
 155:../Libraries/STM32F4xx_StdPeriph_Driver/src/stm32f4xx_cryp.c ****   ******************************************************************************  
 156:../Libraries/STM32F4xx_StdPeriph_Driver/src/stm32f4xx_cryp.c ****   */
 157:../Libraries/STM32F4xx_StdPeriph_Driver/src/stm32f4xx_cryp.c **** 
 158:../Libraries/STM32F4xx_StdPeriph_Driver/src/stm32f4xx_cryp.c **** /* Includes ------------------------------------------------------------------*/
 159:../Libraries/STM32F4xx_StdPeriph_Driver/src/stm32f4xx_cryp.c **** #include "stm32f4xx_cryp.h"
 160:../Libraries/STM32F4xx_StdPeriph_Driver/src/stm32f4xx_cryp.c **** #include "stm32f4xx_rcc.h"
 161:../Libraries/STM32F4xx_StdPeriph_Driver/src/stm32f4xx_cryp.c **** 
 162:../Libraries/STM32F4xx_StdPeriph_Driver/src/stm32f4xx_cryp.c **** /** @addtogroup STM32F4xx_StdPeriph_Driver
 163:../Libraries/STM32F4xx_StdPeriph_Driver/src/stm32f4xx_cryp.c ****   * @{
 164:../Libraries/STM32F4xx_StdPeriph_Driver/src/stm32f4xx_cryp.c ****   */
 165:../Libraries/STM32F4xx_StdPeriph_Driver/src/stm32f4xx_cryp.c **** 
 166:../Libraries/STM32F4xx_StdPeriph_Driver/src/stm32f4xx_cryp.c **** /** @defgroup CRYP 
 167:../Libraries/STM32F4xx_StdPeriph_Driver/src/stm32f4xx_cryp.c ****   * @brief CRYP driver modules
 168:../Libraries/STM32F4xx_StdPeriph_Driver/src/stm32f4xx_cryp.c ****   * @{
 169:../Libraries/STM32F4xx_StdPeriph_Driver/src/stm32f4xx_cryp.c ****   */ 
 170:../Libraries/STM32F4xx_StdPeriph_Driver/src/stm32f4xx_cryp.c **** 
 171:../Libraries/STM32F4xx_StdPeriph_Driver/src/stm32f4xx_cryp.c **** /* Private typedef -----------------------------------------------------------*/
 172:../Libraries/STM32F4xx_StdPeriph_Driver/src/stm32f4xx_cryp.c **** /* Private define ------------------------------------------------------------*/
 173:../Libraries/STM32F4xx_StdPeriph_Driver/src/stm32f4xx_cryp.c **** #define FLAG_MASK     ((uint8_t)0x20)
 174:../Libraries/STM32F4xx_StdPeriph_Driver/src/stm32f4xx_cryp.c **** #define MAX_TIMEOUT   ((uint16_t)0xFFFF)
 175:../Libraries/STM32F4xx_StdPeriph_Driver/src/stm32f4xx_cryp.c **** 
 176:../Libraries/STM32F4xx_StdPeriph_Driver/src/stm32f4xx_cryp.c **** /* Private macro -------------------------------------------------------------*/
 177:../Libraries/STM32F4xx_StdPeriph_Driver/src/stm32f4xx_cryp.c **** /* Private variables ---------------------------------------------------------*/
 178:../Libraries/STM32F4xx_StdPeriph_Driver/src/stm32f4xx_cryp.c **** /* Private function prototypes -----------------------------------------------*/
 179:../Libraries/STM32F4xx_StdPeriph_Driver/src/stm32f4xx_cryp.c **** /* Private functions ---------------------------------------------------------*/
 180:../Libraries/STM32F4xx_StdPeriph_Driver/src/stm32f4xx_cryp.c **** 
 181:../Libraries/STM32F4xx_StdPeriph_Driver/src/stm32f4xx_cryp.c **** /** @defgroup CRYP_Private_Functions
 182:../Libraries/STM32F4xx_StdPeriph_Driver/src/stm32f4xx_cryp.c ****   * @{
 183:../Libraries/STM32F4xx_StdPeriph_Driver/src/stm32f4xx_cryp.c ****   */ 
 184:../Libraries/STM32F4xx_StdPeriph_Driver/src/stm32f4xx_cryp.c **** 
ARM GAS  C:\Users\admin\AppData\Local\Temp\ccdBMIKa.s 			page 6


 185:../Libraries/STM32F4xx_StdPeriph_Driver/src/stm32f4xx_cryp.c **** /** @defgroup CRYP_Group1 Initialization and Configuration functions
 186:../Libraries/STM32F4xx_StdPeriph_Driver/src/stm32f4xx_cryp.c ****  *  @brief    Initialization and Configuration functions 
 187:../Libraries/STM32F4xx_StdPeriph_Driver/src/stm32f4xx_cryp.c ****  *
 188:../Libraries/STM32F4xx_StdPeriph_Driver/src/stm32f4xx_cryp.c **** @verbatim    
 189:../Libraries/STM32F4xx_StdPeriph_Driver/src/stm32f4xx_cryp.c ****  ===============================================================================
 190:../Libraries/STM32F4xx_StdPeriph_Driver/src/stm32f4xx_cryp.c ****                       Initialization and Configuration functions
 191:../Libraries/STM32F4xx_StdPeriph_Driver/src/stm32f4xx_cryp.c ****  ===============================================================================  
 192:../Libraries/STM32F4xx_StdPeriph_Driver/src/stm32f4xx_cryp.c ****   This section provides functions allowing to 
 193:../Libraries/STM32F4xx_StdPeriph_Driver/src/stm32f4xx_cryp.c ****    - Initialize the cryptographic Processor using CRYP_Init() function 
 194:../Libraries/STM32F4xx_StdPeriph_Driver/src/stm32f4xx_cryp.c ****       -  Encrypt or Decrypt 
 195:../Libraries/STM32F4xx_StdPeriph_Driver/src/stm32f4xx_cryp.c ****       -  mode : TDES-ECB, TDES-CBC, 
 196:../Libraries/STM32F4xx_StdPeriph_Driver/src/stm32f4xx_cryp.c ****                 DES-ECB, DES-CBC, 
 197:../Libraries/STM32F4xx_StdPeriph_Driver/src/stm32f4xx_cryp.c ****                 AES-ECB, AES-CBC, AES-CTR, AES-Key 
 198:../Libraries/STM32F4xx_StdPeriph_Driver/src/stm32f4xx_cryp.c ****       - DataType :  32-bit data, 16-bit data, bit data or bit-string
 199:../Libraries/STM32F4xx_StdPeriph_Driver/src/stm32f4xx_cryp.c ****       - Key Size (only in AES modes)
 200:../Libraries/STM32F4xx_StdPeriph_Driver/src/stm32f4xx_cryp.c ****    - Configure the Encrypt or Decrypt Key using CRYP_KeyInit() function 
 201:../Libraries/STM32F4xx_StdPeriph_Driver/src/stm32f4xx_cryp.c ****    - Configure the Initialization Vectors(IV) for CBC and CTR modes using 
 202:../Libraries/STM32F4xx_StdPeriph_Driver/src/stm32f4xx_cryp.c ****      CRYP_IVInit() function.  
 203:../Libraries/STM32F4xx_StdPeriph_Driver/src/stm32f4xx_cryp.c ****    - Flushes the IN and OUT FIFOs : using CRYP_FIFOFlush() function.                         
 204:../Libraries/STM32F4xx_StdPeriph_Driver/src/stm32f4xx_cryp.c ****    - Enable or disable the CRYP Processor using CRYP_Cmd() function 
 205:../Libraries/STM32F4xx_StdPeriph_Driver/src/stm32f4xx_cryp.c ****     
 206:../Libraries/STM32F4xx_StdPeriph_Driver/src/stm32f4xx_cryp.c ****    
 207:../Libraries/STM32F4xx_StdPeriph_Driver/src/stm32f4xx_cryp.c **** @endverbatim
 208:../Libraries/STM32F4xx_StdPeriph_Driver/src/stm32f4xx_cryp.c ****   * @{
 209:../Libraries/STM32F4xx_StdPeriph_Driver/src/stm32f4xx_cryp.c ****   */
 210:../Libraries/STM32F4xx_StdPeriph_Driver/src/stm32f4xx_cryp.c **** /**
 211:../Libraries/STM32F4xx_StdPeriph_Driver/src/stm32f4xx_cryp.c ****   * @brief  Deinitializes the CRYP peripheral registers to their default reset values
 212:../Libraries/STM32F4xx_StdPeriph_Driver/src/stm32f4xx_cryp.c ****   * @param  None
 213:../Libraries/STM32F4xx_StdPeriph_Driver/src/stm32f4xx_cryp.c ****   * @retval None
 214:../Libraries/STM32F4xx_StdPeriph_Driver/src/stm32f4xx_cryp.c ****   */
 215:../Libraries/STM32F4xx_StdPeriph_Driver/src/stm32f4xx_cryp.c **** void CRYP_DeInit(void)
 216:../Libraries/STM32F4xx_StdPeriph_Driver/src/stm32f4xx_cryp.c **** {
 102              		.loc 1 216 1 view -0
 103              		.cfi_startproc
 104              		@ args = 0, pretend = 0, frame = 0
 105              		@ frame_needed = 0, uses_anonymous_args = 0
 217:../Libraries/STM32F4xx_StdPeriph_Driver/src/stm32f4xx_cryp.c ****   /* Enable CRYP reset state */
 218:../Libraries/STM32F4xx_StdPeriph_Driver/src/stm32f4xx_cryp.c ****   RCC_AHB2PeriphResetCmd(RCC_AHB2Periph_CRYP, ENABLE);
 106              		.loc 1 218 3 view .LVU1
 107              	@ ../Libraries/STM32F4xx_StdPeriph_Driver/src/stm32f4xx_cryp.c:216: {
 216:../Libraries/STM32F4xx_StdPeriph_Driver/src/stm32f4xx_cryp.c ****   /* Enable CRYP reset state */
 108              		.loc 1 216 1 is_stmt 0 view .LVU2
 109 0000 08B5     		push	{r3, lr}	@
 110              		.cfi_def_cfa_offset 8
 111              		.cfi_offset 3, -8
 112              		.cfi_offset 14, -4
 113              	@ ../Libraries/STM32F4xx_StdPeriph_Driver/src/stm32f4xx_cryp.c:218:   RCC_AHB2PeriphResetCmd(RCC_AH
 114              		.loc 1 218 3 view .LVU3
 115 0002 0121     		movs	r1, #1	@,
 116 0004 1020     		movs	r0, #16	@,
 117 0006 FFF7FEFF 		bl	RCC_AHB2PeriphResetCmd		@
 118              	.LVL0:
 219:../Libraries/STM32F4xx_StdPeriph_Driver/src/stm32f4xx_cryp.c **** 
 220:../Libraries/STM32F4xx_StdPeriph_Driver/src/stm32f4xx_cryp.c ****   /* Release CRYP from reset state */
 221:../Libraries/STM32F4xx_StdPeriph_Driver/src/stm32f4xx_cryp.c ****   RCC_AHB2PeriphResetCmd(RCC_AHB2Periph_CRYP, DISABLE);
 119              		.loc 1 221 3 is_stmt 1 view .LVU4
 120              	@ ../Libraries/STM32F4xx_StdPeriph_Driver/src/stm32f4xx_cryp.c:222: }
ARM GAS  C:\Users\admin\AppData\Local\Temp\ccdBMIKa.s 			page 7


 222:../Libraries/STM32F4xx_StdPeriph_Driver/src/stm32f4xx_cryp.c **** }
 121              		.loc 1 222 1 is_stmt 0 view .LVU5
 122 000a BDE80840 		pop	{r3, lr}	@
 123              		.cfi_restore 14
 124              		.cfi_restore 3
 125              		.cfi_def_cfa_offset 0
 126              	@ ../Libraries/STM32F4xx_StdPeriph_Driver/src/stm32f4xx_cryp.c:221:   RCC_AHB2PeriphResetCmd(RCC_AH
 221:../Libraries/STM32F4xx_StdPeriph_Driver/src/stm32f4xx_cryp.c **** }
 127              		.loc 1 221 3 view .LVU6
 128 000e 0021     		movs	r1, #0	@,
 129 0010 1020     		movs	r0, #16	@,
 130 0012 FFF7FEBF 		b	RCC_AHB2PeriphResetCmd		@
 131              	.LVL1:
 132              		.cfi_endproc
 133              	.LFE110:
 134              		.size	CRYP_DeInit, .-CRYP_DeInit
 135 0016 00BF     		.section	.text.CRYP_Init,"ax",%progbits
 136              		.align	1
 137              		.p2align 2,,3
 138              		.global	CRYP_Init
 139              		.syntax unified
 140              		.thumb
 141              		.thumb_func
 142              		.type	CRYP_Init, %function
 143              	CRYP_Init:
 144              	.LVL2:
 145              	.LFB111:
 223:../Libraries/STM32F4xx_StdPeriph_Driver/src/stm32f4xx_cryp.c **** 
 224:../Libraries/STM32F4xx_StdPeriph_Driver/src/stm32f4xx_cryp.c **** /**
 225:../Libraries/STM32F4xx_StdPeriph_Driver/src/stm32f4xx_cryp.c ****   * @brief  Initializes the CRYP peripheral according to the specified parameters
 226:../Libraries/STM32F4xx_StdPeriph_Driver/src/stm32f4xx_cryp.c ****   *         in the CRYP_InitStruct.
 227:../Libraries/STM32F4xx_StdPeriph_Driver/src/stm32f4xx_cryp.c ****   * @param  CRYP_InitStruct: pointer to a CRYP_InitTypeDef structure that contains
 228:../Libraries/STM32F4xx_StdPeriph_Driver/src/stm32f4xx_cryp.c ****   *         the configuration information for the CRYP peripheral.
 229:../Libraries/STM32F4xx_StdPeriph_Driver/src/stm32f4xx_cryp.c ****   * @retval None
 230:../Libraries/STM32F4xx_StdPeriph_Driver/src/stm32f4xx_cryp.c ****   */
 231:../Libraries/STM32F4xx_StdPeriph_Driver/src/stm32f4xx_cryp.c **** void CRYP_Init(CRYP_InitTypeDef* CRYP_InitStruct)
 232:../Libraries/STM32F4xx_StdPeriph_Driver/src/stm32f4xx_cryp.c **** {
 146              		.loc 1 232 1 is_stmt 1 view -0
 147              		.cfi_startproc
 148              		@ args = 0, pretend = 0, frame = 0
 149              		@ frame_needed = 0, uses_anonymous_args = 0
 233:../Libraries/STM32F4xx_StdPeriph_Driver/src/stm32f4xx_cryp.c ****   /* Check the parameters */
 234:../Libraries/STM32F4xx_StdPeriph_Driver/src/stm32f4xx_cryp.c ****   assert_param(IS_CRYP_ALGOMODE(CRYP_InitStruct->CRYP_AlgoMode));
 150              		.loc 1 234 3 view .LVU8
 151              	@ ../Libraries/STM32F4xx_StdPeriph_Driver/src/stm32f4xx_cryp.c:232: {
 232:../Libraries/STM32F4xx_StdPeriph_Driver/src/stm32f4xx_cryp.c ****   /* Check the parameters */
 152              		.loc 1 232 1 is_stmt 0 view .LVU9
 153 0000 10B5     		push	{r4, lr}	@
 154              		.cfi_def_cfa_offset 8
 155              		.cfi_offset 4, -8
 156              		.cfi_offset 14, -4
 157              	@ ../Libraries/STM32F4xx_StdPeriph_Driver/src/stm32f4xx_cryp.c:232: {
 232:../Libraries/STM32F4xx_StdPeriph_Driver/src/stm32f4xx_cryp.c ****   /* Check the parameters */
 158              		.loc 1 232 1 view .LVU10
 159 0002 0446     		mov	r4, r0	@ CRYP_InitStruct, tmp195
 160              	@ ../Libraries/STM32F4xx_StdPeriph_Driver/src/stm32f4xx_cryp.c:234:   assert_param(IS_CRYP_ALGOMODE
 161              		.loc 1 234 3 view .LVU11
ARM GAS  C:\Users\admin\AppData\Local\Temp\ccdBMIKa.s 			page 8


 162 0004 4088     		ldrh	r0, [r0, #2]	@, CRYP_InitStruct_35(D)->CRYP_AlgoMode
 163              	.LVL3:
 164              		.loc 1 234 3 view .LVU12
 165 0006 20F01800 		bic	r0, r0, #24	@ tmp156, CRYP_InitStruct_35(D)->CRYP_AlgoMode,
 166 000a 80B2     		uxth	r0, r0	@ _67, tmp156
 167 000c 0028     		cmp	r0, #0	@ _67
 168 000e 48D0     		beq	.L8	@
 169              	@ ../Libraries/STM32F4xx_StdPeriph_Driver/src/stm32f4xx_cryp.c:234:   assert_param(IS_CRYP_ALGOMODE
 170              		.loc 1 234 16 discriminator 8 view .LVU13
 171 0010 A0F12000 		sub	r0, #32	@ iftmp.0_29,
 172 0014 B0FA80F0 		clz	r0, r0	@ iftmp.0_29, iftmp.0_29
 173 0018 4009     		lsrs	r0, r0, #5	@ iftmp.0_29, iftmp.0_29,
 174              	.L5:
 175              	@ ../Libraries/STM32F4xx_StdPeriph_Driver/src/stm32f4xx_cryp.c:234:   assert_param(IS_CRYP_ALGOMODE
 176              		.loc 1 234 3 discriminator 18 view .LVU14
 177 001a FFF7FEFF 		bl	assert_param		@
 178              	.LVL4:
 235:../Libraries/STM32F4xx_StdPeriph_Driver/src/stm32f4xx_cryp.c ****   assert_param(IS_CRYP_DATATYPE(CRYP_InitStruct->CRYP_DataType));
 179              		.loc 1 235 3 is_stmt 1 discriminator 18 view .LVU15
 180 001e A088     		ldrh	r0, [r4, #4]	@, CRYP_InitStruct_35(D)->CRYP_DataType
 181 0020 20F0C000 		bic	r0, r0, #192	@ tmp160, CRYP_InitStruct_35(D)->CRYP_DataType,
 182 0024 80B2     		uxth	r0, r0	@ tmp162, tmp160
 183 0026 B0FA80F0 		clz	r0, r0	@, tmp162
 184 002a 4009     		lsrs	r0, r0, #5	@,,
 185 002c FFF7FEFF 		bl	assert_param		@
 186              	.LVL5:
 236:../Libraries/STM32F4xx_StdPeriph_Driver/src/stm32f4xx_cryp.c ****   assert_param(IS_CRYP_ALGODIR(CRYP_InitStruct->CRYP_AlgoDir));
 187              		.loc 1 236 3 discriminator 18 view .LVU16
 188 0030 2088     		ldrh	r0, [r4]	@, CRYP_InitStruct_35(D)->CRYP_AlgoDir
 189 0032 20F00400 		bic	r0, r0, #4	@ tmp165, CRYP_InitStruct_35(D)->CRYP_AlgoDir,
 190 0036 80B2     		uxth	r0, r0	@ tmp167, tmp165
 191 0038 B0FA80F0 		clz	r0, r0	@, tmp167
 192 003c 4009     		lsrs	r0, r0, #5	@,,
 193 003e FFF7FEFF 		bl	assert_param		@
 194              	.LVL6:
 237:../Libraries/STM32F4xx_StdPeriph_Driver/src/stm32f4xx_cryp.c **** 
 238:../Libraries/STM32F4xx_StdPeriph_Driver/src/stm32f4xx_cryp.c ****   /* Select Algorithm mode*/  
 239:../Libraries/STM32F4xx_StdPeriph_Driver/src/stm32f4xx_cryp.c ****   CRYP->CR &= ~CRYP_CR_ALGOMODE;
 195              		.loc 1 239 3 discriminator 18 view .LVU17
 196              	@ ../Libraries/STM32F4xx_StdPeriph_Driver/src/stm32f4xx_cryp.c:239:   CRYP->CR &= ~CRYP_CR_ALGOMODE
 197              		.loc 1 239 12 is_stmt 0 discriminator 18 view .LVU18
 198 0042 1C4B     		ldr	r3, .L13	@ tmp169,
 199              	@ ../Libraries/STM32F4xx_StdPeriph_Driver/src/stm32f4xx_cryp.c:240:   CRYP->CR |= CRYP_InitStruct->
 240:../Libraries/STM32F4xx_StdPeriph_Driver/src/stm32f4xx_cryp.c ****   CRYP->CR |= CRYP_InitStruct->CRYP_AlgoMode;
 200              		.loc 1 240 30 discriminator 18 view .LVU19
 201 0044 6288     		ldrh	r2, [r4, #2]	@ _7, CRYP_InitStruct_35(D)->CRYP_AlgoMode
 202              	@ ../Libraries/STM32F4xx_StdPeriph_Driver/src/stm32f4xx_cryp.c:239:   CRYP->CR &= ~CRYP_CR_ALGOMODE
 239:../Libraries/STM32F4xx_StdPeriph_Driver/src/stm32f4xx_cryp.c ****   CRYP->CR |= CRYP_InitStruct->CRYP_AlgoMode;
 203              		.loc 1 239 12 discriminator 18 view .LVU20
 204 0046 1868     		ldr	r0, [r3]	@ _4, MEM[(struct CRYP_TypeDef *)1342570496B].CR
 205              	@ ../Libraries/STM32F4xx_StdPeriph_Driver/src/stm32f4xx_cryp.c:244:   CRYP->CR |= CRYP_InitStruct->
 241:../Libraries/STM32F4xx_StdPeriph_Driver/src/stm32f4xx_cryp.c **** 
 242:../Libraries/STM32F4xx_StdPeriph_Driver/src/stm32f4xx_cryp.c ****   /* Select dataType */ 
 243:../Libraries/STM32F4xx_StdPeriph_Driver/src/stm32f4xx_cryp.c ****   CRYP->CR &= ~CRYP_CR_DATATYPE;
 244:../Libraries/STM32F4xx_StdPeriph_Driver/src/stm32f4xx_cryp.c ****   CRYP->CR |= CRYP_InitStruct->CRYP_DataType;
 206              		.loc 1 244 30 discriminator 18 view .LVU21
 207 0048 A188     		ldrh	r1, [r4, #4]	@ CRYP_InitStruct_35(D)->CRYP_DataType, CRYP_InitStruct_35(D)->CRYP_DataType
ARM GAS  C:\Users\admin\AppData\Local\Temp\ccdBMIKa.s 			page 9


 208              	@ ../Libraries/STM32F4xx_StdPeriph_Driver/src/stm32f4xx_cryp.c:239:   CRYP->CR &= ~CRYP_CR_ALGOMODE
 239:../Libraries/STM32F4xx_StdPeriph_Driver/src/stm32f4xx_cryp.c ****   CRYP->CR |= CRYP_InitStruct->CRYP_AlgoMode;
 209              		.loc 1 239 12 discriminator 18 view .LVU22
 210 004a 20F03800 		bic	r0, r0, #56	@ _5, _4,
 211 004e 1860     		str	r0, [r3]	@ _5, MEM[(struct CRYP_TypeDef *)1342570496B].CR
 240:../Libraries/STM32F4xx_StdPeriph_Driver/src/stm32f4xx_cryp.c **** 
 212              		.loc 1 240 3 is_stmt 1 discriminator 18 view .LVU23
 213              	@ ../Libraries/STM32F4xx_StdPeriph_Driver/src/stm32f4xx_cryp.c:240:   CRYP->CR |= CRYP_InitStruct->
 240:../Libraries/STM32F4xx_StdPeriph_Driver/src/stm32f4xx_cryp.c **** 
 214              		.loc 1 240 12 is_stmt 0 discriminator 18 view .LVU24
 215 0050 1868     		ldr	r0, [r3]	@ _6, MEM[(struct CRYP_TypeDef *)1342570496B].CR
 216 0052 1043     		orrs	r0, r0, r2	@, _9, _6, _7
 217 0054 1860     		str	r0, [r3]	@ _9, MEM[(struct CRYP_TypeDef *)1342570496B].CR
 243:../Libraries/STM32F4xx_StdPeriph_Driver/src/stm32f4xx_cryp.c ****   CRYP->CR |= CRYP_InitStruct->CRYP_DataType;
 218              		.loc 1 243 3 is_stmt 1 discriminator 18 view .LVU25
 219              	@ ../Libraries/STM32F4xx_StdPeriph_Driver/src/stm32f4xx_cryp.c:243:   CRYP->CR &= ~CRYP_CR_DATATYPE
 243:../Libraries/STM32F4xx_StdPeriph_Driver/src/stm32f4xx_cryp.c ****   CRYP->CR |= CRYP_InitStruct->CRYP_DataType;
 220              		.loc 1 243 12 is_stmt 0 discriminator 18 view .LVU26
 221 0056 1868     		ldr	r0, [r3]	@ _10, MEM[(struct CRYP_TypeDef *)1342570496B].CR
 222 0058 20F0C000 		bic	r0, r0, #192	@ _11, _10,
 223 005c 1860     		str	r0, [r3]	@ _11, MEM[(struct CRYP_TypeDef *)1342570496B].CR
 224              		.loc 1 244 3 is_stmt 1 discriminator 18 view .LVU27
 225              	@ ../Libraries/STM32F4xx_StdPeriph_Driver/src/stm32f4xx_cryp.c:244:   CRYP->CR |= CRYP_InitStruct->
 226              		.loc 1 244 12 is_stmt 0 discriminator 18 view .LVU28
 227 005e 1868     		ldr	r0, [r3]	@ _12, MEM[(struct CRYP_TypeDef *)1342570496B].CR
 228              	@ ../Libraries/STM32F4xx_StdPeriph_Driver/src/stm32f4xx_cryp.c:247:   if ((CRYP_InitStruct->CRYP_Al
 245:../Libraries/STM32F4xx_StdPeriph_Driver/src/stm32f4xx_cryp.c **** 
 246:../Libraries/STM32F4xx_StdPeriph_Driver/src/stm32f4xx_cryp.c ****   /* select Key size (used only with AES algorithm) */
 247:../Libraries/STM32F4xx_StdPeriph_Driver/src/stm32f4xx_cryp.c ****   if ((CRYP_InitStruct->CRYP_AlgoMode == CRYP_AlgoMode_AES_ECB) ||
 229              		.loc 1 247 6 discriminator 18 view .LVU29
 230 0060 22F01802 		bic	r2, r2, #24	@ tmp178, _7,
 231              	@ ../Libraries/STM32F4xx_StdPeriph_Driver/src/stm32f4xx_cryp.c:244:   CRYP->CR |= CRYP_InitStruct->
 244:../Libraries/STM32F4xx_StdPeriph_Driver/src/stm32f4xx_cryp.c **** 
 232              		.loc 1 244 12 discriminator 18 view .LVU30
 233 0064 0143     		orrs	r1, r1, r0	@, _15, CRYP_InitStruct_35(D)->CRYP_DataType, _12
 234              	@ ../Libraries/STM32F4xx_StdPeriph_Driver/src/stm32f4xx_cryp.c:247:   if ((CRYP_InitStruct->CRYP_Al
 235              		.loc 1 247 6 discriminator 18 view .LVU31
 236 0066 202A     		cmp	r2, #32	@ tmp178,
 237              	@ ../Libraries/STM32F4xx_StdPeriph_Driver/src/stm32f4xx_cryp.c:244:   CRYP->CR |= CRYP_InitStruct->
 244:../Libraries/STM32F4xx_StdPeriph_Driver/src/stm32f4xx_cryp.c **** 
 238              		.loc 1 244 12 discriminator 18 view .LVU32
 239 0068 1960     		str	r1, [r3]	@ _15, MEM[(struct CRYP_TypeDef *)1342570496B].CR
 240              		.loc 1 247 3 is_stmt 1 discriminator 18 view .LVU33
 241              	@ ../Libraries/STM32F4xx_StdPeriph_Driver/src/stm32f4xx_cryp.c:247:   if ((CRYP_InitStruct->CRYP_Al
 242              		.loc 1 247 6 is_stmt 0 discriminator 18 view .LVU34
 243 006a 09D0     		beq	.L11		@,
 244              	.L6:
 248:../Libraries/STM32F4xx_StdPeriph_Driver/src/stm32f4xx_cryp.c ****       (CRYP_InitStruct->CRYP_AlgoMode == CRYP_AlgoMode_AES_CBC) ||
 249:../Libraries/STM32F4xx_StdPeriph_Driver/src/stm32f4xx_cryp.c ****       (CRYP_InitStruct->CRYP_AlgoMode == CRYP_AlgoMode_AES_CTR) ||
 250:../Libraries/STM32F4xx_StdPeriph_Driver/src/stm32f4xx_cryp.c ****       (CRYP_InitStruct->CRYP_AlgoMode == CRYP_AlgoMode_AES_Key))
 251:../Libraries/STM32F4xx_StdPeriph_Driver/src/stm32f4xx_cryp.c ****   {
 252:../Libraries/STM32F4xx_StdPeriph_Driver/src/stm32f4xx_cryp.c ****     assert_param(IS_CRYP_KEYSIZE(CRYP_InitStruct->CRYP_KeySize));
 253:../Libraries/STM32F4xx_StdPeriph_Driver/src/stm32f4xx_cryp.c ****     CRYP->CR &= ~CRYP_CR_KEYSIZE;
 254:../Libraries/STM32F4xx_StdPeriph_Driver/src/stm32f4xx_cryp.c ****     CRYP->CR |= CRYP_InitStruct->CRYP_KeySize; /* Key size and value must be 
 255:../Libraries/STM32F4xx_StdPeriph_Driver/src/stm32f4xx_cryp.c ****                                                   configured once the key has 
 256:../Libraries/STM32F4xx_StdPeriph_Driver/src/stm32f4xx_cryp.c ****                                                   been prepared */
 257:../Libraries/STM32F4xx_StdPeriph_Driver/src/stm32f4xx_cryp.c ****   }
ARM GAS  C:\Users\admin\AppData\Local\Temp\ccdBMIKa.s 			page 10


 258:../Libraries/STM32F4xx_StdPeriph_Driver/src/stm32f4xx_cryp.c **** 
 259:../Libraries/STM32F4xx_StdPeriph_Driver/src/stm32f4xx_cryp.c ****   /* Select data Direction */ 
 260:../Libraries/STM32F4xx_StdPeriph_Driver/src/stm32f4xx_cryp.c ****   CRYP->CR &= ~CRYP_CR_ALGODIR;
 245              		.loc 1 260 3 is_stmt 1 view .LVU35
 246              	@ ../Libraries/STM32F4xx_StdPeriph_Driver/src/stm32f4xx_cryp.c:260:   CRYP->CR &= ~CRYP_CR_ALGODIR;
 247              		.loc 1 260 12 is_stmt 0 view .LVU36
 248 006c 114B     		ldr	r3, .L13	@ tmp190,
 249              	@ ../Libraries/STM32F4xx_StdPeriph_Driver/src/stm32f4xx_cryp.c:261:   CRYP->CR |= CRYP_InitStruct->
 261:../Libraries/STM32F4xx_StdPeriph_Driver/src/stm32f4xx_cryp.c ****   CRYP->CR |= CRYP_InitStruct->CRYP_AlgoDir;
 250              		.loc 1 261 30 view .LVU37
 251 006e 2288     		ldrh	r2, [r4]	@ CRYP_InitStruct_35(D)->CRYP_AlgoDir, CRYP_InitStruct_35(D)->CRYP_AlgoDir
 252              	@ ../Libraries/STM32F4xx_StdPeriph_Driver/src/stm32f4xx_cryp.c:260:   CRYP->CR &= ~CRYP_CR_ALGODIR;
 260:../Libraries/STM32F4xx_StdPeriph_Driver/src/stm32f4xx_cryp.c ****   CRYP->CR |= CRYP_InitStruct->CRYP_AlgoDir;
 253              		.loc 1 260 12 view .LVU38
 254 0070 1968     		ldr	r1, [r3]	@ _23, MEM[(struct CRYP_TypeDef *)1342570496B].CR
 255 0072 21F00401 		bic	r1, r1, #4	@ _24, _23,
 256 0076 1960     		str	r1, [r3]	@ _24, MEM[(struct CRYP_TypeDef *)1342570496B].CR
 257              		.loc 1 261 3 is_stmt 1 view .LVU39
 258              	@ ../Libraries/STM32F4xx_StdPeriph_Driver/src/stm32f4xx_cryp.c:261:   CRYP->CR |= CRYP_InitStruct->
 259              		.loc 1 261 12 is_stmt 0 view .LVU40
 260 0078 1968     		ldr	r1, [r3]	@ _25, MEM[(struct CRYP_TypeDef *)1342570496B].CR
 261 007a 0A43     		orrs	r2, r2, r1	@, _28, CRYP_InitStruct_35(D)->CRYP_AlgoDir, _25
 262 007c 1A60     		str	r2, [r3]	@ _28, MEM[(struct CRYP_TypeDef *)1342570496B].CR
 263              	@ ../Libraries/STM32F4xx_StdPeriph_Driver/src/stm32f4xx_cryp.c:262: }
 262:../Libraries/STM32F4xx_StdPeriph_Driver/src/stm32f4xx_cryp.c **** }
 264              		.loc 1 262 1 view .LVU41
 265 007e 10BD     		pop	{r4, pc}	@
 266              	.LVL7:
 267              	.L11:
 252:../Libraries/STM32F4xx_StdPeriph_Driver/src/stm32f4xx_cryp.c ****     CRYP->CR &= ~CRYP_CR_KEYSIZE;
 268              		.loc 1 252 5 is_stmt 1 view .LVU42
 269              	@ ../Libraries/STM32F4xx_StdPeriph_Driver/src/stm32f4xx_cryp.c:252:     assert_param(IS_CRYP_KEYSIZ
 252:../Libraries/STM32F4xx_StdPeriph_Driver/src/stm32f4xx_cryp.c ****     CRYP->CR &= ~CRYP_CR_KEYSIZE;
 270              		.loc 1 252 18 is_stmt 0 view .LVU43
 271 0080 E088     		ldrh	r0, [r4, #6]	@ _16, CRYP_InitStruct_35(D)->CRYP_KeySize
 272              	@ ../Libraries/STM32F4xx_StdPeriph_Driver/src/stm32f4xx_cryp.c:252:     assert_param(IS_CRYP_KEYSIZ
 252:../Libraries/STM32F4xx_StdPeriph_Driver/src/stm32f4xx_cryp.c ****     CRYP->CR &= ~CRYP_CR_KEYSIZE;
 273              		.loc 1 252 5 view .LVU44
 274 0082 20F48073 		bic	r3, r0, #256	@ tmp180, _16,
 275 0086 73B9     		cbnz	r3, .L12	@ tmp180,
 276 0088 0120     		movs	r0, #1	@ iftmp.3_32,
 277              	.L7:
 278              	@ ../Libraries/STM32F4xx_StdPeriph_Driver/src/stm32f4xx_cryp.c:252:     assert_param(IS_CRYP_KEYSIZ
 252:../Libraries/STM32F4xx_StdPeriph_Driver/src/stm32f4xx_cryp.c ****     CRYP->CR &= ~CRYP_CR_KEYSIZE;
 279              		.loc 1 252 5 discriminator 8 view .LVU45
 280 008a FFF7FEFF 		bl	assert_param		@
 281              	.LVL8:
 253:../Libraries/STM32F4xx_StdPeriph_Driver/src/stm32f4xx_cryp.c ****     CRYP->CR |= CRYP_InitStruct->CRYP_KeySize; /* Key size and value must be 
 282              		.loc 1 253 5 is_stmt 1 discriminator 8 view .LVU46
 283              	@ ../Libraries/STM32F4xx_StdPeriph_Driver/src/stm32f4xx_cryp.c:253:     CRYP->CR &= ~CRYP_CR_KEYSIZ
 253:../Libraries/STM32F4xx_StdPeriph_Driver/src/stm32f4xx_cryp.c ****     CRYP->CR |= CRYP_InitStruct->CRYP_KeySize; /* Key size and value must be 
 284              		.loc 1 253 14 is_stmt 0 discriminator 8 view .LVU47
 285 008e 094B     		ldr	r3, .L13	@ tmp185,
 286              	@ ../Libraries/STM32F4xx_StdPeriph_Driver/src/stm32f4xx_cryp.c:254:     CRYP->CR |= CRYP_InitStruct
 254:../Libraries/STM32F4xx_StdPeriph_Driver/src/stm32f4xx_cryp.c ****                                                   configured once the key has 
 287              		.loc 1 254 32 discriminator 8 view .LVU48
 288 0090 E288     		ldrh	r2, [r4, #6]	@ CRYP_InitStruct_35(D)->CRYP_KeySize, CRYP_InitStruct_35(D)->CRYP_KeySize
ARM GAS  C:\Users\admin\AppData\Local\Temp\ccdBMIKa.s 			page 11


 289              	@ ../Libraries/STM32F4xx_StdPeriph_Driver/src/stm32f4xx_cryp.c:253:     CRYP->CR &= ~CRYP_CR_KEYSIZ
 253:../Libraries/STM32F4xx_StdPeriph_Driver/src/stm32f4xx_cryp.c ****     CRYP->CR |= CRYP_InitStruct->CRYP_KeySize; /* Key size and value must be 
 290              		.loc 1 253 14 discriminator 8 view .LVU49
 291 0092 1968     		ldr	r1, [r3]	@ _17, MEM[(struct CRYP_TypeDef *)1342570496B].CR
 292 0094 21F44071 		bic	r1, r1, #768	@ _18, _17,
 293 0098 1960     		str	r1, [r3]	@ _18, MEM[(struct CRYP_TypeDef *)1342570496B].CR
 254:../Libraries/STM32F4xx_StdPeriph_Driver/src/stm32f4xx_cryp.c ****                                                   configured once the key has 
 294              		.loc 1 254 5 is_stmt 1 discriminator 8 view .LVU50
 295              	@ ../Libraries/STM32F4xx_StdPeriph_Driver/src/stm32f4xx_cryp.c:254:     CRYP->CR |= CRYP_InitStruct
 254:../Libraries/STM32F4xx_StdPeriph_Driver/src/stm32f4xx_cryp.c ****                                                   configured once the key has 
 296              		.loc 1 254 14 is_stmt 0 discriminator 8 view .LVU51
 297 009a 1968     		ldr	r1, [r3]	@ _19, MEM[(struct CRYP_TypeDef *)1342570496B].CR
 298 009c 0A43     		orrs	r2, r2, r1	@, _22, CRYP_InitStruct_35(D)->CRYP_KeySize, _19
 299 009e 1A60     		str	r2, [r3]	@ _22, MEM[(struct CRYP_TypeDef *)1342570496B].CR
 300 00a0 E4E7     		b	.L6		@
 301              	.L8:
 302              	@ ../Libraries/STM32F4xx_StdPeriph_Driver/src/stm32f4xx_cryp.c:234:   assert_param(IS_CRYP_ALGOMODE
 234:../Libraries/STM32F4xx_StdPeriph_Driver/src/stm32f4xx_cryp.c ****   assert_param(IS_CRYP_DATATYPE(CRYP_InitStruct->CRYP_DataType));
 303              		.loc 1 234 3 view .LVU52
 304 00a2 0120     		movs	r0, #1	@ iftmp.0_29,
 305 00a4 B9E7     		b	.L5		@
 306              	.L12:
 307              	@ ../Libraries/STM32F4xx_StdPeriph_Driver/src/stm32f4xx_cryp.c:252:     assert_param(IS_CRYP_KEYSIZ
 252:../Libraries/STM32F4xx_StdPeriph_Driver/src/stm32f4xx_cryp.c ****     CRYP->CR &= ~CRYP_CR_KEYSIZE;
 308              		.loc 1 252 5 discriminator 4 view .LVU53
 309 00a6 A0F50070 		sub	r0, r0, #512	@ iftmp.3_32, _16,
 310 00aa B0FA80F0 		clz	r0, r0	@ iftmp.3_32, iftmp.3_32
 311 00ae 4009     		lsrs	r0, r0, #5	@ iftmp.3_32, iftmp.3_32,
 312 00b0 EBE7     		b	.L7		@
 313              	.L14:
 314 00b2 00BF     		.align	2
 315              	.L13:
 316 00b4 00000650 		.word	1342570496
 317              		.cfi_endproc
 318              	.LFE111:
 319              		.size	CRYP_Init, .-CRYP_Init
 320              		.section	.text.CRYP_StructInit,"ax",%progbits
 321              		.align	1
 322              		.p2align 2,,3
 323              		.global	CRYP_StructInit
 324              		.syntax unified
 325              		.thumb
 326              		.thumb_func
 327              		.type	CRYP_StructInit, %function
 328              	CRYP_StructInit:
 329              	.LVL9:
 330              	.LFB112:
 263:../Libraries/STM32F4xx_StdPeriph_Driver/src/stm32f4xx_cryp.c **** 
 264:../Libraries/STM32F4xx_StdPeriph_Driver/src/stm32f4xx_cryp.c **** /**
 265:../Libraries/STM32F4xx_StdPeriph_Driver/src/stm32f4xx_cryp.c ****   * @brief  Fills each CRYP_InitStruct member with its default value.
 266:../Libraries/STM32F4xx_StdPeriph_Driver/src/stm32f4xx_cryp.c ****   * @param  CRYP_InitStruct: pointer to a CRYP_InitTypeDef structure which will
 267:../Libraries/STM32F4xx_StdPeriph_Driver/src/stm32f4xx_cryp.c ****   *         be initialized.
 268:../Libraries/STM32F4xx_StdPeriph_Driver/src/stm32f4xx_cryp.c ****   * @retval None
 269:../Libraries/STM32F4xx_StdPeriph_Driver/src/stm32f4xx_cryp.c ****   */
 270:../Libraries/STM32F4xx_StdPeriph_Driver/src/stm32f4xx_cryp.c **** void CRYP_StructInit(CRYP_InitTypeDef* CRYP_InitStruct)
 271:../Libraries/STM32F4xx_StdPeriph_Driver/src/stm32f4xx_cryp.c **** {
 331              		.loc 1 271 1 is_stmt 1 view -0
ARM GAS  C:\Users\admin\AppData\Local\Temp\ccdBMIKa.s 			page 12


 332              		.cfi_startproc
 333              		@ args = 0, pretend = 0, frame = 0
 334              		@ frame_needed = 0, uses_anonymous_args = 0
 335              		@ link register save eliminated.
 272:../Libraries/STM32F4xx_StdPeriph_Driver/src/stm32f4xx_cryp.c ****   /* Initialize the CRYP_AlgoDir member */
 273:../Libraries/STM32F4xx_StdPeriph_Driver/src/stm32f4xx_cryp.c ****   CRYP_InitStruct->CRYP_AlgoDir = CRYP_AlgoDir_Encrypt;
 336              		.loc 1 273 3 view .LVU55
 274:../Libraries/STM32F4xx_StdPeriph_Driver/src/stm32f4xx_cryp.c **** 
 275:../Libraries/STM32F4xx_StdPeriph_Driver/src/stm32f4xx_cryp.c ****   /* initialize the CRYP_AlgoMode member */
 276:../Libraries/STM32F4xx_StdPeriph_Driver/src/stm32f4xx_cryp.c ****   CRYP_InitStruct->CRYP_AlgoMode = CRYP_AlgoMode_TDES_ECB;
 337              		.loc 1 276 3 view .LVU56
 277:../Libraries/STM32F4xx_StdPeriph_Driver/src/stm32f4xx_cryp.c **** 
 278:../Libraries/STM32F4xx_StdPeriph_Driver/src/stm32f4xx_cryp.c ****   /* initialize the CRYP_DataType member */
 279:../Libraries/STM32F4xx_StdPeriph_Driver/src/stm32f4xx_cryp.c ****   CRYP_InitStruct->CRYP_DataType = CRYP_DataType_32b;
 338              		.loc 1 279 3 view .LVU57
 280:../Libraries/STM32F4xx_StdPeriph_Driver/src/stm32f4xx_cryp.c ****   
 281:../Libraries/STM32F4xx_StdPeriph_Driver/src/stm32f4xx_cryp.c ****   /* Initialize the CRYP_KeySize member */
 282:../Libraries/STM32F4xx_StdPeriph_Driver/src/stm32f4xx_cryp.c ****   CRYP_InitStruct->CRYP_KeySize = CRYP_KeySize_128b;
 339              		.loc 1 282 3 view .LVU58
 340              	@ ../Libraries/STM32F4xx_StdPeriph_Driver/src/stm32f4xx_cryp.c:273:   CRYP_InitStruct->CRYP_AlgoDir
 273:../Libraries/STM32F4xx_StdPeriph_Driver/src/stm32f4xx_cryp.c **** 
 341              		.loc 1 273 33 is_stmt 0 view .LVU59
 342 0000 0023     		movs	r3, #0	@ tmp114,
 343 0002 0360     		str	r3, [r0]	@ unaligned	@ tmp114, MEM <vector(2) short unsigned int> [(short unsigned int *)CRYP_
 344 0004 4360     		str	r3, [r0, #4]	@ unaligned	@ tmp114, MEM <vector(2) short unsigned int> [(short unsigned int *)C
 345              	@ ../Libraries/STM32F4xx_StdPeriph_Driver/src/stm32f4xx_cryp.c:283: }
 283:../Libraries/STM32F4xx_StdPeriph_Driver/src/stm32f4xx_cryp.c **** }
 346              		.loc 1 283 1 view .LVU60
 347 0006 7047     		bx	lr	@
 348              		.cfi_endproc
 349              	.LFE112:
 350              		.size	CRYP_StructInit, .-CRYP_StructInit
 351              		.section	.text.CRYP_KeyInit,"ax",%progbits
 352              		.align	1
 353              		.p2align 2,,3
 354              		.global	CRYP_KeyInit
 355              		.syntax unified
 356              		.thumb
 357              		.thumb_func
 358              		.type	CRYP_KeyInit, %function
 359              	CRYP_KeyInit:
 360              	.LVL10:
 361              	.LFB113:
 284:../Libraries/STM32F4xx_StdPeriph_Driver/src/stm32f4xx_cryp.c **** 
 285:../Libraries/STM32F4xx_StdPeriph_Driver/src/stm32f4xx_cryp.c **** /**
 286:../Libraries/STM32F4xx_StdPeriph_Driver/src/stm32f4xx_cryp.c ****   * @brief  Initializes the CRYP Keys according to the specified parameters in
 287:../Libraries/STM32F4xx_StdPeriph_Driver/src/stm32f4xx_cryp.c ****   *         the CRYP_KeyInitStruct.
 288:../Libraries/STM32F4xx_StdPeriph_Driver/src/stm32f4xx_cryp.c ****   * @param  CRYP_KeyInitStruct: pointer to a CRYP_KeyInitTypeDef structure that
 289:../Libraries/STM32F4xx_StdPeriph_Driver/src/stm32f4xx_cryp.c ****   *         contains the configuration information for the CRYP Keys.
 290:../Libraries/STM32F4xx_StdPeriph_Driver/src/stm32f4xx_cryp.c ****   * @retval None
 291:../Libraries/STM32F4xx_StdPeriph_Driver/src/stm32f4xx_cryp.c ****   */
 292:../Libraries/STM32F4xx_StdPeriph_Driver/src/stm32f4xx_cryp.c **** void CRYP_KeyInit(CRYP_KeyInitTypeDef* CRYP_KeyInitStruct)
 293:../Libraries/STM32F4xx_StdPeriph_Driver/src/stm32f4xx_cryp.c **** {
 362              		.loc 1 293 1 is_stmt 1 view -0
 363              		.cfi_startproc
 364              		@ args = 0, pretend = 0, frame = 0
 365              		@ frame_needed = 0, uses_anonymous_args = 0
ARM GAS  C:\Users\admin\AppData\Local\Temp\ccdBMIKa.s 			page 13


 366              		@ link register save eliminated.
 294:../Libraries/STM32F4xx_StdPeriph_Driver/src/stm32f4xx_cryp.c ****   /* Key Initialisation */
 295:../Libraries/STM32F4xx_StdPeriph_Driver/src/stm32f4xx_cryp.c ****   CRYP->K0LR = CRYP_KeyInitStruct->CRYP_Key0Left;
 367              		.loc 1 295 3 view .LVU62
 368              	@ ../Libraries/STM32F4xx_StdPeriph_Driver/src/stm32f4xx_cryp.c:295:   CRYP->K0LR = CRYP_KeyInitStru
 369              		.loc 1 295 14 is_stmt 0 view .LVU63
 370 0000 084B     		ldr	r3, .L17	@ tmp122,
 371              	@ ../Libraries/STM32F4xx_StdPeriph_Driver/src/stm32f4xx_cryp.c:295:   CRYP->K0LR = CRYP_KeyInitStru
 372              		.loc 1 295 34 view .LVU64
 373 0002 0268     		ldr	r2, [r0]	@ _1, CRYP_KeyInitStruct_10(D)->CRYP_Key0Left
 374              	@ ../Libraries/STM32F4xx_StdPeriph_Driver/src/stm32f4xx_cryp.c:295:   CRYP->K0LR = CRYP_KeyInitStru
 375              		.loc 1 295 14 view .LVU65
 376 0004 1A62     		str	r2, [r3, #32]	@ _1, MEM[(struct CRYP_TypeDef *)1342570496B].K0LR
 296:../Libraries/STM32F4xx_StdPeriph_Driver/src/stm32f4xx_cryp.c ****   CRYP->K0RR = CRYP_KeyInitStruct->CRYP_Key0Right;
 377              		.loc 1 296 3 is_stmt 1 view .LVU66
 378              	@ ../Libraries/STM32F4xx_StdPeriph_Driver/src/stm32f4xx_cryp.c:296:   CRYP->K0RR = CRYP_KeyInitStru
 379              		.loc 1 296 34 is_stmt 0 view .LVU67
 380 0006 4268     		ldr	r2, [r0, #4]	@ _2, CRYP_KeyInitStruct_10(D)->CRYP_Key0Right
 381              	@ ../Libraries/STM32F4xx_StdPeriph_Driver/src/stm32f4xx_cryp.c:296:   CRYP->K0RR = CRYP_KeyInitStru
 382              		.loc 1 296 14 view .LVU68
 383 0008 5A62     		str	r2, [r3, #36]	@ _2, MEM[(struct CRYP_TypeDef *)1342570496B].K0RR
 297:../Libraries/STM32F4xx_StdPeriph_Driver/src/stm32f4xx_cryp.c ****   CRYP->K1LR = CRYP_KeyInitStruct->CRYP_Key1Left;
 384              		.loc 1 297 3 is_stmt 1 view .LVU69
 385              	@ ../Libraries/STM32F4xx_StdPeriph_Driver/src/stm32f4xx_cryp.c:297:   CRYP->K1LR = CRYP_KeyInitStru
 386              		.loc 1 297 34 is_stmt 0 view .LVU70
 387 000a 8268     		ldr	r2, [r0, #8]	@ _3, CRYP_KeyInitStruct_10(D)->CRYP_Key1Left
 388              	@ ../Libraries/STM32F4xx_StdPeriph_Driver/src/stm32f4xx_cryp.c:297:   CRYP->K1LR = CRYP_KeyInitStru
 389              		.loc 1 297 14 view .LVU71
 390 000c 9A62     		str	r2, [r3, #40]	@ _3, MEM[(struct CRYP_TypeDef *)1342570496B].K1LR
 298:../Libraries/STM32F4xx_StdPeriph_Driver/src/stm32f4xx_cryp.c ****   CRYP->K1RR = CRYP_KeyInitStruct->CRYP_Key1Right;
 391              		.loc 1 298 3 is_stmt 1 view .LVU72
 392              	@ ../Libraries/STM32F4xx_StdPeriph_Driver/src/stm32f4xx_cryp.c:298:   CRYP->K1RR = CRYP_KeyInitStru
 393              		.loc 1 298 34 is_stmt 0 view .LVU73
 394 000e C268     		ldr	r2, [r0, #12]	@ _4, CRYP_KeyInitStruct_10(D)->CRYP_Key1Right
 395              	@ ../Libraries/STM32F4xx_StdPeriph_Driver/src/stm32f4xx_cryp.c:298:   CRYP->K1RR = CRYP_KeyInitStru
 396              		.loc 1 298 14 view .LVU74
 397 0010 DA62     		str	r2, [r3, #44]	@ _4, MEM[(struct CRYP_TypeDef *)1342570496B].K1RR
 299:../Libraries/STM32F4xx_StdPeriph_Driver/src/stm32f4xx_cryp.c ****   CRYP->K2LR = CRYP_KeyInitStruct->CRYP_Key2Left;
 398              		.loc 1 299 3 is_stmt 1 view .LVU75
 399              	@ ../Libraries/STM32F4xx_StdPeriph_Driver/src/stm32f4xx_cryp.c:299:   CRYP->K2LR = CRYP_KeyInitStru
 400              		.loc 1 299 34 is_stmt 0 view .LVU76
 401 0012 0269     		ldr	r2, [r0, #16]	@ _5, CRYP_KeyInitStruct_10(D)->CRYP_Key2Left
 402              	@ ../Libraries/STM32F4xx_StdPeriph_Driver/src/stm32f4xx_cryp.c:299:   CRYP->K2LR = CRYP_KeyInitStru
 403              		.loc 1 299 14 view .LVU77
 404 0014 1A63     		str	r2, [r3, #48]	@ _5, MEM[(struct CRYP_TypeDef *)1342570496B].K2LR
 300:../Libraries/STM32F4xx_StdPeriph_Driver/src/stm32f4xx_cryp.c ****   CRYP->K2RR = CRYP_KeyInitStruct->CRYP_Key2Right;
 405              		.loc 1 300 3 is_stmt 1 view .LVU78
 406              	@ ../Libraries/STM32F4xx_StdPeriph_Driver/src/stm32f4xx_cryp.c:300:   CRYP->K2RR = CRYP_KeyInitStru
 407              		.loc 1 300 34 is_stmt 0 view .LVU79
 408 0016 4269     		ldr	r2, [r0, #20]	@ _6, CRYP_KeyInitStruct_10(D)->CRYP_Key2Right
 409              	@ ../Libraries/STM32F4xx_StdPeriph_Driver/src/stm32f4xx_cryp.c:300:   CRYP->K2RR = CRYP_KeyInitStru
 410              		.loc 1 300 14 view .LVU80
 411 0018 5A63     		str	r2, [r3, #52]	@ _6, MEM[(struct CRYP_TypeDef *)1342570496B].K2RR
 301:../Libraries/STM32F4xx_StdPeriph_Driver/src/stm32f4xx_cryp.c ****   CRYP->K3LR = CRYP_KeyInitStruct->CRYP_Key3Left;
 412              		.loc 1 301 3 is_stmt 1 view .LVU81
 413              	@ ../Libraries/STM32F4xx_StdPeriph_Driver/src/stm32f4xx_cryp.c:301:   CRYP->K3LR = CRYP_KeyInitStru
 414              		.loc 1 301 34 is_stmt 0 view .LVU82
ARM GAS  C:\Users\admin\AppData\Local\Temp\ccdBMIKa.s 			page 14


 415 001a 8269     		ldr	r2, [r0, #24]	@ _7, CRYP_KeyInitStruct_10(D)->CRYP_Key3Left
 416              	@ ../Libraries/STM32F4xx_StdPeriph_Driver/src/stm32f4xx_cryp.c:301:   CRYP->K3LR = CRYP_KeyInitStru
 417              		.loc 1 301 14 view .LVU83
 418 001c 9A63     		str	r2, [r3, #56]	@ _7, MEM[(struct CRYP_TypeDef *)1342570496B].K3LR
 302:../Libraries/STM32F4xx_StdPeriph_Driver/src/stm32f4xx_cryp.c ****   CRYP->K3RR = CRYP_KeyInitStruct->CRYP_Key3Right;
 419              		.loc 1 302 3 is_stmt 1 view .LVU84
 420              	@ ../Libraries/STM32F4xx_StdPeriph_Driver/src/stm32f4xx_cryp.c:302:   CRYP->K3RR = CRYP_KeyInitStru
 421              		.loc 1 302 34 is_stmt 0 view .LVU85
 422 001e C269     		ldr	r2, [r0, #28]	@ _8, CRYP_KeyInitStruct_10(D)->CRYP_Key3Right
 423              	@ ../Libraries/STM32F4xx_StdPeriph_Driver/src/stm32f4xx_cryp.c:302:   CRYP->K3RR = CRYP_KeyInitStru
 424              		.loc 1 302 14 view .LVU86
 425 0020 DA63     		str	r2, [r3, #60]	@ _8, MEM[(struct CRYP_TypeDef *)1342570496B].K3RR
 426              	@ ../Libraries/STM32F4xx_StdPeriph_Driver/src/stm32f4xx_cryp.c:303: }
 303:../Libraries/STM32F4xx_StdPeriph_Driver/src/stm32f4xx_cryp.c **** }
 427              		.loc 1 303 1 view .LVU87
 428 0022 7047     		bx	lr	@
 429              	.L18:
 430              		.align	2
 431              	.L17:
 432 0024 00000650 		.word	1342570496
 433              		.cfi_endproc
 434              	.LFE113:
 435              		.size	CRYP_KeyInit, .-CRYP_KeyInit
 436              		.section	.text.CRYP_KeyStructInit,"ax",%progbits
 437              		.align	1
 438              		.p2align 2,,3
 439              		.global	CRYP_KeyStructInit
 440              		.syntax unified
 441              		.thumb
 442              		.thumb_func
 443              		.type	CRYP_KeyStructInit, %function
 444              	CRYP_KeyStructInit:
 445              	.LVL11:
 446              	.LFB114:
 304:../Libraries/STM32F4xx_StdPeriph_Driver/src/stm32f4xx_cryp.c **** 
 305:../Libraries/STM32F4xx_StdPeriph_Driver/src/stm32f4xx_cryp.c **** /**
 306:../Libraries/STM32F4xx_StdPeriph_Driver/src/stm32f4xx_cryp.c ****   * @brief  Fills each CRYP_KeyInitStruct member with its default value.
 307:../Libraries/STM32F4xx_StdPeriph_Driver/src/stm32f4xx_cryp.c ****   * @param  CRYP_KeyInitStruct: pointer to a CRYP_KeyInitTypeDef structure 
 308:../Libraries/STM32F4xx_StdPeriph_Driver/src/stm32f4xx_cryp.c ****   *         which will be initialized.
 309:../Libraries/STM32F4xx_StdPeriph_Driver/src/stm32f4xx_cryp.c ****   * @retval None
 310:../Libraries/STM32F4xx_StdPeriph_Driver/src/stm32f4xx_cryp.c ****   */
 311:../Libraries/STM32F4xx_StdPeriph_Driver/src/stm32f4xx_cryp.c **** void CRYP_KeyStructInit(CRYP_KeyInitTypeDef* CRYP_KeyInitStruct)
 312:../Libraries/STM32F4xx_StdPeriph_Driver/src/stm32f4xx_cryp.c **** {
 447              		.loc 1 312 1 is_stmt 1 view -0
 448              		.cfi_startproc
 449              		@ args = 0, pretend = 0, frame = 0
 450              		@ frame_needed = 0, uses_anonymous_args = 0
 451              		@ link register save eliminated.
 313:../Libraries/STM32F4xx_StdPeriph_Driver/src/stm32f4xx_cryp.c ****   CRYP_KeyInitStruct->CRYP_Key0Left  = 0;
 452              		.loc 1 313 3 view .LVU89
 453              	@ ../Libraries/STM32F4xx_StdPeriph_Driver/src/stm32f4xx_cryp.c:313:   CRYP_KeyInitStruct->CRYP_Key0
 454              		.loc 1 313 38 is_stmt 0 view .LVU90
 455 0000 0023     		movs	r3, #0	@ tmp114,
 456              	@ ../Libraries/STM32F4xx_StdPeriph_Driver/src/stm32f4xx_cryp.c:314:   CRYP_KeyInitStruct->CRYP_Key0
 314:../Libraries/STM32F4xx_StdPeriph_Driver/src/stm32f4xx_cryp.c ****   CRYP_KeyInitStruct->CRYP_Key0Right = 0;
 457              		.loc 1 314 38 view .LVU91
 458 0002 C0E90033 		strd	r3, r3, [r0]	@ tmp114, tmp114, CRYP_KeyInitStruct
ARM GAS  C:\Users\admin\AppData\Local\Temp\ccdBMIKa.s 			page 15


 315:../Libraries/STM32F4xx_StdPeriph_Driver/src/stm32f4xx_cryp.c ****   CRYP_KeyInitStruct->CRYP_Key1Left  = 0;
 459              		.loc 1 315 3 is_stmt 1 view .LVU92
 460              	@ ../Libraries/STM32F4xx_StdPeriph_Driver/src/stm32f4xx_cryp.c:316:   CRYP_KeyInitStruct->CRYP_Key1
 316:../Libraries/STM32F4xx_StdPeriph_Driver/src/stm32f4xx_cryp.c ****   CRYP_KeyInitStruct->CRYP_Key1Right = 0;
 461              		.loc 1 316 38 is_stmt 0 view .LVU93
 462 0006 C0E90233 		strd	r3, r3, [r0, #8]	@ tmp114, tmp114, CRYP_KeyInitStruct,
 317:../Libraries/STM32F4xx_StdPeriph_Driver/src/stm32f4xx_cryp.c ****   CRYP_KeyInitStruct->CRYP_Key2Left  = 0;
 463              		.loc 1 317 3 is_stmt 1 view .LVU94
 464              	@ ../Libraries/STM32F4xx_StdPeriph_Driver/src/stm32f4xx_cryp.c:318:   CRYP_KeyInitStruct->CRYP_Key2
 318:../Libraries/STM32F4xx_StdPeriph_Driver/src/stm32f4xx_cryp.c ****   CRYP_KeyInitStruct->CRYP_Key2Right = 0;
 465              		.loc 1 318 38 is_stmt 0 view .LVU95
 466 000a C0E90433 		strd	r3, r3, [r0, #16]	@ tmp114, tmp114, CRYP_KeyInitStruct,
 319:../Libraries/STM32F4xx_StdPeriph_Driver/src/stm32f4xx_cryp.c ****   CRYP_KeyInitStruct->CRYP_Key3Left  = 0;
 467              		.loc 1 319 3 is_stmt 1 view .LVU96
 468              	@ ../Libraries/STM32F4xx_StdPeriph_Driver/src/stm32f4xx_cryp.c:320:   CRYP_KeyInitStruct->CRYP_Key3
 320:../Libraries/STM32F4xx_StdPeriph_Driver/src/stm32f4xx_cryp.c ****   CRYP_KeyInitStruct->CRYP_Key3Right = 0;
 469              		.loc 1 320 38 is_stmt 0 view .LVU97
 470 000e C0E90633 		strd	r3, r3, [r0, #24]	@ tmp114, tmp114, CRYP_KeyInitStruct,
 471              	@ ../Libraries/STM32F4xx_StdPeriph_Driver/src/stm32f4xx_cryp.c:321: }
 321:../Libraries/STM32F4xx_StdPeriph_Driver/src/stm32f4xx_cryp.c **** }
 472              		.loc 1 321 1 view .LVU98
 473 0012 7047     		bx	lr	@
 474              		.cfi_endproc
 475              	.LFE114:
 476              		.size	CRYP_KeyStructInit, .-CRYP_KeyStructInit
 477              		.section	.text.CRYP_IVInit,"ax",%progbits
 478              		.align	1
 479              		.p2align 2,,3
 480              		.global	CRYP_IVInit
 481              		.syntax unified
 482              		.thumb
 483              		.thumb_func
 484              		.type	CRYP_IVInit, %function
 485              	CRYP_IVInit:
 486              	.LVL12:
 487              	.LFB115:
 322:../Libraries/STM32F4xx_StdPeriph_Driver/src/stm32f4xx_cryp.c **** /**
 323:../Libraries/STM32F4xx_StdPeriph_Driver/src/stm32f4xx_cryp.c ****   * @brief  Initializes the CRYP Initialization Vectors(IV) according to the
 324:../Libraries/STM32F4xx_StdPeriph_Driver/src/stm32f4xx_cryp.c ****   *         specified parameters in the CRYP_IVInitStruct.
 325:../Libraries/STM32F4xx_StdPeriph_Driver/src/stm32f4xx_cryp.c ****   * @param  CRYP_IVInitStruct: pointer to a CRYP_IVInitTypeDef structure that contains
 326:../Libraries/STM32F4xx_StdPeriph_Driver/src/stm32f4xx_cryp.c ****   *         the configuration information for the CRYP Initialization Vectors(IV).
 327:../Libraries/STM32F4xx_StdPeriph_Driver/src/stm32f4xx_cryp.c ****   * @retval None
 328:../Libraries/STM32F4xx_StdPeriph_Driver/src/stm32f4xx_cryp.c ****   */
 329:../Libraries/STM32F4xx_StdPeriph_Driver/src/stm32f4xx_cryp.c **** void CRYP_IVInit(CRYP_IVInitTypeDef* CRYP_IVInitStruct)
 330:../Libraries/STM32F4xx_StdPeriph_Driver/src/stm32f4xx_cryp.c **** {
 488              		.loc 1 330 1 is_stmt 1 view -0
 489              		.cfi_startproc
 490              		@ args = 0, pretend = 0, frame = 0
 491              		@ frame_needed = 0, uses_anonymous_args = 0
 492              		@ link register save eliminated.
 331:../Libraries/STM32F4xx_StdPeriph_Driver/src/stm32f4xx_cryp.c ****   CRYP->IV0LR = CRYP_IVInitStruct->CRYP_IV0Left;
 493              		.loc 1 331 3 view .LVU100
 494              	@ ../Libraries/STM32F4xx_StdPeriph_Driver/src/stm32f4xx_cryp.c:331:   CRYP->IV0LR = CRYP_IVInitStru
 495              		.loc 1 331 15 is_stmt 0 view .LVU101
 496 0000 044B     		ldr	r3, .L21	@ tmp118,
 497              	@ ../Libraries/STM32F4xx_StdPeriph_Driver/src/stm32f4xx_cryp.c:331:   CRYP->IV0LR = CRYP_IVInitStru
 498              		.loc 1 331 34 view .LVU102
ARM GAS  C:\Users\admin\AppData\Local\Temp\ccdBMIKa.s 			page 16


 499 0002 0268     		ldr	r2, [r0]	@ _1, CRYP_IVInitStruct_6(D)->CRYP_IV0Left
 500              	@ ../Libraries/STM32F4xx_StdPeriph_Driver/src/stm32f4xx_cryp.c:331:   CRYP->IV0LR = CRYP_IVInitStru
 501              		.loc 1 331 15 view .LVU103
 502 0004 1A64     		str	r2, [r3, #64]	@ _1, MEM[(struct CRYP_TypeDef *)1342570496B].IV0LR
 332:../Libraries/STM32F4xx_StdPeriph_Driver/src/stm32f4xx_cryp.c ****   CRYP->IV0RR = CRYP_IVInitStruct->CRYP_IV0Right;
 503              		.loc 1 332 3 is_stmt 1 view .LVU104
 504              	@ ../Libraries/STM32F4xx_StdPeriph_Driver/src/stm32f4xx_cryp.c:332:   CRYP->IV0RR = CRYP_IVInitStru
 505              		.loc 1 332 34 is_stmt 0 view .LVU105
 506 0006 4268     		ldr	r2, [r0, #4]	@ _2, CRYP_IVInitStruct_6(D)->CRYP_IV0Right
 507              	@ ../Libraries/STM32F4xx_StdPeriph_Driver/src/stm32f4xx_cryp.c:332:   CRYP->IV0RR = CRYP_IVInitStru
 508              		.loc 1 332 15 view .LVU106
 509 0008 5A64     		str	r2, [r3, #68]	@ _2, MEM[(struct CRYP_TypeDef *)1342570496B].IV0RR
 333:../Libraries/STM32F4xx_StdPeriph_Driver/src/stm32f4xx_cryp.c ****   CRYP->IV1LR = CRYP_IVInitStruct->CRYP_IV1Left;
 510              		.loc 1 333 3 is_stmt 1 view .LVU107
 511              	@ ../Libraries/STM32F4xx_StdPeriph_Driver/src/stm32f4xx_cryp.c:333:   CRYP->IV1LR = CRYP_IVInitStru
 512              		.loc 1 333 34 is_stmt 0 view .LVU108
 513 000a 8268     		ldr	r2, [r0, #8]	@ _3, CRYP_IVInitStruct_6(D)->CRYP_IV1Left
 514              	@ ../Libraries/STM32F4xx_StdPeriph_Driver/src/stm32f4xx_cryp.c:333:   CRYP->IV1LR = CRYP_IVInitStru
 515              		.loc 1 333 15 view .LVU109
 516 000c 9A64     		str	r2, [r3, #72]	@ _3, MEM[(struct CRYP_TypeDef *)1342570496B].IV1LR
 334:../Libraries/STM32F4xx_StdPeriph_Driver/src/stm32f4xx_cryp.c ****   CRYP->IV1RR = CRYP_IVInitStruct->CRYP_IV1Right;
 517              		.loc 1 334 3 is_stmt 1 view .LVU110
 518              	@ ../Libraries/STM32F4xx_StdPeriph_Driver/src/stm32f4xx_cryp.c:334:   CRYP->IV1RR = CRYP_IVInitStru
 519              		.loc 1 334 34 is_stmt 0 view .LVU111
 520 000e C268     		ldr	r2, [r0, #12]	@ _4, CRYP_IVInitStruct_6(D)->CRYP_IV1Right
 521              	@ ../Libraries/STM32F4xx_StdPeriph_Driver/src/stm32f4xx_cryp.c:334:   CRYP->IV1RR = CRYP_IVInitStru
 522              		.loc 1 334 15 view .LVU112
 523 0010 DA64     		str	r2, [r3, #76]	@ _4, MEM[(struct CRYP_TypeDef *)1342570496B].IV1RR
 524              	@ ../Libraries/STM32F4xx_StdPeriph_Driver/src/stm32f4xx_cryp.c:335: }
 335:../Libraries/STM32F4xx_StdPeriph_Driver/src/stm32f4xx_cryp.c **** }
 525              		.loc 1 335 1 view .LVU113
 526 0012 7047     		bx	lr	@
 527              	.L22:
 528              		.align	2
 529              	.L21:
 530 0014 00000650 		.word	1342570496
 531              		.cfi_endproc
 532              	.LFE115:
 533              		.size	CRYP_IVInit, .-CRYP_IVInit
 534              		.section	.text.CRYP_IVStructInit,"ax",%progbits
 535              		.align	1
 536              		.p2align 2,,3
 537              		.global	CRYP_IVStructInit
 538              		.syntax unified
 539              		.thumb
 540              		.thumb_func
 541              		.type	CRYP_IVStructInit, %function
 542              	CRYP_IVStructInit:
 543              	.LVL13:
 544              	.LFB116:
 336:../Libraries/STM32F4xx_StdPeriph_Driver/src/stm32f4xx_cryp.c **** 
 337:../Libraries/STM32F4xx_StdPeriph_Driver/src/stm32f4xx_cryp.c **** /**
 338:../Libraries/STM32F4xx_StdPeriph_Driver/src/stm32f4xx_cryp.c ****   * @brief  Fills each CRYP_IVInitStruct member with its default value.
 339:../Libraries/STM32F4xx_StdPeriph_Driver/src/stm32f4xx_cryp.c ****   * @param  CRYP_IVInitStruct: pointer to a CRYP_IVInitTypeDef Initialization 
 340:../Libraries/STM32F4xx_StdPeriph_Driver/src/stm32f4xx_cryp.c ****   *         Vectors(IV) structure which will be initialized.
 341:../Libraries/STM32F4xx_StdPeriph_Driver/src/stm32f4xx_cryp.c ****   * @retval None
 342:../Libraries/STM32F4xx_StdPeriph_Driver/src/stm32f4xx_cryp.c ****   */
ARM GAS  C:\Users\admin\AppData\Local\Temp\ccdBMIKa.s 			page 17


 343:../Libraries/STM32F4xx_StdPeriph_Driver/src/stm32f4xx_cryp.c **** void CRYP_IVStructInit(CRYP_IVInitTypeDef* CRYP_IVInitStruct)
 344:../Libraries/STM32F4xx_StdPeriph_Driver/src/stm32f4xx_cryp.c **** {
 545              		.loc 1 344 1 is_stmt 1 view -0
 546              		.cfi_startproc
 547              		@ args = 0, pretend = 0, frame = 0
 548              		@ frame_needed = 0, uses_anonymous_args = 0
 549              		@ link register save eliminated.
 345:../Libraries/STM32F4xx_StdPeriph_Driver/src/stm32f4xx_cryp.c ****   CRYP_IVInitStruct->CRYP_IV0Left  = 0;
 550              		.loc 1 345 3 view .LVU115
 551              	@ ../Libraries/STM32F4xx_StdPeriph_Driver/src/stm32f4xx_cryp.c:345:   CRYP_IVInitStruct->CRYP_IV0Le
 552              		.loc 1 345 36 is_stmt 0 view .LVU116
 553 0000 0023     		movs	r3, #0	@ tmp114,
 554              	@ ../Libraries/STM32F4xx_StdPeriph_Driver/src/stm32f4xx_cryp.c:346:   CRYP_IVInitStruct->CRYP_IV0Ri
 346:../Libraries/STM32F4xx_StdPeriph_Driver/src/stm32f4xx_cryp.c ****   CRYP_IVInitStruct->CRYP_IV0Right = 0;
 555              		.loc 1 346 36 view .LVU117
 556 0002 C0E90033 		strd	r3, r3, [r0]	@ tmp114, tmp114, CRYP_IVInitStruct
 347:../Libraries/STM32F4xx_StdPeriph_Driver/src/stm32f4xx_cryp.c ****   CRYP_IVInitStruct->CRYP_IV1Left  = 0;
 557              		.loc 1 347 3 is_stmt 1 view .LVU118
 558              	@ ../Libraries/STM32F4xx_StdPeriph_Driver/src/stm32f4xx_cryp.c:348:   CRYP_IVInitStruct->CRYP_IV1Ri
 348:../Libraries/STM32F4xx_StdPeriph_Driver/src/stm32f4xx_cryp.c ****   CRYP_IVInitStruct->CRYP_IV1Right = 0;
 559              		.loc 1 348 36 is_stmt 0 view .LVU119
 560 0006 C0E90233 		strd	r3, r3, [r0, #8]	@ tmp114, tmp114, CRYP_IVInitStruct,
 561              	@ ../Libraries/STM32F4xx_StdPeriph_Driver/src/stm32f4xx_cryp.c:349: }
 349:../Libraries/STM32F4xx_StdPeriph_Driver/src/stm32f4xx_cryp.c **** }
 562              		.loc 1 349 1 view .LVU120
 563 000a 7047     		bx	lr	@
 564              		.cfi_endproc
 565              	.LFE116:
 566              		.size	CRYP_IVStructInit, .-CRYP_IVStructInit
 567              		.section	.text.CRYP_FIFOFlush,"ax",%progbits
 568              		.align	1
 569              		.p2align 2,,3
 570              		.global	CRYP_FIFOFlush
 571              		.syntax unified
 572              		.thumb
 573              		.thumb_func
 574              		.type	CRYP_FIFOFlush, %function
 575              	CRYP_FIFOFlush:
 576              	.LFB117:
 350:../Libraries/STM32F4xx_StdPeriph_Driver/src/stm32f4xx_cryp.c **** 
 351:../Libraries/STM32F4xx_StdPeriph_Driver/src/stm32f4xx_cryp.c **** /**
 352:../Libraries/STM32F4xx_StdPeriph_Driver/src/stm32f4xx_cryp.c ****   * @brief  Flushes the IN and OUT FIFOs (that is read and write pointers of the 
 353:../Libraries/STM32F4xx_StdPeriph_Driver/src/stm32f4xx_cryp.c ****   *         FIFOs are reset)
 354:../Libraries/STM32F4xx_StdPeriph_Driver/src/stm32f4xx_cryp.c ****   * @note   The FIFOs must be flushed only when BUSY flag is reset.  
 355:../Libraries/STM32F4xx_StdPeriph_Driver/src/stm32f4xx_cryp.c ****   * @param  None
 356:../Libraries/STM32F4xx_StdPeriph_Driver/src/stm32f4xx_cryp.c ****   * @retval None
 357:../Libraries/STM32F4xx_StdPeriph_Driver/src/stm32f4xx_cryp.c ****   */
 358:../Libraries/STM32F4xx_StdPeriph_Driver/src/stm32f4xx_cryp.c **** void CRYP_FIFOFlush(void)
 359:../Libraries/STM32F4xx_StdPeriph_Driver/src/stm32f4xx_cryp.c **** {
 577              		.loc 1 359 1 is_stmt 1 view -0
 578              		.cfi_startproc
 579              		@ args = 0, pretend = 0, frame = 0
 580              		@ frame_needed = 0, uses_anonymous_args = 0
 581              		@ link register save eliminated.
 360:../Libraries/STM32F4xx_StdPeriph_Driver/src/stm32f4xx_cryp.c ****   /* Reset the read and write pointers of the FIFOs */
 361:../Libraries/STM32F4xx_StdPeriph_Driver/src/stm32f4xx_cryp.c ****   CRYP->CR |= CRYP_CR_FFLUSH;
 582              		.loc 1 361 3 view .LVU122
ARM GAS  C:\Users\admin\AppData\Local\Temp\ccdBMIKa.s 			page 18


 583              	@ ../Libraries/STM32F4xx_StdPeriph_Driver/src/stm32f4xx_cryp.c:361:   CRYP->CR |= CRYP_CR_FFLUSH;
 584              		.loc 1 361 12 is_stmt 0 view .LVU123
 585 0000 024A     		ldr	r2, .L25	@ tmp115,
 586 0002 1368     		ldr	r3, [r2]	@ _1, MEM[(struct CRYP_TypeDef *)1342570496B].CR
 587 0004 43F48043 		orr	r3, r3, #16384	@ _2, _1,
 588 0008 1360     		str	r3, [r2]	@ _2, MEM[(struct CRYP_TypeDef *)1342570496B].CR
 589              	@ ../Libraries/STM32F4xx_StdPeriph_Driver/src/stm32f4xx_cryp.c:362: }
 362:../Libraries/STM32F4xx_StdPeriph_Driver/src/stm32f4xx_cryp.c **** }
 590              		.loc 1 362 1 view .LVU124
 591 000a 7047     		bx	lr	@
 592              	.L26:
 593              		.align	2
 594              	.L25:
 595 000c 00000650 		.word	1342570496
 596              		.cfi_endproc
 597              	.LFE117:
 598              		.size	CRYP_FIFOFlush, .-CRYP_FIFOFlush
 599              		.section	.text.CRYP_Cmd,"ax",%progbits
 600              		.align	1
 601              		.p2align 2,,3
 602              		.global	CRYP_Cmd
 603              		.syntax unified
 604              		.thumb
 605              		.thumb_func
 606              		.type	CRYP_Cmd, %function
 607              	CRYP_Cmd:
 608              	.LVL14:
 609              	.LFB118:
 363:../Libraries/STM32F4xx_StdPeriph_Driver/src/stm32f4xx_cryp.c **** 
 364:../Libraries/STM32F4xx_StdPeriph_Driver/src/stm32f4xx_cryp.c **** /**
 365:../Libraries/STM32F4xx_StdPeriph_Driver/src/stm32f4xx_cryp.c ****   * @brief  Enables or disables the CRYP peripheral.
 366:../Libraries/STM32F4xx_StdPeriph_Driver/src/stm32f4xx_cryp.c ****   * @param  NewState: new state of the CRYP peripheral.
 367:../Libraries/STM32F4xx_StdPeriph_Driver/src/stm32f4xx_cryp.c ****   *          This parameter can be: ENABLE or DISABLE.
 368:../Libraries/STM32F4xx_StdPeriph_Driver/src/stm32f4xx_cryp.c ****   * @retval None
 369:../Libraries/STM32F4xx_StdPeriph_Driver/src/stm32f4xx_cryp.c ****   */
 370:../Libraries/STM32F4xx_StdPeriph_Driver/src/stm32f4xx_cryp.c **** void CRYP_Cmd(FunctionalState NewState)
 371:../Libraries/STM32F4xx_StdPeriph_Driver/src/stm32f4xx_cryp.c **** {
 610              		.loc 1 371 1 is_stmt 1 view -0
 611              		.cfi_startproc
 612              		@ args = 0, pretend = 0, frame = 0
 613              		@ frame_needed = 0, uses_anonymous_args = 0
 372:../Libraries/STM32F4xx_StdPeriph_Driver/src/stm32f4xx_cryp.c ****   /* Check the parameters */
 373:../Libraries/STM32F4xx_StdPeriph_Driver/src/stm32f4xx_cryp.c ****   assert_param(IS_FUNCTIONAL_STATE(NewState));
 614              		.loc 1 373 3 view .LVU126
 615 0000 0128     		cmp	r0, #1	@ NewState,
 616              	@ ../Libraries/STM32F4xx_StdPeriph_Driver/src/stm32f4xx_cryp.c:371: {
 371:../Libraries/STM32F4xx_StdPeriph_Driver/src/stm32f4xx_cryp.c ****   /* Check the parameters */
 617              		.loc 1 371 1 is_stmt 0 view .LVU127
 618 0002 10B5     		push	{r4, lr}	@
 619              		.cfi_def_cfa_offset 8
 620              		.cfi_offset 4, -8
 621              		.cfi_offset 14, -4
 622              	@ ../Libraries/STM32F4xx_StdPeriph_Driver/src/stm32f4xx_cryp.c:371: {
 371:../Libraries/STM32F4xx_StdPeriph_Driver/src/stm32f4xx_cryp.c ****   /* Check the parameters */
 623              		.loc 1 371 1 view .LVU128
 624 0004 0446     		mov	r4, r0	@ NewState, tmp128
 625              	@ ../Libraries/STM32F4xx_StdPeriph_Driver/src/stm32f4xx_cryp.c:373:   assert_param(IS_FUNCTIONAL_ST
ARM GAS  C:\Users\admin\AppData\Local\Temp\ccdBMIKa.s 			page 19


 626              		.loc 1 373 3 view .LVU129
 627 0006 8CBF     		ite	hi
 628 0008 0020     		movhi	r0, #0	@,
 629              	.LVL15:
 630              		.loc 1 373 3 view .LVU130
 631 000a 0120     		movls	r0, #1	@,
 632 000c FFF7FEFF 		bl	assert_param		@
 633              	.LVL16:
 374:../Libraries/STM32F4xx_StdPeriph_Driver/src/stm32f4xx_cryp.c **** 
 375:../Libraries/STM32F4xx_StdPeriph_Driver/src/stm32f4xx_cryp.c ****   if (NewState != DISABLE)
 634              		.loc 1 375 3 is_stmt 1 view .LVU131
 635              	@ ../Libraries/STM32F4xx_StdPeriph_Driver/src/stm32f4xx_cryp.c:378:     CRYP->CR |= CRYP_CR_CRYPEN;
 376:../Libraries/STM32F4xx_StdPeriph_Driver/src/stm32f4xx_cryp.c ****   {
 377:../Libraries/STM32F4xx_StdPeriph_Driver/src/stm32f4xx_cryp.c ****     /* Enable the Cryptographic processor */
 378:../Libraries/STM32F4xx_StdPeriph_Driver/src/stm32f4xx_cryp.c ****     CRYP->CR |= CRYP_CR_CRYPEN;
 636              		.loc 1 378 14 is_stmt 0 view .LVU132
 637 0010 054A     		ldr	r2, .L31	@ tmp124,
 638 0012 1368     		ldr	r3, [r2]	@ _3,
 639              	@ ../Libraries/STM32F4xx_StdPeriph_Driver/src/stm32f4xx_cryp.c:375:   if (NewState != DISABLE)
 375:../Libraries/STM32F4xx_StdPeriph_Driver/src/stm32f4xx_cryp.c ****   {
 640              		.loc 1 375 6 view .LVU133
 641 0014 1CB1     		cbz	r4, .L28	@ NewState,
 642              		.loc 1 378 5 is_stmt 1 view .LVU134
 643              	@ ../Libraries/STM32F4xx_StdPeriph_Driver/src/stm32f4xx_cryp.c:378:     CRYP->CR |= CRYP_CR_CRYPEN;
 644              		.loc 1 378 14 is_stmt 0 view .LVU135
 645 0016 43F40043 		orr	r3, r3, #32768	@ _4, _3,
 646 001a 1360     		str	r3, [r2]	@ _4,
 647              	@ ../Libraries/STM32F4xx_StdPeriph_Driver/src/stm32f4xx_cryp.c:385: }
 379:../Libraries/STM32F4xx_StdPeriph_Driver/src/stm32f4xx_cryp.c ****   }
 380:../Libraries/STM32F4xx_StdPeriph_Driver/src/stm32f4xx_cryp.c ****   else
 381:../Libraries/STM32F4xx_StdPeriph_Driver/src/stm32f4xx_cryp.c ****   {
 382:../Libraries/STM32F4xx_StdPeriph_Driver/src/stm32f4xx_cryp.c ****     /* Disable the Cryptographic processor */
 383:../Libraries/STM32F4xx_StdPeriph_Driver/src/stm32f4xx_cryp.c ****     CRYP->CR &= ~CRYP_CR_CRYPEN;
 384:../Libraries/STM32F4xx_StdPeriph_Driver/src/stm32f4xx_cryp.c ****   }
 385:../Libraries/STM32F4xx_StdPeriph_Driver/src/stm32f4xx_cryp.c **** }
 648              		.loc 1 385 1 view .LVU136
 649 001c 10BD     		pop	{r4, pc}	@
 650              	.L28:
 383:../Libraries/STM32F4xx_StdPeriph_Driver/src/stm32f4xx_cryp.c ****   }
 651              		.loc 1 383 5 is_stmt 1 view .LVU137
 652              	@ ../Libraries/STM32F4xx_StdPeriph_Driver/src/stm32f4xx_cryp.c:383:     CRYP->CR &= ~CRYP_CR_CRYPEN
 383:../Libraries/STM32F4xx_StdPeriph_Driver/src/stm32f4xx_cryp.c ****   }
 653              		.loc 1 383 14 is_stmt 0 view .LVU138
 654 001e 23F40043 		bic	r3, r3, #32768	@ _6, _5,
 655 0022 1360     		str	r3, [r2]	@ _6,
 656              	@ ../Libraries/STM32F4xx_StdPeriph_Driver/src/stm32f4xx_cryp.c:385: }
 657              		.loc 1 385 1 view .LVU139
 658 0024 10BD     		pop	{r4, pc}	@
 659              	.L32:
 660 0026 00BF     		.align	2
 661              	.L31:
 662 0028 00000650 		.word	1342570496
 663              		.cfi_endproc
 664              	.LFE118:
 665              		.size	CRYP_Cmd, .-CRYP_Cmd
 666              		.section	.text.CRYP_DataIn,"ax",%progbits
 667              		.align	1
ARM GAS  C:\Users\admin\AppData\Local\Temp\ccdBMIKa.s 			page 20


 668              		.p2align 2,,3
 669              		.global	CRYP_DataIn
 670              		.syntax unified
 671              		.thumb
 672              		.thumb_func
 673              		.type	CRYP_DataIn, %function
 674              	CRYP_DataIn:
 675              	.LVL17:
 676              	.LFB119:
 386:../Libraries/STM32F4xx_StdPeriph_Driver/src/stm32f4xx_cryp.c **** /**
 387:../Libraries/STM32F4xx_StdPeriph_Driver/src/stm32f4xx_cryp.c ****   * @}
 388:../Libraries/STM32F4xx_StdPeriph_Driver/src/stm32f4xx_cryp.c ****   */
 389:../Libraries/STM32F4xx_StdPeriph_Driver/src/stm32f4xx_cryp.c ****   
 390:../Libraries/STM32F4xx_StdPeriph_Driver/src/stm32f4xx_cryp.c **** /** @defgroup CRYP_Group2 CRYP Data processing functions
 391:../Libraries/STM32F4xx_StdPeriph_Driver/src/stm32f4xx_cryp.c ****  *  @brief    CRYP Data processing functions
 392:../Libraries/STM32F4xx_StdPeriph_Driver/src/stm32f4xx_cryp.c ****  *
 393:../Libraries/STM32F4xx_StdPeriph_Driver/src/stm32f4xx_cryp.c **** @verbatim    
 394:../Libraries/STM32F4xx_StdPeriph_Driver/src/stm32f4xx_cryp.c ****  ===============================================================================
 395:../Libraries/STM32F4xx_StdPeriph_Driver/src/stm32f4xx_cryp.c ****                       CRYP Data processing functions
 396:../Libraries/STM32F4xx_StdPeriph_Driver/src/stm32f4xx_cryp.c ****  ===============================================================================  
 397:../Libraries/STM32F4xx_StdPeriph_Driver/src/stm32f4xx_cryp.c ****   This section provides functions allowing the encryption and decryption 
 398:../Libraries/STM32F4xx_StdPeriph_Driver/src/stm32f4xx_cryp.c ****   operations: 
 399:../Libraries/STM32F4xx_StdPeriph_Driver/src/stm32f4xx_cryp.c ****   - Enter data to be treated in the IN FIFO : using CRYP_DataIn() function.
 400:../Libraries/STM32F4xx_StdPeriph_Driver/src/stm32f4xx_cryp.c ****   - Get the data result from the OUT FIFO : using CRYP_DataOut() function.
 401:../Libraries/STM32F4xx_StdPeriph_Driver/src/stm32f4xx_cryp.c **** 
 402:../Libraries/STM32F4xx_StdPeriph_Driver/src/stm32f4xx_cryp.c **** @endverbatim
 403:../Libraries/STM32F4xx_StdPeriph_Driver/src/stm32f4xx_cryp.c ****   * @{
 404:../Libraries/STM32F4xx_StdPeriph_Driver/src/stm32f4xx_cryp.c ****   */
 405:../Libraries/STM32F4xx_StdPeriph_Driver/src/stm32f4xx_cryp.c **** 
 406:../Libraries/STM32F4xx_StdPeriph_Driver/src/stm32f4xx_cryp.c **** /**
 407:../Libraries/STM32F4xx_StdPeriph_Driver/src/stm32f4xx_cryp.c ****   * @brief  Writes data in the Data Input register (DIN).
 408:../Libraries/STM32F4xx_StdPeriph_Driver/src/stm32f4xx_cryp.c ****   * @note   After the DIN register has been read once or several times, 
 409:../Libraries/STM32F4xx_StdPeriph_Driver/src/stm32f4xx_cryp.c ****   *         the FIFO must be flushed (using CRYP_FIFOFlush() function).  
 410:../Libraries/STM32F4xx_StdPeriph_Driver/src/stm32f4xx_cryp.c ****   * @param  Data: data to write in Data Input register
 411:../Libraries/STM32F4xx_StdPeriph_Driver/src/stm32f4xx_cryp.c ****   * @retval None
 412:../Libraries/STM32F4xx_StdPeriph_Driver/src/stm32f4xx_cryp.c ****   */
 413:../Libraries/STM32F4xx_StdPeriph_Driver/src/stm32f4xx_cryp.c **** void CRYP_DataIn(uint32_t Data)
 414:../Libraries/STM32F4xx_StdPeriph_Driver/src/stm32f4xx_cryp.c **** {
 677              		.loc 1 414 1 is_stmt 1 view -0
 678              		.cfi_startproc
 679              		@ args = 0, pretend = 0, frame = 0
 680              		@ frame_needed = 0, uses_anonymous_args = 0
 681              		@ link register save eliminated.
 415:../Libraries/STM32F4xx_StdPeriph_Driver/src/stm32f4xx_cryp.c ****   CRYP->DR = Data;
 682              		.loc 1 415 3 view .LVU141
 683              	@ ../Libraries/STM32F4xx_StdPeriph_Driver/src/stm32f4xx_cryp.c:415:   CRYP->DR = Data;
 684              		.loc 1 415 12 is_stmt 0 view .LVU142
 685 0000 014B     		ldr	r3, .L34	@ tmp114,
 686 0002 9860     		str	r0, [r3, #8]	@ Data, MEM[(struct CRYP_TypeDef *)1342570496B].DR
 687              	@ ../Libraries/STM32F4xx_StdPeriph_Driver/src/stm32f4xx_cryp.c:416: }
 416:../Libraries/STM32F4xx_StdPeriph_Driver/src/stm32f4xx_cryp.c **** }
 688              		.loc 1 416 1 view .LVU143
 689 0004 7047     		bx	lr	@
 690              	.L35:
 691 0006 00BF     		.align	2
 692              	.L34:
 693 0008 00000650 		.word	1342570496
ARM GAS  C:\Users\admin\AppData\Local\Temp\ccdBMIKa.s 			page 21


 694              		.cfi_endproc
 695              	.LFE119:
 696              		.size	CRYP_DataIn, .-CRYP_DataIn
 697              		.section	.text.CRYP_DataOut,"ax",%progbits
 698              		.align	1
 699              		.p2align 2,,3
 700              		.global	CRYP_DataOut
 701              		.syntax unified
 702              		.thumb
 703              		.thumb_func
 704              		.type	CRYP_DataOut, %function
 705              	CRYP_DataOut:
 706              	.LFB120:
 417:../Libraries/STM32F4xx_StdPeriph_Driver/src/stm32f4xx_cryp.c **** 
 418:../Libraries/STM32F4xx_StdPeriph_Driver/src/stm32f4xx_cryp.c **** /**
 419:../Libraries/STM32F4xx_StdPeriph_Driver/src/stm32f4xx_cryp.c ****   * @brief  Returns the last data entered into the output FIFO.
 420:../Libraries/STM32F4xx_StdPeriph_Driver/src/stm32f4xx_cryp.c ****   * @param  None
 421:../Libraries/STM32F4xx_StdPeriph_Driver/src/stm32f4xx_cryp.c ****   * @retval Last data entered into the output FIFO.
 422:../Libraries/STM32F4xx_StdPeriph_Driver/src/stm32f4xx_cryp.c ****   */
 423:../Libraries/STM32F4xx_StdPeriph_Driver/src/stm32f4xx_cryp.c **** uint32_t CRYP_DataOut(void)
 424:../Libraries/STM32F4xx_StdPeriph_Driver/src/stm32f4xx_cryp.c **** {
 707              		.loc 1 424 1 is_stmt 1 view -0
 708              		.cfi_startproc
 709              		@ args = 0, pretend = 0, frame = 0
 710              		@ frame_needed = 0, uses_anonymous_args = 0
 711              		@ link register save eliminated.
 425:../Libraries/STM32F4xx_StdPeriph_Driver/src/stm32f4xx_cryp.c ****   return CRYP->DOUT;
 712              		.loc 1 425 3 view .LVU145
 713              	@ ../Libraries/STM32F4xx_StdPeriph_Driver/src/stm32f4xx_cryp.c:425:   return CRYP->DOUT;
 714              		.loc 1 425 14 is_stmt 0 view .LVU146
 715 0000 014B     		ldr	r3, .L37	@ tmp114,
 716 0002 D868     		ldr	r0, [r3, #12]	@ <retval>, MEM[(struct CRYP_TypeDef *)1342570496B].DOUT
 717              	@ ../Libraries/STM32F4xx_StdPeriph_Driver/src/stm32f4xx_cryp.c:426: }
 426:../Libraries/STM32F4xx_StdPeriph_Driver/src/stm32f4xx_cryp.c **** }
 718              		.loc 1 426 1 view .LVU147
 719 0004 7047     		bx	lr	@
 720              	.L38:
 721 0006 00BF     		.align	2
 722              	.L37:
 723 0008 00000650 		.word	1342570496
 724              		.cfi_endproc
 725              	.LFE120:
 726              		.size	CRYP_DataOut, .-CRYP_DataOut
 727              		.section	.text.CRYP_SaveContext,"ax",%progbits
 728              		.align	1
 729              		.p2align 2,,3
 730              		.global	CRYP_SaveContext
 731              		.syntax unified
 732              		.thumb
 733              		.thumb_func
 734              		.type	CRYP_SaveContext, %function
 735              	CRYP_SaveContext:
 736              	.LVL18:
 737              	.LFB121:
 427:../Libraries/STM32F4xx_StdPeriph_Driver/src/stm32f4xx_cryp.c **** /**
 428:../Libraries/STM32F4xx_StdPeriph_Driver/src/stm32f4xx_cryp.c ****   * @}
 429:../Libraries/STM32F4xx_StdPeriph_Driver/src/stm32f4xx_cryp.c ****   */
ARM GAS  C:\Users\admin\AppData\Local\Temp\ccdBMIKa.s 			page 22


 430:../Libraries/STM32F4xx_StdPeriph_Driver/src/stm32f4xx_cryp.c ****   
 431:../Libraries/STM32F4xx_StdPeriph_Driver/src/stm32f4xx_cryp.c **** /** @defgroup CRYP_Group3 Context swapping functions
 432:../Libraries/STM32F4xx_StdPeriph_Driver/src/stm32f4xx_cryp.c ****  *  @brief   Context swapping functions
 433:../Libraries/STM32F4xx_StdPeriph_Driver/src/stm32f4xx_cryp.c ****  *
 434:../Libraries/STM32F4xx_StdPeriph_Driver/src/stm32f4xx_cryp.c **** @verbatim   
 435:../Libraries/STM32F4xx_StdPeriph_Driver/src/stm32f4xx_cryp.c ****  ===============================================================================
 436:../Libraries/STM32F4xx_StdPeriph_Driver/src/stm32f4xx_cryp.c ****                              Context swapping functions
 437:../Libraries/STM32F4xx_StdPeriph_Driver/src/stm32f4xx_cryp.c ****  ===============================================================================  
 438:../Libraries/STM32F4xx_StdPeriph_Driver/src/stm32f4xx_cryp.c **** 
 439:../Libraries/STM32F4xx_StdPeriph_Driver/src/stm32f4xx_cryp.c ****   This section provides functions allowing to save and store CRYP Context
 440:../Libraries/STM32F4xx_StdPeriph_Driver/src/stm32f4xx_cryp.c **** 
 441:../Libraries/STM32F4xx_StdPeriph_Driver/src/stm32f4xx_cryp.c ****   It is possible to interrupt an encryption/ decryption/ key generation process 
 442:../Libraries/STM32F4xx_StdPeriph_Driver/src/stm32f4xx_cryp.c ****   to perform another processing with a higher priority, and to complete the 
 443:../Libraries/STM32F4xx_StdPeriph_Driver/src/stm32f4xx_cryp.c ****   interrupted process later on, when the higher-priority task is complete. To do 
 444:../Libraries/STM32F4xx_StdPeriph_Driver/src/stm32f4xx_cryp.c ****   so, the context of the interrupted task must be saved from the CRYP registers 
 445:../Libraries/STM32F4xx_StdPeriph_Driver/src/stm32f4xx_cryp.c ****   to memory, and then be restored from memory to the CRYP registers.
 446:../Libraries/STM32F4xx_StdPeriph_Driver/src/stm32f4xx_cryp.c ****    
 447:../Libraries/STM32F4xx_StdPeriph_Driver/src/stm32f4xx_cryp.c ****   1. To save the current context, use CRYP_SaveContext() function
 448:../Libraries/STM32F4xx_StdPeriph_Driver/src/stm32f4xx_cryp.c ****   2. To restore the saved context, use CRYP_RestoreContext() function 
 449:../Libraries/STM32F4xx_StdPeriph_Driver/src/stm32f4xx_cryp.c **** 
 450:../Libraries/STM32F4xx_StdPeriph_Driver/src/stm32f4xx_cryp.c **** 
 451:../Libraries/STM32F4xx_StdPeriph_Driver/src/stm32f4xx_cryp.c **** @endverbatim
 452:../Libraries/STM32F4xx_StdPeriph_Driver/src/stm32f4xx_cryp.c ****   * @{
 453:../Libraries/STM32F4xx_StdPeriph_Driver/src/stm32f4xx_cryp.c ****   */
 454:../Libraries/STM32F4xx_StdPeriph_Driver/src/stm32f4xx_cryp.c ****   
 455:../Libraries/STM32F4xx_StdPeriph_Driver/src/stm32f4xx_cryp.c **** /**
 456:../Libraries/STM32F4xx_StdPeriph_Driver/src/stm32f4xx_cryp.c ****   * @brief  Saves the CRYP peripheral Context. 
 457:../Libraries/STM32F4xx_StdPeriph_Driver/src/stm32f4xx_cryp.c ****   * @note   This function stops DMA transfer before to save the context. After 
 458:../Libraries/STM32F4xx_StdPeriph_Driver/src/stm32f4xx_cryp.c ****   *         restoring the context, you have to enable the DMA again (if the DMA
 459:../Libraries/STM32F4xx_StdPeriph_Driver/src/stm32f4xx_cryp.c ****   *         was previously used).
 460:../Libraries/STM32F4xx_StdPeriph_Driver/src/stm32f4xx_cryp.c ****   * @param  CRYP_ContextSave: pointer to a CRYP_Context structure that contains
 461:../Libraries/STM32F4xx_StdPeriph_Driver/src/stm32f4xx_cryp.c ****   *         the repository for current context.
 462:../Libraries/STM32F4xx_StdPeriph_Driver/src/stm32f4xx_cryp.c ****   * @param  CRYP_KeyInitStruct: pointer to a CRYP_KeyInitTypeDef structure that 
 463:../Libraries/STM32F4xx_StdPeriph_Driver/src/stm32f4xx_cryp.c ****   *         contains the configuration information for the CRYP Keys.  
 464:../Libraries/STM32F4xx_StdPeriph_Driver/src/stm32f4xx_cryp.c ****   * @retval None
 465:../Libraries/STM32F4xx_StdPeriph_Driver/src/stm32f4xx_cryp.c ****   */
 466:../Libraries/STM32F4xx_StdPeriph_Driver/src/stm32f4xx_cryp.c **** ErrorStatus CRYP_SaveContext(CRYP_Context* CRYP_ContextSave,
 467:../Libraries/STM32F4xx_StdPeriph_Driver/src/stm32f4xx_cryp.c ****                              CRYP_KeyInitTypeDef* CRYP_KeyInitStruct)
 468:../Libraries/STM32F4xx_StdPeriph_Driver/src/stm32f4xx_cryp.c **** {
 738              		.loc 1 468 1 is_stmt 1 view -0
 739              		.cfi_startproc
 740              		@ args = 0, pretend = 0, frame = 8
 741              		@ frame_needed = 0, uses_anonymous_args = 0
 469:../Libraries/STM32F4xx_StdPeriph_Driver/src/stm32f4xx_cryp.c ****   __IO uint32_t timeout = 0;
 742              		.loc 1 469 3 view .LVU149
 743              	@ ../Libraries/STM32F4xx_StdPeriph_Driver/src/stm32f4xx_cryp.c:468: {
 468:../Libraries/STM32F4xx_StdPeriph_Driver/src/stm32f4xx_cryp.c ****   __IO uint32_t timeout = 0;
 744              		.loc 1 468 1 is_stmt 0 view .LVU150
 745 0000 30B5     		push	{r4, r5, lr}	@
 746              		.cfi_def_cfa_offset 12
 747              		.cfi_offset 4, -12
 748              		.cfi_offset 5, -8
 749              		.cfi_offset 14, -4
 750 0002 83B0     		sub	sp, sp, #12	@,,
 751              		.cfi_def_cfa_offset 24
 752              	@ ../Libraries/STM32F4xx_StdPeriph_Driver/src/stm32f4xx_cryp.c:474:   CRYP->DMACR &= ~(uint32_t)CRY
 470:../Libraries/STM32F4xx_StdPeriph_Driver/src/stm32f4xx_cryp.c ****   uint32_t ckeckmask = 0, bitstatus;    
ARM GAS  C:\Users\admin\AppData\Local\Temp\ccdBMIKa.s 			page 23


 471:../Libraries/STM32F4xx_StdPeriph_Driver/src/stm32f4xx_cryp.c ****   ErrorStatus status = ERROR;
 472:../Libraries/STM32F4xx_StdPeriph_Driver/src/stm32f4xx_cryp.c **** 
 473:../Libraries/STM32F4xx_StdPeriph_Driver/src/stm32f4xx_cryp.c ****   /* Stop DMA transfers on the IN FIFO by clearing the DIEN bit in the CRYP_DMACR */
 474:../Libraries/STM32F4xx_StdPeriph_Driver/src/stm32f4xx_cryp.c ****   CRYP->DMACR &= ~(uint32_t)CRYP_DMACR_DIEN;
 753              		.loc 1 474 15 view .LVU151
 754 0004 264C     		ldr	r4, .L50	@ tmp147,
 755              	@ ../Libraries/STM32F4xx_StdPeriph_Driver/src/stm32f4xx_cryp.c:469:   __IO uint32_t timeout = 0;
 469:../Libraries/STM32F4xx_StdPeriph_Driver/src/stm32f4xx_cryp.c ****   uint32_t ckeckmask = 0, bitstatus;    
 756              		.loc 1 469 17 view .LVU152
 757 0006 0023     		movs	r3, #0	@ tmp146,
 758 0008 0193     		str	r3, [sp, #4]	@ tmp146, timeout
 470:../Libraries/STM32F4xx_StdPeriph_Driver/src/stm32f4xx_cryp.c ****   uint32_t ckeckmask = 0, bitstatus;    
 759              		.loc 1 470 3 is_stmt 1 view .LVU153
 760              	.LVL19:
 471:../Libraries/STM32F4xx_StdPeriph_Driver/src/stm32f4xx_cryp.c **** 
 761              		.loc 1 471 3 view .LVU154
 762              		.loc 1 474 3 view .LVU155
 763              	@ ../Libraries/STM32F4xx_StdPeriph_Driver/src/stm32f4xx_cryp.c:474:   CRYP->DMACR &= ~(uint32_t)CRY
 764              		.loc 1 474 15 is_stmt 0 view .LVU156
 765 000a 2369     		ldr	r3, [r4, #16]	@ _1, MEM[(struct CRYP_TypeDef *)1342570496B].DMACR
 766 000c 23F00103 		bic	r3, r3, #1	@ _2, _1,
 767 0010 2361     		str	r3, [r4, #16]	@ _2, MEM[(struct CRYP_TypeDef *)1342570496B].DMACR
 475:../Libraries/STM32F4xx_StdPeriph_Driver/src/stm32f4xx_cryp.c ****     
 476:../Libraries/STM32F4xx_StdPeriph_Driver/src/stm32f4xx_cryp.c ****   /* Wait until both the IN and OUT FIFOs are empty  
 477:../Libraries/STM32F4xx_StdPeriph_Driver/src/stm32f4xx_cryp.c ****     (IFEM=1 and OFNE=0 in the CRYP_SR register) and the 
 478:../Libraries/STM32F4xx_StdPeriph_Driver/src/stm32f4xx_cryp.c ****      BUSY bit is cleared. */
 479:../Libraries/STM32F4xx_StdPeriph_Driver/src/stm32f4xx_cryp.c **** 
 480:../Libraries/STM32F4xx_StdPeriph_Driver/src/stm32f4xx_cryp.c ****   if ((CRYP->CR & (uint32_t)(CRYP_CR_ALGOMODE_TDES_ECB | CRYP_CR_ALGOMODE_TDES_CBC)) != (uint32_t)0
 768              		.loc 1 480 3 is_stmt 1 view .LVU157
 769              	@ ../Libraries/STM32F4xx_StdPeriph_Driver/src/stm32f4xx_cryp.c:480:   if ((CRYP->CR & (uint32_t)(CR
 770              		.loc 1 480 12 is_stmt 0 view .LVU158
 771 0012 2368     		ldr	r3, [r4]	@ _3, MEM[(struct CRYP_TypeDef *)1342570496B].CR
 772              	@ ../Libraries/STM32F4xx_StdPeriph_Driver/src/stm32f4xx_cryp.c:486:     ckeckmask =  CRYP_SR_IFEM |
 481:../Libraries/STM32F4xx_StdPeriph_Driver/src/stm32f4xx_cryp.c ****   { 
 482:../Libraries/STM32F4xx_StdPeriph_Driver/src/stm32f4xx_cryp.c ****     ckeckmask =  CRYP_SR_IFEM | CRYP_SR_BUSY ;
 483:../Libraries/STM32F4xx_StdPeriph_Driver/src/stm32f4xx_cryp.c ****   }
 484:../Libraries/STM32F4xx_StdPeriph_Driver/src/stm32f4xx_cryp.c ****   else /* AES or DES */
 485:../Libraries/STM32F4xx_StdPeriph_Driver/src/stm32f4xx_cryp.c ****   {
 486:../Libraries/STM32F4xx_StdPeriph_Driver/src/stm32f4xx_cryp.c ****     ckeckmask =  CRYP_SR_IFEM | CRYP_SR_BUSY | CRYP_SR_OFNE;
 773              		.loc 1 486 15 view .LVU159
 774 0014 13F0080F 		tst	r3, #8	@ _3,
 775              	@ ../Libraries/STM32F4xx_StdPeriph_Driver/src/stm32f4xx_cryp.c:468: {
 468:../Libraries/STM32F4xx_StdPeriph_Driver/src/stm32f4xx_cryp.c ****   __IO uint32_t timeout = 0;
 776              		.loc 1 468 1 view .LVU160
 777 0018 0546     		mov	r5, r0	@ CRYP_ContextSave, tmp174
 778              	@ ../Libraries/STM32F4xx_StdPeriph_Driver/src/stm32f4xx_cryp.c:486:     ckeckmask =  CRYP_SR_IFEM |
 779              		.loc 1 486 15 view .LVU161
 780 001a 14BF     		ite	ne
 781 001c 4FF0110C 		movne	ip, #17	@ ckeckmask,
 782 0020 4FF0150C 		moveq	ip, #21	@ ckeckmask,
 783              	.LVL20:
 784              	@ ../Libraries/STM32F4xx_StdPeriph_Driver/src/stm32f4xx_cryp.c:494:   while ((timeout != MAX_TIMEOU
 487:../Libraries/STM32F4xx_StdPeriph_Driver/src/stm32f4xx_cryp.c ****   }           
 488:../Libraries/STM32F4xx_StdPeriph_Driver/src/stm32f4xx_cryp.c ****    
 489:../Libraries/STM32F4xx_StdPeriph_Driver/src/stm32f4xx_cryp.c ****   do 
 490:../Libraries/STM32F4xx_StdPeriph_Driver/src/stm32f4xx_cryp.c ****   {
 491:../Libraries/STM32F4xx_StdPeriph_Driver/src/stm32f4xx_cryp.c ****     bitstatus = CRYP->SR & ckeckmask;
ARM GAS  C:\Users\admin\AppData\Local\Temp\ccdBMIKa.s 			page 24


 492:../Libraries/STM32F4xx_StdPeriph_Driver/src/stm32f4xx_cryp.c ****     timeout++;
 493:../Libraries/STM32F4xx_StdPeriph_Driver/src/stm32f4xx_cryp.c ****   }
 494:../Libraries/STM32F4xx_StdPeriph_Driver/src/stm32f4xx_cryp.c ****   while ((timeout != MAX_TIMEOUT) && (bitstatus != CRYP_SR_IFEM));
 785              		.loc 1 494 3 view .LVU162
 786 0024 4FF6FF7E 		movw	lr, #65535	@ tmp152,
 787 0028 01E0     		b	.L42		@
 788              	.LVL21:
 789              	.L48:
 790              	@ ../Libraries/STM32F4xx_StdPeriph_Driver/src/stm32f4xx_cryp.c:494:   while ((timeout != MAX_TIMEOU
 791              		.loc 1 494 35 discriminator 1 view .LVU163
 792 002a 012A     		cmp	r2, #1	@ bitstatus,
 793 002c 08D0     		beq	.L41		@,
 794              	.LVL22:
 795              	.L42:
 489:../Libraries/STM32F4xx_StdPeriph_Driver/src/stm32f4xx_cryp.c ****   {
 796              		.loc 1 489 3 is_stmt 1 discriminator 2 view .LVU164
 491:../Libraries/STM32F4xx_StdPeriph_Driver/src/stm32f4xx_cryp.c ****     timeout++;
 797              		.loc 1 491 5 discriminator 2 view .LVU165
 798              	@ ../Libraries/STM32F4xx_StdPeriph_Driver/src/stm32f4xx_cryp.c:491:     bitstatus = CRYP->SR & ckec
 491:../Libraries/STM32F4xx_StdPeriph_Driver/src/stm32f4xx_cryp.c ****     timeout++;
 799              		.loc 1 491 21 is_stmt 0 discriminator 2 view .LVU166
 800 002e 6268     		ldr	r2, [r4, #4]	@ _5, MEM[(struct CRYP_TypeDef *)1342570496B].SR
 801              	@ ../Libraries/STM32F4xx_StdPeriph_Driver/src/stm32f4xx_cryp.c:492:     timeout++;
 492:../Libraries/STM32F4xx_StdPeriph_Driver/src/stm32f4xx_cryp.c ****   }
 802              		.loc 1 492 12 discriminator 2 view .LVU167
 803 0030 019B     		ldr	r3, [sp, #4]	@ timeout.4_6, timeout
 804 0032 0133     		adds	r3, r3, #1	@ _7, timeout.4_6,
 805 0034 0193     		str	r3, [sp, #4]	@ _7, timeout
 806              	@ ../Libraries/STM32F4xx_StdPeriph_Driver/src/stm32f4xx_cryp.c:494:   while ((timeout != MAX_TIMEOU
 807              		.loc 1 494 19 discriminator 2 view .LVU168
 808 0036 019B     		ldr	r3, [sp, #4]	@ timeout.5_8, timeout
 809              	@ ../Libraries/STM32F4xx_StdPeriph_Driver/src/stm32f4xx_cryp.c:494:   while ((timeout != MAX_TIMEOU
 810              		.loc 1 494 3 discriminator 2 view .LVU169
 811 0038 7345     		cmp	r3, lr	@ timeout.5_8, tmp152
 812              	@ ../Libraries/STM32F4xx_StdPeriph_Driver/src/stm32f4xx_cryp.c:491:     bitstatus = CRYP->SR & ckec
 491:../Libraries/STM32F4xx_StdPeriph_Driver/src/stm32f4xx_cryp.c ****     timeout++;
 813              		.loc 1 491 15 discriminator 2 view .LVU170
 814 003a 02EA0C02 		and	r2, r2, ip	@ bitstatus, _5, ckeckmask
 815              	.LVL23:
 492:../Libraries/STM32F4xx_StdPeriph_Driver/src/stm32f4xx_cryp.c ****   }
 816              		.loc 1 492 5 is_stmt 1 discriminator 2 view .LVU171
 817              		.loc 1 494 9 discriminator 2 view .LVU172
 818              	@ ../Libraries/STM32F4xx_StdPeriph_Driver/src/stm32f4xx_cryp.c:494:   while ((timeout != MAX_TIMEOU
 819              		.loc 1 494 3 is_stmt 0 discriminator 2 view .LVU173
 820 003e F4D1     		bne	.L48		@,
 821              	.L41:
 495:../Libraries/STM32F4xx_StdPeriph_Driver/src/stm32f4xx_cryp.c ****      
 496:../Libraries/STM32F4xx_StdPeriph_Driver/src/stm32f4xx_cryp.c ****   if ((CRYP->SR & ckeckmask) != CRYP_SR_IFEM)
 822              		.loc 1 496 3 is_stmt 1 view .LVU174
 823              	@ ../Libraries/STM32F4xx_StdPeriph_Driver/src/stm32f4xx_cryp.c:496:   if ((CRYP->SR & ckeckmask) !=
 824              		.loc 1 496 12 is_stmt 0 view .LVU175
 825 0040 174B     		ldr	r3, .L50	@ tmp153,
 826 0042 5868     		ldr	r0, [r3, #4]	@ _9, MEM[(struct CRYP_TypeDef *)1342570496B].SR
 827              	.LVL24:
 828              	@ ../Libraries/STM32F4xx_StdPeriph_Driver/src/stm32f4xx_cryp.c:496:   if ((CRYP->SR & ckeckmask) !=
 829              		.loc 1 496 17 view .LVU176
 830 0044 00EA0C00 		and	r0, r0, ip	@ tmp154, _9, ckeckmask
ARM GAS  C:\Users\admin\AppData\Local\Temp\ccdBMIKa.s 			page 25


 831              	@ ../Libraries/STM32F4xx_StdPeriph_Driver/src/stm32f4xx_cryp.c:496:   if ((CRYP->SR & ckeckmask) !=
 832              		.loc 1 496 6 view .LVU177
 833 0048 0128     		cmp	r0, #1	@ tmp154,
 834 004a 02D0     		beq	.L49		@,
 835              	@ ../Libraries/STM32F4xx_StdPeriph_Driver/src/stm32f4xx_cryp.c:498:     status = ERROR;
 497:../Libraries/STM32F4xx_StdPeriph_Driver/src/stm32f4xx_cryp.c ****   {
 498:../Libraries/STM32F4xx_StdPeriph_Driver/src/stm32f4xx_cryp.c ****     status = ERROR;
 836              		.loc 1 498 12 view .LVU178
 837 004c 0020     		movs	r0, #0	@ <retval>,
 838              	.LVL25:
 499:../Libraries/STM32F4xx_StdPeriph_Driver/src/stm32f4xx_cryp.c ****   }
 500:../Libraries/STM32F4xx_StdPeriph_Driver/src/stm32f4xx_cryp.c ****   else
 501:../Libraries/STM32F4xx_StdPeriph_Driver/src/stm32f4xx_cryp.c ****   {      
 502:../Libraries/STM32F4xx_StdPeriph_Driver/src/stm32f4xx_cryp.c ****     /* Stop DMA transfers on the OUT FIFO by 
 503:../Libraries/STM32F4xx_StdPeriph_Driver/src/stm32f4xx_cryp.c ****        - writing the DOEN bit to 0 in the CRYP_DMACR register 
 504:../Libraries/STM32F4xx_StdPeriph_Driver/src/stm32f4xx_cryp.c ****        - and clear the CRYPEN bit. */
 505:../Libraries/STM32F4xx_StdPeriph_Driver/src/stm32f4xx_cryp.c **** 
 506:../Libraries/STM32F4xx_StdPeriph_Driver/src/stm32f4xx_cryp.c ****     CRYP->DMACR &= ~(uint32_t)CRYP_DMACR_DOEN;
 507:../Libraries/STM32F4xx_StdPeriph_Driver/src/stm32f4xx_cryp.c ****     CRYP->CR &= ~(uint32_t)CRYP_CR_CRYPEN;
 508:../Libraries/STM32F4xx_StdPeriph_Driver/src/stm32f4xx_cryp.c **** 
 509:../Libraries/STM32F4xx_StdPeriph_Driver/src/stm32f4xx_cryp.c ****     /* Save the current configuration (bits [9:2] in the CRYP_CR register) */
 510:../Libraries/STM32F4xx_StdPeriph_Driver/src/stm32f4xx_cryp.c ****     CRYP_ContextSave->CR_bits9to2  = CRYP->CR & (CRYP_CR_KEYSIZE  | 
 511:../Libraries/STM32F4xx_StdPeriph_Driver/src/stm32f4xx_cryp.c ****                                                  CRYP_CR_DATATYPE | 
 512:../Libraries/STM32F4xx_StdPeriph_Driver/src/stm32f4xx_cryp.c ****                                                  CRYP_CR_ALGOMODE |
 513:../Libraries/STM32F4xx_StdPeriph_Driver/src/stm32f4xx_cryp.c ****                                                  CRYP_CR_ALGODIR); 
 514:../Libraries/STM32F4xx_StdPeriph_Driver/src/stm32f4xx_cryp.c **** 
 515:../Libraries/STM32F4xx_StdPeriph_Driver/src/stm32f4xx_cryp.c ****     /* and, if not in ECB mode, the initialization vectors. */
 516:../Libraries/STM32F4xx_StdPeriph_Driver/src/stm32f4xx_cryp.c ****     CRYP_ContextSave->CRYP_IV0LR = CRYP->IV0LR;
 517:../Libraries/STM32F4xx_StdPeriph_Driver/src/stm32f4xx_cryp.c ****     CRYP_ContextSave->CRYP_IV0RR = CRYP->IV0RR;
 518:../Libraries/STM32F4xx_StdPeriph_Driver/src/stm32f4xx_cryp.c ****     CRYP_ContextSave->CRYP_IV1LR = CRYP->IV1LR;
 519:../Libraries/STM32F4xx_StdPeriph_Driver/src/stm32f4xx_cryp.c ****     CRYP_ContextSave->CRYP_IV1RR = CRYP->IV1RR;
 520:../Libraries/STM32F4xx_StdPeriph_Driver/src/stm32f4xx_cryp.c **** 
 521:../Libraries/STM32F4xx_StdPeriph_Driver/src/stm32f4xx_cryp.c ****     /* save The key value */
 522:../Libraries/STM32F4xx_StdPeriph_Driver/src/stm32f4xx_cryp.c ****     CRYP_ContextSave->CRYP_K0LR = CRYP_KeyInitStruct->CRYP_Key0Left; 
 523:../Libraries/STM32F4xx_StdPeriph_Driver/src/stm32f4xx_cryp.c ****     CRYP_ContextSave->CRYP_K0RR = CRYP_KeyInitStruct->CRYP_Key0Right; 
 524:../Libraries/STM32F4xx_StdPeriph_Driver/src/stm32f4xx_cryp.c ****     CRYP_ContextSave->CRYP_K1LR = CRYP_KeyInitStruct->CRYP_Key1Left; 
 525:../Libraries/STM32F4xx_StdPeriph_Driver/src/stm32f4xx_cryp.c ****     CRYP_ContextSave->CRYP_K1RR = CRYP_KeyInitStruct->CRYP_Key1Right; 
 526:../Libraries/STM32F4xx_StdPeriph_Driver/src/stm32f4xx_cryp.c ****     CRYP_ContextSave->CRYP_K2LR = CRYP_KeyInitStruct->CRYP_Key2Left; 
 527:../Libraries/STM32F4xx_StdPeriph_Driver/src/stm32f4xx_cryp.c ****     CRYP_ContextSave->CRYP_K2RR = CRYP_KeyInitStruct->CRYP_Key2Right; 
 528:../Libraries/STM32F4xx_StdPeriph_Driver/src/stm32f4xx_cryp.c ****     CRYP_ContextSave->CRYP_K3LR = CRYP_KeyInitStruct->CRYP_Key3Left; 
 529:../Libraries/STM32F4xx_StdPeriph_Driver/src/stm32f4xx_cryp.c ****     CRYP_ContextSave->CRYP_K3RR = CRYP_KeyInitStruct->CRYP_Key3Right; 
 530:../Libraries/STM32F4xx_StdPeriph_Driver/src/stm32f4xx_cryp.c **** 
 531:../Libraries/STM32F4xx_StdPeriph_Driver/src/stm32f4xx_cryp.c ****    /* When needed, save the DMA status (pointers for IN and OUT messages, 
 532:../Libraries/STM32F4xx_StdPeriph_Driver/src/stm32f4xx_cryp.c ****       number of remaining bytes, etc.) */
 533:../Libraries/STM32F4xx_StdPeriph_Driver/src/stm32f4xx_cryp.c ****      
 534:../Libraries/STM32F4xx_StdPeriph_Driver/src/stm32f4xx_cryp.c ****     status = SUCCESS;
 535:../Libraries/STM32F4xx_StdPeriph_Driver/src/stm32f4xx_cryp.c ****   }
 536:../Libraries/STM32F4xx_StdPeriph_Driver/src/stm32f4xx_cryp.c **** 
 537:../Libraries/STM32F4xx_StdPeriph_Driver/src/stm32f4xx_cryp.c ****    return status;
 839              		.loc 1 537 4 is_stmt 1 view .LVU179
 840              	@ ../Libraries/STM32F4xx_StdPeriph_Driver/src/stm32f4xx_cryp.c:538: }
 538:../Libraries/STM32F4xx_StdPeriph_Driver/src/stm32f4xx_cryp.c **** }
 841              		.loc 1 538 1 is_stmt 0 view .LVU180
 842 004e 03B0     		add	sp, sp, #12	@,,
 843              		.cfi_remember_state
 844              		.cfi_def_cfa_offset 12
 845              		@ sp needed	@
ARM GAS  C:\Users\admin\AppData\Local\Temp\ccdBMIKa.s 			page 26


 846 0050 30BD     		pop	{r4, r5, pc}	@
 847              	.LVL26:
 848              	.L49:
 849              		.cfi_restore_state
 506:../Libraries/STM32F4xx_StdPeriph_Driver/src/stm32f4xx_cryp.c ****     CRYP->CR &= ~(uint32_t)CRYP_CR_CRYPEN;
 850              		.loc 1 506 5 is_stmt 1 view .LVU181
 851              	@ ../Libraries/STM32F4xx_StdPeriph_Driver/src/stm32f4xx_cryp.c:506:     CRYP->DMACR &= ~(uint32_t)C
 506:../Libraries/STM32F4xx_StdPeriph_Driver/src/stm32f4xx_cryp.c ****     CRYP->CR &= ~(uint32_t)CRYP_CR_CRYPEN;
 852              		.loc 1 506 17 is_stmt 0 view .LVU182
 853 0052 1A69     		ldr	r2, [r3, #16]	@ _11, MEM[(struct CRYP_TypeDef *)1342570496B].DMACR
 854              	.LVL27:
 506:../Libraries/STM32F4xx_StdPeriph_Driver/src/stm32f4xx_cryp.c ****     CRYP->CR &= ~(uint32_t)CRYP_CR_CRYPEN;
 855              		.loc 1 506 17 view .LVU183
 856 0054 22F00202 		bic	r2, r2, #2	@ _12, _11,
 857 0058 1A61     		str	r2, [r3, #16]	@ _12, MEM[(struct CRYP_TypeDef *)1342570496B].DMACR
 507:../Libraries/STM32F4xx_StdPeriph_Driver/src/stm32f4xx_cryp.c **** 
 858              		.loc 1 507 5 is_stmt 1 view .LVU184
 859              	@ ../Libraries/STM32F4xx_StdPeriph_Driver/src/stm32f4xx_cryp.c:507:     CRYP->CR &= ~(uint32_t)CRYP
 507:../Libraries/STM32F4xx_StdPeriph_Driver/src/stm32f4xx_cryp.c **** 
 860              		.loc 1 507 14 is_stmt 0 view .LVU185
 861 005a 1A68     		ldr	r2, [r3]	@ _13, MEM[(struct CRYP_TypeDef *)1342570496B].CR
 862 005c 22F40042 		bic	r2, r2, #32768	@ _14, _13,
 863 0060 1A60     		str	r2, [r3]	@ _14, MEM[(struct CRYP_TypeDef *)1342570496B].CR
 510:../Libraries/STM32F4xx_StdPeriph_Driver/src/stm32f4xx_cryp.c ****                                                  CRYP_CR_DATATYPE | 
 864              		.loc 1 510 5 is_stmt 1 view .LVU186
 865              	@ ../Libraries/STM32F4xx_StdPeriph_Driver/src/stm32f4xx_cryp.c:510:     CRYP_ContextSave->CR_bits9t
 510:../Libraries/STM32F4xx_StdPeriph_Driver/src/stm32f4xx_cryp.c ****                                                  CRYP_CR_DATATYPE | 
 866              		.loc 1 510 42 is_stmt 0 view .LVU187
 867 0062 1A68     		ldr	r2, [r3]	@ _15, MEM[(struct CRYP_TypeDef *)1342570496B].CR
 868              	@ ../Libraries/STM32F4xx_StdPeriph_Driver/src/stm32f4xx_cryp.c:510:     CRYP_ContextSave->CR_bits9t
 510:../Libraries/STM32F4xx_StdPeriph_Driver/src/stm32f4xx_cryp.c ****                                                  CRYP_CR_DATATYPE | 
 869              		.loc 1 510 47 view .LVU188
 870 0064 02F47F72 		and	r2, r2, #1020	@ tmp160, _15,
 871              	@ ../Libraries/STM32F4xx_StdPeriph_Driver/src/stm32f4xx_cryp.c:510:     CRYP_ContextSave->CR_bits9t
 510:../Libraries/STM32F4xx_StdPeriph_Driver/src/stm32f4xx_cryp.c ****                                                  CRYP_CR_DATATYPE | 
 872              		.loc 1 510 36 view .LVU189
 873 0068 2A60     		str	r2, [r5]	@ tmp160, CRYP_ContextSave_39(D)->CR_bits9to2
 516:../Libraries/STM32F4xx_StdPeriph_Driver/src/stm32f4xx_cryp.c ****     CRYP_ContextSave->CRYP_IV0RR = CRYP->IV0RR;
 874              		.loc 1 516 5 is_stmt 1 view .LVU190
 875              	@ ../Libraries/STM32F4xx_StdPeriph_Driver/src/stm32f4xx_cryp.c:516:     CRYP_ContextSave->CRYP_IV0L
 516:../Libraries/STM32F4xx_StdPeriph_Driver/src/stm32f4xx_cryp.c ****     CRYP_ContextSave->CRYP_IV0RR = CRYP->IV0RR;
 876              		.loc 1 516 40 is_stmt 0 view .LVU191
 877 006a 1A6C     		ldr	r2, [r3, #64]	@ _17, MEM[(struct CRYP_TypeDef *)1342570496B].IV0LR
 878              	@ ../Libraries/STM32F4xx_StdPeriph_Driver/src/stm32f4xx_cryp.c:516:     CRYP_ContextSave->CRYP_IV0L
 516:../Libraries/STM32F4xx_StdPeriph_Driver/src/stm32f4xx_cryp.c ****     CRYP_ContextSave->CRYP_IV0RR = CRYP->IV0RR;
 879              		.loc 1 516 34 view .LVU192
 880 006c 6A60     		str	r2, [r5, #4]	@ _17, CRYP_ContextSave_39(D)->CRYP_IV0LR
 517:../Libraries/STM32F4xx_StdPeriph_Driver/src/stm32f4xx_cryp.c ****     CRYP_ContextSave->CRYP_IV1LR = CRYP->IV1LR;
 881              		.loc 1 517 5 is_stmt 1 view .LVU193
 882              	@ ../Libraries/STM32F4xx_StdPeriph_Driver/src/stm32f4xx_cryp.c:517:     CRYP_ContextSave->CRYP_IV0R
 517:../Libraries/STM32F4xx_StdPeriph_Driver/src/stm32f4xx_cryp.c ****     CRYP_ContextSave->CRYP_IV1LR = CRYP->IV1LR;
 883              		.loc 1 517 40 is_stmt 0 view .LVU194
 884 006e 5A6C     		ldr	r2, [r3, #68]	@ _18, MEM[(struct CRYP_TypeDef *)1342570496B].IV0RR
 885              	@ ../Libraries/STM32F4xx_StdPeriph_Driver/src/stm32f4xx_cryp.c:517:     CRYP_ContextSave->CRYP_IV0R
 517:../Libraries/STM32F4xx_StdPeriph_Driver/src/stm32f4xx_cryp.c ****     CRYP_ContextSave->CRYP_IV1LR = CRYP->IV1LR;
 886              		.loc 1 517 34 view .LVU195
 887 0070 AA60     		str	r2, [r5, #8]	@ _18, CRYP_ContextSave_39(D)->CRYP_IV0RR
ARM GAS  C:\Users\admin\AppData\Local\Temp\ccdBMIKa.s 			page 27


 518:../Libraries/STM32F4xx_StdPeriph_Driver/src/stm32f4xx_cryp.c ****     CRYP_ContextSave->CRYP_IV1RR = CRYP->IV1RR;
 888              		.loc 1 518 5 is_stmt 1 view .LVU196
 889              	@ ../Libraries/STM32F4xx_StdPeriph_Driver/src/stm32f4xx_cryp.c:518:     CRYP_ContextSave->CRYP_IV1L
 518:../Libraries/STM32F4xx_StdPeriph_Driver/src/stm32f4xx_cryp.c ****     CRYP_ContextSave->CRYP_IV1RR = CRYP->IV1RR;
 890              		.loc 1 518 40 is_stmt 0 view .LVU197
 891 0072 9A6C     		ldr	r2, [r3, #72]	@ _19, MEM[(struct CRYP_TypeDef *)1342570496B].IV1LR
 892              	@ ../Libraries/STM32F4xx_StdPeriph_Driver/src/stm32f4xx_cryp.c:518:     CRYP_ContextSave->CRYP_IV1L
 518:../Libraries/STM32F4xx_StdPeriph_Driver/src/stm32f4xx_cryp.c ****     CRYP_ContextSave->CRYP_IV1RR = CRYP->IV1RR;
 893              		.loc 1 518 34 view .LVU198
 894 0074 EA60     		str	r2, [r5, #12]	@ _19, CRYP_ContextSave_39(D)->CRYP_IV1LR
 519:../Libraries/STM32F4xx_StdPeriph_Driver/src/stm32f4xx_cryp.c **** 
 895              		.loc 1 519 5 is_stmt 1 view .LVU199
 896              	@ ../Libraries/STM32F4xx_StdPeriph_Driver/src/stm32f4xx_cryp.c:519:     CRYP_ContextSave->CRYP_IV1R
 519:../Libraries/STM32F4xx_StdPeriph_Driver/src/stm32f4xx_cryp.c **** 
 897              		.loc 1 519 40 is_stmt 0 view .LVU200
 898 0076 DA6C     		ldr	r2, [r3, #76]	@ _20, MEM[(struct CRYP_TypeDef *)1342570496B].IV1RR
 899              	@ ../Libraries/STM32F4xx_StdPeriph_Driver/src/stm32f4xx_cryp.c:522:     CRYP_ContextSave->CRYP_K0LR
 522:../Libraries/STM32F4xx_StdPeriph_Driver/src/stm32f4xx_cryp.c ****     CRYP_ContextSave->CRYP_K0RR = CRYP_KeyInitStruct->CRYP_Key0Right; 
 900              		.loc 1 522 33 view .LVU201
 901 0078 0B68     		ldr	r3, [r1]	@ CRYP_KeyInitStruct_45(D)->CRYP_Key0Left, CRYP_KeyInitStruct_45(D)->CRYP_Key0Left
 902 007a C5E90423 		strd	r2, r3, [r5, #16]	@ _20, CRYP_KeyInitStruct_45(D)->CRYP_Key0Left, CRYP_ContextSave,
 523:../Libraries/STM32F4xx_StdPeriph_Driver/src/stm32f4xx_cryp.c ****     CRYP_ContextSave->CRYP_K1LR = CRYP_KeyInitStruct->CRYP_Key1Left; 
 903              		.loc 1 523 5 is_stmt 1 view .LVU202
 904              	@ ../Libraries/STM32F4xx_StdPeriph_Driver/src/stm32f4xx_cryp.c:524:     CRYP_ContextSave->CRYP_K1LR
 524:../Libraries/STM32F4xx_StdPeriph_Driver/src/stm32f4xx_cryp.c ****     CRYP_ContextSave->CRYP_K1RR = CRYP_KeyInitStruct->CRYP_Key1Right; 
 905              		.loc 1 524 33 is_stmt 0 view .LVU203
 906 007e D1E90123 		ldrd	r2, r3, [r1, #4]	@ CRYP_KeyInitStruct_45(D)->CRYP_Key0Right, CRYP_KeyInitStruct_45(D)->CRYP_K
 907 0082 C5E90623 		strd	r2, r3, [r5, #24]	@ CRYP_KeyInitStruct_45(D)->CRYP_Key0Right, CRYP_KeyInitStruct_45(D)->CRYP_
 525:../Libraries/STM32F4xx_StdPeriph_Driver/src/stm32f4xx_cryp.c ****     CRYP_ContextSave->CRYP_K2LR = CRYP_KeyInitStruct->CRYP_Key2Left; 
 908              		.loc 1 525 5 is_stmt 1 view .LVU204
 909              	@ ../Libraries/STM32F4xx_StdPeriph_Driver/src/stm32f4xx_cryp.c:526:     CRYP_ContextSave->CRYP_K2LR
 526:../Libraries/STM32F4xx_StdPeriph_Driver/src/stm32f4xx_cryp.c ****     CRYP_ContextSave->CRYP_K2RR = CRYP_KeyInitStruct->CRYP_Key2Right; 
 910              		.loc 1 526 33 is_stmt 0 view .LVU205
 911 0086 D1E90323 		ldrd	r2, r3, [r1, #12]	@ CRYP_KeyInitStruct_45(D)->CRYP_Key1Right, CRYP_KeyInitStruct_45(D)->CRYP_
 912 008a C5E90823 		strd	r2, r3, [r5, #32]	@ CRYP_KeyInitStruct_45(D)->CRYP_Key1Right, CRYP_KeyInitStruct_45(D)->CRYP_
 527:../Libraries/STM32F4xx_StdPeriph_Driver/src/stm32f4xx_cryp.c ****     CRYP_ContextSave->CRYP_K3LR = CRYP_KeyInitStruct->CRYP_Key3Left; 
 913              		.loc 1 527 5 is_stmt 1 view .LVU206
 914              	@ ../Libraries/STM32F4xx_StdPeriph_Driver/src/stm32f4xx_cryp.c:528:     CRYP_ContextSave->CRYP_K3LR
 528:../Libraries/STM32F4xx_StdPeriph_Driver/src/stm32f4xx_cryp.c ****     CRYP_ContextSave->CRYP_K3RR = CRYP_KeyInitStruct->CRYP_Key3Right; 
 915              		.loc 1 528 33 is_stmt 0 view .LVU207
 916 008e D1E90542 		ldrd	r4, r2, [r1, #20]	@ CRYP_KeyInitStruct_45(D)->CRYP_Key2Right, CRYP_KeyInitStruct_45(D)->CRYP_
 917              	@ ../Libraries/STM32F4xx_StdPeriph_Driver/src/stm32f4xx_cryp.c:529:     CRYP_ContextSave->CRYP_K3RR
 529:../Libraries/STM32F4xx_StdPeriph_Driver/src/stm32f4xx_cryp.c **** 
 918              		.loc 1 529 33 view .LVU208
 919 0092 CB69     		ldr	r3, [r1, #28]	@ CRYP_KeyInitStruct_45(D)->CRYP_Key3Right, CRYP_KeyInitStruct_45(D)->CRYP_Key3R
 920 0094 2B63     		str	r3, [r5, #48]	@ CRYP_KeyInitStruct_45(D)->CRYP_Key3Right, CRYP_ContextSave_39(D)->CRYP_K3RR
 921              	@ ../Libraries/STM32F4xx_StdPeriph_Driver/src/stm32f4xx_cryp.c:528:     CRYP_ContextSave->CRYP_K3LR
 528:../Libraries/STM32F4xx_StdPeriph_Driver/src/stm32f4xx_cryp.c ****     CRYP_ContextSave->CRYP_K3RR = CRYP_KeyInitStruct->CRYP_Key3Right; 
 922              		.loc 1 528 33 view .LVU209
 923 0096 C5E90A42 		strd	r4, r2, [r5, #40]	@ CRYP_KeyInitStruct_45(D)->CRYP_Key2Right, CRYP_KeyInitStruct_45(D)->CRYP_
 529:../Libraries/STM32F4xx_StdPeriph_Driver/src/stm32f4xx_cryp.c **** 
 924              		.loc 1 529 5 is_stmt 1 view .LVU210
 534:../Libraries/STM32F4xx_StdPeriph_Driver/src/stm32f4xx_cryp.c ****   }
 925              		.loc 1 534 5 view .LVU211
 926              	.LVL28:
 537:../Libraries/STM32F4xx_StdPeriph_Driver/src/stm32f4xx_cryp.c **** }
 927              		.loc 1 537 4 view .LVU212
ARM GAS  C:\Users\admin\AppData\Local\Temp\ccdBMIKa.s 			page 28


 928              	@ ../Libraries/STM32F4xx_StdPeriph_Driver/src/stm32f4xx_cryp.c:538: }
 929              		.loc 1 538 1 is_stmt 0 view .LVU213
 930 009a 03B0     		add	sp, sp, #12	@,,
 931              		.cfi_def_cfa_offset 12
 932              		@ sp needed	@
 933 009c 30BD     		pop	{r4, r5, pc}	@
 934              	.LVL29:
 935              	.L51:
 936              		.loc 1 538 1 view .LVU214
 937 009e 00BF     		.align	2
 938              	.L50:
 939 00a0 00000650 		.word	1342570496
 940              		.cfi_endproc
 941              	.LFE121:
 942              		.size	CRYP_SaveContext, .-CRYP_SaveContext
 943              		.section	.text.CRYP_RestoreContext,"ax",%progbits
 944              		.align	1
 945              		.p2align 2,,3
 946              		.global	CRYP_RestoreContext
 947              		.syntax unified
 948              		.thumb
 949              		.thumb_func
 950              		.type	CRYP_RestoreContext, %function
 951              	CRYP_RestoreContext:
 952              	.LVL30:
 953              	.LFB122:
 539:../Libraries/STM32F4xx_StdPeriph_Driver/src/stm32f4xx_cryp.c **** 
 540:../Libraries/STM32F4xx_StdPeriph_Driver/src/stm32f4xx_cryp.c **** /**
 541:../Libraries/STM32F4xx_StdPeriph_Driver/src/stm32f4xx_cryp.c ****   * @brief  Restores the CRYP peripheral Context.
 542:../Libraries/STM32F4xx_StdPeriph_Driver/src/stm32f4xx_cryp.c ****   * @note   Since teh DMA transfer is stopped in CRYP_SaveContext() function,
 543:../Libraries/STM32F4xx_StdPeriph_Driver/src/stm32f4xx_cryp.c ****   *         after restoring the context, you have to enable the DMA again (if the
 544:../Libraries/STM32F4xx_StdPeriph_Driver/src/stm32f4xx_cryp.c ****   *         DMA was previously used).  
 545:../Libraries/STM32F4xx_StdPeriph_Driver/src/stm32f4xx_cryp.c ****   * @param  CRYP_ContextRestore: pointer to a CRYP_Context structure that contains
 546:../Libraries/STM32F4xx_StdPeriph_Driver/src/stm32f4xx_cryp.c ****   *         the repository for saved context.
 547:../Libraries/STM32F4xx_StdPeriph_Driver/src/stm32f4xx_cryp.c ****   * @note   The data that were saved during context saving must be rewrited into
 548:../Libraries/STM32F4xx_StdPeriph_Driver/src/stm32f4xx_cryp.c ****   *         the IN FIFO.
 549:../Libraries/STM32F4xx_StdPeriph_Driver/src/stm32f4xx_cryp.c ****   * @retval None
 550:../Libraries/STM32F4xx_StdPeriph_Driver/src/stm32f4xx_cryp.c ****   */
 551:../Libraries/STM32F4xx_StdPeriph_Driver/src/stm32f4xx_cryp.c **** void CRYP_RestoreContext(CRYP_Context* CRYP_ContextRestore)  
 552:../Libraries/STM32F4xx_StdPeriph_Driver/src/stm32f4xx_cryp.c **** {
 954              		.loc 1 552 1 is_stmt 1 view -0
 955              		.cfi_startproc
 956              		@ args = 0, pretend = 0, frame = 0
 957              		@ frame_needed = 0, uses_anonymous_args = 0
 958              		@ link register save eliminated.
 553:../Libraries/STM32F4xx_StdPeriph_Driver/src/stm32f4xx_cryp.c **** 
 554:../Libraries/STM32F4xx_StdPeriph_Driver/src/stm32f4xx_cryp.c ****   /* Configure the processor with the saved configuration */
 555:../Libraries/STM32F4xx_StdPeriph_Driver/src/stm32f4xx_cryp.c ****   CRYP->CR = CRYP_ContextRestore->CR_bits9to2;
 959              		.loc 1 555 3 view .LVU216
 960              	@ ../Libraries/STM32F4xx_StdPeriph_Driver/src/stm32f4xx_cryp.c:555:   CRYP->CR = CRYP_ContextRestor
 961              		.loc 1 555 12 is_stmt 0 view .LVU217
 962 0000 0F4B     		ldr	r3, .L53	@ tmp129,
 963              	@ ../Libraries/STM32F4xx_StdPeriph_Driver/src/stm32f4xx_cryp.c:555:   CRYP->CR = CRYP_ContextRestor
 964              		.loc 1 555 33 view .LVU218
 965 0002 0268     		ldr	r2, [r0]	@ _1, CRYP_ContextRestore_17(D)->CR_bits9to2
 966              	@ ../Libraries/STM32F4xx_StdPeriph_Driver/src/stm32f4xx_cryp.c:555:   CRYP->CR = CRYP_ContextRestor
 967              		.loc 1 555 12 view .LVU219
ARM GAS  C:\Users\admin\AppData\Local\Temp\ccdBMIKa.s 			page 29


 968 0004 1A60     		str	r2, [r3]	@ _1, MEM[(struct CRYP_TypeDef *)1342570496B].CR
 556:../Libraries/STM32F4xx_StdPeriph_Driver/src/stm32f4xx_cryp.c **** 
 557:../Libraries/STM32F4xx_StdPeriph_Driver/src/stm32f4xx_cryp.c ****   /* restore The key value */
 558:../Libraries/STM32F4xx_StdPeriph_Driver/src/stm32f4xx_cryp.c ****   CRYP->K0LR = CRYP_ContextRestore->CRYP_K0LR; 
 969              		.loc 1 558 3 is_stmt 1 view .LVU220
 970              	@ ../Libraries/STM32F4xx_StdPeriph_Driver/src/stm32f4xx_cryp.c:558:   CRYP->K0LR = CRYP_ContextRest
 971              		.loc 1 558 35 is_stmt 0 view .LVU221
 972 0006 4269     		ldr	r2, [r0, #20]	@ _2, CRYP_ContextRestore_17(D)->CRYP_K0LR
 973              	@ ../Libraries/STM32F4xx_StdPeriph_Driver/src/stm32f4xx_cryp.c:558:   CRYP->K0LR = CRYP_ContextRest
 974              		.loc 1 558 14 view .LVU222
 975 0008 1A62     		str	r2, [r3, #32]	@ _2, MEM[(struct CRYP_TypeDef *)1342570496B].K0LR
 559:../Libraries/STM32F4xx_StdPeriph_Driver/src/stm32f4xx_cryp.c ****   CRYP->K0RR = CRYP_ContextRestore->CRYP_K0RR;
 976              		.loc 1 559 3 is_stmt 1 view .LVU223
 977              	@ ../Libraries/STM32F4xx_StdPeriph_Driver/src/stm32f4xx_cryp.c:559:   CRYP->K0RR = CRYP_ContextRest
 978              		.loc 1 559 35 is_stmt 0 view .LVU224
 979 000a 8269     		ldr	r2, [r0, #24]	@ _3, CRYP_ContextRestore_17(D)->CRYP_K0RR
 980              	@ ../Libraries/STM32F4xx_StdPeriph_Driver/src/stm32f4xx_cryp.c:559:   CRYP->K0RR = CRYP_ContextRest
 981              		.loc 1 559 14 view .LVU225
 982 000c 5A62     		str	r2, [r3, #36]	@ _3, MEM[(struct CRYP_TypeDef *)1342570496B].K0RR
 560:../Libraries/STM32F4xx_StdPeriph_Driver/src/stm32f4xx_cryp.c ****   CRYP->K1LR = CRYP_ContextRestore->CRYP_K1LR;
 983              		.loc 1 560 3 is_stmt 1 view .LVU226
 984              	@ ../Libraries/STM32F4xx_StdPeriph_Driver/src/stm32f4xx_cryp.c:560:   CRYP->K1LR = CRYP_ContextRest
 985              		.loc 1 560 35 is_stmt 0 view .LVU227
 986 000e C269     		ldr	r2, [r0, #28]	@ _4, CRYP_ContextRestore_17(D)->CRYP_K1LR
 987              	@ ../Libraries/STM32F4xx_StdPeriph_Driver/src/stm32f4xx_cryp.c:560:   CRYP->K1LR = CRYP_ContextRest
 988              		.loc 1 560 14 view .LVU228
 989 0010 9A62     		str	r2, [r3, #40]	@ _4, MEM[(struct CRYP_TypeDef *)1342570496B].K1LR
 561:../Libraries/STM32F4xx_StdPeriph_Driver/src/stm32f4xx_cryp.c ****   CRYP->K1RR = CRYP_ContextRestore->CRYP_K1RR;
 990              		.loc 1 561 3 is_stmt 1 view .LVU229
 991              	@ ../Libraries/STM32F4xx_StdPeriph_Driver/src/stm32f4xx_cryp.c:561:   CRYP->K1RR = CRYP_ContextRest
 992              		.loc 1 561 35 is_stmt 0 view .LVU230
 993 0012 026A     		ldr	r2, [r0, #32]	@ _5, CRYP_ContextRestore_17(D)->CRYP_K1RR
 994              	@ ../Libraries/STM32F4xx_StdPeriph_Driver/src/stm32f4xx_cryp.c:561:   CRYP->K1RR = CRYP_ContextRest
 995              		.loc 1 561 14 view .LVU231
 996 0014 DA62     		str	r2, [r3, #44]	@ _5, MEM[(struct CRYP_TypeDef *)1342570496B].K1RR
 562:../Libraries/STM32F4xx_StdPeriph_Driver/src/stm32f4xx_cryp.c ****   CRYP->K2LR = CRYP_ContextRestore->CRYP_K2LR;
 997              		.loc 1 562 3 is_stmt 1 view .LVU232
 998              	@ ../Libraries/STM32F4xx_StdPeriph_Driver/src/stm32f4xx_cryp.c:562:   CRYP->K2LR = CRYP_ContextRest
 999              		.loc 1 562 35 is_stmt 0 view .LVU233
 1000 0016 426A     		ldr	r2, [r0, #36]	@ _6, CRYP_ContextRestore_17(D)->CRYP_K2LR
 1001              	@ ../Libraries/STM32F4xx_StdPeriph_Driver/src/stm32f4xx_cryp.c:562:   CRYP->K2LR = CRYP_ContextRest
 1002              		.loc 1 562 14 view .LVU234
 1003 0018 1A63     		str	r2, [r3, #48]	@ _6, MEM[(struct CRYP_TypeDef *)1342570496B].K2LR
 563:../Libraries/STM32F4xx_StdPeriph_Driver/src/stm32f4xx_cryp.c ****   CRYP->K2RR = CRYP_ContextRestore->CRYP_K2RR;
 1004              		.loc 1 563 3 is_stmt 1 view .LVU235
 1005              	@ ../Libraries/STM32F4xx_StdPeriph_Driver/src/stm32f4xx_cryp.c:563:   CRYP->K2RR = CRYP_ContextRest
 1006              		.loc 1 563 35 is_stmt 0 view .LVU236
 1007 001a 826A     		ldr	r2, [r0, #40]	@ _7, CRYP_ContextRestore_17(D)->CRYP_K2RR
 1008              	@ ../Libraries/STM32F4xx_StdPeriph_Driver/src/stm32f4xx_cryp.c:563:   CRYP->K2RR = CRYP_ContextRest
 1009              		.loc 1 563 14 view .LVU237
 1010 001c 5A63     		str	r2, [r3, #52]	@ _7, MEM[(struct CRYP_TypeDef *)1342570496B].K2RR
 564:../Libraries/STM32F4xx_StdPeriph_Driver/src/stm32f4xx_cryp.c ****   CRYP->K3LR = CRYP_ContextRestore->CRYP_K3LR;
 1011              		.loc 1 564 3 is_stmt 1 view .LVU238
 1012              	@ ../Libraries/STM32F4xx_StdPeriph_Driver/src/stm32f4xx_cryp.c:564:   CRYP->K3LR = CRYP_ContextRest
 1013              		.loc 1 564 35 is_stmt 0 view .LVU239
 1014 001e C26A     		ldr	r2, [r0, #44]	@ _8, CRYP_ContextRestore_17(D)->CRYP_K3LR
 1015              	@ ../Libraries/STM32F4xx_StdPeriph_Driver/src/stm32f4xx_cryp.c:564:   CRYP->K3LR = CRYP_ContextRest
ARM GAS  C:\Users\admin\AppData\Local\Temp\ccdBMIKa.s 			page 30


 1016              		.loc 1 564 14 view .LVU240
 1017 0020 9A63     		str	r2, [r3, #56]	@ _8, MEM[(struct CRYP_TypeDef *)1342570496B].K3LR
 565:../Libraries/STM32F4xx_StdPeriph_Driver/src/stm32f4xx_cryp.c ****   CRYP->K3RR = CRYP_ContextRestore->CRYP_K3RR;
 1018              		.loc 1 565 3 is_stmt 1 view .LVU241
 1019              	@ ../Libraries/STM32F4xx_StdPeriph_Driver/src/stm32f4xx_cryp.c:565:   CRYP->K3RR = CRYP_ContextRest
 1020              		.loc 1 565 35 is_stmt 0 view .LVU242
 1021 0022 026B     		ldr	r2, [r0, #48]	@ _9, CRYP_ContextRestore_17(D)->CRYP_K3RR
 1022              	@ ../Libraries/STM32F4xx_StdPeriph_Driver/src/stm32f4xx_cryp.c:565:   CRYP->K3RR = CRYP_ContextRest
 1023              		.loc 1 565 14 view .LVU243
 1024 0024 DA63     		str	r2, [r3, #60]	@ _9, MEM[(struct CRYP_TypeDef *)1342570496B].K3RR
 566:../Libraries/STM32F4xx_StdPeriph_Driver/src/stm32f4xx_cryp.c **** 
 567:../Libraries/STM32F4xx_StdPeriph_Driver/src/stm32f4xx_cryp.c ****   /* and the initialization vectors. */
 568:../Libraries/STM32F4xx_StdPeriph_Driver/src/stm32f4xx_cryp.c ****   CRYP->IV0LR = CRYP_ContextRestore->CRYP_IV0LR;
 1025              		.loc 1 568 3 is_stmt 1 view .LVU244
 1026              	@ ../Libraries/STM32F4xx_StdPeriph_Driver/src/stm32f4xx_cryp.c:568:   CRYP->IV0LR = CRYP_ContextRes
 1027              		.loc 1 568 36 is_stmt 0 view .LVU245
 1028 0026 4268     		ldr	r2, [r0, #4]	@ _10, CRYP_ContextRestore_17(D)->CRYP_IV0LR
 1029              	@ ../Libraries/STM32F4xx_StdPeriph_Driver/src/stm32f4xx_cryp.c:568:   CRYP->IV0LR = CRYP_ContextRes
 1030              		.loc 1 568 15 view .LVU246
 1031 0028 1A64     		str	r2, [r3, #64]	@ _10, MEM[(struct CRYP_TypeDef *)1342570496B].IV0LR
 569:../Libraries/STM32F4xx_StdPeriph_Driver/src/stm32f4xx_cryp.c ****   CRYP->IV0RR = CRYP_ContextRestore->CRYP_IV0RR;
 1032              		.loc 1 569 3 is_stmt 1 view .LVU247
 1033              	@ ../Libraries/STM32F4xx_StdPeriph_Driver/src/stm32f4xx_cryp.c:569:   CRYP->IV0RR = CRYP_ContextRes
 1034              		.loc 1 569 36 is_stmt 0 view .LVU248
 1035 002a 8268     		ldr	r2, [r0, #8]	@ _11, CRYP_ContextRestore_17(D)->CRYP_IV0RR
 1036              	@ ../Libraries/STM32F4xx_StdPeriph_Driver/src/stm32f4xx_cryp.c:569:   CRYP->IV0RR = CRYP_ContextRes
 1037              		.loc 1 569 15 view .LVU249
 1038 002c 5A64     		str	r2, [r3, #68]	@ _11, MEM[(struct CRYP_TypeDef *)1342570496B].IV0RR
 570:../Libraries/STM32F4xx_StdPeriph_Driver/src/stm32f4xx_cryp.c ****   CRYP->IV1LR = CRYP_ContextRestore->CRYP_IV1LR;
 1039              		.loc 1 570 3 is_stmt 1 view .LVU250
 1040              	@ ../Libraries/STM32F4xx_StdPeriph_Driver/src/stm32f4xx_cryp.c:570:   CRYP->IV1LR = CRYP_ContextRes
 1041              		.loc 1 570 36 is_stmt 0 view .LVU251
 1042 002e C268     		ldr	r2, [r0, #12]	@ _12, CRYP_ContextRestore_17(D)->CRYP_IV1LR
 1043              	@ ../Libraries/STM32F4xx_StdPeriph_Driver/src/stm32f4xx_cryp.c:570:   CRYP->IV1LR = CRYP_ContextRes
 1044              		.loc 1 570 15 view .LVU252
 1045 0030 9A64     		str	r2, [r3, #72]	@ _12, MEM[(struct CRYP_TypeDef *)1342570496B].IV1LR
 571:../Libraries/STM32F4xx_StdPeriph_Driver/src/stm32f4xx_cryp.c ****   CRYP->IV1RR = CRYP_ContextRestore->CRYP_IV1RR;
 1046              		.loc 1 571 3 is_stmt 1 view .LVU253
 1047              	@ ../Libraries/STM32F4xx_StdPeriph_Driver/src/stm32f4xx_cryp.c:571:   CRYP->IV1RR = CRYP_ContextRes
 1048              		.loc 1 571 36 is_stmt 0 view .LVU254
 1049 0032 0269     		ldr	r2, [r0, #16]	@ _13, CRYP_ContextRestore_17(D)->CRYP_IV1RR
 1050              	@ ../Libraries/STM32F4xx_StdPeriph_Driver/src/stm32f4xx_cryp.c:571:   CRYP->IV1RR = CRYP_ContextRes
 1051              		.loc 1 571 15 view .LVU255
 1052 0034 DA64     		str	r2, [r3, #76]	@ _13, MEM[(struct CRYP_TypeDef *)1342570496B].IV1RR
 572:../Libraries/STM32F4xx_StdPeriph_Driver/src/stm32f4xx_cryp.c **** 
 573:../Libraries/STM32F4xx_StdPeriph_Driver/src/stm32f4xx_cryp.c ****   /* Enable the cryptographic processor */
 574:../Libraries/STM32F4xx_StdPeriph_Driver/src/stm32f4xx_cryp.c ****   CRYP->CR |= CRYP_CR_CRYPEN;
 1053              		.loc 1 574 3 is_stmt 1 view .LVU256
 1054              	@ ../Libraries/STM32F4xx_StdPeriph_Driver/src/stm32f4xx_cryp.c:574:   CRYP->CR |= CRYP_CR_CRYPEN;
 1055              		.loc 1 574 12 is_stmt 0 view .LVU257
 1056 0036 1A68     		ldr	r2, [r3]	@ _14, MEM[(struct CRYP_TypeDef *)1342570496B].CR
 1057 0038 42F40042 		orr	r2, r2, #32768	@ _15, _14,
 1058 003c 1A60     		str	r2, [r3]	@ _15, MEM[(struct CRYP_TypeDef *)1342570496B].CR
 1059              	@ ../Libraries/STM32F4xx_StdPeriph_Driver/src/stm32f4xx_cryp.c:575: }
 575:../Libraries/STM32F4xx_StdPeriph_Driver/src/stm32f4xx_cryp.c **** }
 1060              		.loc 1 575 1 view .LVU258
 1061 003e 7047     		bx	lr	@
ARM GAS  C:\Users\admin\AppData\Local\Temp\ccdBMIKa.s 			page 31


 1062              	.L54:
 1063              		.align	2
 1064              	.L53:
 1065 0040 00000650 		.word	1342570496
 1066              		.cfi_endproc
 1067              	.LFE122:
 1068              		.size	CRYP_RestoreContext, .-CRYP_RestoreContext
 1069              		.section	.text.CRYP_DMACmd,"ax",%progbits
 1070              		.align	1
 1071              		.p2align 2,,3
 1072              		.global	CRYP_DMACmd
 1073              		.syntax unified
 1074              		.thumb
 1075              		.thumb_func
 1076              		.type	CRYP_DMACmd, %function
 1077              	CRYP_DMACmd:
 1078              	.LVL31:
 1079              	.LFB123:
 576:../Libraries/STM32F4xx_StdPeriph_Driver/src/stm32f4xx_cryp.c **** /**
 577:../Libraries/STM32F4xx_StdPeriph_Driver/src/stm32f4xx_cryp.c ****   * @}
 578:../Libraries/STM32F4xx_StdPeriph_Driver/src/stm32f4xx_cryp.c ****   */
 579:../Libraries/STM32F4xx_StdPeriph_Driver/src/stm32f4xx_cryp.c **** 
 580:../Libraries/STM32F4xx_StdPeriph_Driver/src/stm32f4xx_cryp.c **** /** @defgroup CRYP_Group4 CRYP's DMA interface Configuration function
 581:../Libraries/STM32F4xx_StdPeriph_Driver/src/stm32f4xx_cryp.c ****  *  @brief   CRYP's DMA interface Configuration function 
 582:../Libraries/STM32F4xx_StdPeriph_Driver/src/stm32f4xx_cryp.c ****  *
 583:../Libraries/STM32F4xx_StdPeriph_Driver/src/stm32f4xx_cryp.c **** @verbatim   
 584:../Libraries/STM32F4xx_StdPeriph_Driver/src/stm32f4xx_cryp.c ****  ===============================================================================
 585:../Libraries/STM32F4xx_StdPeriph_Driver/src/stm32f4xx_cryp.c ****                    CRYP's DMA interface Configuration function
 586:../Libraries/STM32F4xx_StdPeriph_Driver/src/stm32f4xx_cryp.c ****  ===============================================================================  
 587:../Libraries/STM32F4xx_StdPeriph_Driver/src/stm32f4xx_cryp.c **** 
 588:../Libraries/STM32F4xx_StdPeriph_Driver/src/stm32f4xx_cryp.c ****   This section provides functions allowing to configure the DMA interface for 
 589:../Libraries/STM32F4xx_StdPeriph_Driver/src/stm32f4xx_cryp.c ****   CRYP data input and output transfer.
 590:../Libraries/STM32F4xx_StdPeriph_Driver/src/stm32f4xx_cryp.c ****    
 591:../Libraries/STM32F4xx_StdPeriph_Driver/src/stm32f4xx_cryp.c ****   When the DMA mode is enabled (using the CRYP_DMACmd() function), data can be 
 592:../Libraries/STM32F4xx_StdPeriph_Driver/src/stm32f4xx_cryp.c ****   transferred:
 593:../Libraries/STM32F4xx_StdPeriph_Driver/src/stm32f4xx_cryp.c ****   - From memory to the CRYP IN FIFO using the DMA peripheral by enabling 
 594:../Libraries/STM32F4xx_StdPeriph_Driver/src/stm32f4xx_cryp.c ****     the CRYP_DMAReq_DataIN request.
 595:../Libraries/STM32F4xx_StdPeriph_Driver/src/stm32f4xx_cryp.c ****   - From the CRYP OUT FIFO to the memory using the DMA peripheral by enabling 
 596:../Libraries/STM32F4xx_StdPeriph_Driver/src/stm32f4xx_cryp.c ****     the CRYP_DMAReq_DataOUT request.
 597:../Libraries/STM32F4xx_StdPeriph_Driver/src/stm32f4xx_cryp.c **** 
 598:../Libraries/STM32F4xx_StdPeriph_Driver/src/stm32f4xx_cryp.c **** @endverbatim
 599:../Libraries/STM32F4xx_StdPeriph_Driver/src/stm32f4xx_cryp.c ****   * @{
 600:../Libraries/STM32F4xx_StdPeriph_Driver/src/stm32f4xx_cryp.c ****   */
 601:../Libraries/STM32F4xx_StdPeriph_Driver/src/stm32f4xx_cryp.c **** 
 602:../Libraries/STM32F4xx_StdPeriph_Driver/src/stm32f4xx_cryp.c **** /**
 603:../Libraries/STM32F4xx_StdPeriph_Driver/src/stm32f4xx_cryp.c ****   * @brief  Enables or disables the CRYP DMA interface.
 604:../Libraries/STM32F4xx_StdPeriph_Driver/src/stm32f4xx_cryp.c ****   * @param  CRYP_DMAReq: specifies the CRYP DMA transfer request to be enabled or disabled.
 605:../Libraries/STM32F4xx_StdPeriph_Driver/src/stm32f4xx_cryp.c ****   *           This parameter can be any combination of the following values:
 606:../Libraries/STM32F4xx_StdPeriph_Driver/src/stm32f4xx_cryp.c ****   *            @arg CRYP_DMAReq_DataOUT: DMA for outgoing(Tx) data transfer
 607:../Libraries/STM32F4xx_StdPeriph_Driver/src/stm32f4xx_cryp.c ****   *            @arg CRYP_DMAReq_DataIN: DMA for incoming(Rx) data transfer
 608:../Libraries/STM32F4xx_StdPeriph_Driver/src/stm32f4xx_cryp.c ****   * @param  NewState: new state of the selected CRYP DMA transfer request.
 609:../Libraries/STM32F4xx_StdPeriph_Driver/src/stm32f4xx_cryp.c ****   *          This parameter can be: ENABLE or DISABLE.
 610:../Libraries/STM32F4xx_StdPeriph_Driver/src/stm32f4xx_cryp.c ****   * @retval None
 611:../Libraries/STM32F4xx_StdPeriph_Driver/src/stm32f4xx_cryp.c ****   */
 612:../Libraries/STM32F4xx_StdPeriph_Driver/src/stm32f4xx_cryp.c **** void CRYP_DMACmd(uint8_t CRYP_DMAReq, FunctionalState NewState)
 613:../Libraries/STM32F4xx_StdPeriph_Driver/src/stm32f4xx_cryp.c **** {
 1080              		.loc 1 613 1 is_stmt 1 view -0
ARM GAS  C:\Users\admin\AppData\Local\Temp\ccdBMIKa.s 			page 32


 1081              		.cfi_startproc
 1082              		@ args = 0, pretend = 0, frame = 0
 1083              		@ frame_needed = 0, uses_anonymous_args = 0
 614:../Libraries/STM32F4xx_StdPeriph_Driver/src/stm32f4xx_cryp.c ****   /* Check the parameters */
 615:../Libraries/STM32F4xx_StdPeriph_Driver/src/stm32f4xx_cryp.c ****   assert_param(IS_CRYP_DMAREQ(CRYP_DMAReq));
 1084              		.loc 1 615 3 view .LVU260
 1085 0000 10F0FC0F 		tst	r0, #252	@ CRYP_DMAReq,
 1086              	@ ../Libraries/STM32F4xx_StdPeriph_Driver/src/stm32f4xx_cryp.c:613: {
 613:../Libraries/STM32F4xx_StdPeriph_Driver/src/stm32f4xx_cryp.c ****   /* Check the parameters */
 1087              		.loc 1 613 1 is_stmt 0 view .LVU261
 1088 0004 38B5     		push	{r3, r4, r5, lr}	@
 1089              		.cfi_def_cfa_offset 16
 1090              		.cfi_offset 3, -16
 1091              		.cfi_offset 4, -12
 1092              		.cfi_offset 5, -8
 1093              		.cfi_offset 14, -4
 1094              	@ ../Libraries/STM32F4xx_StdPeriph_Driver/src/stm32f4xx_cryp.c:613: {
 613:../Libraries/STM32F4xx_StdPeriph_Driver/src/stm32f4xx_cryp.c ****   /* Check the parameters */
 1095              		.loc 1 613 1 view .LVU262
 1096 0006 0446     		mov	r4, r0	@ CRYP_DMAReq, tmp142
 1097 0008 0D46     		mov	r5, r1	@ NewState, tmp143
 1098              	@ ../Libraries/STM32F4xx_StdPeriph_Driver/src/stm32f4xx_cryp.c:615:   assert_param(IS_CRYP_DMAREQ(C
 1099              		.loc 1 615 3 view .LVU263
 1100 000a 16D1     		bne	.L59		@,
 1101              	@ ../Libraries/STM32F4xx_StdPeriph_Driver/src/stm32f4xx_cryp.c:615:   assert_param(IS_CRYP_DMAREQ(C
 1102              		.loc 1 615 3 discriminator 1 view .LVU264
 1103 000c 0038     		subs	r0, r0, #0	@ iftmp.6_10, CRYP_DMAReq,
 1104              	.LVL32:
 1105              		.loc 1 615 3 discriminator 1 view .LVU265
 1106 000e 18BF     		it	ne
 1107 0010 0120     		movne	r0, #1	@ iftmp.6_10,
 1108              	.L56:
 1109              	@ ../Libraries/STM32F4xx_StdPeriph_Driver/src/stm32f4xx_cryp.c:615:   assert_param(IS_CRYP_DMAREQ(C
 1110              		.loc 1 615 3 discriminator 6 view .LVU266
 1111 0012 FFF7FEFF 		bl	assert_param		@
 1112              	.LVL33:
 616:../Libraries/STM32F4xx_StdPeriph_Driver/src/stm32f4xx_cryp.c ****   assert_param(IS_FUNCTIONAL_STATE(NewState));
 1113              		.loc 1 616 3 is_stmt 1 discriminator 6 view .LVU267
 1114 0016 012D     		cmp	r5, #1	@ NewState,
 1115 0018 8CBF     		ite	hi
 1116 001a 0020     		movhi	r0, #0	@,
 1117 001c 0120     		movls	r0, #1	@,
 1118 001e FFF7FEFF 		bl	assert_param		@
 1119              	.LVL34:
 617:../Libraries/STM32F4xx_StdPeriph_Driver/src/stm32f4xx_cryp.c **** 
 618:../Libraries/STM32F4xx_StdPeriph_Driver/src/stm32f4xx_cryp.c ****   if (NewState != DISABLE)
 1120              		.loc 1 618 3 discriminator 6 view .LVU268
 1121              	@ ../Libraries/STM32F4xx_StdPeriph_Driver/src/stm32f4xx_cryp.c:621:     CRYP->DMACR |= CRYP_DMAReq;
 619:../Libraries/STM32F4xx_StdPeriph_Driver/src/stm32f4xx_cryp.c ****   {
 620:../Libraries/STM32F4xx_StdPeriph_Driver/src/stm32f4xx_cryp.c ****     /* Enable the selected CRYP DMA request */
 621:../Libraries/STM32F4xx_StdPeriph_Driver/src/stm32f4xx_cryp.c ****     CRYP->DMACR |= CRYP_DMAReq;
 1122              		.loc 1 621 17 is_stmt 0 discriminator 6 view .LVU269
 1123 0022 074B     		ldr	r3, .L61	@ tmp136,
 1124 0024 1869     		ldr	r0, [r3, #16]	@ _3,
 1125              	@ ../Libraries/STM32F4xx_StdPeriph_Driver/src/stm32f4xx_cryp.c:618:   if (NewState != DISABLE)
 618:../Libraries/STM32F4xx_StdPeriph_Driver/src/stm32f4xx_cryp.c ****   {
 1126              		.loc 1 618 6 discriminator 6 view .LVU270
ARM GAS  C:\Users\admin\AppData\Local\Temp\ccdBMIKa.s 			page 33


 1127 0026 15B1     		cbz	r5, .L57	@ NewState,
 1128              		.loc 1 621 5 is_stmt 1 view .LVU271
 1129              	@ ../Libraries/STM32F4xx_StdPeriph_Driver/src/stm32f4xx_cryp.c:621:     CRYP->DMACR |= CRYP_DMAReq;
 1130              		.loc 1 621 17 is_stmt 0 view .LVU272
 1131 0028 0443     		orrs	r4, r4, r0	@, _5, CRYP_DMAReq, _3
 1132 002a 1C61     		str	r4, [r3, #16]	@ _5,
 1133              	@ ../Libraries/STM32F4xx_StdPeriph_Driver/src/stm32f4xx_cryp.c:628: }
 622:../Libraries/STM32F4xx_StdPeriph_Driver/src/stm32f4xx_cryp.c ****   }
 623:../Libraries/STM32F4xx_StdPeriph_Driver/src/stm32f4xx_cryp.c ****   else
 624:../Libraries/STM32F4xx_StdPeriph_Driver/src/stm32f4xx_cryp.c ****   {
 625:../Libraries/STM32F4xx_StdPeriph_Driver/src/stm32f4xx_cryp.c ****     /* Disable the selected CRYP DMA request */
 626:../Libraries/STM32F4xx_StdPeriph_Driver/src/stm32f4xx_cryp.c ****     CRYP->DMACR &= (uint8_t)~CRYP_DMAReq;
 627:../Libraries/STM32F4xx_StdPeriph_Driver/src/stm32f4xx_cryp.c ****   }
 628:../Libraries/STM32F4xx_StdPeriph_Driver/src/stm32f4xx_cryp.c **** }
 1134              		.loc 1 628 1 view .LVU273
 1135 002c 38BD     		pop	{r3, r4, r5, pc}	@
 1136              	.L57:
 626:../Libraries/STM32F4xx_StdPeriph_Driver/src/stm32f4xx_cryp.c ****   }
 1137              		.loc 1 626 5 is_stmt 1 view .LVU274
 1138              	@ ../Libraries/STM32F4xx_StdPeriph_Driver/src/stm32f4xx_cryp.c:626:     CRYP->DMACR &= (uint8_t)~CR
 626:../Libraries/STM32F4xx_StdPeriph_Driver/src/stm32f4xx_cryp.c ****   }
 1139              		.loc 1 626 20 is_stmt 0 view .LVU275
 1140 002e 20EA0404 		bic	r4, r0, r4	@ tmp140, _6, CRYP_DMAReq
 1141              	@ ../Libraries/STM32F4xx_StdPeriph_Driver/src/stm32f4xx_cryp.c:626:     CRYP->DMACR &= (uint8_t)~CR
 626:../Libraries/STM32F4xx_StdPeriph_Driver/src/stm32f4xx_cryp.c ****   }
 1142              		.loc 1 626 17 view .LVU276
 1143 0032 04F0FF04 		and	r4, r4, #255	@ _9, tmp140,
 1144 0036 1C61     		str	r4, [r3, #16]	@ _9,
 1145              	@ ../Libraries/STM32F4xx_StdPeriph_Driver/src/stm32f4xx_cryp.c:628: }
 1146              		.loc 1 628 1 view .LVU277
 1147 0038 38BD     		pop	{r3, r4, r5, pc}	@
 1148              	.LVL35:
 1149              	.L59:
 1150              	@ ../Libraries/STM32F4xx_StdPeriph_Driver/src/stm32f4xx_cryp.c:615:   assert_param(IS_CRYP_DMAREQ(C
 615:../Libraries/STM32F4xx_StdPeriph_Driver/src/stm32f4xx_cryp.c ****   assert_param(IS_FUNCTIONAL_STATE(NewState));
 1151              		.loc 1 615 3 view .LVU278
 1152 003a 0020     		movs	r0, #0	@ iftmp.6_10,
 1153              	.LVL36:
 615:../Libraries/STM32F4xx_StdPeriph_Driver/src/stm32f4xx_cryp.c ****   assert_param(IS_FUNCTIONAL_STATE(NewState));
 1154              		.loc 1 615 3 view .LVU279
 1155 003c E9E7     		b	.L56		@
 1156              	.L62:
 1157 003e 00BF     		.align	2
 1158              	.L61:
 1159 0040 00000650 		.word	1342570496
 1160              		.cfi_endproc
 1161              	.LFE123:
 1162              		.size	CRYP_DMACmd, .-CRYP_DMACmd
 1163              		.section	.text.CRYP_ITConfig,"ax",%progbits
 1164              		.align	1
 1165              		.p2align 2,,3
 1166              		.global	CRYP_ITConfig
 1167              		.syntax unified
 1168              		.thumb
 1169              		.thumb_func
 1170              		.type	CRYP_ITConfig, %function
 1171              	CRYP_ITConfig:
ARM GAS  C:\Users\admin\AppData\Local\Temp\ccdBMIKa.s 			page 34


 1172              	.LVL37:
 1173              	.LFB124:
 629:../Libraries/STM32F4xx_StdPeriph_Driver/src/stm32f4xx_cryp.c **** /**
 630:../Libraries/STM32F4xx_StdPeriph_Driver/src/stm32f4xx_cryp.c ****   * @}
 631:../Libraries/STM32F4xx_StdPeriph_Driver/src/stm32f4xx_cryp.c ****   */
 632:../Libraries/STM32F4xx_StdPeriph_Driver/src/stm32f4xx_cryp.c **** 
 633:../Libraries/STM32F4xx_StdPeriph_Driver/src/stm32f4xx_cryp.c **** /** @defgroup CRYP_Group5 Interrupts and flags management functions
 634:../Libraries/STM32F4xx_StdPeriph_Driver/src/stm32f4xx_cryp.c ****  *  @brief   Interrupts and flags management functions
 635:../Libraries/STM32F4xx_StdPeriph_Driver/src/stm32f4xx_cryp.c ****  *
 636:../Libraries/STM32F4xx_StdPeriph_Driver/src/stm32f4xx_cryp.c **** @verbatim   
 637:../Libraries/STM32F4xx_StdPeriph_Driver/src/stm32f4xx_cryp.c ****  ===============================================================================
 638:../Libraries/STM32F4xx_StdPeriph_Driver/src/stm32f4xx_cryp.c ****                    Interrupts and flags management functions
 639:../Libraries/STM32F4xx_StdPeriph_Driver/src/stm32f4xx_cryp.c ****  ===============================================================================  
 640:../Libraries/STM32F4xx_StdPeriph_Driver/src/stm32f4xx_cryp.c **** 
 641:../Libraries/STM32F4xx_StdPeriph_Driver/src/stm32f4xx_cryp.c ****   This section provides functions allowing to configure the CRYP Interrupts and 
 642:../Libraries/STM32F4xx_StdPeriph_Driver/src/stm32f4xx_cryp.c ****   to get the status and Interrupts pending bits.
 643:../Libraries/STM32F4xx_StdPeriph_Driver/src/stm32f4xx_cryp.c **** 
 644:../Libraries/STM32F4xx_StdPeriph_Driver/src/stm32f4xx_cryp.c ****   The CRYP provides 2 Interrupts sources and 7 Flags:
 645:../Libraries/STM32F4xx_StdPeriph_Driver/src/stm32f4xx_cryp.c **** 
 646:../Libraries/STM32F4xx_StdPeriph_Driver/src/stm32f4xx_cryp.c ****   Flags :
 647:../Libraries/STM32F4xx_StdPeriph_Driver/src/stm32f4xx_cryp.c ****   ------- 
 648:../Libraries/STM32F4xx_StdPeriph_Driver/src/stm32f4xx_cryp.c ****                           
 649:../Libraries/STM32F4xx_StdPeriph_Driver/src/stm32f4xx_cryp.c ****      1. CRYP_FLAG_IFEM :  Set when Input FIFO is empty.
 650:../Libraries/STM32F4xx_StdPeriph_Driver/src/stm32f4xx_cryp.c ****                           This Flag is cleared only by hardware.
 651:../Libraries/STM32F4xx_StdPeriph_Driver/src/stm32f4xx_cryp.c ****       
 652:../Libraries/STM32F4xx_StdPeriph_Driver/src/stm32f4xx_cryp.c ****      2. CRYP_FLAG_IFNF :  Set when Input FIFO is not full.
 653:../Libraries/STM32F4xx_StdPeriph_Driver/src/stm32f4xx_cryp.c ****                           This Flag is cleared only by hardware.
 654:../Libraries/STM32F4xx_StdPeriph_Driver/src/stm32f4xx_cryp.c **** 
 655:../Libraries/STM32F4xx_StdPeriph_Driver/src/stm32f4xx_cryp.c **** 
 656:../Libraries/STM32F4xx_StdPeriph_Driver/src/stm32f4xx_cryp.c ****      3. CRYP_FLAG_INRIS  : Set when Input FIFO Raw interrupt is pending 
 657:../Libraries/STM32F4xx_StdPeriph_Driver/src/stm32f4xx_cryp.c ****                            it gives the raw interrupt state prior to masking 
 658:../Libraries/STM32F4xx_StdPeriph_Driver/src/stm32f4xx_cryp.c ****                            of the input FIFO service interrupt.
 659:../Libraries/STM32F4xx_StdPeriph_Driver/src/stm32f4xx_cryp.c ****                            This Flag is cleared only by hardware.
 660:../Libraries/STM32F4xx_StdPeriph_Driver/src/stm32f4xx_cryp.c ****      
 661:../Libraries/STM32F4xx_StdPeriph_Driver/src/stm32f4xx_cryp.c ****      4. CRYP_FLAG_OFNE   : Set when Output FIFO not empty.
 662:../Libraries/STM32F4xx_StdPeriph_Driver/src/stm32f4xx_cryp.c ****                            This Flag is cleared only by hardware.
 663:../Libraries/STM32F4xx_StdPeriph_Driver/src/stm32f4xx_cryp.c ****         
 664:../Libraries/STM32F4xx_StdPeriph_Driver/src/stm32f4xx_cryp.c ****      5. CRYP_FLAG_OFFU   : Set when Output FIFO is full.
 665:../Libraries/STM32F4xx_StdPeriph_Driver/src/stm32f4xx_cryp.c ****                            This Flag is cleared only by hardware.
 666:../Libraries/STM32F4xx_StdPeriph_Driver/src/stm32f4xx_cryp.c ****                            
 667:../Libraries/STM32F4xx_StdPeriph_Driver/src/stm32f4xx_cryp.c ****      6. CRYP_FLAG_OUTRIS : Set when Output FIFO Raw interrupt is pending 
 668:../Libraries/STM32F4xx_StdPeriph_Driver/src/stm32f4xx_cryp.c ****                            it gives the raw interrupt state prior to masking 
 669:../Libraries/STM32F4xx_StdPeriph_Driver/src/stm32f4xx_cryp.c ****                            of the output FIFO service interrupt.
 670:../Libraries/STM32F4xx_StdPeriph_Driver/src/stm32f4xx_cryp.c ****                            This Flag is cleared only by hardware.
 671:../Libraries/STM32F4xx_StdPeriph_Driver/src/stm32f4xx_cryp.c ****                                
 672:../Libraries/STM32F4xx_StdPeriph_Driver/src/stm32f4xx_cryp.c ****      7. CRYP_FLAG_BUSY   : Set when the CRYP core is currently processing a 
 673:../Libraries/STM32F4xx_StdPeriph_Driver/src/stm32f4xx_cryp.c ****                            block of data or a key preparation (for AES 
 674:../Libraries/STM32F4xx_StdPeriph_Driver/src/stm32f4xx_cryp.c ****                            decryption).
 675:../Libraries/STM32F4xx_StdPeriph_Driver/src/stm32f4xx_cryp.c ****                            This Flag is cleared only by hardware.
 676:../Libraries/STM32F4xx_StdPeriph_Driver/src/stm32f4xx_cryp.c ****                            To clear it, the CRYP core must be disabled and the 
 677:../Libraries/STM32F4xx_StdPeriph_Driver/src/stm32f4xx_cryp.c ****                            last processing has completed. 
 678:../Libraries/STM32F4xx_StdPeriph_Driver/src/stm32f4xx_cryp.c **** 
 679:../Libraries/STM32F4xx_StdPeriph_Driver/src/stm32f4xx_cryp.c ****   Interrupts :
 680:../Libraries/STM32F4xx_StdPeriph_Driver/src/stm32f4xx_cryp.c ****   ------------
 681:../Libraries/STM32F4xx_StdPeriph_Driver/src/stm32f4xx_cryp.c **** 
 682:../Libraries/STM32F4xx_StdPeriph_Driver/src/stm32f4xx_cryp.c ****    1. CRYP_IT_INI   : The input FIFO service interrupt is asserted when there 
 683:../Libraries/STM32F4xx_StdPeriph_Driver/src/stm32f4xx_cryp.c ****                       are less than 4 words in the input FIFO.
ARM GAS  C:\Users\admin\AppData\Local\Temp\ccdBMIKa.s 			page 35


 684:../Libraries/STM32F4xx_StdPeriph_Driver/src/stm32f4xx_cryp.c ****                       This interrupt is associated to CRYP_FLAG_INRIS flag.
 685:../Libraries/STM32F4xx_StdPeriph_Driver/src/stm32f4xx_cryp.c **** 
 686:../Libraries/STM32F4xx_StdPeriph_Driver/src/stm32f4xx_cryp.c ****                 @note This interrupt is cleared by performing write operations 
 687:../Libraries/STM32F4xx_StdPeriph_Driver/src/stm32f4xx_cryp.c ****                       to the input FIFO until it holds 4 or more words. The 
 688:../Libraries/STM32F4xx_StdPeriph_Driver/src/stm32f4xx_cryp.c ****                       input FIFO service interrupt INMIS is enabled with the 
 689:../Libraries/STM32F4xx_StdPeriph_Driver/src/stm32f4xx_cryp.c ****                       CRYP enable bit. Consequently, when CRYP is disabled, the 
 690:../Libraries/STM32F4xx_StdPeriph_Driver/src/stm32f4xx_cryp.c ****                       INMIS signal is low even if the input FIFO is empty.
 691:../Libraries/STM32F4xx_StdPeriph_Driver/src/stm32f4xx_cryp.c **** 
 692:../Libraries/STM32F4xx_StdPeriph_Driver/src/stm32f4xx_cryp.c **** 
 693:../Libraries/STM32F4xx_StdPeriph_Driver/src/stm32f4xx_cryp.c **** 
 694:../Libraries/STM32F4xx_StdPeriph_Driver/src/stm32f4xx_cryp.c ****    2. CRYP_IT_OUTI  : The output FIFO service interrupt is asserted when there 
 695:../Libraries/STM32F4xx_StdPeriph_Driver/src/stm32f4xx_cryp.c ****                       is one or more (32-bit word) data items in the output FIFO.
 696:../Libraries/STM32F4xx_StdPeriph_Driver/src/stm32f4xx_cryp.c ****                       This interrupt is associated to CRYP_FLAG_OUTRIS flag.
 697:../Libraries/STM32F4xx_StdPeriph_Driver/src/stm32f4xx_cryp.c **** 
 698:../Libraries/STM32F4xx_StdPeriph_Driver/src/stm32f4xx_cryp.c ****                 @note This interrupt is cleared by reading data from the output 
 699:../Libraries/STM32F4xx_StdPeriph_Driver/src/stm32f4xx_cryp.c ****                       FIFO until there is no valid (32-bit) word left (that is, 
 700:../Libraries/STM32F4xx_StdPeriph_Driver/src/stm32f4xx_cryp.c ****                       the interrupt follows the state of the OFNE (output FIFO 
 701:../Libraries/STM32F4xx_StdPeriph_Driver/src/stm32f4xx_cryp.c ****                       not empty) flag).
 702:../Libraries/STM32F4xx_StdPeriph_Driver/src/stm32f4xx_cryp.c **** 
 703:../Libraries/STM32F4xx_StdPeriph_Driver/src/stm32f4xx_cryp.c **** 
 704:../Libraries/STM32F4xx_StdPeriph_Driver/src/stm32f4xx_cryp.c ****   Managing the CRYP controller events :
 705:../Libraries/STM32F4xx_StdPeriph_Driver/src/stm32f4xx_cryp.c ****   ------------------------------------ 
 706:../Libraries/STM32F4xx_StdPeriph_Driver/src/stm32f4xx_cryp.c ****   The user should identify which mode will be used in his application to manage 
 707:../Libraries/STM32F4xx_StdPeriph_Driver/src/stm32f4xx_cryp.c ****   the CRYP controller events: Polling mode or Interrupt mode.
 708:../Libraries/STM32F4xx_StdPeriph_Driver/src/stm32f4xx_cryp.c **** 
 709:../Libraries/STM32F4xx_StdPeriph_Driver/src/stm32f4xx_cryp.c ****   1.  In the Polling Mode it is advised to use the following functions:
 710:../Libraries/STM32F4xx_StdPeriph_Driver/src/stm32f4xx_cryp.c ****       - CRYP_GetFlagStatus() : to check if flags events occur. 
 711:../Libraries/STM32F4xx_StdPeriph_Driver/src/stm32f4xx_cryp.c **** 
 712:../Libraries/STM32F4xx_StdPeriph_Driver/src/stm32f4xx_cryp.c ****   @note  The CRYPT flags do not need to be cleared since they are cleared as 
 713:../Libraries/STM32F4xx_StdPeriph_Driver/src/stm32f4xx_cryp.c ****          soon as the associated event are reset.   
 714:../Libraries/STM32F4xx_StdPeriph_Driver/src/stm32f4xx_cryp.c **** 
 715:../Libraries/STM32F4xx_StdPeriph_Driver/src/stm32f4xx_cryp.c **** 
 716:../Libraries/STM32F4xx_StdPeriph_Driver/src/stm32f4xx_cryp.c ****   2.  In the Interrupt Mode it is advised to use the following functions:
 717:../Libraries/STM32F4xx_StdPeriph_Driver/src/stm32f4xx_cryp.c ****       - CRYP_ITConfig()       : to enable or disable the interrupt source.
 718:../Libraries/STM32F4xx_StdPeriph_Driver/src/stm32f4xx_cryp.c ****       - CRYP_GetITStatus()    : to check if Interrupt occurs.
 719:../Libraries/STM32F4xx_StdPeriph_Driver/src/stm32f4xx_cryp.c **** 
 720:../Libraries/STM32F4xx_StdPeriph_Driver/src/stm32f4xx_cryp.c ****   @note  The CRYPT interrupts have no pending bits, the interrupt is cleared as 
 721:../Libraries/STM32F4xx_StdPeriph_Driver/src/stm32f4xx_cryp.c ****          soon as the associated event is reset. 
 722:../Libraries/STM32F4xx_StdPeriph_Driver/src/stm32f4xx_cryp.c **** 
 723:../Libraries/STM32F4xx_StdPeriph_Driver/src/stm32f4xx_cryp.c **** @endverbatim
 724:../Libraries/STM32F4xx_StdPeriph_Driver/src/stm32f4xx_cryp.c ****   * @{
 725:../Libraries/STM32F4xx_StdPeriph_Driver/src/stm32f4xx_cryp.c ****   */ 
 726:../Libraries/STM32F4xx_StdPeriph_Driver/src/stm32f4xx_cryp.c **** 
 727:../Libraries/STM32F4xx_StdPeriph_Driver/src/stm32f4xx_cryp.c **** /**
 728:../Libraries/STM32F4xx_StdPeriph_Driver/src/stm32f4xx_cryp.c ****   * @brief  Enables or disables the specified CRYP interrupts.
 729:../Libraries/STM32F4xx_StdPeriph_Driver/src/stm32f4xx_cryp.c ****   * @param  CRYP_IT: specifies the CRYP interrupt source to be enabled or disabled.
 730:../Libraries/STM32F4xx_StdPeriph_Driver/src/stm32f4xx_cryp.c ****   *          This parameter can be any combination of the following values:
 731:../Libraries/STM32F4xx_StdPeriph_Driver/src/stm32f4xx_cryp.c ****   *            @arg CRYP_IT_INI: Input FIFO interrupt
 732:../Libraries/STM32F4xx_StdPeriph_Driver/src/stm32f4xx_cryp.c ****   *            @arg CRYP_IT_OUTI: Output FIFO interrupt
 733:../Libraries/STM32F4xx_StdPeriph_Driver/src/stm32f4xx_cryp.c ****   * @param  NewState: new state of the specified CRYP interrupt.
 734:../Libraries/STM32F4xx_StdPeriph_Driver/src/stm32f4xx_cryp.c ****   *           This parameter can be: ENABLE or DISABLE.
 735:../Libraries/STM32F4xx_StdPeriph_Driver/src/stm32f4xx_cryp.c ****   * @retval None
 736:../Libraries/STM32F4xx_StdPeriph_Driver/src/stm32f4xx_cryp.c ****   */
 737:../Libraries/STM32F4xx_StdPeriph_Driver/src/stm32f4xx_cryp.c **** void CRYP_ITConfig(uint8_t CRYP_IT, FunctionalState NewState)
 738:../Libraries/STM32F4xx_StdPeriph_Driver/src/stm32f4xx_cryp.c **** {
 1174              		.loc 1 738 1 is_stmt 1 view -0
 1175              		.cfi_startproc
ARM GAS  C:\Users\admin\AppData\Local\Temp\ccdBMIKa.s 			page 36


 1176              		@ args = 0, pretend = 0, frame = 0
 1177              		@ frame_needed = 0, uses_anonymous_args = 0
 739:../Libraries/STM32F4xx_StdPeriph_Driver/src/stm32f4xx_cryp.c ****   /* Check the parameters */
 740:../Libraries/STM32F4xx_StdPeriph_Driver/src/stm32f4xx_cryp.c ****   assert_param(IS_CRYP_CONFIG_IT(CRYP_IT));
 1178              		.loc 1 740 3 view .LVU281
 1179 0000 10F0FC0F 		tst	r0, #252	@ CRYP_IT,
 1180              	@ ../Libraries/STM32F4xx_StdPeriph_Driver/src/stm32f4xx_cryp.c:738: {
 738:../Libraries/STM32F4xx_StdPeriph_Driver/src/stm32f4xx_cryp.c ****   /* Check the parameters */
 1181              		.loc 1 738 1 is_stmt 0 view .LVU282
 1182 0004 38B5     		push	{r3, r4, r5, lr}	@
 1183              		.cfi_def_cfa_offset 16
 1184              		.cfi_offset 3, -16
 1185              		.cfi_offset 4, -12
 1186              		.cfi_offset 5, -8
 1187              		.cfi_offset 14, -4
 1188              	@ ../Libraries/STM32F4xx_StdPeriph_Driver/src/stm32f4xx_cryp.c:738: {
 738:../Libraries/STM32F4xx_StdPeriph_Driver/src/stm32f4xx_cryp.c ****   /* Check the parameters */
 1189              		.loc 1 738 1 view .LVU283
 1190 0006 0446     		mov	r4, r0	@ CRYP_IT, tmp142
 1191 0008 0D46     		mov	r5, r1	@ NewState, tmp143
 1192              	@ ../Libraries/STM32F4xx_StdPeriph_Driver/src/stm32f4xx_cryp.c:740:   assert_param(IS_CRYP_CONFIG_I
 1193              		.loc 1 740 3 view .LVU284
 1194 000a 16D1     		bne	.L67		@,
 1195              	@ ../Libraries/STM32F4xx_StdPeriph_Driver/src/stm32f4xx_cryp.c:740:   assert_param(IS_CRYP_CONFIG_I
 1196              		.loc 1 740 3 discriminator 1 view .LVU285
 1197 000c 0038     		subs	r0, r0, #0	@ iftmp.7_10, CRYP_IT,
 1198              	.LVL38:
 1199              		.loc 1 740 3 discriminator 1 view .LVU286
 1200 000e 18BF     		it	ne
 1201 0010 0120     		movne	r0, #1	@ iftmp.7_10,
 1202              	.L64:
 1203              	@ ../Libraries/STM32F4xx_StdPeriph_Driver/src/stm32f4xx_cryp.c:740:   assert_param(IS_CRYP_CONFIG_I
 1204              		.loc 1 740 3 discriminator 6 view .LVU287
 1205 0012 FFF7FEFF 		bl	assert_param		@
 1206              	.LVL39:
 741:../Libraries/STM32F4xx_StdPeriph_Driver/src/stm32f4xx_cryp.c ****   assert_param(IS_FUNCTIONAL_STATE(NewState));
 1207              		.loc 1 741 3 is_stmt 1 discriminator 6 view .LVU288
 1208 0016 012D     		cmp	r5, #1	@ NewState,
 1209 0018 8CBF     		ite	hi
 1210 001a 0020     		movhi	r0, #0	@,
 1211 001c 0120     		movls	r0, #1	@,
 1212 001e FFF7FEFF 		bl	assert_param		@
 1213              	.LVL40:
 742:../Libraries/STM32F4xx_StdPeriph_Driver/src/stm32f4xx_cryp.c **** 
 743:../Libraries/STM32F4xx_StdPeriph_Driver/src/stm32f4xx_cryp.c ****   if (NewState != DISABLE)
 1214              		.loc 1 743 3 discriminator 6 view .LVU289
 1215              	@ ../Libraries/STM32F4xx_StdPeriph_Driver/src/stm32f4xx_cryp.c:746:     CRYP->IMSCR |= CRYP_IT;
 744:../Libraries/STM32F4xx_StdPeriph_Driver/src/stm32f4xx_cryp.c ****   {
 745:../Libraries/STM32F4xx_StdPeriph_Driver/src/stm32f4xx_cryp.c ****     /* Enable the selected CRYP interrupt */
 746:../Libraries/STM32F4xx_StdPeriph_Driver/src/stm32f4xx_cryp.c ****     CRYP->IMSCR |= CRYP_IT;
 1216              		.loc 1 746 17 is_stmt 0 discriminator 6 view .LVU290
 1217 0022 074B     		ldr	r3, .L69	@ tmp136,
 1218 0024 5869     		ldr	r0, [r3, #20]	@ _3,
 1219              	@ ../Libraries/STM32F4xx_StdPeriph_Driver/src/stm32f4xx_cryp.c:743:   if (NewState != DISABLE)
 743:../Libraries/STM32F4xx_StdPeriph_Driver/src/stm32f4xx_cryp.c ****   {
 1220              		.loc 1 743 6 discriminator 6 view .LVU291
 1221 0026 15B1     		cbz	r5, .L65	@ NewState,
ARM GAS  C:\Users\admin\AppData\Local\Temp\ccdBMIKa.s 			page 37


 1222              		.loc 1 746 5 is_stmt 1 view .LVU292
 1223              	@ ../Libraries/STM32F4xx_StdPeriph_Driver/src/stm32f4xx_cryp.c:746:     CRYP->IMSCR |= CRYP_IT;
 1224              		.loc 1 746 17 is_stmt 0 view .LVU293
 1225 0028 0443     		orrs	r4, r4, r0	@, _5, CRYP_IT, _3
 1226 002a 5C61     		str	r4, [r3, #20]	@ _5,
 1227              	@ ../Libraries/STM32F4xx_StdPeriph_Driver/src/stm32f4xx_cryp.c:753: }
 747:../Libraries/STM32F4xx_StdPeriph_Driver/src/stm32f4xx_cryp.c ****   }
 748:../Libraries/STM32F4xx_StdPeriph_Driver/src/stm32f4xx_cryp.c ****   else
 749:../Libraries/STM32F4xx_StdPeriph_Driver/src/stm32f4xx_cryp.c ****   {
 750:../Libraries/STM32F4xx_StdPeriph_Driver/src/stm32f4xx_cryp.c ****     /* Disable the selected CRYP interrupt */
 751:../Libraries/STM32F4xx_StdPeriph_Driver/src/stm32f4xx_cryp.c ****     CRYP->IMSCR &= (uint8_t)~CRYP_IT;
 752:../Libraries/STM32F4xx_StdPeriph_Driver/src/stm32f4xx_cryp.c ****   }
 753:../Libraries/STM32F4xx_StdPeriph_Driver/src/stm32f4xx_cryp.c **** }
 1228              		.loc 1 753 1 view .LVU294
 1229 002c 38BD     		pop	{r3, r4, r5, pc}	@
 1230              	.L65:
 751:../Libraries/STM32F4xx_StdPeriph_Driver/src/stm32f4xx_cryp.c ****   }
 1231              		.loc 1 751 5 is_stmt 1 view .LVU295
 1232              	@ ../Libraries/STM32F4xx_StdPeriph_Driver/src/stm32f4xx_cryp.c:751:     CRYP->IMSCR &= (uint8_t)~CR
 751:../Libraries/STM32F4xx_StdPeriph_Driver/src/stm32f4xx_cryp.c ****   }
 1233              		.loc 1 751 20 is_stmt 0 view .LVU296
 1234 002e 20EA0404 		bic	r4, r0, r4	@ tmp140, _6, CRYP_IT
 1235              	@ ../Libraries/STM32F4xx_StdPeriph_Driver/src/stm32f4xx_cryp.c:751:     CRYP->IMSCR &= (uint8_t)~CR
 751:../Libraries/STM32F4xx_StdPeriph_Driver/src/stm32f4xx_cryp.c ****   }
 1236              		.loc 1 751 17 view .LVU297
 1237 0032 04F0FF04 		and	r4, r4, #255	@ _9, tmp140,
 1238 0036 5C61     		str	r4, [r3, #20]	@ _9,
 1239              	@ ../Libraries/STM32F4xx_StdPeriph_Driver/src/stm32f4xx_cryp.c:753: }
 1240              		.loc 1 753 1 view .LVU298
 1241 0038 38BD     		pop	{r3, r4, r5, pc}	@
 1242              	.LVL41:
 1243              	.L67:
 1244              	@ ../Libraries/STM32F4xx_StdPeriph_Driver/src/stm32f4xx_cryp.c:740:   assert_param(IS_CRYP_CONFIG_I
 740:../Libraries/STM32F4xx_StdPeriph_Driver/src/stm32f4xx_cryp.c ****   assert_param(IS_FUNCTIONAL_STATE(NewState));
 1245              		.loc 1 740 3 view .LVU299
 1246 003a 0020     		movs	r0, #0	@ iftmp.7_10,
 1247              	.LVL42:
 740:../Libraries/STM32F4xx_StdPeriph_Driver/src/stm32f4xx_cryp.c ****   assert_param(IS_FUNCTIONAL_STATE(NewState));
 1248              		.loc 1 740 3 view .LVU300
 1249 003c E9E7     		b	.L64		@
 1250              	.L70:
 1251 003e 00BF     		.align	2
 1252              	.L69:
 1253 0040 00000650 		.word	1342570496
 1254              		.cfi_endproc
 1255              	.LFE124:
 1256              		.size	CRYP_ITConfig, .-CRYP_ITConfig
 1257              		.section	.text.CRYP_GetITStatus,"ax",%progbits
 1258              		.align	1
 1259              		.p2align 2,,3
 1260              		.global	CRYP_GetITStatus
 1261              		.syntax unified
 1262              		.thumb
 1263              		.thumb_func
 1264              		.type	CRYP_GetITStatus, %function
 1265              	CRYP_GetITStatus:
 1266              	.LVL43:
ARM GAS  C:\Users\admin\AppData\Local\Temp\ccdBMIKa.s 			page 38


 1267              	.LFB125:
 754:../Libraries/STM32F4xx_StdPeriph_Driver/src/stm32f4xx_cryp.c **** 
 755:../Libraries/STM32F4xx_StdPeriph_Driver/src/stm32f4xx_cryp.c **** /**
 756:../Libraries/STM32F4xx_StdPeriph_Driver/src/stm32f4xx_cryp.c ****   * @brief  Checks whether the specified CRYP interrupt has occurred or not.
 757:../Libraries/STM32F4xx_StdPeriph_Driver/src/stm32f4xx_cryp.c ****   * @note   This function checks the status of the masked interrupt (i.e the 
 758:../Libraries/STM32F4xx_StdPeriph_Driver/src/stm32f4xx_cryp.c ****   *         interrupt should be previously enabled).     
 759:../Libraries/STM32F4xx_StdPeriph_Driver/src/stm32f4xx_cryp.c ****   * @param  CRYP_IT: specifies the CRYP (masked) interrupt source to check.
 760:../Libraries/STM32F4xx_StdPeriph_Driver/src/stm32f4xx_cryp.c ****   *           This parameter can be one of the following values:
 761:../Libraries/STM32F4xx_StdPeriph_Driver/src/stm32f4xx_cryp.c ****   *            @arg CRYP_IT_INI: Input FIFO interrupt
 762:../Libraries/STM32F4xx_StdPeriph_Driver/src/stm32f4xx_cryp.c ****   *            @arg CRYP_IT_OUTI: Output FIFO interrupt
 763:../Libraries/STM32F4xx_StdPeriph_Driver/src/stm32f4xx_cryp.c ****   * @retval The new state of CRYP_IT (SET or RESET).
 764:../Libraries/STM32F4xx_StdPeriph_Driver/src/stm32f4xx_cryp.c ****   */
 765:../Libraries/STM32F4xx_StdPeriph_Driver/src/stm32f4xx_cryp.c **** ITStatus CRYP_GetITStatus(uint8_t CRYP_IT)
 766:../Libraries/STM32F4xx_StdPeriph_Driver/src/stm32f4xx_cryp.c **** {
 1268              		.loc 1 766 1 is_stmt 1 view -0
 1269              		.cfi_startproc
 1270              		@ args = 0, pretend = 0, frame = 0
 1271              		@ frame_needed = 0, uses_anonymous_args = 0
 767:../Libraries/STM32F4xx_StdPeriph_Driver/src/stm32f4xx_cryp.c ****   ITStatus bitstatus = RESET;
 1272              		.loc 1 767 3 view .LVU302
 768:../Libraries/STM32F4xx_StdPeriph_Driver/src/stm32f4xx_cryp.c ****   /* Check the parameters */
 769:../Libraries/STM32F4xx_StdPeriph_Driver/src/stm32f4xx_cryp.c ****   assert_param(IS_CRYP_GET_IT(CRYP_IT));
 1273              		.loc 1 769 3 view .LVU303
 1274              	@ ../Libraries/STM32F4xx_StdPeriph_Driver/src/stm32f4xx_cryp.c:766: {
 766:../Libraries/STM32F4xx_StdPeriph_Driver/src/stm32f4xx_cryp.c ****   ITStatus bitstatus = RESET;
 1275              		.loc 1 766 1 is_stmt 0 view .LVU304
 1276 0000 10B5     		push	{r4, lr}	@
 1277              		.cfi_def_cfa_offset 8
 1278              		.cfi_offset 4, -8
 1279              		.cfi_offset 14, -4
 1280              	@ ../Libraries/STM32F4xx_StdPeriph_Driver/src/stm32f4xx_cryp.c:766: {
 766:../Libraries/STM32F4xx_StdPeriph_Driver/src/stm32f4xx_cryp.c ****   ITStatus bitstatus = RESET;
 1281              		.loc 1 766 1 view .LVU305
 1282 0002 0446     		mov	r4, r0	@ CRYP_IT, tmp133
 1283              	@ ../Libraries/STM32F4xx_StdPeriph_Driver/src/stm32f4xx_cryp.c:769:   assert_param(IS_CRYP_GET_IT(C
 1284              		.loc 1 769 3 view .LVU306
 1285 0004 0138     		subs	r0, r0, #1	@ tmp126, CRYP_IT,
 1286              	.LVL44:
 1287              		.loc 1 769 3 view .LVU307
 1288 0006 0128     		cmp	r0, #1	@ tmp126,
 1289 0008 8CBF     		ite	hi
 1290 000a 0020     		movhi	r0, #0	@,
 1291 000c 0120     		movls	r0, #1	@,
 1292 000e FFF7FEFF 		bl	assert_param		@
 1293              	.LVL45:
 770:../Libraries/STM32F4xx_StdPeriph_Driver/src/stm32f4xx_cryp.c **** 
 771:../Libraries/STM32F4xx_StdPeriph_Driver/src/stm32f4xx_cryp.c ****   /* Check the status of the specified CRYP interrupt */
 772:../Libraries/STM32F4xx_StdPeriph_Driver/src/stm32f4xx_cryp.c ****   if ((CRYP->MISR &  CRYP_IT) != (uint8_t)RESET)
 1294              		.loc 1 772 3 is_stmt 1 view .LVU308
 1295              	@ ../Libraries/STM32F4xx_StdPeriph_Driver/src/stm32f4xx_cryp.c:772:   if ((CRYP->MISR &  CRYP_IT) !
 1296              		.loc 1 772 12 is_stmt 0 view .LVU309
 1297 0012 034B     		ldr	r3, .L73	@ tmp128,
 1298 0014 DB69     		ldr	r3, [r3, #28]	@ _4, MEM[(struct CRYP_TypeDef *)1342570496B].MISR
 1299              	.LVL46:
 773:../Libraries/STM32F4xx_StdPeriph_Driver/src/stm32f4xx_cryp.c ****   {
 774:../Libraries/STM32F4xx_StdPeriph_Driver/src/stm32f4xx_cryp.c ****     /* CRYP_IT is set */
 775:../Libraries/STM32F4xx_StdPeriph_Driver/src/stm32f4xx_cryp.c ****     bitstatus = SET;
ARM GAS  C:\Users\admin\AppData\Local\Temp\ccdBMIKa.s 			page 39


 776:../Libraries/STM32F4xx_StdPeriph_Driver/src/stm32f4xx_cryp.c ****   }
 777:../Libraries/STM32F4xx_StdPeriph_Driver/src/stm32f4xx_cryp.c ****   else
 778:../Libraries/STM32F4xx_StdPeriph_Driver/src/stm32f4xx_cryp.c ****   {
 779:../Libraries/STM32F4xx_StdPeriph_Driver/src/stm32f4xx_cryp.c ****     /* CRYP_IT is reset */
 780:../Libraries/STM32F4xx_StdPeriph_Driver/src/stm32f4xx_cryp.c ****     bitstatus = RESET;
 781:../Libraries/STM32F4xx_StdPeriph_Driver/src/stm32f4xx_cryp.c ****   }
 782:../Libraries/STM32F4xx_StdPeriph_Driver/src/stm32f4xx_cryp.c ****   /* Return the CRYP_IT status */
 783:../Libraries/STM32F4xx_StdPeriph_Driver/src/stm32f4xx_cryp.c ****   return bitstatus;
 1300              		.loc 1 783 3 is_stmt 1 view .LVU310
 1301              	@ ../Libraries/STM32F4xx_StdPeriph_Driver/src/stm32f4xx_cryp.c:772:   if ((CRYP->MISR &  CRYP_IT) !
 772:../Libraries/STM32F4xx_StdPeriph_Driver/src/stm32f4xx_cryp.c ****   {
 1302              		.loc 1 772 6 is_stmt 0 view .LVU311
 1303 0016 1C42     		tst	r4, r3	@ CRYP_IT, _4
 1304              	@ ../Libraries/STM32F4xx_StdPeriph_Driver/src/stm32f4xx_cryp.c:784: }
 784:../Libraries/STM32F4xx_StdPeriph_Driver/src/stm32f4xx_cryp.c **** }
 1305              		.loc 1 784 1 view .LVU312
 1306 0018 14BF     		ite	ne
 1307 001a 0120     		movne	r0, #1	@,
 1308 001c 0020     		moveq	r0, #0	@,
 1309 001e 10BD     		pop	{r4, pc}	@
 1310              	.LVL47:
 1311              	.L74:
 1312              		.loc 1 784 1 view .LVU313
 1313              		.align	2
 1314              	.L73:
 1315 0020 00000650 		.word	1342570496
 1316              		.cfi_endproc
 1317              	.LFE125:
 1318              		.size	CRYP_GetITStatus, .-CRYP_GetITStatus
 1319              		.section	.text.CRYP_GetFlagStatus,"ax",%progbits
 1320              		.align	1
 1321              		.p2align 2,,3
 1322              		.global	CRYP_GetFlagStatus
 1323              		.syntax unified
 1324              		.thumb
 1325              		.thumb_func
 1326              		.type	CRYP_GetFlagStatus, %function
 1327              	CRYP_GetFlagStatus:
 1328              	.LVL48:
 1329              	.LFB126:
 785:../Libraries/STM32F4xx_StdPeriph_Driver/src/stm32f4xx_cryp.c **** 
 786:../Libraries/STM32F4xx_StdPeriph_Driver/src/stm32f4xx_cryp.c **** /**
 787:../Libraries/STM32F4xx_StdPeriph_Driver/src/stm32f4xx_cryp.c ****   * @brief  Checks whether the specified CRYP flag is set or not.
 788:../Libraries/STM32F4xx_StdPeriph_Driver/src/stm32f4xx_cryp.c ****   * @param  CRYP_FLAG: specifies the CRYP flag to check.
 789:../Libraries/STM32F4xx_StdPeriph_Driver/src/stm32f4xx_cryp.c ****   *          This parameter can be one of the following values:
 790:../Libraries/STM32F4xx_StdPeriph_Driver/src/stm32f4xx_cryp.c ****   *            @arg CRYP_FLAG_IFEM: Input FIFO Empty flag.
 791:../Libraries/STM32F4xx_StdPeriph_Driver/src/stm32f4xx_cryp.c ****   *            @arg CRYP_FLAG_IFNF: Input FIFO Not Full flag.
 792:../Libraries/STM32F4xx_StdPeriph_Driver/src/stm32f4xx_cryp.c ****   *            @arg CRYP_FLAG_OFNE: Output FIFO Not Empty flag.
 793:../Libraries/STM32F4xx_StdPeriph_Driver/src/stm32f4xx_cryp.c ****   *            @arg CRYP_FLAG_OFFU: Output FIFO Full flag.
 794:../Libraries/STM32F4xx_StdPeriph_Driver/src/stm32f4xx_cryp.c ****   *            @arg CRYP_FLAG_BUSY: Busy flag.
 795:../Libraries/STM32F4xx_StdPeriph_Driver/src/stm32f4xx_cryp.c ****   *            @arg CRYP_FLAG_OUTRIS: Output FIFO raw interrupt flag.
 796:../Libraries/STM32F4xx_StdPeriph_Driver/src/stm32f4xx_cryp.c ****   *            @arg CRYP_FLAG_INRIS: Input FIFO raw interrupt flag.
 797:../Libraries/STM32F4xx_StdPeriph_Driver/src/stm32f4xx_cryp.c ****   * @retval The new state of CRYP_FLAG (SET or RESET).
 798:../Libraries/STM32F4xx_StdPeriph_Driver/src/stm32f4xx_cryp.c ****   */
 799:../Libraries/STM32F4xx_StdPeriph_Driver/src/stm32f4xx_cryp.c **** FlagStatus CRYP_GetFlagStatus(uint8_t CRYP_FLAG)
 800:../Libraries/STM32F4xx_StdPeriph_Driver/src/stm32f4xx_cryp.c **** {
 1330              		.loc 1 800 1 is_stmt 1 view -0
ARM GAS  C:\Users\admin\AppData\Local\Temp\ccdBMIKa.s 			page 40


 1331              		.cfi_startproc
 1332              		@ args = 0, pretend = 0, frame = 0
 1333              		@ frame_needed = 0, uses_anonymous_args = 0
 801:../Libraries/STM32F4xx_StdPeriph_Driver/src/stm32f4xx_cryp.c ****   FlagStatus bitstatus = RESET;
 1334              		.loc 1 801 3 view .LVU315
 802:../Libraries/STM32F4xx_StdPeriph_Driver/src/stm32f4xx_cryp.c ****   uint32_t tempreg = 0;
 1335              		.loc 1 802 3 view .LVU316
 803:../Libraries/STM32F4xx_StdPeriph_Driver/src/stm32f4xx_cryp.c **** 
 804:../Libraries/STM32F4xx_StdPeriph_Driver/src/stm32f4xx_cryp.c ****   /* Check the parameters */
 805:../Libraries/STM32F4xx_StdPeriph_Driver/src/stm32f4xx_cryp.c ****   assert_param(IS_CRYP_GET_FLAG(CRYP_FLAG));
 1336              		.loc 1 805 3 view .LVU317
 1337 0000 431E     		subs	r3, r0, #1	@ tmp130, CRYP_FLAG,
 1338 0002 012B     		cmp	r3, #1	@ tmp130,
 1339              	@ ../Libraries/STM32F4xx_StdPeriph_Driver/src/stm32f4xx_cryp.c:800: {
 800:../Libraries/STM32F4xx_StdPeriph_Driver/src/stm32f4xx_cryp.c ****   FlagStatus bitstatus = RESET;
 1340              		.loc 1 800 1 is_stmt 0 view .LVU318
 1341 0004 10B5     		push	{r4, lr}	@
 1342              		.cfi_def_cfa_offset 8
 1343              		.cfi_offset 4, -8
 1344              		.cfi_offset 14, -4
 1345              	@ ../Libraries/STM32F4xx_StdPeriph_Driver/src/stm32f4xx_cryp.c:800: {
 800:../Libraries/STM32F4xx_StdPeriph_Driver/src/stm32f4xx_cryp.c ****   FlagStatus bitstatus = RESET;
 1346              		.loc 1 800 1 view .LVU319
 1347 0006 0446     		mov	r4, r0	@ CRYP_FLAG, tmp151
 1348              	@ ../Libraries/STM32F4xx_StdPeriph_Driver/src/stm32f4xx_cryp.c:805:   assert_param(IS_CRYP_GET_FLAG
 1349              		.loc 1 805 3 view .LVU320
 1350 0008 17D9     		bls	.L84		@,
 1351              	@ ../Libraries/STM32F4xx_StdPeriph_Driver/src/stm32f4xx_cryp.c:805:   assert_param(IS_CRYP_GET_FLAG
 1352              		.loc 1 805 16 discriminator 2 view .LVU321
 1353 000a 1028     		cmp	r0, #16	@ CRYP_FLAG,
 1354 000c 0BD9     		bls	.L77		@,
 1355              	@ ../Libraries/STM32F4xx_StdPeriph_Driver/src/stm32f4xx_cryp.c:805:   assert_param(IS_CRYP_GET_FLAG
 1356              		.loc 1 805 16 view .LVU322
 1357 000e 2128     		cmp	r0, #33	@ CRYP_FLAG,
 1358 0010 19D1     		bne	.L79		@,
 1359              	@ ../Libraries/STM32F4xx_StdPeriph_Driver/src/stm32f4xx_cryp.c:805:   assert_param(IS_CRYP_GET_FLAG
 1360              		.loc 1 805 3 view .LVU323
 1361 0012 0120     		movs	r0, #1	@,
 1362              	.LVL49:
 1363              		.loc 1 805 3 view .LVU324
 1364 0014 FFF7FEFF 		bl	assert_param		@
 1365              	.LVL50:
 806:../Libraries/STM32F4xx_StdPeriph_Driver/src/stm32f4xx_cryp.c **** 
 807:../Libraries/STM32F4xx_StdPeriph_Driver/src/stm32f4xx_cryp.c ****   /* check if the FLAG is in RISR register */
 808:../Libraries/STM32F4xx_StdPeriph_Driver/src/stm32f4xx_cryp.c ****   if ((CRYP_FLAG & FLAG_MASK) != 0x00) 
 1366              		.loc 1 808 3 is_stmt 1 view .LVU325
 1367              	.L83:
 809:../Libraries/STM32F4xx_StdPeriph_Driver/src/stm32f4xx_cryp.c ****   {
 810:../Libraries/STM32F4xx_StdPeriph_Driver/src/stm32f4xx_cryp.c ****     tempreg = CRYP->RISR;
 1368              		.loc 1 810 5 view .LVU326
 1369              	@ ../Libraries/STM32F4xx_StdPeriph_Driver/src/stm32f4xx_cryp.c:810:     tempreg = CRYP->RISR;
 1370              		.loc 1 810 13 is_stmt 0 view .LVU327
 1371 0018 0E4B     		ldr	r3, .L90	@ tmp145,
 1372 001a 9B69     		ldr	r3, [r3, #24]	@ tempreg, MEM[(struct CRYP_TypeDef *)1342570496B].RISR
 1373              	.LVL51:
 1374              	.L82:
 811:../Libraries/STM32F4xx_StdPeriph_Driver/src/stm32f4xx_cryp.c ****   }
ARM GAS  C:\Users\admin\AppData\Local\Temp\ccdBMIKa.s 			page 41


 812:../Libraries/STM32F4xx_StdPeriph_Driver/src/stm32f4xx_cryp.c ****   else  /* The FLAG is in SR register */
 813:../Libraries/STM32F4xx_StdPeriph_Driver/src/stm32f4xx_cryp.c ****   {
 814:../Libraries/STM32F4xx_StdPeriph_Driver/src/stm32f4xx_cryp.c ****     tempreg = CRYP->SR;
 815:../Libraries/STM32F4xx_StdPeriph_Driver/src/stm32f4xx_cryp.c ****   }
 816:../Libraries/STM32F4xx_StdPeriph_Driver/src/stm32f4xx_cryp.c **** 
 817:../Libraries/STM32F4xx_StdPeriph_Driver/src/stm32f4xx_cryp.c **** 
 818:../Libraries/STM32F4xx_StdPeriph_Driver/src/stm32f4xx_cryp.c ****   /* Check the status of the specified CRYP flag */
 819:../Libraries/STM32F4xx_StdPeriph_Driver/src/stm32f4xx_cryp.c ****   if ((tempreg & CRYP_FLAG ) != (uint8_t)RESET)
 1375              		.loc 1 819 3 is_stmt 1 view .LVU328
 820:../Libraries/STM32F4xx_StdPeriph_Driver/src/stm32f4xx_cryp.c ****   {
 821:../Libraries/STM32F4xx_StdPeriph_Driver/src/stm32f4xx_cryp.c ****     /* CRYP_FLAG is set */
 822:../Libraries/STM32F4xx_StdPeriph_Driver/src/stm32f4xx_cryp.c ****     bitstatus = SET;
 823:../Libraries/STM32F4xx_StdPeriph_Driver/src/stm32f4xx_cryp.c ****   }
 824:../Libraries/STM32F4xx_StdPeriph_Driver/src/stm32f4xx_cryp.c ****   else
 825:../Libraries/STM32F4xx_StdPeriph_Driver/src/stm32f4xx_cryp.c ****   {
 826:../Libraries/STM32F4xx_StdPeriph_Driver/src/stm32f4xx_cryp.c ****     /* CRYP_FLAG is reset */
 827:../Libraries/STM32F4xx_StdPeriph_Driver/src/stm32f4xx_cryp.c ****     bitstatus = RESET;
 828:../Libraries/STM32F4xx_StdPeriph_Driver/src/stm32f4xx_cryp.c ****   }
 829:../Libraries/STM32F4xx_StdPeriph_Driver/src/stm32f4xx_cryp.c **** 
 830:../Libraries/STM32F4xx_StdPeriph_Driver/src/stm32f4xx_cryp.c ****   /* Return the CRYP_FLAG status */
 831:../Libraries/STM32F4xx_StdPeriph_Driver/src/stm32f4xx_cryp.c ****   return  bitstatus;
 1376              		.loc 1 831 3 view .LVU329
 1377              	@ ../Libraries/STM32F4xx_StdPeriph_Driver/src/stm32f4xx_cryp.c:819:   if ((tempreg & CRYP_FLAG ) !=
 819:../Libraries/STM32F4xx_StdPeriph_Driver/src/stm32f4xx_cryp.c ****   {
 1378              		.loc 1 819 6 is_stmt 0 view .LVU330
 1379 001c 1C42     		tst	r4, r3	@ CRYP_FLAG, tempreg
 1380              	@ ../Libraries/STM32F4xx_StdPeriph_Driver/src/stm32f4xx_cryp.c:831:   return  bitstatus;
 1381              		.loc 1 831 11 view .LVU331
 1382 001e 14BF     		ite	ne
 1383 0020 0120     		movne	r0, #1	@ tmp150,
 1384 0022 0020     		moveq	r0, #0	@ tmp150,
 1385              	@ ../Libraries/STM32F4xx_StdPeriph_Driver/src/stm32f4xx_cryp.c:832: }
 832:../Libraries/STM32F4xx_StdPeriph_Driver/src/stm32f4xx_cryp.c **** }
 1386              		.loc 1 832 1 view .LVU332
 1387 0024 10BD     		pop	{r4, pc}	@
 1388              	.LVL52:
 1389              	.L77:
 1390              	@ ../Libraries/STM32F4xx_StdPeriph_Driver/src/stm32f4xx_cryp.c:805:   assert_param(IS_CRYP_GET_FLAG
 805:../Libraries/STM32F4xx_StdPeriph_Driver/src/stm32f4xx_cryp.c **** 
 1391              		.loc 1 805 16 discriminator 2 view .LVU333
 1392 0026 0C4B     		ldr	r3, .L90+4	@ tmp134,
 1393 0028 C340     		lsrs	r3, r3, r0	@ tmp133, tmp134, CRYP_FLAG
 1394 002a DA07     		lsls	r2, r3, #31	@, tmp133,
 1395 002c 0BD5     		bpl	.L79		@,
 1396              	@ ../Libraries/STM32F4xx_StdPeriph_Driver/src/stm32f4xx_cryp.c:805:   assert_param(IS_CRYP_GET_FLAG
 805:../Libraries/STM32F4xx_StdPeriph_Driver/src/stm32f4xx_cryp.c **** 
 1397              		.loc 1 805 3 view .LVU334
 1398 002e 0120     		movs	r0, #1	@,
 1399              	.LVL53:
 805:../Libraries/STM32F4xx_StdPeriph_Driver/src/stm32f4xx_cryp.c **** 
 1400              		.loc 1 805 3 view .LVU335
 1401 0030 FFF7FEFF 		bl	assert_param		@
 1402              	.LVL54:
 808:../Libraries/STM32F4xx_StdPeriph_Driver/src/stm32f4xx_cryp.c ****   {
 1403              		.loc 1 808 3 is_stmt 1 view .LVU336
 1404              	.L81:
 814:../Libraries/STM32F4xx_StdPeriph_Driver/src/stm32f4xx_cryp.c ****   }
ARM GAS  C:\Users\admin\AppData\Local\Temp\ccdBMIKa.s 			page 42


 1405              		.loc 1 814 5 view .LVU337
 1406              	@ ../Libraries/STM32F4xx_StdPeriph_Driver/src/stm32f4xx_cryp.c:814:     tempreg = CRYP->SR;
 814:../Libraries/STM32F4xx_StdPeriph_Driver/src/stm32f4xx_cryp.c ****   }
 1407              		.loc 1 814 13 is_stmt 0 view .LVU338
 1408 0034 074B     		ldr	r3, .L90	@ tmp146,
 1409 0036 5B68     		ldr	r3, [r3, #4]	@ tempreg, MEM[(struct CRYP_TypeDef *)1342570496B].SR
 1410              	.LVL55:
 814:../Libraries/STM32F4xx_StdPeriph_Driver/src/stm32f4xx_cryp.c ****   }
 1411              		.loc 1 814 13 view .LVU339
 1412 0038 F0E7     		b	.L82		@
 1413              	.LVL56:
 1414              	.L84:
 1415              	@ ../Libraries/STM32F4xx_StdPeriph_Driver/src/stm32f4xx_cryp.c:805:   assert_param(IS_CRYP_GET_FLAG
 805:../Libraries/STM32F4xx_StdPeriph_Driver/src/stm32f4xx_cryp.c **** 
 1416              		.loc 1 805 3 view .LVU340
 1417 003a 0120     		movs	r0, #1	@ iftmp.8_6,
 1418              	.LVL57:
 1419              	.L76:
 1420              	@ ../Libraries/STM32F4xx_StdPeriph_Driver/src/stm32f4xx_cryp.c:805:   assert_param(IS_CRYP_GET_FLAG
 805:../Libraries/STM32F4xx_StdPeriph_Driver/src/stm32f4xx_cryp.c **** 
 1421              		.loc 1 805 3 discriminator 14 view .LVU341
 1422 003c FFF7FEFF 		bl	assert_param		@
 1423              	.LVL58:
 808:../Libraries/STM32F4xx_StdPeriph_Driver/src/stm32f4xx_cryp.c ****   {
 1424              		.loc 1 808 3 is_stmt 1 discriminator 14 view .LVU342
 1425              	@ ../Libraries/STM32F4xx_StdPeriph_Driver/src/stm32f4xx_cryp.c:808:   if ((CRYP_FLAG & FLAG_MASK) !
 808:../Libraries/STM32F4xx_StdPeriph_Driver/src/stm32f4xx_cryp.c ****   {
 1426              		.loc 1 808 6 is_stmt 0 discriminator 14 view .LVU343
 1427 0040 A306     		lsls	r3, r4, #26	@, CRYP_FLAG,
 1428 0042 F7D5     		bpl	.L81		@,
 1429 0044 E8E7     		b	.L83		@
 1430              	.LVL59:
 1431              	.L79:
 1432              	@ ../Libraries/STM32F4xx_StdPeriph_Driver/src/stm32f4xx_cryp.c:805:   assert_param(IS_CRYP_GET_FLAG
 805:../Libraries/STM32F4xx_StdPeriph_Driver/src/stm32f4xx_cryp.c **** 
 1433              		.loc 1 805 3 discriminator 10 view .LVU344
 1434 0046 A4F12200 		sub	r0, r4, #34	@ iftmp.8_6, CRYP_FLAG,
 1435              	.LVL60:
 805:../Libraries/STM32F4xx_StdPeriph_Driver/src/stm32f4xx_cryp.c **** 
 1436              		.loc 1 805 3 discriminator 10 view .LVU345
 1437 004a B0FA80F0 		clz	r0, r0	@ iftmp.8_6, iftmp.8_6
 1438 004e 4009     		lsrs	r0, r0, #5	@ iftmp.8_6, iftmp.8_6,
 1439 0050 F4E7     		b	.L76		@
 1440              	.L91:
 1441 0052 00BF     		.align	2
 1442              	.L90:
 1443 0054 00000650 		.word	1342570496
 1444 0058 10010100 		.word	65808
 1445              		.cfi_endproc
 1446              	.LFE126:
 1447              		.size	CRYP_GetFlagStatus, .-CRYP_GetFlagStatus
 1448              		.text
 1449              	.Letext0:
 1450              		.file 2 "c:\\program files (x86)\\gnu arm embedded toolchain\\10 2021.10\\arm-none-eabi\\include\\
 1451              		.file 3 "c:\\program files (x86)\\gnu arm embedded toolchain\\10 2021.10\\arm-none-eabi\\include\\
 1452              		.file 4 "../Libraries/CMSIS/ST/STM32F4xx/Include/stm32f4xx.h"
 1453              		.file 5 "../Libraries/STM32F4xx_StdPeriph_Driver/inc/stm32f4xx_cryp.h"
ARM GAS  C:\Users\admin\AppData\Local\Temp\ccdBMIKa.s 			page 43


 1454              		.file 6 "../Libraries/STM32F4xx_StdPeriph_Driver/inc/stm32f4xx_rcc.h"