ARM GAS  C:\Users\admin\AppData\Local\Temp\cc095kAa.s 			page 1


   1              		.cpu cortex-m4
   2              		.arch armv7e-m
   3              		.fpu fpv4-sp-d16
   4              		.eabi_attribute 27, 1	@ Tag_ABI_HardFP_use
   5              		.eabi_attribute 28, 1	@ Tag_ABI_VFP_args
   6              		.eabi_attribute 23, 1	@ Tag_ABI_FP_number_model
   7              		.eabi_attribute 24, 1	@ Tag_ABI_align8_needed
   8              		.eabi_attribute 25, 1	@ Tag_ABI_align8_preserved
   9              		.eabi_attribute 26, 1	@ Tag_ABI_enum_size
  10              		.eabi_attribute 30, 2	@ Tag_ABI_optimization_goals
  11              		.eabi_attribute 34, 1	@ Tag_CPU_unaligned_access
  12              		.eabi_attribute 18, 4	@ Tag_ABI_PCS_wchar_t
  13              		.file	"stm32f4xx_cryp_des.c"
  14              	@ GNU C89 (GNU Arm Embedded Toolchain 10.3-2021.10) version 10.3.1 20210824 (release) (arm-none-eab
  15              	@	compiled by GNU C version 7.3-win32 20180312, GMP version 6.1.0, MPFR version 3.1.4, MPC version 
  16              	
  17              	@ GGC heuristics: --param ggc-min-expand=100 --param ggc-min-heapsize=131072
  18              	@ options passed:  -I . -I . -I ../Utilities/STM32F4-Discovery/
  19              	@ -I ../Libraries/STM32_USB_Device_Library/Class/audio/inc/
  20              	@ -I ../Libraries/STM32_USB_Device_Library/Core/inc/
  21              	@ -I ../Libraries/STM32_USB_OTG_Driver/inc/
  22              	@ -I ../Utilities/STM32F4-Discovery/
  23              	@ -I ../Libraries/STM32F4xx_StdPeriph_Driver/inc/
  24              	@ -I ../Utilities/STM32F4-Discovery/
  25              	@ -I ../Libraries/CMSIS/ST/STM32F4xx/Include/
  26              	@ -I ../Libraries/CMSIS/Include/ -imultilib thumb/v7e-m+fp/hard
  27              	@ -iprefix c:\program files (x86)\gnu arm embedded toolchain\10 2021.10\bin\../lib/gcc/arm-none-eab
  28              	@ -isysroot c:\program files (x86)\gnu arm embedded toolchain\10 2021.10\bin\../arm-none-eabi
  29              	@ -MD out/stm32f4xx_cryp_des.d -MF out/stm32f4xx_cryp_des.d -MP
  30              	@ -MQ out/stm32f4xx_cryp_des.o -D__USES_INITFINI__ -D STM32F4XX
  31              	@ -D __VFP_FP__ -D USE_USB_OTG_FS
  32              	@ ../Libraries/STM32F4xx_StdPeriph_Driver/src/stm32f4xx_cryp_des.c
  33              	@ -mcpu=cortex-m4 -mthumb -mfloat-abi=hard -mfpu=fpv4-sp-d16
  34              	@ -mlibarch=armv7e-m+fp -march=armv7e-m+fp
  35              	@ -auxbase-strip out/stm32f4xx_cryp_des.o -g -ggdb3 -O3 -Wall
  36              	@ -Wstrict-prototypes -Wextra -std=gnu90 -ffast-math -ffunction-sections
  37              	@ -fdata-sections -fverbose-asm
  38              	@ options enabled:  -faggressive-loop-optimizations -falign-functions
  39              	@ -falign-jumps -falign-labels -falign-loops -fallocation-dce
  40              	@ -fassociative-math -fauto-inc-dec -fbranch-count-reg -fcaller-saves
  41              	@ -fcombine-stack-adjustments -fcompare-elim -fcprop-registers
  42              	@ -fcrossjumping -fcse-follow-jumps -fcx-limited-range -fdata-sections
  43              	@ -fdefer-pop -fdelete-null-pointer-checks -fdevirtualize
  44              	@ -fdevirtualize-speculatively -fdwarf2-cfi-asm -fearly-inlining
  45              	@ -feliminate-unused-debug-symbols -feliminate-unused-debug-types
  46              	@ -fexpensive-optimizations -ffinite-math-only -fforward-propagate
  47              	@ -ffp-int-builtin-inexact -ffunction-cse -ffunction-sections -fgcse
  48              	@ -fgcse-after-reload -fgcse-lm -fgnu-unique -fguess-branch-probability
  49              	@ -fhoist-adjacent-loads -fident -fif-conversion -fif-conversion2
  50              	@ -findirect-inlining -finline -finline-atomics -finline-functions
  51              	@ -finline-functions-called-once -finline-small-functions -fipa-bit-cp
  52              	@ -fipa-cp -fipa-cp-clone -fipa-icf -fipa-icf-functions -fipa-icf-variables
  53              	@ -fipa-profile -fipa-pure-const -fipa-ra -fipa-reference
  54              	@ -fipa-reference-addressable -fipa-sra -fipa-stack-alignment -fipa-vrp
  55              	@ -fira-hoist-pressure -fira-share-save-slots -fira-share-spill-slots
  56              	@ -fisolate-erroneous-paths-dereference -fivopts -fkeep-static-consts
  57              	@ -fleading-underscore -flifetime-dse -floop-interchange
ARM GAS  C:\Users\admin\AppData\Local\Temp\cc095kAa.s 			page 2


  58              	@ -floop-unroll-and-jam -flra-remat -fmerge-constants -fmerge-debug-strings
  59              	@ -fmove-loop-invariants -fomit-frame-pointer -foptimize-sibling-calls
  60              	@ -foptimize-strlen -fpartial-inlining -fpeel-loops -fpeephole -fpeephole2
  61              	@ -fplt -fpredictive-commoning -fprefetch-loop-arrays -freciprocal-math
  62              	@ -freg-struct-return -freorder-blocks -freorder-functions
  63              	@ -frerun-cse-after-loop -fsched-critical-path-heuristic
  64              	@ -fsched-dep-count-heuristic -fsched-group-heuristic -fsched-interblock
  65              	@ -fsched-last-insn-heuristic -fsched-pressure -fsched-rank-heuristic
  66              	@ -fsched-spec -fsched-spec-insn-heuristic -fsched-stalled-insns-dep
  67              	@ -fschedule-insns -fschedule-insns2 -fsection-anchors
  68              	@ -fsemantic-interposition -fshow-column -fshrink-wrap
  69              	@ -fshrink-wrap-separate -fsplit-ivs-in-unroller -fsplit-loops
  70              	@ -fsplit-paths -fsplit-wide-types -fssa-backprop -fssa-phiopt -fstdarg-opt
  71              	@ -fstore-merging -fstrict-aliasing -fstrict-volatile-bitfields
  72              	@ -fsync-libcalls -fthread-jumps -ftoplevel-reorder -ftree-bit-ccp
  73              	@ -ftree-builtin-call-dce -ftree-ccp -ftree-ch -ftree-coalesce-vars
  74              	@ -ftree-copy-prop -ftree-cselim -ftree-dce -ftree-dominator-opts
  75              	@ -ftree-dse -ftree-forwprop -ftree-fre -ftree-loop-distribute-patterns
  76              	@ -ftree-loop-distribution -ftree-loop-if-convert -ftree-loop-im
  77              	@ -ftree-loop-ivcanon -ftree-loop-optimize -ftree-loop-vectorize
  78              	@ -ftree-parallelize-loops= -ftree-partial-pre -ftree-phiprop -ftree-pre
  79              	@ -ftree-pta -ftree-reassoc -ftree-scev-cprop -ftree-sink
  80              	@ -ftree-slp-vectorize -ftree-slsr -ftree-sra -ftree-switch-conversion
  81              	@ -ftree-tail-merge -ftree-ter -ftree-vrp -funit-at-a-time
  82              	@ -funsafe-math-optimizations -funswitch-loops -fvar-tracking
  83              	@ -fvar-tracking-assignments -fverbose-asm -fversion-loops-for-strides
  84              	@ -fzero-initialized-in-bss -masm-syntax-unified -mbe32 -mlittle-endian
  85              	@ -mpic-data-is-text-relative -msched-prolog -mthumb -munaligned-access
  86              	@ -mvectorize-with-neon-quad
  87              	
  88              		.text
  89              	.Ltext0:
  90              		.cfi_sections	.debug_frame
  91              		.section	.text.CRYP_DES_ECB,"ax",%progbits
  92              		.align	1
  93              		.p2align 2,,3
  94              		.global	CRYP_DES_ECB
  95              		.syntax unified
  96              		.thumb
  97              		.thumb_func
  98              		.type	CRYP_DES_ECB, %function
  99              	CRYP_DES_ECB:
 100              	.LVL0:
 101              	.LFB110:
 102              		.file 1 "../Libraries/STM32F4xx_StdPeriph_Driver/src/stm32f4xx_cryp_des.c"
   1:../Libraries/STM32F4xx_StdPeriph_Driver/src/stm32f4xx_cryp_des.c **** /**
   2:../Libraries/STM32F4xx_StdPeriph_Driver/src/stm32f4xx_cryp_des.c ****   ******************************************************************************
   3:../Libraries/STM32F4xx_StdPeriph_Driver/src/stm32f4xx_cryp_des.c ****   * @file    stm32f4xx_cryp_des.c
   4:../Libraries/STM32F4xx_StdPeriph_Driver/src/stm32f4xx_cryp_des.c ****   * @author  MCD Application Team
   5:../Libraries/STM32F4xx_StdPeriph_Driver/src/stm32f4xx_cryp_des.c ****   * @version V1.0.0
   6:../Libraries/STM32F4xx_StdPeriph_Driver/src/stm32f4xx_cryp_des.c ****   * @date    30-September-2011
   7:../Libraries/STM32F4xx_StdPeriph_Driver/src/stm32f4xx_cryp_des.c ****   * @brief   This file provides high level functions to encrypt and decrypt an 
   8:../Libraries/STM32F4xx_StdPeriph_Driver/src/stm32f4xx_cryp_des.c ****   *          input message using DES in ECB/CBC modes.
   9:../Libraries/STM32F4xx_StdPeriph_Driver/src/stm32f4xx_cryp_des.c ****   *          It uses the stm32f4xx_cryp.c/.h drivers to access the STM32F4xx CRYP
  10:../Libraries/STM32F4xx_StdPeriph_Driver/src/stm32f4xx_cryp_des.c ****   *          peripheral.
  11:../Libraries/STM32F4xx_StdPeriph_Driver/src/stm32f4xx_cryp_des.c ****   *
  12:../Libraries/STM32F4xx_StdPeriph_Driver/src/stm32f4xx_cryp_des.c ****   *  @verbatim
ARM GAS  C:\Users\admin\AppData\Local\Temp\cc095kAa.s 			page 3


  13:../Libraries/STM32F4xx_StdPeriph_Driver/src/stm32f4xx_cryp_des.c ****   *
  14:../Libraries/STM32F4xx_StdPeriph_Driver/src/stm32f4xx_cryp_des.c ****   *          ===================================================================
  15:../Libraries/STM32F4xx_StdPeriph_Driver/src/stm32f4xx_cryp_des.c ****   *                                   How to use this driver
  16:../Libraries/STM32F4xx_StdPeriph_Driver/src/stm32f4xx_cryp_des.c ****   *          ===================================================================
  17:../Libraries/STM32F4xx_StdPeriph_Driver/src/stm32f4xx_cryp_des.c ****   *          1. Enable The CRYP controller clock using 
  18:../Libraries/STM32F4xx_StdPeriph_Driver/src/stm32f4xx_cryp_des.c ****   *            RCC_AHB2PeriphClockCmd(RCC_AHB2Periph_CRYP, ENABLE); function.
  19:../Libraries/STM32F4xx_StdPeriph_Driver/src/stm32f4xx_cryp_des.c ****   *
  20:../Libraries/STM32F4xx_StdPeriph_Driver/src/stm32f4xx_cryp_des.c ****   *          2. Encrypt and decrypt using DES in ECB Mode using CRYP_DES_ECB()
  21:../Libraries/STM32F4xx_StdPeriph_Driver/src/stm32f4xx_cryp_des.c ****   *             function.
  22:../Libraries/STM32F4xx_StdPeriph_Driver/src/stm32f4xx_cryp_des.c ****   *
  23:../Libraries/STM32F4xx_StdPeriph_Driver/src/stm32f4xx_cryp_des.c ****   *          3. Encrypt and decrypt using DES in CBC Mode using CRYP_DES_CBC()
  24:../Libraries/STM32F4xx_StdPeriph_Driver/src/stm32f4xx_cryp_des.c ****   *             function.
  25:../Libraries/STM32F4xx_StdPeriph_Driver/src/stm32f4xx_cryp_des.c ****   *
  26:../Libraries/STM32F4xx_StdPeriph_Driver/src/stm32f4xx_cryp_des.c ****   *  @endverbatim
  27:../Libraries/STM32F4xx_StdPeriph_Driver/src/stm32f4xx_cryp_des.c ****   *
  28:../Libraries/STM32F4xx_StdPeriph_Driver/src/stm32f4xx_cryp_des.c ****   ******************************************************************************
  29:../Libraries/STM32F4xx_StdPeriph_Driver/src/stm32f4xx_cryp_des.c ****   * @attention
  30:../Libraries/STM32F4xx_StdPeriph_Driver/src/stm32f4xx_cryp_des.c ****   *
  31:../Libraries/STM32F4xx_StdPeriph_Driver/src/stm32f4xx_cryp_des.c ****   * THE PRESENT FIRMWARE WHICH IS FOR GUIDANCE ONLY AIMS AT PROVIDING CUSTOMERS
  32:../Libraries/STM32F4xx_StdPeriph_Driver/src/stm32f4xx_cryp_des.c ****   * WITH CODING INFORMATION REGARDING THEIR PRODUCTS IN ORDER FOR THEM TO SAVE
  33:../Libraries/STM32F4xx_StdPeriph_Driver/src/stm32f4xx_cryp_des.c ****   * TIME. AS A RESULT, STMICROELECTRONICS SHALL NOT BE HELD LIABLE FOR ANY
  34:../Libraries/STM32F4xx_StdPeriph_Driver/src/stm32f4xx_cryp_des.c ****   * DIRECT, INDIRECT OR CONSEQUENTIAL DAMAGES WITH RESPECT TO ANY CLAIMS ARISING
  35:../Libraries/STM32F4xx_StdPeriph_Driver/src/stm32f4xx_cryp_des.c ****   * FROM THE CONTENT OF SUCH FIRMWARE AND/OR THE USE MADE BY CUSTOMERS OF THE
  36:../Libraries/STM32F4xx_StdPeriph_Driver/src/stm32f4xx_cryp_des.c ****   * CODING INFORMATION CONTAINED HEREIN IN CONNECTION WITH THEIR PRODUCTS.
  37:../Libraries/STM32F4xx_StdPeriph_Driver/src/stm32f4xx_cryp_des.c ****   *
  38:../Libraries/STM32F4xx_StdPeriph_Driver/src/stm32f4xx_cryp_des.c ****   * <h2><center>&copy; COPYRIGHT 2011 STMicroelectronics</center></h2>
  39:../Libraries/STM32F4xx_StdPeriph_Driver/src/stm32f4xx_cryp_des.c ****   ******************************************************************************
  40:../Libraries/STM32F4xx_StdPeriph_Driver/src/stm32f4xx_cryp_des.c ****   */
  41:../Libraries/STM32F4xx_StdPeriph_Driver/src/stm32f4xx_cryp_des.c **** 
  42:../Libraries/STM32F4xx_StdPeriph_Driver/src/stm32f4xx_cryp_des.c **** /* Includes ------------------------------------------------------------------*/
  43:../Libraries/STM32F4xx_StdPeriph_Driver/src/stm32f4xx_cryp_des.c **** #include "stm32f4xx_cryp.h"
  44:../Libraries/STM32F4xx_StdPeriph_Driver/src/stm32f4xx_cryp_des.c **** 
  45:../Libraries/STM32F4xx_StdPeriph_Driver/src/stm32f4xx_cryp_des.c **** 
  46:../Libraries/STM32F4xx_StdPeriph_Driver/src/stm32f4xx_cryp_des.c **** /** @addtogroup STM32F4xx_StdPeriph_Driver
  47:../Libraries/STM32F4xx_StdPeriph_Driver/src/stm32f4xx_cryp_des.c ****   * @{
  48:../Libraries/STM32F4xx_StdPeriph_Driver/src/stm32f4xx_cryp_des.c ****   */
  49:../Libraries/STM32F4xx_StdPeriph_Driver/src/stm32f4xx_cryp_des.c **** 
  50:../Libraries/STM32F4xx_StdPeriph_Driver/src/stm32f4xx_cryp_des.c **** /** @defgroup CRYP 
  51:../Libraries/STM32F4xx_StdPeriph_Driver/src/stm32f4xx_cryp_des.c ****   * @brief CRYP driver modules
  52:../Libraries/STM32F4xx_StdPeriph_Driver/src/stm32f4xx_cryp_des.c ****   * @{
  53:../Libraries/STM32F4xx_StdPeriph_Driver/src/stm32f4xx_cryp_des.c ****   */
  54:../Libraries/STM32F4xx_StdPeriph_Driver/src/stm32f4xx_cryp_des.c **** 
  55:../Libraries/STM32F4xx_StdPeriph_Driver/src/stm32f4xx_cryp_des.c **** /* Private typedef -----------------------------------------------------------*/
  56:../Libraries/STM32F4xx_StdPeriph_Driver/src/stm32f4xx_cryp_des.c **** /* Private define ------------------------------------------------------------*/
  57:../Libraries/STM32F4xx_StdPeriph_Driver/src/stm32f4xx_cryp_des.c **** #define DESBUSY_TIMEOUT    ((uint32_t) 0x00010000)
  58:../Libraries/STM32F4xx_StdPeriph_Driver/src/stm32f4xx_cryp_des.c **** 
  59:../Libraries/STM32F4xx_StdPeriph_Driver/src/stm32f4xx_cryp_des.c **** /* Private macro -------------------------------------------------------------*/
  60:../Libraries/STM32F4xx_StdPeriph_Driver/src/stm32f4xx_cryp_des.c **** /* Private variables ---------------------------------------------------------*/
  61:../Libraries/STM32F4xx_StdPeriph_Driver/src/stm32f4xx_cryp_des.c **** /* Private function prototypes -----------------------------------------------*/
  62:../Libraries/STM32F4xx_StdPeriph_Driver/src/stm32f4xx_cryp_des.c **** /* Private functions ---------------------------------------------------------*/
  63:../Libraries/STM32F4xx_StdPeriph_Driver/src/stm32f4xx_cryp_des.c **** 
  64:../Libraries/STM32F4xx_StdPeriph_Driver/src/stm32f4xx_cryp_des.c **** 
  65:../Libraries/STM32F4xx_StdPeriph_Driver/src/stm32f4xx_cryp_des.c **** /** @defgroup CRYP_Private_Functions
  66:../Libraries/STM32F4xx_StdPeriph_Driver/src/stm32f4xx_cryp_des.c ****   * @{
  67:../Libraries/STM32F4xx_StdPeriph_Driver/src/stm32f4xx_cryp_des.c ****   */ 
  68:../Libraries/STM32F4xx_StdPeriph_Driver/src/stm32f4xx_cryp_des.c **** 
  69:../Libraries/STM32F4xx_StdPeriph_Driver/src/stm32f4xx_cryp_des.c **** /** @defgroup CRYP_Group8 High Level DES functions
ARM GAS  C:\Users\admin\AppData\Local\Temp\cc095kAa.s 			page 4


  70:../Libraries/STM32F4xx_StdPeriph_Driver/src/stm32f4xx_cryp_des.c ****  *  @brief   High Level DES functions 
  71:../Libraries/STM32F4xx_StdPeriph_Driver/src/stm32f4xx_cryp_des.c ****  *
  72:../Libraries/STM32F4xx_StdPeriph_Driver/src/stm32f4xx_cryp_des.c **** @verbatim   
  73:../Libraries/STM32F4xx_StdPeriph_Driver/src/stm32f4xx_cryp_des.c ****  ===============================================================================
  74:../Libraries/STM32F4xx_StdPeriph_Driver/src/stm32f4xx_cryp_des.c ****                           High Level DES functions
  75:../Libraries/STM32F4xx_StdPeriph_Driver/src/stm32f4xx_cryp_des.c ****  ===============================================================================
  76:../Libraries/STM32F4xx_StdPeriph_Driver/src/stm32f4xx_cryp_des.c **** @endverbatim
  77:../Libraries/STM32F4xx_StdPeriph_Driver/src/stm32f4xx_cryp_des.c ****   * @{
  78:../Libraries/STM32F4xx_StdPeriph_Driver/src/stm32f4xx_cryp_des.c ****   */
  79:../Libraries/STM32F4xx_StdPeriph_Driver/src/stm32f4xx_cryp_des.c **** 
  80:../Libraries/STM32F4xx_StdPeriph_Driver/src/stm32f4xx_cryp_des.c **** /**
  81:../Libraries/STM32F4xx_StdPeriph_Driver/src/stm32f4xx_cryp_des.c ****   * @brief  Encrypt and decrypt using DES in ECB Mode
  82:../Libraries/STM32F4xx_StdPeriph_Driver/src/stm32f4xx_cryp_des.c ****   * @param  Mode: encryption or decryption Mode.
  83:../Libraries/STM32F4xx_StdPeriph_Driver/src/stm32f4xx_cryp_des.c ****   *           This parameter can be one of the following values:
  84:../Libraries/STM32F4xx_StdPeriph_Driver/src/stm32f4xx_cryp_des.c ****   *            @arg MODE_ENCRYPT: Encryption
  85:../Libraries/STM32F4xx_StdPeriph_Driver/src/stm32f4xx_cryp_des.c ****   *            @arg MODE_DECRYPT: Decryption
  86:../Libraries/STM32F4xx_StdPeriph_Driver/src/stm32f4xx_cryp_des.c ****   * @param  Key: Key used for DES algorithm.
  87:../Libraries/STM32F4xx_StdPeriph_Driver/src/stm32f4xx_cryp_des.c ****   * @param  Ilength: length of the Input buffer, must be a multiple of 8.
  88:../Libraries/STM32F4xx_StdPeriph_Driver/src/stm32f4xx_cryp_des.c ****   * @param  Input: pointer to the Input buffer.
  89:../Libraries/STM32F4xx_StdPeriph_Driver/src/stm32f4xx_cryp_des.c ****   * @param  Output: pointer to the returned buffer.
  90:../Libraries/STM32F4xx_StdPeriph_Driver/src/stm32f4xx_cryp_des.c ****   * @retval An ErrorStatus enumeration value:
  91:../Libraries/STM32F4xx_StdPeriph_Driver/src/stm32f4xx_cryp_des.c ****   *          - SUCCESS: Operation done
  92:../Libraries/STM32F4xx_StdPeriph_Driver/src/stm32f4xx_cryp_des.c ****   *          - ERROR: Operation failed
  93:../Libraries/STM32F4xx_StdPeriph_Driver/src/stm32f4xx_cryp_des.c ****   */
  94:../Libraries/STM32F4xx_StdPeriph_Driver/src/stm32f4xx_cryp_des.c **** ErrorStatus CRYP_DES_ECB(uint8_t Mode, uint8_t Key[8], uint8_t *Input, 
  95:../Libraries/STM32F4xx_StdPeriph_Driver/src/stm32f4xx_cryp_des.c ****                          uint32_t Ilength, uint8_t *Output)
  96:../Libraries/STM32F4xx_StdPeriph_Driver/src/stm32f4xx_cryp_des.c **** {
 103              		.loc 1 96 1 view -0
 104              		.cfi_startproc
 105              		@ args = 4, pretend = 0, frame = 48
 106              		@ frame_needed = 0, uses_anonymous_args = 0
 107              		.loc 1 96 1 is_stmt 0 view .LVU1
 108 0000 2DE9F043 		push	{r4, r5, r6, r7, r8, r9, lr}	@
 109              		.cfi_def_cfa_offset 28
 110              		.cfi_offset 4, -28
 111              		.cfi_offset 5, -24
 112              		.cfi_offset 6, -20
 113              		.cfi_offset 7, -16
 114              		.cfi_offset 8, -12
 115              		.cfi_offset 9, -8
 116              		.cfi_offset 14, -4
 117 0004 8DB0     		sub	sp, sp, #52	@,,
 118              		.cfi_def_cfa_offset 80
 119              	@ ../Libraries/STM32F4xx_StdPeriph_Driver/src/stm32f4xx_cryp_des.c:96: {
 120              		.loc 1 96 1 view .LVU2
 121 0006 8146     		mov	r9, r0	@ Mode, tmp169
 122              	@ ../Libraries/STM32F4xx_StdPeriph_Driver/src/stm32f4xx_cryp_des.c:99:   __IO uint32_t counter = 0;
  97:../Libraries/STM32F4xx_StdPeriph_Driver/src/stm32f4xx_cryp_des.c ****   CRYP_InitTypeDef DES_CRYP_InitStructure;
  98:../Libraries/STM32F4xx_StdPeriph_Driver/src/stm32f4xx_cryp_des.c ****   CRYP_KeyInitTypeDef DES_CRYP_KeyInitStructure;
  99:../Libraries/STM32F4xx_StdPeriph_Driver/src/stm32f4xx_cryp_des.c ****   __IO uint32_t counter = 0;
 123              		.loc 1 99 17 view .LVU3
 124 0008 0026     		movs	r6, #0	@ tmp144,
 125              	@ ../Libraries/STM32F4xx_StdPeriph_Driver/src/stm32f4xx_cryp_des.c:108:   CRYP_KeyStructInit(&DES_C
 100:../Libraries/STM32F4xx_StdPeriph_Driver/src/stm32f4xx_cryp_des.c ****   uint32_t busystatus = 0;
 101:../Libraries/STM32F4xx_StdPeriph_Driver/src/stm32f4xx_cryp_des.c ****   ErrorStatus status = SUCCESS;
 102:../Libraries/STM32F4xx_StdPeriph_Driver/src/stm32f4xx_cryp_des.c ****   uint32_t keyaddr    = (uint32_t)Key;
 103:../Libraries/STM32F4xx_StdPeriph_Driver/src/stm32f4xx_cryp_des.c ****   uint32_t inputaddr  = (uint32_t)Input;
ARM GAS  C:\Users\admin\AppData\Local\Temp\cc095kAa.s 			page 5


 104:../Libraries/STM32F4xx_StdPeriph_Driver/src/stm32f4xx_cryp_des.c ****   uint32_t outputaddr = (uint32_t)Output;
 105:../Libraries/STM32F4xx_StdPeriph_Driver/src/stm32f4xx_cryp_des.c ****   uint32_t i = 0;
 106:../Libraries/STM32F4xx_StdPeriph_Driver/src/stm32f4xx_cryp_des.c **** 
 107:../Libraries/STM32F4xx_StdPeriph_Driver/src/stm32f4xx_cryp_des.c ****   /* Crypto structures initialisation*/
 108:../Libraries/STM32F4xx_StdPeriph_Driver/src/stm32f4xx_cryp_des.c ****   CRYP_KeyStructInit(&DES_CRYP_KeyInitStructure);
 126              		.loc 1 108 3 view .LVU4
 127 000a 04A8     		add	r0, sp, #16	@ tmp177,,
 128              	.LVL1:
 129              	@ ../Libraries/STM32F4xx_StdPeriph_Driver/src/stm32f4xx_cryp_des.c:96: {
  96:../Libraries/STM32F4xx_StdPeriph_Driver/src/stm32f4xx_cryp_des.c ****   CRYP_InitTypeDef DES_CRYP_InitStructure;
 130              		.loc 1 96 1 view .LVU5
 131 000c 1F46     		mov	r7, r3	@ Ilength, tmp172
 132 000e 0C46     		mov	r4, r1	@ Key, tmp170
  97:../Libraries/STM32F4xx_StdPeriph_Driver/src/stm32f4xx_cryp_des.c ****   CRYP_InitTypeDef DES_CRYP_InitStructure;
 133              		.loc 1 97 3 is_stmt 1 view .LVU6
  98:../Libraries/STM32F4xx_StdPeriph_Driver/src/stm32f4xx_cryp_des.c ****   __IO uint32_t counter = 0;
 134              		.loc 1 98 3 view .LVU7
  99:../Libraries/STM32F4xx_StdPeriph_Driver/src/stm32f4xx_cryp_des.c ****   uint32_t busystatus = 0;
 135              		.loc 1 99 3 view .LVU8
 136              	@ ../Libraries/STM32F4xx_StdPeriph_Driver/src/stm32f4xx_cryp_des.c:96: {
  96:../Libraries/STM32F4xx_StdPeriph_Driver/src/stm32f4xx_cryp_des.c ****   CRYP_InitTypeDef DES_CRYP_InitStructure;
 137              		.loc 1 96 1 is_stmt 0 view .LVU9
 138 0010 9046     		mov	r8, r2	@ Input, tmp171
 139 0012 149D     		ldr	r5, [sp, #80]	@ Output, Output
 140              	@ ../Libraries/STM32F4xx_StdPeriph_Driver/src/stm32f4xx_cryp_des.c:99:   __IO uint32_t counter = 0;
  99:../Libraries/STM32F4xx_StdPeriph_Driver/src/stm32f4xx_cryp_des.c ****   uint32_t busystatus = 0;
 141              		.loc 1 99 17 view .LVU10
 142 0014 0196     		str	r6, [sp, #4]	@ tmp144, counter
 100:../Libraries/STM32F4xx_StdPeriph_Driver/src/stm32f4xx_cryp_des.c ****   ErrorStatus status = SUCCESS;
 143              		.loc 1 100 3 is_stmt 1 view .LVU11
 144              	.LVL2:
 101:../Libraries/STM32F4xx_StdPeriph_Driver/src/stm32f4xx_cryp_des.c ****   uint32_t keyaddr    = (uint32_t)Key;
 145              		.loc 1 101 3 view .LVU12
 102:../Libraries/STM32F4xx_StdPeriph_Driver/src/stm32f4xx_cryp_des.c ****   uint32_t inputaddr  = (uint32_t)Input;
 146              		.loc 1 102 3 view .LVU13
 103:../Libraries/STM32F4xx_StdPeriph_Driver/src/stm32f4xx_cryp_des.c ****   uint32_t outputaddr = (uint32_t)Output;
 147              		.loc 1 103 3 view .LVU14
 104:../Libraries/STM32F4xx_StdPeriph_Driver/src/stm32f4xx_cryp_des.c ****   uint32_t i = 0;
 148              		.loc 1 104 3 view .LVU15
 105:../Libraries/STM32F4xx_StdPeriph_Driver/src/stm32f4xx_cryp_des.c **** 
 149              		.loc 1 105 3 view .LVU16
 150              		.loc 1 108 3 view .LVU17
 151 0016 FFF7FEFF 		bl	CRYP_KeyStructInit		@
 152              	.LVL3:
 109:../Libraries/STM32F4xx_StdPeriph_Driver/src/stm32f4xx_cryp_des.c **** 
 110:../Libraries/STM32F4xx_StdPeriph_Driver/src/stm32f4xx_cryp_des.c ****   /* Crypto Init for Encryption process */
 111:../Libraries/STM32F4xx_StdPeriph_Driver/src/stm32f4xx_cryp_des.c ****   if( Mode == MODE_ENCRYPT ) /* DES encryption */
 153              		.loc 1 111 3 view .LVU18
 154              	@ ../Libraries/STM32F4xx_StdPeriph_Driver/src/stm32f4xx_cryp_des.c:117:      DES_CRYP_InitStructure
 112:../Libraries/STM32F4xx_StdPeriph_Driver/src/stm32f4xx_cryp_des.c ****   {
 113:../Libraries/STM32F4xx_StdPeriph_Driver/src/stm32f4xx_cryp_des.c ****      DES_CRYP_InitStructure.CRYP_AlgoDir  = CRYP_AlgoDir_Encrypt;
 114:../Libraries/STM32F4xx_StdPeriph_Driver/src/stm32f4xx_cryp_des.c ****   }
 115:../Libraries/STM32F4xx_StdPeriph_Driver/src/stm32f4xx_cryp_des.c ****   else/* if( Mode == MODE_DECRYPT )*/ /* DES decryption */
 116:../Libraries/STM32F4xx_StdPeriph_Driver/src/stm32f4xx_cryp_des.c ****   {      
 117:../Libraries/STM32F4xx_StdPeriph_Driver/src/stm32f4xx_cryp_des.c ****      DES_CRYP_InitStructure.CRYP_AlgoDir  = CRYP_AlgoDir_Decrypt;
 155              		.loc 1 117 43 is_stmt 0 view .LVU19
 156 001a B9F1010F 		cmp	r9, #1	@ Mode,
ARM GAS  C:\Users\admin\AppData\Local\Temp\cc095kAa.s 			page 6


 157 001e 0CBF     		ite	eq
 158 0020 3346     		moveq	r3, r6	@ cstore_76,
 159 0022 0423     		movne	r3, #4	@ cstore_76,
 160 0024 ADF80830 		strh	r3, [sp, #8]	@ movhi	@ cstore_76, DES_CRYP_InitStructure.CRYP_AlgoDir
 118:../Libraries/STM32F4xx_StdPeriph_Driver/src/stm32f4xx_cryp_des.c ****   }
 119:../Libraries/STM32F4xx_StdPeriph_Driver/src/stm32f4xx_cryp_des.c **** 
 120:../Libraries/STM32F4xx_StdPeriph_Driver/src/stm32f4xx_cryp_des.c ****   DES_CRYP_InitStructure.CRYP_AlgoMode = CRYP_AlgoMode_DES_ECB;
 161              		.loc 1 120 3 is_stmt 1 view .LVU20
 162              	@ ../Libraries/STM32F4xx_StdPeriph_Driver/src/stm32f4xx_cryp_des.c:120:   DES_CRYP_InitStructure.CR
 163              		.loc 1 120 40 is_stmt 0 view .LVU21
 164 0028 1023     		movs	r3, #16	@ tmp148,
 165 002a ADF80A30 		strh	r3, [sp, #10]	@ movhi	@ tmp148, DES_CRYP_InitStructure.CRYP_AlgoMode
 121:../Libraries/STM32F4xx_StdPeriph_Driver/src/stm32f4xx_cryp_des.c ****   DES_CRYP_InitStructure.CRYP_DataType = CRYP_DataType_8b;
 166              		.loc 1 121 3 is_stmt 1 view .LVU22
 167              	@ ../Libraries/STM32F4xx_StdPeriph_Driver/src/stm32f4xx_cryp_des.c:122:   CRYP_Init(&DES_CRYP_InitS
 122:../Libraries/STM32F4xx_StdPeriph_Driver/src/stm32f4xx_cryp_des.c ****   CRYP_Init(&DES_CRYP_InitStructure);
 168              		.loc 1 122 3 is_stmt 0 view .LVU23
 169 002e 02A8     		add	r0, sp, #8	@,,
 170              	@ ../Libraries/STM32F4xx_StdPeriph_Driver/src/stm32f4xx_cryp_des.c:121:   DES_CRYP_InitStructure.CR
 121:../Libraries/STM32F4xx_StdPeriph_Driver/src/stm32f4xx_cryp_des.c ****   DES_CRYP_InitStructure.CRYP_DataType = CRYP_DataType_8b;
 171              		.loc 1 121 40 view .LVU24
 172 0030 8023     		movs	r3, #128	@ tmp150,
 173 0032 ADF80C30 		strh	r3, [sp, #12]	@ movhi	@ tmp150, DES_CRYP_InitStructure.CRYP_DataType
 174              		.loc 1 122 3 is_stmt 1 view .LVU25
 175 0036 FFF7FEFF 		bl	CRYP_Init		@
 176              	.LVL4:
 123:../Libraries/STM32F4xx_StdPeriph_Driver/src/stm32f4xx_cryp_des.c **** 
 124:../Libraries/STM32F4xx_StdPeriph_Driver/src/stm32f4xx_cryp_des.c ****   /* Key Initialisation */
 125:../Libraries/STM32F4xx_StdPeriph_Driver/src/stm32f4xx_cryp_des.c ****   DES_CRYP_KeyInitStructure.CRYP_Key1Left = __REV(*(uint32_t*)(keyaddr));
 177              		.loc 1 125 3 view .LVU26
 178              	.LBB14:
 179              	.LBI14:
 180              		.file 2 "../Libraries/CMSIS/Include/core_cmInstr.h"
   1:../Libraries/CMSIS/Include/core_cmInstr.h **** /**************************************************************************//**
   2:../Libraries/CMSIS/Include/core_cmInstr.h ****  * @file     core_cmInstr.h
   3:../Libraries/CMSIS/Include/core_cmInstr.h ****  * @brief    CMSIS Cortex-M Core Instruction Access Header File
   4:../Libraries/CMSIS/Include/core_cmInstr.h ****  * @version  V2.10
   5:../Libraries/CMSIS/Include/core_cmInstr.h ****  * @date     19. July 2011
   6:../Libraries/CMSIS/Include/core_cmInstr.h ****  *
   7:../Libraries/CMSIS/Include/core_cmInstr.h ****  * @note
   8:../Libraries/CMSIS/Include/core_cmInstr.h ****  * Copyright (C) 2009-2011 ARM Limited. All rights reserved.
   9:../Libraries/CMSIS/Include/core_cmInstr.h ****  *
  10:../Libraries/CMSIS/Include/core_cmInstr.h ****  * @par
  11:../Libraries/CMSIS/Include/core_cmInstr.h ****  * ARM Limited (ARM) is supplying this software for use with Cortex-M 
  12:../Libraries/CMSIS/Include/core_cmInstr.h ****  * processor based microcontrollers.  This file can be freely distributed 
  13:../Libraries/CMSIS/Include/core_cmInstr.h ****  * within development tools that are supporting such ARM based processors. 
  14:../Libraries/CMSIS/Include/core_cmInstr.h ****  *
  15:../Libraries/CMSIS/Include/core_cmInstr.h ****  * @par
  16:../Libraries/CMSIS/Include/core_cmInstr.h ****  * THIS SOFTWARE IS PROVIDED "AS IS".  NO WARRANTIES, WHETHER EXPRESS, IMPLIED
  17:../Libraries/CMSIS/Include/core_cmInstr.h ****  * OR STATUTORY, INCLUDING, BUT NOT LIMITED TO, IMPLIED WARRANTIES OF
  18:../Libraries/CMSIS/Include/core_cmInstr.h ****  * MERCHANTABILITY AND FITNESS FOR A PARTICULAR PURPOSE APPLY TO THIS SOFTWARE.
  19:../Libraries/CMSIS/Include/core_cmInstr.h ****  * ARM SHALL NOT, IN ANY CIRCUMSTANCES, BE LIABLE FOR SPECIAL, INCIDENTAL, OR
  20:../Libraries/CMSIS/Include/core_cmInstr.h ****  * CONSEQUENTIAL DAMAGES, FOR ANY REASON WHATSOEVER.
  21:../Libraries/CMSIS/Include/core_cmInstr.h ****  *
  22:../Libraries/CMSIS/Include/core_cmInstr.h ****  ******************************************************************************/
  23:../Libraries/CMSIS/Include/core_cmInstr.h **** 
  24:../Libraries/CMSIS/Include/core_cmInstr.h **** #ifndef __CORE_CMINSTR_H
ARM GAS  C:\Users\admin\AppData\Local\Temp\cc095kAa.s 			page 7


  25:../Libraries/CMSIS/Include/core_cmInstr.h **** #define __CORE_CMINSTR_H
  26:../Libraries/CMSIS/Include/core_cmInstr.h **** 
  27:../Libraries/CMSIS/Include/core_cmInstr.h **** 
  28:../Libraries/CMSIS/Include/core_cmInstr.h **** /* ##########################  Core Instruction Access  ######################### */
  29:../Libraries/CMSIS/Include/core_cmInstr.h **** /** \defgroup CMSIS_Core_InstructionInterface CMSIS Core Instruction Interface
  30:../Libraries/CMSIS/Include/core_cmInstr.h ****   Access to dedicated instructions
  31:../Libraries/CMSIS/Include/core_cmInstr.h ****   @{
  32:../Libraries/CMSIS/Include/core_cmInstr.h **** */
  33:../Libraries/CMSIS/Include/core_cmInstr.h **** 
  34:../Libraries/CMSIS/Include/core_cmInstr.h **** #if   defined ( __CC_ARM ) /*------------------RealView Compiler -----------------*/
  35:../Libraries/CMSIS/Include/core_cmInstr.h **** /* ARM armcc specific functions */
  36:../Libraries/CMSIS/Include/core_cmInstr.h **** 
  37:../Libraries/CMSIS/Include/core_cmInstr.h **** #if (__ARMCC_VERSION < 400677)
  38:../Libraries/CMSIS/Include/core_cmInstr.h ****   #error "Please use ARM Compiler Toolchain V4.0.677 or later!"
  39:../Libraries/CMSIS/Include/core_cmInstr.h **** #endif
  40:../Libraries/CMSIS/Include/core_cmInstr.h **** 
  41:../Libraries/CMSIS/Include/core_cmInstr.h **** 
  42:../Libraries/CMSIS/Include/core_cmInstr.h **** /** \brief  No Operation
  43:../Libraries/CMSIS/Include/core_cmInstr.h **** 
  44:../Libraries/CMSIS/Include/core_cmInstr.h ****     No Operation does nothing. This instruction can be used for code alignment purposes.
  45:../Libraries/CMSIS/Include/core_cmInstr.h ****  */
  46:../Libraries/CMSIS/Include/core_cmInstr.h **** #define __NOP                             __nop
  47:../Libraries/CMSIS/Include/core_cmInstr.h **** 
  48:../Libraries/CMSIS/Include/core_cmInstr.h **** 
  49:../Libraries/CMSIS/Include/core_cmInstr.h **** /** \brief  Wait For Interrupt
  50:../Libraries/CMSIS/Include/core_cmInstr.h **** 
  51:../Libraries/CMSIS/Include/core_cmInstr.h ****     Wait For Interrupt is a hint instruction that suspends execution
  52:../Libraries/CMSIS/Include/core_cmInstr.h ****     until one of a number of events occurs.
  53:../Libraries/CMSIS/Include/core_cmInstr.h ****  */
  54:../Libraries/CMSIS/Include/core_cmInstr.h **** #define __WFI                             __wfi
  55:../Libraries/CMSIS/Include/core_cmInstr.h **** 
  56:../Libraries/CMSIS/Include/core_cmInstr.h **** 
  57:../Libraries/CMSIS/Include/core_cmInstr.h **** /** \brief  Wait For Event
  58:../Libraries/CMSIS/Include/core_cmInstr.h **** 
  59:../Libraries/CMSIS/Include/core_cmInstr.h ****     Wait For Event is a hint instruction that permits the processor to enter
  60:../Libraries/CMSIS/Include/core_cmInstr.h ****     a low-power state until one of a number of events occurs.
  61:../Libraries/CMSIS/Include/core_cmInstr.h ****  */
  62:../Libraries/CMSIS/Include/core_cmInstr.h **** #define __WFE                             __wfe
  63:../Libraries/CMSIS/Include/core_cmInstr.h **** 
  64:../Libraries/CMSIS/Include/core_cmInstr.h **** 
  65:../Libraries/CMSIS/Include/core_cmInstr.h **** /** \brief  Send Event
  66:../Libraries/CMSIS/Include/core_cmInstr.h **** 
  67:../Libraries/CMSIS/Include/core_cmInstr.h ****     Send Event is a hint instruction. It causes an event to be signaled to the CPU.
  68:../Libraries/CMSIS/Include/core_cmInstr.h ****  */
  69:../Libraries/CMSIS/Include/core_cmInstr.h **** #define __SEV                             __sev
  70:../Libraries/CMSIS/Include/core_cmInstr.h **** 
  71:../Libraries/CMSIS/Include/core_cmInstr.h **** 
  72:../Libraries/CMSIS/Include/core_cmInstr.h **** /** \brief  Instruction Synchronization Barrier
  73:../Libraries/CMSIS/Include/core_cmInstr.h **** 
  74:../Libraries/CMSIS/Include/core_cmInstr.h ****     Instruction Synchronization Barrier flushes the pipeline in the processor, 
  75:../Libraries/CMSIS/Include/core_cmInstr.h ****     so that all instructions following the ISB are fetched from cache or 
  76:../Libraries/CMSIS/Include/core_cmInstr.h ****     memory, after the instruction has been completed.
  77:../Libraries/CMSIS/Include/core_cmInstr.h ****  */
  78:../Libraries/CMSIS/Include/core_cmInstr.h **** #define __ISB()                           __isb(0xF)
  79:../Libraries/CMSIS/Include/core_cmInstr.h **** 
  80:../Libraries/CMSIS/Include/core_cmInstr.h **** 
  81:../Libraries/CMSIS/Include/core_cmInstr.h **** /** \brief  Data Synchronization Barrier
ARM GAS  C:\Users\admin\AppData\Local\Temp\cc095kAa.s 			page 8


  82:../Libraries/CMSIS/Include/core_cmInstr.h **** 
  83:../Libraries/CMSIS/Include/core_cmInstr.h ****     This function acts as a special kind of Data Memory Barrier. 
  84:../Libraries/CMSIS/Include/core_cmInstr.h ****     It completes when all explicit memory accesses before this instruction complete.
  85:../Libraries/CMSIS/Include/core_cmInstr.h ****  */
  86:../Libraries/CMSIS/Include/core_cmInstr.h **** #define __DSB()                           __dsb(0xF)
  87:../Libraries/CMSIS/Include/core_cmInstr.h **** 
  88:../Libraries/CMSIS/Include/core_cmInstr.h **** 
  89:../Libraries/CMSIS/Include/core_cmInstr.h **** /** \brief  Data Memory Barrier
  90:../Libraries/CMSIS/Include/core_cmInstr.h **** 
  91:../Libraries/CMSIS/Include/core_cmInstr.h ****     This function ensures the apparent order of the explicit memory operations before 
  92:../Libraries/CMSIS/Include/core_cmInstr.h ****     and after the instruction, without ensuring their completion.
  93:../Libraries/CMSIS/Include/core_cmInstr.h ****  */
  94:../Libraries/CMSIS/Include/core_cmInstr.h **** #define __DMB()                           __dmb(0xF)
  95:../Libraries/CMSIS/Include/core_cmInstr.h **** 
  96:../Libraries/CMSIS/Include/core_cmInstr.h **** 
  97:../Libraries/CMSIS/Include/core_cmInstr.h **** /** \brief  Reverse byte order (32 bit)
  98:../Libraries/CMSIS/Include/core_cmInstr.h **** 
  99:../Libraries/CMSIS/Include/core_cmInstr.h ****     This function reverses the byte order in integer value.
 100:../Libraries/CMSIS/Include/core_cmInstr.h **** 
 101:../Libraries/CMSIS/Include/core_cmInstr.h ****     \param [in]    value  Value to reverse
 102:../Libraries/CMSIS/Include/core_cmInstr.h ****     \return               Reversed value
 103:../Libraries/CMSIS/Include/core_cmInstr.h ****  */
 104:../Libraries/CMSIS/Include/core_cmInstr.h **** #define __REV                             __rev
 105:../Libraries/CMSIS/Include/core_cmInstr.h **** 
 106:../Libraries/CMSIS/Include/core_cmInstr.h **** 
 107:../Libraries/CMSIS/Include/core_cmInstr.h **** /** \brief  Reverse byte order (16 bit)
 108:../Libraries/CMSIS/Include/core_cmInstr.h **** 
 109:../Libraries/CMSIS/Include/core_cmInstr.h ****     This function reverses the byte order in two unsigned short values.
 110:../Libraries/CMSIS/Include/core_cmInstr.h **** 
 111:../Libraries/CMSIS/Include/core_cmInstr.h ****     \param [in]    value  Value to reverse
 112:../Libraries/CMSIS/Include/core_cmInstr.h ****     \return               Reversed value
 113:../Libraries/CMSIS/Include/core_cmInstr.h ****  */
 114:../Libraries/CMSIS/Include/core_cmInstr.h **** static __INLINE __ASM uint32_t __REV16(uint32_t value)
 115:../Libraries/CMSIS/Include/core_cmInstr.h **** {
 116:../Libraries/CMSIS/Include/core_cmInstr.h ****   rev16 r0, r0
 117:../Libraries/CMSIS/Include/core_cmInstr.h ****   bx lr
 118:../Libraries/CMSIS/Include/core_cmInstr.h **** }
 119:../Libraries/CMSIS/Include/core_cmInstr.h **** 
 120:../Libraries/CMSIS/Include/core_cmInstr.h **** 
 121:../Libraries/CMSIS/Include/core_cmInstr.h **** /** \brief  Reverse byte order in signed short value
 122:../Libraries/CMSIS/Include/core_cmInstr.h **** 
 123:../Libraries/CMSIS/Include/core_cmInstr.h ****     This function reverses the byte order in a signed short value with sign extension to integer.
 124:../Libraries/CMSIS/Include/core_cmInstr.h **** 
 125:../Libraries/CMSIS/Include/core_cmInstr.h ****     \param [in]    value  Value to reverse
 126:../Libraries/CMSIS/Include/core_cmInstr.h ****     \return               Reversed value
 127:../Libraries/CMSIS/Include/core_cmInstr.h ****  */
 128:../Libraries/CMSIS/Include/core_cmInstr.h **** static __INLINE __ASM int32_t __REVSH(int32_t value)
 129:../Libraries/CMSIS/Include/core_cmInstr.h **** {
 130:../Libraries/CMSIS/Include/core_cmInstr.h ****   revsh r0, r0
 131:../Libraries/CMSIS/Include/core_cmInstr.h ****   bx lr
 132:../Libraries/CMSIS/Include/core_cmInstr.h **** }
 133:../Libraries/CMSIS/Include/core_cmInstr.h **** 
 134:../Libraries/CMSIS/Include/core_cmInstr.h **** 
 135:../Libraries/CMSIS/Include/core_cmInstr.h **** #if       (__CORTEX_M >= 0x03)
 136:../Libraries/CMSIS/Include/core_cmInstr.h **** 
 137:../Libraries/CMSIS/Include/core_cmInstr.h **** /** \brief  Reverse bit order of value
 138:../Libraries/CMSIS/Include/core_cmInstr.h **** 
ARM GAS  C:\Users\admin\AppData\Local\Temp\cc095kAa.s 			page 9


 139:../Libraries/CMSIS/Include/core_cmInstr.h ****     This function reverses the bit order of the given value.
 140:../Libraries/CMSIS/Include/core_cmInstr.h **** 
 141:../Libraries/CMSIS/Include/core_cmInstr.h ****     \param [in]    value  Value to reverse
 142:../Libraries/CMSIS/Include/core_cmInstr.h ****     \return               Reversed value
 143:../Libraries/CMSIS/Include/core_cmInstr.h ****  */
 144:../Libraries/CMSIS/Include/core_cmInstr.h **** #define __RBIT                            __rbit
 145:../Libraries/CMSIS/Include/core_cmInstr.h **** 
 146:../Libraries/CMSIS/Include/core_cmInstr.h **** 
 147:../Libraries/CMSIS/Include/core_cmInstr.h **** /** \brief  LDR Exclusive (8 bit)
 148:../Libraries/CMSIS/Include/core_cmInstr.h **** 
 149:../Libraries/CMSIS/Include/core_cmInstr.h ****     This function performs a exclusive LDR command for 8 bit value.
 150:../Libraries/CMSIS/Include/core_cmInstr.h **** 
 151:../Libraries/CMSIS/Include/core_cmInstr.h ****     \param [in]    ptr  Pointer to data
 152:../Libraries/CMSIS/Include/core_cmInstr.h ****     \return             value of type uint8_t at (*ptr)
 153:../Libraries/CMSIS/Include/core_cmInstr.h ****  */
 154:../Libraries/CMSIS/Include/core_cmInstr.h **** #define __LDREXB(ptr)                     ((uint8_t ) __ldrex(ptr))
 155:../Libraries/CMSIS/Include/core_cmInstr.h **** 
 156:../Libraries/CMSIS/Include/core_cmInstr.h **** 
 157:../Libraries/CMSIS/Include/core_cmInstr.h **** /** \brief  LDR Exclusive (16 bit)
 158:../Libraries/CMSIS/Include/core_cmInstr.h **** 
 159:../Libraries/CMSIS/Include/core_cmInstr.h ****     This function performs a exclusive LDR command for 16 bit values.
 160:../Libraries/CMSIS/Include/core_cmInstr.h **** 
 161:../Libraries/CMSIS/Include/core_cmInstr.h ****     \param [in]    ptr  Pointer to data
 162:../Libraries/CMSIS/Include/core_cmInstr.h ****     \return        value of type uint16_t at (*ptr)
 163:../Libraries/CMSIS/Include/core_cmInstr.h ****  */
 164:../Libraries/CMSIS/Include/core_cmInstr.h **** #define __LDREXH(ptr)                     ((uint16_t) __ldrex(ptr))
 165:../Libraries/CMSIS/Include/core_cmInstr.h **** 
 166:../Libraries/CMSIS/Include/core_cmInstr.h **** 
 167:../Libraries/CMSIS/Include/core_cmInstr.h **** /** \brief  LDR Exclusive (32 bit)
 168:../Libraries/CMSIS/Include/core_cmInstr.h **** 
 169:../Libraries/CMSIS/Include/core_cmInstr.h ****     This function performs a exclusive LDR command for 32 bit values.
 170:../Libraries/CMSIS/Include/core_cmInstr.h **** 
 171:../Libraries/CMSIS/Include/core_cmInstr.h ****     \param [in]    ptr  Pointer to data
 172:../Libraries/CMSIS/Include/core_cmInstr.h ****     \return        value of type uint32_t at (*ptr)
 173:../Libraries/CMSIS/Include/core_cmInstr.h ****  */
 174:../Libraries/CMSIS/Include/core_cmInstr.h **** #define __LDREXW(ptr)                     ((uint32_t ) __ldrex(ptr))
 175:../Libraries/CMSIS/Include/core_cmInstr.h **** 
 176:../Libraries/CMSIS/Include/core_cmInstr.h **** 
 177:../Libraries/CMSIS/Include/core_cmInstr.h **** /** \brief  STR Exclusive (8 bit)
 178:../Libraries/CMSIS/Include/core_cmInstr.h **** 
 179:../Libraries/CMSIS/Include/core_cmInstr.h ****     This function performs a exclusive STR command for 8 bit values.
 180:../Libraries/CMSIS/Include/core_cmInstr.h **** 
 181:../Libraries/CMSIS/Include/core_cmInstr.h ****     \param [in]  value  Value to store
 182:../Libraries/CMSIS/Include/core_cmInstr.h ****     \param [in]    ptr  Pointer to location
 183:../Libraries/CMSIS/Include/core_cmInstr.h ****     \return          0  Function succeeded
 184:../Libraries/CMSIS/Include/core_cmInstr.h ****     \return          1  Function failed
 185:../Libraries/CMSIS/Include/core_cmInstr.h ****  */
 186:../Libraries/CMSIS/Include/core_cmInstr.h **** #define __STREXB(value, ptr)              __strex(value, ptr)
 187:../Libraries/CMSIS/Include/core_cmInstr.h **** 
 188:../Libraries/CMSIS/Include/core_cmInstr.h **** 
 189:../Libraries/CMSIS/Include/core_cmInstr.h **** /** \brief  STR Exclusive (16 bit)
 190:../Libraries/CMSIS/Include/core_cmInstr.h **** 
 191:../Libraries/CMSIS/Include/core_cmInstr.h ****     This function performs a exclusive STR command for 16 bit values.
 192:../Libraries/CMSIS/Include/core_cmInstr.h **** 
 193:../Libraries/CMSIS/Include/core_cmInstr.h ****     \param [in]  value  Value to store
 194:../Libraries/CMSIS/Include/core_cmInstr.h ****     \param [in]    ptr  Pointer to location
 195:../Libraries/CMSIS/Include/core_cmInstr.h ****     \return          0  Function succeeded
ARM GAS  C:\Users\admin\AppData\Local\Temp\cc095kAa.s 			page 10


 196:../Libraries/CMSIS/Include/core_cmInstr.h ****     \return          1  Function failed
 197:../Libraries/CMSIS/Include/core_cmInstr.h ****  */
 198:../Libraries/CMSIS/Include/core_cmInstr.h **** #define __STREXH(value, ptr)              __strex(value, ptr)
 199:../Libraries/CMSIS/Include/core_cmInstr.h **** 
 200:../Libraries/CMSIS/Include/core_cmInstr.h **** 
 201:../Libraries/CMSIS/Include/core_cmInstr.h **** /** \brief  STR Exclusive (32 bit)
 202:../Libraries/CMSIS/Include/core_cmInstr.h **** 
 203:../Libraries/CMSIS/Include/core_cmInstr.h ****     This function performs a exclusive STR command for 32 bit values.
 204:../Libraries/CMSIS/Include/core_cmInstr.h **** 
 205:../Libraries/CMSIS/Include/core_cmInstr.h ****     \param [in]  value  Value to store
 206:../Libraries/CMSIS/Include/core_cmInstr.h ****     \param [in]    ptr  Pointer to location
 207:../Libraries/CMSIS/Include/core_cmInstr.h ****     \return          0  Function succeeded
 208:../Libraries/CMSIS/Include/core_cmInstr.h ****     \return          1  Function failed
 209:../Libraries/CMSIS/Include/core_cmInstr.h ****  */
 210:../Libraries/CMSIS/Include/core_cmInstr.h **** #define __STREXW(value, ptr)              __strex(value, ptr)
 211:../Libraries/CMSIS/Include/core_cmInstr.h **** 
 212:../Libraries/CMSIS/Include/core_cmInstr.h **** 
 213:../Libraries/CMSIS/Include/core_cmInstr.h **** /** \brief  Remove the exclusive lock
 214:../Libraries/CMSIS/Include/core_cmInstr.h **** 
 215:../Libraries/CMSIS/Include/core_cmInstr.h ****     This function removes the exclusive lock which is created by LDREX.
 216:../Libraries/CMSIS/Include/core_cmInstr.h **** 
 217:../Libraries/CMSIS/Include/core_cmInstr.h ****  */
 218:../Libraries/CMSIS/Include/core_cmInstr.h **** #define __CLREX                           __clrex
 219:../Libraries/CMSIS/Include/core_cmInstr.h **** 
 220:../Libraries/CMSIS/Include/core_cmInstr.h **** 
 221:../Libraries/CMSIS/Include/core_cmInstr.h **** /** \brief  Signed Saturate
 222:../Libraries/CMSIS/Include/core_cmInstr.h **** 
 223:../Libraries/CMSIS/Include/core_cmInstr.h ****     This function saturates a signed value.
 224:../Libraries/CMSIS/Include/core_cmInstr.h **** 
 225:../Libraries/CMSIS/Include/core_cmInstr.h ****     \param [in]  value  Value to be saturated
 226:../Libraries/CMSIS/Include/core_cmInstr.h ****     \param [in]    sat  Bit position to saturate to (1..32)
 227:../Libraries/CMSIS/Include/core_cmInstr.h ****     \return             Saturated value
 228:../Libraries/CMSIS/Include/core_cmInstr.h ****  */
 229:../Libraries/CMSIS/Include/core_cmInstr.h **** #define __SSAT                            __ssat
 230:../Libraries/CMSIS/Include/core_cmInstr.h **** 
 231:../Libraries/CMSIS/Include/core_cmInstr.h **** 
 232:../Libraries/CMSIS/Include/core_cmInstr.h **** /** \brief  Unsigned Saturate
 233:../Libraries/CMSIS/Include/core_cmInstr.h **** 
 234:../Libraries/CMSIS/Include/core_cmInstr.h ****     This function saturates an unsigned value.
 235:../Libraries/CMSIS/Include/core_cmInstr.h **** 
 236:../Libraries/CMSIS/Include/core_cmInstr.h ****     \param [in]  value  Value to be saturated
 237:../Libraries/CMSIS/Include/core_cmInstr.h ****     \param [in]    sat  Bit position to saturate to (0..31)
 238:../Libraries/CMSIS/Include/core_cmInstr.h ****     \return             Saturated value
 239:../Libraries/CMSIS/Include/core_cmInstr.h ****  */
 240:../Libraries/CMSIS/Include/core_cmInstr.h **** #define __USAT                            __usat
 241:../Libraries/CMSIS/Include/core_cmInstr.h **** 
 242:../Libraries/CMSIS/Include/core_cmInstr.h **** 
 243:../Libraries/CMSIS/Include/core_cmInstr.h **** /** \brief  Count leading zeros
 244:../Libraries/CMSIS/Include/core_cmInstr.h **** 
 245:../Libraries/CMSIS/Include/core_cmInstr.h ****     This function counts the number of leading zeros of a data value.
 246:../Libraries/CMSIS/Include/core_cmInstr.h **** 
 247:../Libraries/CMSIS/Include/core_cmInstr.h ****     \param [in]  value  Value to count the leading zeros
 248:../Libraries/CMSIS/Include/core_cmInstr.h ****     \return             number of leading zeros in value
 249:../Libraries/CMSIS/Include/core_cmInstr.h ****  */
 250:../Libraries/CMSIS/Include/core_cmInstr.h **** #define __CLZ                             __clz 
 251:../Libraries/CMSIS/Include/core_cmInstr.h **** 
 252:../Libraries/CMSIS/Include/core_cmInstr.h **** #endif /* (__CORTEX_M >= 0x03) */
ARM GAS  C:\Users\admin\AppData\Local\Temp\cc095kAa.s 			page 11


 253:../Libraries/CMSIS/Include/core_cmInstr.h **** 
 254:../Libraries/CMSIS/Include/core_cmInstr.h **** 
 255:../Libraries/CMSIS/Include/core_cmInstr.h **** 
 256:../Libraries/CMSIS/Include/core_cmInstr.h **** #elif defined ( __ICCARM__ ) /*------------------ ICC Compiler -------------------*/
 257:../Libraries/CMSIS/Include/core_cmInstr.h **** /* IAR iccarm specific functions */
 258:../Libraries/CMSIS/Include/core_cmInstr.h **** 
 259:../Libraries/CMSIS/Include/core_cmInstr.h **** #include <cmsis_iar.h>
 260:../Libraries/CMSIS/Include/core_cmInstr.h **** 
 261:../Libraries/CMSIS/Include/core_cmInstr.h **** 
 262:../Libraries/CMSIS/Include/core_cmInstr.h **** #elif defined ( __GNUC__ ) /*------------------ GNU Compiler ---------------------*/
 263:../Libraries/CMSIS/Include/core_cmInstr.h **** /* GNU gcc specific functions */
 264:../Libraries/CMSIS/Include/core_cmInstr.h **** 
 265:../Libraries/CMSIS/Include/core_cmInstr.h **** /** \brief  No Operation
 266:../Libraries/CMSIS/Include/core_cmInstr.h **** 
 267:../Libraries/CMSIS/Include/core_cmInstr.h ****     No Operation does nothing. This instruction can be used for code alignment purposes.
 268:../Libraries/CMSIS/Include/core_cmInstr.h ****  */
 269:../Libraries/CMSIS/Include/core_cmInstr.h **** __attribute__( ( always_inline ) ) static __INLINE void __NOP(void)
 270:../Libraries/CMSIS/Include/core_cmInstr.h **** {
 271:../Libraries/CMSIS/Include/core_cmInstr.h ****   __ASM volatile ("nop");
 272:../Libraries/CMSIS/Include/core_cmInstr.h **** }
 273:../Libraries/CMSIS/Include/core_cmInstr.h **** 
 274:../Libraries/CMSIS/Include/core_cmInstr.h **** 
 275:../Libraries/CMSIS/Include/core_cmInstr.h **** /** \brief  Wait For Interrupt
 276:../Libraries/CMSIS/Include/core_cmInstr.h **** 
 277:../Libraries/CMSIS/Include/core_cmInstr.h ****     Wait For Interrupt is a hint instruction that suspends execution
 278:../Libraries/CMSIS/Include/core_cmInstr.h ****     until one of a number of events occurs.
 279:../Libraries/CMSIS/Include/core_cmInstr.h ****  */
 280:../Libraries/CMSIS/Include/core_cmInstr.h **** __attribute__( ( always_inline ) ) static __INLINE void __WFI(void)
 281:../Libraries/CMSIS/Include/core_cmInstr.h **** {
 282:../Libraries/CMSIS/Include/core_cmInstr.h ****   __ASM volatile ("wfi");
 283:../Libraries/CMSIS/Include/core_cmInstr.h **** }
 284:../Libraries/CMSIS/Include/core_cmInstr.h **** 
 285:../Libraries/CMSIS/Include/core_cmInstr.h **** 
 286:../Libraries/CMSIS/Include/core_cmInstr.h **** /** \brief  Wait For Event
 287:../Libraries/CMSIS/Include/core_cmInstr.h **** 
 288:../Libraries/CMSIS/Include/core_cmInstr.h ****     Wait For Event is a hint instruction that permits the processor to enter
 289:../Libraries/CMSIS/Include/core_cmInstr.h ****     a low-power state until one of a number of events occurs.
 290:../Libraries/CMSIS/Include/core_cmInstr.h ****  */
 291:../Libraries/CMSIS/Include/core_cmInstr.h **** __attribute__( ( always_inline ) ) static __INLINE void __WFE(void)
 292:../Libraries/CMSIS/Include/core_cmInstr.h **** {
 293:../Libraries/CMSIS/Include/core_cmInstr.h ****   __ASM volatile ("wfe");
 294:../Libraries/CMSIS/Include/core_cmInstr.h **** }
 295:../Libraries/CMSIS/Include/core_cmInstr.h **** 
 296:../Libraries/CMSIS/Include/core_cmInstr.h **** 
 297:../Libraries/CMSIS/Include/core_cmInstr.h **** /** \brief  Send Event
 298:../Libraries/CMSIS/Include/core_cmInstr.h **** 
 299:../Libraries/CMSIS/Include/core_cmInstr.h ****     Send Event is a hint instruction. It causes an event to be signaled to the CPU.
 300:../Libraries/CMSIS/Include/core_cmInstr.h ****  */
 301:../Libraries/CMSIS/Include/core_cmInstr.h **** __attribute__( ( always_inline ) ) static __INLINE void __SEV(void)
 302:../Libraries/CMSIS/Include/core_cmInstr.h **** {
 303:../Libraries/CMSIS/Include/core_cmInstr.h ****   __ASM volatile ("sev");
 304:../Libraries/CMSIS/Include/core_cmInstr.h **** }
 305:../Libraries/CMSIS/Include/core_cmInstr.h **** 
 306:../Libraries/CMSIS/Include/core_cmInstr.h **** 
 307:../Libraries/CMSIS/Include/core_cmInstr.h **** /** \brief  Instruction Synchronization Barrier
 308:../Libraries/CMSIS/Include/core_cmInstr.h **** 
 309:../Libraries/CMSIS/Include/core_cmInstr.h ****     Instruction Synchronization Barrier flushes the pipeline in the processor, 
ARM GAS  C:\Users\admin\AppData\Local\Temp\cc095kAa.s 			page 12


 310:../Libraries/CMSIS/Include/core_cmInstr.h ****     so that all instructions following the ISB are fetched from cache or 
 311:../Libraries/CMSIS/Include/core_cmInstr.h ****     memory, after the instruction has been completed.
 312:../Libraries/CMSIS/Include/core_cmInstr.h ****  */
 313:../Libraries/CMSIS/Include/core_cmInstr.h **** __attribute__( ( always_inline ) ) static __INLINE void __ISB(void)
 314:../Libraries/CMSIS/Include/core_cmInstr.h **** {
 315:../Libraries/CMSIS/Include/core_cmInstr.h ****   __ASM volatile ("isb");
 316:../Libraries/CMSIS/Include/core_cmInstr.h **** }
 317:../Libraries/CMSIS/Include/core_cmInstr.h **** 
 318:../Libraries/CMSIS/Include/core_cmInstr.h **** 
 319:../Libraries/CMSIS/Include/core_cmInstr.h **** /** \brief  Data Synchronization Barrier
 320:../Libraries/CMSIS/Include/core_cmInstr.h **** 
 321:../Libraries/CMSIS/Include/core_cmInstr.h ****     This function acts as a special kind of Data Memory Barrier. 
 322:../Libraries/CMSIS/Include/core_cmInstr.h ****     It completes when all explicit memory accesses before this instruction complete.
 323:../Libraries/CMSIS/Include/core_cmInstr.h ****  */
 324:../Libraries/CMSIS/Include/core_cmInstr.h **** __attribute__( ( always_inline ) ) static __INLINE void __DSB(void)
 325:../Libraries/CMSIS/Include/core_cmInstr.h **** {
 326:../Libraries/CMSIS/Include/core_cmInstr.h ****   __ASM volatile ("dsb");
 327:../Libraries/CMSIS/Include/core_cmInstr.h **** }
 328:../Libraries/CMSIS/Include/core_cmInstr.h **** 
 329:../Libraries/CMSIS/Include/core_cmInstr.h **** 
 330:../Libraries/CMSIS/Include/core_cmInstr.h **** /** \brief  Data Memory Barrier
 331:../Libraries/CMSIS/Include/core_cmInstr.h **** 
 332:../Libraries/CMSIS/Include/core_cmInstr.h ****     This function ensures the apparent order of the explicit memory operations before 
 333:../Libraries/CMSIS/Include/core_cmInstr.h ****     and after the instruction, without ensuring their completion.
 334:../Libraries/CMSIS/Include/core_cmInstr.h ****  */
 335:../Libraries/CMSIS/Include/core_cmInstr.h **** __attribute__( ( always_inline ) ) static __INLINE void __DMB(void)
 336:../Libraries/CMSIS/Include/core_cmInstr.h **** {
 337:../Libraries/CMSIS/Include/core_cmInstr.h ****   __ASM volatile ("dmb");
 338:../Libraries/CMSIS/Include/core_cmInstr.h **** }
 339:../Libraries/CMSIS/Include/core_cmInstr.h **** 
 340:../Libraries/CMSIS/Include/core_cmInstr.h **** 
 341:../Libraries/CMSIS/Include/core_cmInstr.h **** /** \brief  Reverse byte order (32 bit)
 342:../Libraries/CMSIS/Include/core_cmInstr.h **** 
 343:../Libraries/CMSIS/Include/core_cmInstr.h ****     This function reverses the byte order in integer value.
 344:../Libraries/CMSIS/Include/core_cmInstr.h **** 
 345:../Libraries/CMSIS/Include/core_cmInstr.h ****     \param [in]    value  Value to reverse
 346:../Libraries/CMSIS/Include/core_cmInstr.h ****     \return               Reversed value
 347:../Libraries/CMSIS/Include/core_cmInstr.h ****  */
 348:../Libraries/CMSIS/Include/core_cmInstr.h **** __attribute__( ( always_inline ) ) static __INLINE uint32_t __REV(uint32_t value)
 181              		.loc 2 348 61 view .LVU27
 182              	.LBB15:
 349:../Libraries/CMSIS/Include/core_cmInstr.h **** {
 350:../Libraries/CMSIS/Include/core_cmInstr.h ****   uint32_t result;
 183              		.loc 2 350 3 view .LVU28
 351:../Libraries/CMSIS/Include/core_cmInstr.h ****   
 352:../Libraries/CMSIS/Include/core_cmInstr.h ****   __ASM volatile ("rev %0, %1" : "=r" (result) : "r" (value) );
 184              		.loc 2 352 3 view .LVU29
 185 003a 2368     		ldr	r3, [r4]	@ MEM[(uint32_t *)Key_29(D)], MEM[(uint32_t *)Key_29(D)]
 186              		.syntax unified
 187              	@ 352 "../Libraries/CMSIS/Include/core_cmInstr.h" 1
 188 003c 1BBA     		rev r3, r3	@ result, MEM[(uint32_t *)Key_29(D)]
 189              	@ 0 "" 2
 190              	.LVL5:
 353:../Libraries/CMSIS/Include/core_cmInstr.h ****   return(result);
 191              		.loc 2 353 3 view .LVU30
 192              		.loc 2 353 3 is_stmt 0 view .LVU31
 193              		.thumb
ARM GAS  C:\Users\admin\AppData\Local\Temp\cc095kAa.s 			page 13


 194              		.syntax unified
 195              	.LBE15:
 196              	.LBE14:
 197              	@ ../Libraries/STM32F4xx_StdPeriph_Driver/src/stm32f4xx_cryp_des.c:125:   DES_CRYP_KeyInitStructure
 198              		.loc 1 125 43 view .LVU32
 199 003e 0693     		str	r3, [sp, #24]	@ result, DES_CRYP_KeyInitStructure.CRYP_Key1Left
 126:../Libraries/STM32F4xx_StdPeriph_Driver/src/stm32f4xx_cryp_des.c ****   keyaddr+=4;
 200              		.loc 1 126 3 is_stmt 1 view .LVU33
 201              	.LVL6:
 127:../Libraries/STM32F4xx_StdPeriph_Driver/src/stm32f4xx_cryp_des.c ****   DES_CRYP_KeyInitStructure.CRYP_Key1Right= __REV(*(uint32_t*)(keyaddr));
 202              		.loc 1 127 3 view .LVU34
 203              	.LBB16:
 204              	.LBI16:
 348:../Libraries/CMSIS/Include/core_cmInstr.h **** {
 205              		.loc 2 348 61 view .LVU35
 206              	.LBB17:
 350:../Libraries/CMSIS/Include/core_cmInstr.h ****   
 207              		.loc 2 350 3 view .LVU36
 352:../Libraries/CMSIS/Include/core_cmInstr.h ****   return(result);
 208              		.loc 2 352 3 view .LVU37
 209 0040 6368     		ldr	r3, [r4, #4]	@ *keyaddr.1_2, *keyaddr.1_2
 210              		.syntax unified
 211              	@ 352 "../Libraries/CMSIS/Include/core_cmInstr.h" 1
 212 0042 1BBA     		rev r3, r3	@ result, *keyaddr.1_2
 213              	@ 0 "" 2
 214              	.LVL7:
 215              		.loc 2 353 3 view .LVU38
 216              		.loc 2 353 3 is_stmt 0 view .LVU39
 217              		.thumb
 218              		.syntax unified
 219              	.LBE17:
 220              	.LBE16:
 221              	@ ../Libraries/STM32F4xx_StdPeriph_Driver/src/stm32f4xx_cryp_des.c:128:   CRYP_KeyInit(& DES_CRYP_K
 128:../Libraries/STM32F4xx_StdPeriph_Driver/src/stm32f4xx_cryp_des.c ****   CRYP_KeyInit(& DES_CRYP_KeyInitStructure);
 222              		.loc 1 128 3 view .LVU40
 223 0044 04A8     		add	r0, sp, #16	@ tmp178,,
 224              	@ ../Libraries/STM32F4xx_StdPeriph_Driver/src/stm32f4xx_cryp_des.c:127:   DES_CRYP_KeyInitStructure
 127:../Libraries/STM32F4xx_StdPeriph_Driver/src/stm32f4xx_cryp_des.c ****   CRYP_KeyInit(& DES_CRYP_KeyInitStructure);
 225              		.loc 1 127 43 view .LVU41
 226 0046 0793     		str	r3, [sp, #28]	@ result, DES_CRYP_KeyInitStructure.CRYP_Key1Right
 227              		.loc 1 128 3 is_stmt 1 view .LVU42
 228 0048 FFF7FEFF 		bl	CRYP_KeyInit		@
 229              	.LVL8:
 129:../Libraries/STM32F4xx_StdPeriph_Driver/src/stm32f4xx_cryp_des.c **** 
 130:../Libraries/STM32F4xx_StdPeriph_Driver/src/stm32f4xx_cryp_des.c ****   /* Flush IN/OUT FIFO */
 131:../Libraries/STM32F4xx_StdPeriph_Driver/src/stm32f4xx_cryp_des.c ****   CRYP_FIFOFlush();
 230              		.loc 1 131 3 view .LVU43
 231 004c FFF7FEFF 		bl	CRYP_FIFOFlush		@
 232              	.LVL9:
 132:../Libraries/STM32F4xx_StdPeriph_Driver/src/stm32f4xx_cryp_des.c **** 
 133:../Libraries/STM32F4xx_StdPeriph_Driver/src/stm32f4xx_cryp_des.c ****   /* Enable Crypto processor */
 134:../Libraries/STM32F4xx_StdPeriph_Driver/src/stm32f4xx_cryp_des.c ****   CRYP_Cmd(ENABLE);
 233              		.loc 1 134 3 view .LVU44
 234 0050 0120     		movs	r0, #1	@,
 235 0052 FFF7FEFF 		bl	CRYP_Cmd		@
 236              	.LVL10:
 135:../Libraries/STM32F4xx_StdPeriph_Driver/src/stm32f4xx_cryp_des.c **** 
ARM GAS  C:\Users\admin\AppData\Local\Temp\cc095kAa.s 			page 14


 136:../Libraries/STM32F4xx_StdPeriph_Driver/src/stm32f4xx_cryp_des.c ****   for(i=0; ((i<Ilength) && (status != ERROR)); i+=8)
 237              		.loc 1 136 3 view .LVU45
 238              		.loc 1 136 12 view .LVU46
 239              	@ ../Libraries/STM32F4xx_StdPeriph_Driver/src/stm32f4xx_cryp_des.c:136:   for(i=0; ((i<Ilength) && 
 240              		.loc 1 136 3 is_stmt 0 view .LVU47
 241 0056 9FB3     		cbz	r7, .L3	@ Ilength,
 242 0058 6FF00703 		mvn	r3, #7	@ tmp167,
 243 005c 08F10804 		add	r4, r8, #8	@ ivtmp.27, Input,
 244              	.LVL11:
 245              		.loc 1 136 3 view .LVU48
 246 0060 0835     		adds	r5, r5, #8	@ ivtmp.28, Output,
 247              	.LVL12:
 248              		.loc 1 136 3 view .LVU49
 249 0062 A3EB0808 		sub	r8, r3, r8	@ tmp168, tmp167, Input
 250              	.LVL13:
 251              	.L8:
 137:../Libraries/STM32F4xx_StdPeriph_Driver/src/stm32f4xx_cryp_des.c ****   {
 138:../Libraries/STM32F4xx_StdPeriph_Driver/src/stm32f4xx_cryp_des.c **** 
 139:../Libraries/STM32F4xx_StdPeriph_Driver/src/stm32f4xx_cryp_des.c ****     /* Write the Input block in the Input FIFO */
 140:../Libraries/STM32F4xx_StdPeriph_Driver/src/stm32f4xx_cryp_des.c ****     CRYP_DataIn(*(uint32_t*)(inputaddr));
 252              		.loc 1 140 5 is_stmt 1 view .LVU50
 253 0066 54F8080C 		ldr	r0, [r4, #-8]	@, MEM[base: _74, offset: 4294967288B]
 254 006a FFF7FEFF 		bl	CRYP_DataIn		@
 255              	.LVL14:
 141:../Libraries/STM32F4xx_StdPeriph_Driver/src/stm32f4xx_cryp_des.c ****     inputaddr+=4;
 256              		.loc 1 141 5 view .LVU51
 142:../Libraries/STM32F4xx_StdPeriph_Driver/src/stm32f4xx_cryp_des.c ****     CRYP_DataIn(*(uint32_t*)(inputaddr));
 257              		.loc 1 142 5 view .LVU52
 258 006e 54F8040C 		ldr	r0, [r4, #-4]	@, MEM[base: _74, offset: 4294967292B]
 259 0072 FFF7FEFF 		bl	CRYP_DataIn		@
 260              	.LVL15:
 143:../Libraries/STM32F4xx_StdPeriph_Driver/src/stm32f4xx_cryp_des.c ****     inputaddr+=4;
 261              		.loc 1 143 5 view .LVU53
 144:../Libraries/STM32F4xx_StdPeriph_Driver/src/stm32f4xx_cryp_des.c **** 
 145:../Libraries/STM32F4xx_StdPeriph_Driver/src/stm32f4xx_cryp_des.c **** /* Wait until the complete message has been processed */
 146:../Libraries/STM32F4xx_StdPeriph_Driver/src/stm32f4xx_cryp_des.c ****     counter = 0;
 262              		.loc 1 146 5 view .LVU54
 263              	@ ../Libraries/STM32F4xx_StdPeriph_Driver/src/stm32f4xx_cryp_des.c:146:     counter = 0;
 264              		.loc 1 146 13 is_stmt 0 view .LVU55
 265 0076 0196     		str	r6, [sp, #4]	@ tmp144, counter
 266 0078 00E0     		b	.L5		@
 267              	.LVL16:
 268              	.L18:
 269              	@ ../Libraries/STM32F4xx_StdPeriph_Driver/src/stm32f4xx_cryp_des.c:151:     }while ((counter != DES
 147:../Libraries/STM32F4xx_StdPeriph_Driver/src/stm32f4xx_cryp_des.c ****     do
 148:../Libraries/STM32F4xx_StdPeriph_Driver/src/stm32f4xx_cryp_des.c ****     {
 149:../Libraries/STM32F4xx_StdPeriph_Driver/src/stm32f4xx_cryp_des.c ****       busystatus = CRYP_GetFlagStatus(CRYP_FLAG_BUSY);
 150:../Libraries/STM32F4xx_StdPeriph_Driver/src/stm32f4xx_cryp_des.c ****       counter++;
 151:../Libraries/STM32F4xx_StdPeriph_Driver/src/stm32f4xx_cryp_des.c ****     }while ((counter != DESBUSY_TIMEOUT) && (busystatus != RESET));
 270              		.loc 1 151 42 discriminator 1 view .LVU56
 271 007a 90B1     		cbz	r0, .L6	@ tmp160,
 272              	.LVL17:
 273              	.L5:
 147:../Libraries/STM32F4xx_StdPeriph_Driver/src/stm32f4xx_cryp_des.c ****     do
 274              		.loc 1 147 5 is_stmt 1 discriminator 2 view .LVU57
 149:../Libraries/STM32F4xx_StdPeriph_Driver/src/stm32f4xx_cryp_des.c ****       counter++;
 275              		.loc 1 149 7 discriminator 2 view .LVU58
ARM GAS  C:\Users\admin\AppData\Local\Temp\cc095kAa.s 			page 15


 276              	@ ../Libraries/STM32F4xx_StdPeriph_Driver/src/stm32f4xx_cryp_des.c:149:       busystatus = CRYP_Get
 149:../Libraries/STM32F4xx_StdPeriph_Driver/src/stm32f4xx_cryp_des.c ****       counter++;
 277              		.loc 1 149 20 is_stmt 0 discriminator 2 view .LVU59
 278 007c 1020     		movs	r0, #16	@,
 279 007e FFF7FEFF 		bl	CRYP_GetFlagStatus		@
 280              	.LVL18:
 281              	@ ../Libraries/STM32F4xx_StdPeriph_Driver/src/stm32f4xx_cryp_des.c:150:       counter++;
 150:../Libraries/STM32F4xx_StdPeriph_Driver/src/stm32f4xx_cryp_des.c ****     }while ((counter != DESBUSY_TIMEOUT) && (busystatus != RESET));
 282              		.loc 1 150 14 discriminator 2 view .LVU60
 283 0082 019A     		ldr	r2, [sp, #4]	@ counter.4_9, counter
 284              	.LVL19:
 150:../Libraries/STM32F4xx_StdPeriph_Driver/src/stm32f4xx_cryp_des.c ****     }while ((counter != DESBUSY_TIMEOUT) && (busystatus != RESET));
 285              		.loc 1 150 7 is_stmt 1 discriminator 2 view .LVU61
 286              	@ ../Libraries/STM32F4xx_StdPeriph_Driver/src/stm32f4xx_cryp_des.c:150:       counter++;
 150:../Libraries/STM32F4xx_StdPeriph_Driver/src/stm32f4xx_cryp_des.c ****     }while ((counter != DESBUSY_TIMEOUT) && (busystatus != RESET));
 287              		.loc 1 150 14 is_stmt 0 discriminator 2 view .LVU62
 288 0084 0132     		adds	r2, r2, #1	@ _10, counter.4_9,
 289 0086 0192     		str	r2, [sp, #4]	@ _10, counter
 290              		.loc 1 151 12 is_stmt 1 discriminator 2 view .LVU63
 291              	@ ../Libraries/STM32F4xx_StdPeriph_Driver/src/stm32f4xx_cryp_des.c:151:     }while ((counter != DES
 292              		.loc 1 151 22 is_stmt 0 discriminator 2 view .LVU64
 293 0088 019B     		ldr	r3, [sp, #4]	@ counter.5_11, counter
 294              	@ ../Libraries/STM32F4xx_StdPeriph_Driver/src/stm32f4xx_cryp_des.c:151:     }while ((counter != DES
 295              		.loc 1 151 5 discriminator 2 view .LVU65
 296 008a B3F5803F 		cmp	r3, #65536	@ counter.5_11,
 297 008e F4D1     		bne	.L18		@,
 152:../Libraries/STM32F4xx_StdPeriph_Driver/src/stm32f4xx_cryp_des.c **** 
 153:../Libraries/STM32F4xx_StdPeriph_Driver/src/stm32f4xx_cryp_des.c ****     if (busystatus != RESET)
 298              		.loc 1 153 5 is_stmt 1 view .LVU66
 299              	@ ../Libraries/STM32F4xx_StdPeriph_Driver/src/stm32f4xx_cryp_des.c:153:     if (busystatus != RESET
 300              		.loc 1 153 8 is_stmt 0 view .LVU67
 301 0090 38B1     		cbz	r0, .L6	@ tmp160,
 302              	@ ../Libraries/STM32F4xx_StdPeriph_Driver/src/stm32f4xx_cryp_des.c:155:        status = ERROR;
 154:../Libraries/STM32F4xx_StdPeriph_Driver/src/stm32f4xx_cryp_des.c ****    {
 155:../Libraries/STM32F4xx_StdPeriph_Driver/src/stm32f4xx_cryp_des.c ****        status = ERROR;
 303              		.loc 1 155 15 view .LVU68
 304 0092 0024     		movs	r4, #0	@ <retval>,
 305              	.LVL20:
 306              	.L7:
 156:../Libraries/STM32F4xx_StdPeriph_Driver/src/stm32f4xx_cryp_des.c ****     }
 157:../Libraries/STM32F4xx_StdPeriph_Driver/src/stm32f4xx_cryp_des.c ****     else
 158:../Libraries/STM32F4xx_StdPeriph_Driver/src/stm32f4xx_cryp_des.c ****     {
 159:../Libraries/STM32F4xx_StdPeriph_Driver/src/stm32f4xx_cryp_des.c **** 
 160:../Libraries/STM32F4xx_StdPeriph_Driver/src/stm32f4xx_cryp_des.c ****       /* Read the Output block from the Output FIFO */
 161:../Libraries/STM32F4xx_StdPeriph_Driver/src/stm32f4xx_cryp_des.c ****       *(uint32_t*)(outputaddr) = CRYP_DataOut();
 162:../Libraries/STM32F4xx_StdPeriph_Driver/src/stm32f4xx_cryp_des.c ****       outputaddr+=4;
 163:../Libraries/STM32F4xx_StdPeriph_Driver/src/stm32f4xx_cryp_des.c ****       *(uint32_t*)(outputaddr) = CRYP_DataOut();
 164:../Libraries/STM32F4xx_StdPeriph_Driver/src/stm32f4xx_cryp_des.c ****       outputaddr+=4;
 165:../Libraries/STM32F4xx_StdPeriph_Driver/src/stm32f4xx_cryp_des.c ****     }
 166:../Libraries/STM32F4xx_StdPeriph_Driver/src/stm32f4xx_cryp_des.c ****   }
 167:../Libraries/STM32F4xx_StdPeriph_Driver/src/stm32f4xx_cryp_des.c **** 
 168:../Libraries/STM32F4xx_StdPeriph_Driver/src/stm32f4xx_cryp_des.c ****   /* Disable Crypto */
 169:../Libraries/STM32F4xx_StdPeriph_Driver/src/stm32f4xx_cryp_des.c ****   CRYP_Cmd(DISABLE);
 307              		.loc 1 169 3 is_stmt 1 view .LVU69
 308 0094 0020     		movs	r0, #0	@,
 309 0096 FFF7FEFF 		bl	CRYP_Cmd		@
 310              	.LVL21:
ARM GAS  C:\Users\admin\AppData\Local\Temp\cc095kAa.s 			page 16


 170:../Libraries/STM32F4xx_StdPeriph_Driver/src/stm32f4xx_cryp_des.c **** 
 171:../Libraries/STM32F4xx_StdPeriph_Driver/src/stm32f4xx_cryp_des.c ****   return status; 
 311              		.loc 1 171 3 view .LVU70
 312              	@ ../Libraries/STM32F4xx_StdPeriph_Driver/src/stm32f4xx_cryp_des.c:172: }
 172:../Libraries/STM32F4xx_StdPeriph_Driver/src/stm32f4xx_cryp_des.c **** }
 313              		.loc 1 172 1 is_stmt 0 view .LVU71
 314 009a 2046     		mov	r0, r4	@, <retval>
 315 009c 0DB0     		add	sp, sp, #52	@,,
 316              		.cfi_remember_state
 317              		.cfi_def_cfa_offset 28
 318              		@ sp needed	@
 319 009e BDE8F083 		pop	{r4, r5, r6, r7, r8, r9, pc}	@
 320              	.LVL22:
 321              	.L6:
 322              		.cfi_restore_state
 161:../Libraries/STM32F4xx_StdPeriph_Driver/src/stm32f4xx_cryp_des.c ****       outputaddr+=4;
 323              		.loc 1 161 7 is_stmt 1 view .LVU72
 324              	@ ../Libraries/STM32F4xx_StdPeriph_Driver/src/stm32f4xx_cryp_des.c:161:       *(uint32_t*)(outputad
 161:../Libraries/STM32F4xx_StdPeriph_Driver/src/stm32f4xx_cryp_des.c ****       outputaddr+=4;
 325              		.loc 1 161 34 is_stmt 0 view .LVU73
 326 00a2 FFF7FEFF 		bl	CRYP_DataOut		@
 327              	.LVL23:
 328              	@ ../Libraries/STM32F4xx_StdPeriph_Driver/src/stm32f4xx_cryp_des.c:161:       *(uint32_t*)(outputad
 161:../Libraries/STM32F4xx_StdPeriph_Driver/src/stm32f4xx_cryp_des.c ****       outputaddr+=4;
 329              		.loc 1 161 32 view .LVU74
 330 00a6 45F8080C 		str	r0, [r5, #-8]	@ tmp174, MEM[base: _17, offset: 4294967288B]
 162:../Libraries/STM32F4xx_StdPeriph_Driver/src/stm32f4xx_cryp_des.c ****       *(uint32_t*)(outputaddr) = CRYP_DataOut();
 331              		.loc 1 162 7 is_stmt 1 view .LVU75
 332              	.LVL24:
 163:../Libraries/STM32F4xx_StdPeriph_Driver/src/stm32f4xx_cryp_des.c ****       outputaddr+=4;
 333              		.loc 1 163 7 view .LVU76
 334              	@ ../Libraries/STM32F4xx_StdPeriph_Driver/src/stm32f4xx_cryp_des.c:163:       *(uint32_t*)(outputad
 163:../Libraries/STM32F4xx_StdPeriph_Driver/src/stm32f4xx_cryp_des.c ****       outputaddr+=4;
 335              		.loc 1 163 34 is_stmt 0 view .LVU77
 336 00aa FFF7FEFF 		bl	CRYP_DataOut		@
 337              	.LVL25:
 338              	@ ../Libraries/STM32F4xx_StdPeriph_Driver/src/stm32f4xx_cryp_des.c:136:   for(i=0; ((i<Ilength) && 
 136:../Libraries/STM32F4xx_StdPeriph_Driver/src/stm32f4xx_cryp_des.c ****   {
 339              		.loc 1 136 3 view .LVU78
 340 00ae 0834     		adds	r4, r4, #8	@ ivtmp.27, ivtmp.27,
 341              	.LVL26:
 136:../Libraries/STM32F4xx_StdPeriph_Driver/src/stm32f4xx_cryp_des.c ****   {
 342              		.loc 1 136 3 view .LVU79
 343 00b0 08EB0403 		add	r3, r8, r4	@ i, tmp168, ivtmp.27
 344 00b4 9F42     		cmp	r7, r3	@ Ilength, i
 345              	@ ../Libraries/STM32F4xx_StdPeriph_Driver/src/stm32f4xx_cryp_des.c:163:       *(uint32_t*)(outputad
 163:../Libraries/STM32F4xx_StdPeriph_Driver/src/stm32f4xx_cryp_des.c ****       outputaddr+=4;
 346              		.loc 1 163 32 view .LVU80
 347 00b6 45F8040C 		str	r0, [r5, #-4]	@ tmp175, MEM[base: _17, offset: 4294967292B]
 164:../Libraries/STM32F4xx_StdPeriph_Driver/src/stm32f4xx_cryp_des.c ****     }
 348              		.loc 1 164 7 is_stmt 1 view .LVU81
 349              	.LVL27:
 136:../Libraries/STM32F4xx_StdPeriph_Driver/src/stm32f4xx_cryp_des.c ****   {
 350              		.loc 1 136 48 view .LVU82
 136:../Libraries/STM32F4xx_StdPeriph_Driver/src/stm32f4xx_cryp_des.c ****   {
 351              		.loc 1 136 12 view .LVU83
 352              	@ ../Libraries/STM32F4xx_StdPeriph_Driver/src/stm32f4xx_cryp_des.c:136:   for(i=0; ((i<Ilength) && 
ARM GAS  C:\Users\admin\AppData\Local\Temp\cc095kAa.s 			page 17


 136:../Libraries/STM32F4xx_StdPeriph_Driver/src/stm32f4xx_cryp_des.c ****   {
 353              		.loc 1 136 3 is_stmt 0 view .LVU84
 354 00ba 05F10805 		add	r5, r5, #8	@ ivtmp.28, ivtmp.28,
 355 00be D2D8     		bhi	.L8		@,
 356              	.LVL28:
 357              	.L3:
 358              	@ ../Libraries/STM32F4xx_StdPeriph_Driver/src/stm32f4xx_cryp_des.c:117:      DES_CRYP_InitStructure
 117:../Libraries/STM32F4xx_StdPeriph_Driver/src/stm32f4xx_cryp_des.c ****   }
 359              		.loc 1 117 43 view .LVU85
 360 00c0 0124     		movs	r4, #1	@ <retval>,
 361 00c2 E7E7     		b	.L7		@
 362              		.cfi_endproc
 363              	.LFE110:
 364              		.size	CRYP_DES_ECB, .-CRYP_DES_ECB
 365              		.section	.text.CRYP_DES_CBC,"ax",%progbits
 366              		.align	1
 367              		.p2align 2,,3
 368              		.global	CRYP_DES_CBC
 369              		.syntax unified
 370              		.thumb
 371              		.thumb_func
 372              		.type	CRYP_DES_CBC, %function
 373              	CRYP_DES_CBC:
 374              	.LVL29:
 375              	.LFB111:
 173:../Libraries/STM32F4xx_StdPeriph_Driver/src/stm32f4xx_cryp_des.c **** 
 174:../Libraries/STM32F4xx_StdPeriph_Driver/src/stm32f4xx_cryp_des.c **** /**
 175:../Libraries/STM32F4xx_StdPeriph_Driver/src/stm32f4xx_cryp_des.c ****   * @brief  Encrypt and decrypt using DES in CBC Mode
 176:../Libraries/STM32F4xx_StdPeriph_Driver/src/stm32f4xx_cryp_des.c ****   * @param  Mode: encryption or decryption Mode.
 177:../Libraries/STM32F4xx_StdPeriph_Driver/src/stm32f4xx_cryp_des.c ****   *          This parameter can be one of the following values:
 178:../Libraries/STM32F4xx_StdPeriph_Driver/src/stm32f4xx_cryp_des.c ****   *            @arg MODE_ENCRYPT: Encryption
 179:../Libraries/STM32F4xx_StdPeriph_Driver/src/stm32f4xx_cryp_des.c ****   *            @arg MODE_DECRYPT: Decryption
 180:../Libraries/STM32F4xx_StdPeriph_Driver/src/stm32f4xx_cryp_des.c ****   * @param  Key: Key used for DES algorithm.
 181:../Libraries/STM32F4xx_StdPeriph_Driver/src/stm32f4xx_cryp_des.c ****   * @param  InitVectors: Initialisation Vectors used for DES algorithm.
 182:../Libraries/STM32F4xx_StdPeriph_Driver/src/stm32f4xx_cryp_des.c ****   * @param  Ilength: length of the Input buffer, must be a multiple of 8.
 183:../Libraries/STM32F4xx_StdPeriph_Driver/src/stm32f4xx_cryp_des.c ****   * @param  Input: pointer to the Input buffer.
 184:../Libraries/STM32F4xx_StdPeriph_Driver/src/stm32f4xx_cryp_des.c ****   * @param  Output: pointer to the returned buffer.
 185:../Libraries/STM32F4xx_StdPeriph_Driver/src/stm32f4xx_cryp_des.c ****   * @retval An ErrorStatus enumeration value:
 186:../Libraries/STM32F4xx_StdPeriph_Driver/src/stm32f4xx_cryp_des.c ****   *          - SUCCESS: Operation done
 187:../Libraries/STM32F4xx_StdPeriph_Driver/src/stm32f4xx_cryp_des.c ****   *          - ERROR: Operation failed
 188:../Libraries/STM32F4xx_StdPeriph_Driver/src/stm32f4xx_cryp_des.c ****   */
 189:../Libraries/STM32F4xx_StdPeriph_Driver/src/stm32f4xx_cryp_des.c **** ErrorStatus CRYP_DES_CBC(uint8_t Mode, uint8_t Key[8], uint8_t InitVectors[8],
 190:../Libraries/STM32F4xx_StdPeriph_Driver/src/stm32f4xx_cryp_des.c ****                          uint8_t *Input, uint32_t Ilength, uint8_t *Output)
 191:../Libraries/STM32F4xx_StdPeriph_Driver/src/stm32f4xx_cryp_des.c **** {
 376              		.loc 1 191 1 is_stmt 1 view -0
 377              		.cfi_startproc
 378              		@ args = 8, pretend = 0, frame = 64
 379              		@ frame_needed = 0, uses_anonymous_args = 0
 380              		.loc 1 191 1 is_stmt 0 view .LVU87
 381 0000 2DE9F047 		push	{r4, r5, r6, r7, r8, r9, r10, lr}	@
 382              		.cfi_def_cfa_offset 32
 383              		.cfi_offset 4, -32
 384              		.cfi_offset 5, -28
 385              		.cfi_offset 6, -24
 386              		.cfi_offset 7, -20
 387              		.cfi_offset 8, -16
 388              		.cfi_offset 9, -12
ARM GAS  C:\Users\admin\AppData\Local\Temp\cc095kAa.s 			page 18


 389              		.cfi_offset 10, -8
 390              		.cfi_offset 14, -4
 391 0004 90B0     		sub	sp, sp, #64	@,,
 392              		.cfi_def_cfa_offset 96
 393              	@ ../Libraries/STM32F4xx_StdPeriph_Driver/src/stm32f4xx_cryp_des.c:191: {
 394              		.loc 1 191 1 view .LVU88
 395 0006 8246     		mov	r10, r0	@ Mode, tmp182
 396              	@ ../Libraries/STM32F4xx_StdPeriph_Driver/src/stm32f4xx_cryp_des.c:195:   __IO uint32_t counter = 0
 192:../Libraries/STM32F4xx_StdPeriph_Driver/src/stm32f4xx_cryp_des.c ****   CRYP_InitTypeDef DES_CRYP_InitStructure;
 193:../Libraries/STM32F4xx_StdPeriph_Driver/src/stm32f4xx_cryp_des.c ****   CRYP_KeyInitTypeDef DES_CRYP_KeyInitStructure;
 194:../Libraries/STM32F4xx_StdPeriph_Driver/src/stm32f4xx_cryp_des.c ****   CRYP_IVInitTypeDef DES_CRYP_IVInitStructure;
 195:../Libraries/STM32F4xx_StdPeriph_Driver/src/stm32f4xx_cryp_des.c ****   __IO uint32_t counter = 0;
 397              		.loc 1 195 17 view .LVU89
 398 0008 0026     		movs	r6, #0	@ tmp152,
 399              	@ ../Libraries/STM32F4xx_StdPeriph_Driver/src/stm32f4xx_cryp_des.c:205:   CRYP_KeyStructInit(&DES_C
 196:../Libraries/STM32F4xx_StdPeriph_Driver/src/stm32f4xx_cryp_des.c ****   uint32_t busystatus = 0;
 197:../Libraries/STM32F4xx_StdPeriph_Driver/src/stm32f4xx_cryp_des.c ****   ErrorStatus status = SUCCESS;
 198:../Libraries/STM32F4xx_StdPeriph_Driver/src/stm32f4xx_cryp_des.c ****   uint32_t keyaddr    = (uint32_t)Key;
 199:../Libraries/STM32F4xx_StdPeriph_Driver/src/stm32f4xx_cryp_des.c ****   uint32_t inputaddr  = (uint32_t)Input;
 200:../Libraries/STM32F4xx_StdPeriph_Driver/src/stm32f4xx_cryp_des.c ****   uint32_t outputaddr = (uint32_t)Output;
 201:../Libraries/STM32F4xx_StdPeriph_Driver/src/stm32f4xx_cryp_des.c ****   uint32_t ivaddr     = (uint32_t)InitVectors;
 202:../Libraries/STM32F4xx_StdPeriph_Driver/src/stm32f4xx_cryp_des.c ****   uint32_t i = 0;
 203:../Libraries/STM32F4xx_StdPeriph_Driver/src/stm32f4xx_cryp_des.c **** 
 204:../Libraries/STM32F4xx_StdPeriph_Driver/src/stm32f4xx_cryp_des.c ****   /* Crypto structures initialisation*/
 205:../Libraries/STM32F4xx_StdPeriph_Driver/src/stm32f4xx_cryp_des.c ****   CRYP_KeyStructInit(&DES_CRYP_KeyInitStructure);
 400              		.loc 1 205 3 view .LVU90
 401 000a 08A8     		add	r0, sp, #32	@ tmp190,,
 402              	.LVL30:
 403              	@ ../Libraries/STM32F4xx_StdPeriph_Driver/src/stm32f4xx_cryp_des.c:191: {
 191:../Libraries/STM32F4xx_StdPeriph_Driver/src/stm32f4xx_cryp_des.c ****   CRYP_InitTypeDef DES_CRYP_InitStructure;
 404              		.loc 1 191 1 view .LVU91
 405 000c 1F46     		mov	r7, r3	@ Input, tmp185
 406 000e 8946     		mov	r9, r1	@ Key, tmp183
 407 0010 1446     		mov	r4, r2	@ InitVectors, tmp184
 192:../Libraries/STM32F4xx_StdPeriph_Driver/src/stm32f4xx_cryp_des.c ****   CRYP_InitTypeDef DES_CRYP_InitStructure;
 408              		.loc 1 192 3 is_stmt 1 view .LVU92
 193:../Libraries/STM32F4xx_StdPeriph_Driver/src/stm32f4xx_cryp_des.c ****   CRYP_IVInitTypeDef DES_CRYP_IVInitStructure;
 409              		.loc 1 193 3 view .LVU93
 194:../Libraries/STM32F4xx_StdPeriph_Driver/src/stm32f4xx_cryp_des.c ****   __IO uint32_t counter = 0;
 410              		.loc 1 194 3 view .LVU94
 195:../Libraries/STM32F4xx_StdPeriph_Driver/src/stm32f4xx_cryp_des.c ****   uint32_t busystatus = 0;
 411              		.loc 1 195 3 view .LVU95
 412              	@ ../Libraries/STM32F4xx_StdPeriph_Driver/src/stm32f4xx_cryp_des.c:191: {
 191:../Libraries/STM32F4xx_StdPeriph_Driver/src/stm32f4xx_cryp_des.c ****   CRYP_InitTypeDef DES_CRYP_InitStructure;
 413              		.loc 1 191 1 is_stmt 0 view .LVU96
 414 0012 DDF86080 		ldr	r8, [sp, #96]	@ Ilength, Ilength
 415 0016 199D     		ldr	r5, [sp, #100]	@ Output, Output
 416              	@ ../Libraries/STM32F4xx_StdPeriph_Driver/src/stm32f4xx_cryp_des.c:195:   __IO uint32_t counter = 0
 195:../Libraries/STM32F4xx_StdPeriph_Driver/src/stm32f4xx_cryp_des.c ****   uint32_t busystatus = 0;
 417              		.loc 1 195 17 view .LVU97
 418 0018 0196     		str	r6, [sp, #4]	@ tmp152, counter
 196:../Libraries/STM32F4xx_StdPeriph_Driver/src/stm32f4xx_cryp_des.c ****   ErrorStatus status = SUCCESS;
 419              		.loc 1 196 3 is_stmt 1 view .LVU98
 420              	.LVL31:
 197:../Libraries/STM32F4xx_StdPeriph_Driver/src/stm32f4xx_cryp_des.c ****   uint32_t keyaddr    = (uint32_t)Key;
 421              		.loc 1 197 3 view .LVU99
 198:../Libraries/STM32F4xx_StdPeriph_Driver/src/stm32f4xx_cryp_des.c ****   uint32_t inputaddr  = (uint32_t)Input;
ARM GAS  C:\Users\admin\AppData\Local\Temp\cc095kAa.s 			page 19


 422              		.loc 1 198 3 view .LVU100
 199:../Libraries/STM32F4xx_StdPeriph_Driver/src/stm32f4xx_cryp_des.c ****   uint32_t outputaddr = (uint32_t)Output;
 423              		.loc 1 199 3 view .LVU101
 200:../Libraries/STM32F4xx_StdPeriph_Driver/src/stm32f4xx_cryp_des.c ****   uint32_t ivaddr     = (uint32_t)InitVectors;
 424              		.loc 1 200 3 view .LVU102
 201:../Libraries/STM32F4xx_StdPeriph_Driver/src/stm32f4xx_cryp_des.c ****   uint32_t i = 0;
 425              		.loc 1 201 3 view .LVU103
 202:../Libraries/STM32F4xx_StdPeriph_Driver/src/stm32f4xx_cryp_des.c **** 
 426              		.loc 1 202 3 view .LVU104
 427              		.loc 1 205 3 view .LVU105
 428 001a FFF7FEFF 		bl	CRYP_KeyStructInit		@
 429              	.LVL32:
 206:../Libraries/STM32F4xx_StdPeriph_Driver/src/stm32f4xx_cryp_des.c **** 
 207:../Libraries/STM32F4xx_StdPeriph_Driver/src/stm32f4xx_cryp_des.c ****   /* Crypto Init for Encryption process */
 208:../Libraries/STM32F4xx_StdPeriph_Driver/src/stm32f4xx_cryp_des.c ****   if(Mode == MODE_ENCRYPT) /* DES encryption */
 430              		.loc 1 208 3 view .LVU106
 431              	@ ../Libraries/STM32F4xx_StdPeriph_Driver/src/stm32f4xx_cryp_des.c:214:      DES_CRYP_InitStructure
 209:../Libraries/STM32F4xx_StdPeriph_Driver/src/stm32f4xx_cryp_des.c ****   {
 210:../Libraries/STM32F4xx_StdPeriph_Driver/src/stm32f4xx_cryp_des.c ****      DES_CRYP_InitStructure.CRYP_AlgoDir  = CRYP_AlgoDir_Encrypt;
 211:../Libraries/STM32F4xx_StdPeriph_Driver/src/stm32f4xx_cryp_des.c ****   }
 212:../Libraries/STM32F4xx_StdPeriph_Driver/src/stm32f4xx_cryp_des.c ****   else /*if(Mode == MODE_DECRYPT)*/ /* DES decryption */
 213:../Libraries/STM32F4xx_StdPeriph_Driver/src/stm32f4xx_cryp_des.c ****   {
 214:../Libraries/STM32F4xx_StdPeriph_Driver/src/stm32f4xx_cryp_des.c ****      DES_CRYP_InitStructure.CRYP_AlgoDir  = CRYP_AlgoDir_Decrypt;
 432              		.loc 1 214 43 is_stmt 0 view .LVU107
 433 001e BAF1010F 		cmp	r10, #1	@ Mode,
 434 0022 0CBF     		ite	eq
 435 0024 3346     		moveq	r3, r6	@ cstore_88,
 436 0026 0423     		movne	r3, #4	@ cstore_88,
 437 0028 ADF80830 		strh	r3, [sp, #8]	@ movhi	@ cstore_88, DES_CRYP_InitStructure.CRYP_AlgoDir
 215:../Libraries/STM32F4xx_StdPeriph_Driver/src/stm32f4xx_cryp_des.c ****   }
 216:../Libraries/STM32F4xx_StdPeriph_Driver/src/stm32f4xx_cryp_des.c **** 
 217:../Libraries/STM32F4xx_StdPeriph_Driver/src/stm32f4xx_cryp_des.c ****   DES_CRYP_InitStructure.CRYP_AlgoMode = CRYP_AlgoMode_DES_CBC;
 438              		.loc 1 217 3 is_stmt 1 view .LVU108
 439              	@ ../Libraries/STM32F4xx_StdPeriph_Driver/src/stm32f4xx_cryp_des.c:217:   DES_CRYP_InitStructure.CR
 440              		.loc 1 217 40 is_stmt 0 view .LVU109
 441 002c 1823     		movs	r3, #24	@ tmp156,
 442 002e ADF80A30 		strh	r3, [sp, #10]	@ movhi	@ tmp156, DES_CRYP_InitStructure.CRYP_AlgoMode
 218:../Libraries/STM32F4xx_StdPeriph_Driver/src/stm32f4xx_cryp_des.c ****   DES_CRYP_InitStructure.CRYP_DataType = CRYP_DataType_8b;
 443              		.loc 1 218 3 is_stmt 1 view .LVU110
 444              	@ ../Libraries/STM32F4xx_StdPeriph_Driver/src/stm32f4xx_cryp_des.c:219:   CRYP_Init(&DES_CRYP_InitS
 219:../Libraries/STM32F4xx_StdPeriph_Driver/src/stm32f4xx_cryp_des.c ****   CRYP_Init(&DES_CRYP_InitStructure);
 445              		.loc 1 219 3 is_stmt 0 view .LVU111
 446 0032 02A8     		add	r0, sp, #8	@,,
 447              	@ ../Libraries/STM32F4xx_StdPeriph_Driver/src/stm32f4xx_cryp_des.c:218:   DES_CRYP_InitStructure.CR
 218:../Libraries/STM32F4xx_StdPeriph_Driver/src/stm32f4xx_cryp_des.c ****   DES_CRYP_InitStructure.CRYP_DataType = CRYP_DataType_8b;
 448              		.loc 1 218 40 view .LVU112
 449 0034 8023     		movs	r3, #128	@ tmp158,
 450 0036 ADF80C30 		strh	r3, [sp, #12]	@ movhi	@ tmp158, DES_CRYP_InitStructure.CRYP_DataType
 451              		.loc 1 219 3 is_stmt 1 view .LVU113
 452 003a FFF7FEFF 		bl	CRYP_Init		@
 453              	.LVL33:
 220:../Libraries/STM32F4xx_StdPeriph_Driver/src/stm32f4xx_cryp_des.c **** 
 221:../Libraries/STM32F4xx_StdPeriph_Driver/src/stm32f4xx_cryp_des.c ****   /* Key Initialisation */
 222:../Libraries/STM32F4xx_StdPeriph_Driver/src/stm32f4xx_cryp_des.c ****   DES_CRYP_KeyInitStructure.CRYP_Key1Left = __REV(*(uint32_t*)(keyaddr));
 454              		.loc 1 222 3 view .LVU114
 455              	.LBB18:
 456              	.LBI18:
ARM GAS  C:\Users\admin\AppData\Local\Temp\cc095kAa.s 			page 20


 348:../Libraries/CMSIS/Include/core_cmInstr.h **** {
 457              		.loc 2 348 61 view .LVU115
 458              	.LBB19:
 350:../Libraries/CMSIS/Include/core_cmInstr.h ****   
 459              		.loc 2 350 3 view .LVU116
 352:../Libraries/CMSIS/Include/core_cmInstr.h ****   return(result);
 460              		.loc 2 352 3 view .LVU117
 461 003e D9F80030 		ldr	r3, [r9]	@ MEM[(uint32_t *)Key_32(D)], MEM[(uint32_t *)Key_32(D)]
 462              		.syntax unified
 463              	@ 352 "../Libraries/CMSIS/Include/core_cmInstr.h" 1
 464 0042 1BBA     		rev r3, r3	@ result, MEM[(uint32_t *)Key_32(D)]
 465              	@ 0 "" 2
 466              	.LVL34:
 467              		.loc 2 353 3 view .LVU118
 468              		.loc 2 353 3 is_stmt 0 view .LVU119
 469              		.thumb
 470              		.syntax unified
 471              	.LBE19:
 472              	.LBE18:
 473              	@ ../Libraries/STM32F4xx_StdPeriph_Driver/src/stm32f4xx_cryp_des.c:222:   DES_CRYP_KeyInitStructure
 474              		.loc 1 222 43 view .LVU120
 475 0044 0A93     		str	r3, [sp, #40]	@ result, DES_CRYP_KeyInitStructure.CRYP_Key1Left
 223:../Libraries/STM32F4xx_StdPeriph_Driver/src/stm32f4xx_cryp_des.c ****   keyaddr+=4;
 476              		.loc 1 223 3 is_stmt 1 view .LVU121
 477              	.LVL35:
 224:../Libraries/STM32F4xx_StdPeriph_Driver/src/stm32f4xx_cryp_des.c ****   DES_CRYP_KeyInitStructure.CRYP_Key1Right= __REV(*(uint32_t*)(keyaddr));
 478              		.loc 1 224 3 view .LVU122
 479              	.LBB20:
 480              	.LBI20:
 348:../Libraries/CMSIS/Include/core_cmInstr.h **** {
 481              		.loc 2 348 61 view .LVU123
 482              	.LBB21:
 350:../Libraries/CMSIS/Include/core_cmInstr.h ****   
 483              		.loc 2 350 3 view .LVU124
 352:../Libraries/CMSIS/Include/core_cmInstr.h ****   return(result);
 484              		.loc 2 352 3 view .LVU125
 485 0046 D9F80430 		ldr	r3, [r9, #4]	@ *keyaddr.9_2, *keyaddr.9_2
 486              		.syntax unified
 487              	@ 352 "../Libraries/CMSIS/Include/core_cmInstr.h" 1
 488 004a 1BBA     		rev r3, r3	@ result, *keyaddr.9_2
 489              	@ 0 "" 2
 490              	.LVL36:
 491              		.loc 2 353 3 view .LVU126
 492              		.loc 2 353 3 is_stmt 0 view .LVU127
 493              		.thumb
 494              		.syntax unified
 495              	.LBE21:
 496              	.LBE20:
 497              	@ ../Libraries/STM32F4xx_StdPeriph_Driver/src/stm32f4xx_cryp_des.c:225:   CRYP_KeyInit(& DES_CRYP_K
 225:../Libraries/STM32F4xx_StdPeriph_Driver/src/stm32f4xx_cryp_des.c ****   CRYP_KeyInit(& DES_CRYP_KeyInitStructure);
 498              		.loc 1 225 3 view .LVU128
 499 004c 08A8     		add	r0, sp, #32	@ tmp191,,
 500              	@ ../Libraries/STM32F4xx_StdPeriph_Driver/src/stm32f4xx_cryp_des.c:224:   DES_CRYP_KeyInitStructure
 224:../Libraries/STM32F4xx_StdPeriph_Driver/src/stm32f4xx_cryp_des.c ****   CRYP_KeyInit(& DES_CRYP_KeyInitStructure);
 501              		.loc 1 224 43 view .LVU129
 502 004e 0B93     		str	r3, [sp, #44]	@ result, DES_CRYP_KeyInitStructure.CRYP_Key1Right
 503              		.loc 1 225 3 is_stmt 1 view .LVU130
ARM GAS  C:\Users\admin\AppData\Local\Temp\cc095kAa.s 			page 21


 504 0050 FFF7FEFF 		bl	CRYP_KeyInit		@
 505              	.LVL37:
 226:../Libraries/STM32F4xx_StdPeriph_Driver/src/stm32f4xx_cryp_des.c **** 
 227:../Libraries/STM32F4xx_StdPeriph_Driver/src/stm32f4xx_cryp_des.c ****   /* Initialization Vectors */
 228:../Libraries/STM32F4xx_StdPeriph_Driver/src/stm32f4xx_cryp_des.c ****   DES_CRYP_IVInitStructure.CRYP_IV0Left = __REV(*(uint32_t*)(ivaddr));
 506              		.loc 1 228 3 view .LVU131
 507              	.LBB22:
 508              	.LBI22:
 348:../Libraries/CMSIS/Include/core_cmInstr.h **** {
 509              		.loc 2 348 61 view .LVU132
 510              	.LBB23:
 350:../Libraries/CMSIS/Include/core_cmInstr.h ****   
 511              		.loc 2 350 3 view .LVU133
 352:../Libraries/CMSIS/Include/core_cmInstr.h ****   return(result);
 512              		.loc 2 352 3 view .LVU134
 513 0054 2368     		ldr	r3, [r4]	@ MEM[(uint32_t *)InitVectors_38(D)], MEM[(uint32_t *)InitVectors_38(D)]
 514              		.syntax unified
 515              	@ 352 "../Libraries/CMSIS/Include/core_cmInstr.h" 1
 516 0056 1BBA     		rev r3, r3	@ result, MEM[(uint32_t *)InitVectors_38(D)]
 517              	@ 0 "" 2
 518              	.LVL38:
 519              		.loc 2 353 3 view .LVU135
 520              		.loc 2 353 3 is_stmt 0 view .LVU136
 521              		.thumb
 522              		.syntax unified
 523              	.LBE23:
 524              	.LBE22:
 525              	@ ../Libraries/STM32F4xx_StdPeriph_Driver/src/stm32f4xx_cryp_des.c:228:   DES_CRYP_IVInitStructure.
 526              		.loc 1 228 41 view .LVU137
 527 0058 0493     		str	r3, [sp, #16]	@ result, DES_CRYP_IVInitStructure.CRYP_IV0Left
 229:../Libraries/STM32F4xx_StdPeriph_Driver/src/stm32f4xx_cryp_des.c ****   ivaddr+=4;
 528              		.loc 1 229 3 is_stmt 1 view .LVU138
 529              	.LVL39:
 230:../Libraries/STM32F4xx_StdPeriph_Driver/src/stm32f4xx_cryp_des.c ****   DES_CRYP_IVInitStructure.CRYP_IV0Right= __REV(*(uint32_t*)(ivaddr));
 530              		.loc 1 230 3 view .LVU139
 531              	.LBB24:
 532              	.LBI24:
 348:../Libraries/CMSIS/Include/core_cmInstr.h **** {
 533              		.loc 2 348 61 view .LVU140
 534              	.LBB25:
 350:../Libraries/CMSIS/Include/core_cmInstr.h ****   
 535              		.loc 2 350 3 view .LVU141
 352:../Libraries/CMSIS/Include/core_cmInstr.h ****   return(result);
 536              		.loc 2 352 3 view .LVU142
 537 005a 6368     		ldr	r3, [r4, #4]	@ *ivaddr.11_5, *ivaddr.11_5
 538              		.syntax unified
 539              	@ 352 "../Libraries/CMSIS/Include/core_cmInstr.h" 1
 540 005c 1BBA     		rev r3, r3	@ result, *ivaddr.11_5
 541              	@ 0 "" 2
 542              	.LVL40:
 543              		.loc 2 353 3 view .LVU143
 544              		.loc 2 353 3 is_stmt 0 view .LVU144
 545              		.thumb
 546              		.syntax unified
 547              	.LBE25:
 548              	.LBE24:
 549              	@ ../Libraries/STM32F4xx_StdPeriph_Driver/src/stm32f4xx_cryp_des.c:231:   CRYP_IVInit(&DES_CRYP_IVI
ARM GAS  C:\Users\admin\AppData\Local\Temp\cc095kAa.s 			page 22


 231:../Libraries/STM32F4xx_StdPeriph_Driver/src/stm32f4xx_cryp_des.c ****   CRYP_IVInit(&DES_CRYP_IVInitStructure);
 550              		.loc 1 231 3 view .LVU145
 551 005e 04A8     		add	r0, sp, #16	@,,
 552              	@ ../Libraries/STM32F4xx_StdPeriph_Driver/src/stm32f4xx_cryp_des.c:230:   DES_CRYP_IVInitStructure.
 230:../Libraries/STM32F4xx_StdPeriph_Driver/src/stm32f4xx_cryp_des.c ****   CRYP_IVInit(&DES_CRYP_IVInitStructure);
 553              		.loc 1 230 41 view .LVU146
 554 0060 0593     		str	r3, [sp, #20]	@ result, DES_CRYP_IVInitStructure.CRYP_IV0Right
 555              		.loc 1 231 3 is_stmt 1 view .LVU147
 556 0062 FFF7FEFF 		bl	CRYP_IVInit		@
 557              	.LVL41:
 232:../Libraries/STM32F4xx_StdPeriph_Driver/src/stm32f4xx_cryp_des.c **** 
 233:../Libraries/STM32F4xx_StdPeriph_Driver/src/stm32f4xx_cryp_des.c ****   /* Flush IN/OUT FIFO */
 234:../Libraries/STM32F4xx_StdPeriph_Driver/src/stm32f4xx_cryp_des.c ****   CRYP_FIFOFlush();
 558              		.loc 1 234 3 view .LVU148
 559 0066 FFF7FEFF 		bl	CRYP_FIFOFlush		@
 560              	.LVL42:
 235:../Libraries/STM32F4xx_StdPeriph_Driver/src/stm32f4xx_cryp_des.c ****   
 236:../Libraries/STM32F4xx_StdPeriph_Driver/src/stm32f4xx_cryp_des.c ****   /* Enable Crypto processor */
 237:../Libraries/STM32F4xx_StdPeriph_Driver/src/stm32f4xx_cryp_des.c ****   CRYP_Cmd(ENABLE);
 561              		.loc 1 237 3 view .LVU149
 562 006a 0120     		movs	r0, #1	@,
 563 006c FFF7FEFF 		bl	CRYP_Cmd		@
 564              	.LVL43:
 238:../Libraries/STM32F4xx_StdPeriph_Driver/src/stm32f4xx_cryp_des.c **** 
 239:../Libraries/STM32F4xx_StdPeriph_Driver/src/stm32f4xx_cryp_des.c ****   for(i=0; ((i<Ilength) && (status != ERROR)); i+=8)
 565              		.loc 1 239 3 view .LVU150
 566              		.loc 1 239 12 view .LVU151
 567              	@ ../Libraries/STM32F4xx_StdPeriph_Driver/src/stm32f4xx_cryp_des.c:239:   for(i=0; ((i<Ilength) && 
 568              		.loc 1 239 3 is_stmt 0 view .LVU152
 569 0070 B8F1000F 		cmp	r8, #0	@ Ilength
 570 0074 31D0     		beq	.L21	@
 571 0076 6FF00703 		mvn	r3, #7	@ tmp180,
 572 007a 07F10804 		add	r4, r7, #8	@ ivtmp.42, Input,
 573              	.LVL44:
 574              		.loc 1 239 3 view .LVU153
 575 007e 0835     		adds	r5, r5, #8	@ ivtmp.43, Output,
 576              	.LVL45:
 577              		.loc 1 239 3 view .LVU154
 578 0080 DF1B     		subs	r7, r3, r7	@ tmp181, tmp180, Input
 579              	.LVL46:
 580              	.L26:
 240:../Libraries/STM32F4xx_StdPeriph_Driver/src/stm32f4xx_cryp_des.c ****   {
 241:../Libraries/STM32F4xx_StdPeriph_Driver/src/stm32f4xx_cryp_des.c ****     /* Write the Input block in the Input FIFO */
 242:../Libraries/STM32F4xx_StdPeriph_Driver/src/stm32f4xx_cryp_des.c ****     CRYP_DataIn(*(uint32_t*)(inputaddr));
 581              		.loc 1 242 5 is_stmt 1 view .LVU155
 582 0082 54F8080C 		ldr	r0, [r4, #-8]	@, MEM[base: _86, offset: 4294967288B]
 583 0086 FFF7FEFF 		bl	CRYP_DataIn		@
 584              	.LVL47:
 243:../Libraries/STM32F4xx_StdPeriph_Driver/src/stm32f4xx_cryp_des.c ****     inputaddr+=4;
 585              		.loc 1 243 5 view .LVU156
 244:../Libraries/STM32F4xx_StdPeriph_Driver/src/stm32f4xx_cryp_des.c ****     CRYP_DataIn(*(uint32_t*)(inputaddr));
 586              		.loc 1 244 5 view .LVU157
 587 008a 54F8040C 		ldr	r0, [r4, #-4]	@, MEM[base: _86, offset: 4294967292B]
 588 008e FFF7FEFF 		bl	CRYP_DataIn		@
 589              	.LVL48:
 245:../Libraries/STM32F4xx_StdPeriph_Driver/src/stm32f4xx_cryp_des.c ****     inputaddr+=4;
 590              		.loc 1 245 5 view .LVU158
ARM GAS  C:\Users\admin\AppData\Local\Temp\cc095kAa.s 			page 23


 246:../Libraries/STM32F4xx_StdPeriph_Driver/src/stm32f4xx_cryp_des.c **** 
 247:../Libraries/STM32F4xx_StdPeriph_Driver/src/stm32f4xx_cryp_des.c ****     /* Wait until the complete message has been processed */
 248:../Libraries/STM32F4xx_StdPeriph_Driver/src/stm32f4xx_cryp_des.c ****     counter = 0;
 591              		.loc 1 248 5 view .LVU159
 592              	@ ../Libraries/STM32F4xx_StdPeriph_Driver/src/stm32f4xx_cryp_des.c:248:     counter = 0;
 593              		.loc 1 248 13 is_stmt 0 view .LVU160
 594 0092 0196     		str	r6, [sp, #4]	@ tmp152, counter
 595 0094 00E0     		b	.L23		@
 596              	.LVL49:
 597              	.L35:
 598              	@ ../Libraries/STM32F4xx_StdPeriph_Driver/src/stm32f4xx_cryp_des.c:253:     }while ((counter != DES
 249:../Libraries/STM32F4xx_StdPeriph_Driver/src/stm32f4xx_cryp_des.c ****     do
 250:../Libraries/STM32F4xx_StdPeriph_Driver/src/stm32f4xx_cryp_des.c ****     {
 251:../Libraries/STM32F4xx_StdPeriph_Driver/src/stm32f4xx_cryp_des.c ****       busystatus = CRYP_GetFlagStatus(CRYP_FLAG_BUSY);
 252:../Libraries/STM32F4xx_StdPeriph_Driver/src/stm32f4xx_cryp_des.c ****       counter++;
 253:../Libraries/STM32F4xx_StdPeriph_Driver/src/stm32f4xx_cryp_des.c ****     }while ((counter != DESBUSY_TIMEOUT) && (busystatus != RESET));
 599              		.loc 1 253 42 discriminator 1 view .LVU161
 600 0096 90B1     		cbz	r0, .L24	@ tmp173,
 601              	.LVL50:
 602              	.L23:
 249:../Libraries/STM32F4xx_StdPeriph_Driver/src/stm32f4xx_cryp_des.c ****     do
 603              		.loc 1 249 5 is_stmt 1 discriminator 2 view .LVU162
 251:../Libraries/STM32F4xx_StdPeriph_Driver/src/stm32f4xx_cryp_des.c ****       counter++;
 604              		.loc 1 251 7 discriminator 2 view .LVU163
 605              	@ ../Libraries/STM32F4xx_StdPeriph_Driver/src/stm32f4xx_cryp_des.c:251:       busystatus = CRYP_Get
 251:../Libraries/STM32F4xx_StdPeriph_Driver/src/stm32f4xx_cryp_des.c ****       counter++;
 606              		.loc 1 251 20 is_stmt 0 discriminator 2 view .LVU164
 607 0098 1020     		movs	r0, #16	@,
 608 009a FFF7FEFF 		bl	CRYP_GetFlagStatus		@
 609              	.LVL51:
 610              	@ ../Libraries/STM32F4xx_StdPeriph_Driver/src/stm32f4xx_cryp_des.c:252:       counter++;
 252:../Libraries/STM32F4xx_StdPeriph_Driver/src/stm32f4xx_cryp_des.c ****     }while ((counter != DESBUSY_TIMEOUT) && (busystatus != RESET));
 611              		.loc 1 252 14 discriminator 2 view .LVU165
 612 009e 019B     		ldr	r3, [sp, #4]	@ counter.14_12, counter
 613              	.LVL52:
 252:../Libraries/STM32F4xx_StdPeriph_Driver/src/stm32f4xx_cryp_des.c ****     }while ((counter != DESBUSY_TIMEOUT) && (busystatus != RESET));
 614              		.loc 1 252 7 is_stmt 1 discriminator 2 view .LVU166
 615              	@ ../Libraries/STM32F4xx_StdPeriph_Driver/src/stm32f4xx_cryp_des.c:252:       counter++;
 252:../Libraries/STM32F4xx_StdPeriph_Driver/src/stm32f4xx_cryp_des.c ****     }while ((counter != DESBUSY_TIMEOUT) && (busystatus != RESET));
 616              		.loc 1 252 14 is_stmt 0 discriminator 2 view .LVU167
 617 00a0 0133     		adds	r3, r3, #1	@ _13, counter.14_12,
 618 00a2 0193     		str	r3, [sp, #4]	@ _13, counter
 619              		.loc 1 253 12 is_stmt 1 discriminator 2 view .LVU168
 620              	@ ../Libraries/STM32F4xx_StdPeriph_Driver/src/stm32f4xx_cryp_des.c:253:     }while ((counter != DES
 621              		.loc 1 253 22 is_stmt 0 discriminator 2 view .LVU169
 622 00a4 019B     		ldr	r3, [sp, #4]	@ counter.15_14, counter
 623              	@ ../Libraries/STM32F4xx_StdPeriph_Driver/src/stm32f4xx_cryp_des.c:253:     }while ((counter != DES
 624              		.loc 1 253 5 discriminator 2 view .LVU170
 625 00a6 B3F5803F 		cmp	r3, #65536	@ counter.15_14,
 626 00aa F4D1     		bne	.L35		@,
 254:../Libraries/STM32F4xx_StdPeriph_Driver/src/stm32f4xx_cryp_des.c **** 
 255:../Libraries/STM32F4xx_StdPeriph_Driver/src/stm32f4xx_cryp_des.c ****     if (busystatus != RESET)
 627              		.loc 1 255 5 is_stmt 1 view .LVU171
 628              	@ ../Libraries/STM32F4xx_StdPeriph_Driver/src/stm32f4xx_cryp_des.c:255:     if (busystatus != RESET
 629              		.loc 1 255 8 is_stmt 0 view .LVU172
 630 00ac 38B1     		cbz	r0, .L24	@ tmp173,
 631              	@ ../Libraries/STM32F4xx_StdPeriph_Driver/src/stm32f4xx_cryp_des.c:257:        status = ERROR;
ARM GAS  C:\Users\admin\AppData\Local\Temp\cc095kAa.s 			page 24


 256:../Libraries/STM32F4xx_StdPeriph_Driver/src/stm32f4xx_cryp_des.c ****    {
 257:../Libraries/STM32F4xx_StdPeriph_Driver/src/stm32f4xx_cryp_des.c ****        status = ERROR;
 632              		.loc 1 257 15 view .LVU173
 633 00ae 0024     		movs	r4, #0	@ <retval>,
 634              	.LVL53:
 635              	.L25:
 258:../Libraries/STM32F4xx_StdPeriph_Driver/src/stm32f4xx_cryp_des.c ****     }
 259:../Libraries/STM32F4xx_StdPeriph_Driver/src/stm32f4xx_cryp_des.c ****     else
 260:../Libraries/STM32F4xx_StdPeriph_Driver/src/stm32f4xx_cryp_des.c ****     {
 261:../Libraries/STM32F4xx_StdPeriph_Driver/src/stm32f4xx_cryp_des.c ****       /* Read the Output block from the Output FIFO */
 262:../Libraries/STM32F4xx_StdPeriph_Driver/src/stm32f4xx_cryp_des.c ****       *(uint32_t*)(outputaddr) = CRYP_DataOut();
 263:../Libraries/STM32F4xx_StdPeriph_Driver/src/stm32f4xx_cryp_des.c ****       outputaddr+=4;
 264:../Libraries/STM32F4xx_StdPeriph_Driver/src/stm32f4xx_cryp_des.c ****       *(uint32_t*)(outputaddr) = CRYP_DataOut();
 265:../Libraries/STM32F4xx_StdPeriph_Driver/src/stm32f4xx_cryp_des.c ****       outputaddr+=4;
 266:../Libraries/STM32F4xx_StdPeriph_Driver/src/stm32f4xx_cryp_des.c ****     }
 267:../Libraries/STM32F4xx_StdPeriph_Driver/src/stm32f4xx_cryp_des.c ****   }
 268:../Libraries/STM32F4xx_StdPeriph_Driver/src/stm32f4xx_cryp_des.c **** 
 269:../Libraries/STM32F4xx_StdPeriph_Driver/src/stm32f4xx_cryp_des.c ****   /* Disable Crypto */
 270:../Libraries/STM32F4xx_StdPeriph_Driver/src/stm32f4xx_cryp_des.c ****   CRYP_Cmd(DISABLE);
 636              		.loc 1 270 3 is_stmt 1 view .LVU174
 637 00b0 0020     		movs	r0, #0	@,
 638 00b2 FFF7FEFF 		bl	CRYP_Cmd		@
 639              	.LVL54:
 271:../Libraries/STM32F4xx_StdPeriph_Driver/src/stm32f4xx_cryp_des.c **** 
 272:../Libraries/STM32F4xx_StdPeriph_Driver/src/stm32f4xx_cryp_des.c ****   return status; 
 640              		.loc 1 272 3 view .LVU175
 641              	@ ../Libraries/STM32F4xx_StdPeriph_Driver/src/stm32f4xx_cryp_des.c:273: }
 273:../Libraries/STM32F4xx_StdPeriph_Driver/src/stm32f4xx_cryp_des.c **** }
 642              		.loc 1 273 1 is_stmt 0 view .LVU176
 643 00b6 2046     		mov	r0, r4	@, <retval>
 644 00b8 10B0     		add	sp, sp, #64	@,,
 645              		.cfi_remember_state
 646              		.cfi_def_cfa_offset 32
 647              		@ sp needed	@
 648 00ba BDE8F087 		pop	{r4, r5, r6, r7, r8, r9, r10, pc}	@
 649              	.LVL55:
 650              	.L24:
 651              		.cfi_restore_state
 262:../Libraries/STM32F4xx_StdPeriph_Driver/src/stm32f4xx_cryp_des.c ****       outputaddr+=4;
 652              		.loc 1 262 7 is_stmt 1 view .LVU177
 653              	@ ../Libraries/STM32F4xx_StdPeriph_Driver/src/stm32f4xx_cryp_des.c:262:       *(uint32_t*)(outputad
 262:../Libraries/STM32F4xx_StdPeriph_Driver/src/stm32f4xx_cryp_des.c ****       outputaddr+=4;
 654              		.loc 1 262 34 is_stmt 0 view .LVU178
 655 00be FFF7FEFF 		bl	CRYP_DataOut		@
 656              	.LVL56:
 657              	@ ../Libraries/STM32F4xx_StdPeriph_Driver/src/stm32f4xx_cryp_des.c:262:       *(uint32_t*)(outputad
 262:../Libraries/STM32F4xx_StdPeriph_Driver/src/stm32f4xx_cryp_des.c ****       outputaddr+=4;
 658              		.loc 1 262 32 view .LVU179
 659 00c2 45F8080C 		str	r0, [r5, #-8]	@ tmp187, MEM[base: _20, offset: 4294967288B]
 263:../Libraries/STM32F4xx_StdPeriph_Driver/src/stm32f4xx_cryp_des.c ****       *(uint32_t*)(outputaddr) = CRYP_DataOut();
 660              		.loc 1 263 7 is_stmt 1 view .LVU180
 661              	.LVL57:
 264:../Libraries/STM32F4xx_StdPeriph_Driver/src/stm32f4xx_cryp_des.c ****       outputaddr+=4;
 662              		.loc 1 264 7 view .LVU181
 663              	@ ../Libraries/STM32F4xx_StdPeriph_Driver/src/stm32f4xx_cryp_des.c:264:       *(uint32_t*)(outputad
 264:../Libraries/STM32F4xx_StdPeriph_Driver/src/stm32f4xx_cryp_des.c ****       outputaddr+=4;
 664              		.loc 1 264 34 is_stmt 0 view .LVU182
ARM GAS  C:\Users\admin\AppData\Local\Temp\cc095kAa.s 			page 25


 665 00c6 FFF7FEFF 		bl	CRYP_DataOut		@
 666              	.LVL58:
 667              	@ ../Libraries/STM32F4xx_StdPeriph_Driver/src/stm32f4xx_cryp_des.c:239:   for(i=0; ((i<Ilength) && 
 239:../Libraries/STM32F4xx_StdPeriph_Driver/src/stm32f4xx_cryp_des.c ****   {
 668              		.loc 1 239 3 view .LVU183
 669 00ca 0834     		adds	r4, r4, #8	@ ivtmp.42, ivtmp.42,
 670              	.LVL59:
 239:../Libraries/STM32F4xx_StdPeriph_Driver/src/stm32f4xx_cryp_des.c ****   {
 671              		.loc 1 239 3 view .LVU184
 672 00cc 3B19     		adds	r3, r7, r4	@ i, tmp181, ivtmp.42
 673 00ce 9845     		cmp	r8, r3	@ Ilength, i
 674              	@ ../Libraries/STM32F4xx_StdPeriph_Driver/src/stm32f4xx_cryp_des.c:264:       *(uint32_t*)(outputad
 264:../Libraries/STM32F4xx_StdPeriph_Driver/src/stm32f4xx_cryp_des.c ****       outputaddr+=4;
 675              		.loc 1 264 32 view .LVU185
 676 00d0 45F8040C 		str	r0, [r5, #-4]	@ tmp188, MEM[base: _20, offset: 4294967292B]
 265:../Libraries/STM32F4xx_StdPeriph_Driver/src/stm32f4xx_cryp_des.c ****     }
 677              		.loc 1 265 7 is_stmt 1 view .LVU186
 678              	.LVL60:
 239:../Libraries/STM32F4xx_StdPeriph_Driver/src/stm32f4xx_cryp_des.c ****   {
 679              		.loc 1 239 48 view .LVU187
 239:../Libraries/STM32F4xx_StdPeriph_Driver/src/stm32f4xx_cryp_des.c ****   {
 680              		.loc 1 239 12 view .LVU188
 681              	@ ../Libraries/STM32F4xx_StdPeriph_Driver/src/stm32f4xx_cryp_des.c:239:   for(i=0; ((i<Ilength) && 
 239:../Libraries/STM32F4xx_StdPeriph_Driver/src/stm32f4xx_cryp_des.c ****   {
 682              		.loc 1 239 3 is_stmt 0 view .LVU189
 683 00d4 05F10805 		add	r5, r5, #8	@ ivtmp.43, ivtmp.43,
 684 00d8 D3D8     		bhi	.L26		@,
 685              	.LVL61:
 686              	.L21:
 687              	@ ../Libraries/STM32F4xx_StdPeriph_Driver/src/stm32f4xx_cryp_des.c:214:      DES_CRYP_InitStructure
 214:../Libraries/STM32F4xx_StdPeriph_Driver/src/stm32f4xx_cryp_des.c ****   }
 688              		.loc 1 214 43 view .LVU190
 689 00da 0124     		movs	r4, #1	@ <retval>,
 690 00dc E8E7     		b	.L25		@
 691              		.cfi_endproc
 692              	.LFE111:
 693              		.size	CRYP_DES_CBC, .-CRYP_DES_CBC
 694 00de 00BF     		.text
 695              	.Letext0:
 696              		.file 3 "c:\\program files (x86)\\gnu arm embedded toolchain\\10 2021.10\\arm-none-eabi\\include\\
 697              		.file 4 "c:\\program files (x86)\\gnu arm embedded toolchain\\10 2021.10\\arm-none-eabi\\include\\
 698              		.file 5 "../Libraries/CMSIS/ST/STM32F4xx/Include/stm32f4xx.h"
 699              		.file 6 "../Libraries/STM32F4xx_StdPeriph_Driver/inc/stm32f4xx_cryp.h"