ARM GAS  C:\Users\admin\AppData\Local\Temp\ccIRU4x5.s 			page 1


   1              		.cpu cortex-m4
   2              		.arch armv7e-m
   3              		.fpu fpv4-sp-d16
   4              		.eabi_attribute 27, 1	@ Tag_ABI_HardFP_use
   5              		.eabi_attribute 28, 1	@ Tag_ABI_VFP_args
   6              		.eabi_attribute 23, 1	@ Tag_ABI_FP_number_model
   7              		.eabi_attribute 24, 1	@ Tag_ABI_align8_needed
   8              		.eabi_attribute 25, 1	@ Tag_ABI_align8_preserved
   9              		.eabi_attribute 26, 1	@ Tag_ABI_enum_size
  10              		.eabi_attribute 30, 2	@ Tag_ABI_optimization_goals
  11              		.eabi_attribute 34, 1	@ Tag_CPU_unaligned_access
  12              		.eabi_attribute 18, 4	@ Tag_ABI_PCS_wchar_t
  13              		.file	"stm32f4xx_sdio.c"
  14              	@ GNU C89 (GNU Arm Embedded Toolchain 10.3-2021.10) version 10.3.1 20210824 (release) (arm-none-eab
  15              	@	compiled by GNU C version 7.3-win32 20180312, GMP version 6.1.0, MPFR version 3.1.4, MPC version 
  16              	
  17              	@ GGC heuristics: --param ggc-min-expand=100 --param ggc-min-heapsize=131072
  18              	@ options passed:  -I . -I . -I ../Utilities/STM32F4-Discovery/
  19              	@ -I ../Libraries/STM32_USB_Device_Library/Class/audio/inc/
  20              	@ -I ../Libraries/STM32_USB_Device_Library/Core/inc/
  21              	@ -I ../Libraries/STM32_USB_OTG_Driver/inc/
  22              	@ -I ../Utilities/STM32F4-Discovery/
  23              	@ -I ../Libraries/STM32F4xx_StdPeriph_Driver/inc/
  24              	@ -I ../Utilities/STM32F4-Discovery/
  25              	@ -I ../Libraries/CMSIS/ST/STM32F4xx/Include/
  26              	@ -I ../Libraries/CMSIS/Include/ -imultilib thumb/v7e-m+fp/hard
  27              	@ -iprefix c:\program files (x86)\gnu arm embedded toolchain\10 2021.10\bin\../lib/gcc/arm-none-eab
  28              	@ -isysroot c:\program files (x86)\gnu arm embedded toolchain\10 2021.10\bin\../arm-none-eabi
  29              	@ -MD out/stm32f4xx_sdio.d -MF out/stm32f4xx_sdio.d -MP
  30              	@ -MQ out/stm32f4xx_sdio.o -D__USES_INITFINI__ -D STM32F4XX -D __VFP_FP__
  31              	@ -D USE_USB_OTG_FS
  32              	@ ../Libraries/STM32F4xx_StdPeriph_Driver/src/stm32f4xx_sdio.c
  33              	@ -mcpu=cortex-m4 -mthumb -mfloat-abi=hard -mfpu=fpv4-sp-d16
  34              	@ -mlibarch=armv7e-m+fp -march=armv7e-m+fp
  35              	@ -auxbase-strip out/stm32f4xx_sdio.o -g -ggdb3 -O3 -Wall
  36              	@ -Wstrict-prototypes -Wextra -std=gnu90 -ffast-math -ffunction-sections
  37              	@ -fdata-sections -fverbose-asm
  38              	@ options enabled:  -faggressive-loop-optimizations -falign-functions
  39              	@ -falign-jumps -falign-labels -falign-loops -fallocation-dce
  40              	@ -fassociative-math -fauto-inc-dec -fbranch-count-reg -fcaller-saves
  41              	@ -fcombine-stack-adjustments -fcompare-elim -fcprop-registers
  42              	@ -fcrossjumping -fcse-follow-jumps -fcx-limited-range -fdata-sections
  43              	@ -fdefer-pop -fdelete-null-pointer-checks -fdevirtualize
  44              	@ -fdevirtualize-speculatively -fdwarf2-cfi-asm -fearly-inlining
  45              	@ -feliminate-unused-debug-symbols -feliminate-unused-debug-types
  46              	@ -fexpensive-optimizations -ffinite-math-only -fforward-propagate
  47              	@ -ffp-int-builtin-inexact -ffunction-cse -ffunction-sections -fgcse
  48              	@ -fgcse-after-reload -fgcse-lm -fgnu-unique -fguess-branch-probability
  49              	@ -fhoist-adjacent-loads -fident -fif-conversion -fif-conversion2
  50              	@ -findirect-inlining -finline -finline-atomics -finline-functions
  51              	@ -finline-functions-called-once -finline-small-functions -fipa-bit-cp
  52              	@ -fipa-cp -fipa-cp-clone -fipa-icf -fipa-icf-functions -fipa-icf-variables
  53              	@ -fipa-profile -fipa-pure-const -fipa-ra -fipa-reference
  54              	@ -fipa-reference-addressable -fipa-sra -fipa-stack-alignment -fipa-vrp
  55              	@ -fira-hoist-pressure -fira-share-save-slots -fira-share-spill-slots
  56              	@ -fisolate-erroneous-paths-dereference -fivopts -fkeep-static-consts
  57              	@ -fleading-underscore -flifetime-dse -floop-interchange
ARM GAS  C:\Users\admin\AppData\Local\Temp\ccIRU4x5.s 			page 2


  58              	@ -floop-unroll-and-jam -flra-remat -fmerge-constants -fmerge-debug-strings
  59              	@ -fmove-loop-invariants -fomit-frame-pointer -foptimize-sibling-calls
  60              	@ -foptimize-strlen -fpartial-inlining -fpeel-loops -fpeephole -fpeephole2
  61              	@ -fplt -fpredictive-commoning -fprefetch-loop-arrays -freciprocal-math
  62              	@ -freg-struct-return -freorder-blocks -freorder-functions
  63              	@ -frerun-cse-after-loop -fsched-critical-path-heuristic
  64              	@ -fsched-dep-count-heuristic -fsched-group-heuristic -fsched-interblock
  65              	@ -fsched-last-insn-heuristic -fsched-pressure -fsched-rank-heuristic
  66              	@ -fsched-spec -fsched-spec-insn-heuristic -fsched-stalled-insns-dep
  67              	@ -fschedule-insns -fschedule-insns2 -fsection-anchors
  68              	@ -fsemantic-interposition -fshow-column -fshrink-wrap
  69              	@ -fshrink-wrap-separate -fsplit-ivs-in-unroller -fsplit-loops
  70              	@ -fsplit-paths -fsplit-wide-types -fssa-backprop -fssa-phiopt -fstdarg-opt
  71              	@ -fstore-merging -fstrict-aliasing -fstrict-volatile-bitfields
  72              	@ -fsync-libcalls -fthread-jumps -ftoplevel-reorder -ftree-bit-ccp
  73              	@ -ftree-builtin-call-dce -ftree-ccp -ftree-ch -ftree-coalesce-vars
  74              	@ -ftree-copy-prop -ftree-cselim -ftree-dce -ftree-dominator-opts
  75              	@ -ftree-dse -ftree-forwprop -ftree-fre -ftree-loop-distribute-patterns
  76              	@ -ftree-loop-distribution -ftree-loop-if-convert -ftree-loop-im
  77              	@ -ftree-loop-ivcanon -ftree-loop-optimize -ftree-loop-vectorize
  78              	@ -ftree-parallelize-loops= -ftree-partial-pre -ftree-phiprop -ftree-pre
  79              	@ -ftree-pta -ftree-reassoc -ftree-scev-cprop -ftree-sink
  80              	@ -ftree-slp-vectorize -ftree-slsr -ftree-sra -ftree-switch-conversion
  81              	@ -ftree-tail-merge -ftree-ter -ftree-vrp -funit-at-a-time
  82              	@ -funsafe-math-optimizations -funswitch-loops -fvar-tracking
  83              	@ -fvar-tracking-assignments -fverbose-asm -fversion-loops-for-strides
  84              	@ -fzero-initialized-in-bss -masm-syntax-unified -mbe32 -mlittle-endian
  85              	@ -mpic-data-is-text-relative -msched-prolog -mthumb -munaligned-access
  86              	@ -mvectorize-with-neon-quad
  87              	
  88              		.text
  89              	.Ltext0:
  90              		.cfi_sections	.debug_frame
  91              		.section	.text.SDIO_DeInit,"ax",%progbits
  92              		.align	1
  93              		.p2align 2,,3
  94              		.global	SDIO_DeInit
  95              		.syntax unified
  96              		.thumb
  97              		.thumb_func
  98              		.type	SDIO_DeInit, %function
  99              	SDIO_DeInit:
 100              	.LFB110:
 101              		.file 1 "../Libraries/STM32F4xx_StdPeriph_Driver/src/stm32f4xx_sdio.c"
   1:../Libraries/STM32F4xx_StdPeriph_Driver/src/stm32f4xx_sdio.c **** /**
   2:../Libraries/STM32F4xx_StdPeriph_Driver/src/stm32f4xx_sdio.c ****   ******************************************************************************
   3:../Libraries/STM32F4xx_StdPeriph_Driver/src/stm32f4xx_sdio.c ****   * @file    stm32f4xx_sdio.c
   4:../Libraries/STM32F4xx_StdPeriph_Driver/src/stm32f4xx_sdio.c ****   * @author  MCD Application Team
   5:../Libraries/STM32F4xx_StdPeriph_Driver/src/stm32f4xx_sdio.c ****   * @version V1.0.0
   6:../Libraries/STM32F4xx_StdPeriph_Driver/src/stm32f4xx_sdio.c ****   * @date    30-September-2011
   7:../Libraries/STM32F4xx_StdPeriph_Driver/src/stm32f4xx_sdio.c ****   * @brief   This file provides firmware functions to manage the following 
   8:../Libraries/STM32F4xx_StdPeriph_Driver/src/stm32f4xx_sdio.c ****   *          functionalities of the Secure digital input/output interface (SDIO) 
   9:../Libraries/STM32F4xx_StdPeriph_Driver/src/stm32f4xx_sdio.c ****   *          peripheral:
  10:../Libraries/STM32F4xx_StdPeriph_Driver/src/stm32f4xx_sdio.c ****   *           - Initialization and Configuration
  11:../Libraries/STM32F4xx_StdPeriph_Driver/src/stm32f4xx_sdio.c ****   *           - Command path state machine (CPSM) management
  12:../Libraries/STM32F4xx_StdPeriph_Driver/src/stm32f4xx_sdio.c ****   *           - Data path state machine (DPSM) management
  13:../Libraries/STM32F4xx_StdPeriph_Driver/src/stm32f4xx_sdio.c ****   *           - SDIO IO Cards mode management
ARM GAS  C:\Users\admin\AppData\Local\Temp\ccIRU4x5.s 			page 3


  14:../Libraries/STM32F4xx_StdPeriph_Driver/src/stm32f4xx_sdio.c ****   *           - CE-ATA mode management
  15:../Libraries/STM32F4xx_StdPeriph_Driver/src/stm32f4xx_sdio.c ****   *           - DMA transfers management
  16:../Libraries/STM32F4xx_StdPeriph_Driver/src/stm32f4xx_sdio.c ****   *           - Interrupts and flags management
  17:../Libraries/STM32F4xx_StdPeriph_Driver/src/stm32f4xx_sdio.c ****   *
  18:../Libraries/STM32F4xx_StdPeriph_Driver/src/stm32f4xx_sdio.c ****   *  @verbatim
  19:../Libraries/STM32F4xx_StdPeriph_Driver/src/stm32f4xx_sdio.c ****   *
  20:../Libraries/STM32F4xx_StdPeriph_Driver/src/stm32f4xx_sdio.c ****   *
  21:../Libraries/STM32F4xx_StdPeriph_Driver/src/stm32f4xx_sdio.c ****   *          ===================================================================
  22:../Libraries/STM32F4xx_StdPeriph_Driver/src/stm32f4xx_sdio.c ****   *                                 How to use this driver
  23:../Libraries/STM32F4xx_StdPeriph_Driver/src/stm32f4xx_sdio.c ****   *          ===================================================================
  24:../Libraries/STM32F4xx_StdPeriph_Driver/src/stm32f4xx_sdio.c ****   *          1. The SDIO clock (SDIOCLK = 48 MHz) is coming from a specific output
  25:../Libraries/STM32F4xx_StdPeriph_Driver/src/stm32f4xx_sdio.c ****   *             of PLL (PLL48CLK). Before to start working with SDIO peripheral
  26:../Libraries/STM32F4xx_StdPeriph_Driver/src/stm32f4xx_sdio.c ****   *             make sure that the PLL is well configured.
  27:../Libraries/STM32F4xx_StdPeriph_Driver/src/stm32f4xx_sdio.c ****   *          The SDIO peripheral uses two clock signals:
  28:../Libraries/STM32F4xx_StdPeriph_Driver/src/stm32f4xx_sdio.c ****   *              - SDIO adapter clock (SDIOCLK = 48 MHz)
  29:../Libraries/STM32F4xx_StdPeriph_Driver/src/stm32f4xx_sdio.c ****   *              - APB2 bus clock (PCLK2)
  30:../Libraries/STM32F4xx_StdPeriph_Driver/src/stm32f4xx_sdio.c ****   *          PCLK2 and SDIO_CK clock frequencies must respect the following condition:
  31:../Libraries/STM32F4xx_StdPeriph_Driver/src/stm32f4xx_sdio.c ****   *                   Frequenc(PCLK2) >= (3 / 8 x Frequency(SDIO_CK))
  32:../Libraries/STM32F4xx_StdPeriph_Driver/src/stm32f4xx_sdio.c ****   *
  33:../Libraries/STM32F4xx_StdPeriph_Driver/src/stm32f4xx_sdio.c ****   *          2. Enable peripheral clock using RCC_APB2PeriphClockCmd(RCC_APB2Periph_SDIO, ENABLE).
  34:../Libraries/STM32F4xx_StdPeriph_Driver/src/stm32f4xx_sdio.c ****   *
  35:../Libraries/STM32F4xx_StdPeriph_Driver/src/stm32f4xx_sdio.c ****   *          3.  According to the SDIO mode, enable the GPIO clocks using 
  36:../Libraries/STM32F4xx_StdPeriph_Driver/src/stm32f4xx_sdio.c ****   *              RCC_AHB1PeriphClockCmd() function. 
  37:../Libraries/STM32F4xx_StdPeriph_Driver/src/stm32f4xx_sdio.c ****   *              The I/O can be one of the following configurations:
  38:../Libraries/STM32F4xx_StdPeriph_Driver/src/stm32f4xx_sdio.c ****   *                 - 1-bit data length: SDIO_CMD, SDIO_CK and D0.
  39:../Libraries/STM32F4xx_StdPeriph_Driver/src/stm32f4xx_sdio.c ****   *                 - 4-bit data length: SDIO_CMD, SDIO_CK and D[3:0].
  40:../Libraries/STM32F4xx_StdPeriph_Driver/src/stm32f4xx_sdio.c ****   *                 - 8-bit data length: SDIO_CMD, SDIO_CK and D[7:0].      
  41:../Libraries/STM32F4xx_StdPeriph_Driver/src/stm32f4xx_sdio.c ****   *
  42:../Libraries/STM32F4xx_StdPeriph_Driver/src/stm32f4xx_sdio.c ****   *          4. Peripheral's alternate function: 
  43:../Libraries/STM32F4xx_StdPeriph_Driver/src/stm32f4xx_sdio.c ****   *                 - Connect the pin to the desired peripherals' Alternate 
  44:../Libraries/STM32F4xx_StdPeriph_Driver/src/stm32f4xx_sdio.c ****   *                   Function (AF) using GPIO_PinAFConfig() function
  45:../Libraries/STM32F4xx_StdPeriph_Driver/src/stm32f4xx_sdio.c ****   *                 - Configure the desired pin in alternate function by:
  46:../Libraries/STM32F4xx_StdPeriph_Driver/src/stm32f4xx_sdio.c ****   *                   GPIO_InitStruct->GPIO_Mode = GPIO_Mode_AF
  47:../Libraries/STM32F4xx_StdPeriph_Driver/src/stm32f4xx_sdio.c ****   *                 - Select the type, pull-up/pull-down and output speed via 
  48:../Libraries/STM32F4xx_StdPeriph_Driver/src/stm32f4xx_sdio.c ****   *                   GPIO_PuPd, GPIO_OType and GPIO_Speed members
  49:../Libraries/STM32F4xx_StdPeriph_Driver/src/stm32f4xx_sdio.c ****   *                 - Call GPIO_Init() function
  50:../Libraries/STM32F4xx_StdPeriph_Driver/src/stm32f4xx_sdio.c ****   *
  51:../Libraries/STM32F4xx_StdPeriph_Driver/src/stm32f4xx_sdio.c ****   *          5. Program the Clock Edge, Clock Bypass, Clock Power Save, Bus Wide, 
  52:../Libraries/STM32F4xx_StdPeriph_Driver/src/stm32f4xx_sdio.c ****   *             hardware, flow control and the Clock Divider using the SDIO_Init()
  53:../Libraries/STM32F4xx_StdPeriph_Driver/src/stm32f4xx_sdio.c ****   *             function.
  54:../Libraries/STM32F4xx_StdPeriph_Driver/src/stm32f4xx_sdio.c ****   *
  55:../Libraries/STM32F4xx_StdPeriph_Driver/src/stm32f4xx_sdio.c ****   *          6. Enable the Power ON State using the SDIO_SetPowerState(SDIO_PowerState_ON) 
  56:../Libraries/STM32F4xx_StdPeriph_Driver/src/stm32f4xx_sdio.c ****   *             function.
  57:../Libraries/STM32F4xx_StdPeriph_Driver/src/stm32f4xx_sdio.c ****   *              
  58:../Libraries/STM32F4xx_StdPeriph_Driver/src/stm32f4xx_sdio.c ****   *          7. Enable the clock using the SDIO_ClockCmd() function.
  59:../Libraries/STM32F4xx_StdPeriph_Driver/src/stm32f4xx_sdio.c ****   *
  60:../Libraries/STM32F4xx_StdPeriph_Driver/src/stm32f4xx_sdio.c ****   *          8. Enable the NVIC and the corresponding interrupt using the function 
  61:../Libraries/STM32F4xx_StdPeriph_Driver/src/stm32f4xx_sdio.c ****   *             SDIO_ITConfig() if you need to use interrupt mode. 
  62:../Libraries/STM32F4xx_StdPeriph_Driver/src/stm32f4xx_sdio.c ****   *
  63:../Libraries/STM32F4xx_StdPeriph_Driver/src/stm32f4xx_sdio.c ****   *          9. When using the DMA mode 
  64:../Libraries/STM32F4xx_StdPeriph_Driver/src/stm32f4xx_sdio.c ****   *                   - Configure the DMA using DMA_Init() function
  65:../Libraries/STM32F4xx_StdPeriph_Driver/src/stm32f4xx_sdio.c ****   *                   - Active the needed channel Request using SDIO_DMACmd() function
  66:../Libraries/STM32F4xx_StdPeriph_Driver/src/stm32f4xx_sdio.c ****   *
  67:../Libraries/STM32F4xx_StdPeriph_Driver/src/stm32f4xx_sdio.c ****   *          10. Enable the DMA using the DMA_Cmd() function, when using DMA mode. 
  68:../Libraries/STM32F4xx_StdPeriph_Driver/src/stm32f4xx_sdio.c ****   *
  69:../Libraries/STM32F4xx_StdPeriph_Driver/src/stm32f4xx_sdio.c ****   *          11. To control the CPSM (Command Path State Machine) and send 
  70:../Libraries/STM32F4xx_StdPeriph_Driver/src/stm32f4xx_sdio.c ****   *              commands to the card use the SDIO_SendCommand(), 
ARM GAS  C:\Users\admin\AppData\Local\Temp\ccIRU4x5.s 			page 4


  71:../Libraries/STM32F4xx_StdPeriph_Driver/src/stm32f4xx_sdio.c ****   *              SDIO_GetCommandResponse() and SDIO_GetResponse() functions.     
  72:../Libraries/STM32F4xx_StdPeriph_Driver/src/stm32f4xx_sdio.c ****   *              First, user has to fill the command structure (pointer to
  73:../Libraries/STM32F4xx_StdPeriph_Driver/src/stm32f4xx_sdio.c ****   *              SDIO_CmdInitTypeDef) according to the selected command to be sent.
  74:../Libraries/STM32F4xx_StdPeriph_Driver/src/stm32f4xx_sdio.c ****   *                 The parameters that should be filled are:
  75:../Libraries/STM32F4xx_StdPeriph_Driver/src/stm32f4xx_sdio.c ****   *                   - Command Argument
  76:../Libraries/STM32F4xx_StdPeriph_Driver/src/stm32f4xx_sdio.c ****   *                   - Command Index
  77:../Libraries/STM32F4xx_StdPeriph_Driver/src/stm32f4xx_sdio.c ****   *                   - Command Response type
  78:../Libraries/STM32F4xx_StdPeriph_Driver/src/stm32f4xx_sdio.c ****   *                   - Command Wait
  79:../Libraries/STM32F4xx_StdPeriph_Driver/src/stm32f4xx_sdio.c ****   *                   - CPSM Status (Enable or Disable)
  80:../Libraries/STM32F4xx_StdPeriph_Driver/src/stm32f4xx_sdio.c ****   *
  81:../Libraries/STM32F4xx_StdPeriph_Driver/src/stm32f4xx_sdio.c ****   *              To check if the command is well received, read the SDIO_CMDRESP
  82:../Libraries/STM32F4xx_StdPeriph_Driver/src/stm32f4xx_sdio.c ****   *              register using the SDIO_GetCommandResponse().
  83:../Libraries/STM32F4xx_StdPeriph_Driver/src/stm32f4xx_sdio.c ****   *              The SDIO responses registers (SDIO_RESP1 to SDIO_RESP2), use the
  84:../Libraries/STM32F4xx_StdPeriph_Driver/src/stm32f4xx_sdio.c ****   *              SDIO_GetResponse() function.
  85:../Libraries/STM32F4xx_StdPeriph_Driver/src/stm32f4xx_sdio.c ****   *
  86:../Libraries/STM32F4xx_StdPeriph_Driver/src/stm32f4xx_sdio.c ****   *          12. To control the DPSM (Data Path State Machine) and send/receive 
  87:../Libraries/STM32F4xx_StdPeriph_Driver/src/stm32f4xx_sdio.c ****   *              data to/from the card use the SDIO_DataConfig(), SDIO_GetDataCounter(), 
  88:../Libraries/STM32F4xx_StdPeriph_Driver/src/stm32f4xx_sdio.c ****   *              SDIO_ReadData(), SDIO_WriteData() and SDIO_GetFIFOCount() functions.
  89:../Libraries/STM32F4xx_StdPeriph_Driver/src/stm32f4xx_sdio.c ****   *
  90:../Libraries/STM32F4xx_StdPeriph_Driver/src/stm32f4xx_sdio.c ****   *              Read Operations
  91:../Libraries/STM32F4xx_StdPeriph_Driver/src/stm32f4xx_sdio.c ****   *              ---------------
  92:../Libraries/STM32F4xx_StdPeriph_Driver/src/stm32f4xx_sdio.c ****   *              a) First, user has to fill the data structure (pointer to
  93:../Libraries/STM32F4xx_StdPeriph_Driver/src/stm32f4xx_sdio.c ****   *                 SDIO_DataInitTypeDef) according to the selected data type to
  94:../Libraries/STM32F4xx_StdPeriph_Driver/src/stm32f4xx_sdio.c ****   *                 be received.
  95:../Libraries/STM32F4xx_StdPeriph_Driver/src/stm32f4xx_sdio.c ****   *                 The parameters that should be filled are:
  96:../Libraries/STM32F4xx_StdPeriph_Driver/src/stm32f4xx_sdio.c ****   *                   - Data TimeOut
  97:../Libraries/STM32F4xx_StdPeriph_Driver/src/stm32f4xx_sdio.c ****   *                   - Data Length
  98:../Libraries/STM32F4xx_StdPeriph_Driver/src/stm32f4xx_sdio.c ****   *                   - Data Block size
  99:../Libraries/STM32F4xx_StdPeriph_Driver/src/stm32f4xx_sdio.c ****   *                   - Data Transfer direction: should be from card (To SDIO)
 100:../Libraries/STM32F4xx_StdPeriph_Driver/src/stm32f4xx_sdio.c ****   *                   - Data Transfer mode
 101:../Libraries/STM32F4xx_StdPeriph_Driver/src/stm32f4xx_sdio.c ****   *                   - DPSM Status (Enable or Disable)
 102:../Libraries/STM32F4xx_StdPeriph_Driver/src/stm32f4xx_sdio.c ****   *                                   
 103:../Libraries/STM32F4xx_StdPeriph_Driver/src/stm32f4xx_sdio.c ****   *              b) Configure the SDIO resources to receive the data from the card
 104:../Libraries/STM32F4xx_StdPeriph_Driver/src/stm32f4xx_sdio.c ****   *                 according to selected transfer mode (Refer to Step 8, 9 and 10).
 105:../Libraries/STM32F4xx_StdPeriph_Driver/src/stm32f4xx_sdio.c ****   *
 106:../Libraries/STM32F4xx_StdPeriph_Driver/src/stm32f4xx_sdio.c ****   *              c) Send the selected Read command (refer to step 11).
 107:../Libraries/STM32F4xx_StdPeriph_Driver/src/stm32f4xx_sdio.c ****   *                  
 108:../Libraries/STM32F4xx_StdPeriph_Driver/src/stm32f4xx_sdio.c ****   *              d) Use the SDIO flags/interrupts to check the transfer status.
 109:../Libraries/STM32F4xx_StdPeriph_Driver/src/stm32f4xx_sdio.c ****   *
 110:../Libraries/STM32F4xx_StdPeriph_Driver/src/stm32f4xx_sdio.c ****   *              Write Operations
 111:../Libraries/STM32F4xx_StdPeriph_Driver/src/stm32f4xx_sdio.c ****   *              ---------------
 112:../Libraries/STM32F4xx_StdPeriph_Driver/src/stm32f4xx_sdio.c ****   *              a) First, user has to fill the data structure (pointer to
 113:../Libraries/STM32F4xx_StdPeriph_Driver/src/stm32f4xx_sdio.c ****   *                 SDIO_DataInitTypeDef) according to the selected data type to
 114:../Libraries/STM32F4xx_StdPeriph_Driver/src/stm32f4xx_sdio.c ****   *                 be received.
 115:../Libraries/STM32F4xx_StdPeriph_Driver/src/stm32f4xx_sdio.c ****   *                 The parameters that should be filled are:
 116:../Libraries/STM32F4xx_StdPeriph_Driver/src/stm32f4xx_sdio.c ****   *                   - Data TimeOut
 117:../Libraries/STM32F4xx_StdPeriph_Driver/src/stm32f4xx_sdio.c ****   *                   - Data Length
 118:../Libraries/STM32F4xx_StdPeriph_Driver/src/stm32f4xx_sdio.c ****   *                   - Data Block size
 119:../Libraries/STM32F4xx_StdPeriph_Driver/src/stm32f4xx_sdio.c ****   *                   - Data Transfer direction:  should be to card (To CARD)
 120:../Libraries/STM32F4xx_StdPeriph_Driver/src/stm32f4xx_sdio.c ****   *                   - Data Transfer mode
 121:../Libraries/STM32F4xx_StdPeriph_Driver/src/stm32f4xx_sdio.c ****   *                   - DPSM Status (Enable or Disable)
 122:../Libraries/STM32F4xx_StdPeriph_Driver/src/stm32f4xx_sdio.c ****   *
 123:../Libraries/STM32F4xx_StdPeriph_Driver/src/stm32f4xx_sdio.c ****   *              b) Configure the SDIO resources to send the data to the card
 124:../Libraries/STM32F4xx_StdPeriph_Driver/src/stm32f4xx_sdio.c ****   *                 according to selected transfer mode (Refer to Step 8, 9 and 10).
 125:../Libraries/STM32F4xx_StdPeriph_Driver/src/stm32f4xx_sdio.c ****   *                   
 126:../Libraries/STM32F4xx_StdPeriph_Driver/src/stm32f4xx_sdio.c ****   *              c) Send the selected Write command (refer to step 11).
 127:../Libraries/STM32F4xx_StdPeriph_Driver/src/stm32f4xx_sdio.c ****   *                  
ARM GAS  C:\Users\admin\AppData\Local\Temp\ccIRU4x5.s 			page 5


 128:../Libraries/STM32F4xx_StdPeriph_Driver/src/stm32f4xx_sdio.c ****   *              d) Use the SDIO flags/interrupts to check the transfer status.
 129:../Libraries/STM32F4xx_StdPeriph_Driver/src/stm32f4xx_sdio.c ****   *
 130:../Libraries/STM32F4xx_StdPeriph_Driver/src/stm32f4xx_sdio.c ****   *
 131:../Libraries/STM32F4xx_StdPeriph_Driver/src/stm32f4xx_sdio.c ****   *  @endverbatim
 132:../Libraries/STM32F4xx_StdPeriph_Driver/src/stm32f4xx_sdio.c ****   *
 133:../Libraries/STM32F4xx_StdPeriph_Driver/src/stm32f4xx_sdio.c ****   *
 134:../Libraries/STM32F4xx_StdPeriph_Driver/src/stm32f4xx_sdio.c ****   ******************************************************************************
 135:../Libraries/STM32F4xx_StdPeriph_Driver/src/stm32f4xx_sdio.c ****   * @attention
 136:../Libraries/STM32F4xx_StdPeriph_Driver/src/stm32f4xx_sdio.c ****   *
 137:../Libraries/STM32F4xx_StdPeriph_Driver/src/stm32f4xx_sdio.c ****   * THE PRESENT FIRMWARE WHICH IS FOR GUIDANCE ONLY AIMS AT PROVIDING CUSTOMERS
 138:../Libraries/STM32F4xx_StdPeriph_Driver/src/stm32f4xx_sdio.c ****   * WITH CODING INFORMATION REGARDING THEIR PRODUCTS IN ORDER FOR THEM TO SAVE
 139:../Libraries/STM32F4xx_StdPeriph_Driver/src/stm32f4xx_sdio.c ****   * TIME. AS A RESULT, STMICROELECTRONICS SHALL NOT BE HELD LIABLE FOR ANY
 140:../Libraries/STM32F4xx_StdPeriph_Driver/src/stm32f4xx_sdio.c ****   * DIRECT, INDIRECT OR CONSEQUENTIAL DAMAGES WITH RESPECT TO ANY CLAIMS ARISING
 141:../Libraries/STM32F4xx_StdPeriph_Driver/src/stm32f4xx_sdio.c ****   * FROM THE CONTENT OF SUCH FIRMWARE AND/OR THE USE MADE BY CUSTOMERS OF THE
 142:../Libraries/STM32F4xx_StdPeriph_Driver/src/stm32f4xx_sdio.c ****   * CODING INFORMATION CONTAINED HEREIN IN CONNECTION WITH THEIR PRODUCTS.
 143:../Libraries/STM32F4xx_StdPeriph_Driver/src/stm32f4xx_sdio.c ****   *
 144:../Libraries/STM32F4xx_StdPeriph_Driver/src/stm32f4xx_sdio.c ****   * <h2><center>&copy; COPYRIGHT 2011 STMicroelectronics</center></h2>
 145:../Libraries/STM32F4xx_StdPeriph_Driver/src/stm32f4xx_sdio.c ****   ******************************************************************************
 146:../Libraries/STM32F4xx_StdPeriph_Driver/src/stm32f4xx_sdio.c ****   */
 147:../Libraries/STM32F4xx_StdPeriph_Driver/src/stm32f4xx_sdio.c **** 
 148:../Libraries/STM32F4xx_StdPeriph_Driver/src/stm32f4xx_sdio.c **** /* Includes ------------------------------------------------------------------*/
 149:../Libraries/STM32F4xx_StdPeriph_Driver/src/stm32f4xx_sdio.c **** #include "stm32f4xx_sdio.h"
 150:../Libraries/STM32F4xx_StdPeriph_Driver/src/stm32f4xx_sdio.c **** #include "stm32f4xx_rcc.h"
 151:../Libraries/STM32F4xx_StdPeriph_Driver/src/stm32f4xx_sdio.c **** 
 152:../Libraries/STM32F4xx_StdPeriph_Driver/src/stm32f4xx_sdio.c **** /** @addtogroup STM32F4xx_StdPeriph_Driver
 153:../Libraries/STM32F4xx_StdPeriph_Driver/src/stm32f4xx_sdio.c ****   * @{
 154:../Libraries/STM32F4xx_StdPeriph_Driver/src/stm32f4xx_sdio.c ****   */
 155:../Libraries/STM32F4xx_StdPeriph_Driver/src/stm32f4xx_sdio.c **** 
 156:../Libraries/STM32F4xx_StdPeriph_Driver/src/stm32f4xx_sdio.c **** /** @defgroup SDIO 
 157:../Libraries/STM32F4xx_StdPeriph_Driver/src/stm32f4xx_sdio.c ****   * @brief SDIO driver modules
 158:../Libraries/STM32F4xx_StdPeriph_Driver/src/stm32f4xx_sdio.c ****   * @{
 159:../Libraries/STM32F4xx_StdPeriph_Driver/src/stm32f4xx_sdio.c ****   */ 
 160:../Libraries/STM32F4xx_StdPeriph_Driver/src/stm32f4xx_sdio.c **** 
 161:../Libraries/STM32F4xx_StdPeriph_Driver/src/stm32f4xx_sdio.c **** /* Private typedef -----------------------------------------------------------*/
 162:../Libraries/STM32F4xx_StdPeriph_Driver/src/stm32f4xx_sdio.c **** /* Private define ------------------------------------------------------------*/
 163:../Libraries/STM32F4xx_StdPeriph_Driver/src/stm32f4xx_sdio.c **** 
 164:../Libraries/STM32F4xx_StdPeriph_Driver/src/stm32f4xx_sdio.c **** /* ------------ SDIO registers bit address in the alias region ----------- */
 165:../Libraries/STM32F4xx_StdPeriph_Driver/src/stm32f4xx_sdio.c **** #define SDIO_OFFSET                (SDIO_BASE - PERIPH_BASE)
 166:../Libraries/STM32F4xx_StdPeriph_Driver/src/stm32f4xx_sdio.c **** 
 167:../Libraries/STM32F4xx_StdPeriph_Driver/src/stm32f4xx_sdio.c **** /* --- CLKCR Register ---*/
 168:../Libraries/STM32F4xx_StdPeriph_Driver/src/stm32f4xx_sdio.c **** /* Alias word address of CLKEN bit */
 169:../Libraries/STM32F4xx_StdPeriph_Driver/src/stm32f4xx_sdio.c **** #define CLKCR_OFFSET              (SDIO_OFFSET + 0x04)
 170:../Libraries/STM32F4xx_StdPeriph_Driver/src/stm32f4xx_sdio.c **** #define CLKEN_BitNumber           0x08
 171:../Libraries/STM32F4xx_StdPeriph_Driver/src/stm32f4xx_sdio.c **** #define CLKCR_CLKEN_BB            (PERIPH_BB_BASE + (CLKCR_OFFSET * 32) + (CLKEN_BitNumber * 4))
 172:../Libraries/STM32F4xx_StdPeriph_Driver/src/stm32f4xx_sdio.c **** 
 173:../Libraries/STM32F4xx_StdPeriph_Driver/src/stm32f4xx_sdio.c **** /* --- CMD Register ---*/
 174:../Libraries/STM32F4xx_StdPeriph_Driver/src/stm32f4xx_sdio.c **** /* Alias word address of SDIOSUSPEND bit */
 175:../Libraries/STM32F4xx_StdPeriph_Driver/src/stm32f4xx_sdio.c **** #define CMD_OFFSET                (SDIO_OFFSET + 0x0C)
 176:../Libraries/STM32F4xx_StdPeriph_Driver/src/stm32f4xx_sdio.c **** #define SDIOSUSPEND_BitNumber     0x0B
 177:../Libraries/STM32F4xx_StdPeriph_Driver/src/stm32f4xx_sdio.c **** #define CMD_SDIOSUSPEND_BB        (PERIPH_BB_BASE + (CMD_OFFSET * 32) + (SDIOSUSPEND_BitNumber * 4)
 178:../Libraries/STM32F4xx_StdPeriph_Driver/src/stm32f4xx_sdio.c **** 
 179:../Libraries/STM32F4xx_StdPeriph_Driver/src/stm32f4xx_sdio.c **** /* Alias word address of ENCMDCOMPL bit */
 180:../Libraries/STM32F4xx_StdPeriph_Driver/src/stm32f4xx_sdio.c **** #define ENCMDCOMPL_BitNumber      0x0C
 181:../Libraries/STM32F4xx_StdPeriph_Driver/src/stm32f4xx_sdio.c **** #define CMD_ENCMDCOMPL_BB         (PERIPH_BB_BASE + (CMD_OFFSET * 32) + (ENCMDCOMPL_BitNumber * 4))
 182:../Libraries/STM32F4xx_StdPeriph_Driver/src/stm32f4xx_sdio.c **** 
 183:../Libraries/STM32F4xx_StdPeriph_Driver/src/stm32f4xx_sdio.c **** /* Alias word address of NIEN bit */
 184:../Libraries/STM32F4xx_StdPeriph_Driver/src/stm32f4xx_sdio.c **** #define NIEN_BitNumber            0x0D
ARM GAS  C:\Users\admin\AppData\Local\Temp\ccIRU4x5.s 			page 6


 185:../Libraries/STM32F4xx_StdPeriph_Driver/src/stm32f4xx_sdio.c **** #define CMD_NIEN_BB               (PERIPH_BB_BASE + (CMD_OFFSET * 32) + (NIEN_BitNumber * 4))
 186:../Libraries/STM32F4xx_StdPeriph_Driver/src/stm32f4xx_sdio.c **** 
 187:../Libraries/STM32F4xx_StdPeriph_Driver/src/stm32f4xx_sdio.c **** /* Alias word address of ATACMD bit */
 188:../Libraries/STM32F4xx_StdPeriph_Driver/src/stm32f4xx_sdio.c **** #define ATACMD_BitNumber          0x0E
 189:../Libraries/STM32F4xx_StdPeriph_Driver/src/stm32f4xx_sdio.c **** #define CMD_ATACMD_BB             (PERIPH_BB_BASE + (CMD_OFFSET * 32) + (ATACMD_BitNumber * 4))
 190:../Libraries/STM32F4xx_StdPeriph_Driver/src/stm32f4xx_sdio.c **** 
 191:../Libraries/STM32F4xx_StdPeriph_Driver/src/stm32f4xx_sdio.c **** /* --- DCTRL Register ---*/
 192:../Libraries/STM32F4xx_StdPeriph_Driver/src/stm32f4xx_sdio.c **** /* Alias word address of DMAEN bit */
 193:../Libraries/STM32F4xx_StdPeriph_Driver/src/stm32f4xx_sdio.c **** #define DCTRL_OFFSET              (SDIO_OFFSET + 0x2C)
 194:../Libraries/STM32F4xx_StdPeriph_Driver/src/stm32f4xx_sdio.c **** #define DMAEN_BitNumber           0x03
 195:../Libraries/STM32F4xx_StdPeriph_Driver/src/stm32f4xx_sdio.c **** #define DCTRL_DMAEN_BB            (PERIPH_BB_BASE + (DCTRL_OFFSET * 32) + (DMAEN_BitNumber * 4))
 196:../Libraries/STM32F4xx_StdPeriph_Driver/src/stm32f4xx_sdio.c **** 
 197:../Libraries/STM32F4xx_StdPeriph_Driver/src/stm32f4xx_sdio.c **** /* Alias word address of RWSTART bit */
 198:../Libraries/STM32F4xx_StdPeriph_Driver/src/stm32f4xx_sdio.c **** #define RWSTART_BitNumber         0x08
 199:../Libraries/STM32F4xx_StdPeriph_Driver/src/stm32f4xx_sdio.c **** #define DCTRL_RWSTART_BB          (PERIPH_BB_BASE + (DCTRL_OFFSET * 32) + (RWSTART_BitNumber * 4))
 200:../Libraries/STM32F4xx_StdPeriph_Driver/src/stm32f4xx_sdio.c **** 
 201:../Libraries/STM32F4xx_StdPeriph_Driver/src/stm32f4xx_sdio.c **** /* Alias word address of RWSTOP bit */
 202:../Libraries/STM32F4xx_StdPeriph_Driver/src/stm32f4xx_sdio.c **** #define RWSTOP_BitNumber          0x09
 203:../Libraries/STM32F4xx_StdPeriph_Driver/src/stm32f4xx_sdio.c **** #define DCTRL_RWSTOP_BB           (PERIPH_BB_BASE + (DCTRL_OFFSET * 32) + (RWSTOP_BitNumber * 4))
 204:../Libraries/STM32F4xx_StdPeriph_Driver/src/stm32f4xx_sdio.c **** 
 205:../Libraries/STM32F4xx_StdPeriph_Driver/src/stm32f4xx_sdio.c **** /* Alias word address of RWMOD bit */
 206:../Libraries/STM32F4xx_StdPeriph_Driver/src/stm32f4xx_sdio.c **** #define RWMOD_BitNumber           0x0A
 207:../Libraries/STM32F4xx_StdPeriph_Driver/src/stm32f4xx_sdio.c **** #define DCTRL_RWMOD_BB            (PERIPH_BB_BASE + (DCTRL_OFFSET * 32) + (RWMOD_BitNumber * 4))
 208:../Libraries/STM32F4xx_StdPeriph_Driver/src/stm32f4xx_sdio.c **** 
 209:../Libraries/STM32F4xx_StdPeriph_Driver/src/stm32f4xx_sdio.c **** /* Alias word address of SDIOEN bit */
 210:../Libraries/STM32F4xx_StdPeriph_Driver/src/stm32f4xx_sdio.c **** #define SDIOEN_BitNumber          0x0B
 211:../Libraries/STM32F4xx_StdPeriph_Driver/src/stm32f4xx_sdio.c **** #define DCTRL_SDIOEN_BB           (PERIPH_BB_BASE + (DCTRL_OFFSET * 32) + (SDIOEN_BitNumber * 4))
 212:../Libraries/STM32F4xx_StdPeriph_Driver/src/stm32f4xx_sdio.c **** 
 213:../Libraries/STM32F4xx_StdPeriph_Driver/src/stm32f4xx_sdio.c **** /* ---------------------- SDIO registers bit mask ------------------------ */
 214:../Libraries/STM32F4xx_StdPeriph_Driver/src/stm32f4xx_sdio.c **** /* --- CLKCR Register ---*/
 215:../Libraries/STM32F4xx_StdPeriph_Driver/src/stm32f4xx_sdio.c **** /* CLKCR register clear mask */
 216:../Libraries/STM32F4xx_StdPeriph_Driver/src/stm32f4xx_sdio.c **** #define CLKCR_CLEAR_MASK         ((uint32_t)0xFFFF8100) 
 217:../Libraries/STM32F4xx_StdPeriph_Driver/src/stm32f4xx_sdio.c **** 
 218:../Libraries/STM32F4xx_StdPeriph_Driver/src/stm32f4xx_sdio.c **** /* --- PWRCTRL Register ---*/
 219:../Libraries/STM32F4xx_StdPeriph_Driver/src/stm32f4xx_sdio.c **** /* SDIO PWRCTRL Mask */
 220:../Libraries/STM32F4xx_StdPeriph_Driver/src/stm32f4xx_sdio.c **** #define PWR_PWRCTRL_MASK         ((uint32_t)0xFFFFFFFC)
 221:../Libraries/STM32F4xx_StdPeriph_Driver/src/stm32f4xx_sdio.c **** 
 222:../Libraries/STM32F4xx_StdPeriph_Driver/src/stm32f4xx_sdio.c **** /* --- DCTRL Register ---*/
 223:../Libraries/STM32F4xx_StdPeriph_Driver/src/stm32f4xx_sdio.c **** /* SDIO DCTRL Clear Mask */
 224:../Libraries/STM32F4xx_StdPeriph_Driver/src/stm32f4xx_sdio.c **** #define DCTRL_CLEAR_MASK         ((uint32_t)0xFFFFFF08)
 225:../Libraries/STM32F4xx_StdPeriph_Driver/src/stm32f4xx_sdio.c **** 
 226:../Libraries/STM32F4xx_StdPeriph_Driver/src/stm32f4xx_sdio.c **** /* --- CMD Register ---*/
 227:../Libraries/STM32F4xx_StdPeriph_Driver/src/stm32f4xx_sdio.c **** /* CMD Register clear mask */
 228:../Libraries/STM32F4xx_StdPeriph_Driver/src/stm32f4xx_sdio.c **** #define CMD_CLEAR_MASK           ((uint32_t)0xFFFFF800)
 229:../Libraries/STM32F4xx_StdPeriph_Driver/src/stm32f4xx_sdio.c **** 
 230:../Libraries/STM32F4xx_StdPeriph_Driver/src/stm32f4xx_sdio.c **** /* SDIO RESP Registers Address */
 231:../Libraries/STM32F4xx_StdPeriph_Driver/src/stm32f4xx_sdio.c **** #define SDIO_RESP_ADDR           ((uint32_t)(SDIO_BASE + 0x14))
 232:../Libraries/STM32F4xx_StdPeriph_Driver/src/stm32f4xx_sdio.c **** 
 233:../Libraries/STM32F4xx_StdPeriph_Driver/src/stm32f4xx_sdio.c **** /* Private macro -------------------------------------------------------------*/
 234:../Libraries/STM32F4xx_StdPeriph_Driver/src/stm32f4xx_sdio.c **** /* Private variables ---------------------------------------------------------*/
 235:../Libraries/STM32F4xx_StdPeriph_Driver/src/stm32f4xx_sdio.c **** /* Private function prototypes -----------------------------------------------*/
 236:../Libraries/STM32F4xx_StdPeriph_Driver/src/stm32f4xx_sdio.c **** /* Private functions ---------------------------------------------------------*/
 237:../Libraries/STM32F4xx_StdPeriph_Driver/src/stm32f4xx_sdio.c **** 
 238:../Libraries/STM32F4xx_StdPeriph_Driver/src/stm32f4xx_sdio.c **** /** @defgroup SDIO_Private_Functions
 239:../Libraries/STM32F4xx_StdPeriph_Driver/src/stm32f4xx_sdio.c ****   * @{
 240:../Libraries/STM32F4xx_StdPeriph_Driver/src/stm32f4xx_sdio.c ****   */
 241:../Libraries/STM32F4xx_StdPeriph_Driver/src/stm32f4xx_sdio.c **** 
ARM GAS  C:\Users\admin\AppData\Local\Temp\ccIRU4x5.s 			page 7


 242:../Libraries/STM32F4xx_StdPeriph_Driver/src/stm32f4xx_sdio.c **** /** @defgroup SDIO_Group1 Initialization and Configuration functions
 243:../Libraries/STM32F4xx_StdPeriph_Driver/src/stm32f4xx_sdio.c ****  *  @brief   Initialization and Configuration functions 
 244:../Libraries/STM32F4xx_StdPeriph_Driver/src/stm32f4xx_sdio.c ****  *
 245:../Libraries/STM32F4xx_StdPeriph_Driver/src/stm32f4xx_sdio.c **** @verbatim   
 246:../Libraries/STM32F4xx_StdPeriph_Driver/src/stm32f4xx_sdio.c ****  ===============================================================================
 247:../Libraries/STM32F4xx_StdPeriph_Driver/src/stm32f4xx_sdio.c ****                  Initialization and Configuration functions
 248:../Libraries/STM32F4xx_StdPeriph_Driver/src/stm32f4xx_sdio.c ****  ===============================================================================
 249:../Libraries/STM32F4xx_StdPeriph_Driver/src/stm32f4xx_sdio.c **** 
 250:../Libraries/STM32F4xx_StdPeriph_Driver/src/stm32f4xx_sdio.c **** @endverbatim
 251:../Libraries/STM32F4xx_StdPeriph_Driver/src/stm32f4xx_sdio.c ****   * @{
 252:../Libraries/STM32F4xx_StdPeriph_Driver/src/stm32f4xx_sdio.c ****   */
 253:../Libraries/STM32F4xx_StdPeriph_Driver/src/stm32f4xx_sdio.c **** 
 254:../Libraries/STM32F4xx_StdPeriph_Driver/src/stm32f4xx_sdio.c **** /**
 255:../Libraries/STM32F4xx_StdPeriph_Driver/src/stm32f4xx_sdio.c ****   * @brief  Deinitializes the SDIO peripheral registers to their default reset values.
 256:../Libraries/STM32F4xx_StdPeriph_Driver/src/stm32f4xx_sdio.c ****   * @param  None
 257:../Libraries/STM32F4xx_StdPeriph_Driver/src/stm32f4xx_sdio.c ****   * @retval None
 258:../Libraries/STM32F4xx_StdPeriph_Driver/src/stm32f4xx_sdio.c ****   */
 259:../Libraries/STM32F4xx_StdPeriph_Driver/src/stm32f4xx_sdio.c **** void SDIO_DeInit(void)
 260:../Libraries/STM32F4xx_StdPeriph_Driver/src/stm32f4xx_sdio.c **** {
 102              		.loc 1 260 1 view -0
 103              		.cfi_startproc
 104              		@ args = 0, pretend = 0, frame = 0
 105              		@ frame_needed = 0, uses_anonymous_args = 0
 261:../Libraries/STM32F4xx_StdPeriph_Driver/src/stm32f4xx_sdio.c ****   RCC_APB2PeriphResetCmd(RCC_APB2Periph_SDIO, ENABLE);
 106              		.loc 1 261 3 view .LVU1
 107              	@ ../Libraries/STM32F4xx_StdPeriph_Driver/src/stm32f4xx_sdio.c:260: {
 260:../Libraries/STM32F4xx_StdPeriph_Driver/src/stm32f4xx_sdio.c ****   RCC_APB2PeriphResetCmd(RCC_APB2Periph_SDIO, ENABLE);
 108              		.loc 1 260 1 is_stmt 0 view .LVU2
 109 0000 08B5     		push	{r3, lr}	@
 110              		.cfi_def_cfa_offset 8
 111              		.cfi_offset 3, -8
 112              		.cfi_offset 14, -4
 113              	@ ../Libraries/STM32F4xx_StdPeriph_Driver/src/stm32f4xx_sdio.c:261:   RCC_APB2PeriphResetCmd(RCC_AP
 114              		.loc 1 261 3 view .LVU3
 115 0002 0121     		movs	r1, #1	@,
 116 0004 4FF40060 		mov	r0, #2048	@,
 117 0008 FFF7FEFF 		bl	RCC_APB2PeriphResetCmd		@
 118              	.LVL0:
 262:../Libraries/STM32F4xx_StdPeriph_Driver/src/stm32f4xx_sdio.c ****   RCC_APB2PeriphResetCmd(RCC_APB2Periph_SDIO, DISABLE);
 119              		.loc 1 262 3 is_stmt 1 view .LVU4
 120              	@ ../Libraries/STM32F4xx_StdPeriph_Driver/src/stm32f4xx_sdio.c:263: }
 263:../Libraries/STM32F4xx_StdPeriph_Driver/src/stm32f4xx_sdio.c **** }
 121              		.loc 1 263 1 is_stmt 0 view .LVU5
 122 000c BDE80840 		pop	{r3, lr}	@
 123              		.cfi_restore 14
 124              		.cfi_restore 3
 125              		.cfi_def_cfa_offset 0
 126              	@ ../Libraries/STM32F4xx_StdPeriph_Driver/src/stm32f4xx_sdio.c:262:   RCC_APB2PeriphResetCmd(RCC_AP
 262:../Libraries/STM32F4xx_StdPeriph_Driver/src/stm32f4xx_sdio.c ****   RCC_APB2PeriphResetCmd(RCC_APB2Periph_SDIO, DISABLE);
 127              		.loc 1 262 3 view .LVU6
 128 0010 0021     		movs	r1, #0	@,
 129 0012 4FF40060 		mov	r0, #2048	@,
 130 0016 FFF7FEBF 		b	RCC_APB2PeriphResetCmd		@
 131              	.LVL1:
 132              		.cfi_endproc
 133              	.LFE110:
 134              		.size	SDIO_DeInit, .-SDIO_DeInit
ARM GAS  C:\Users\admin\AppData\Local\Temp\ccIRU4x5.s 			page 8


 135 001a 00BF     		.section	.text.SDIO_Init,"ax",%progbits
 136              		.align	1
 137              		.p2align 2,,3
 138              		.global	SDIO_Init
 139              		.syntax unified
 140              		.thumb
 141              		.thumb_func
 142              		.type	SDIO_Init, %function
 143              	SDIO_Init:
 144              	.LVL2:
 145              	.LFB111:
 264:../Libraries/STM32F4xx_StdPeriph_Driver/src/stm32f4xx_sdio.c **** 
 265:../Libraries/STM32F4xx_StdPeriph_Driver/src/stm32f4xx_sdio.c **** /**
 266:../Libraries/STM32F4xx_StdPeriph_Driver/src/stm32f4xx_sdio.c ****   * @brief  Initializes the SDIO peripheral according to the specified 
 267:../Libraries/STM32F4xx_StdPeriph_Driver/src/stm32f4xx_sdio.c ****   *         parameters in the SDIO_InitStruct.
 268:../Libraries/STM32F4xx_StdPeriph_Driver/src/stm32f4xx_sdio.c ****   * @param  SDIO_InitStruct : pointer to a SDIO_InitTypeDef structure 
 269:../Libraries/STM32F4xx_StdPeriph_Driver/src/stm32f4xx_sdio.c ****   *         that contains the configuration information for the SDIO peripheral.
 270:../Libraries/STM32F4xx_StdPeriph_Driver/src/stm32f4xx_sdio.c ****   * @retval None
 271:../Libraries/STM32F4xx_StdPeriph_Driver/src/stm32f4xx_sdio.c ****   */
 272:../Libraries/STM32F4xx_StdPeriph_Driver/src/stm32f4xx_sdio.c **** void SDIO_Init(SDIO_InitTypeDef* SDIO_InitStruct)
 273:../Libraries/STM32F4xx_StdPeriph_Driver/src/stm32f4xx_sdio.c **** {
 146              		.loc 1 273 1 is_stmt 1 view -0
 147              		.cfi_startproc
 148              		@ args = 0, pretend = 0, frame = 0
 149              		@ frame_needed = 0, uses_anonymous_args = 0
 274:../Libraries/STM32F4xx_StdPeriph_Driver/src/stm32f4xx_sdio.c ****   uint32_t tmpreg = 0;
 150              		.loc 1 274 3 view .LVU8
 275:../Libraries/STM32F4xx_StdPeriph_Driver/src/stm32f4xx_sdio.c ****     
 276:../Libraries/STM32F4xx_StdPeriph_Driver/src/stm32f4xx_sdio.c ****   /* Check the parameters */
 277:../Libraries/STM32F4xx_StdPeriph_Driver/src/stm32f4xx_sdio.c ****   assert_param(IS_SDIO_CLOCK_EDGE(SDIO_InitStruct->SDIO_ClockEdge));
 151              		.loc 1 277 3 view .LVU9
 152              	@ ../Libraries/STM32F4xx_StdPeriph_Driver/src/stm32f4xx_sdio.c:273: {
 273:../Libraries/STM32F4xx_StdPeriph_Driver/src/stm32f4xx_sdio.c ****   uint32_t tmpreg = 0;
 153              		.loc 1 273 1 is_stmt 0 view .LVU10
 154 0000 38B5     		push	{r3, r4, r5, lr}	@
 155              		.cfi_def_cfa_offset 16
 156              		.cfi_offset 3, -16
 157              		.cfi_offset 4, -12
 158              		.cfi_offset 5, -8
 159              		.cfi_offset 14, -4
 160              	@ ../Libraries/STM32F4xx_StdPeriph_Driver/src/stm32f4xx_sdio.c:277:   assert_param(IS_SDIO_CLOCK_ED
 161              		.loc 1 277 3 view .LVU11
 162 0002 0368     		ldr	r3, [r0]	@ SDIO_InitStruct_24(D)->SDIO_ClockEdge, SDIO_InitStruct_24(D)->SDIO_ClockEdge
 163              	@ ../Libraries/STM32F4xx_StdPeriph_Driver/src/stm32f4xx_sdio.c:273: {
 273:../Libraries/STM32F4xx_StdPeriph_Driver/src/stm32f4xx_sdio.c ****   uint32_t tmpreg = 0;
 164              		.loc 1 273 1 view .LVU12
 165 0004 0446     		mov	r4, r0	@ SDIO_InitStruct, tmp182
 166              	@ ../Libraries/STM32F4xx_StdPeriph_Driver/src/stm32f4xx_sdio.c:277:   assert_param(IS_SDIO_CLOCK_ED
 167              		.loc 1 277 3 view .LVU13
 168 0006 33F40053 		bics	r3, r3, #8192	@ tmp184, SDIO_InitStruct_24(D)->SDIO_ClockEdge,
 169 000a 0CBF     		ite	eq
 170 000c 0120     		moveq	r0, #1	@,
 171              	.LVL3:
 172              		.loc 1 277 3 view .LVU14
 173 000e 0020     		movne	r0, #0	@,
 174 0010 FFF7FEFF 		bl	assert_param		@
 175              	.LVL4:
ARM GAS  C:\Users\admin\AppData\Local\Temp\ccIRU4x5.s 			page 9


 278:../Libraries/STM32F4xx_StdPeriph_Driver/src/stm32f4xx_sdio.c ****   assert_param(IS_SDIO_CLOCK_BYPASS(SDIO_InitStruct->SDIO_ClockBypass));
 176              		.loc 1 278 3 is_stmt 1 view .LVU15
 177 0014 6368     		ldr	r3, [r4, #4]	@ SDIO_InitStruct_24(D)->SDIO_ClockBypass, SDIO_InitStruct_24(D)->SDIO_ClockBypas
 178 0016 33F48063 		bics	r3, r3, #1024	@ tmp185, SDIO_InitStruct_24(D)->SDIO_ClockBypass,
 179 001a 0CBF     		ite	eq
 180 001c 0120     		moveq	r0, #1	@,
 181 001e 0020     		movne	r0, #0	@,
 182 0020 FFF7FEFF 		bl	assert_param		@
 183              	.LVL5:
 279:../Libraries/STM32F4xx_StdPeriph_Driver/src/stm32f4xx_sdio.c ****   assert_param(IS_SDIO_CLOCK_POWER_SAVE(SDIO_InitStruct->SDIO_ClockPowerSave));
 184              		.loc 1 279 3 view .LVU16
 185 0024 A368     		ldr	r3, [r4, #8]	@ SDIO_InitStruct_24(D)->SDIO_ClockPowerSave, SDIO_InitStruct_24(D)->SDIO_ClockPo
 186 0026 33F40073 		bics	r3, r3, #512	@ tmp186, SDIO_InitStruct_24(D)->SDIO_ClockPowerSave,
 187 002a 0CBF     		ite	eq
 188 002c 0120     		moveq	r0, #1	@,
 189 002e 0020     		movne	r0, #0	@,
 190 0030 FFF7FEFF 		bl	assert_param		@
 191              	.LVL6:
 280:../Libraries/STM32F4xx_StdPeriph_Driver/src/stm32f4xx_sdio.c ****   assert_param(IS_SDIO_BUS_WIDE(SDIO_InitStruct->SDIO_BusWide));
 192              		.loc 1 280 3 view .LVU17
 193              	@ ../Libraries/STM32F4xx_StdPeriph_Driver/src/stm32f4xx_sdio.c:280:   assert_param(IS_SDIO_BUS_WIDE
 194              		.loc 1 280 16 is_stmt 0 view .LVU18
 195 0034 E068     		ldr	r0, [r4, #12]	@ _4, SDIO_InitStruct_24(D)->SDIO_BusWide
 196              	@ ../Libraries/STM32F4xx_StdPeriph_Driver/src/stm32f4xx_sdio.c:280:   assert_param(IS_SDIO_BUS_WIDE
 197              		.loc 1 280 3 view .LVU19
 198 0036 30F40063 		bics	r3, r0, #2048	@ tmp187, _4,
 199 003a 1DBF     		ittte	ne
 200 003c A0F58050 		subne	r0, r0, #4096	@ iftmp.3_21, _4,
 201 0040 B0FA80F0 		clzne	r0, r0	@ iftmp.3_21, iftmp.3_21
 202 0044 4009     		lsrne	r0, r0, #5	@ iftmp.3_21, iftmp.3_21,
 203 0046 0120     		moveq	r0, #1	@ iftmp.3_21,
 204 0048 FFF7FEFF 		bl	assert_param		@
 205              	.LVL7:
 281:../Libraries/STM32F4xx_StdPeriph_Driver/src/stm32f4xx_sdio.c ****   assert_param(IS_SDIO_HARDWARE_FLOW_CONTROL(SDIO_InitStruct->SDIO_HardwareFlowControl)); 
 206              		.loc 1 281 3 is_stmt 1 view .LVU20
 207 004c 2369     		ldr	r3, [r4, #16]	@ SDIO_InitStruct_24(D)->SDIO_HardwareFlowControl, SDIO_InitStruct_24(D)->SDIO_H
 208 004e 33F48043 		bics	r3, r3, #16384	@ tmp188, SDIO_InitStruct_24(D)->SDIO_HardwareFlowControl,
 209 0052 0CBF     		ite	eq
 210 0054 0120     		moveq	r0, #1	@,
 211 0056 0020     		movne	r0, #0	@,
 212 0058 FFF7FEFF 		bl	assert_param		@
 213              	.LVL8:
 282:../Libraries/STM32F4xx_StdPeriph_Driver/src/stm32f4xx_sdio.c ****    
 283:../Libraries/STM32F4xx_StdPeriph_Driver/src/stm32f4xx_sdio.c **** /*---------------------------- SDIO CLKCR Configuration ------------------------*/  
 284:../Libraries/STM32F4xx_StdPeriph_Driver/src/stm32f4xx_sdio.c ****   /* Get the SDIO CLKCR value */
 285:../Libraries/STM32F4xx_StdPeriph_Driver/src/stm32f4xx_sdio.c ****   tmpreg = SDIO->CLKCR;
 214              		.loc 1 285 3 view .LVU21
 215              	@ ../Libraries/STM32F4xx_StdPeriph_Driver/src/stm32f4xx_sdio.c:285:   tmpreg = SDIO->CLKCR;
 216              		.loc 1 285 10 is_stmt 0 view .LVU22
 217 005c 0949     		ldr	r1, .L8	@ tmp168,
 218 005e 6068     		ldr	r0, [r4, #4]	@ SDIO_InitStruct_24(D)->SDIO_ClockBypass, SDIO_InitStruct_24(D)->SDIO_ClockBypas
 219 0060 4A68     		ldr	r2, [r1, #4]	@ tmpreg, MEM[(struct SDIO_TypeDef *)1073818624B].CLKCR
 220              	.LVL9:
 286:../Libraries/STM32F4xx_StdPeriph_Driver/src/stm32f4xx_sdio.c ****   
 287:../Libraries/STM32F4xx_StdPeriph_Driver/src/stm32f4xx_sdio.c ****   /* Clear CLKDIV, PWRSAV, BYPASS, WIDBUS, NEGEDGE, HWFC_EN bits */
 288:../Libraries/STM32F4xx_StdPeriph_Driver/src/stm32f4xx_sdio.c ****   tmpreg &= CLKCR_CLEAR_MASK;
 221              		.loc 1 288 3 is_stmt 1 view .LVU23
ARM GAS  C:\Users\admin\AppData\Local\Temp\ccIRU4x5.s 			page 10


 289:../Libraries/STM32F4xx_StdPeriph_Driver/src/stm32f4xx_sdio.c ****   
 290:../Libraries/STM32F4xx_StdPeriph_Driver/src/stm32f4xx_sdio.c ****   /* Set CLKDIV bits according to SDIO_ClockDiv value */
 291:../Libraries/STM32F4xx_StdPeriph_Driver/src/stm32f4xx_sdio.c ****   /* Set PWRSAV bit according to SDIO_ClockPowerSave value */
 292:../Libraries/STM32F4xx_StdPeriph_Driver/src/stm32f4xx_sdio.c ****   /* Set BYPASS bit according to SDIO_ClockBypass value */
 293:../Libraries/STM32F4xx_StdPeriph_Driver/src/stm32f4xx_sdio.c ****   /* Set WIDBUS bits according to SDIO_BusWide value */
 294:../Libraries/STM32F4xx_StdPeriph_Driver/src/stm32f4xx_sdio.c ****   /* Set NEGEDGE bits according to SDIO_ClockEdge value */
 295:../Libraries/STM32F4xx_StdPeriph_Driver/src/stm32f4xx_sdio.c ****   /* Set HWFC_EN bits according to SDIO_HardwareFlowControl value */
 296:../Libraries/STM32F4xx_StdPeriph_Driver/src/stm32f4xx_sdio.c ****   tmpreg |= (SDIO_InitStruct->SDIO_ClockDiv  | SDIO_InitStruct->SDIO_ClockPowerSave |
 222              		.loc 1 296 3 view .LVU24
 223 0062 A368     		ldr	r3, [r4, #8]	@ SDIO_InitStruct_24(D)->SDIO_ClockPowerSave, SDIO_InitStruct_24(D)->SDIO_ClockPo
 224 0064 2568     		ldr	r5, [r4]	@ SDIO_InitStruct_24(D)->SDIO_ClockEdge, SDIO_InitStruct_24(D)->SDIO_ClockEdge
 225              	@ ../Libraries/STM32F4xx_StdPeriph_Driver/src/stm32f4xx_sdio.c:288:   tmpreg &= CLKCR_CLEAR_MASK;
 288:../Libraries/STM32F4xx_StdPeriph_Driver/src/stm32f4xx_sdio.c ****   
 226              		.loc 1 288 10 is_stmt 0 view .LVU25
 227 0066 22F4FD42 		bic	r2, r2, #32384	@ tmpreg, tmpreg,
 228              	.LVL10:
 288:../Libraries/STM32F4xx_StdPeriph_Driver/src/stm32f4xx_sdio.c ****   
 229              		.loc 1 288 10 view .LVU26
 230 006a 0343     		orrs	r3, r3, r0	@, tmp169, SDIO_InitStruct_24(D)->SDIO_ClockPowerSave, SDIO_InitStruct_24(D)->SDIO
 231 006c 22F07F02 		bic	r2, r2, #127	@ tmpreg, tmpreg,
 232 0070 E068     		ldr	r0, [r4, #12]	@ SDIO_InitStruct_24(D)->SDIO_BusWide, SDIO_InitStruct_24(D)->SDIO_BusWide
 233 0072 1343     		orrs	r3, r3, r2	@, tmp174, tmp169, tmpreg
 234 0074 0343     		orrs	r3, r3, r0	@, tmp175, tmp174, SDIO_InitStruct_24(D)->SDIO_BusWide
 235 0076 2069     		ldr	r0, [r4, #16]	@ SDIO_InitStruct_24(D)->SDIO_HardwareFlowControl, SDIO_InitStruct_24(D)->SDIO_H
 236              	@ ../Libraries/STM32F4xx_StdPeriph_Driver/src/stm32f4xx_sdio.c:296:   tmpreg |= (SDIO_InitStruct->S
 237              		.loc 1 296 29 view .LVU27
 238 0078 227D     		ldrb	r2, [r4, #20]	@ zero_extendqisi2	@ SDIO_InitStruct_24(D)->SDIO_ClockDiv, SDIO_InitStruct_24(D
 239 007a 2B43     		orrs	r3, r3, r5	@, tmp177, tmp175, SDIO_InitStruct_24(D)->SDIO_ClockEdge
 240 007c 0343     		orrs	r3, r3, r0	@, _48, tmp177, SDIO_InitStruct_24(D)->SDIO_HardwareFlowControl
 241              	@ ../Libraries/STM32F4xx_StdPeriph_Driver/src/stm32f4xx_sdio.c:296:   tmpreg |= (SDIO_InitStruct->S
 242              		.loc 1 296 10 view .LVU28
 243 007e 1343     		orrs	r3, r3, r2	@, tmpreg, _48, SDIO_InitStruct_24(D)->SDIO_ClockDiv
 244              	.LVL11:
 297:../Libraries/STM32F4xx_StdPeriph_Driver/src/stm32f4xx_sdio.c ****              SDIO_InitStruct->SDIO_ClockBypass | SDIO_InitStruct->SDIO_BusWide |
 298:../Libraries/STM32F4xx_StdPeriph_Driver/src/stm32f4xx_sdio.c ****              SDIO_InitStruct->SDIO_ClockEdge | SDIO_InitStruct->SDIO_HardwareFlowControl); 
 299:../Libraries/STM32F4xx_StdPeriph_Driver/src/stm32f4xx_sdio.c ****   
 300:../Libraries/STM32F4xx_StdPeriph_Driver/src/stm32f4xx_sdio.c ****   /* Write to SDIO CLKCR */
 301:../Libraries/STM32F4xx_StdPeriph_Driver/src/stm32f4xx_sdio.c ****   SDIO->CLKCR = tmpreg;
 245              		.loc 1 301 3 is_stmt 1 view .LVU29
 246              	@ ../Libraries/STM32F4xx_StdPeriph_Driver/src/stm32f4xx_sdio.c:301:   SDIO->CLKCR = tmpreg;
 247              		.loc 1 301 15 is_stmt 0 view .LVU30
 248 0080 4B60     		str	r3, [r1, #4]	@ tmpreg, MEM[(struct SDIO_TypeDef *)1073818624B].CLKCR
 249              	@ ../Libraries/STM32F4xx_StdPeriph_Driver/src/stm32f4xx_sdio.c:302: }
 302:../Libraries/STM32F4xx_StdPeriph_Driver/src/stm32f4xx_sdio.c **** }
 250              		.loc 1 302 1 view .LVU31
 251 0082 38BD     		pop	{r3, r4, r5, pc}	@
 252              	.LVL12:
 253              	.L9:
 254              		.loc 1 302 1 view .LVU32
 255              		.align	2
 256              	.L8:
 257 0084 002C0140 		.word	1073818624
 258              		.cfi_endproc
 259              	.LFE111:
 260              		.size	SDIO_Init, .-SDIO_Init
 261              		.section	.text.SDIO_StructInit,"ax",%progbits
 262              		.align	1
ARM GAS  C:\Users\admin\AppData\Local\Temp\ccIRU4x5.s 			page 11


 263              		.p2align 2,,3
 264              		.global	SDIO_StructInit
 265              		.syntax unified
 266              		.thumb
 267              		.thumb_func
 268              		.type	SDIO_StructInit, %function
 269              	SDIO_StructInit:
 270              	.LVL13:
 271              	.LFB112:
 303:../Libraries/STM32F4xx_StdPeriph_Driver/src/stm32f4xx_sdio.c **** 
 304:../Libraries/STM32F4xx_StdPeriph_Driver/src/stm32f4xx_sdio.c **** /**
 305:../Libraries/STM32F4xx_StdPeriph_Driver/src/stm32f4xx_sdio.c ****   * @brief  Fills each SDIO_InitStruct member with its default value.
 306:../Libraries/STM32F4xx_StdPeriph_Driver/src/stm32f4xx_sdio.c ****   * @param  SDIO_InitStruct: pointer to an SDIO_InitTypeDef structure which 
 307:../Libraries/STM32F4xx_StdPeriph_Driver/src/stm32f4xx_sdio.c ****   *         will be initialized.
 308:../Libraries/STM32F4xx_StdPeriph_Driver/src/stm32f4xx_sdio.c ****   * @retval None
 309:../Libraries/STM32F4xx_StdPeriph_Driver/src/stm32f4xx_sdio.c ****   */
 310:../Libraries/STM32F4xx_StdPeriph_Driver/src/stm32f4xx_sdio.c **** void SDIO_StructInit(SDIO_InitTypeDef* SDIO_InitStruct)
 311:../Libraries/STM32F4xx_StdPeriph_Driver/src/stm32f4xx_sdio.c **** {
 272              		.loc 1 311 1 is_stmt 1 view -0
 273              		.cfi_startproc
 274              		@ args = 0, pretend = 0, frame = 0
 275              		@ frame_needed = 0, uses_anonymous_args = 0
 276              		@ link register save eliminated.
 312:../Libraries/STM32F4xx_StdPeriph_Driver/src/stm32f4xx_sdio.c ****   /* SDIO_InitStruct members default value */
 313:../Libraries/STM32F4xx_StdPeriph_Driver/src/stm32f4xx_sdio.c ****   SDIO_InitStruct->SDIO_ClockDiv = 0x00;
 277              		.loc 1 313 3 view .LVU34
 278              	@ ../Libraries/STM32F4xx_StdPeriph_Driver/src/stm32f4xx_sdio.c:313:   SDIO_InitStruct->SDIO_ClockDi
 279              		.loc 1 313 34 is_stmt 0 view .LVU35
 280 0000 0023     		movs	r3, #0	@ tmp114,
 281              	@ ../Libraries/STM32F4xx_StdPeriph_Driver/src/stm32f4xx_sdio.c:315:   SDIO_InitStruct->SDIO_ClockBy
 314:../Libraries/STM32F4xx_StdPeriph_Driver/src/stm32f4xx_sdio.c ****   SDIO_InitStruct->SDIO_ClockEdge = SDIO_ClockEdge_Rising;
 315:../Libraries/STM32F4xx_StdPeriph_Driver/src/stm32f4xx_sdio.c ****   SDIO_InitStruct->SDIO_ClockBypass = SDIO_ClockBypass_Disable;
 282              		.loc 1 315 37 view .LVU36
 283 0002 C0E90033 		strd	r3, r3, [r0]	@ tmp114, tmp114, SDIO_InitStruct
 284              	@ ../Libraries/STM32F4xx_StdPeriph_Driver/src/stm32f4xx_sdio.c:317:   SDIO_InitStruct->SDIO_BusWide
 316:../Libraries/STM32F4xx_StdPeriph_Driver/src/stm32f4xx_sdio.c ****   SDIO_InitStruct->SDIO_ClockPowerSave = SDIO_ClockPowerSave_Disable;
 317:../Libraries/STM32F4xx_StdPeriph_Driver/src/stm32f4xx_sdio.c ****   SDIO_InitStruct->SDIO_BusWide = SDIO_BusWide_1b;
 285              		.loc 1 317 33 view .LVU37
 286 0006 C0E90233 		strd	r3, r3, [r0, #8]	@ tmp114, tmp114, SDIO_InitStruct,
 287              	@ ../Libraries/STM32F4xx_StdPeriph_Driver/src/stm32f4xx_sdio.c:313:   SDIO_InitStruct->SDIO_ClockDi
 313:../Libraries/STM32F4xx_StdPeriph_Driver/src/stm32f4xx_sdio.c ****   SDIO_InitStruct->SDIO_ClockEdge = SDIO_ClockEdge_Rising;
 288              		.loc 1 313 34 view .LVU38
 289 000a 0375     		strb	r3, [r0, #20]	@ tmp114, SDIO_InitStruct_2(D)->SDIO_ClockDiv
 314:../Libraries/STM32F4xx_StdPeriph_Driver/src/stm32f4xx_sdio.c ****   SDIO_InitStruct->SDIO_ClockEdge = SDIO_ClockEdge_Rising;
 290              		.loc 1 314 3 is_stmt 1 view .LVU39
 316:../Libraries/STM32F4xx_StdPeriph_Driver/src/stm32f4xx_sdio.c ****   SDIO_InitStruct->SDIO_ClockPowerSave = SDIO_ClockPowerSave_Disable;
 291              		.loc 1 316 3 view .LVU40
 318:../Libraries/STM32F4xx_StdPeriph_Driver/src/stm32f4xx_sdio.c ****   SDIO_InitStruct->SDIO_HardwareFlowControl = SDIO_HardwareFlowControl_Disable;
 292              		.loc 1 318 3 view .LVU41
 293              	@ ../Libraries/STM32F4xx_StdPeriph_Driver/src/stm32f4xx_sdio.c:318:   SDIO_InitStruct->SDIO_Hardwar
 294              		.loc 1 318 45 is_stmt 0 view .LVU42
 295 000c 0361     		str	r3, [r0, #16]	@ tmp114, SDIO_InitStruct_2(D)->SDIO_HardwareFlowControl
 296              	@ ../Libraries/STM32F4xx_StdPeriph_Driver/src/stm32f4xx_sdio.c:319: }
 319:../Libraries/STM32F4xx_StdPeriph_Driver/src/stm32f4xx_sdio.c **** }
 297              		.loc 1 319 1 view .LVU43
 298 000e 7047     		bx	lr	@
 299              		.cfi_endproc
ARM GAS  C:\Users\admin\AppData\Local\Temp\ccIRU4x5.s 			page 12


 300              	.LFE112:
 301              		.size	SDIO_StructInit, .-SDIO_StructInit
 302              		.section	.text.SDIO_ClockCmd,"ax",%progbits
 303              		.align	1
 304              		.p2align 2,,3
 305              		.global	SDIO_ClockCmd
 306              		.syntax unified
 307              		.thumb
 308              		.thumb_func
 309              		.type	SDIO_ClockCmd, %function
 310              	SDIO_ClockCmd:
 311              	.LVL14:
 312              	.LFB113:
 320:../Libraries/STM32F4xx_StdPeriph_Driver/src/stm32f4xx_sdio.c **** 
 321:../Libraries/STM32F4xx_StdPeriph_Driver/src/stm32f4xx_sdio.c **** /**
 322:../Libraries/STM32F4xx_StdPeriph_Driver/src/stm32f4xx_sdio.c ****   * @brief  Enables or disables the SDIO Clock.
 323:../Libraries/STM32F4xx_StdPeriph_Driver/src/stm32f4xx_sdio.c ****   * @param  NewState: new state of the SDIO Clock. 
 324:../Libraries/STM32F4xx_StdPeriph_Driver/src/stm32f4xx_sdio.c ****   *         This parameter can be: ENABLE or DISABLE.
 325:../Libraries/STM32F4xx_StdPeriph_Driver/src/stm32f4xx_sdio.c ****   * @retval None
 326:../Libraries/STM32F4xx_StdPeriph_Driver/src/stm32f4xx_sdio.c ****   */
 327:../Libraries/STM32F4xx_StdPeriph_Driver/src/stm32f4xx_sdio.c **** void SDIO_ClockCmd(FunctionalState NewState)
 328:../Libraries/STM32F4xx_StdPeriph_Driver/src/stm32f4xx_sdio.c **** {
 313              		.loc 1 328 1 is_stmt 1 view -0
 314              		.cfi_startproc
 315              		@ args = 0, pretend = 0, frame = 0
 316              		@ frame_needed = 0, uses_anonymous_args = 0
 329:../Libraries/STM32F4xx_StdPeriph_Driver/src/stm32f4xx_sdio.c ****   /* Check the parameters */
 330:../Libraries/STM32F4xx_StdPeriph_Driver/src/stm32f4xx_sdio.c ****   assert_param(IS_FUNCTIONAL_STATE(NewState));
 317              		.loc 1 330 3 view .LVU45
 318              	@ ../Libraries/STM32F4xx_StdPeriph_Driver/src/stm32f4xx_sdio.c:328: {
 328:../Libraries/STM32F4xx_StdPeriph_Driver/src/stm32f4xx_sdio.c ****   /* Check the parameters */
 319              		.loc 1 328 1 is_stmt 0 view .LVU46
 320 0000 10B5     		push	{r4, lr}	@
 321              		.cfi_def_cfa_offset 8
 322              		.cfi_offset 4, -8
 323              		.cfi_offset 14, -4
 324              	@ ../Libraries/STM32F4xx_StdPeriph_Driver/src/stm32f4xx_sdio.c:330:   assert_param(IS_FUNCTIONAL_ST
 325              		.loc 1 330 3 view .LVU47
 326 0002 0128     		cmp	r0, #1	@ NewState,
 327              	@ ../Libraries/STM32F4xx_StdPeriph_Driver/src/stm32f4xx_sdio.c:328: {
 328:../Libraries/STM32F4xx_StdPeriph_Driver/src/stm32f4xx_sdio.c ****   /* Check the parameters */
 328              		.loc 1 328 1 view .LVU48
 329 0004 0446     		mov	r4, r0	@ NewState, tmp122
 330              	@ ../Libraries/STM32F4xx_StdPeriph_Driver/src/stm32f4xx_sdio.c:330:   assert_param(IS_FUNCTIONAL_ST
 331              		.loc 1 330 3 view .LVU49
 332 0006 8CBF     		ite	hi
 333 0008 0020     		movhi	r0, #0	@,
 334              	.LVL15:
 335              		.loc 1 330 3 view .LVU50
 336 000a 0120     		movls	r0, #1	@,
 337 000c FFF7FEFF 		bl	assert_param		@
 338              	.LVL16:
 331:../Libraries/STM32F4xx_StdPeriph_Driver/src/stm32f4xx_sdio.c ****   
 332:../Libraries/STM32F4xx_StdPeriph_Driver/src/stm32f4xx_sdio.c ****   *(__IO uint32_t *) CLKCR_CLKEN_BB = (uint32_t)NewState;
 339              		.loc 1 332 3 is_stmt 1 view .LVU51
 340              	@ ../Libraries/STM32F4xx_StdPeriph_Driver/src/stm32f4xx_sdio.c:332:   *(__IO uint32_t *) CLKCR_CLKE
 341              		.loc 1 332 37 is_stmt 0 view .LVU52
ARM GAS  C:\Users\admin\AppData\Local\Temp\ccIRU4x5.s 			page 13


 342 0010 014B     		ldr	r3, .L13	@ tmp121,
 343 0012 C3F8A040 		str	r4, [r3, #160]	@ NewState, MEM[(volatile uint32_t *)1109754016B]
 344              	@ ../Libraries/STM32F4xx_StdPeriph_Driver/src/stm32f4xx_sdio.c:333: }
 333:../Libraries/STM32F4xx_StdPeriph_Driver/src/stm32f4xx_sdio.c **** }
 345              		.loc 1 333 1 view .LVU53
 346 0016 10BD     		pop	{r4, pc}	@
 347              	.L14:
 348              		.align	2
 349              	.L13:
 350 0018 00802542 		.word	1109753856
 351              		.cfi_endproc
 352              	.LFE113:
 353              		.size	SDIO_ClockCmd, .-SDIO_ClockCmd
 354              		.section	.text.SDIO_SetPowerState,"ax",%progbits
 355              		.align	1
 356              		.p2align 2,,3
 357              		.global	SDIO_SetPowerState
 358              		.syntax unified
 359              		.thumb
 360              		.thumb_func
 361              		.type	SDIO_SetPowerState, %function
 362              	SDIO_SetPowerState:
 363              	.LVL17:
 364              	.LFB114:
 334:../Libraries/STM32F4xx_StdPeriph_Driver/src/stm32f4xx_sdio.c **** 
 335:../Libraries/STM32F4xx_StdPeriph_Driver/src/stm32f4xx_sdio.c **** /**
 336:../Libraries/STM32F4xx_StdPeriph_Driver/src/stm32f4xx_sdio.c ****   * @brief  Sets the power status of the controller.
 337:../Libraries/STM32F4xx_StdPeriph_Driver/src/stm32f4xx_sdio.c ****   * @param  SDIO_PowerState: new state of the Power state. 
 338:../Libraries/STM32F4xx_StdPeriph_Driver/src/stm32f4xx_sdio.c ****   *          This parameter can be one of the following values:
 339:../Libraries/STM32F4xx_StdPeriph_Driver/src/stm32f4xx_sdio.c ****   *            @arg SDIO_PowerState_OFF: SDIO Power OFF
 340:../Libraries/STM32F4xx_StdPeriph_Driver/src/stm32f4xx_sdio.c ****   *            @arg SDIO_PowerState_ON: SDIO Power ON
 341:../Libraries/STM32F4xx_StdPeriph_Driver/src/stm32f4xx_sdio.c ****   * @retval None
 342:../Libraries/STM32F4xx_StdPeriph_Driver/src/stm32f4xx_sdio.c ****   */
 343:../Libraries/STM32F4xx_StdPeriph_Driver/src/stm32f4xx_sdio.c **** void SDIO_SetPowerState(uint32_t SDIO_PowerState)
 344:../Libraries/STM32F4xx_StdPeriph_Driver/src/stm32f4xx_sdio.c **** {
 365              		.loc 1 344 1 is_stmt 1 view -0
 366              		.cfi_startproc
 367              		@ args = 0, pretend = 0, frame = 0
 368              		@ frame_needed = 0, uses_anonymous_args = 0
 345:../Libraries/STM32F4xx_StdPeriph_Driver/src/stm32f4xx_sdio.c ****   /* Check the parameters */
 346:../Libraries/STM32F4xx_StdPeriph_Driver/src/stm32f4xx_sdio.c ****   assert_param(IS_SDIO_POWER_STATE(SDIO_PowerState));
 369              		.loc 1 346 3 view .LVU55
 370              	@ ../Libraries/STM32F4xx_StdPeriph_Driver/src/stm32f4xx_sdio.c:344: {
 344:../Libraries/STM32F4xx_StdPeriph_Driver/src/stm32f4xx_sdio.c ****   /* Check the parameters */
 371              		.loc 1 344 1 is_stmt 0 view .LVU56
 372 0000 10B5     		push	{r4, lr}	@
 373              		.cfi_def_cfa_offset 8
 374              		.cfi_offset 4, -8
 375              		.cfi_offset 14, -4
 376              	@ ../Libraries/STM32F4xx_StdPeriph_Driver/src/stm32f4xx_sdio.c:346:   assert_param(IS_SDIO_POWER_ST
 377              		.loc 1 346 3 view .LVU57
 378 0002 0446     		mov	r4, r0	@ SDIO_PowerState, tmp119
 379 0004 48B1     		cbz	r0, .L17	@ SDIO_PowerState,
 380              	@ ../Libraries/STM32F4xx_StdPeriph_Driver/src/stm32f4xx_sdio.c:346:   assert_param(IS_SDIO_POWER_ST
 381              		.loc 1 346 3 discriminator 2 view .LVU58
 382 0006 A0F10300 		sub	r0, #3	@ iftmp.5_1,
 383              	.LVL18:
ARM GAS  C:\Users\admin\AppData\Local\Temp\ccIRU4x5.s 			page 14


 384              		.loc 1 346 3 discriminator 2 view .LVU59
 385 000a B0FA80F0 		clz	r0, r0	@ iftmp.5_1, iftmp.5_1
 386 000e 4009     		lsrs	r0, r0, #5	@ iftmp.5_1, iftmp.5_1,
 387 0010 FFF7FEFF 		bl	assert_param		@
 388              	.LVL19:
 347:../Libraries/STM32F4xx_StdPeriph_Driver/src/stm32f4xx_sdio.c ****   
 348:../Libraries/STM32F4xx_StdPeriph_Driver/src/stm32f4xx_sdio.c ****   SDIO->POWER = SDIO_PowerState;
 389              		.loc 1 348 3 is_stmt 1 discriminator 2 view .LVU60
 390              	@ ../Libraries/STM32F4xx_StdPeriph_Driver/src/stm32f4xx_sdio.c:348:   SDIO->POWER = SDIO_PowerState
 391              		.loc 1 348 15 is_stmt 0 discriminator 2 view .LVU61
 392 0014 044B     		ldr	r3, .L19	@ tmp118,
 393 0016 1C60     		str	r4, [r3]	@ SDIO_PowerState, MEM[(struct SDIO_TypeDef *)1073818624B].POWER
 394              	@ ../Libraries/STM32F4xx_StdPeriph_Driver/src/stm32f4xx_sdio.c:349: }
 349:../Libraries/STM32F4xx_StdPeriph_Driver/src/stm32f4xx_sdio.c **** }
 395              		.loc 1 349 1 discriminator 2 view .LVU62
 396 0018 10BD     		pop	{r4, pc}	@
 397              	.LVL20:
 398              	.L17:
 399              	@ ../Libraries/STM32F4xx_StdPeriph_Driver/src/stm32f4xx_sdio.c:346:   assert_param(IS_SDIO_POWER_ST
 346:../Libraries/STM32F4xx_StdPeriph_Driver/src/stm32f4xx_sdio.c ****   
 400              		.loc 1 346 3 view .LVU63
 401 001a 0120     		movs	r0, #1	@ iftmp.5_1,
 402              	.LVL21:
 346:../Libraries/STM32F4xx_StdPeriph_Driver/src/stm32f4xx_sdio.c ****   
 403              		.loc 1 346 3 view .LVU64
 404 001c FFF7FEFF 		bl	assert_param		@
 405              	.LVL22:
 348:../Libraries/STM32F4xx_StdPeriph_Driver/src/stm32f4xx_sdio.c **** }
 406              		.loc 1 348 3 is_stmt 1 view .LVU65
 407              	@ ../Libraries/STM32F4xx_StdPeriph_Driver/src/stm32f4xx_sdio.c:348:   SDIO->POWER = SDIO_PowerState
 348:../Libraries/STM32F4xx_StdPeriph_Driver/src/stm32f4xx_sdio.c **** }
 408              		.loc 1 348 15 is_stmt 0 view .LVU66
 409 0020 014B     		ldr	r3, .L19	@ tmp118,
 410 0022 1C60     		str	r4, [r3]	@ SDIO_PowerState, MEM[(struct SDIO_TypeDef *)1073818624B].POWER
 411              	@ ../Libraries/STM32F4xx_StdPeriph_Driver/src/stm32f4xx_sdio.c:349: }
 412              		.loc 1 349 1 view .LVU67
 413 0024 10BD     		pop	{r4, pc}	@
 414              	.LVL23:
 415              	.L20:
 416              		.loc 1 349 1 view .LVU68
 417 0026 00BF     		.align	2
 418              	.L19:
 419 0028 002C0140 		.word	1073818624
 420              		.cfi_endproc
 421              	.LFE114:
 422              		.size	SDIO_SetPowerState, .-SDIO_SetPowerState
 423              		.section	.text.SDIO_GetPowerState,"ax",%progbits
 424              		.align	1
 425              		.p2align 2,,3
 426              		.global	SDIO_GetPowerState
 427              		.syntax unified
 428              		.thumb
 429              		.thumb_func
 430              		.type	SDIO_GetPowerState, %function
 431              	SDIO_GetPowerState:
 432              	.LFB115:
 350:../Libraries/STM32F4xx_StdPeriph_Driver/src/stm32f4xx_sdio.c **** 
ARM GAS  C:\Users\admin\AppData\Local\Temp\ccIRU4x5.s 			page 15


 351:../Libraries/STM32F4xx_StdPeriph_Driver/src/stm32f4xx_sdio.c **** /**
 352:../Libraries/STM32F4xx_StdPeriph_Driver/src/stm32f4xx_sdio.c ****   * @brief  Gets the power status of the controller.
 353:../Libraries/STM32F4xx_StdPeriph_Driver/src/stm32f4xx_sdio.c ****   * @param  None
 354:../Libraries/STM32F4xx_StdPeriph_Driver/src/stm32f4xx_sdio.c ****   * @retval Power status of the controller. The returned value can be one of the 
 355:../Libraries/STM32F4xx_StdPeriph_Driver/src/stm32f4xx_sdio.c ****   *         following values:
 356:../Libraries/STM32F4xx_StdPeriph_Driver/src/stm32f4xx_sdio.c ****   *            - 0x00: Power OFF
 357:../Libraries/STM32F4xx_StdPeriph_Driver/src/stm32f4xx_sdio.c ****   *            - 0x02: Power UP
 358:../Libraries/STM32F4xx_StdPeriph_Driver/src/stm32f4xx_sdio.c ****   *            - 0x03: Power ON 
 359:../Libraries/STM32F4xx_StdPeriph_Driver/src/stm32f4xx_sdio.c ****   */
 360:../Libraries/STM32F4xx_StdPeriph_Driver/src/stm32f4xx_sdio.c **** uint32_t SDIO_GetPowerState(void)
 361:../Libraries/STM32F4xx_StdPeriph_Driver/src/stm32f4xx_sdio.c **** {
 433              		.loc 1 361 1 is_stmt 1 view -0
 434              		.cfi_startproc
 435              		@ args = 0, pretend = 0, frame = 0
 436              		@ frame_needed = 0, uses_anonymous_args = 0
 437              		@ link register save eliminated.
 362:../Libraries/STM32F4xx_StdPeriph_Driver/src/stm32f4xx_sdio.c ****   return (SDIO->POWER & (~PWR_PWRCTRL_MASK));
 438              		.loc 1 362 3 view .LVU70
 439              	@ ../Libraries/STM32F4xx_StdPeriph_Driver/src/stm32f4xx_sdio.c:362:   return (SDIO->POWER & (~PWR_P
 440              		.loc 1 362 15 is_stmt 0 view .LVU71
 441 0000 024B     		ldr	r3, .L22	@ tmp115,
 442 0002 1868     		ldr	r0, [r3]	@ _1, MEM[(struct SDIO_TypeDef *)1073818624B].POWER
 443              	@ ../Libraries/STM32F4xx_StdPeriph_Driver/src/stm32f4xx_sdio.c:363: }
 363:../Libraries/STM32F4xx_StdPeriph_Driver/src/stm32f4xx_sdio.c **** }
 444              		.loc 1 363 1 view .LVU72
 445 0004 00F00300 		and	r0, r0, #3	@, _1,
 446 0008 7047     		bx	lr	@
 447              	.L23:
 448 000a 00BF     		.align	2
 449              	.L22:
 450 000c 002C0140 		.word	1073818624
 451              		.cfi_endproc
 452              	.LFE115:
 453              		.size	SDIO_GetPowerState, .-SDIO_GetPowerState
 454              		.section	.text.SDIO_SendCommand,"ax",%progbits
 455              		.align	1
 456              		.p2align 2,,3
 457              		.global	SDIO_SendCommand
 458              		.syntax unified
 459              		.thumb
 460              		.thumb_func
 461              		.type	SDIO_SendCommand, %function
 462              	SDIO_SendCommand:
 463              	.LVL24:
 464              	.LFB116:
 364:../Libraries/STM32F4xx_StdPeriph_Driver/src/stm32f4xx_sdio.c **** 
 365:../Libraries/STM32F4xx_StdPeriph_Driver/src/stm32f4xx_sdio.c **** /**
 366:../Libraries/STM32F4xx_StdPeriph_Driver/src/stm32f4xx_sdio.c ****   * @}
 367:../Libraries/STM32F4xx_StdPeriph_Driver/src/stm32f4xx_sdio.c ****   */
 368:../Libraries/STM32F4xx_StdPeriph_Driver/src/stm32f4xx_sdio.c **** 
 369:../Libraries/STM32F4xx_StdPeriph_Driver/src/stm32f4xx_sdio.c **** /** @defgroup SDIO_Group2 Command path state machine (CPSM) management functions
 370:../Libraries/STM32F4xx_StdPeriph_Driver/src/stm32f4xx_sdio.c ****  *  @brief   Command path state machine (CPSM) management functions 
 371:../Libraries/STM32F4xx_StdPeriph_Driver/src/stm32f4xx_sdio.c ****  *
 372:../Libraries/STM32F4xx_StdPeriph_Driver/src/stm32f4xx_sdio.c **** @verbatim   
 373:../Libraries/STM32F4xx_StdPeriph_Driver/src/stm32f4xx_sdio.c ****  ===============================================================================
 374:../Libraries/STM32F4xx_StdPeriph_Driver/src/stm32f4xx_sdio.c ****               Command path state machine (CPSM) management functions
 375:../Libraries/STM32F4xx_StdPeriph_Driver/src/stm32f4xx_sdio.c ****  ===============================================================================  
ARM GAS  C:\Users\admin\AppData\Local\Temp\ccIRU4x5.s 			page 16


 376:../Libraries/STM32F4xx_StdPeriph_Driver/src/stm32f4xx_sdio.c **** 
 377:../Libraries/STM32F4xx_StdPeriph_Driver/src/stm32f4xx_sdio.c ****   This section provide functions allowing to program and read the Command path 
 378:../Libraries/STM32F4xx_StdPeriph_Driver/src/stm32f4xx_sdio.c ****   state machine (CPSM).
 379:../Libraries/STM32F4xx_StdPeriph_Driver/src/stm32f4xx_sdio.c **** 
 380:../Libraries/STM32F4xx_StdPeriph_Driver/src/stm32f4xx_sdio.c **** @endverbatim
 381:../Libraries/STM32F4xx_StdPeriph_Driver/src/stm32f4xx_sdio.c ****   * @{
 382:../Libraries/STM32F4xx_StdPeriph_Driver/src/stm32f4xx_sdio.c ****   */
 383:../Libraries/STM32F4xx_StdPeriph_Driver/src/stm32f4xx_sdio.c **** 
 384:../Libraries/STM32F4xx_StdPeriph_Driver/src/stm32f4xx_sdio.c **** /**
 385:../Libraries/STM32F4xx_StdPeriph_Driver/src/stm32f4xx_sdio.c ****   * @brief  Initializes the SDIO Command according to the specified 
 386:../Libraries/STM32F4xx_StdPeriph_Driver/src/stm32f4xx_sdio.c ****   *         parameters in the SDIO_CmdInitStruct and send the command.
 387:../Libraries/STM32F4xx_StdPeriph_Driver/src/stm32f4xx_sdio.c ****   * @param  SDIO_CmdInitStruct : pointer to a SDIO_CmdInitTypeDef 
 388:../Libraries/STM32F4xx_StdPeriph_Driver/src/stm32f4xx_sdio.c ****   *         structure that contains the configuration information for the SDIO 
 389:../Libraries/STM32F4xx_StdPeriph_Driver/src/stm32f4xx_sdio.c ****   *         command.
 390:../Libraries/STM32F4xx_StdPeriph_Driver/src/stm32f4xx_sdio.c ****   * @retval None
 391:../Libraries/STM32F4xx_StdPeriph_Driver/src/stm32f4xx_sdio.c ****   */
 392:../Libraries/STM32F4xx_StdPeriph_Driver/src/stm32f4xx_sdio.c **** void SDIO_SendCommand(SDIO_CmdInitTypeDef *SDIO_CmdInitStruct)
 393:../Libraries/STM32F4xx_StdPeriph_Driver/src/stm32f4xx_sdio.c **** {
 465              		.loc 1 393 1 is_stmt 1 view -0
 466              		.cfi_startproc
 467              		@ args = 0, pretend = 0, frame = 0
 468              		@ frame_needed = 0, uses_anonymous_args = 0
 394:../Libraries/STM32F4xx_StdPeriph_Driver/src/stm32f4xx_sdio.c ****   uint32_t tmpreg = 0;
 469              		.loc 1 394 3 view .LVU74
 395:../Libraries/STM32F4xx_StdPeriph_Driver/src/stm32f4xx_sdio.c ****   
 396:../Libraries/STM32F4xx_StdPeriph_Driver/src/stm32f4xx_sdio.c ****   /* Check the parameters */
 397:../Libraries/STM32F4xx_StdPeriph_Driver/src/stm32f4xx_sdio.c ****   assert_param(IS_SDIO_CMD_INDEX(SDIO_CmdInitStruct->SDIO_CmdIndex));
 470              		.loc 1 397 3 view .LVU75
 471              	@ ../Libraries/STM32F4xx_StdPeriph_Driver/src/stm32f4xx_sdio.c:393: {
 393:../Libraries/STM32F4xx_StdPeriph_Driver/src/stm32f4xx_sdio.c ****   uint32_t tmpreg = 0;
 472              		.loc 1 393 1 is_stmt 0 view .LVU76
 473 0000 38B5     		push	{r3, r4, r5, lr}	@
 474              		.cfi_def_cfa_offset 16
 475              		.cfi_offset 3, -16
 476              		.cfi_offset 4, -12
 477              		.cfi_offset 5, -8
 478              		.cfi_offset 14, -4
 479              	@ ../Libraries/STM32F4xx_StdPeriph_Driver/src/stm32f4xx_sdio.c:393: {
 393:../Libraries/STM32F4xx_StdPeriph_Driver/src/stm32f4xx_sdio.c ****   uint32_t tmpreg = 0;
 480              		.loc 1 393 1 view .LVU77
 481 0002 0446     		mov	r4, r0	@ SDIO_CmdInitStruct, tmp164
 482              	@ ../Libraries/STM32F4xx_StdPeriph_Driver/src/stm32f4xx_sdio.c:397:   assert_param(IS_SDIO_CMD_INDE
 483              		.loc 1 397 3 view .LVU78
 484 0004 4068     		ldr	r0, [r0, #4]	@ SDIO_CmdInitStruct_19(D)->SDIO_CmdIndex, SDIO_CmdInitStruct_19(D)->SDIO_CmdInde
 485              	.LVL25:
 486              		.loc 1 397 3 view .LVU79
 487 0006 3F28     		cmp	r0, #63	@ SDIO_CmdInitStruct_19(D)->SDIO_CmdIndex,
 488 0008 8CBF     		ite	hi
 489 000a 0020     		movhi	r0, #0	@,
 490 000c 0120     		movls	r0, #1	@,
 491 000e FFF7FEFF 		bl	assert_param		@
 492              	.LVL26:
 398:../Libraries/STM32F4xx_StdPeriph_Driver/src/stm32f4xx_sdio.c ****   assert_param(IS_SDIO_RESPONSE(SDIO_CmdInitStruct->SDIO_Response));
 493              		.loc 1 398 3 is_stmt 1 view .LVU80
 494              	@ ../Libraries/STM32F4xx_StdPeriph_Driver/src/stm32f4xx_sdio.c:398:   assert_param(IS_SDIO_RESPONSE
 495              		.loc 1 398 16 is_stmt 0 view .LVU81
 496 0012 A068     		ldr	r0, [r4, #8]	@ _4, SDIO_CmdInitStruct_19(D)->SDIO_Response
ARM GAS  C:\Users\admin\AppData\Local\Temp\ccIRU4x5.s 			page 17


 497              	@ ../Libraries/STM32F4xx_StdPeriph_Driver/src/stm32f4xx_sdio.c:398:   assert_param(IS_SDIO_RESPONSE
 498              		.loc 1 398 3 view .LVU82
 499 0014 30F04003 		bics	r3, r0, #64	@ tmp166, _4,
 500 0018 1DBF     		ittte	ne
 501 001a C038     		subne	r0, #192	@ iftmp.6_15,
 502 001c B0FA80F0 		clzne	r0, r0	@ iftmp.6_15, iftmp.6_15
 503 0020 4009     		lsrne	r0, r0, #5	@ iftmp.6_15, iftmp.6_15,
 504 0022 0120     		moveq	r0, #1	@ iftmp.6_15,
 505 0024 FFF7FEFF 		bl	assert_param		@
 506              	.LVL27:
 399:../Libraries/STM32F4xx_StdPeriph_Driver/src/stm32f4xx_sdio.c ****   assert_param(IS_SDIO_WAIT(SDIO_CmdInitStruct->SDIO_Wait));
 507              		.loc 1 399 3 is_stmt 1 view .LVU83
 508              	@ ../Libraries/STM32F4xx_StdPeriph_Driver/src/stm32f4xx_sdio.c:399:   assert_param(IS_SDIO_WAIT(SDI
 509              		.loc 1 399 16 is_stmt 0 view .LVU84
 510 0028 E068     		ldr	r0, [r4, #12]	@ _5, SDIO_CmdInitStruct_19(D)->SDIO_Wait
 511              	@ ../Libraries/STM32F4xx_StdPeriph_Driver/src/stm32f4xx_sdio.c:399:   assert_param(IS_SDIO_WAIT(SDI
 512              		.loc 1 399 3 view .LVU85
 513 002a 30F48073 		bics	r3, r0, #256	@ tmp167, _5,
 514 002e 1DBF     		ittte	ne
 515 0030 A0F50070 		subne	r0, r0, #512	@ iftmp.7_16, _5,
 516 0034 B0FA80F0 		clzne	r0, r0	@ iftmp.7_16, iftmp.7_16
 517 0038 4009     		lsrne	r0, r0, #5	@ iftmp.7_16, iftmp.7_16,
 518 003a 0120     		moveq	r0, #1	@ iftmp.7_16,
 519 003c FFF7FEFF 		bl	assert_param		@
 520              	.LVL28:
 400:../Libraries/STM32F4xx_StdPeriph_Driver/src/stm32f4xx_sdio.c ****   assert_param(IS_SDIO_CPSM(SDIO_CmdInitStruct->SDIO_CPSM));
 521              		.loc 1 400 3 is_stmt 1 view .LVU86
 522 0040 2369     		ldr	r3, [r4, #16]	@ SDIO_CmdInitStruct_19(D)->SDIO_CPSM, SDIO_CmdInitStruct_19(D)->SDIO_CPSM
 523 0042 33F48063 		bics	r3, r3, #1024	@ tmp168, SDIO_CmdInitStruct_19(D)->SDIO_CPSM,
 524 0046 0CBF     		ite	eq
 525 0048 0120     		moveq	r0, #1	@,
 526 004a 0020     		movne	r0, #0	@,
 527 004c FFF7FEFF 		bl	assert_param		@
 528              	.LVL29:
 401:../Libraries/STM32F4xx_StdPeriph_Driver/src/stm32f4xx_sdio.c ****   
 402:../Libraries/STM32F4xx_StdPeriph_Driver/src/stm32f4xx_sdio.c **** /*---------------------------- SDIO ARG Configuration ------------------------*/
 403:../Libraries/STM32F4xx_StdPeriph_Driver/src/stm32f4xx_sdio.c ****   /* Set the SDIO Argument value */
 404:../Libraries/STM32F4xx_StdPeriph_Driver/src/stm32f4xx_sdio.c ****   SDIO->ARG = SDIO_CmdInitStruct->SDIO_Argument;
 529              		.loc 1 404 3 view .LVU87
 530              	@ ../Libraries/STM32F4xx_StdPeriph_Driver/src/stm32f4xx_sdio.c:404:   SDIO->ARG = SDIO_CmdInitStruc
 531              		.loc 1 404 13 is_stmt 0 view .LVU88
 532 0050 0849     		ldr	r1, .L30	@ tmp153,
 533              	@ ../Libraries/STM32F4xx_StdPeriph_Driver/src/stm32f4xx_sdio.c:404:   SDIO->ARG = SDIO_CmdInitStruc
 534              		.loc 1 404 33 view .LVU89
 535 0052 2368     		ldr	r3, [r4]	@ _7, SDIO_CmdInitStruct_19(D)->SDIO_Argument
 536              	@ ../Libraries/STM32F4xx_StdPeriph_Driver/src/stm32f4xx_sdio.c:404:   SDIO->ARG = SDIO_CmdInitStruc
 537              		.loc 1 404 13 view .LVU90
 538 0054 8B60     		str	r3, [r1, #8]	@ _7, MEM[(struct SDIO_TypeDef *)1073818624B].ARG
 405:../Libraries/STM32F4xx_StdPeriph_Driver/src/stm32f4xx_sdio.c ****   
 406:../Libraries/STM32F4xx_StdPeriph_Driver/src/stm32f4xx_sdio.c **** /*---------------------------- SDIO CMD Configuration ------------------------*/  
 407:../Libraries/STM32F4xx_StdPeriph_Driver/src/stm32f4xx_sdio.c ****   /* Get the SDIO CMD value */
 408:../Libraries/STM32F4xx_StdPeriph_Driver/src/stm32f4xx_sdio.c ****   tmpreg = SDIO->CMD;
 539              		.loc 1 408 3 is_stmt 1 view .LVU91
 540              	@ ../Libraries/STM32F4xx_StdPeriph_Driver/src/stm32f4xx_sdio.c:415:   tmpreg |= (uint32_t)SDIO_CmdI
 409:../Libraries/STM32F4xx_StdPeriph_Driver/src/stm32f4xx_sdio.c ****   /* Clear CMDINDEX, WAITRESP, WAITINT, WAITPEND, CPSMEN bits */
 410:../Libraries/STM32F4xx_StdPeriph_Driver/src/stm32f4xx_sdio.c ****   tmpreg &= CMD_CLEAR_MASK;
 411:../Libraries/STM32F4xx_StdPeriph_Driver/src/stm32f4xx_sdio.c ****   /* Set CMDINDEX bits according to SDIO_CmdIndex value */
ARM GAS  C:\Users\admin\AppData\Local\Temp\ccIRU4x5.s 			page 18


 412:../Libraries/STM32F4xx_StdPeriph_Driver/src/stm32f4xx_sdio.c ****   /* Set WAITRESP bits according to SDIO_Response value */
 413:../Libraries/STM32F4xx_StdPeriph_Driver/src/stm32f4xx_sdio.c ****   /* Set WAITINT and WAITPEND bits according to SDIO_Wait value */
 414:../Libraries/STM32F4xx_StdPeriph_Driver/src/stm32f4xx_sdio.c ****   /* Set CPSMEN bits according to SDIO_CPSM value */
 415:../Libraries/STM32F4xx_StdPeriph_Driver/src/stm32f4xx_sdio.c ****   tmpreg |= (uint32_t)SDIO_CmdInitStruct->SDIO_CmdIndex | SDIO_CmdInitStruct->SDIO_Response
 541              		.loc 1 415 57 is_stmt 0 view .LVU92
 542 0056 D4E90130 		ldrd	r3, r0, [r4, #4]	@ SDIO_CmdInitStruct_19(D)->SDIO_CmdIndex, SDIO_CmdInitStruct_19(D)->SDIO_Re
 543              	@ ../Libraries/STM32F4xx_StdPeriph_Driver/src/stm32f4xx_sdio.c:408:   tmpreg = SDIO->CMD;
 408:../Libraries/STM32F4xx_StdPeriph_Driver/src/stm32f4xx_sdio.c ****   /* Clear CMDINDEX, WAITRESP, WAITINT, WAITPEND, CPSMEN bits */
 544              		.loc 1 408 10 view .LVU93
 545 005a CA68     		ldr	r2, [r1, #12]	@ tmpreg, MEM[(struct SDIO_TypeDef *)1073818624B].CMD
 546              	.LVL30:
 410:../Libraries/STM32F4xx_StdPeriph_Driver/src/stm32f4xx_sdio.c ****   /* Set CMDINDEX bits according to SDIO_CmdIndex value */
 547              		.loc 1 410 3 is_stmt 1 view .LVU94
 548              		.loc 1 415 3 view .LVU95
 549 005c E568     		ldr	r5, [r4, #12]	@ SDIO_CmdInitStruct_19(D)->SDIO_Wait, SDIO_CmdInitStruct_19(D)->SDIO_Wait
 550              	@ ../Libraries/STM32F4xx_StdPeriph_Driver/src/stm32f4xx_sdio.c:410:   tmpreg &= CMD_CLEAR_MASK;
 410:../Libraries/STM32F4xx_StdPeriph_Driver/src/stm32f4xx_sdio.c ****   /* Set CMDINDEX bits according to SDIO_CmdIndex value */
 551              		.loc 1 410 10 is_stmt 0 view .LVU96
 552 005e 22F4FF62 		bic	r2, r2, #2040	@ tmpreg, tmpreg,
 553              	.LVL31:
 554              	@ ../Libraries/STM32F4xx_StdPeriph_Driver/src/stm32f4xx_sdio.c:415:   tmpreg |= (uint32_t)SDIO_CmdI
 555              		.loc 1 415 57 view .LVU97
 556 0062 0343     		orrs	r3, r3, r0	@, tmp155, SDIO_CmdInitStruct_19(D)->SDIO_CmdIndex, SDIO_CmdInitStruct_19(D)->SDIO
 557              	@ ../Libraries/STM32F4xx_StdPeriph_Driver/src/stm32f4xx_sdio.c:410:   tmpreg &= CMD_CLEAR_MASK;
 410:../Libraries/STM32F4xx_StdPeriph_Driver/src/stm32f4xx_sdio.c ****   /* Set CMDINDEX bits according to SDIO_CmdIndex value */
 558              		.loc 1 410 10 view .LVU98
 559 0064 22F00702 		bic	r2, r2, #7	@ tmpreg, tmpreg,
 560              	@ ../Libraries/STM32F4xx_StdPeriph_Driver/src/stm32f4xx_sdio.c:415:   tmpreg |= (uint32_t)SDIO_CmdI
 561              		.loc 1 415 10 view .LVU99
 562 0068 2069     		ldr	r0, [r4, #16]	@ SDIO_CmdInitStruct_19(D)->SDIO_CPSM, SDIO_CmdInitStruct_19(D)->SDIO_CPSM
 563 006a 1343     		orrs	r3, r3, r2	@, tmp160, tmp155, tmpreg
 564 006c 2B43     		orrs	r3, r3, r5	@, _36, tmp160, SDIO_CmdInitStruct_19(D)->SDIO_Wait
 565 006e 0343     		orrs	r3, r3, r0	@, tmpreg, _36, SDIO_CmdInitStruct_19(D)->SDIO_CPSM
 566              	.LVL32:
 416:../Libraries/STM32F4xx_StdPeriph_Driver/src/stm32f4xx_sdio.c ****            | SDIO_CmdInitStruct->SDIO_Wait | SDIO_CmdInitStruct->SDIO_CPSM;
 417:../Libraries/STM32F4xx_StdPeriph_Driver/src/stm32f4xx_sdio.c ****   
 418:../Libraries/STM32F4xx_StdPeriph_Driver/src/stm32f4xx_sdio.c ****   /* Write to SDIO CMD */
 419:../Libraries/STM32F4xx_StdPeriph_Driver/src/stm32f4xx_sdio.c ****   SDIO->CMD = tmpreg;
 567              		.loc 1 419 3 is_stmt 1 view .LVU100
 568              	@ ../Libraries/STM32F4xx_StdPeriph_Driver/src/stm32f4xx_sdio.c:419:   SDIO->CMD = tmpreg;
 569              		.loc 1 419 13 is_stmt 0 view .LVU101
 570 0070 CB60     		str	r3, [r1, #12]	@ tmpreg, MEM[(struct SDIO_TypeDef *)1073818624B].CMD
 571              	@ ../Libraries/STM32F4xx_StdPeriph_Driver/src/stm32f4xx_sdio.c:420: }
 420:../Libraries/STM32F4xx_StdPeriph_Driver/src/stm32f4xx_sdio.c **** }
 572              		.loc 1 420 1 view .LVU102
 573 0072 38BD     		pop	{r3, r4, r5, pc}	@
 574              	.LVL33:
 575              	.L31:
 576              		.loc 1 420 1 view .LVU103
 577              		.align	2
 578              	.L30:
 579 0074 002C0140 		.word	1073818624
 580              		.cfi_endproc
 581              	.LFE116:
 582              		.size	SDIO_SendCommand, .-SDIO_SendCommand
 583              		.section	.text.SDIO_CmdStructInit,"ax",%progbits
 584              		.align	1
ARM GAS  C:\Users\admin\AppData\Local\Temp\ccIRU4x5.s 			page 19


 585              		.p2align 2,,3
 586              		.global	SDIO_CmdStructInit
 587              		.syntax unified
 588              		.thumb
 589              		.thumb_func
 590              		.type	SDIO_CmdStructInit, %function
 591              	SDIO_CmdStructInit:
 592              	.LVL34:
 593              	.LFB117:
 421:../Libraries/STM32F4xx_StdPeriph_Driver/src/stm32f4xx_sdio.c **** 
 422:../Libraries/STM32F4xx_StdPeriph_Driver/src/stm32f4xx_sdio.c **** /**
 423:../Libraries/STM32F4xx_StdPeriph_Driver/src/stm32f4xx_sdio.c ****   * @brief  Fills each SDIO_CmdInitStruct member with its default value.
 424:../Libraries/STM32F4xx_StdPeriph_Driver/src/stm32f4xx_sdio.c ****   * @param  SDIO_CmdInitStruct: pointer to an SDIO_CmdInitTypeDef 
 425:../Libraries/STM32F4xx_StdPeriph_Driver/src/stm32f4xx_sdio.c ****   *         structure which will be initialized.
 426:../Libraries/STM32F4xx_StdPeriph_Driver/src/stm32f4xx_sdio.c ****   * @retval None
 427:../Libraries/STM32F4xx_StdPeriph_Driver/src/stm32f4xx_sdio.c ****   */
 428:../Libraries/STM32F4xx_StdPeriph_Driver/src/stm32f4xx_sdio.c **** void SDIO_CmdStructInit(SDIO_CmdInitTypeDef* SDIO_CmdInitStruct)
 429:../Libraries/STM32F4xx_StdPeriph_Driver/src/stm32f4xx_sdio.c **** {
 594              		.loc 1 429 1 is_stmt 1 view -0
 595              		.cfi_startproc
 596              		@ args = 0, pretend = 0, frame = 0
 597              		@ frame_needed = 0, uses_anonymous_args = 0
 598              		@ link register save eliminated.
 430:../Libraries/STM32F4xx_StdPeriph_Driver/src/stm32f4xx_sdio.c ****   /* SDIO_CmdInitStruct members default value */
 431:../Libraries/STM32F4xx_StdPeriph_Driver/src/stm32f4xx_sdio.c ****   SDIO_CmdInitStruct->SDIO_Argument = 0x00;
 599              		.loc 1 431 3 view .LVU105
 600              	@ ../Libraries/STM32F4xx_StdPeriph_Driver/src/stm32f4xx_sdio.c:431:   SDIO_CmdInitStruct->SDIO_Argu
 601              		.loc 1 431 37 is_stmt 0 view .LVU106
 602 0000 0023     		movs	r3, #0	@ tmp114,
 603              	@ ../Libraries/STM32F4xx_StdPeriph_Driver/src/stm32f4xx_sdio.c:432:   SDIO_CmdInitStruct->SDIO_CmdI
 432:../Libraries/STM32F4xx_StdPeriph_Driver/src/stm32f4xx_sdio.c ****   SDIO_CmdInitStruct->SDIO_CmdIndex = 0x00;
 604              		.loc 1 432 37 view .LVU107
 605 0002 C0E90033 		strd	r3, r3, [r0]	@ tmp114, tmp114, SDIO_CmdInitStruct
 433:../Libraries/STM32F4xx_StdPeriph_Driver/src/stm32f4xx_sdio.c ****   SDIO_CmdInitStruct->SDIO_Response = SDIO_Response_No;
 606              		.loc 1 433 3 is_stmt 1 view .LVU108
 607              	@ ../Libraries/STM32F4xx_StdPeriph_Driver/src/stm32f4xx_sdio.c:434:   SDIO_CmdInitStruct->SDIO_Wait
 434:../Libraries/STM32F4xx_StdPeriph_Driver/src/stm32f4xx_sdio.c ****   SDIO_CmdInitStruct->SDIO_Wait = SDIO_Wait_No;
 608              		.loc 1 434 33 is_stmt 0 view .LVU109
 609 0006 C0E90233 		strd	r3, r3, [r0, #8]	@ tmp114, tmp114, SDIO_CmdInitStruct,
 435:../Libraries/STM32F4xx_StdPeriph_Driver/src/stm32f4xx_sdio.c ****   SDIO_CmdInitStruct->SDIO_CPSM = SDIO_CPSM_Disable;
 610              		.loc 1 435 3 is_stmt 1 view .LVU110
 611              	@ ../Libraries/STM32F4xx_StdPeriph_Driver/src/stm32f4xx_sdio.c:435:   SDIO_CmdInitStruct->SDIO_CPSM
 612              		.loc 1 435 33 is_stmt 0 view .LVU111
 613 000a 0361     		str	r3, [r0, #16]	@ tmp114, SDIO_CmdInitStruct_2(D)->SDIO_CPSM
 614              	@ ../Libraries/STM32F4xx_StdPeriph_Driver/src/stm32f4xx_sdio.c:436: }
 436:../Libraries/STM32F4xx_StdPeriph_Driver/src/stm32f4xx_sdio.c **** }
 615              		.loc 1 436 1 view .LVU112
 616 000c 7047     		bx	lr	@
 617              		.cfi_endproc
 618              	.LFE117:
 619              		.size	SDIO_CmdStructInit, .-SDIO_CmdStructInit
 620 000e 00BF     		.section	.text.SDIO_GetCommandResponse,"ax",%progbits
 621              		.align	1
 622              		.p2align 2,,3
 623              		.global	SDIO_GetCommandResponse
 624              		.syntax unified
 625              		.thumb
ARM GAS  C:\Users\admin\AppData\Local\Temp\ccIRU4x5.s 			page 20


 626              		.thumb_func
 627              		.type	SDIO_GetCommandResponse, %function
 628              	SDIO_GetCommandResponse:
 629              	.LFB118:
 437:../Libraries/STM32F4xx_StdPeriph_Driver/src/stm32f4xx_sdio.c **** 
 438:../Libraries/STM32F4xx_StdPeriph_Driver/src/stm32f4xx_sdio.c **** /**
 439:../Libraries/STM32F4xx_StdPeriph_Driver/src/stm32f4xx_sdio.c ****   * @brief  Returns command index of last command for which response received.
 440:../Libraries/STM32F4xx_StdPeriph_Driver/src/stm32f4xx_sdio.c ****   * @param  None
 441:../Libraries/STM32F4xx_StdPeriph_Driver/src/stm32f4xx_sdio.c ****   * @retval Returns the command index of the last command response received.
 442:../Libraries/STM32F4xx_StdPeriph_Driver/src/stm32f4xx_sdio.c ****   */
 443:../Libraries/STM32F4xx_StdPeriph_Driver/src/stm32f4xx_sdio.c **** uint8_t SDIO_GetCommandResponse(void)
 444:../Libraries/STM32F4xx_StdPeriph_Driver/src/stm32f4xx_sdio.c **** {
 630              		.loc 1 444 1 is_stmt 1 view -0
 631              		.cfi_startproc
 632              		@ args = 0, pretend = 0, frame = 0
 633              		@ frame_needed = 0, uses_anonymous_args = 0
 634              		@ link register save eliminated.
 445:../Libraries/STM32F4xx_StdPeriph_Driver/src/stm32f4xx_sdio.c ****   return (uint8_t)(SDIO->RESPCMD);
 635              		.loc 1 445 3 view .LVU114
 636              	@ ../Libraries/STM32F4xx_StdPeriph_Driver/src/stm32f4xx_sdio.c:445:   return (uint8_t)(SDIO->RESPCM
 637              		.loc 1 445 24 is_stmt 0 view .LVU115
 638 0000 014B     		ldr	r3, .L34	@ tmp115,
 639 0002 1869     		ldr	r0, [r3, #16]	@ _1, MEM[(struct SDIO_TypeDef *)1073818624B].RESPCMD
 640              	@ ../Libraries/STM32F4xx_StdPeriph_Driver/src/stm32f4xx_sdio.c:446: }
 446:../Libraries/STM32F4xx_StdPeriph_Driver/src/stm32f4xx_sdio.c **** }
 641              		.loc 1 446 1 view .LVU116
 642 0004 C0B2     		uxtb	r0, r0	@, _1
 643 0006 7047     		bx	lr	@
 644              	.L35:
 645              		.align	2
 646              	.L34:
 647 0008 002C0140 		.word	1073818624
 648              		.cfi_endproc
 649              	.LFE118:
 650              		.size	SDIO_GetCommandResponse, .-SDIO_GetCommandResponse
 651              		.section	.text.SDIO_GetResponse,"ax",%progbits
 652              		.align	1
 653              		.p2align 2,,3
 654              		.global	SDIO_GetResponse
 655              		.syntax unified
 656              		.thumb
 657              		.thumb_func
 658              		.type	SDIO_GetResponse, %function
 659              	SDIO_GetResponse:
 660              	.LVL35:
 661              	.LFB119:
 447:../Libraries/STM32F4xx_StdPeriph_Driver/src/stm32f4xx_sdio.c **** 
 448:../Libraries/STM32F4xx_StdPeriph_Driver/src/stm32f4xx_sdio.c **** /**
 449:../Libraries/STM32F4xx_StdPeriph_Driver/src/stm32f4xx_sdio.c ****   * @brief  Returns response received from the card for the last command.
 450:../Libraries/STM32F4xx_StdPeriph_Driver/src/stm32f4xx_sdio.c ****   * @param  SDIO_RESP: Specifies the SDIO response register. 
 451:../Libraries/STM32F4xx_StdPeriph_Driver/src/stm32f4xx_sdio.c ****   *          This parameter can be one of the following values:
 452:../Libraries/STM32F4xx_StdPeriph_Driver/src/stm32f4xx_sdio.c ****   *            @arg SDIO_RESP1: Response Register 1
 453:../Libraries/STM32F4xx_StdPeriph_Driver/src/stm32f4xx_sdio.c ****   *            @arg SDIO_RESP2: Response Register 2
 454:../Libraries/STM32F4xx_StdPeriph_Driver/src/stm32f4xx_sdio.c ****   *            @arg SDIO_RESP3: Response Register 3
 455:../Libraries/STM32F4xx_StdPeriph_Driver/src/stm32f4xx_sdio.c ****   *            @arg SDIO_RESP4: Response Register 4
 456:../Libraries/STM32F4xx_StdPeriph_Driver/src/stm32f4xx_sdio.c ****   * @retval The Corresponding response register value.
 457:../Libraries/STM32F4xx_StdPeriph_Driver/src/stm32f4xx_sdio.c ****   */
ARM GAS  C:\Users\admin\AppData\Local\Temp\ccIRU4x5.s 			page 21


 458:../Libraries/STM32F4xx_StdPeriph_Driver/src/stm32f4xx_sdio.c **** uint32_t SDIO_GetResponse(uint32_t SDIO_RESP)
 459:../Libraries/STM32F4xx_StdPeriph_Driver/src/stm32f4xx_sdio.c **** {
 662              		.loc 1 459 1 is_stmt 1 view -0
 663              		.cfi_startproc
 664              		@ args = 0, pretend = 0, frame = 8
 665              		@ frame_needed = 0, uses_anonymous_args = 0
 460:../Libraries/STM32F4xx_StdPeriph_Driver/src/stm32f4xx_sdio.c ****   __IO uint32_t tmp = 0;
 666              		.loc 1 460 3 view .LVU118
 667              	@ ../Libraries/STM32F4xx_StdPeriph_Driver/src/stm32f4xx_sdio.c:459: {
 459:../Libraries/STM32F4xx_StdPeriph_Driver/src/stm32f4xx_sdio.c ****   __IO uint32_t tmp = 0;
 668              		.loc 1 459 1 is_stmt 0 view .LVU119
 669 0000 10B5     		push	{r4, lr}	@
 670              		.cfi_def_cfa_offset 8
 671              		.cfi_offset 4, -8
 672              		.cfi_offset 14, -4
 673              	@ ../Libraries/STM32F4xx_StdPeriph_Driver/src/stm32f4xx_sdio.c:463:   assert_param(IS_SDIO_RESP(SDI
 461:../Libraries/STM32F4xx_StdPeriph_Driver/src/stm32f4xx_sdio.c **** 
 462:../Libraries/STM32F4xx_StdPeriph_Driver/src/stm32f4xx_sdio.c ****   /* Check the parameters */
 463:../Libraries/STM32F4xx_StdPeriph_Driver/src/stm32f4xx_sdio.c ****   assert_param(IS_SDIO_RESP(SDIO_RESP));
 674              		.loc 1 463 3 view .LVU120
 675 0002 30F00C03 		bics	r3, r0, #12	@ tmp129, SDIO_RESP,
 676              	@ ../Libraries/STM32F4xx_StdPeriph_Driver/src/stm32f4xx_sdio.c:459: {
 459:../Libraries/STM32F4xx_StdPeriph_Driver/src/stm32f4xx_sdio.c ****   __IO uint32_t tmp = 0;
 677              		.loc 1 459 1 view .LVU121
 678 0006 82B0     		sub	sp, sp, #8	@,,
 679              		.cfi_def_cfa_offset 16
 680              	@ ../Libraries/STM32F4xx_StdPeriph_Driver/src/stm32f4xx_sdio.c:460:   __IO uint32_t tmp = 0;
 460:../Libraries/STM32F4xx_StdPeriph_Driver/src/stm32f4xx_sdio.c **** 
 681              		.loc 1 460 17 view .LVU122
 682 0008 4FF00003 		mov	r3, #0	@ tmp121,
 683              	@ ../Libraries/STM32F4xx_StdPeriph_Driver/src/stm32f4xx_sdio.c:459: {
 459:../Libraries/STM32F4xx_StdPeriph_Driver/src/stm32f4xx_sdio.c ****   __IO uint32_t tmp = 0;
 684              		.loc 1 459 1 view .LVU123
 685 000c 0446     		mov	r4, r0	@ SDIO_RESP, tmp127
 686              	@ ../Libraries/STM32F4xx_StdPeriph_Driver/src/stm32f4xx_sdio.c:463:   assert_param(IS_SDIO_RESP(SDI
 687              		.loc 1 463 3 view .LVU124
 688 000e 14BF     		ite	ne
 689 0010 1846     		movne	r0, r3	@,
 690              	.LVL36:
 691              		.loc 1 463 3 view .LVU125
 692 0012 0120     		moveq	r0, #1	@,
 693              	@ ../Libraries/STM32F4xx_StdPeriph_Driver/src/stm32f4xx_sdio.c:460:   __IO uint32_t tmp = 0;
 460:../Libraries/STM32F4xx_StdPeriph_Driver/src/stm32f4xx_sdio.c **** 
 694              		.loc 1 460 17 view .LVU126
 695 0014 0193     		str	r3, [sp, #4]	@ tmp121, tmp
 696              		.loc 1 463 3 is_stmt 1 view .LVU127
 697 0016 FFF7FEFF 		bl	assert_param		@
 698              	.LVL37:
 464:../Libraries/STM32F4xx_StdPeriph_Driver/src/stm32f4xx_sdio.c **** 
 465:../Libraries/STM32F4xx_StdPeriph_Driver/src/stm32f4xx_sdio.c ****   tmp = SDIO_RESP_ADDR + SDIO_RESP;
 699              		.loc 1 465 3 view .LVU128
 700              	@ ../Libraries/STM32F4xx_StdPeriph_Driver/src/stm32f4xx_sdio.c:465:   tmp = SDIO_RESP_ADDR + SDIO_R
 701              		.loc 1 465 24 is_stmt 0 view .LVU129
 702 001a 034B     		ldr	r3, .L38	@ _1,
 703 001c 2344     		add	r3, r3, r4	@ _1, SDIO_RESP
 704              	@ ../Libraries/STM32F4xx_StdPeriph_Driver/src/stm32f4xx_sdio.c:465:   tmp = SDIO_RESP_ADDR + SDIO_R
 705              		.loc 1 465 7 view .LVU130
ARM GAS  C:\Users\admin\AppData\Local\Temp\ccIRU4x5.s 			page 22


 706 001e 0193     		str	r3, [sp, #4]	@ _1, tmp
 466:../Libraries/STM32F4xx_StdPeriph_Driver/src/stm32f4xx_sdio.c ****   
 467:../Libraries/STM32F4xx_StdPeriph_Driver/src/stm32f4xx_sdio.c ****   return (*(__IO uint32_t *) tmp); 
 707              		.loc 1 467 3 is_stmt 1 view .LVU131
 708              	@ ../Libraries/STM32F4xx_StdPeriph_Driver/src/stm32f4xx_sdio.c:467:   return (*(__IO uint32_t *) tm
 709              		.loc 1 467 12 is_stmt 0 view .LVU132
 710 0020 019B     		ldr	r3, [sp, #4]	@ tmp.10_2, tmp
 711              	@ ../Libraries/STM32F4xx_StdPeriph_Driver/src/stm32f4xx_sdio.c:467:   return (*(__IO uint32_t *) tm
 712              		.loc 1 467 11 view .LVU133
 713 0022 1868     		ldr	r0, [r3]	@ <retval>, *tmp.11_3
 714              	@ ../Libraries/STM32F4xx_StdPeriph_Driver/src/stm32f4xx_sdio.c:468: }
 468:../Libraries/STM32F4xx_StdPeriph_Driver/src/stm32f4xx_sdio.c **** }
 715              		.loc 1 468 1 view .LVU134
 716 0024 02B0     		add	sp, sp, #8	@,,
 717              		.cfi_def_cfa_offset 8
 718              		@ sp needed	@
 719 0026 10BD     		pop	{r4, pc}	@
 720              	.LVL38:
 721              	.L39:
 722              		.loc 1 468 1 view .LVU135
 723              		.align	2
 724              	.L38:
 725 0028 142C0140 		.word	1073818644
 726              		.cfi_endproc
 727              	.LFE119:
 728              		.size	SDIO_GetResponse, .-SDIO_GetResponse
 729              		.section	.text.SDIO_DataConfig,"ax",%progbits
 730              		.align	1
 731              		.p2align 2,,3
 732              		.global	SDIO_DataConfig
 733              		.syntax unified
 734              		.thumb
 735              		.thumb_func
 736              		.type	SDIO_DataConfig, %function
 737              	SDIO_DataConfig:
 738              	.LVL39:
 739              	.LFB120:
 469:../Libraries/STM32F4xx_StdPeriph_Driver/src/stm32f4xx_sdio.c **** 
 470:../Libraries/STM32F4xx_StdPeriph_Driver/src/stm32f4xx_sdio.c **** /**
 471:../Libraries/STM32F4xx_StdPeriph_Driver/src/stm32f4xx_sdio.c ****   * @}
 472:../Libraries/STM32F4xx_StdPeriph_Driver/src/stm32f4xx_sdio.c ****   */
 473:../Libraries/STM32F4xx_StdPeriph_Driver/src/stm32f4xx_sdio.c **** 
 474:../Libraries/STM32F4xx_StdPeriph_Driver/src/stm32f4xx_sdio.c **** /** @defgroup SDIO_Group3 Data path state machine (DPSM) management functions
 475:../Libraries/STM32F4xx_StdPeriph_Driver/src/stm32f4xx_sdio.c ****  *  @brief   Data path state machine (DPSM) management functions
 476:../Libraries/STM32F4xx_StdPeriph_Driver/src/stm32f4xx_sdio.c ****  *
 477:../Libraries/STM32F4xx_StdPeriph_Driver/src/stm32f4xx_sdio.c **** @verbatim   
 478:../Libraries/STM32F4xx_StdPeriph_Driver/src/stm32f4xx_sdio.c ****  ===============================================================================
 479:../Libraries/STM32F4xx_StdPeriph_Driver/src/stm32f4xx_sdio.c ****               Data path state machine (DPSM) management functions
 480:../Libraries/STM32F4xx_StdPeriph_Driver/src/stm32f4xx_sdio.c ****  ===============================================================================  
 481:../Libraries/STM32F4xx_StdPeriph_Driver/src/stm32f4xx_sdio.c **** 
 482:../Libraries/STM32F4xx_StdPeriph_Driver/src/stm32f4xx_sdio.c ****   This section provide functions allowing to program and read the Data path 
 483:../Libraries/STM32F4xx_StdPeriph_Driver/src/stm32f4xx_sdio.c ****   state machine (DPSM).
 484:../Libraries/STM32F4xx_StdPeriph_Driver/src/stm32f4xx_sdio.c **** 
 485:../Libraries/STM32F4xx_StdPeriph_Driver/src/stm32f4xx_sdio.c **** @endverbatim
 486:../Libraries/STM32F4xx_StdPeriph_Driver/src/stm32f4xx_sdio.c ****   * @{
 487:../Libraries/STM32F4xx_StdPeriph_Driver/src/stm32f4xx_sdio.c ****   */
 488:../Libraries/STM32F4xx_StdPeriph_Driver/src/stm32f4xx_sdio.c **** 
ARM GAS  C:\Users\admin\AppData\Local\Temp\ccIRU4x5.s 			page 23


 489:../Libraries/STM32F4xx_StdPeriph_Driver/src/stm32f4xx_sdio.c **** /**
 490:../Libraries/STM32F4xx_StdPeriph_Driver/src/stm32f4xx_sdio.c ****   * @brief  Initializes the SDIO data path according to the specified 
 491:../Libraries/STM32F4xx_StdPeriph_Driver/src/stm32f4xx_sdio.c ****   *         parameters in the SDIO_DataInitStruct.
 492:../Libraries/STM32F4xx_StdPeriph_Driver/src/stm32f4xx_sdio.c ****   * @param  SDIO_DataInitStruct : pointer to a SDIO_DataInitTypeDef structure 
 493:../Libraries/STM32F4xx_StdPeriph_Driver/src/stm32f4xx_sdio.c ****   *         that contains the configuration information for the SDIO command.
 494:../Libraries/STM32F4xx_StdPeriph_Driver/src/stm32f4xx_sdio.c ****   * @retval None
 495:../Libraries/STM32F4xx_StdPeriph_Driver/src/stm32f4xx_sdio.c ****   */
 496:../Libraries/STM32F4xx_StdPeriph_Driver/src/stm32f4xx_sdio.c **** void SDIO_DataConfig(SDIO_DataInitTypeDef* SDIO_DataInitStruct)
 497:../Libraries/STM32F4xx_StdPeriph_Driver/src/stm32f4xx_sdio.c **** {
 740              		.loc 1 497 1 is_stmt 1 view -0
 741              		.cfi_startproc
 742              		@ args = 0, pretend = 0, frame = 0
 743              		@ frame_needed = 0, uses_anonymous_args = 0
 498:../Libraries/STM32F4xx_StdPeriph_Driver/src/stm32f4xx_sdio.c ****   uint32_t tmpreg = 0;
 744              		.loc 1 498 3 view .LVU137
 499:../Libraries/STM32F4xx_StdPeriph_Driver/src/stm32f4xx_sdio.c ****   
 500:../Libraries/STM32F4xx_StdPeriph_Driver/src/stm32f4xx_sdio.c ****   /* Check the parameters */
 501:../Libraries/STM32F4xx_StdPeriph_Driver/src/stm32f4xx_sdio.c ****   assert_param(IS_SDIO_DATA_LENGTH(SDIO_DataInitStruct->SDIO_DataLength));
 745              		.loc 1 501 3 view .LVU138
 746              	@ ../Libraries/STM32F4xx_StdPeriph_Driver/src/stm32f4xx_sdio.c:497: {
 497:../Libraries/STM32F4xx_StdPeriph_Driver/src/stm32f4xx_sdio.c ****   uint32_t tmpreg = 0;
 747              		.loc 1 497 1 is_stmt 0 view .LVU139
 748 0000 38B5     		push	{r3, r4, r5, lr}	@
 749              		.cfi_def_cfa_offset 16
 750              		.cfi_offset 3, -16
 751              		.cfi_offset 4, -12
 752              		.cfi_offset 5, -8
 753              		.cfi_offset 14, -4
 754              	@ ../Libraries/STM32F4xx_StdPeriph_Driver/src/stm32f4xx_sdio.c:497: {
 497:../Libraries/STM32F4xx_StdPeriph_Driver/src/stm32f4xx_sdio.c ****   uint32_t tmpreg = 0;
 755              		.loc 1 497 1 view .LVU140
 756 0002 0446     		mov	r4, r0	@ SDIO_DataInitStruct, tmp173
 757              	@ ../Libraries/STM32F4xx_StdPeriph_Driver/src/stm32f4xx_sdio.c:501:   assert_param(IS_SDIO_DATA_LEN
 758              		.loc 1 501 3 view .LVU141
 759 0004 4068     		ldr	r0, [r0, #4]	@ SDIO_DataInitStruct_23(D)->SDIO_DataLength, SDIO_DataInitStruct_23(D)->SDIO_Dat
 760              	.LVL40:
 761              		.loc 1 501 3 view .LVU142
 762 0006 B0F1007F 		cmp	r0, #33554432	@ SDIO_DataInitStruct_23(D)->SDIO_DataLength,
 763 000a 2CBF     		ite	cs
 764 000c 0020     		movcs	r0, #0	@,
 765 000e 0120     		movcc	r0, #1	@,
 766 0010 FFF7FEFF 		bl	assert_param		@
 767              	.LVL41:
 502:../Libraries/STM32F4xx_StdPeriph_Driver/src/stm32f4xx_sdio.c ****   assert_param(IS_SDIO_BLOCK_SIZE(SDIO_DataInitStruct->SDIO_DataBlockSize));
 768              		.loc 1 502 3 is_stmt 1 view .LVU143
 769              	@ ../Libraries/STM32F4xx_StdPeriph_Driver/src/stm32f4xx_sdio.c:502:   assert_param(IS_SDIO_BLOCK_SI
 770              		.loc 1 502 16 is_stmt 0 view .LVU144
 771 0014 A068     		ldr	r0, [r4, #8]	@ _4, SDIO_DataInitStruct_23(D)->SDIO_DataBlockSize
 772              	@ ../Libraries/STM32F4xx_StdPeriph_Driver/src/stm32f4xx_sdio.c:502:   assert_param(IS_SDIO_BLOCK_SI
 773              		.loc 1 502 3 view .LVU145
 774 0016 30F03003 		bics	r3, r0, #48	@ _51, _4,
 775 001a 0DD0     		beq	.L45		@,
 776              	@ ../Libraries/STM32F4xx_StdPeriph_Driver/src/stm32f4xx_sdio.c:502:   assert_param(IS_SDIO_BLOCK_SI
 777              		.loc 1 502 16 discriminator 8 view .LVU146
 778 001c 402B     		cmp	r3, #64	@ _51,
 779 001e 0BD0     		beq	.L45		@,
 780              	@ ../Libraries/STM32F4xx_StdPeriph_Driver/src/stm32f4xx_sdio.c:502:   assert_param(IS_SDIO_BLOCK_SI
ARM GAS  C:\Users\admin\AppData\Local\Temp\ccIRU4x5.s 			page 24


 781              		.loc 1 502 16 discriminator 16 view .LVU147
 782 0020 802B     		cmp	r3, #128	@ _51,
 783 0022 09D0     		beq	.L45		@,
 784 0024 20F01002 		bic	r2, r0, #16	@ _36, _4,
 785              	@ ../Libraries/STM32F4xx_StdPeriph_Driver/src/stm32f4xx_sdio.c:502:   assert_param(IS_SDIO_BLOCK_SI
 786              		.loc 1 502 16 discriminator 24 view .LVU148
 787 0028 C02A     		cmp	r2, #192	@ _36,
 788 002a 05D0     		beq	.L45		@,
 789              	@ ../Libraries/STM32F4xx_StdPeriph_Driver/src/stm32f4xx_sdio.c:502:   assert_param(IS_SDIO_BLOCK_SI
 790              		.loc 1 502 3 discriminator 28 view .LVU149
 791 002c A0F1E000 		sub	r0, #224	@ iftmp.12_19,
 792 0030 B0FA80F0 		clz	r0, r0	@ iftmp.12_19, iftmp.12_19
 793 0034 4009     		lsrs	r0, r0, #5	@ iftmp.12_19, iftmp.12_19,
 794 0036 00E0     		b	.L41		@
 795              	.L45:
 796              	@ ../Libraries/STM32F4xx_StdPeriph_Driver/src/stm32f4xx_sdio.c:502:   assert_param(IS_SDIO_BLOCK_SI
 797              		.loc 1 502 3 view .LVU150
 798 0038 0120     		movs	r0, #1	@ iftmp.12_19,
 799              	.L41:
 800              	@ ../Libraries/STM32F4xx_StdPeriph_Driver/src/stm32f4xx_sdio.c:502:   assert_param(IS_SDIO_BLOCK_SI
 801              		.loc 1 502 3 discriminator 32 view .LVU151
 802 003a FFF7FEFF 		bl	assert_param		@
 803              	.LVL42:
 503:../Libraries/STM32F4xx_StdPeriph_Driver/src/stm32f4xx_sdio.c ****   assert_param(IS_SDIO_TRANSFER_DIR(SDIO_DataInitStruct->SDIO_TransferDir));
 804              		.loc 1 503 3 is_stmt 1 discriminator 32 view .LVU152
 805 003e E368     		ldr	r3, [r4, #12]	@ SDIO_DataInitStruct_23(D)->SDIO_TransferDir, SDIO_DataInitStruct_23(D)->SDIO_T
 806 0040 33F00203 		bics	r3, r3, #2	@ tmp175, SDIO_DataInitStruct_23(D)->SDIO_TransferDir,
 807 0044 0CBF     		ite	eq
 808 0046 0120     		moveq	r0, #1	@,
 809 0048 0020     		movne	r0, #0	@,
 810 004a FFF7FEFF 		bl	assert_param		@
 811              	.LVL43:
 504:../Libraries/STM32F4xx_StdPeriph_Driver/src/stm32f4xx_sdio.c ****   assert_param(IS_SDIO_TRANSFER_MODE(SDIO_DataInitStruct->SDIO_TransferMode));
 812              		.loc 1 504 3 discriminator 32 view .LVU153
 813 004e 2369     		ldr	r3, [r4, #16]	@ SDIO_DataInitStruct_23(D)->SDIO_TransferMode, SDIO_DataInitStruct_23(D)->SDIO_
 814 0050 33F00403 		bics	r3, r3, #4	@ tmp176, SDIO_DataInitStruct_23(D)->SDIO_TransferMode,
 815 0054 0CBF     		ite	eq
 816 0056 0120     		moveq	r0, #1	@,
 817 0058 0020     		movne	r0, #0	@,
 818 005a FFF7FEFF 		bl	assert_param		@
 819              	.LVL44:
 505:../Libraries/STM32F4xx_StdPeriph_Driver/src/stm32f4xx_sdio.c ****   assert_param(IS_SDIO_DPSM(SDIO_DataInitStruct->SDIO_DPSM));
 820              		.loc 1 505 3 discriminator 32 view .LVU154
 821 005e 6069     		ldr	r0, [r4, #20]	@ SDIO_DataInitStruct_23(D)->SDIO_DPSM, SDIO_DataInitStruct_23(D)->SDIO_DPSM
 822 0060 0128     		cmp	r0, #1	@ SDIO_DataInitStruct_23(D)->SDIO_DPSM,
 823 0062 8CBF     		ite	hi
 824 0064 0020     		movhi	r0, #0	@,
 825 0066 0120     		movls	r0, #1	@,
 826 0068 FFF7FEFF 		bl	assert_param		@
 827              	.LVL45:
 506:../Libraries/STM32F4xx_StdPeriph_Driver/src/stm32f4xx_sdio.c **** 
 507:../Libraries/STM32F4xx_StdPeriph_Driver/src/stm32f4xx_sdio.c **** /*---------------------------- SDIO DTIMER Configuration ---------------------*/
 508:../Libraries/STM32F4xx_StdPeriph_Driver/src/stm32f4xx_sdio.c ****   /* Set the SDIO Data TimeOut value */
 509:../Libraries/STM32F4xx_StdPeriph_Driver/src/stm32f4xx_sdio.c ****   SDIO->DTIMER = SDIO_DataInitStruct->SDIO_DataTimeOut;
 828              		.loc 1 509 3 discriminator 32 view .LVU155
 829              	@ ../Libraries/STM32F4xx_StdPeriph_Driver/src/stm32f4xx_sdio.c:509:   SDIO->DTIMER = SDIO_DataInitS
 830              		.loc 1 509 16 is_stmt 0 discriminator 32 view .LVU156
ARM GAS  C:\Users\admin\AppData\Local\Temp\ccIRU4x5.s 			page 25


 831 006c 084A     		ldr	r2, .L47	@ tmp162,
 832              	@ ../Libraries/STM32F4xx_StdPeriph_Driver/src/stm32f4xx_sdio.c:509:   SDIO->DTIMER = SDIO_DataInitS
 833              		.loc 1 509 37 discriminator 32 view .LVU157
 834 006e 2368     		ldr	r3, [r4]	@ _10, SDIO_DataInitStruct_23(D)->SDIO_DataTimeOut
 835              	@ ../Libraries/STM32F4xx_StdPeriph_Driver/src/stm32f4xx_sdio.c:509:   SDIO->DTIMER = SDIO_DataInitS
 836              		.loc 1 509 16 discriminator 32 view .LVU158
 837 0070 5362     		str	r3, [r2, #36]	@ _10, MEM[(struct SDIO_TypeDef *)1073818624B].DTIMER
 510:../Libraries/STM32F4xx_StdPeriph_Driver/src/stm32f4xx_sdio.c **** 
 511:../Libraries/STM32F4xx_StdPeriph_Driver/src/stm32f4xx_sdio.c **** /*---------------------------- SDIO DLEN Configuration -----------------------*/
 512:../Libraries/STM32F4xx_StdPeriph_Driver/src/stm32f4xx_sdio.c ****   /* Set the SDIO DataLength value */
 513:../Libraries/STM32F4xx_StdPeriph_Driver/src/stm32f4xx_sdio.c ****   SDIO->DLEN = SDIO_DataInitStruct->SDIO_DataLength;
 838              		.loc 1 513 3 is_stmt 1 discriminator 32 view .LVU159
 839              	@ ../Libraries/STM32F4xx_StdPeriph_Driver/src/stm32f4xx_sdio.c:513:   SDIO->DLEN = SDIO_DataInitStr
 840              		.loc 1 513 35 is_stmt 0 discriminator 32 view .LVU160
 841 0072 6368     		ldr	r3, [r4, #4]	@ _11, SDIO_DataInitStruct_23(D)->SDIO_DataLength
 842              	@ ../Libraries/STM32F4xx_StdPeriph_Driver/src/stm32f4xx_sdio.c:513:   SDIO->DLEN = SDIO_DataInitStr
 843              		.loc 1 513 14 discriminator 32 view .LVU161
 844 0074 9362     		str	r3, [r2, #40]	@ _11, MEM[(struct SDIO_TypeDef *)1073818624B].DLEN
 514:../Libraries/STM32F4xx_StdPeriph_Driver/src/stm32f4xx_sdio.c **** 
 515:../Libraries/STM32F4xx_StdPeriph_Driver/src/stm32f4xx_sdio.c **** /*---------------------------- SDIO DCTRL Configuration ----------------------*/  
 516:../Libraries/STM32F4xx_StdPeriph_Driver/src/stm32f4xx_sdio.c ****   /* Get the SDIO DCTRL value */
 517:../Libraries/STM32F4xx_StdPeriph_Driver/src/stm32f4xx_sdio.c ****   tmpreg = SDIO->DCTRL;
 845              		.loc 1 517 3 is_stmt 1 discriminator 32 view .LVU162
 846              	@ ../Libraries/STM32F4xx_StdPeriph_Driver/src/stm32f4xx_sdio.c:524:   tmpreg |= (uint32_t)SDIO_Data
 518:../Libraries/STM32F4xx_StdPeriph_Driver/src/stm32f4xx_sdio.c ****   /* Clear DEN, DTMODE, DTDIR and DBCKSIZE bits */
 519:../Libraries/STM32F4xx_StdPeriph_Driver/src/stm32f4xx_sdio.c ****   tmpreg &= DCTRL_CLEAR_MASK;
 520:../Libraries/STM32F4xx_StdPeriph_Driver/src/stm32f4xx_sdio.c ****   /* Set DEN bit according to SDIO_DPSM value */
 521:../Libraries/STM32F4xx_StdPeriph_Driver/src/stm32f4xx_sdio.c ****   /* Set DTMODE bit according to SDIO_TransferMode value */
 522:../Libraries/STM32F4xx_StdPeriph_Driver/src/stm32f4xx_sdio.c ****   /* Set DTDIR bit according to SDIO_TransferDir value */
 523:../Libraries/STM32F4xx_StdPeriph_Driver/src/stm32f4xx_sdio.c ****   /* Set DBCKSIZE bits according to SDIO_DataBlockSize value */
 524:../Libraries/STM32F4xx_StdPeriph_Driver/src/stm32f4xx_sdio.c ****   tmpreg |= (uint32_t)SDIO_DataInitStruct->SDIO_DataBlockSize | SDIO_DataInitStruct->SDIO_TransferD
 847              		.loc 1 524 63 is_stmt 0 discriminator 32 view .LVU163
 848 0076 D4E90230 		ldrd	r3, r0, [r4, #8]	@ SDIO_DataInitStruct_23(D)->SDIO_DataBlockSize, SDIO_DataInitStruct_23(D)->
 849              	@ ../Libraries/STM32F4xx_StdPeriph_Driver/src/stm32f4xx_sdio.c:517:   tmpreg = SDIO->DCTRL;
 517:../Libraries/STM32F4xx_StdPeriph_Driver/src/stm32f4xx_sdio.c ****   /* Clear DEN, DTMODE, DTDIR and DBCKSIZE bits */
 850              		.loc 1 517 10 discriminator 32 view .LVU164
 851 007a D16A     		ldr	r1, [r2, #44]	@ tmpreg, MEM[(struct SDIO_TypeDef *)1073818624B].DCTRL
 852              	.LVL46:
 519:../Libraries/STM32F4xx_StdPeriph_Driver/src/stm32f4xx_sdio.c ****   /* Set DEN bit according to SDIO_DPSM value */
 853              		.loc 1 519 3 is_stmt 1 discriminator 32 view .LVU165
 854              		.loc 1 524 3 discriminator 32 view .LVU166
 855              	@ ../Libraries/STM32F4xx_StdPeriph_Driver/src/stm32f4xx_sdio.c:524:   tmpreg |= (uint32_t)SDIO_Data
 856              		.loc 1 524 63 is_stmt 0 discriminator 32 view .LVU167
 857 007c 0343     		orrs	r3, r3, r0	@, tmp165, SDIO_DataInitStruct_23(D)->SDIO_DataBlockSize, SDIO_DataInitStruct_23(D
 858              	@ ../Libraries/STM32F4xx_StdPeriph_Driver/src/stm32f4xx_sdio.c:524:   tmpreg |= (uint32_t)SDIO_Data
 859              		.loc 1 524 10 discriminator 32 view .LVU168
 860 007e D4E90450 		ldrd	r5, r0, [r4, #16]	@ SDIO_DataInitStruct_23(D)->SDIO_TransferMode, SDIO_DataInitStruct_23(D)->
 861              	@ ../Libraries/STM32F4xx_StdPeriph_Driver/src/stm32f4xx_sdio.c:519:   tmpreg &= DCTRL_CLEAR_MASK;
 519:../Libraries/STM32F4xx_StdPeriph_Driver/src/stm32f4xx_sdio.c ****   /* Set DEN bit according to SDIO_DPSM value */
 862              		.loc 1 519 10 discriminator 32 view .LVU169
 863 0082 21F0F701 		bic	r1, r1, #247	@ tmpreg, tmpreg,
 864              	.LVL47:
 519:../Libraries/STM32F4xx_StdPeriph_Driver/src/stm32f4xx_sdio.c ****   /* Set DEN bit according to SDIO_DPSM value */
 865              		.loc 1 519 10 discriminator 32 view .LVU170
 866 0086 0B43     		orrs	r3, r3, r1	@, tmp169, tmp165, tmpreg
 867 0088 2B43     		orrs	r3, r3, r5	@, _43, tmp169, SDIO_DataInitStruct_23(D)->SDIO_TransferMode
 868              	@ ../Libraries/STM32F4xx_StdPeriph_Driver/src/stm32f4xx_sdio.c:524:   tmpreg |= (uint32_t)SDIO_Data
ARM GAS  C:\Users\admin\AppData\Local\Temp\ccIRU4x5.s 			page 26


 869              		.loc 1 524 10 discriminator 32 view .LVU171
 870 008a 0343     		orrs	r3, r3, r0	@, tmpreg, _43, SDIO_DataInitStruct_23(D)->SDIO_DPSM
 871              	.LVL48:
 525:../Libraries/STM32F4xx_StdPeriph_Driver/src/stm32f4xx_sdio.c ****            | SDIO_DataInitStruct->SDIO_TransferMode | SDIO_DataInitStruct->SDIO_DPSM;
 526:../Libraries/STM32F4xx_StdPeriph_Driver/src/stm32f4xx_sdio.c **** 
 527:../Libraries/STM32F4xx_StdPeriph_Driver/src/stm32f4xx_sdio.c ****   /* Write to SDIO DCTRL */
 528:../Libraries/STM32F4xx_StdPeriph_Driver/src/stm32f4xx_sdio.c ****   SDIO->DCTRL = tmpreg;
 872              		.loc 1 528 3 is_stmt 1 discriminator 32 view .LVU172
 873              	@ ../Libraries/STM32F4xx_StdPeriph_Driver/src/stm32f4xx_sdio.c:528:   SDIO->DCTRL = tmpreg;
 874              		.loc 1 528 15 is_stmt 0 discriminator 32 view .LVU173
 875 008c D362     		str	r3, [r2, #44]	@ tmpreg, MEM[(struct SDIO_TypeDef *)1073818624B].DCTRL
 876              	@ ../Libraries/STM32F4xx_StdPeriph_Driver/src/stm32f4xx_sdio.c:529: }
 529:../Libraries/STM32F4xx_StdPeriph_Driver/src/stm32f4xx_sdio.c **** }
 877              		.loc 1 529 1 discriminator 32 view .LVU174
 878 008e 38BD     		pop	{r3, r4, r5, pc}	@
 879              	.LVL49:
 880              	.L48:
 881              		.loc 1 529 1 discriminator 32 view .LVU175
 882              		.align	2
 883              	.L47:
 884 0090 002C0140 		.word	1073818624
 885              		.cfi_endproc
 886              	.LFE120:
 887              		.size	SDIO_DataConfig, .-SDIO_DataConfig
 888              		.section	.text.SDIO_DataStructInit,"ax",%progbits
 889              		.align	1
 890              		.p2align 2,,3
 891              		.global	SDIO_DataStructInit
 892              		.syntax unified
 893              		.thumb
 894              		.thumb_func
 895              		.type	SDIO_DataStructInit, %function
 896              	SDIO_DataStructInit:
 897              	.LVL50:
 898              	.LFB121:
 530:../Libraries/STM32F4xx_StdPeriph_Driver/src/stm32f4xx_sdio.c **** 
 531:../Libraries/STM32F4xx_StdPeriph_Driver/src/stm32f4xx_sdio.c **** /**
 532:../Libraries/STM32F4xx_StdPeriph_Driver/src/stm32f4xx_sdio.c ****   * @brief  Fills each SDIO_DataInitStruct member with its default value.
 533:../Libraries/STM32F4xx_StdPeriph_Driver/src/stm32f4xx_sdio.c ****   * @param  SDIO_DataInitStruct: pointer to an SDIO_DataInitTypeDef structure 
 534:../Libraries/STM32F4xx_StdPeriph_Driver/src/stm32f4xx_sdio.c ****   *         which will be initialized.
 535:../Libraries/STM32F4xx_StdPeriph_Driver/src/stm32f4xx_sdio.c ****   * @retval None
 536:../Libraries/STM32F4xx_StdPeriph_Driver/src/stm32f4xx_sdio.c ****   */
 537:../Libraries/STM32F4xx_StdPeriph_Driver/src/stm32f4xx_sdio.c **** void SDIO_DataStructInit(SDIO_DataInitTypeDef* SDIO_DataInitStruct)
 538:../Libraries/STM32F4xx_StdPeriph_Driver/src/stm32f4xx_sdio.c **** {
 899              		.loc 1 538 1 is_stmt 1 view -0
 900              		.cfi_startproc
 901              		@ args = 0, pretend = 0, frame = 0
 902              		@ frame_needed = 0, uses_anonymous_args = 0
 903              		@ link register save eliminated.
 539:../Libraries/STM32F4xx_StdPeriph_Driver/src/stm32f4xx_sdio.c ****   /* SDIO_DataInitStruct members default value */
 540:../Libraries/STM32F4xx_StdPeriph_Driver/src/stm32f4xx_sdio.c ****   SDIO_DataInitStruct->SDIO_DataTimeOut = 0xFFFFFFFF;
 904              		.loc 1 540 3 view .LVU177
 905              	@ ../Libraries/STM32F4xx_StdPeriph_Driver/src/stm32f4xx_sdio.c:541:   SDIO_DataInitStruct->SDIO_Dat
 541:../Libraries/STM32F4xx_StdPeriph_Driver/src/stm32f4xx_sdio.c ****   SDIO_DataInitStruct->SDIO_DataLength = 0x00;
 906              		.loc 1 541 40 is_stmt 0 view .LVU178
 907 0000 0023     		movs	r3, #0	@ tmp115,
 908              	@ ../Libraries/STM32F4xx_StdPeriph_Driver/src/stm32f4xx_sdio.c:540:   SDIO_DataInitStruct->SDIO_Dat
ARM GAS  C:\Users\admin\AppData\Local\Temp\ccIRU4x5.s 			page 27


 540:../Libraries/STM32F4xx_StdPeriph_Driver/src/stm32f4xx_sdio.c ****   SDIO_DataInitStruct->SDIO_DataLength = 0x00;
 909              		.loc 1 540 41 view .LVU179
 910 0002 4FF0FF32 		mov	r2, #-1	@ tmp114,
 911              	@ ../Libraries/STM32F4xx_StdPeriph_Driver/src/stm32f4xx_sdio.c:541:   SDIO_DataInitStruct->SDIO_Dat
 912              		.loc 1 541 40 view .LVU180
 913 0006 C0E90023 		strd	r2, r3, [r0]	@ tmp114, tmp115, SDIO_DataInitStruct
 542:../Libraries/STM32F4xx_StdPeriph_Driver/src/stm32f4xx_sdio.c ****   SDIO_DataInitStruct->SDIO_DataBlockSize = SDIO_DataBlockSize_1b;
 914              		.loc 1 542 3 is_stmt 1 view .LVU181
 915              	@ ../Libraries/STM32F4xx_StdPeriph_Driver/src/stm32f4xx_sdio.c:543:   SDIO_DataInitStruct->SDIO_Tra
 543:../Libraries/STM32F4xx_StdPeriph_Driver/src/stm32f4xx_sdio.c ****   SDIO_DataInitStruct->SDIO_TransferDir = SDIO_TransferDir_ToCard;
 916              		.loc 1 543 41 is_stmt 0 view .LVU182
 917 000a C0E90233 		strd	r3, r3, [r0, #8]	@ tmp115, tmp115, SDIO_DataInitStruct,
 544:../Libraries/STM32F4xx_StdPeriph_Driver/src/stm32f4xx_sdio.c ****   SDIO_DataInitStruct->SDIO_TransferMode = SDIO_TransferMode_Block;  
 918              		.loc 1 544 3 is_stmt 1 view .LVU183
 919              	@ ../Libraries/STM32F4xx_StdPeriph_Driver/src/stm32f4xx_sdio.c:545:   SDIO_DataInitStruct->SDIO_DPS
 545:../Libraries/STM32F4xx_StdPeriph_Driver/src/stm32f4xx_sdio.c ****   SDIO_DataInitStruct->SDIO_DPSM = SDIO_DPSM_Disable;
 920              		.loc 1 545 34 is_stmt 0 view .LVU184
 921 000e C0E90433 		strd	r3, r3, [r0, #16]	@ tmp115, tmp115, SDIO_DataInitStruct,
 922              	@ ../Libraries/STM32F4xx_StdPeriph_Driver/src/stm32f4xx_sdio.c:546: }
 546:../Libraries/STM32F4xx_StdPeriph_Driver/src/stm32f4xx_sdio.c **** }
 923              		.loc 1 546 1 view .LVU185
 924 0012 7047     		bx	lr	@
 925              		.cfi_endproc
 926              	.LFE121:
 927              		.size	SDIO_DataStructInit, .-SDIO_DataStructInit
 928              		.section	.text.SDIO_GetDataCounter,"ax",%progbits
 929              		.align	1
 930              		.p2align 2,,3
 931              		.global	SDIO_GetDataCounter
 932              		.syntax unified
 933              		.thumb
 934              		.thumb_func
 935              		.type	SDIO_GetDataCounter, %function
 936              	SDIO_GetDataCounter:
 937              	.LFB122:
 547:../Libraries/STM32F4xx_StdPeriph_Driver/src/stm32f4xx_sdio.c **** 
 548:../Libraries/STM32F4xx_StdPeriph_Driver/src/stm32f4xx_sdio.c **** /**
 549:../Libraries/STM32F4xx_StdPeriph_Driver/src/stm32f4xx_sdio.c ****   * @brief  Returns number of remaining data bytes to be transferred.
 550:../Libraries/STM32F4xx_StdPeriph_Driver/src/stm32f4xx_sdio.c ****   * @param  None
 551:../Libraries/STM32F4xx_StdPeriph_Driver/src/stm32f4xx_sdio.c ****   * @retval Number of remaining data bytes to be transferred
 552:../Libraries/STM32F4xx_StdPeriph_Driver/src/stm32f4xx_sdio.c ****   */
 553:../Libraries/STM32F4xx_StdPeriph_Driver/src/stm32f4xx_sdio.c **** uint32_t SDIO_GetDataCounter(void)
 554:../Libraries/STM32F4xx_StdPeriph_Driver/src/stm32f4xx_sdio.c **** { 
 938              		.loc 1 554 1 is_stmt 1 view -0
 939              		.cfi_startproc
 940              		@ args = 0, pretend = 0, frame = 0
 941              		@ frame_needed = 0, uses_anonymous_args = 0
 942              		@ link register save eliminated.
 555:../Libraries/STM32F4xx_StdPeriph_Driver/src/stm32f4xx_sdio.c ****   return SDIO->DCOUNT;
 943              		.loc 1 555 3 view .LVU187
 944              	@ ../Libraries/STM32F4xx_StdPeriph_Driver/src/stm32f4xx_sdio.c:555:   return SDIO->DCOUNT;
 945              		.loc 1 555 14 is_stmt 0 view .LVU188
 946 0000 014B     		ldr	r3, .L51	@ tmp114,
 947 0002 186B     		ldr	r0, [r3, #48]	@ <retval>, MEM[(struct SDIO_TypeDef *)1073818624B].DCOUNT
 948              	@ ../Libraries/STM32F4xx_StdPeriph_Driver/src/stm32f4xx_sdio.c:556: }
 556:../Libraries/STM32F4xx_StdPeriph_Driver/src/stm32f4xx_sdio.c **** }
 949              		.loc 1 556 1 view .LVU189
ARM GAS  C:\Users\admin\AppData\Local\Temp\ccIRU4x5.s 			page 28


 950 0004 7047     		bx	lr	@
 951              	.L52:
 952 0006 00BF     		.align	2
 953              	.L51:
 954 0008 002C0140 		.word	1073818624
 955              		.cfi_endproc
 956              	.LFE122:
 957              		.size	SDIO_GetDataCounter, .-SDIO_GetDataCounter
 958              		.section	.text.SDIO_ReadData,"ax",%progbits
 959              		.align	1
 960              		.p2align 2,,3
 961              		.global	SDIO_ReadData
 962              		.syntax unified
 963              		.thumb
 964              		.thumb_func
 965              		.type	SDIO_ReadData, %function
 966              	SDIO_ReadData:
 967              	.LFB123:
 557:../Libraries/STM32F4xx_StdPeriph_Driver/src/stm32f4xx_sdio.c **** 
 558:../Libraries/STM32F4xx_StdPeriph_Driver/src/stm32f4xx_sdio.c **** /**
 559:../Libraries/STM32F4xx_StdPeriph_Driver/src/stm32f4xx_sdio.c ****   * @brief  Read one data word from Rx FIFO.
 560:../Libraries/STM32F4xx_StdPeriph_Driver/src/stm32f4xx_sdio.c ****   * @param  None
 561:../Libraries/STM32F4xx_StdPeriph_Driver/src/stm32f4xx_sdio.c ****   * @retval Data received
 562:../Libraries/STM32F4xx_StdPeriph_Driver/src/stm32f4xx_sdio.c ****   */
 563:../Libraries/STM32F4xx_StdPeriph_Driver/src/stm32f4xx_sdio.c **** uint32_t SDIO_ReadData(void)
 564:../Libraries/STM32F4xx_StdPeriph_Driver/src/stm32f4xx_sdio.c **** { 
 968              		.loc 1 564 1 is_stmt 1 view -0
 969              		.cfi_startproc
 970              		@ args = 0, pretend = 0, frame = 0
 971              		@ frame_needed = 0, uses_anonymous_args = 0
 972              		@ link register save eliminated.
 565:../Libraries/STM32F4xx_StdPeriph_Driver/src/stm32f4xx_sdio.c ****   return SDIO->FIFO;
 973              		.loc 1 565 3 view .LVU191
 974              	@ ../Libraries/STM32F4xx_StdPeriph_Driver/src/stm32f4xx_sdio.c:565:   return SDIO->FIFO;
 975              		.loc 1 565 14 is_stmt 0 view .LVU192
 976 0000 014B     		ldr	r3, .L54	@ tmp114,
 977 0002 D3F88000 		ldr	r0, [r3, #128]	@ <retval>, MEM[(struct SDIO_TypeDef *)1073818624B].FIFO
 978              	@ ../Libraries/STM32F4xx_StdPeriph_Driver/src/stm32f4xx_sdio.c:566: }
 566:../Libraries/STM32F4xx_StdPeriph_Driver/src/stm32f4xx_sdio.c **** }
 979              		.loc 1 566 1 view .LVU193
 980 0006 7047     		bx	lr	@
 981              	.L55:
 982              		.align	2
 983              	.L54:
 984 0008 002C0140 		.word	1073818624
 985              		.cfi_endproc
 986              	.LFE123:
 987              		.size	SDIO_ReadData, .-SDIO_ReadData
 988              		.section	.text.SDIO_WriteData,"ax",%progbits
 989              		.align	1
 990              		.p2align 2,,3
 991              		.global	SDIO_WriteData
 992              		.syntax unified
 993              		.thumb
 994              		.thumb_func
 995              		.type	SDIO_WriteData, %function
 996              	SDIO_WriteData:
ARM GAS  C:\Users\admin\AppData\Local\Temp\ccIRU4x5.s 			page 29


 997              	.LVL51:
 998              	.LFB124:
 567:../Libraries/STM32F4xx_StdPeriph_Driver/src/stm32f4xx_sdio.c **** 
 568:../Libraries/STM32F4xx_StdPeriph_Driver/src/stm32f4xx_sdio.c **** /**
 569:../Libraries/STM32F4xx_StdPeriph_Driver/src/stm32f4xx_sdio.c ****   * @brief  Write one data word to Tx FIFO.
 570:../Libraries/STM32F4xx_StdPeriph_Driver/src/stm32f4xx_sdio.c ****   * @param  Data: 32-bit data word to write.
 571:../Libraries/STM32F4xx_StdPeriph_Driver/src/stm32f4xx_sdio.c ****   * @retval None
 572:../Libraries/STM32F4xx_StdPeriph_Driver/src/stm32f4xx_sdio.c ****   */
 573:../Libraries/STM32F4xx_StdPeriph_Driver/src/stm32f4xx_sdio.c **** void SDIO_WriteData(uint32_t Data)
 574:../Libraries/STM32F4xx_StdPeriph_Driver/src/stm32f4xx_sdio.c **** { 
 999              		.loc 1 574 1 is_stmt 1 view -0
 1000              		.cfi_startproc
 1001              		@ args = 0, pretend = 0, frame = 0
 1002              		@ frame_needed = 0, uses_anonymous_args = 0
 1003              		@ link register save eliminated.
 575:../Libraries/STM32F4xx_StdPeriph_Driver/src/stm32f4xx_sdio.c ****   SDIO->FIFO = Data;
 1004              		.loc 1 575 3 view .LVU195
 1005              	@ ../Libraries/STM32F4xx_StdPeriph_Driver/src/stm32f4xx_sdio.c:575:   SDIO->FIFO = Data;
 1006              		.loc 1 575 14 is_stmt 0 view .LVU196
 1007 0000 014B     		ldr	r3, .L57	@ tmp114,
 1008 0002 C3F88000 		str	r0, [r3, #128]	@ Data, MEM[(struct SDIO_TypeDef *)1073818624B].FIFO
 1009              	@ ../Libraries/STM32F4xx_StdPeriph_Driver/src/stm32f4xx_sdio.c:576: }
 576:../Libraries/STM32F4xx_StdPeriph_Driver/src/stm32f4xx_sdio.c **** }
 1010              		.loc 1 576 1 view .LVU197
 1011 0006 7047     		bx	lr	@
 1012              	.L58:
 1013              		.align	2
 1014              	.L57:
 1015 0008 002C0140 		.word	1073818624
 1016              		.cfi_endproc
 1017              	.LFE124:
 1018              		.size	SDIO_WriteData, .-SDIO_WriteData
 1019              		.section	.text.SDIO_GetFIFOCount,"ax",%progbits
 1020              		.align	1
 1021              		.p2align 2,,3
 1022              		.global	SDIO_GetFIFOCount
 1023              		.syntax unified
 1024              		.thumb
 1025              		.thumb_func
 1026              		.type	SDIO_GetFIFOCount, %function
 1027              	SDIO_GetFIFOCount:
 1028              	.LFB125:
 577:../Libraries/STM32F4xx_StdPeriph_Driver/src/stm32f4xx_sdio.c **** 
 578:../Libraries/STM32F4xx_StdPeriph_Driver/src/stm32f4xx_sdio.c **** /**
 579:../Libraries/STM32F4xx_StdPeriph_Driver/src/stm32f4xx_sdio.c ****   * @brief  Returns the number of words left to be written to or read from FIFO.	
 580:../Libraries/STM32F4xx_StdPeriph_Driver/src/stm32f4xx_sdio.c ****   * @param  None
 581:../Libraries/STM32F4xx_StdPeriph_Driver/src/stm32f4xx_sdio.c ****   * @retval Remaining number of words.
 582:../Libraries/STM32F4xx_StdPeriph_Driver/src/stm32f4xx_sdio.c ****   */
 583:../Libraries/STM32F4xx_StdPeriph_Driver/src/stm32f4xx_sdio.c **** uint32_t SDIO_GetFIFOCount(void)
 584:../Libraries/STM32F4xx_StdPeriph_Driver/src/stm32f4xx_sdio.c **** { 
 1029              		.loc 1 584 1 is_stmt 1 view -0
 1030              		.cfi_startproc
 1031              		@ args = 0, pretend = 0, frame = 0
 1032              		@ frame_needed = 0, uses_anonymous_args = 0
 1033              		@ link register save eliminated.
 585:../Libraries/STM32F4xx_StdPeriph_Driver/src/stm32f4xx_sdio.c ****   return SDIO->FIFOCNT;
 1034              		.loc 1 585 3 view .LVU199
ARM GAS  C:\Users\admin\AppData\Local\Temp\ccIRU4x5.s 			page 30


 1035              	@ ../Libraries/STM32F4xx_StdPeriph_Driver/src/stm32f4xx_sdio.c:585:   return SDIO->FIFOCNT;
 1036              		.loc 1 585 14 is_stmt 0 view .LVU200
 1037 0000 014B     		ldr	r3, .L60	@ tmp114,
 1038 0002 986C     		ldr	r0, [r3, #72]	@ <retval>, MEM[(struct SDIO_TypeDef *)1073818624B].FIFOCNT
 1039              	@ ../Libraries/STM32F4xx_StdPeriph_Driver/src/stm32f4xx_sdio.c:586: }
 586:../Libraries/STM32F4xx_StdPeriph_Driver/src/stm32f4xx_sdio.c **** }
 1040              		.loc 1 586 1 view .LVU201
 1041 0004 7047     		bx	lr	@
 1042              	.L61:
 1043 0006 00BF     		.align	2
 1044              	.L60:
 1045 0008 002C0140 		.word	1073818624
 1046              		.cfi_endproc
 1047              	.LFE125:
 1048              		.size	SDIO_GetFIFOCount, .-SDIO_GetFIFOCount
 1049              		.section	.text.SDIO_StartSDIOReadWait,"ax",%progbits
 1050              		.align	1
 1051              		.p2align 2,,3
 1052              		.global	SDIO_StartSDIOReadWait
 1053              		.syntax unified
 1054              		.thumb
 1055              		.thumb_func
 1056              		.type	SDIO_StartSDIOReadWait, %function
 1057              	SDIO_StartSDIOReadWait:
 1058              	.LVL52:
 1059              	.LFB126:
 587:../Libraries/STM32F4xx_StdPeriph_Driver/src/stm32f4xx_sdio.c **** 
 588:../Libraries/STM32F4xx_StdPeriph_Driver/src/stm32f4xx_sdio.c **** /**
 589:../Libraries/STM32F4xx_StdPeriph_Driver/src/stm32f4xx_sdio.c ****   * @}
 590:../Libraries/STM32F4xx_StdPeriph_Driver/src/stm32f4xx_sdio.c ****   */
 591:../Libraries/STM32F4xx_StdPeriph_Driver/src/stm32f4xx_sdio.c **** 
 592:../Libraries/STM32F4xx_StdPeriph_Driver/src/stm32f4xx_sdio.c **** /** @defgroup SDIO_Group4 SDIO IO Cards mode management functions
 593:../Libraries/STM32F4xx_StdPeriph_Driver/src/stm32f4xx_sdio.c ****  *  @brief   SDIO IO Cards mode management functions
 594:../Libraries/STM32F4xx_StdPeriph_Driver/src/stm32f4xx_sdio.c ****  *
 595:../Libraries/STM32F4xx_StdPeriph_Driver/src/stm32f4xx_sdio.c **** @verbatim   
 596:../Libraries/STM32F4xx_StdPeriph_Driver/src/stm32f4xx_sdio.c ****  ===============================================================================
 597:../Libraries/STM32F4xx_StdPeriph_Driver/src/stm32f4xx_sdio.c ****               SDIO IO Cards mode management functions
 598:../Libraries/STM32F4xx_StdPeriph_Driver/src/stm32f4xx_sdio.c ****  ===============================================================================  
 599:../Libraries/STM32F4xx_StdPeriph_Driver/src/stm32f4xx_sdio.c **** 
 600:../Libraries/STM32F4xx_StdPeriph_Driver/src/stm32f4xx_sdio.c ****   This section provide functions allowing to program and read the SDIO IO Cards.
 601:../Libraries/STM32F4xx_StdPeriph_Driver/src/stm32f4xx_sdio.c **** 
 602:../Libraries/STM32F4xx_StdPeriph_Driver/src/stm32f4xx_sdio.c **** @endverbatim
 603:../Libraries/STM32F4xx_StdPeriph_Driver/src/stm32f4xx_sdio.c ****   * @{
 604:../Libraries/STM32F4xx_StdPeriph_Driver/src/stm32f4xx_sdio.c ****   */
 605:../Libraries/STM32F4xx_StdPeriph_Driver/src/stm32f4xx_sdio.c **** 
 606:../Libraries/STM32F4xx_StdPeriph_Driver/src/stm32f4xx_sdio.c **** /**
 607:../Libraries/STM32F4xx_StdPeriph_Driver/src/stm32f4xx_sdio.c ****   * @brief  Starts the SD I/O Read Wait operation.	
 608:../Libraries/STM32F4xx_StdPeriph_Driver/src/stm32f4xx_sdio.c ****   * @param  NewState: new state of the Start SDIO Read Wait operation. 
 609:../Libraries/STM32F4xx_StdPeriph_Driver/src/stm32f4xx_sdio.c ****   *         This parameter can be: ENABLE or DISABLE.
 610:../Libraries/STM32F4xx_StdPeriph_Driver/src/stm32f4xx_sdio.c ****   * @retval None
 611:../Libraries/STM32F4xx_StdPeriph_Driver/src/stm32f4xx_sdio.c ****   */
 612:../Libraries/STM32F4xx_StdPeriph_Driver/src/stm32f4xx_sdio.c **** void SDIO_StartSDIOReadWait(FunctionalState NewState)
 613:../Libraries/STM32F4xx_StdPeriph_Driver/src/stm32f4xx_sdio.c **** { 
 1060              		.loc 1 613 1 is_stmt 1 view -0
 1061              		.cfi_startproc
 1062              		@ args = 0, pretend = 0, frame = 0
 1063              		@ frame_needed = 0, uses_anonymous_args = 0
ARM GAS  C:\Users\admin\AppData\Local\Temp\ccIRU4x5.s 			page 31


 614:../Libraries/STM32F4xx_StdPeriph_Driver/src/stm32f4xx_sdio.c ****   /* Check the parameters */
 615:../Libraries/STM32F4xx_StdPeriph_Driver/src/stm32f4xx_sdio.c ****   assert_param(IS_FUNCTIONAL_STATE(NewState));
 1064              		.loc 1 615 3 view .LVU203
 1065              	@ ../Libraries/STM32F4xx_StdPeriph_Driver/src/stm32f4xx_sdio.c:613: { 
 613:../Libraries/STM32F4xx_StdPeriph_Driver/src/stm32f4xx_sdio.c ****   /* Check the parameters */
 1066              		.loc 1 613 1 is_stmt 0 view .LVU204
 1067 0000 10B5     		push	{r4, lr}	@
 1068              		.cfi_def_cfa_offset 8
 1069              		.cfi_offset 4, -8
 1070              		.cfi_offset 14, -4
 1071              	@ ../Libraries/STM32F4xx_StdPeriph_Driver/src/stm32f4xx_sdio.c:615:   assert_param(IS_FUNCTIONAL_ST
 1072              		.loc 1 615 3 view .LVU205
 1073 0002 0128     		cmp	r0, #1	@ NewState,
 1074              	@ ../Libraries/STM32F4xx_StdPeriph_Driver/src/stm32f4xx_sdio.c:613: { 
 613:../Libraries/STM32F4xx_StdPeriph_Driver/src/stm32f4xx_sdio.c ****   /* Check the parameters */
 1075              		.loc 1 613 1 view .LVU206
 1076 0004 0446     		mov	r4, r0	@ NewState, tmp122
 1077              	@ ../Libraries/STM32F4xx_StdPeriph_Driver/src/stm32f4xx_sdio.c:615:   assert_param(IS_FUNCTIONAL_ST
 1078              		.loc 1 615 3 view .LVU207
 1079 0006 8CBF     		ite	hi
 1080 0008 0020     		movhi	r0, #0	@,
 1081              	.LVL53:
 1082              		.loc 1 615 3 view .LVU208
 1083 000a 0120     		movls	r0, #1	@,
 1084 000c FFF7FEFF 		bl	assert_param		@
 1085              	.LVL54:
 616:../Libraries/STM32F4xx_StdPeriph_Driver/src/stm32f4xx_sdio.c ****   
 617:../Libraries/STM32F4xx_StdPeriph_Driver/src/stm32f4xx_sdio.c ****   *(__IO uint32_t *) DCTRL_RWSTART_BB = (uint32_t) NewState;
 1086              		.loc 1 617 3 is_stmt 1 view .LVU209
 1087              	@ ../Libraries/STM32F4xx_StdPeriph_Driver/src/stm32f4xx_sdio.c:617:   *(__IO uint32_t *) DCTRL_RWST
 1088              		.loc 1 617 39 is_stmt 0 view .LVU210
 1089 0010 014B     		ldr	r3, .L64	@ tmp121,
 1090 0012 C3F8A045 		str	r4, [r3, #1440]	@ NewState, MEM[(volatile uint32_t *)1109755296B]
 1091              	@ ../Libraries/STM32F4xx_StdPeriph_Driver/src/stm32f4xx_sdio.c:618: }
 618:../Libraries/STM32F4xx_StdPeriph_Driver/src/stm32f4xx_sdio.c **** }
 1092              		.loc 1 618 1 view .LVU211
 1093 0016 10BD     		pop	{r4, pc}	@
 1094              	.L65:
 1095              		.align	2
 1096              	.L64:
 1097 0018 00802542 		.word	1109753856
 1098              		.cfi_endproc
 1099              	.LFE126:
 1100              		.size	SDIO_StartSDIOReadWait, .-SDIO_StartSDIOReadWait
 1101              		.section	.text.SDIO_StopSDIOReadWait,"ax",%progbits
 1102              		.align	1
 1103              		.p2align 2,,3
 1104              		.global	SDIO_StopSDIOReadWait
 1105              		.syntax unified
 1106              		.thumb
 1107              		.thumb_func
 1108              		.type	SDIO_StopSDIOReadWait, %function
 1109              	SDIO_StopSDIOReadWait:
 1110              	.LVL55:
 1111              	.LFB127:
 619:../Libraries/STM32F4xx_StdPeriph_Driver/src/stm32f4xx_sdio.c **** 
 620:../Libraries/STM32F4xx_StdPeriph_Driver/src/stm32f4xx_sdio.c **** /**
ARM GAS  C:\Users\admin\AppData\Local\Temp\ccIRU4x5.s 			page 32


 621:../Libraries/STM32F4xx_StdPeriph_Driver/src/stm32f4xx_sdio.c ****   * @brief  Stops the SD I/O Read Wait operation.	
 622:../Libraries/STM32F4xx_StdPeriph_Driver/src/stm32f4xx_sdio.c ****   * @param  NewState: new state of the Stop SDIO Read Wait operation. 
 623:../Libraries/STM32F4xx_StdPeriph_Driver/src/stm32f4xx_sdio.c ****   *         This parameter can be: ENABLE or DISABLE.
 624:../Libraries/STM32F4xx_StdPeriph_Driver/src/stm32f4xx_sdio.c ****   * @retval None
 625:../Libraries/STM32F4xx_StdPeriph_Driver/src/stm32f4xx_sdio.c ****   */
 626:../Libraries/STM32F4xx_StdPeriph_Driver/src/stm32f4xx_sdio.c **** void SDIO_StopSDIOReadWait(FunctionalState NewState)
 627:../Libraries/STM32F4xx_StdPeriph_Driver/src/stm32f4xx_sdio.c **** { 
 1112              		.loc 1 627 1 is_stmt 1 view -0
 1113              		.cfi_startproc
 1114              		@ args = 0, pretend = 0, frame = 0
 1115              		@ frame_needed = 0, uses_anonymous_args = 0
 628:../Libraries/STM32F4xx_StdPeriph_Driver/src/stm32f4xx_sdio.c ****   /* Check the parameters */
 629:../Libraries/STM32F4xx_StdPeriph_Driver/src/stm32f4xx_sdio.c ****   assert_param(IS_FUNCTIONAL_STATE(NewState));
 1116              		.loc 1 629 3 view .LVU213
 1117              	@ ../Libraries/STM32F4xx_StdPeriph_Driver/src/stm32f4xx_sdio.c:627: { 
 627:../Libraries/STM32F4xx_StdPeriph_Driver/src/stm32f4xx_sdio.c ****   /* Check the parameters */
 1118              		.loc 1 627 1 is_stmt 0 view .LVU214
 1119 0000 10B5     		push	{r4, lr}	@
 1120              		.cfi_def_cfa_offset 8
 1121              		.cfi_offset 4, -8
 1122              		.cfi_offset 14, -4
 1123              	@ ../Libraries/STM32F4xx_StdPeriph_Driver/src/stm32f4xx_sdio.c:629:   assert_param(IS_FUNCTIONAL_ST
 1124              		.loc 1 629 3 view .LVU215
 1125 0002 0128     		cmp	r0, #1	@ NewState,
 1126              	@ ../Libraries/STM32F4xx_StdPeriph_Driver/src/stm32f4xx_sdio.c:627: { 
 627:../Libraries/STM32F4xx_StdPeriph_Driver/src/stm32f4xx_sdio.c ****   /* Check the parameters */
 1127              		.loc 1 627 1 view .LVU216
 1128 0004 0446     		mov	r4, r0	@ NewState, tmp122
 1129              	@ ../Libraries/STM32F4xx_StdPeriph_Driver/src/stm32f4xx_sdio.c:629:   assert_param(IS_FUNCTIONAL_ST
 1130              		.loc 1 629 3 view .LVU217
 1131 0006 8CBF     		ite	hi
 1132 0008 0020     		movhi	r0, #0	@,
 1133              	.LVL56:
 1134              		.loc 1 629 3 view .LVU218
 1135 000a 0120     		movls	r0, #1	@,
 1136 000c FFF7FEFF 		bl	assert_param		@
 1137              	.LVL57:
 630:../Libraries/STM32F4xx_StdPeriph_Driver/src/stm32f4xx_sdio.c ****   
 631:../Libraries/STM32F4xx_StdPeriph_Driver/src/stm32f4xx_sdio.c ****   *(__IO uint32_t *) DCTRL_RWSTOP_BB = (uint32_t) NewState;
 1138              		.loc 1 631 3 is_stmt 1 view .LVU219
 1139              	@ ../Libraries/STM32F4xx_StdPeriph_Driver/src/stm32f4xx_sdio.c:631:   *(__IO uint32_t *) DCTRL_RWST
 1140              		.loc 1 631 38 is_stmt 0 view .LVU220
 1141 0010 014B     		ldr	r3, .L68	@ tmp121,
 1142 0012 C3F8A445 		str	r4, [r3, #1444]	@ NewState, MEM[(volatile uint32_t *)1109755300B]
 1143              	@ ../Libraries/STM32F4xx_StdPeriph_Driver/src/stm32f4xx_sdio.c:632: }
 632:../Libraries/STM32F4xx_StdPeriph_Driver/src/stm32f4xx_sdio.c **** }
 1144              		.loc 1 632 1 view .LVU221
 1145 0016 10BD     		pop	{r4, pc}	@
 1146              	.L69:
 1147              		.align	2
 1148              	.L68:
 1149 0018 00802542 		.word	1109753856
 1150              		.cfi_endproc
 1151              	.LFE127:
 1152              		.size	SDIO_StopSDIOReadWait, .-SDIO_StopSDIOReadWait
 1153              		.section	.text.SDIO_SetSDIOReadWaitMode,"ax",%progbits
 1154              		.align	1
ARM GAS  C:\Users\admin\AppData\Local\Temp\ccIRU4x5.s 			page 33


 1155              		.p2align 2,,3
 1156              		.global	SDIO_SetSDIOReadWaitMode
 1157              		.syntax unified
 1158              		.thumb
 1159              		.thumb_func
 1160              		.type	SDIO_SetSDIOReadWaitMode, %function
 1161              	SDIO_SetSDIOReadWaitMode:
 1162              	.LVL58:
 1163              	.LFB128:
 633:../Libraries/STM32F4xx_StdPeriph_Driver/src/stm32f4xx_sdio.c **** 
 634:../Libraries/STM32F4xx_StdPeriph_Driver/src/stm32f4xx_sdio.c **** /**
 635:../Libraries/STM32F4xx_StdPeriph_Driver/src/stm32f4xx_sdio.c ****   * @brief  Sets one of the two options of inserting read wait interval.
 636:../Libraries/STM32F4xx_StdPeriph_Driver/src/stm32f4xx_sdio.c ****   * @param  SDIO_ReadWaitMode: SD I/O Read Wait operation mode.
 637:../Libraries/STM32F4xx_StdPeriph_Driver/src/stm32f4xx_sdio.c ****   *          This parameter can be:
 638:../Libraries/STM32F4xx_StdPeriph_Driver/src/stm32f4xx_sdio.c ****   *            @arg SDIO_ReadWaitMode_CLK: Read Wait control by stopping SDIOCLK
 639:../Libraries/STM32F4xx_StdPeriph_Driver/src/stm32f4xx_sdio.c ****   *            @arg SDIO_ReadWaitMode_DATA2: Read Wait control using SDIO_DATA2
 640:../Libraries/STM32F4xx_StdPeriph_Driver/src/stm32f4xx_sdio.c ****   * @retval None
 641:../Libraries/STM32F4xx_StdPeriph_Driver/src/stm32f4xx_sdio.c ****   */
 642:../Libraries/STM32F4xx_StdPeriph_Driver/src/stm32f4xx_sdio.c **** void SDIO_SetSDIOReadWaitMode(uint32_t SDIO_ReadWaitMode)
 643:../Libraries/STM32F4xx_StdPeriph_Driver/src/stm32f4xx_sdio.c **** {
 1164              		.loc 1 643 1 is_stmt 1 view -0
 1165              		.cfi_startproc
 1166              		@ args = 0, pretend = 0, frame = 0
 1167              		@ frame_needed = 0, uses_anonymous_args = 0
 644:../Libraries/STM32F4xx_StdPeriph_Driver/src/stm32f4xx_sdio.c ****   /* Check the parameters */
 645:../Libraries/STM32F4xx_StdPeriph_Driver/src/stm32f4xx_sdio.c ****   assert_param(IS_SDIO_READWAIT_MODE(SDIO_ReadWaitMode));
 1168              		.loc 1 645 3 view .LVU223
 1169              	@ ../Libraries/STM32F4xx_StdPeriph_Driver/src/stm32f4xx_sdio.c:643: {
 643:../Libraries/STM32F4xx_StdPeriph_Driver/src/stm32f4xx_sdio.c ****   /* Check the parameters */
 1170              		.loc 1 643 1 is_stmt 0 view .LVU224
 1171 0000 10B5     		push	{r4, lr}	@
 1172              		.cfi_def_cfa_offset 8
 1173              		.cfi_offset 4, -8
 1174              		.cfi_offset 14, -4
 1175              	@ ../Libraries/STM32F4xx_StdPeriph_Driver/src/stm32f4xx_sdio.c:645:   assert_param(IS_SDIO_READWAIT
 1176              		.loc 1 645 3 view .LVU225
 1177 0002 0128     		cmp	r0, #1	@ SDIO_ReadWaitMode,
 1178              	@ ../Libraries/STM32F4xx_StdPeriph_Driver/src/stm32f4xx_sdio.c:643: {
 643:../Libraries/STM32F4xx_StdPeriph_Driver/src/stm32f4xx_sdio.c ****   /* Check the parameters */
 1179              		.loc 1 643 1 view .LVU226
 1180 0004 0446     		mov	r4, r0	@ SDIO_ReadWaitMode, tmp119
 1181              	@ ../Libraries/STM32F4xx_StdPeriph_Driver/src/stm32f4xx_sdio.c:645:   assert_param(IS_SDIO_READWAIT
 1182              		.loc 1 645 3 view .LVU227
 1183 0006 8CBF     		ite	hi
 1184 0008 0020     		movhi	r0, #0	@,
 1185              	.LVL59:
 1186              		.loc 1 645 3 view .LVU228
 1187 000a 0120     		movls	r0, #1	@,
 1188 000c FFF7FEFF 		bl	assert_param		@
 1189              	.LVL60:
 646:../Libraries/STM32F4xx_StdPeriph_Driver/src/stm32f4xx_sdio.c ****   
 647:../Libraries/STM32F4xx_StdPeriph_Driver/src/stm32f4xx_sdio.c ****   *(__IO uint32_t *) DCTRL_RWMOD_BB = SDIO_ReadWaitMode;
 1190              		.loc 1 647 3 is_stmt 1 view .LVU229
 1191              	@ ../Libraries/STM32F4xx_StdPeriph_Driver/src/stm32f4xx_sdio.c:647:   *(__IO uint32_t *) DCTRL_RWMO
 1192              		.loc 1 647 37 is_stmt 0 view .LVU230
 1193 0010 014B     		ldr	r3, .L72	@ tmp118,
 1194 0012 C3F8A845 		str	r4, [r3, #1448]	@ SDIO_ReadWaitMode, MEM[(volatile uint32_t *)1109755304B]
ARM GAS  C:\Users\admin\AppData\Local\Temp\ccIRU4x5.s 			page 34


 1195              	@ ../Libraries/STM32F4xx_StdPeriph_Driver/src/stm32f4xx_sdio.c:648: }
 648:../Libraries/STM32F4xx_StdPeriph_Driver/src/stm32f4xx_sdio.c **** }
 1196              		.loc 1 648 1 view .LVU231
 1197 0016 10BD     		pop	{r4, pc}	@
 1198              	.LVL61:
 1199              	.L73:
 1200              		.loc 1 648 1 view .LVU232
 1201              		.align	2
 1202              	.L72:
 1203 0018 00802542 		.word	1109753856
 1204              		.cfi_endproc
 1205              	.LFE128:
 1206              		.size	SDIO_SetSDIOReadWaitMode, .-SDIO_SetSDIOReadWaitMode
 1207              		.section	.text.SDIO_SetSDIOOperation,"ax",%progbits
 1208              		.align	1
 1209              		.p2align 2,,3
 1210              		.global	SDIO_SetSDIOOperation
 1211              		.syntax unified
 1212              		.thumb
 1213              		.thumb_func
 1214              		.type	SDIO_SetSDIOOperation, %function
 1215              	SDIO_SetSDIOOperation:
 1216              	.LVL62:
 1217              	.LFB129:
 649:../Libraries/STM32F4xx_StdPeriph_Driver/src/stm32f4xx_sdio.c **** 
 650:../Libraries/STM32F4xx_StdPeriph_Driver/src/stm32f4xx_sdio.c **** /**
 651:../Libraries/STM32F4xx_StdPeriph_Driver/src/stm32f4xx_sdio.c ****   * @brief  Enables or disables the SD I/O Mode Operation.
 652:../Libraries/STM32F4xx_StdPeriph_Driver/src/stm32f4xx_sdio.c ****   * @param  NewState: new state of SDIO specific operation. 
 653:../Libraries/STM32F4xx_StdPeriph_Driver/src/stm32f4xx_sdio.c ****   *         This parameter can be: ENABLE or DISABLE.
 654:../Libraries/STM32F4xx_StdPeriph_Driver/src/stm32f4xx_sdio.c ****   * @retval None
 655:../Libraries/STM32F4xx_StdPeriph_Driver/src/stm32f4xx_sdio.c ****   */
 656:../Libraries/STM32F4xx_StdPeriph_Driver/src/stm32f4xx_sdio.c **** void SDIO_SetSDIOOperation(FunctionalState NewState)
 657:../Libraries/STM32F4xx_StdPeriph_Driver/src/stm32f4xx_sdio.c **** { 
 1218              		.loc 1 657 1 is_stmt 1 view -0
 1219              		.cfi_startproc
 1220              		@ args = 0, pretend = 0, frame = 0
 1221              		@ frame_needed = 0, uses_anonymous_args = 0
 658:../Libraries/STM32F4xx_StdPeriph_Driver/src/stm32f4xx_sdio.c ****   /* Check the parameters */
 659:../Libraries/STM32F4xx_StdPeriph_Driver/src/stm32f4xx_sdio.c ****   assert_param(IS_FUNCTIONAL_STATE(NewState));
 1222              		.loc 1 659 3 view .LVU234
 1223              	@ ../Libraries/STM32F4xx_StdPeriph_Driver/src/stm32f4xx_sdio.c:657: { 
 657:../Libraries/STM32F4xx_StdPeriph_Driver/src/stm32f4xx_sdio.c ****   /* Check the parameters */
 1224              		.loc 1 657 1 is_stmt 0 view .LVU235
 1225 0000 10B5     		push	{r4, lr}	@
 1226              		.cfi_def_cfa_offset 8
 1227              		.cfi_offset 4, -8
 1228              		.cfi_offset 14, -4
 1229              	@ ../Libraries/STM32F4xx_StdPeriph_Driver/src/stm32f4xx_sdio.c:659:   assert_param(IS_FUNCTIONAL_ST
 1230              		.loc 1 659 3 view .LVU236
 1231 0002 0128     		cmp	r0, #1	@ NewState,
 1232              	@ ../Libraries/STM32F4xx_StdPeriph_Driver/src/stm32f4xx_sdio.c:657: { 
 657:../Libraries/STM32F4xx_StdPeriph_Driver/src/stm32f4xx_sdio.c ****   /* Check the parameters */
 1233              		.loc 1 657 1 view .LVU237
 1234 0004 0446     		mov	r4, r0	@ NewState, tmp122
 1235              	@ ../Libraries/STM32F4xx_StdPeriph_Driver/src/stm32f4xx_sdio.c:659:   assert_param(IS_FUNCTIONAL_ST
 1236              		.loc 1 659 3 view .LVU238
 1237 0006 8CBF     		ite	hi
ARM GAS  C:\Users\admin\AppData\Local\Temp\ccIRU4x5.s 			page 35


 1238 0008 0020     		movhi	r0, #0	@,
 1239              	.LVL63:
 1240              		.loc 1 659 3 view .LVU239
 1241 000a 0120     		movls	r0, #1	@,
 1242 000c FFF7FEFF 		bl	assert_param		@
 1243              	.LVL64:
 660:../Libraries/STM32F4xx_StdPeriph_Driver/src/stm32f4xx_sdio.c ****   
 661:../Libraries/STM32F4xx_StdPeriph_Driver/src/stm32f4xx_sdio.c ****   *(__IO uint32_t *) DCTRL_SDIOEN_BB = (uint32_t)NewState;
 1244              		.loc 1 661 3 is_stmt 1 view .LVU240
 1245              	@ ../Libraries/STM32F4xx_StdPeriph_Driver/src/stm32f4xx_sdio.c:661:   *(__IO uint32_t *) DCTRL_SDIO
 1246              		.loc 1 661 38 is_stmt 0 view .LVU241
 1247 0010 014B     		ldr	r3, .L76	@ tmp121,
 1248 0012 C3F8AC45 		str	r4, [r3, #1452]	@ NewState, MEM[(volatile uint32_t *)1109755308B]
 1249              	@ ../Libraries/STM32F4xx_StdPeriph_Driver/src/stm32f4xx_sdio.c:662: }
 662:../Libraries/STM32F4xx_StdPeriph_Driver/src/stm32f4xx_sdio.c **** }
 1250              		.loc 1 662 1 view .LVU242
 1251 0016 10BD     		pop	{r4, pc}	@
 1252              	.L77:
 1253              		.align	2
 1254              	.L76:
 1255 0018 00802542 		.word	1109753856
 1256              		.cfi_endproc
 1257              	.LFE129:
 1258              		.size	SDIO_SetSDIOOperation, .-SDIO_SetSDIOOperation
 1259              		.section	.text.SDIO_SendSDIOSuspendCmd,"ax",%progbits
 1260              		.align	1
 1261              		.p2align 2,,3
 1262              		.global	SDIO_SendSDIOSuspendCmd
 1263              		.syntax unified
 1264              		.thumb
 1265              		.thumb_func
 1266              		.type	SDIO_SendSDIOSuspendCmd, %function
 1267              	SDIO_SendSDIOSuspendCmd:
 1268              	.LVL65:
 1269              	.LFB130:
 663:../Libraries/STM32F4xx_StdPeriph_Driver/src/stm32f4xx_sdio.c **** 
 664:../Libraries/STM32F4xx_StdPeriph_Driver/src/stm32f4xx_sdio.c **** /**
 665:../Libraries/STM32F4xx_StdPeriph_Driver/src/stm32f4xx_sdio.c ****   * @brief  Enables or disables the SD I/O Mode suspend command sending.
 666:../Libraries/STM32F4xx_StdPeriph_Driver/src/stm32f4xx_sdio.c ****   * @param  NewState: new state of the SD I/O Mode suspend command.
 667:../Libraries/STM32F4xx_StdPeriph_Driver/src/stm32f4xx_sdio.c ****   *         This parameter can be: ENABLE or DISABLE.
 668:../Libraries/STM32F4xx_StdPeriph_Driver/src/stm32f4xx_sdio.c ****   * @retval None
 669:../Libraries/STM32F4xx_StdPeriph_Driver/src/stm32f4xx_sdio.c ****   */
 670:../Libraries/STM32F4xx_StdPeriph_Driver/src/stm32f4xx_sdio.c **** void SDIO_SendSDIOSuspendCmd(FunctionalState NewState)
 671:../Libraries/STM32F4xx_StdPeriph_Driver/src/stm32f4xx_sdio.c **** { 
 1270              		.loc 1 671 1 is_stmt 1 view -0
 1271              		.cfi_startproc
 1272              		@ args = 0, pretend = 0, frame = 0
 1273              		@ frame_needed = 0, uses_anonymous_args = 0
 672:../Libraries/STM32F4xx_StdPeriph_Driver/src/stm32f4xx_sdio.c ****   /* Check the parameters */
 673:../Libraries/STM32F4xx_StdPeriph_Driver/src/stm32f4xx_sdio.c ****   assert_param(IS_FUNCTIONAL_STATE(NewState));
 1274              		.loc 1 673 3 view .LVU244
 1275              	@ ../Libraries/STM32F4xx_StdPeriph_Driver/src/stm32f4xx_sdio.c:671: { 
 671:../Libraries/STM32F4xx_StdPeriph_Driver/src/stm32f4xx_sdio.c ****   /* Check the parameters */
 1276              		.loc 1 671 1 is_stmt 0 view .LVU245
 1277 0000 10B5     		push	{r4, lr}	@
 1278              		.cfi_def_cfa_offset 8
 1279              		.cfi_offset 4, -8
ARM GAS  C:\Users\admin\AppData\Local\Temp\ccIRU4x5.s 			page 36


 1280              		.cfi_offset 14, -4
 1281              	@ ../Libraries/STM32F4xx_StdPeriph_Driver/src/stm32f4xx_sdio.c:673:   assert_param(IS_FUNCTIONAL_ST
 1282              		.loc 1 673 3 view .LVU246
 1283 0002 0128     		cmp	r0, #1	@ NewState,
 1284              	@ ../Libraries/STM32F4xx_StdPeriph_Driver/src/stm32f4xx_sdio.c:671: { 
 671:../Libraries/STM32F4xx_StdPeriph_Driver/src/stm32f4xx_sdio.c ****   /* Check the parameters */
 1285              		.loc 1 671 1 view .LVU247
 1286 0004 0446     		mov	r4, r0	@ NewState, tmp122
 1287              	@ ../Libraries/STM32F4xx_StdPeriph_Driver/src/stm32f4xx_sdio.c:673:   assert_param(IS_FUNCTIONAL_ST
 1288              		.loc 1 673 3 view .LVU248
 1289 0006 8CBF     		ite	hi
 1290 0008 0020     		movhi	r0, #0	@,
 1291              	.LVL66:
 1292              		.loc 1 673 3 view .LVU249
 1293 000a 0120     		movls	r0, #1	@,
 1294 000c FFF7FEFF 		bl	assert_param		@
 1295              	.LVL67:
 674:../Libraries/STM32F4xx_StdPeriph_Driver/src/stm32f4xx_sdio.c ****   
 675:../Libraries/STM32F4xx_StdPeriph_Driver/src/stm32f4xx_sdio.c ****   *(__IO uint32_t *) CMD_SDIOSUSPEND_BB = (uint32_t)NewState;
 1296              		.loc 1 675 3 is_stmt 1 view .LVU250
 1297              	@ ../Libraries/STM32F4xx_StdPeriph_Driver/src/stm32f4xx_sdio.c:675:   *(__IO uint32_t *) CMD_SDIOSU
 1298              		.loc 1 675 41 is_stmt 0 view .LVU251
 1299 0010 014B     		ldr	r3, .L80	@ tmp121,
 1300 0012 C3F8AC41 		str	r4, [r3, #428]	@ NewState, MEM[(volatile uint32_t *)1109754284B]
 1301              	@ ../Libraries/STM32F4xx_StdPeriph_Driver/src/stm32f4xx_sdio.c:676: }
 676:../Libraries/STM32F4xx_StdPeriph_Driver/src/stm32f4xx_sdio.c **** }
 1302              		.loc 1 676 1 view .LVU252
 1303 0016 10BD     		pop	{r4, pc}	@
 1304              	.L81:
 1305              		.align	2
 1306              	.L80:
 1307 0018 00802542 		.word	1109753856
 1308              		.cfi_endproc
 1309              	.LFE130:
 1310              		.size	SDIO_SendSDIOSuspendCmd, .-SDIO_SendSDIOSuspendCmd
 1311              		.section	.text.SDIO_CommandCompletionCmd,"ax",%progbits
 1312              		.align	1
 1313              		.p2align 2,,3
 1314              		.global	SDIO_CommandCompletionCmd
 1315              		.syntax unified
 1316              		.thumb
 1317              		.thumb_func
 1318              		.type	SDIO_CommandCompletionCmd, %function
 1319              	SDIO_CommandCompletionCmd:
 1320              	.LVL68:
 1321              	.LFB131:
 677:../Libraries/STM32F4xx_StdPeriph_Driver/src/stm32f4xx_sdio.c **** 
 678:../Libraries/STM32F4xx_StdPeriph_Driver/src/stm32f4xx_sdio.c **** /**
 679:../Libraries/STM32F4xx_StdPeriph_Driver/src/stm32f4xx_sdio.c ****   * @}
 680:../Libraries/STM32F4xx_StdPeriph_Driver/src/stm32f4xx_sdio.c ****   */
 681:../Libraries/STM32F4xx_StdPeriph_Driver/src/stm32f4xx_sdio.c **** 
 682:../Libraries/STM32F4xx_StdPeriph_Driver/src/stm32f4xx_sdio.c **** /** @defgroup SDIO_Group5 CE-ATA mode management functions
 683:../Libraries/STM32F4xx_StdPeriph_Driver/src/stm32f4xx_sdio.c ****  *  @brief   CE-ATA mode management functions
 684:../Libraries/STM32F4xx_StdPeriph_Driver/src/stm32f4xx_sdio.c ****  *
 685:../Libraries/STM32F4xx_StdPeriph_Driver/src/stm32f4xx_sdio.c **** @verbatim   
 686:../Libraries/STM32F4xx_StdPeriph_Driver/src/stm32f4xx_sdio.c ****  ===============================================================================
 687:../Libraries/STM32F4xx_StdPeriph_Driver/src/stm32f4xx_sdio.c ****               CE-ATA mode management functions
ARM GAS  C:\Users\admin\AppData\Local\Temp\ccIRU4x5.s 			page 37


 688:../Libraries/STM32F4xx_StdPeriph_Driver/src/stm32f4xx_sdio.c ****  ===============================================================================  
 689:../Libraries/STM32F4xx_StdPeriph_Driver/src/stm32f4xx_sdio.c **** 
 690:../Libraries/STM32F4xx_StdPeriph_Driver/src/stm32f4xx_sdio.c ****   This section provide functions allowing to program and read the CE-ATA card.
 691:../Libraries/STM32F4xx_StdPeriph_Driver/src/stm32f4xx_sdio.c **** 
 692:../Libraries/STM32F4xx_StdPeriph_Driver/src/stm32f4xx_sdio.c **** @endverbatim
 693:../Libraries/STM32F4xx_StdPeriph_Driver/src/stm32f4xx_sdio.c ****   * @{
 694:../Libraries/STM32F4xx_StdPeriph_Driver/src/stm32f4xx_sdio.c ****   */
 695:../Libraries/STM32F4xx_StdPeriph_Driver/src/stm32f4xx_sdio.c **** 
 696:../Libraries/STM32F4xx_StdPeriph_Driver/src/stm32f4xx_sdio.c **** /**
 697:../Libraries/STM32F4xx_StdPeriph_Driver/src/stm32f4xx_sdio.c ****   * @brief  Enables or disables the command completion signal.
 698:../Libraries/STM32F4xx_StdPeriph_Driver/src/stm32f4xx_sdio.c ****   * @param  NewState: new state of command completion signal. 
 699:../Libraries/STM32F4xx_StdPeriph_Driver/src/stm32f4xx_sdio.c ****   *         This parameter can be: ENABLE or DISABLE.
 700:../Libraries/STM32F4xx_StdPeriph_Driver/src/stm32f4xx_sdio.c ****   * @retval None
 701:../Libraries/STM32F4xx_StdPeriph_Driver/src/stm32f4xx_sdio.c ****   */
 702:../Libraries/STM32F4xx_StdPeriph_Driver/src/stm32f4xx_sdio.c **** void SDIO_CommandCompletionCmd(FunctionalState NewState)
 703:../Libraries/STM32F4xx_StdPeriph_Driver/src/stm32f4xx_sdio.c **** { 
 1322              		.loc 1 703 1 is_stmt 1 view -0
 1323              		.cfi_startproc
 1324              		@ args = 0, pretend = 0, frame = 0
 1325              		@ frame_needed = 0, uses_anonymous_args = 0
 704:../Libraries/STM32F4xx_StdPeriph_Driver/src/stm32f4xx_sdio.c ****   /* Check the parameters */
 705:../Libraries/STM32F4xx_StdPeriph_Driver/src/stm32f4xx_sdio.c ****   assert_param(IS_FUNCTIONAL_STATE(NewState));
 1326              		.loc 1 705 3 view .LVU254
 1327              	@ ../Libraries/STM32F4xx_StdPeriph_Driver/src/stm32f4xx_sdio.c:703: { 
 703:../Libraries/STM32F4xx_StdPeriph_Driver/src/stm32f4xx_sdio.c ****   /* Check the parameters */
 1328              		.loc 1 703 1 is_stmt 0 view .LVU255
 1329 0000 10B5     		push	{r4, lr}	@
 1330              		.cfi_def_cfa_offset 8
 1331              		.cfi_offset 4, -8
 1332              		.cfi_offset 14, -4
 1333              	@ ../Libraries/STM32F4xx_StdPeriph_Driver/src/stm32f4xx_sdio.c:705:   assert_param(IS_FUNCTIONAL_ST
 1334              		.loc 1 705 3 view .LVU256
 1335 0002 0128     		cmp	r0, #1	@ NewState,
 1336              	@ ../Libraries/STM32F4xx_StdPeriph_Driver/src/stm32f4xx_sdio.c:703: { 
 703:../Libraries/STM32F4xx_StdPeriph_Driver/src/stm32f4xx_sdio.c ****   /* Check the parameters */
 1337              		.loc 1 703 1 view .LVU257
 1338 0004 0446     		mov	r4, r0	@ NewState, tmp122
 1339              	@ ../Libraries/STM32F4xx_StdPeriph_Driver/src/stm32f4xx_sdio.c:705:   assert_param(IS_FUNCTIONAL_ST
 1340              		.loc 1 705 3 view .LVU258
 1341 0006 8CBF     		ite	hi
 1342 0008 0020     		movhi	r0, #0	@,
 1343              	.LVL69:
 1344              		.loc 1 705 3 view .LVU259
 1345 000a 0120     		movls	r0, #1	@,
 1346 000c FFF7FEFF 		bl	assert_param		@
 1347              	.LVL70:
 706:../Libraries/STM32F4xx_StdPeriph_Driver/src/stm32f4xx_sdio.c ****   
 707:../Libraries/STM32F4xx_StdPeriph_Driver/src/stm32f4xx_sdio.c ****   *(__IO uint32_t *) CMD_ENCMDCOMPL_BB = (uint32_t)NewState;
 1348              		.loc 1 707 3 is_stmt 1 view .LVU260
 1349              	@ ../Libraries/STM32F4xx_StdPeriph_Driver/src/stm32f4xx_sdio.c:707:   *(__IO uint32_t *) CMD_ENCMDC
 1350              		.loc 1 707 40 is_stmt 0 view .LVU261
 1351 0010 014B     		ldr	r3, .L84	@ tmp121,
 1352 0012 C3F8B041 		str	r4, [r3, #432]	@ NewState, MEM[(volatile uint32_t *)1109754288B]
 1353              	@ ../Libraries/STM32F4xx_StdPeriph_Driver/src/stm32f4xx_sdio.c:708: }
 708:../Libraries/STM32F4xx_StdPeriph_Driver/src/stm32f4xx_sdio.c **** }
 1354              		.loc 1 708 1 view .LVU262
 1355 0016 10BD     		pop	{r4, pc}	@
ARM GAS  C:\Users\admin\AppData\Local\Temp\ccIRU4x5.s 			page 38


 1356              	.L85:
 1357              		.align	2
 1358              	.L84:
 1359 0018 00802542 		.word	1109753856
 1360              		.cfi_endproc
 1361              	.LFE131:
 1362              		.size	SDIO_CommandCompletionCmd, .-SDIO_CommandCompletionCmd
 1363              		.section	.text.SDIO_CEATAITCmd,"ax",%progbits
 1364              		.align	1
 1365              		.p2align 2,,3
 1366              		.global	SDIO_CEATAITCmd
 1367              		.syntax unified
 1368              		.thumb
 1369              		.thumb_func
 1370              		.type	SDIO_CEATAITCmd, %function
 1371              	SDIO_CEATAITCmd:
 1372              	.LVL71:
 1373              	.LFB132:
 709:../Libraries/STM32F4xx_StdPeriph_Driver/src/stm32f4xx_sdio.c **** 
 710:../Libraries/STM32F4xx_StdPeriph_Driver/src/stm32f4xx_sdio.c **** /**
 711:../Libraries/STM32F4xx_StdPeriph_Driver/src/stm32f4xx_sdio.c ****   * @brief  Enables or disables the CE-ATA interrupt.
 712:../Libraries/STM32F4xx_StdPeriph_Driver/src/stm32f4xx_sdio.c ****   * @param  NewState: new state of CE-ATA interrupt. 
 713:../Libraries/STM32F4xx_StdPeriph_Driver/src/stm32f4xx_sdio.c ****   *         This parameter can be: ENABLE or DISABLE.
 714:../Libraries/STM32F4xx_StdPeriph_Driver/src/stm32f4xx_sdio.c ****   * @retval None
 715:../Libraries/STM32F4xx_StdPeriph_Driver/src/stm32f4xx_sdio.c ****   */
 716:../Libraries/STM32F4xx_StdPeriph_Driver/src/stm32f4xx_sdio.c **** void SDIO_CEATAITCmd(FunctionalState NewState)
 717:../Libraries/STM32F4xx_StdPeriph_Driver/src/stm32f4xx_sdio.c **** { 
 1374              		.loc 1 717 1 is_stmt 1 view -0
 1375              		.cfi_startproc
 1376              		@ args = 0, pretend = 0, frame = 0
 1377              		@ frame_needed = 0, uses_anonymous_args = 0
 718:../Libraries/STM32F4xx_StdPeriph_Driver/src/stm32f4xx_sdio.c ****   /* Check the parameters */
 719:../Libraries/STM32F4xx_StdPeriph_Driver/src/stm32f4xx_sdio.c ****   assert_param(IS_FUNCTIONAL_STATE(NewState));
 1378              		.loc 1 719 3 view .LVU264
 1379              	@ ../Libraries/STM32F4xx_StdPeriph_Driver/src/stm32f4xx_sdio.c:717: { 
 717:../Libraries/STM32F4xx_StdPeriph_Driver/src/stm32f4xx_sdio.c ****   /* Check the parameters */
 1380              		.loc 1 717 1 is_stmt 0 view .LVU265
 1381 0000 10B5     		push	{r4, lr}	@
 1382              		.cfi_def_cfa_offset 8
 1383              		.cfi_offset 4, -8
 1384              		.cfi_offset 14, -4
 1385              	@ ../Libraries/STM32F4xx_StdPeriph_Driver/src/stm32f4xx_sdio.c:719:   assert_param(IS_FUNCTIONAL_ST
 1386              		.loc 1 719 3 view .LVU266
 1387 0002 0128     		cmp	r0, #1	@ NewState,
 1388              	@ ../Libraries/STM32F4xx_StdPeriph_Driver/src/stm32f4xx_sdio.c:717: { 
 717:../Libraries/STM32F4xx_StdPeriph_Driver/src/stm32f4xx_sdio.c ****   /* Check the parameters */
 1389              		.loc 1 717 1 view .LVU267
 1390 0004 0446     		mov	r4, r0	@ NewState, tmp127
 1391              	@ ../Libraries/STM32F4xx_StdPeriph_Driver/src/stm32f4xx_sdio.c:719:   assert_param(IS_FUNCTIONAL_ST
 1392              		.loc 1 719 3 view .LVU268
 1393 0006 8CBF     		ite	hi
 1394 0008 0020     		movhi	r0, #0	@,
 1395              	.LVL72:
 1396              		.loc 1 719 3 view .LVU269
 1397 000a 0120     		movls	r0, #1	@,
 1398 000c FFF7FEFF 		bl	assert_param		@
 1399              	.LVL73:
ARM GAS  C:\Users\admin\AppData\Local\Temp\ccIRU4x5.s 			page 39


 720:../Libraries/STM32F4xx_StdPeriph_Driver/src/stm32f4xx_sdio.c ****   
 721:../Libraries/STM32F4xx_StdPeriph_Driver/src/stm32f4xx_sdio.c ****   *(__IO uint32_t *) CMD_NIEN_BB = (uint32_t)((~((uint32_t)NewState)) & ((uint32_t)0x1));
 1400              		.loc 1 721 3 is_stmt 1 view .LVU270
 1401              	@ ../Libraries/STM32F4xx_StdPeriph_Driver/src/stm32f4xx_sdio.c:721:   *(__IO uint32_t *) CMD_NIEN_B
 1402              		.loc 1 721 36 is_stmt 0 view .LVU271
 1403 0010 E443     		mvns	r4, r4	@ tmp123, NewState
 1404              	@ ../Libraries/STM32F4xx_StdPeriph_Driver/src/stm32f4xx_sdio.c:721:   *(__IO uint32_t *) CMD_NIEN_B
 1405              		.loc 1 721 34 view .LVU272
 1406 0012 034B     		ldr	r3, .L88	@ tmp126,
 1407              	@ ../Libraries/STM32F4xx_StdPeriph_Driver/src/stm32f4xx_sdio.c:721:   *(__IO uint32_t *) CMD_NIEN_B
 1408              		.loc 1 721 36 view .LVU273
 1409 0014 04F00104 		and	r4, r4, #1	@ _4, tmp123,
 1410              	@ ../Libraries/STM32F4xx_StdPeriph_Driver/src/stm32f4xx_sdio.c:721:   *(__IO uint32_t *) CMD_NIEN_B
 1411              		.loc 1 721 34 view .LVU274
 1412 0018 C3F8B441 		str	r4, [r3, #436]	@ _4, MEM[(volatile uint32_t *)1109754292B]
 1413              	@ ../Libraries/STM32F4xx_StdPeriph_Driver/src/stm32f4xx_sdio.c:722: }
 722:../Libraries/STM32F4xx_StdPeriph_Driver/src/stm32f4xx_sdio.c **** }
 1414              		.loc 1 722 1 view .LVU275
 1415 001c 10BD     		pop	{r4, pc}	@
 1416              	.L89:
 1417 001e 00BF     		.align	2
 1418              	.L88:
 1419 0020 00802542 		.word	1109753856
 1420              		.cfi_endproc
 1421              	.LFE132:
 1422              		.size	SDIO_CEATAITCmd, .-SDIO_CEATAITCmd
 1423              		.section	.text.SDIO_SendCEATACmd,"ax",%progbits
 1424              		.align	1
 1425              		.p2align 2,,3
 1426              		.global	SDIO_SendCEATACmd
 1427              		.syntax unified
 1428              		.thumb
 1429              		.thumb_func
 1430              		.type	SDIO_SendCEATACmd, %function
 1431              	SDIO_SendCEATACmd:
 1432              	.LVL74:
 1433              	.LFB133:
 723:../Libraries/STM32F4xx_StdPeriph_Driver/src/stm32f4xx_sdio.c **** 
 724:../Libraries/STM32F4xx_StdPeriph_Driver/src/stm32f4xx_sdio.c **** /**
 725:../Libraries/STM32F4xx_StdPeriph_Driver/src/stm32f4xx_sdio.c ****   * @brief  Sends CE-ATA command (CMD61).
 726:../Libraries/STM32F4xx_StdPeriph_Driver/src/stm32f4xx_sdio.c ****   * @param  NewState: new state of CE-ATA command. 
 727:../Libraries/STM32F4xx_StdPeriph_Driver/src/stm32f4xx_sdio.c ****   *         This parameter can be: ENABLE or DISABLE.
 728:../Libraries/STM32F4xx_StdPeriph_Driver/src/stm32f4xx_sdio.c ****   * @retval None
 729:../Libraries/STM32F4xx_StdPeriph_Driver/src/stm32f4xx_sdio.c ****   */
 730:../Libraries/STM32F4xx_StdPeriph_Driver/src/stm32f4xx_sdio.c **** void SDIO_SendCEATACmd(FunctionalState NewState)
 731:../Libraries/STM32F4xx_StdPeriph_Driver/src/stm32f4xx_sdio.c **** { 
 1434              		.loc 1 731 1 is_stmt 1 view -0
 1435              		.cfi_startproc
 1436              		@ args = 0, pretend = 0, frame = 0
 1437              		@ frame_needed = 0, uses_anonymous_args = 0
 732:../Libraries/STM32F4xx_StdPeriph_Driver/src/stm32f4xx_sdio.c ****   /* Check the parameters */
 733:../Libraries/STM32F4xx_StdPeriph_Driver/src/stm32f4xx_sdio.c ****   assert_param(IS_FUNCTIONAL_STATE(NewState));
 1438              		.loc 1 733 3 view .LVU277
 1439              	@ ../Libraries/STM32F4xx_StdPeriph_Driver/src/stm32f4xx_sdio.c:731: { 
 731:../Libraries/STM32F4xx_StdPeriph_Driver/src/stm32f4xx_sdio.c ****   /* Check the parameters */
 1440              		.loc 1 731 1 is_stmt 0 view .LVU278
 1441 0000 10B5     		push	{r4, lr}	@
ARM GAS  C:\Users\admin\AppData\Local\Temp\ccIRU4x5.s 			page 40


 1442              		.cfi_def_cfa_offset 8
 1443              		.cfi_offset 4, -8
 1444              		.cfi_offset 14, -4
 1445              	@ ../Libraries/STM32F4xx_StdPeriph_Driver/src/stm32f4xx_sdio.c:733:   assert_param(IS_FUNCTIONAL_ST
 1446              		.loc 1 733 3 view .LVU279
 1447 0002 0128     		cmp	r0, #1	@ NewState,
 1448              	@ ../Libraries/STM32F4xx_StdPeriph_Driver/src/stm32f4xx_sdio.c:731: { 
 731:../Libraries/STM32F4xx_StdPeriph_Driver/src/stm32f4xx_sdio.c ****   /* Check the parameters */
 1449              		.loc 1 731 1 view .LVU280
 1450 0004 0446     		mov	r4, r0	@ NewState, tmp122
 1451              	@ ../Libraries/STM32F4xx_StdPeriph_Driver/src/stm32f4xx_sdio.c:733:   assert_param(IS_FUNCTIONAL_ST
 1452              		.loc 1 733 3 view .LVU281
 1453 0006 8CBF     		ite	hi
 1454 0008 0020     		movhi	r0, #0	@,
 1455              	.LVL75:
 1456              		.loc 1 733 3 view .LVU282
 1457 000a 0120     		movls	r0, #1	@,
 1458 000c FFF7FEFF 		bl	assert_param		@
 1459              	.LVL76:
 734:../Libraries/STM32F4xx_StdPeriph_Driver/src/stm32f4xx_sdio.c ****   
 735:../Libraries/STM32F4xx_StdPeriph_Driver/src/stm32f4xx_sdio.c ****   *(__IO uint32_t *) CMD_ATACMD_BB = (uint32_t)NewState;
 1460              		.loc 1 735 3 is_stmt 1 view .LVU283
 1461              	@ ../Libraries/STM32F4xx_StdPeriph_Driver/src/stm32f4xx_sdio.c:735:   *(__IO uint32_t *) CMD_ATACMD
 1462              		.loc 1 735 36 is_stmt 0 view .LVU284
 1463 0010 014B     		ldr	r3, .L92	@ tmp121,
 1464 0012 C3F8B841 		str	r4, [r3, #440]	@ NewState, MEM[(volatile uint32_t *)1109754296B]
 1465              	@ ../Libraries/STM32F4xx_StdPeriph_Driver/src/stm32f4xx_sdio.c:736: }
 736:../Libraries/STM32F4xx_StdPeriph_Driver/src/stm32f4xx_sdio.c **** }
 1466              		.loc 1 736 1 view .LVU285
 1467 0016 10BD     		pop	{r4, pc}	@
 1468              	.L93:
 1469              		.align	2
 1470              	.L92:
 1471 0018 00802542 		.word	1109753856
 1472              		.cfi_endproc
 1473              	.LFE133:
 1474              		.size	SDIO_SendCEATACmd, .-SDIO_SendCEATACmd
 1475              		.section	.text.SDIO_DMACmd,"ax",%progbits
 1476              		.align	1
 1477              		.p2align 2,,3
 1478              		.global	SDIO_DMACmd
 1479              		.syntax unified
 1480              		.thumb
 1481              		.thumb_func
 1482              		.type	SDIO_DMACmd, %function
 1483              	SDIO_DMACmd:
 1484              	.LVL77:
 1485              	.LFB134:
 737:../Libraries/STM32F4xx_StdPeriph_Driver/src/stm32f4xx_sdio.c **** 
 738:../Libraries/STM32F4xx_StdPeriph_Driver/src/stm32f4xx_sdio.c **** /**
 739:../Libraries/STM32F4xx_StdPeriph_Driver/src/stm32f4xx_sdio.c ****   * @}
 740:../Libraries/STM32F4xx_StdPeriph_Driver/src/stm32f4xx_sdio.c ****   */
 741:../Libraries/STM32F4xx_StdPeriph_Driver/src/stm32f4xx_sdio.c **** 
 742:../Libraries/STM32F4xx_StdPeriph_Driver/src/stm32f4xx_sdio.c **** /** @defgroup SDIO_Group6 DMA transfers management functions
 743:../Libraries/STM32F4xx_StdPeriph_Driver/src/stm32f4xx_sdio.c ****  *  @brief   DMA transfers management functions
 744:../Libraries/STM32F4xx_StdPeriph_Driver/src/stm32f4xx_sdio.c ****  *
 745:../Libraries/STM32F4xx_StdPeriph_Driver/src/stm32f4xx_sdio.c **** @verbatim   
ARM GAS  C:\Users\admin\AppData\Local\Temp\ccIRU4x5.s 			page 41


 746:../Libraries/STM32F4xx_StdPeriph_Driver/src/stm32f4xx_sdio.c ****  ===============================================================================
 747:../Libraries/STM32F4xx_StdPeriph_Driver/src/stm32f4xx_sdio.c ****               DMA transfers management functions
 748:../Libraries/STM32F4xx_StdPeriph_Driver/src/stm32f4xx_sdio.c ****  ===============================================================================  
 749:../Libraries/STM32F4xx_StdPeriph_Driver/src/stm32f4xx_sdio.c **** 
 750:../Libraries/STM32F4xx_StdPeriph_Driver/src/stm32f4xx_sdio.c ****   This section provide functions allowing to program SDIO DMA transfer.
 751:../Libraries/STM32F4xx_StdPeriph_Driver/src/stm32f4xx_sdio.c **** 
 752:../Libraries/STM32F4xx_StdPeriph_Driver/src/stm32f4xx_sdio.c **** @endverbatim
 753:../Libraries/STM32F4xx_StdPeriph_Driver/src/stm32f4xx_sdio.c ****   * @{
 754:../Libraries/STM32F4xx_StdPeriph_Driver/src/stm32f4xx_sdio.c ****   */
 755:../Libraries/STM32F4xx_StdPeriph_Driver/src/stm32f4xx_sdio.c **** 
 756:../Libraries/STM32F4xx_StdPeriph_Driver/src/stm32f4xx_sdio.c **** /**
 757:../Libraries/STM32F4xx_StdPeriph_Driver/src/stm32f4xx_sdio.c ****   * @brief  Enables or disables the SDIO DMA request.
 758:../Libraries/STM32F4xx_StdPeriph_Driver/src/stm32f4xx_sdio.c ****   * @param  NewState: new state of the selected SDIO DMA request.
 759:../Libraries/STM32F4xx_StdPeriph_Driver/src/stm32f4xx_sdio.c ****   *          This parameter can be: ENABLE or DISABLE.
 760:../Libraries/STM32F4xx_StdPeriph_Driver/src/stm32f4xx_sdio.c ****   * @retval None
 761:../Libraries/STM32F4xx_StdPeriph_Driver/src/stm32f4xx_sdio.c ****   */
 762:../Libraries/STM32F4xx_StdPeriph_Driver/src/stm32f4xx_sdio.c **** void SDIO_DMACmd(FunctionalState NewState)
 763:../Libraries/STM32F4xx_StdPeriph_Driver/src/stm32f4xx_sdio.c **** {
 1486              		.loc 1 763 1 is_stmt 1 view -0
 1487              		.cfi_startproc
 1488              		@ args = 0, pretend = 0, frame = 0
 1489              		@ frame_needed = 0, uses_anonymous_args = 0
 764:../Libraries/STM32F4xx_StdPeriph_Driver/src/stm32f4xx_sdio.c ****   /* Check the parameters */
 765:../Libraries/STM32F4xx_StdPeriph_Driver/src/stm32f4xx_sdio.c ****   assert_param(IS_FUNCTIONAL_STATE(NewState));
 1490              		.loc 1 765 3 view .LVU287
 1491              	@ ../Libraries/STM32F4xx_StdPeriph_Driver/src/stm32f4xx_sdio.c:763: {
 763:../Libraries/STM32F4xx_StdPeriph_Driver/src/stm32f4xx_sdio.c ****   /* Check the parameters */
 1492              		.loc 1 763 1 is_stmt 0 view .LVU288
 1493 0000 10B5     		push	{r4, lr}	@
 1494              		.cfi_def_cfa_offset 8
 1495              		.cfi_offset 4, -8
 1496              		.cfi_offset 14, -4
 1497              	@ ../Libraries/STM32F4xx_StdPeriph_Driver/src/stm32f4xx_sdio.c:765:   assert_param(IS_FUNCTIONAL_ST
 1498              		.loc 1 765 3 view .LVU289
 1499 0002 0128     		cmp	r0, #1	@ NewState,
 1500              	@ ../Libraries/STM32F4xx_StdPeriph_Driver/src/stm32f4xx_sdio.c:763: {
 763:../Libraries/STM32F4xx_StdPeriph_Driver/src/stm32f4xx_sdio.c ****   /* Check the parameters */
 1501              		.loc 1 763 1 view .LVU290
 1502 0004 0446     		mov	r4, r0	@ NewState, tmp122
 1503              	@ ../Libraries/STM32F4xx_StdPeriph_Driver/src/stm32f4xx_sdio.c:765:   assert_param(IS_FUNCTIONAL_ST
 1504              		.loc 1 765 3 view .LVU291
 1505 0006 8CBF     		ite	hi
 1506 0008 0020     		movhi	r0, #0	@,
 1507              	.LVL78:
 1508              		.loc 1 765 3 view .LVU292
 1509 000a 0120     		movls	r0, #1	@,
 1510 000c FFF7FEFF 		bl	assert_param		@
 1511              	.LVL79:
 766:../Libraries/STM32F4xx_StdPeriph_Driver/src/stm32f4xx_sdio.c ****   
 767:../Libraries/STM32F4xx_StdPeriph_Driver/src/stm32f4xx_sdio.c ****   *(__IO uint32_t *) DCTRL_DMAEN_BB = (uint32_t)NewState;
 1512              		.loc 1 767 3 is_stmt 1 view .LVU293
 1513              	@ ../Libraries/STM32F4xx_StdPeriph_Driver/src/stm32f4xx_sdio.c:767:   *(__IO uint32_t *) DCTRL_DMAE
 1514              		.loc 1 767 37 is_stmt 0 view .LVU294
 1515 0010 014B     		ldr	r3, .L96	@ tmp121,
 1516 0012 C3F88C45 		str	r4, [r3, #1420]	@ NewState, MEM[(volatile uint32_t *)1109755276B]
 1517              	@ ../Libraries/STM32F4xx_StdPeriph_Driver/src/stm32f4xx_sdio.c:768: }
 768:../Libraries/STM32F4xx_StdPeriph_Driver/src/stm32f4xx_sdio.c **** }
ARM GAS  C:\Users\admin\AppData\Local\Temp\ccIRU4x5.s 			page 42


 1518              		.loc 1 768 1 view .LVU295
 1519 0016 10BD     		pop	{r4, pc}	@
 1520              	.L97:
 1521              		.align	2
 1522              	.L96:
 1523 0018 00802542 		.word	1109753856
 1524              		.cfi_endproc
 1525              	.LFE134:
 1526              		.size	SDIO_DMACmd, .-SDIO_DMACmd
 1527              		.section	.text.SDIO_ITConfig,"ax",%progbits
 1528              		.align	1
 1529              		.p2align 2,,3
 1530              		.global	SDIO_ITConfig
 1531              		.syntax unified
 1532              		.thumb
 1533              		.thumb_func
 1534              		.type	SDIO_ITConfig, %function
 1535              	SDIO_ITConfig:
 1536              	.LVL80:
 1537              	.LFB135:
 769:../Libraries/STM32F4xx_StdPeriph_Driver/src/stm32f4xx_sdio.c **** 
 770:../Libraries/STM32F4xx_StdPeriph_Driver/src/stm32f4xx_sdio.c **** /**
 771:../Libraries/STM32F4xx_StdPeriph_Driver/src/stm32f4xx_sdio.c ****   * @}
 772:../Libraries/STM32F4xx_StdPeriph_Driver/src/stm32f4xx_sdio.c ****   */
 773:../Libraries/STM32F4xx_StdPeriph_Driver/src/stm32f4xx_sdio.c **** 
 774:../Libraries/STM32F4xx_StdPeriph_Driver/src/stm32f4xx_sdio.c **** /** @defgroup SDIO_Group7 Interrupts and flags management functions
 775:../Libraries/STM32F4xx_StdPeriph_Driver/src/stm32f4xx_sdio.c ****  *  @brief   Interrupts and flags management functions  
 776:../Libraries/STM32F4xx_StdPeriph_Driver/src/stm32f4xx_sdio.c ****  *
 777:../Libraries/STM32F4xx_StdPeriph_Driver/src/stm32f4xx_sdio.c **** @verbatim   
 778:../Libraries/STM32F4xx_StdPeriph_Driver/src/stm32f4xx_sdio.c ****  ===============================================================================
 779:../Libraries/STM32F4xx_StdPeriph_Driver/src/stm32f4xx_sdio.c ****                        Interrupts and flags management functions
 780:../Libraries/STM32F4xx_StdPeriph_Driver/src/stm32f4xx_sdio.c ****  ===============================================================================  
 781:../Libraries/STM32F4xx_StdPeriph_Driver/src/stm32f4xx_sdio.c **** 
 782:../Libraries/STM32F4xx_StdPeriph_Driver/src/stm32f4xx_sdio.c **** 
 783:../Libraries/STM32F4xx_StdPeriph_Driver/src/stm32f4xx_sdio.c **** @endverbatim
 784:../Libraries/STM32F4xx_StdPeriph_Driver/src/stm32f4xx_sdio.c ****   * @{
 785:../Libraries/STM32F4xx_StdPeriph_Driver/src/stm32f4xx_sdio.c ****   */
 786:../Libraries/STM32F4xx_StdPeriph_Driver/src/stm32f4xx_sdio.c **** 
 787:../Libraries/STM32F4xx_StdPeriph_Driver/src/stm32f4xx_sdio.c **** /**
 788:../Libraries/STM32F4xx_StdPeriph_Driver/src/stm32f4xx_sdio.c ****   * @brief  Enables or disables the SDIO interrupts.
 789:../Libraries/STM32F4xx_StdPeriph_Driver/src/stm32f4xx_sdio.c ****   * @param  SDIO_IT: specifies the SDIO interrupt sources to be enabled or disabled.
 790:../Libraries/STM32F4xx_StdPeriph_Driver/src/stm32f4xx_sdio.c ****   *          This parameter can be one or a combination of the following values:
 791:../Libraries/STM32F4xx_StdPeriph_Driver/src/stm32f4xx_sdio.c ****   *            @arg SDIO_IT_CCRCFAIL: Command response received (CRC check failed) interrupt
 792:../Libraries/STM32F4xx_StdPeriph_Driver/src/stm32f4xx_sdio.c ****   *            @arg SDIO_IT_DCRCFAIL: Data block sent/received (CRC check failed) interrupt
 793:../Libraries/STM32F4xx_StdPeriph_Driver/src/stm32f4xx_sdio.c ****   *            @arg SDIO_IT_CTIMEOUT: Command response timeout interrupt
 794:../Libraries/STM32F4xx_StdPeriph_Driver/src/stm32f4xx_sdio.c ****   *            @arg SDIO_IT_DTIMEOUT: Data timeout interrupt
 795:../Libraries/STM32F4xx_StdPeriph_Driver/src/stm32f4xx_sdio.c ****   *            @arg SDIO_IT_TXUNDERR: Transmit FIFO underrun error interrupt
 796:../Libraries/STM32F4xx_StdPeriph_Driver/src/stm32f4xx_sdio.c ****   *            @arg SDIO_IT_RXOVERR:  Received FIFO overrun error interrupt
 797:../Libraries/STM32F4xx_StdPeriph_Driver/src/stm32f4xx_sdio.c ****   *            @arg SDIO_IT_CMDREND:  Command response received (CRC check passed) interrupt
 798:../Libraries/STM32F4xx_StdPeriph_Driver/src/stm32f4xx_sdio.c ****   *            @arg SDIO_IT_CMDSENT:  Command sent (no response required) interrupt
 799:../Libraries/STM32F4xx_StdPeriph_Driver/src/stm32f4xx_sdio.c ****   *            @arg SDIO_IT_DATAEND:  Data end (data counter, SDIDCOUNT, is zero) interrupt
 800:../Libraries/STM32F4xx_StdPeriph_Driver/src/stm32f4xx_sdio.c ****   *            @arg SDIO_IT_STBITERR: Start bit not detected on all data signals in wide 
 801:../Libraries/STM32F4xx_StdPeriph_Driver/src/stm32f4xx_sdio.c ****   *                                   bus mode interrupt
 802:../Libraries/STM32F4xx_StdPeriph_Driver/src/stm32f4xx_sdio.c ****   *            @arg SDIO_IT_DBCKEND:  Data block sent/received (CRC check passed) interrupt
 803:../Libraries/STM32F4xx_StdPeriph_Driver/src/stm32f4xx_sdio.c ****   *            @arg SDIO_IT_CMDACT:   Command transfer in progress interrupt
 804:../Libraries/STM32F4xx_StdPeriph_Driver/src/stm32f4xx_sdio.c ****   *            @arg SDIO_IT_TXACT:    Data transmit in progress interrupt
 805:../Libraries/STM32F4xx_StdPeriph_Driver/src/stm32f4xx_sdio.c ****   *            @arg SDIO_IT_RXACT:    Data receive in progress interrupt
ARM GAS  C:\Users\admin\AppData\Local\Temp\ccIRU4x5.s 			page 43


 806:../Libraries/STM32F4xx_StdPeriph_Driver/src/stm32f4xx_sdio.c ****   *            @arg SDIO_IT_TXFIFOHE: Transmit FIFO Half Empty interrupt
 807:../Libraries/STM32F4xx_StdPeriph_Driver/src/stm32f4xx_sdio.c ****   *            @arg SDIO_IT_RXFIFOHF: Receive FIFO Half Full interrupt
 808:../Libraries/STM32F4xx_StdPeriph_Driver/src/stm32f4xx_sdio.c ****   *            @arg SDIO_IT_TXFIFOF:  Transmit FIFO full interrupt
 809:../Libraries/STM32F4xx_StdPeriph_Driver/src/stm32f4xx_sdio.c ****   *            @arg SDIO_IT_RXFIFOF:  Receive FIFO full interrupt
 810:../Libraries/STM32F4xx_StdPeriph_Driver/src/stm32f4xx_sdio.c ****   *            @arg SDIO_IT_TXFIFOE:  Transmit FIFO empty interrupt
 811:../Libraries/STM32F4xx_StdPeriph_Driver/src/stm32f4xx_sdio.c ****   *            @arg SDIO_IT_RXFIFOE:  Receive FIFO empty interrupt
 812:../Libraries/STM32F4xx_StdPeriph_Driver/src/stm32f4xx_sdio.c ****   *            @arg SDIO_IT_TXDAVL:   Data available in transmit FIFO interrupt
 813:../Libraries/STM32F4xx_StdPeriph_Driver/src/stm32f4xx_sdio.c ****   *            @arg SDIO_IT_RXDAVL:   Data available in receive FIFO interrupt
 814:../Libraries/STM32F4xx_StdPeriph_Driver/src/stm32f4xx_sdio.c ****   *            @arg SDIO_IT_SDIOIT:   SD I/O interrupt received interrupt
 815:../Libraries/STM32F4xx_StdPeriph_Driver/src/stm32f4xx_sdio.c ****   *            @arg SDIO_IT_CEATAEND: CE-ATA command completion signal received for CMD61 interrupt
 816:../Libraries/STM32F4xx_StdPeriph_Driver/src/stm32f4xx_sdio.c ****   * @param  NewState: new state of the specified SDIO interrupts.
 817:../Libraries/STM32F4xx_StdPeriph_Driver/src/stm32f4xx_sdio.c ****   *          This parameter can be: ENABLE or DISABLE.
 818:../Libraries/STM32F4xx_StdPeriph_Driver/src/stm32f4xx_sdio.c ****   * @retval None 
 819:../Libraries/STM32F4xx_StdPeriph_Driver/src/stm32f4xx_sdio.c ****   */
 820:../Libraries/STM32F4xx_StdPeriph_Driver/src/stm32f4xx_sdio.c **** void SDIO_ITConfig(uint32_t SDIO_IT, FunctionalState NewState)
 821:../Libraries/STM32F4xx_StdPeriph_Driver/src/stm32f4xx_sdio.c **** {
 1538              		.loc 1 821 1 is_stmt 1 view -0
 1539              		.cfi_startproc
 1540              		@ args = 0, pretend = 0, frame = 0
 1541              		@ frame_needed = 0, uses_anonymous_args = 0
 822:../Libraries/STM32F4xx_StdPeriph_Driver/src/stm32f4xx_sdio.c ****   /* Check the parameters */
 823:../Libraries/STM32F4xx_StdPeriph_Driver/src/stm32f4xx_sdio.c ****   assert_param(IS_SDIO_IT(SDIO_IT));
 1542              		.loc 1 823 3 view .LVU297
 1543 0000 10F07F4F 		tst	r0, #-16777216	@ SDIO_IT,
 1544              	@ ../Libraries/STM32F4xx_StdPeriph_Driver/src/stm32f4xx_sdio.c:821: {
 821:../Libraries/STM32F4xx_StdPeriph_Driver/src/stm32f4xx_sdio.c ****   /* Check the parameters */
 1545              		.loc 1 821 1 is_stmt 0 view .LVU298
 1546 0004 38B5     		push	{r3, r4, r5, lr}	@
 1547              		.cfi_def_cfa_offset 16
 1548              		.cfi_offset 3, -16
 1549              		.cfi_offset 4, -12
 1550              		.cfi_offset 5, -8
 1551              		.cfi_offset 14, -4
 1552              	@ ../Libraries/STM32F4xx_StdPeriph_Driver/src/stm32f4xx_sdio.c:821: {
 821:../Libraries/STM32F4xx_StdPeriph_Driver/src/stm32f4xx_sdio.c ****   /* Check the parameters */
 1553              		.loc 1 821 1 view .LVU299
 1554 0006 0446     		mov	r4, r0	@ SDIO_IT, tmp137
 1555 0008 0D46     		mov	r5, r1	@ NewState, tmp138
 1556              	@ ../Libraries/STM32F4xx_StdPeriph_Driver/src/stm32f4xx_sdio.c:823:   assert_param(IS_SDIO_IT(SDIO_
 1557              		.loc 1 823 3 view .LVU300
 1558 000a 14D1     		bne	.L102		@,
 1559              	@ ../Libraries/STM32F4xx_StdPeriph_Driver/src/stm32f4xx_sdio.c:823:   assert_param(IS_SDIO_IT(SDIO_
 1560              		.loc 1 823 3 discriminator 1 view .LVU301
 1561 000c 0038     		subs	r0, r0, #0	@ iftmp.15_9, SDIO_IT,
 1562              	.LVL81:
 1563              		.loc 1 823 3 discriminator 1 view .LVU302
 1564 000e 18BF     		it	ne
 1565 0010 0120     		movne	r0, #1	@ iftmp.15_9,
 1566              	.L99:
 1567              	@ ../Libraries/STM32F4xx_StdPeriph_Driver/src/stm32f4xx_sdio.c:823:   assert_param(IS_SDIO_IT(SDIO_
 1568              		.loc 1 823 3 discriminator 6 view .LVU303
 1569 0012 FFF7FEFF 		bl	assert_param		@
 1570              	.LVL82:
 824:../Libraries/STM32F4xx_StdPeriph_Driver/src/stm32f4xx_sdio.c ****   assert_param(IS_FUNCTIONAL_STATE(NewState));
 1571              		.loc 1 824 3 is_stmt 1 discriminator 6 view .LVU304
 1572 0016 012D     		cmp	r5, #1	@ NewState,
 1573 0018 8CBF     		ite	hi
ARM GAS  C:\Users\admin\AppData\Local\Temp\ccIRU4x5.s 			page 44


 1574 001a 0020     		movhi	r0, #0	@,
 1575 001c 0120     		movls	r0, #1	@,
 1576 001e FFF7FEFF 		bl	assert_param		@
 1577              	.LVL83:
 825:../Libraries/STM32F4xx_StdPeriph_Driver/src/stm32f4xx_sdio.c ****   
 826:../Libraries/STM32F4xx_StdPeriph_Driver/src/stm32f4xx_sdio.c ****   if (NewState != DISABLE)
 1578              		.loc 1 826 3 discriminator 6 view .LVU305
 1579              	@ ../Libraries/STM32F4xx_StdPeriph_Driver/src/stm32f4xx_sdio.c:829:     SDIO->MASK |= SDIO_IT;
 827:../Libraries/STM32F4xx_StdPeriph_Driver/src/stm32f4xx_sdio.c ****   {
 828:../Libraries/STM32F4xx_StdPeriph_Driver/src/stm32f4xx_sdio.c ****     /* Enable the SDIO interrupts */
 829:../Libraries/STM32F4xx_StdPeriph_Driver/src/stm32f4xx_sdio.c ****     SDIO->MASK |= SDIO_IT;
 1580              		.loc 1 829 16 is_stmt 0 discriminator 6 view .LVU306
 1581 0022 064B     		ldr	r3, .L104	@ tmp132,
 1582 0024 D86B     		ldr	r0, [r3, #60]	@ _4,
 1583              	@ ../Libraries/STM32F4xx_StdPeriph_Driver/src/stm32f4xx_sdio.c:826:   if (NewState != DISABLE)
 826:../Libraries/STM32F4xx_StdPeriph_Driver/src/stm32f4xx_sdio.c ****   {
 1584              		.loc 1 826 6 discriminator 6 view .LVU307
 1585 0026 15B1     		cbz	r5, .L100	@ NewState,
 1586              		.loc 1 829 5 is_stmt 1 view .LVU308
 1587              	@ ../Libraries/STM32F4xx_StdPeriph_Driver/src/stm32f4xx_sdio.c:829:     SDIO->MASK |= SDIO_IT;
 1588              		.loc 1 829 16 is_stmt 0 view .LVU309
 1589 0028 0443     		orrs	r4, r4, r0	@, _5, SDIO_IT, _4
 1590              	.LVL84:
 1591              		.loc 1 829 16 view .LVU310
 1592 002a DC63     		str	r4, [r3, #60]	@ _5,
 1593              	@ ../Libraries/STM32F4xx_StdPeriph_Driver/src/stm32f4xx_sdio.c:836: }
 830:../Libraries/STM32F4xx_StdPeriph_Driver/src/stm32f4xx_sdio.c ****   }
 831:../Libraries/STM32F4xx_StdPeriph_Driver/src/stm32f4xx_sdio.c ****   else
 832:../Libraries/STM32F4xx_StdPeriph_Driver/src/stm32f4xx_sdio.c ****   {
 833:../Libraries/STM32F4xx_StdPeriph_Driver/src/stm32f4xx_sdio.c ****     /* Disable the SDIO interrupts */
 834:../Libraries/STM32F4xx_StdPeriph_Driver/src/stm32f4xx_sdio.c ****     SDIO->MASK &= ~SDIO_IT;
 835:../Libraries/STM32F4xx_StdPeriph_Driver/src/stm32f4xx_sdio.c ****   } 
 836:../Libraries/STM32F4xx_StdPeriph_Driver/src/stm32f4xx_sdio.c **** }
 1594              		.loc 1 836 1 view .LVU311
 1595 002c 38BD     		pop	{r3, r4, r5, pc}	@
 1596              	.LVL85:
 1597              	.L100:
 834:../Libraries/STM32F4xx_StdPeriph_Driver/src/stm32f4xx_sdio.c ****   } 
 1598              		.loc 1 834 5 is_stmt 1 view .LVU312
 1599              	@ ../Libraries/STM32F4xx_StdPeriph_Driver/src/stm32f4xx_sdio.c:834:     SDIO->MASK &= ~SDIO_IT;
 834:../Libraries/STM32F4xx_StdPeriph_Driver/src/stm32f4xx_sdio.c ****   } 
 1600              		.loc 1 834 16 is_stmt 0 view .LVU313
 1601 002e 20EA0404 		bic	r4, r0, r4	@ _8, _6, SDIO_IT
 1602              	.LVL86:
 834:../Libraries/STM32F4xx_StdPeriph_Driver/src/stm32f4xx_sdio.c ****   } 
 1603              		.loc 1 834 16 view .LVU314
 1604 0032 DC63     		str	r4, [r3, #60]	@ _8,
 1605              	@ ../Libraries/STM32F4xx_StdPeriph_Driver/src/stm32f4xx_sdio.c:836: }
 1606              		.loc 1 836 1 view .LVU315
 1607 0034 38BD     		pop	{r3, r4, r5, pc}	@
 1608              	.LVL87:
 1609              	.L102:
 1610              	@ ../Libraries/STM32F4xx_StdPeriph_Driver/src/stm32f4xx_sdio.c:823:   assert_param(IS_SDIO_IT(SDIO_
 823:../Libraries/STM32F4xx_StdPeriph_Driver/src/stm32f4xx_sdio.c ****   assert_param(IS_FUNCTIONAL_STATE(NewState));
 1611              		.loc 1 823 3 view .LVU316
 1612 0036 0020     		movs	r0, #0	@ iftmp.15_9,
 1613              	.LVL88:
ARM GAS  C:\Users\admin\AppData\Local\Temp\ccIRU4x5.s 			page 45


 823:../Libraries/STM32F4xx_StdPeriph_Driver/src/stm32f4xx_sdio.c ****   assert_param(IS_FUNCTIONAL_STATE(NewState));
 1614              		.loc 1 823 3 view .LVU317
 1615 0038 EBE7     		b	.L99		@
 1616              	.L105:
 1617 003a 00BF     		.align	2
 1618              	.L104:
 1619 003c 002C0140 		.word	1073818624
 1620              		.cfi_endproc
 1621              	.LFE135:
 1622              		.size	SDIO_ITConfig, .-SDIO_ITConfig
 1623              		.section	.text.SDIO_GetFlagStatus,"ax",%progbits
 1624              		.align	1
 1625              		.p2align 2,,3
 1626              		.global	SDIO_GetFlagStatus
 1627              		.syntax unified
 1628              		.thumb
 1629              		.thumb_func
 1630              		.type	SDIO_GetFlagStatus, %function
 1631              	SDIO_GetFlagStatus:
 1632              	.LVL89:
 1633              	.LFB136:
 837:../Libraries/STM32F4xx_StdPeriph_Driver/src/stm32f4xx_sdio.c **** 
 838:../Libraries/STM32F4xx_StdPeriph_Driver/src/stm32f4xx_sdio.c **** /**
 839:../Libraries/STM32F4xx_StdPeriph_Driver/src/stm32f4xx_sdio.c ****   * @brief  Checks whether the specified SDIO flag is set or not.
 840:../Libraries/STM32F4xx_StdPeriph_Driver/src/stm32f4xx_sdio.c ****   * @param  SDIO_FLAG: specifies the flag to check. 
 841:../Libraries/STM32F4xx_StdPeriph_Driver/src/stm32f4xx_sdio.c ****   *          This parameter can be one of the following values:
 842:../Libraries/STM32F4xx_StdPeriph_Driver/src/stm32f4xx_sdio.c ****   *            @arg SDIO_FLAG_CCRCFAIL: Command response received (CRC check failed)
 843:../Libraries/STM32F4xx_StdPeriph_Driver/src/stm32f4xx_sdio.c ****   *            @arg SDIO_FLAG_DCRCFAIL: Data block sent/received (CRC check failed)
 844:../Libraries/STM32F4xx_StdPeriph_Driver/src/stm32f4xx_sdio.c ****   *            @arg SDIO_FLAG_CTIMEOUT: Command response timeout
 845:../Libraries/STM32F4xx_StdPeriph_Driver/src/stm32f4xx_sdio.c ****   *            @arg SDIO_FLAG_DTIMEOUT: Data timeout
 846:../Libraries/STM32F4xx_StdPeriph_Driver/src/stm32f4xx_sdio.c ****   *            @arg SDIO_FLAG_TXUNDERR: Transmit FIFO underrun error
 847:../Libraries/STM32F4xx_StdPeriph_Driver/src/stm32f4xx_sdio.c ****   *            @arg SDIO_FLAG_RXOVERR:  Received FIFO overrun error
 848:../Libraries/STM32F4xx_StdPeriph_Driver/src/stm32f4xx_sdio.c ****   *            @arg SDIO_FLAG_CMDREND:  Command response received (CRC check passed)
 849:../Libraries/STM32F4xx_StdPeriph_Driver/src/stm32f4xx_sdio.c ****   *            @arg SDIO_FLAG_CMDSENT:  Command sent (no response required)
 850:../Libraries/STM32F4xx_StdPeriph_Driver/src/stm32f4xx_sdio.c ****   *            @arg SDIO_FLAG_DATAEND:  Data end (data counter, SDIDCOUNT, is zero)
 851:../Libraries/STM32F4xx_StdPeriph_Driver/src/stm32f4xx_sdio.c ****   *            @arg SDIO_FLAG_STBITERR: Start bit not detected on all data signals in wide bus mode
 852:../Libraries/STM32F4xx_StdPeriph_Driver/src/stm32f4xx_sdio.c ****   *            @arg SDIO_FLAG_DBCKEND:  Data block sent/received (CRC check passed)
 853:../Libraries/STM32F4xx_StdPeriph_Driver/src/stm32f4xx_sdio.c ****   *            @arg SDIO_FLAG_CMDACT:   Command transfer in progress
 854:../Libraries/STM32F4xx_StdPeriph_Driver/src/stm32f4xx_sdio.c ****   *            @arg SDIO_FLAG_TXACT:    Data transmit in progress
 855:../Libraries/STM32F4xx_StdPeriph_Driver/src/stm32f4xx_sdio.c ****   *            @arg SDIO_FLAG_RXACT:    Data receive in progress
 856:../Libraries/STM32F4xx_StdPeriph_Driver/src/stm32f4xx_sdio.c ****   *            @arg SDIO_FLAG_TXFIFOHE: Transmit FIFO Half Empty
 857:../Libraries/STM32F4xx_StdPeriph_Driver/src/stm32f4xx_sdio.c ****   *            @arg SDIO_FLAG_RXFIFOHF: Receive FIFO Half Full
 858:../Libraries/STM32F4xx_StdPeriph_Driver/src/stm32f4xx_sdio.c ****   *            @arg SDIO_FLAG_TXFIFOF:  Transmit FIFO full
 859:../Libraries/STM32F4xx_StdPeriph_Driver/src/stm32f4xx_sdio.c ****   *            @arg SDIO_FLAG_RXFIFOF:  Receive FIFO full
 860:../Libraries/STM32F4xx_StdPeriph_Driver/src/stm32f4xx_sdio.c ****   *            @arg SDIO_FLAG_TXFIFOE:  Transmit FIFO empty
 861:../Libraries/STM32F4xx_StdPeriph_Driver/src/stm32f4xx_sdio.c ****   *            @arg SDIO_FLAG_RXFIFOE:  Receive FIFO empty
 862:../Libraries/STM32F4xx_StdPeriph_Driver/src/stm32f4xx_sdio.c ****   *            @arg SDIO_FLAG_TXDAVL:   Data available in transmit FIFO
 863:../Libraries/STM32F4xx_StdPeriph_Driver/src/stm32f4xx_sdio.c ****   *            @arg SDIO_FLAG_RXDAVL:   Data available in receive FIFO
 864:../Libraries/STM32F4xx_StdPeriph_Driver/src/stm32f4xx_sdio.c ****   *            @arg SDIO_FLAG_SDIOIT:   SD I/O interrupt received
 865:../Libraries/STM32F4xx_StdPeriph_Driver/src/stm32f4xx_sdio.c ****   *            @arg SDIO_FLAG_CEATAEND: CE-ATA command completion signal received for CMD61
 866:../Libraries/STM32F4xx_StdPeriph_Driver/src/stm32f4xx_sdio.c ****   * @retval The new state of SDIO_FLAG (SET or RESET).
 867:../Libraries/STM32F4xx_StdPeriph_Driver/src/stm32f4xx_sdio.c ****   */
 868:../Libraries/STM32F4xx_StdPeriph_Driver/src/stm32f4xx_sdio.c **** FlagStatus SDIO_GetFlagStatus(uint32_t SDIO_FLAG)
 869:../Libraries/STM32F4xx_StdPeriph_Driver/src/stm32f4xx_sdio.c **** { 
 1634              		.loc 1 869 1 is_stmt 1 view -0
 1635              		.cfi_startproc
 1636              		@ args = 0, pretend = 0, frame = 0
ARM GAS  C:\Users\admin\AppData\Local\Temp\ccIRU4x5.s 			page 46


 1637              		@ frame_needed = 0, uses_anonymous_args = 0
 870:../Libraries/STM32F4xx_StdPeriph_Driver/src/stm32f4xx_sdio.c ****   FlagStatus bitstatus = RESET;
 1638              		.loc 1 870 3 view .LVU319
 871:../Libraries/STM32F4xx_StdPeriph_Driver/src/stm32f4xx_sdio.c ****   
 872:../Libraries/STM32F4xx_StdPeriph_Driver/src/stm32f4xx_sdio.c ****   /* Check the parameters */
 873:../Libraries/STM32F4xx_StdPeriph_Driver/src/stm32f4xx_sdio.c ****   assert_param(IS_SDIO_FLAG(SDIO_FLAG));
 1639              		.loc 1 873 3 view .LVU320
 1640 0000 431E     		subs	r3, r0, #1	@ _4, SDIO_FLAG,
 1641 0002 1F2B     		cmp	r3, #31	@ _4,
 1642              	@ ../Libraries/STM32F4xx_StdPeriph_Driver/src/stm32f4xx_sdio.c:869: { 
 869:../Libraries/STM32F4xx_StdPeriph_Driver/src/stm32f4xx_sdio.c ****   FlagStatus bitstatus = RESET;
 1643              		.loc 1 869 1 is_stmt 0 view .LVU321
 1644 0004 10B5     		push	{r4, lr}	@
 1645              		.cfi_def_cfa_offset 8
 1646              		.cfi_offset 4, -8
 1647              		.cfi_offset 14, -4
 1648              	@ ../Libraries/STM32F4xx_StdPeriph_Driver/src/stm32f4xx_sdio.c:869: { 
 869:../Libraries/STM32F4xx_StdPeriph_Driver/src/stm32f4xx_sdio.c ****   FlagStatus bitstatus = RESET;
 1649              		.loc 1 869 1 view .LVU322
 1650 0006 0446     		mov	r4, r0	@ SDIO_FLAG, tmp139
 1651              	@ ../Libraries/STM32F4xx_StdPeriph_Driver/src/stm32f4xx_sdio.c:873:   assert_param(IS_SDIO_FLAG(SDI
 1652              		.loc 1 873 3 view .LVU323
 1653 0008 3AD9     		bls	.L107		@,
 1654              	@ ../Libraries/STM32F4xx_StdPeriph_Driver/src/stm32f4xx_sdio.c:873:   assert_param(IS_SDIO_FLAG(SDI
 1655              		.loc 1 873 16 view .LVU324
 1656 000a 4028     		cmp	r0, #64	@ SDIO_FLAG,
 1657 000c 2ED0     		beq	.L127		@,
 1658              	@ ../Libraries/STM32F4xx_StdPeriph_Driver/src/stm32f4xx_sdio.c:873:   assert_param(IS_SDIO_FLAG(SDI
 1659              		.loc 1 873 16 discriminator 12 view .LVU325
 1660 000e 8028     		cmp	r0, #128	@ SDIO_FLAG,
 1661 0010 2CD0     		beq	.L127		@,
 1662              	@ ../Libraries/STM32F4xx_StdPeriph_Driver/src/stm32f4xx_sdio.c:873:   assert_param(IS_SDIO_FLAG(SDI
 1663              		.loc 1 873 16 discriminator 14 view .LVU326
 1664 0012 B0F5807F 		cmp	r0, #256	@ SDIO_FLAG,
 1665 0016 29D0     		beq	.L127		@,
 1666              	@ ../Libraries/STM32F4xx_StdPeriph_Driver/src/stm32f4xx_sdio.c:873:   assert_param(IS_SDIO_FLAG(SDI
 1667              		.loc 1 873 16 discriminator 16 view .LVU327
 1668 0018 B0F5007F 		cmp	r0, #512	@ SDIO_FLAG,
 1669 001c 26D0     		beq	.L127		@,
 1670              	@ ../Libraries/STM32F4xx_StdPeriph_Driver/src/stm32f4xx_sdio.c:873:   assert_param(IS_SDIO_FLAG(SDI
 1671              		.loc 1 873 16 discriminator 18 view .LVU328
 1672 001e B0F5806F 		cmp	r0, #1024	@ SDIO_FLAG,
 1673 0022 23D0     		beq	.L127		@,
 1674              	@ ../Libraries/STM32F4xx_StdPeriph_Driver/src/stm32f4xx_sdio.c:873:   assert_param(IS_SDIO_FLAG(SDI
 1675              		.loc 1 873 16 discriminator 20 view .LVU329
 1676 0024 B0F5006F 		cmp	r0, #2048	@ SDIO_FLAG,
 1677 0028 20D0     		beq	.L127		@,
 1678              	@ ../Libraries/STM32F4xx_StdPeriph_Driver/src/stm32f4xx_sdio.c:873:   assert_param(IS_SDIO_FLAG(SDI
 1679              		.loc 1 873 16 discriminator 22 view .LVU330
 1680 002a B0F5805F 		cmp	r0, #4096	@ SDIO_FLAG,
 1681 002e 1DD0     		beq	.L127		@,
 1682              	@ ../Libraries/STM32F4xx_StdPeriph_Driver/src/stm32f4xx_sdio.c:873:   assert_param(IS_SDIO_FLAG(SDI
 1683              		.loc 1 873 16 discriminator 24 view .LVU331
 1684 0030 B0F5005F 		cmp	r0, #8192	@ SDIO_FLAG,
 1685 0034 1AD0     		beq	.L127		@,
 1686              	@ ../Libraries/STM32F4xx_StdPeriph_Driver/src/stm32f4xx_sdio.c:873:   assert_param(IS_SDIO_FLAG(SDI
 1687              		.loc 1 873 16 discriminator 26 view .LVU332
ARM GAS  C:\Users\admin\AppData\Local\Temp\ccIRU4x5.s 			page 47


 1688 0036 B0F5804F 		cmp	r0, #16384	@ SDIO_FLAG,
 1689 003a 17D0     		beq	.L127		@,
 1690              	@ ../Libraries/STM32F4xx_StdPeriph_Driver/src/stm32f4xx_sdio.c:873:   assert_param(IS_SDIO_FLAG(SDI
 1691              		.loc 1 873 16 discriminator 28 view .LVU333
 1692 003c B0F5004F 		cmp	r0, #32768	@ SDIO_FLAG,
 1693 0040 14D0     		beq	.L127		@,
 1694              	@ ../Libraries/STM32F4xx_StdPeriph_Driver/src/stm32f4xx_sdio.c:873:   assert_param(IS_SDIO_FLAG(SDI
 1695              		.loc 1 873 16 discriminator 30 view .LVU334
 1696 0042 B0F5803F 		cmp	r0, #65536	@ SDIO_FLAG,
 1697 0046 11D0     		beq	.L127		@,
 1698              	@ ../Libraries/STM32F4xx_StdPeriph_Driver/src/stm32f4xx_sdio.c:873:   assert_param(IS_SDIO_FLAG(SDI
 1699              		.loc 1 873 16 discriminator 32 view .LVU335
 1700 0048 B0F5003F 		cmp	r0, #131072	@ SDIO_FLAG,
 1701 004c 0ED0     		beq	.L127		@,
 1702              	@ ../Libraries/STM32F4xx_StdPeriph_Driver/src/stm32f4xx_sdio.c:873:   assert_param(IS_SDIO_FLAG(SDI
 1703              		.loc 1 873 16 discriminator 34 view .LVU336
 1704 004e B0F5802F 		cmp	r0, #262144	@ SDIO_FLAG,
 1705 0052 0BD0     		beq	.L127		@,
 1706              	@ ../Libraries/STM32F4xx_StdPeriph_Driver/src/stm32f4xx_sdio.c:873:   assert_param(IS_SDIO_FLAG(SDI
 1707              		.loc 1 873 16 discriminator 36 view .LVU337
 1708 0054 B0F5002F 		cmp	r0, #524288	@ SDIO_FLAG,
 1709 0058 08D0     		beq	.L127		@,
 1710              	@ ../Libraries/STM32F4xx_StdPeriph_Driver/src/stm32f4xx_sdio.c:873:   assert_param(IS_SDIO_FLAG(SDI
 1711              		.loc 1 873 16 discriminator 38 view .LVU338
 1712 005a B0F5801F 		cmp	r0, #1048576	@ SDIO_FLAG,
 1713 005e 05D0     		beq	.L127		@,
 1714              	@ ../Libraries/STM32F4xx_StdPeriph_Driver/src/stm32f4xx_sdio.c:873:   assert_param(IS_SDIO_FLAG(SDI
 1715              		.loc 1 873 16 discriminator 40 view .LVU339
 1716 0060 B0F5001F 		cmp	r0, #2097152	@ SDIO_FLAG,
 1717 0064 02D0     		beq	.L127		@,
 1718              	@ ../Libraries/STM32F4xx_StdPeriph_Driver/src/stm32f4xx_sdio.c:873:   assert_param(IS_SDIO_FLAG(SDI
 1719              		.loc 1 873 16 discriminator 42 view .LVU340
 1720 0066 B0F5800F 		cmp	r0, #4194304	@ SDIO_FLAG,
 1721 006a 0ED1     		bne	.L110		@,
 1722              	.L127:
 1723              	@ ../Libraries/STM32F4xx_StdPeriph_Driver/src/stm32f4xx_sdio.c:873:   assert_param(IS_SDIO_FLAG(SDI
 1724              		.loc 1 873 3 view .LVU341
 1725 006c 0120     		movs	r0, #1	@ iftmp.16_5,
 1726              	.LVL90:
 1727              	.L108:
 1728              	@ ../Libraries/STM32F4xx_StdPeriph_Driver/src/stm32f4xx_sdio.c:873:   assert_param(IS_SDIO_FLAG(SDI
 1729              		.loc 1 873 3 discriminator 48 view .LVU342
 1730 006e FFF7FEFF 		bl	assert_param		@
 1731              	.LVL91:
 874:../Libraries/STM32F4xx_StdPeriph_Driver/src/stm32f4xx_sdio.c ****   
 875:../Libraries/STM32F4xx_StdPeriph_Driver/src/stm32f4xx_sdio.c ****   if ((SDIO->STA & SDIO_FLAG) != (uint32_t)RESET)
 1732              		.loc 1 875 3 is_stmt 1 discriminator 48 view .LVU343
 1733              	@ ../Libraries/STM32F4xx_StdPeriph_Driver/src/stm32f4xx_sdio.c:875:   if ((SDIO->STA & SDIO_FLAG) !
 1734              		.loc 1 875 12 is_stmt 0 discriminator 48 view .LVU344
 1735 0072 084B     		ldr	r3, .L130	@ tmp134,
 1736 0074 5B6B     		ldr	r3, [r3, #52]	@ _2, MEM[(struct SDIO_TypeDef *)1073818624B].STA
 1737              	.LVL92:
 876:../Libraries/STM32F4xx_StdPeriph_Driver/src/stm32f4xx_sdio.c ****   {
 877:../Libraries/STM32F4xx_StdPeriph_Driver/src/stm32f4xx_sdio.c ****     bitstatus = SET;
 878:../Libraries/STM32F4xx_StdPeriph_Driver/src/stm32f4xx_sdio.c ****   }
 879:../Libraries/STM32F4xx_StdPeriph_Driver/src/stm32f4xx_sdio.c ****   else
 880:../Libraries/STM32F4xx_StdPeriph_Driver/src/stm32f4xx_sdio.c ****   {
ARM GAS  C:\Users\admin\AppData\Local\Temp\ccIRU4x5.s 			page 48


 881:../Libraries/STM32F4xx_StdPeriph_Driver/src/stm32f4xx_sdio.c ****     bitstatus = RESET;
 882:../Libraries/STM32F4xx_StdPeriph_Driver/src/stm32f4xx_sdio.c ****   }
 883:../Libraries/STM32F4xx_StdPeriph_Driver/src/stm32f4xx_sdio.c ****   return bitstatus;
 1738              		.loc 1 883 3 is_stmt 1 discriminator 48 view .LVU345
 1739              	@ ../Libraries/STM32F4xx_StdPeriph_Driver/src/stm32f4xx_sdio.c:875:   if ((SDIO->STA & SDIO_FLAG) !
 875:../Libraries/STM32F4xx_StdPeriph_Driver/src/stm32f4xx_sdio.c ****   {
 1740              		.loc 1 875 6 is_stmt 0 discriminator 48 view .LVU346
 1741 0076 2342     		tst	r3, r4	@ _2, SDIO_FLAG
 1742              	@ ../Libraries/STM32F4xx_StdPeriph_Driver/src/stm32f4xx_sdio.c:884: }
 884:../Libraries/STM32F4xx_StdPeriph_Driver/src/stm32f4xx_sdio.c **** }
 1743              		.loc 1 884 1 discriminator 48 view .LVU347
 1744 0078 14BF     		ite	ne
 1745 007a 0120     		movne	r0, #1	@,
 1746 007c 0020     		moveq	r0, #0	@,
 1747 007e 10BD     		pop	{r4, pc}	@
 1748              	.LVL93:
 1749              	.L107:
 1750              	@ ../Libraries/STM32F4xx_StdPeriph_Driver/src/stm32f4xx_sdio.c:873:   assert_param(IS_SDIO_FLAG(SDI
 873:../Libraries/STM32F4xx_StdPeriph_Driver/src/stm32f4xx_sdio.c ****   
 1751              		.loc 1 873 3 view .LVU348
 1752 0080 054A     		ldr	r2, .L130+4	@ tmp126,
 1753 0082 22FA03F3 		lsr	r3, r2, r3	@ tmp125, tmp126, _4
 1754 0086 DA07     		lsls	r2, r3, #31	@, tmp125,
 1755 0088 F0D4     		bmi	.L127		@,
 1756              	.L110:
 1757              	@ ../Libraries/STM32F4xx_StdPeriph_Driver/src/stm32f4xx_sdio.c:873:   assert_param(IS_SDIO_FLAG(SDI
 873:../Libraries/STM32F4xx_StdPeriph_Driver/src/stm32f4xx_sdio.c ****   
 1758              		.loc 1 873 3 discriminator 44 view .LVU349
 1759 008a A4F50003 		sub	r3, r4, #8388608	@, SDIO_FLAG,
 1760 008e 5842     		rsbs	r0, r3, #0	@ iftmp.16_5,,
 1761              	.LVL94:
 873:../Libraries/STM32F4xx_StdPeriph_Driver/src/stm32f4xx_sdio.c ****   
 1762              		.loc 1 873 3 discriminator 44 view .LVU350
 1763 0090 5841     		adcs	r0, r0, r3	@ iftmp.16_5, iftmp.16_5,
 1764 0092 ECE7     		b	.L108		@
 1765              	.L131:
 1766              		.align	2
 1767              	.L130:
 1768 0094 002C0140 		.word	1073818624
 1769 0098 8B800080 		.word	-2147450741
 1770              		.cfi_endproc
 1771              	.LFE136:
 1772              		.size	SDIO_GetFlagStatus, .-SDIO_GetFlagStatus
 1773              		.section	.text.SDIO_ClearFlag,"ax",%progbits
 1774              		.align	1
 1775              		.p2align 2,,3
 1776              		.global	SDIO_ClearFlag
 1777              		.syntax unified
 1778              		.thumb
 1779              		.thumb_func
 1780              		.type	SDIO_ClearFlag, %function
 1781              	SDIO_ClearFlag:
 1782              	.LVL95:
 1783              	.LFB137:
 885:../Libraries/STM32F4xx_StdPeriph_Driver/src/stm32f4xx_sdio.c **** 
 886:../Libraries/STM32F4xx_StdPeriph_Driver/src/stm32f4xx_sdio.c **** /**
 887:../Libraries/STM32F4xx_StdPeriph_Driver/src/stm32f4xx_sdio.c ****   * @brief  Clears the SDIO's pending flags.
ARM GAS  C:\Users\admin\AppData\Local\Temp\ccIRU4x5.s 			page 49


 888:../Libraries/STM32F4xx_StdPeriph_Driver/src/stm32f4xx_sdio.c ****   * @param  SDIO_FLAG: specifies the flag to clear.  
 889:../Libraries/STM32F4xx_StdPeriph_Driver/src/stm32f4xx_sdio.c ****   *          This parameter can be one or a combination of the following values:
 890:../Libraries/STM32F4xx_StdPeriph_Driver/src/stm32f4xx_sdio.c ****   *            @arg SDIO_FLAG_CCRCFAIL: Command response received (CRC check failed)
 891:../Libraries/STM32F4xx_StdPeriph_Driver/src/stm32f4xx_sdio.c ****   *            @arg SDIO_FLAG_DCRCFAIL: Data block sent/received (CRC check failed)
 892:../Libraries/STM32F4xx_StdPeriph_Driver/src/stm32f4xx_sdio.c ****   *            @arg SDIO_FLAG_CTIMEOUT: Command response timeout
 893:../Libraries/STM32F4xx_StdPeriph_Driver/src/stm32f4xx_sdio.c ****   *            @arg SDIO_FLAG_DTIMEOUT: Data timeout
 894:../Libraries/STM32F4xx_StdPeriph_Driver/src/stm32f4xx_sdio.c ****   *            @arg SDIO_FLAG_TXUNDERR: Transmit FIFO underrun error
 895:../Libraries/STM32F4xx_StdPeriph_Driver/src/stm32f4xx_sdio.c ****   *            @arg SDIO_FLAG_RXOVERR:  Received FIFO overrun error
 896:../Libraries/STM32F4xx_StdPeriph_Driver/src/stm32f4xx_sdio.c ****   *            @arg SDIO_FLAG_CMDREND:  Command response received (CRC check passed)
 897:../Libraries/STM32F4xx_StdPeriph_Driver/src/stm32f4xx_sdio.c ****   *            @arg SDIO_FLAG_CMDSENT:  Command sent (no response required)
 898:../Libraries/STM32F4xx_StdPeriph_Driver/src/stm32f4xx_sdio.c ****   *            @arg SDIO_FLAG_DATAEND:  Data end (data counter, SDIDCOUNT, is zero)
 899:../Libraries/STM32F4xx_StdPeriph_Driver/src/stm32f4xx_sdio.c ****   *            @arg SDIO_FLAG_STBITERR: Start bit not detected on all data signals in wide bus mode
 900:../Libraries/STM32F4xx_StdPeriph_Driver/src/stm32f4xx_sdio.c ****   *            @arg SDIO_FLAG_DBCKEND:  Data block sent/received (CRC check passed)
 901:../Libraries/STM32F4xx_StdPeriph_Driver/src/stm32f4xx_sdio.c ****   *            @arg SDIO_FLAG_SDIOIT:   SD I/O interrupt received
 902:../Libraries/STM32F4xx_StdPeriph_Driver/src/stm32f4xx_sdio.c ****   *            @arg SDIO_FLAG_CEATAEND: CE-ATA command completion signal received for CMD61
 903:../Libraries/STM32F4xx_StdPeriph_Driver/src/stm32f4xx_sdio.c ****   * @retval None
 904:../Libraries/STM32F4xx_StdPeriph_Driver/src/stm32f4xx_sdio.c ****   */
 905:../Libraries/STM32F4xx_StdPeriph_Driver/src/stm32f4xx_sdio.c **** void SDIO_ClearFlag(uint32_t SDIO_FLAG)
 906:../Libraries/STM32F4xx_StdPeriph_Driver/src/stm32f4xx_sdio.c **** { 
 1784              		.loc 1 906 1 is_stmt 1 view -0
 1785              		.cfi_startproc
 1786              		@ args = 0, pretend = 0, frame = 0
 1787              		@ frame_needed = 0, uses_anonymous_args = 0
 907:../Libraries/STM32F4xx_StdPeriph_Driver/src/stm32f4xx_sdio.c ****   /* Check the parameters */
 908:../Libraries/STM32F4xx_StdPeriph_Driver/src/stm32f4xx_sdio.c ****   assert_param(IS_SDIO_CLEAR_FLAG(SDIO_FLAG));
 1788              		.loc 1 908 3 view .LVU352
 1789              	@ ../Libraries/STM32F4xx_StdPeriph_Driver/src/stm32f4xx_sdio.c:908:   assert_param(IS_SDIO_CLEAR_FL
 1790              		.loc 1 908 16 is_stmt 0 view .LVU353
 1791 0000 094B     		ldr	r3, .L136	@ tmp118,
 1792 0002 0340     		ands	r3, r3, r0	@, tmp118, tmp118, SDIO_FLAG
 1793              	@ ../Libraries/STM32F4xx_StdPeriph_Driver/src/stm32f4xx_sdio.c:906: { 
 906:../Libraries/STM32F4xx_StdPeriph_Driver/src/stm32f4xx_sdio.c ****   /* Check the parameters */
 1794              		.loc 1 906 1 view .LVU354
 1795 0004 10B5     		push	{r4, lr}	@
 1796              		.cfi_def_cfa_offset 8
 1797              		.cfi_offset 4, -8
 1798              		.cfi_offset 14, -4
 1799              	@ ../Libraries/STM32F4xx_StdPeriph_Driver/src/stm32f4xx_sdio.c:906: { 
 906:../Libraries/STM32F4xx_StdPeriph_Driver/src/stm32f4xx_sdio.c ****   /* Check the parameters */
 1800              		.loc 1 906 1 view .LVU355
 1801 0006 0446     		mov	r4, r0	@ SDIO_FLAG, tmp122
 1802              	@ ../Libraries/STM32F4xx_StdPeriph_Driver/src/stm32f4xx_sdio.c:908:   assert_param(IS_SDIO_CLEAR_FL
 1803              		.loc 1 908 3 view .LVU356
 1804 0008 3BB9     		cbnz	r3, .L134	@ tmp118,
 1805              	@ ../Libraries/STM32F4xx_StdPeriph_Driver/src/stm32f4xx_sdio.c:908:   assert_param(IS_SDIO_CLEAR_FL
 1806              		.loc 1 908 3 discriminator 1 view .LVU357
 1807 000a 0038     		subs	r0, r0, #0	@ iftmp.17_2, SDIO_FLAG,
 1808              	.LVL96:
 1809              		.loc 1 908 3 discriminator 1 view .LVU358
 1810 000c 18BF     		it	ne
 1811 000e 0120     		movne	r0, #1	@ iftmp.17_2,
 1812 0010 FFF7FEFF 		bl	assert_param		@
 1813              	.LVL97:
 909:../Libraries/STM32F4xx_StdPeriph_Driver/src/stm32f4xx_sdio.c ****    
 910:../Libraries/STM32F4xx_StdPeriph_Driver/src/stm32f4xx_sdio.c ****   SDIO->ICR = SDIO_FLAG;
 1814              		.loc 1 910 3 is_stmt 1 discriminator 1 view .LVU359
 1815              	@ ../Libraries/STM32F4xx_StdPeriph_Driver/src/stm32f4xx_sdio.c:910:   SDIO->ICR = SDIO_FLAG;
ARM GAS  C:\Users\admin\AppData\Local\Temp\ccIRU4x5.s 			page 50


 1816              		.loc 1 910 13 is_stmt 0 discriminator 1 view .LVU360
 1817 0014 054B     		ldr	r3, .L136+4	@ tmp121,
 1818 0016 9C63     		str	r4, [r3, #56]	@ SDIO_FLAG, MEM[(struct SDIO_TypeDef *)1073818624B].ICR
 1819              	@ ../Libraries/STM32F4xx_StdPeriph_Driver/src/stm32f4xx_sdio.c:911: }
 911:../Libraries/STM32F4xx_StdPeriph_Driver/src/stm32f4xx_sdio.c **** }
 1820              		.loc 1 911 1 discriminator 1 view .LVU361
 1821 0018 10BD     		pop	{r4, pc}	@
 1822              	.LVL98:
 1823              	.L134:
 1824              	@ ../Libraries/STM32F4xx_StdPeriph_Driver/src/stm32f4xx_sdio.c:908:   assert_param(IS_SDIO_CLEAR_FL
 908:../Libraries/STM32F4xx_StdPeriph_Driver/src/stm32f4xx_sdio.c ****    
 1825              		.loc 1 908 3 view .LVU362
 1826 001a 0020     		movs	r0, #0	@ iftmp.17_2,
 1827              	.LVL99:
 908:../Libraries/STM32F4xx_StdPeriph_Driver/src/stm32f4xx_sdio.c ****    
 1828              		.loc 1 908 3 view .LVU363
 1829 001c FFF7FEFF 		bl	assert_param		@
 1830              	.LVL100:
 910:../Libraries/STM32F4xx_StdPeriph_Driver/src/stm32f4xx_sdio.c **** }
 1831              		.loc 1 910 3 is_stmt 1 view .LVU364
 1832              	@ ../Libraries/STM32F4xx_StdPeriph_Driver/src/stm32f4xx_sdio.c:910:   SDIO->ICR = SDIO_FLAG;
 910:../Libraries/STM32F4xx_StdPeriph_Driver/src/stm32f4xx_sdio.c **** }
 1833              		.loc 1 910 13 is_stmt 0 view .LVU365
 1834 0020 024B     		ldr	r3, .L136+4	@ tmp121,
 1835 0022 9C63     		str	r4, [r3, #56]	@ SDIO_FLAG, MEM[(struct SDIO_TypeDef *)1073818624B].ICR
 1836              	@ ../Libraries/STM32F4xx_StdPeriph_Driver/src/stm32f4xx_sdio.c:911: }
 1837              		.loc 1 911 1 view .LVU366
 1838 0024 10BD     		pop	{r4, pc}	@
 1839              	.LVL101:
 1840              	.L137:
 1841              		.loc 1 911 1 view .LVU367
 1842 0026 00BF     		.align	2
 1843              	.L136:
 1844 0028 00F83FFF 		.word	-12584960
 1845 002c 002C0140 		.word	1073818624
 1846              		.cfi_endproc
 1847              	.LFE137:
 1848              		.size	SDIO_ClearFlag, .-SDIO_ClearFlag
 1849              		.section	.text.SDIO_GetITStatus,"ax",%progbits
 1850              		.align	1
 1851              		.p2align 2,,3
 1852              		.global	SDIO_GetITStatus
 1853              		.syntax unified
 1854              		.thumb
 1855              		.thumb_func
 1856              		.type	SDIO_GetITStatus, %function
 1857              	SDIO_GetITStatus:
 1858              	.LFB141:
 1859              		.cfi_startproc
 1860              		@ args = 0, pretend = 0, frame = 0
 1861              		@ frame_needed = 0, uses_anonymous_args = 0
 1862 0000 431E     		subs	r3, r0, #1	@ _9, SDIO_IT,
 1863 0002 1F2B     		cmp	r3, #31	@ _9,
 1864 0004 10B5     		push	{r4, lr}	@
 1865              		.cfi_def_cfa_offset 8
 1866              		.cfi_offset 4, -8
 1867              		.cfi_offset 14, -4
ARM GAS  C:\Users\admin\AppData\Local\Temp\ccIRU4x5.s 			page 51


 1868 0006 0446     		mov	r4, r0	@ SDIO_IT, tmp139
 1869 0008 3AD9     		bls	.L139		@,
 1870 000a 4028     		cmp	r0, #64	@ SDIO_IT,
 1871 000c 2ED0     		beq	.L159		@,
 1872 000e 8028     		cmp	r0, #128	@ SDIO_IT,
 1873 0010 2CD0     		beq	.L159		@,
 1874 0012 B0F5807F 		cmp	r0, #256	@ SDIO_IT,
 1875 0016 29D0     		beq	.L159		@,
 1876 0018 B0F5007F 		cmp	r0, #512	@ SDIO_IT,
 1877 001c 26D0     		beq	.L159		@,
 1878 001e B0F5806F 		cmp	r0, #1024	@ SDIO_IT,
 1879 0022 23D0     		beq	.L159		@,
 1880 0024 B0F5006F 		cmp	r0, #2048	@ SDIO_IT,
 1881 0028 20D0     		beq	.L159		@,
 1882 002a B0F5805F 		cmp	r0, #4096	@ SDIO_IT,
 1883 002e 1DD0     		beq	.L159		@,
 1884 0030 B0F5005F 		cmp	r0, #8192	@ SDIO_IT,
 1885 0034 1AD0     		beq	.L159		@,
 1886 0036 B0F5804F 		cmp	r0, #16384	@ SDIO_IT,
 1887 003a 17D0     		beq	.L159		@,
 1888 003c B0F5004F 		cmp	r0, #32768	@ SDIO_IT,
 1889 0040 14D0     		beq	.L159		@,
 1890 0042 B0F5803F 		cmp	r0, #65536	@ SDIO_IT,
 1891 0046 11D0     		beq	.L159		@,
 1892 0048 B0F5003F 		cmp	r0, #131072	@ SDIO_IT,
 1893 004c 0ED0     		beq	.L159		@,
 1894 004e B0F5802F 		cmp	r0, #262144	@ SDIO_IT,
 1895 0052 0BD0     		beq	.L159		@,
 1896 0054 B0F5002F 		cmp	r0, #524288	@ SDIO_IT,
 1897 0058 08D0     		beq	.L159		@,
 1898 005a B0F5801F 		cmp	r0, #1048576	@ SDIO_IT,
 1899 005e 05D0     		beq	.L159		@,
 1900 0060 B0F5001F 		cmp	r0, #2097152	@ SDIO_IT,
 1901 0064 02D0     		beq	.L159		@,
 1902 0066 B0F5800F 		cmp	r0, #4194304	@ SDIO_IT,
 1903 006a 0ED1     		bne	.L142		@,
 1904              	.L159:
 1905 006c 0120     		movs	r0, #1	@ iftmp.16_6,
 1906              	.L140:
 1907 006e FFF7FEFF 		bl	assert_param		@
 1908 0072 084B     		ldr	r3, .L162	@ tmp134,
 1909 0074 5B6B     		ldr	r3, [r3, #52]	@ _7, MEM[(struct SDIO_TypeDef *)1073818624B].STA
 1910 0076 1C42     		tst	r4, r3	@ SDIO_IT, _7
 1911 0078 14BF     		ite	ne
 1912 007a 0120     		movne	r0, #1	@,
 1913 007c 0020     		moveq	r0, #0	@,
 1914 007e 10BD     		pop	{r4, pc}	@
 1915              	.L139:
 1916 0080 054A     		ldr	r2, .L162+4	@ tmp126,
 1917 0082 22FA03F3 		lsr	r3, r2, r3	@ tmp125, tmp126, _9
 1918 0086 DA07     		lsls	r2, r3, #31	@, tmp125,
 1919 0088 F0D4     		bmi	.L159		@,
 1920              	.L142:
 1921 008a A4F50003 		sub	r3, r4, #8388608	@, SDIO_IT,
 1922 008e 5842     		rsbs	r0, r3, #0	@ iftmp.16_6,,
 1923 0090 5841     		adcs	r0, r0, r3	@ iftmp.16_6, iftmp.16_6,
 1924 0092 ECE7     		b	.L140		@
ARM GAS  C:\Users\admin\AppData\Local\Temp\ccIRU4x5.s 			page 52


 1925              	.L163:
 1926              		.align	2
 1927              	.L162:
 1928 0094 002C0140 		.word	1073818624
 1929 0098 8B800080 		.word	-2147450741
 1930              		.cfi_endproc
 1931              	.LFE141:
 1932              		.size	SDIO_GetITStatus, .-SDIO_GetITStatus
 1933              		.section	.text.SDIO_ClearITPendingBit,"ax",%progbits
 1934              		.align	1
 1935              		.p2align 2,,3
 1936              		.global	SDIO_ClearITPendingBit
 1937              		.syntax unified
 1938              		.thumb
 1939              		.thumb_func
 1940              		.type	SDIO_ClearITPendingBit, %function
 1941              	SDIO_ClearITPendingBit:
 1942              	.LFB143:
 1943              		.cfi_startproc
 1944              		@ args = 0, pretend = 0, frame = 0
 1945              		@ frame_needed = 0, uses_anonymous_args = 0
 1946 0000 094B     		ldr	r3, .L168	@ tmp118,
 1947 0002 0340     		ands	r3, r3, r0	@, tmp118, tmp118, SDIO_IT
 1948 0004 10B5     		push	{r4, lr}	@
 1949              		.cfi_def_cfa_offset 8
 1950              		.cfi_offset 4, -8
 1951              		.cfi_offset 14, -4
 1952 0006 0446     		mov	r4, r0	@ SDIO_IT, tmp122
 1953 0008 3BB9     		cbnz	r3, .L166	@ tmp118,
 1954 000a 0038     		subs	r0, r0, #0	@ iftmp.17_5, SDIO_IT,
 1955 000c 18BF     		it	ne
 1956 000e 0120     		movne	r0, #1	@ iftmp.17_5,
 1957 0010 FFF7FEFF 		bl	assert_param		@
 1958 0014 054B     		ldr	r3, .L168+4	@ tmp121,
 1959 0016 9C63     		str	r4, [r3, #56]	@ SDIO_IT, MEM[(struct SDIO_TypeDef *)1073818624B].ICR
 1960 0018 10BD     		pop	{r4, pc}	@
 1961              	.L166:
 1962 001a 0020     		movs	r0, #0	@ iftmp.17_5,
 1963 001c FFF7FEFF 		bl	assert_param		@
 1964 0020 024B     		ldr	r3, .L168+4	@ tmp121,
 1965 0022 9C63     		str	r4, [r3, #56]	@ SDIO_IT, MEM[(struct SDIO_TypeDef *)1073818624B].ICR
 1966 0024 10BD     		pop	{r4, pc}	@
 1967              	.L169:
 1968 0026 00BF     		.align	2
 1969              	.L168:
 1970 0028 00F83FFF 		.word	-12584960
 1971 002c 002C0140 		.word	1073818624
 1972              		.cfi_endproc
 1973              	.LFE143:
 1974              		.size	SDIO_ClearITPendingBit, .-SDIO_ClearITPendingBit
 1975              		.text
 1976              	.Letext0:
 1977              		.file 2 "c:\\program files (x86)\\gnu arm embedded toolchain\\10 2021.10\\arm-none-eabi\\include\\
 1978              		.file 3 "c:\\program files (x86)\\gnu arm embedded toolchain\\10 2021.10\\arm-none-eabi\\include\\
 1979              		.file 4 "../Libraries/CMSIS/ST/STM32F4xx/Include/stm32f4xx.h"
 1980              		.file 5 "../Libraries/STM32F4xx_StdPeriph_Driver/inc/stm32f4xx_sdio.h"
 1981              		.file 6 "../Libraries/STM32F4xx_StdPeriph_Driver/inc/stm32f4xx_rcc.h"
ARM GAS  C:\Users\admin\AppData\Local\Temp\ccIRU4x5.s 			page 53

