ARM GAS  C:\Users\admin\AppData\Local\Temp\ccVYnskz.s 			page 1


   1              		.cpu cortex-m4
   2              		.arch armv7e-m
   3              		.fpu fpv4-sp-d16
   4              		.eabi_attribute 27, 1	@ Tag_ABI_HardFP_use
   5              		.eabi_attribute 28, 1	@ Tag_ABI_VFP_args
   6              		.eabi_attribute 23, 1	@ Tag_ABI_FP_number_model
   7              		.eabi_attribute 24, 1	@ Tag_ABI_align8_needed
   8              		.eabi_attribute 25, 1	@ Tag_ABI_align8_preserved
   9              		.eabi_attribute 26, 1	@ Tag_ABI_enum_size
  10              		.eabi_attribute 30, 2	@ Tag_ABI_optimization_goals
  11              		.eabi_attribute 34, 1	@ Tag_CPU_unaligned_access
  12              		.eabi_attribute 18, 4	@ Tag_ABI_PCS_wchar_t
  13              		.file	"stm32f4xx_hash.c"
  14              	@ GNU C89 (GNU Arm Embedded Toolchain 10.3-2021.10) version 10.3.1 20210824 (release) (arm-none-eab
  15              	@	compiled by GNU C version 7.3-win32 20180312, GMP version 6.1.0, MPFR version 3.1.4, MPC version 
  16              	
  17              	@ GGC heuristics: --param ggc-min-expand=100 --param ggc-min-heapsize=131072
  18              	@ options passed:  -I . -I . -I ../Utilities/STM32F4-Discovery/
  19              	@ -I ../Libraries/STM32_USB_Device_Library/Class/audio/inc/
  20              	@ -I ../Libraries/STM32_USB_Device_Library/Core/inc/
  21              	@ -I ../Libraries/STM32_USB_OTG_Driver/inc/
  22              	@ -I ../Utilities/STM32F4-Discovery/
  23              	@ -I ../Libraries/STM32F4xx_StdPeriph_Driver/inc/
  24              	@ -I ../Utilities/STM32F4-Discovery/
  25              	@ -I ../Libraries/CMSIS/ST/STM32F4xx/Include/
  26              	@ -I ../Libraries/CMSIS/Include/ -imultilib thumb/v7e-m+fp/hard
  27              	@ -iprefix c:\program files (x86)\gnu arm embedded toolchain\10 2021.10\bin\../lib/gcc/arm-none-eab
  28              	@ -isysroot c:\program files (x86)\gnu arm embedded toolchain\10 2021.10\bin\../arm-none-eabi
  29              	@ -MD out/stm32f4xx_hash.d -MF out/stm32f4xx_hash.d -MP
  30              	@ -MQ out/stm32f4xx_hash.o -D__USES_INITFINI__ -D STM32F4XX -D __VFP_FP__
  31              	@ -D USE_USB_OTG_FS
  32              	@ ../Libraries/STM32F4xx_StdPeriph_Driver/src/stm32f4xx_hash.c
  33              	@ -mcpu=cortex-m4 -mthumb -mfloat-abi=hard -mfpu=fpv4-sp-d16
  34              	@ -mlibarch=armv7e-m+fp -march=armv7e-m+fp
  35              	@ -auxbase-strip out/stm32f4xx_hash.o -g -ggdb3 -O3 -Wall
  36              	@ -Wstrict-prototypes -Wextra -std=gnu90 -ffast-math -ffunction-sections
  37              	@ -fdata-sections -fverbose-asm
  38              	@ options enabled:  -faggressive-loop-optimizations -falign-functions
  39              	@ -falign-jumps -falign-labels -falign-loops -fallocation-dce
  40              	@ -fassociative-math -fauto-inc-dec -fbranch-count-reg -fcaller-saves
  41              	@ -fcombine-stack-adjustments -fcompare-elim -fcprop-registers
  42              	@ -fcrossjumping -fcse-follow-jumps -fcx-limited-range -fdata-sections
  43              	@ -fdefer-pop -fdelete-null-pointer-checks -fdevirtualize
  44              	@ -fdevirtualize-speculatively -fdwarf2-cfi-asm -fearly-inlining
  45              	@ -feliminate-unused-debug-symbols -feliminate-unused-debug-types
  46              	@ -fexpensive-optimizations -ffinite-math-only -fforward-propagate
  47              	@ -ffp-int-builtin-inexact -ffunction-cse -ffunction-sections -fgcse
  48              	@ -fgcse-after-reload -fgcse-lm -fgnu-unique -fguess-branch-probability
  49              	@ -fhoist-adjacent-loads -fident -fif-conversion -fif-conversion2
  50              	@ -findirect-inlining -finline -finline-atomics -finline-functions
  51              	@ -finline-functions-called-once -finline-small-functions -fipa-bit-cp
  52              	@ -fipa-cp -fipa-cp-clone -fipa-icf -fipa-icf-functions -fipa-icf-variables
  53              	@ -fipa-profile -fipa-pure-const -fipa-ra -fipa-reference
  54              	@ -fipa-reference-addressable -fipa-sra -fipa-stack-alignment -fipa-vrp
  55              	@ -fira-hoist-pressure -fira-share-save-slots -fira-share-spill-slots
  56              	@ -fisolate-erroneous-paths-dereference -fivopts -fkeep-static-consts
  57              	@ -fleading-underscore -flifetime-dse -floop-interchange
ARM GAS  C:\Users\admin\AppData\Local\Temp\ccVYnskz.s 			page 2


  58              	@ -floop-unroll-and-jam -flra-remat -fmerge-constants -fmerge-debug-strings
  59              	@ -fmove-loop-invariants -fomit-frame-pointer -foptimize-sibling-calls
  60              	@ -foptimize-strlen -fpartial-inlining -fpeel-loops -fpeephole -fpeephole2
  61              	@ -fplt -fpredictive-commoning -fprefetch-loop-arrays -freciprocal-math
  62              	@ -freg-struct-return -freorder-blocks -freorder-functions
  63              	@ -frerun-cse-after-loop -fsched-critical-path-heuristic
  64              	@ -fsched-dep-count-heuristic -fsched-group-heuristic -fsched-interblock
  65              	@ -fsched-last-insn-heuristic -fsched-pressure -fsched-rank-heuristic
  66              	@ -fsched-spec -fsched-spec-insn-heuristic -fsched-stalled-insns-dep
  67              	@ -fschedule-insns -fschedule-insns2 -fsection-anchors
  68              	@ -fsemantic-interposition -fshow-column -fshrink-wrap
  69              	@ -fshrink-wrap-separate -fsplit-ivs-in-unroller -fsplit-loops
  70              	@ -fsplit-paths -fsplit-wide-types -fssa-backprop -fssa-phiopt -fstdarg-opt
  71              	@ -fstore-merging -fstrict-aliasing -fstrict-volatile-bitfields
  72              	@ -fsync-libcalls -fthread-jumps -ftoplevel-reorder -ftree-bit-ccp
  73              	@ -ftree-builtin-call-dce -ftree-ccp -ftree-ch -ftree-coalesce-vars
  74              	@ -ftree-copy-prop -ftree-cselim -ftree-dce -ftree-dominator-opts
  75              	@ -ftree-dse -ftree-forwprop -ftree-fre -ftree-loop-distribute-patterns
  76              	@ -ftree-loop-distribution -ftree-loop-if-convert -ftree-loop-im
  77              	@ -ftree-loop-ivcanon -ftree-loop-optimize -ftree-loop-vectorize
  78              	@ -ftree-parallelize-loops= -ftree-partial-pre -ftree-phiprop -ftree-pre
  79              	@ -ftree-pta -ftree-reassoc -ftree-scev-cprop -ftree-sink
  80              	@ -ftree-slp-vectorize -ftree-slsr -ftree-sra -ftree-switch-conversion
  81              	@ -ftree-tail-merge -ftree-ter -ftree-vrp -funit-at-a-time
  82              	@ -funsafe-math-optimizations -funswitch-loops -fvar-tracking
  83              	@ -fvar-tracking-assignments -fverbose-asm -fversion-loops-for-strides
  84              	@ -fzero-initialized-in-bss -masm-syntax-unified -mbe32 -mlittle-endian
  85              	@ -mpic-data-is-text-relative -msched-prolog -mthumb -munaligned-access
  86              	@ -mvectorize-with-neon-quad
  87              	
  88              		.text
  89              	.Ltext0:
  90              		.cfi_sections	.debug_frame
  91              		.section	.text.HASH_DeInit,"ax",%progbits
  92              		.align	1
  93              		.p2align 2,,3
  94              		.global	HASH_DeInit
  95              		.syntax unified
  96              		.thumb
  97              		.thumb_func
  98              		.type	HASH_DeInit, %function
  99              	HASH_DeInit:
 100              	.LFB110:
 101              		.file 1 "../Libraries/STM32F4xx_StdPeriph_Driver/src/stm32f4xx_hash.c"
   1:../Libraries/STM32F4xx_StdPeriph_Driver/src/stm32f4xx_hash.c **** /**
   2:../Libraries/STM32F4xx_StdPeriph_Driver/src/stm32f4xx_hash.c ****   ******************************************************************************
   3:../Libraries/STM32F4xx_StdPeriph_Driver/src/stm32f4xx_hash.c ****   * @file    stm32f4xx_hash.c
   4:../Libraries/STM32F4xx_StdPeriph_Driver/src/stm32f4xx_hash.c ****   * @author  MCD Application Team
   5:../Libraries/STM32F4xx_StdPeriph_Driver/src/stm32f4xx_hash.c ****   * @version V1.0.0
   6:../Libraries/STM32F4xx_StdPeriph_Driver/src/stm32f4xx_hash.c ****   * @date    30-September-2011
   7:../Libraries/STM32F4xx_StdPeriph_Driver/src/stm32f4xx_hash.c ****   * @brief   This file provides firmware functions to manage the following 
   8:../Libraries/STM32F4xx_StdPeriph_Driver/src/stm32f4xx_hash.c ****   *          functionalities of the HASH / HMAC Processor (HASH) peripheral:           
   9:../Libraries/STM32F4xx_StdPeriph_Driver/src/stm32f4xx_hash.c ****   *           - Initialization and Configuration functions
  10:../Libraries/STM32F4xx_StdPeriph_Driver/src/stm32f4xx_hash.c ****   *           - Message Digest generation functions
  11:../Libraries/STM32F4xx_StdPeriph_Driver/src/stm32f4xx_hash.c ****   *           - context swapping functions   
  12:../Libraries/STM32F4xx_StdPeriph_Driver/src/stm32f4xx_hash.c ****   *           - DMA interface function       
  13:../Libraries/STM32F4xx_StdPeriph_Driver/src/stm32f4xx_hash.c ****   *           - Interrupts and flags management       
ARM GAS  C:\Users\admin\AppData\Local\Temp\ccVYnskz.s 			page 3


  14:../Libraries/STM32F4xx_StdPeriph_Driver/src/stm32f4xx_hash.c ****   *         
  15:../Libraries/STM32F4xx_StdPeriph_Driver/src/stm32f4xx_hash.c ****   *  @verbatim
  16:../Libraries/STM32F4xx_StdPeriph_Driver/src/stm32f4xx_hash.c ****   *                               
  17:../Libraries/STM32F4xx_StdPeriph_Driver/src/stm32f4xx_hash.c ****   *          ===================================================================      
  18:../Libraries/STM32F4xx_StdPeriph_Driver/src/stm32f4xx_hash.c ****   *                                   How to use this driver
  19:../Libraries/STM32F4xx_StdPeriph_Driver/src/stm32f4xx_hash.c ****   *          ===================================================================
  20:../Libraries/STM32F4xx_StdPeriph_Driver/src/stm32f4xx_hash.c ****   *          HASH operation : 
  21:../Libraries/STM32F4xx_StdPeriph_Driver/src/stm32f4xx_hash.c ****   *          ----------------                   
  22:../Libraries/STM32F4xx_StdPeriph_Driver/src/stm32f4xx_hash.c ****   *         1. Enable the HASH controller clock using 
  23:../Libraries/STM32F4xx_StdPeriph_Driver/src/stm32f4xx_hash.c ****   *            RCC_AHB2PeriphClockCmd(RCC_AHB2Periph_HASH, ENABLE) function.
  24:../Libraries/STM32F4xx_StdPeriph_Driver/src/stm32f4xx_hash.c ****   *           
  25:../Libraries/STM32F4xx_StdPeriph_Driver/src/stm32f4xx_hash.c ****   *         2. Initialise the HASH using HASH_Init() function. 
  26:../Libraries/STM32F4xx_StdPeriph_Driver/src/stm32f4xx_hash.c ****   *               
  27:../Libraries/STM32F4xx_StdPeriph_Driver/src/stm32f4xx_hash.c ****   *         3 . Reset the HASH processor core, so that the HASH will be ready 
  28:../Libraries/STM32F4xx_StdPeriph_Driver/src/stm32f4xx_hash.c ****   *             to compute he message digest of a new message by using 
  29:../Libraries/STM32F4xx_StdPeriph_Driver/src/stm32f4xx_hash.c ****   *             HASH_Reset() function.
  30:../Libraries/STM32F4xx_StdPeriph_Driver/src/stm32f4xx_hash.c ****   *
  31:../Libraries/STM32F4xx_StdPeriph_Driver/src/stm32f4xx_hash.c ****   *         4. Enable the HASH controller using the HASH_Cmd() function. 
  32:../Libraries/STM32F4xx_StdPeriph_Driver/src/stm32f4xx_hash.c ****   *                
  33:../Libraries/STM32F4xx_StdPeriph_Driver/src/stm32f4xx_hash.c ****   *         5. if using DMA for Data input transfer, Activate the DMA Request 
  34:../Libraries/STM32F4xx_StdPeriph_Driver/src/stm32f4xx_hash.c ****   *            using HASH_DMACmd() function 
  35:../Libraries/STM32F4xx_StdPeriph_Driver/src/stm32f4xx_hash.c ****   *                    
  36:../Libraries/STM32F4xx_StdPeriph_Driver/src/stm32f4xx_hash.c ****   *         6. if DMA is not used for data transfer, use HASH_DataIn() function 
  37:../Libraries/STM32F4xx_StdPeriph_Driver/src/stm32f4xx_hash.c ****   *            to enter data to IN FIFO.
  38:../Libraries/STM32F4xx_StdPeriph_Driver/src/stm32f4xx_hash.c ****   *             
  39:../Libraries/STM32F4xx_StdPeriph_Driver/src/stm32f4xx_hash.c ****   *          
  40:../Libraries/STM32F4xx_StdPeriph_Driver/src/stm32f4xx_hash.c ****   *         7. Configure the Number of valid bits in last word of the message 
  41:../Libraries/STM32F4xx_StdPeriph_Driver/src/stm32f4xx_hash.c ****   *            using HASH_SetLastWordValidBitsNbr() function.
  42:../Libraries/STM32F4xx_StdPeriph_Driver/src/stm32f4xx_hash.c ****   *             
  43:../Libraries/STM32F4xx_StdPeriph_Driver/src/stm32f4xx_hash.c ****   *         8. if the message length is not an exact multiple of 512 bits, 
  44:../Libraries/STM32F4xx_StdPeriph_Driver/src/stm32f4xx_hash.c ****   *            then the function HASH_StartDigest() must be called to 
  45:../Libraries/STM32F4xx_StdPeriph_Driver/src/stm32f4xx_hash.c ****   *            launch the computation of the final digest.     
  46:../Libraries/STM32F4xx_StdPeriph_Driver/src/stm32f4xx_hash.c ****   *             
  47:../Libraries/STM32F4xx_StdPeriph_Driver/src/stm32f4xx_hash.c ****   *         9. Once computed, the digest can be read using HASH_GetDigest() 
  48:../Libraries/STM32F4xx_StdPeriph_Driver/src/stm32f4xx_hash.c ****   *            function.         
  49:../Libraries/STM32F4xx_StdPeriph_Driver/src/stm32f4xx_hash.c ****   *                   
  50:../Libraries/STM32F4xx_StdPeriph_Driver/src/stm32f4xx_hash.c ****   *        10. To control HASH events you can use one of the following 
  51:../Libraries/STM32F4xx_StdPeriph_Driver/src/stm32f4xx_hash.c ****   *              two methods:
  52:../Libraries/STM32F4xx_StdPeriph_Driver/src/stm32f4xx_hash.c ****   *               a- Check on HASH flags using the HASH_GetFlagStatus() function.  
  53:../Libraries/STM32F4xx_StdPeriph_Driver/src/stm32f4xx_hash.c ****   *               b- Use HASH interrupts through the function HASH_ITConfig() at 
  54:../Libraries/STM32F4xx_StdPeriph_Driver/src/stm32f4xx_hash.c ****   *                  initialization phase and HASH_GetITStatus() function into 
  55:../Libraries/STM32F4xx_StdPeriph_Driver/src/stm32f4xx_hash.c ****   *                  interrupt routines in hashing phase.
  56:../Libraries/STM32F4xx_StdPeriph_Driver/src/stm32f4xx_hash.c ****   *          After checking on a flag you should clear it using HASH_ClearFlag()
  57:../Libraries/STM32F4xx_StdPeriph_Driver/src/stm32f4xx_hash.c ****   *          function. And after checking on an interrupt event you should 
  58:../Libraries/STM32F4xx_StdPeriph_Driver/src/stm32f4xx_hash.c ****   *          clear it using HASH_ClearITPendingBit() function.     
  59:../Libraries/STM32F4xx_StdPeriph_Driver/src/stm32f4xx_hash.c ****   *                     
  60:../Libraries/STM32F4xx_StdPeriph_Driver/src/stm32f4xx_hash.c ****   *        11. Save and restore hash processor context using 
  61:../Libraries/STM32F4xx_StdPeriph_Driver/src/stm32f4xx_hash.c ****   *            HASH_SaveContext() and HASH_RestoreContext() functions.     
  62:../Libraries/STM32F4xx_StdPeriph_Driver/src/stm32f4xx_hash.c ****   *              
  63:../Libraries/STM32F4xx_StdPeriph_Driver/src/stm32f4xx_hash.c ****   *
  64:../Libraries/STM32F4xx_StdPeriph_Driver/src/stm32f4xx_hash.c ****   *            
  65:../Libraries/STM32F4xx_StdPeriph_Driver/src/stm32f4xx_hash.c ****   *          HMAC operation : 
  66:../Libraries/STM32F4xx_StdPeriph_Driver/src/stm32f4xx_hash.c ****   *          ----------------  
  67:../Libraries/STM32F4xx_StdPeriph_Driver/src/stm32f4xx_hash.c ****   *          The HMAC algorithm is used for message authentication, by 
  68:../Libraries/STM32F4xx_StdPeriph_Driver/src/stm32f4xx_hash.c ****   *          irreversibly binding the message being processed to a key chosen 
  69:../Libraries/STM32F4xx_StdPeriph_Driver/src/stm32f4xx_hash.c ****   *          by the user. 
  70:../Libraries/STM32F4xx_StdPeriph_Driver/src/stm32f4xx_hash.c ****   *          For HMAC specifications, refer to "HMAC: keyed-hashing for message 
ARM GAS  C:\Users\admin\AppData\Local\Temp\ccVYnskz.s 			page 4


  71:../Libraries/STM32F4xx_StdPeriph_Driver/src/stm32f4xx_hash.c ****   *          authentication, H. Krawczyk, M. Bellare, R. Canetti, February 1997"
  72:../Libraries/STM32F4xx_StdPeriph_Driver/src/stm32f4xx_hash.c ****   *          
  73:../Libraries/STM32F4xx_StdPeriph_Driver/src/stm32f4xx_hash.c ****   *          Basically, the HMAC algorithm consists of two nested hash operations:
  74:../Libraries/STM32F4xx_StdPeriph_Driver/src/stm32f4xx_hash.c ****   *          HMAC(message) = Hash[((key | pad) XOR 0x5C) | Hash(((key | pad) XOR 0x36) | message)]
  75:../Libraries/STM32F4xx_StdPeriph_Driver/src/stm32f4xx_hash.c ****   *          where:
  76:../Libraries/STM32F4xx_StdPeriph_Driver/src/stm32f4xx_hash.c ****   *          - "pad" is a sequence of zeroes needed to extend the key to the 
  77:../Libraries/STM32F4xx_StdPeriph_Driver/src/stm32f4xx_hash.c ****   *                  length of the underlying hash function data block (that is 
  78:../Libraries/STM32F4xx_StdPeriph_Driver/src/stm32f4xx_hash.c ****   *                  512 bits for both the SHA-1 and MD5 hash algorithms)
  79:../Libraries/STM32F4xx_StdPeriph_Driver/src/stm32f4xx_hash.c ****   *          - "|"   represents the concatenation operator 
  80:../Libraries/STM32F4xx_StdPeriph_Driver/src/stm32f4xx_hash.c ****   *          
  81:../Libraries/STM32F4xx_StdPeriph_Driver/src/stm32f4xx_hash.c ****   *         
  82:../Libraries/STM32F4xx_StdPeriph_Driver/src/stm32f4xx_hash.c ****   *         To compute the HMAC, four different phases are required:
  83:../Libraries/STM32F4xx_StdPeriph_Driver/src/stm32f4xx_hash.c ****   *                    
  84:../Libraries/STM32F4xx_StdPeriph_Driver/src/stm32f4xx_hash.c ****   *         1.  Initialise the HASH using HASH_Init() function to do HMAC 
  85:../Libraries/STM32F4xx_StdPeriph_Driver/src/stm32f4xx_hash.c ****   *             operation. 
  86:../Libraries/STM32F4xx_StdPeriph_Driver/src/stm32f4xx_hash.c ****   *                
  87:../Libraries/STM32F4xx_StdPeriph_Driver/src/stm32f4xx_hash.c ****   *         2.  The key (to be used for the inner hash function) is then given 
  88:../Libraries/STM32F4xx_StdPeriph_Driver/src/stm32f4xx_hash.c ****   *             to the core. This operation follows the same mechanism as the 
  89:../Libraries/STM32F4xx_StdPeriph_Driver/src/stm32f4xx_hash.c ****   *             one used to send the message in the hash operation (that is, 
  90:../Libraries/STM32F4xx_StdPeriph_Driver/src/stm32f4xx_hash.c ****   *             by HASH_DataIn() function and, finally, 
  91:../Libraries/STM32F4xx_StdPeriph_Driver/src/stm32f4xx_hash.c ****   *             HASH_StartDigest() function.
  92:../Libraries/STM32F4xx_StdPeriph_Driver/src/stm32f4xx_hash.c ****   *          
  93:../Libraries/STM32F4xx_StdPeriph_Driver/src/stm32f4xx_hash.c ****   *         3.  Once the last word has been entered and computation has started, 
  94:../Libraries/STM32F4xx_StdPeriph_Driver/src/stm32f4xx_hash.c ****   *             the hash processor elaborates the key. It is then ready to 
  95:../Libraries/STM32F4xx_StdPeriph_Driver/src/stm32f4xx_hash.c ****   *             accept the message text using the same mechanism as the one 
  96:../Libraries/STM32F4xx_StdPeriph_Driver/src/stm32f4xx_hash.c ****   *             used to send the message in the hash operation.
  97:../Libraries/STM32F4xx_StdPeriph_Driver/src/stm32f4xx_hash.c ****   *       
  98:../Libraries/STM32F4xx_StdPeriph_Driver/src/stm32f4xx_hash.c ****   *         4.  After the first hash round, the hash processor returns "ready" 
  99:../Libraries/STM32F4xx_StdPeriph_Driver/src/stm32f4xx_hash.c ****   *             to indicate that it is ready to receive the key to be used for 
 100:../Libraries/STM32F4xx_StdPeriph_Driver/src/stm32f4xx_hash.c ****   *             the outer hash function (normally, this key is the same as the 
 101:../Libraries/STM32F4xx_StdPeriph_Driver/src/stm32f4xx_hash.c ****   *             one used for the inner hash function). When the last word of 
 102:../Libraries/STM32F4xx_StdPeriph_Driver/src/stm32f4xx_hash.c ****   *             the key is entered and computation starts, the HMAC result is 
 103:../Libraries/STM32F4xx_StdPeriph_Driver/src/stm32f4xx_hash.c ****   *             made available using HASH_GetDigest() function.
 104:../Libraries/STM32F4xx_StdPeriph_Driver/src/stm32f4xx_hash.c ****   *               
 105:../Libraries/STM32F4xx_StdPeriph_Driver/src/stm32f4xx_hash.c ****   *              
 106:../Libraries/STM32F4xx_StdPeriph_Driver/src/stm32f4xx_hash.c ****   *  @endverbatim
 107:../Libraries/STM32F4xx_StdPeriph_Driver/src/stm32f4xx_hash.c ****   *         
 108:../Libraries/STM32F4xx_StdPeriph_Driver/src/stm32f4xx_hash.c ****   ******************************************************************************
 109:../Libraries/STM32F4xx_StdPeriph_Driver/src/stm32f4xx_hash.c ****   * @attention
 110:../Libraries/STM32F4xx_StdPeriph_Driver/src/stm32f4xx_hash.c ****   *
 111:../Libraries/STM32F4xx_StdPeriph_Driver/src/stm32f4xx_hash.c ****   * THE PRESENT FIRMWARE WHICH IS FOR GUIDANCE ONLY AIMS AT PROVIDING CUSTOMERS
 112:../Libraries/STM32F4xx_StdPeriph_Driver/src/stm32f4xx_hash.c ****   * WITH CODING INFORMATION REGARDING THEIR PRODUCTS IN ORDER FOR THEM TO SAVE
 113:../Libraries/STM32F4xx_StdPeriph_Driver/src/stm32f4xx_hash.c ****   * TIME. AS A RESULT, STMICROELECTRONICS SHALL NOT BE HELD LIABLE FOR ANY
 114:../Libraries/STM32F4xx_StdPeriph_Driver/src/stm32f4xx_hash.c ****   * DIRECT, INDIRECT OR CONSEQUENTIAL DAMAGES WITH RESPECT TO ANY CLAIMS ARISING
 115:../Libraries/STM32F4xx_StdPeriph_Driver/src/stm32f4xx_hash.c ****   * FROM THE CONTENT OF SUCH FIRMWARE AND/OR THE USE MADE BY CUSTOMERS OF THE
 116:../Libraries/STM32F4xx_StdPeriph_Driver/src/stm32f4xx_hash.c ****   * CODING INFORMATION CONTAINED HEREIN IN CONNECTION WITH THEIR PRODUCTS.
 117:../Libraries/STM32F4xx_StdPeriph_Driver/src/stm32f4xx_hash.c ****   *
 118:../Libraries/STM32F4xx_StdPeriph_Driver/src/stm32f4xx_hash.c ****   * <h2><center>&copy; COPYRIGHT 2011 STMicroelectronics</center></h2>
 119:../Libraries/STM32F4xx_StdPeriph_Driver/src/stm32f4xx_hash.c ****   ******************************************************************************  
 120:../Libraries/STM32F4xx_StdPeriph_Driver/src/stm32f4xx_hash.c ****   */
 121:../Libraries/STM32F4xx_StdPeriph_Driver/src/stm32f4xx_hash.c **** 
 122:../Libraries/STM32F4xx_StdPeriph_Driver/src/stm32f4xx_hash.c **** /* Includes ------------------------------------------------------------------*/
 123:../Libraries/STM32F4xx_StdPeriph_Driver/src/stm32f4xx_hash.c **** #include "stm32f4xx_hash.h"
 124:../Libraries/STM32F4xx_StdPeriph_Driver/src/stm32f4xx_hash.c **** #include "stm32f4xx_rcc.h"
 125:../Libraries/STM32F4xx_StdPeriph_Driver/src/stm32f4xx_hash.c **** 
 126:../Libraries/STM32F4xx_StdPeriph_Driver/src/stm32f4xx_hash.c **** /** @addtogroup STM32F4xx_StdPeriph_Driver
 127:../Libraries/STM32F4xx_StdPeriph_Driver/src/stm32f4xx_hash.c ****   * @{
ARM GAS  C:\Users\admin\AppData\Local\Temp\ccVYnskz.s 			page 5


 128:../Libraries/STM32F4xx_StdPeriph_Driver/src/stm32f4xx_hash.c ****   */
 129:../Libraries/STM32F4xx_StdPeriph_Driver/src/stm32f4xx_hash.c **** 
 130:../Libraries/STM32F4xx_StdPeriph_Driver/src/stm32f4xx_hash.c **** /** @defgroup HASH 
 131:../Libraries/STM32F4xx_StdPeriph_Driver/src/stm32f4xx_hash.c ****   * @brief HASH driver modules
 132:../Libraries/STM32F4xx_StdPeriph_Driver/src/stm32f4xx_hash.c ****   * @{
 133:../Libraries/STM32F4xx_StdPeriph_Driver/src/stm32f4xx_hash.c ****   */ 
 134:../Libraries/STM32F4xx_StdPeriph_Driver/src/stm32f4xx_hash.c **** 
 135:../Libraries/STM32F4xx_StdPeriph_Driver/src/stm32f4xx_hash.c **** /* Private typedef -----------------------------------------------------------*/
 136:../Libraries/STM32F4xx_StdPeriph_Driver/src/stm32f4xx_hash.c **** /* Private define ------------------------------------------------------------*/
 137:../Libraries/STM32F4xx_StdPeriph_Driver/src/stm32f4xx_hash.c **** /* Private macro -------------------------------------------------------------*/
 138:../Libraries/STM32F4xx_StdPeriph_Driver/src/stm32f4xx_hash.c **** /* Private variables ---------------------------------------------------------*/
 139:../Libraries/STM32F4xx_StdPeriph_Driver/src/stm32f4xx_hash.c **** /* Private function prototypes -----------------------------------------------*/
 140:../Libraries/STM32F4xx_StdPeriph_Driver/src/stm32f4xx_hash.c **** /* Private functions ---------------------------------------------------------*/ 
 141:../Libraries/STM32F4xx_StdPeriph_Driver/src/stm32f4xx_hash.c **** 
 142:../Libraries/STM32F4xx_StdPeriph_Driver/src/stm32f4xx_hash.c **** /** @defgroup HASH_Private_Functions
 143:../Libraries/STM32F4xx_StdPeriph_Driver/src/stm32f4xx_hash.c ****   * @{
 144:../Libraries/STM32F4xx_StdPeriph_Driver/src/stm32f4xx_hash.c ****   */ 
 145:../Libraries/STM32F4xx_StdPeriph_Driver/src/stm32f4xx_hash.c **** 
 146:../Libraries/STM32F4xx_StdPeriph_Driver/src/stm32f4xx_hash.c **** /** @defgroup HASH_Group1 Initialization and Configuration functions
 147:../Libraries/STM32F4xx_StdPeriph_Driver/src/stm32f4xx_hash.c ****  *  @brief    Initialization and Configuration functions 
 148:../Libraries/STM32F4xx_StdPeriph_Driver/src/stm32f4xx_hash.c ****  *
 149:../Libraries/STM32F4xx_StdPeriph_Driver/src/stm32f4xx_hash.c **** @verbatim    
 150:../Libraries/STM32F4xx_StdPeriph_Driver/src/stm32f4xx_hash.c ****  ===============================================================================
 151:../Libraries/STM32F4xx_StdPeriph_Driver/src/stm32f4xx_hash.c ****                       Initialization and Configuration functions
 152:../Libraries/STM32F4xx_StdPeriph_Driver/src/stm32f4xx_hash.c ****  ===============================================================================  
 153:../Libraries/STM32F4xx_StdPeriph_Driver/src/stm32f4xx_hash.c ****   This section provides functions allowing to 
 154:../Libraries/STM32F4xx_StdPeriph_Driver/src/stm32f4xx_hash.c ****    - Initialize the HASH peripheral
 155:../Libraries/STM32F4xx_StdPeriph_Driver/src/stm32f4xx_hash.c ****    - Configure the HASH Processor 
 156:../Libraries/STM32F4xx_StdPeriph_Driver/src/stm32f4xx_hash.c ****       - MD5/SHA1, 
 157:../Libraries/STM32F4xx_StdPeriph_Driver/src/stm32f4xx_hash.c ****       - HASH/HMAC, 
 158:../Libraries/STM32F4xx_StdPeriph_Driver/src/stm32f4xx_hash.c ****       - datatype 
 159:../Libraries/STM32F4xx_StdPeriph_Driver/src/stm32f4xx_hash.c ****       - HMAC Key (if mode = HMAC)
 160:../Libraries/STM32F4xx_StdPeriph_Driver/src/stm32f4xx_hash.c ****    - Reset the HASH Processor 
 161:../Libraries/STM32F4xx_StdPeriph_Driver/src/stm32f4xx_hash.c ****    
 162:../Libraries/STM32F4xx_StdPeriph_Driver/src/stm32f4xx_hash.c **** @endverbatim
 163:../Libraries/STM32F4xx_StdPeriph_Driver/src/stm32f4xx_hash.c ****   * @{
 164:../Libraries/STM32F4xx_StdPeriph_Driver/src/stm32f4xx_hash.c ****   */
 165:../Libraries/STM32F4xx_StdPeriph_Driver/src/stm32f4xx_hash.c ****   
 166:../Libraries/STM32F4xx_StdPeriph_Driver/src/stm32f4xx_hash.c **** /**
 167:../Libraries/STM32F4xx_StdPeriph_Driver/src/stm32f4xx_hash.c ****   * @brief  Deinitializes the HASH peripheral registers to their default reset values
 168:../Libraries/STM32F4xx_StdPeriph_Driver/src/stm32f4xx_hash.c ****   * @param  None
 169:../Libraries/STM32F4xx_StdPeriph_Driver/src/stm32f4xx_hash.c ****   * @retval None
 170:../Libraries/STM32F4xx_StdPeriph_Driver/src/stm32f4xx_hash.c ****   */
 171:../Libraries/STM32F4xx_StdPeriph_Driver/src/stm32f4xx_hash.c **** void HASH_DeInit(void)
 172:../Libraries/STM32F4xx_StdPeriph_Driver/src/stm32f4xx_hash.c **** {
 102              		.loc 1 172 1 view -0
 103              		.cfi_startproc
 104              		@ args = 0, pretend = 0, frame = 0
 105              		@ frame_needed = 0, uses_anonymous_args = 0
 173:../Libraries/STM32F4xx_StdPeriph_Driver/src/stm32f4xx_hash.c ****   /* Enable HASH reset state */
 174:../Libraries/STM32F4xx_StdPeriph_Driver/src/stm32f4xx_hash.c ****   RCC_AHB2PeriphResetCmd(RCC_AHB2Periph_HASH, ENABLE);
 106              		.loc 1 174 3 view .LVU1
 107              	@ ../Libraries/STM32F4xx_StdPeriph_Driver/src/stm32f4xx_hash.c:172: {
 172:../Libraries/STM32F4xx_StdPeriph_Driver/src/stm32f4xx_hash.c ****   /* Enable HASH reset state */
 108              		.loc 1 172 1 is_stmt 0 view .LVU2
 109 0000 08B5     		push	{r3, lr}	@
 110              		.cfi_def_cfa_offset 8
ARM GAS  C:\Users\admin\AppData\Local\Temp\ccVYnskz.s 			page 6


 111              		.cfi_offset 3, -8
 112              		.cfi_offset 14, -4
 113              	@ ../Libraries/STM32F4xx_StdPeriph_Driver/src/stm32f4xx_hash.c:174:   RCC_AHB2PeriphResetCmd(RCC_AH
 114              		.loc 1 174 3 view .LVU3
 115 0002 0121     		movs	r1, #1	@,
 116 0004 2020     		movs	r0, #32	@,
 117 0006 FFF7FEFF 		bl	RCC_AHB2PeriphResetCmd		@
 118              	.LVL0:
 175:../Libraries/STM32F4xx_StdPeriph_Driver/src/stm32f4xx_hash.c ****   /* Release HASH from reset state */
 176:../Libraries/STM32F4xx_StdPeriph_Driver/src/stm32f4xx_hash.c ****   RCC_AHB2PeriphResetCmd(RCC_AHB2Periph_HASH, DISABLE);
 119              		.loc 1 176 3 is_stmt 1 view .LVU4
 120              	@ ../Libraries/STM32F4xx_StdPeriph_Driver/src/stm32f4xx_hash.c:177: }
 177:../Libraries/STM32F4xx_StdPeriph_Driver/src/stm32f4xx_hash.c **** }
 121              		.loc 1 177 1 is_stmt 0 view .LVU5
 122 000a BDE80840 		pop	{r3, lr}	@
 123              		.cfi_restore 14
 124              		.cfi_restore 3
 125              		.cfi_def_cfa_offset 0
 126              	@ ../Libraries/STM32F4xx_StdPeriph_Driver/src/stm32f4xx_hash.c:176:   RCC_AHB2PeriphResetCmd(RCC_AH
 176:../Libraries/STM32F4xx_StdPeriph_Driver/src/stm32f4xx_hash.c **** }
 127              		.loc 1 176 3 view .LVU6
 128 000e 0021     		movs	r1, #0	@,
 129 0010 2020     		movs	r0, #32	@,
 130 0012 FFF7FEBF 		b	RCC_AHB2PeriphResetCmd		@
 131              	.LVL1:
 132              		.cfi_endproc
 133              	.LFE110:
 134              		.size	HASH_DeInit, .-HASH_DeInit
 135 0016 00BF     		.section	.text.HASH_Init,"ax",%progbits
 136              		.align	1
 137              		.p2align 2,,3
 138              		.global	HASH_Init
 139              		.syntax unified
 140              		.thumb
 141              		.thumb_func
 142              		.type	HASH_Init, %function
 143              	HASH_Init:
 144              	.LVL2:
 145              	.LFB111:
 178:../Libraries/STM32F4xx_StdPeriph_Driver/src/stm32f4xx_hash.c **** 
 179:../Libraries/STM32F4xx_StdPeriph_Driver/src/stm32f4xx_hash.c **** /**
 180:../Libraries/STM32F4xx_StdPeriph_Driver/src/stm32f4xx_hash.c ****   * @brief  Initializes the HASH peripheral according to the specified parameters
 181:../Libraries/STM32F4xx_StdPeriph_Driver/src/stm32f4xx_hash.c ****   *         in the HASH_InitStruct structure.
 182:../Libraries/STM32F4xx_StdPeriph_Driver/src/stm32f4xx_hash.c ****   * @note   the hash processor is reset when calling this function so that the
 183:../Libraries/STM32F4xx_StdPeriph_Driver/src/stm32f4xx_hash.c ****   *         HASH will be ready to compute the message digest of a new message.
 184:../Libraries/STM32F4xx_StdPeriph_Driver/src/stm32f4xx_hash.c ****   *         There is no need to call HASH_Reset() function.           
 185:../Libraries/STM32F4xx_StdPeriph_Driver/src/stm32f4xx_hash.c ****   * @param  HASH_InitStruct: pointer to a HASH_InitTypeDef structure that contains
 186:../Libraries/STM32F4xx_StdPeriph_Driver/src/stm32f4xx_hash.c ****   *         the configuration information for the HASH peripheral.
 187:../Libraries/STM32F4xx_StdPeriph_Driver/src/stm32f4xx_hash.c ****   * @note   The field HASH_HMACKeyType in HASH_InitTypeDef must be filled only 
 188:../Libraries/STM32F4xx_StdPeriph_Driver/src/stm32f4xx_hash.c ****   *          if the algorithm mode is HMAC.       
 189:../Libraries/STM32F4xx_StdPeriph_Driver/src/stm32f4xx_hash.c ****   * @retval None
 190:../Libraries/STM32F4xx_StdPeriph_Driver/src/stm32f4xx_hash.c ****   */
 191:../Libraries/STM32F4xx_StdPeriph_Driver/src/stm32f4xx_hash.c **** void HASH_Init(HASH_InitTypeDef* HASH_InitStruct)
 192:../Libraries/STM32F4xx_StdPeriph_Driver/src/stm32f4xx_hash.c **** {
 146              		.loc 1 192 1 is_stmt 1 view -0
 147              		.cfi_startproc
 148              		@ args = 0, pretend = 0, frame = 0
ARM GAS  C:\Users\admin\AppData\Local\Temp\ccVYnskz.s 			page 7


 149              		@ frame_needed = 0, uses_anonymous_args = 0
 193:../Libraries/STM32F4xx_StdPeriph_Driver/src/stm32f4xx_hash.c ****   /* Check the parameters */
 194:../Libraries/STM32F4xx_StdPeriph_Driver/src/stm32f4xx_hash.c ****   assert_param(IS_HASH_ALGOSELECTION(HASH_InitStruct->HASH_AlgoSelection));
 150              		.loc 1 194 3 view .LVU8
 151              	@ ../Libraries/STM32F4xx_StdPeriph_Driver/src/stm32f4xx_hash.c:192: {
 192:../Libraries/STM32F4xx_StdPeriph_Driver/src/stm32f4xx_hash.c ****   /* Check the parameters */
 152              		.loc 1 192 1 is_stmt 0 view .LVU9
 153 0000 38B5     		push	{r3, r4, r5, lr}	@
 154              		.cfi_def_cfa_offset 16
 155              		.cfi_offset 3, -16
 156              		.cfi_offset 4, -12
 157              		.cfi_offset 5, -8
 158              		.cfi_offset 14, -4
 159              	@ ../Libraries/STM32F4xx_StdPeriph_Driver/src/stm32f4xx_hash.c:194:   assert_param(IS_HASH_ALGOSELE
 160              		.loc 1 194 3 view .LVU10
 161 0002 0368     		ldr	r3, [r0]	@ HASH_InitStruct_27(D)->HASH_AlgoSelection, HASH_InitStruct_27(D)->HASH_AlgoSelectio
 162              	@ ../Libraries/STM32F4xx_StdPeriph_Driver/src/stm32f4xx_hash.c:199:   HASH->CR &= ~ (HASH_CR_ALGO |
 195:../Libraries/STM32F4xx_StdPeriph_Driver/src/stm32f4xx_hash.c ****   assert_param(IS_HASH_DATATYPE(HASH_InitStruct->HASH_DataType));
 196:../Libraries/STM32F4xx_StdPeriph_Driver/src/stm32f4xx_hash.c ****   assert_param(IS_HASH_ALGOMODE(HASH_InitStruct->HASH_AlgoMode));
 197:../Libraries/STM32F4xx_StdPeriph_Driver/src/stm32f4xx_hash.c ****   
 198:../Libraries/STM32F4xx_StdPeriph_Driver/src/stm32f4xx_hash.c ****   /* Configure the Algorithm used, algorithm mode and the datatype */
 199:../Libraries/STM32F4xx_StdPeriph_Driver/src/stm32f4xx_hash.c ****   HASH->CR &= ~ (HASH_CR_ALGO | HASH_CR_DATATYPE | HASH_CR_MODE);
 163              		.loc 1 199 12 view .LVU11
 164 0004 1E4D     		ldr	r5, .L7	@ tmp158,
 165              	@ ../Libraries/STM32F4xx_StdPeriph_Driver/src/stm32f4xx_hash.c:192: {
 192:../Libraries/STM32F4xx_StdPeriph_Driver/src/stm32f4xx_hash.c ****   /* Check the parameters */
 166              		.loc 1 192 1 view .LVU12
 167 0006 0446     		mov	r4, r0	@ HASH_InitStruct, tmp177
 168              	@ ../Libraries/STM32F4xx_StdPeriph_Driver/src/stm32f4xx_hash.c:194:   assert_param(IS_HASH_ALGOSELE
 194:../Libraries/STM32F4xx_StdPeriph_Driver/src/stm32f4xx_hash.c ****   assert_param(IS_HASH_DATATYPE(HASH_InitStruct->HASH_DataType));
 169              		.loc 1 194 3 view .LVU13
 170 0008 33F08003 		bics	r3, r3, #128	@ tmp179, HASH_InitStruct_27(D)->HASH_AlgoSelection,
 171 000c 0CBF     		ite	eq
 172 000e 0120     		moveq	r0, #1	@,
 173              	.LVL3:
 194:../Libraries/STM32F4xx_StdPeriph_Driver/src/stm32f4xx_hash.c ****   assert_param(IS_HASH_DATATYPE(HASH_InitStruct->HASH_DataType));
 174              		.loc 1 194 3 view .LVU14
 175 0010 0020     		movne	r0, #0	@,
 176 0012 FFF7FEFF 		bl	assert_param		@
 177              	.LVL4:
 195:../Libraries/STM32F4xx_StdPeriph_Driver/src/stm32f4xx_hash.c ****   assert_param(IS_HASH_DATATYPE(HASH_InitStruct->HASH_DataType));
 178              		.loc 1 195 3 is_stmt 1 view .LVU15
 179 0016 A368     		ldr	r3, [r4, #8]	@ HASH_InitStruct_27(D)->HASH_DataType, HASH_InitStruct_27(D)->HASH_DataType
 180 0018 33F03003 		bics	r3, r3, #48	@ tmp180, HASH_InitStruct_27(D)->HASH_DataType,
 181 001c 0CBF     		ite	eq
 182 001e 0120     		moveq	r0, #1	@,
 183 0020 0020     		movne	r0, #0	@,
 184 0022 FFF7FEFF 		bl	assert_param		@
 185              	.LVL5:
 196:../Libraries/STM32F4xx_StdPeriph_Driver/src/stm32f4xx_hash.c ****   
 186              		.loc 1 196 3 view .LVU16
 187 0026 6368     		ldr	r3, [r4, #4]	@ HASH_InitStruct_27(D)->HASH_AlgoMode, HASH_InitStruct_27(D)->HASH_AlgoMode
 188 0028 33F04003 		bics	r3, r3, #64	@ tmp181, HASH_InitStruct_27(D)->HASH_AlgoMode,
 189 002c 0CBF     		ite	eq
 190 002e 0120     		moveq	r0, #1	@,
 191 0030 0020     		movne	r0, #0	@,
 192 0032 FFF7FEFF 		bl	assert_param		@
ARM GAS  C:\Users\admin\AppData\Local\Temp\ccVYnskz.s 			page 8


 193              	.LVL6:
 194              		.loc 1 199 3 view .LVU17
 195              	@ ../Libraries/STM32F4xx_StdPeriph_Driver/src/stm32f4xx_hash.c:199:   HASH->CR &= ~ (HASH_CR_ALGO |
 196              		.loc 1 199 12 is_stmt 0 view .LVU18
 197 0036 2B68     		ldr	r3, [r5]	@ _4, MEM[(struct HASH_TypeDef *)1342571520B].CR
 198 0038 23F0F003 		bic	r3, r3, #240	@ _5, _4,
 199 003c 2B60     		str	r3, [r5]	@ _5, MEM[(struct HASH_TypeDef *)1342571520B].CR
 200:../Libraries/STM32F4xx_StdPeriph_Driver/src/stm32f4xx_hash.c ****   HASH->CR |= (HASH_InitStruct->HASH_AlgoSelection | \
 200              		.loc 1 200 3 is_stmt 1 view .LVU19
 201              	@ ../Libraries/STM32F4xx_StdPeriph_Driver/src/stm32f4xx_hash.c:200:   HASH->CR |= (HASH_InitStruct-
 202              		.loc 1 200 52 is_stmt 0 view .LVU20
 203 003e 2368     		ldr	r3, [r4]	@ HASH_InitStruct_27(D)->HASH_AlgoSelection, HASH_InitStruct_27(D)->HASH_AlgoSelectio
 204 0040 A168     		ldr	r1, [r4, #8]	@ HASH_InitStruct_27(D)->HASH_DataType, HASH_InitStruct_27(D)->HASH_DataType
 205              	@ ../Libraries/STM32F4xx_StdPeriph_Driver/src/stm32f4xx_hash.c:200:   HASH->CR |= (HASH_InitStruct-
 206              		.loc 1 200 12 view .LVU21
 207 0042 2A68     		ldr	r2, [r5]	@ _6, MEM[(struct HASH_TypeDef *)1342571520B].CR
 208              	@ ../Libraries/STM32F4xx_StdPeriph_Driver/src/stm32f4xx_hash.c:200:   HASH->CR |= (HASH_InitStruct-
 209              		.loc 1 200 52 view .LVU22
 210 0044 0B43     		orrs	r3, r3, r1	@, tmp161, HASH_InitStruct_27(D)->HASH_AlgoSelection, HASH_InitStruct_27(D)->HASH_
 211              	@ ../Libraries/STM32F4xx_StdPeriph_Driver/src/stm32f4xx_hash.c:200:   HASH->CR |= (HASH_InitStruct-
 212              		.loc 1 200 12 view .LVU23
 213 0046 1343     		orrs	r3, r3, r2	@, tmp164, tmp161, _6
 214              	@ ../Libraries/STM32F4xx_StdPeriph_Driver/src/stm32f4xx_hash.c:202:                HASH_InitStruct-
 201:../Libraries/STM32F4xx_StdPeriph_Driver/src/stm32f4xx_hash.c ****                HASH_InitStruct->HASH_DataType | \
 202:../Libraries/STM32F4xx_StdPeriph_Driver/src/stm32f4xx_hash.c ****                HASH_InitStruct->HASH_AlgoMode);
 215              		.loc 1 202 31 view .LVU24
 216 0048 6268     		ldr	r2, [r4, #4]	@ _10, HASH_InitStruct_27(D)->HASH_AlgoMode
 217              	@ ../Libraries/STM32F4xx_StdPeriph_Driver/src/stm32f4xx_hash.c:200:   HASH->CR |= (HASH_InitStruct-
 200:../Libraries/STM32F4xx_StdPeriph_Driver/src/stm32f4xx_hash.c ****   HASH->CR |= (HASH_InitStruct->HASH_AlgoSelection | \
 218              		.loc 1 200 12 view .LVU25
 219 004a 1343     		orrs	r3, r3, r2	@, _12, tmp164, _10
 220              	@ ../Libraries/STM32F4xx_StdPeriph_Driver/src/stm32f4xx_hash.c:205:   if(HASH_InitStruct->HASH_Algo
 203:../Libraries/STM32F4xx_StdPeriph_Driver/src/stm32f4xx_hash.c ****   
 204:../Libraries/STM32F4xx_StdPeriph_Driver/src/stm32f4xx_hash.c ****   /* if algorithm mode is HMAC, set the Key */  
 205:../Libraries/STM32F4xx_StdPeriph_Driver/src/stm32f4xx_hash.c ****   if(HASH_InitStruct->HASH_AlgoMode == HASH_AlgoMode_HMAC) 
 221              		.loc 1 205 5 view .LVU26
 222 004c 402A     		cmp	r2, #64	@ _10,
 223              	@ ../Libraries/STM32F4xx_StdPeriph_Driver/src/stm32f4xx_hash.c:200:   HASH->CR |= (HASH_InitStruct-
 200:../Libraries/STM32F4xx_StdPeriph_Driver/src/stm32f4xx_hash.c ****                HASH_InitStruct->HASH_DataType | \
 224              		.loc 1 200 12 view .LVU27
 225 004e 2B60     		str	r3, [r5]	@ _12, MEM[(struct HASH_TypeDef *)1342571520B].CR
 226              		.loc 1 205 3 is_stmt 1 view .LVU28
 227              	@ ../Libraries/STM32F4xx_StdPeriph_Driver/src/stm32f4xx_hash.c:205:   if(HASH_InitStruct->HASH_Algo
 228              		.loc 1 205 5 is_stmt 0 view .LVU29
 229 0050 0FD1     		bne	.L5		@,
 206:../Libraries/STM32F4xx_StdPeriph_Driver/src/stm32f4xx_hash.c ****   {
 207:../Libraries/STM32F4xx_StdPeriph_Driver/src/stm32f4xx_hash.c ****     assert_param(IS_HASH_HMAC_KEYTYPE(HASH_InitStruct->HASH_HMACKeyType));
 230              		.loc 1 207 5 is_stmt 1 view .LVU30
 231 0052 E368     		ldr	r3, [r4, #12]	@ HASH_InitStruct_27(D)->HASH_HMACKeyType, HASH_InitStruct_27(D)->HASH_HMACKeyTy
 232 0054 33F48033 		bics	r3, r3, #65536	@ tmp182, HASH_InitStruct_27(D)->HASH_HMACKeyType,
 233 0058 0CBF     		ite	eq
 234 005a 0120     		moveq	r0, #1	@,
 235 005c 0020     		movne	r0, #0	@,
 236 005e FFF7FEFF 		bl	assert_param		@
 237              	.LVL7:
 208:../Libraries/STM32F4xx_StdPeriph_Driver/src/stm32f4xx_hash.c ****     HASH->CR &= ~HASH_CR_LKEY;
 238              		.loc 1 208 5 view .LVU31
ARM GAS  C:\Users\admin\AppData\Local\Temp\ccVYnskz.s 			page 9


 239              	@ ../Libraries/STM32F4xx_StdPeriph_Driver/src/stm32f4xx_hash.c:208:     HASH->CR &= ~HASH_CR_LKEY;
 240              		.loc 1 208 14 is_stmt 0 view .LVU32
 241 0062 2B68     		ldr	r3, [r5]	@ _14, MEM[(struct HASH_TypeDef *)1342571520B].CR
 242 0064 23F48033 		bic	r3, r3, #65536	@ _15, _14,
 243 0068 2B60     		str	r3, [r5]	@ _15, MEM[(struct HASH_TypeDef *)1342571520B].CR
 209:../Libraries/STM32F4xx_StdPeriph_Driver/src/stm32f4xx_hash.c ****     HASH->CR |= HASH_InitStruct->HASH_HMACKeyType;
 244              		.loc 1 209 5 is_stmt 1 view .LVU33
 245              	@ ../Libraries/STM32F4xx_StdPeriph_Driver/src/stm32f4xx_hash.c:209:     HASH->CR |= HASH_InitStruct
 246              		.loc 1 209 14 is_stmt 0 view .LVU34
 247 006a 2B68     		ldr	r3, [r5]	@ _16, MEM[(struct HASH_TypeDef *)1342571520B].CR
 248 006c E268     		ldr	r2, [r4, #12]	@ HASH_InitStruct_27(D)->HASH_HMACKeyType, HASH_InitStruct_27(D)->HASH_HMACKeyTy
 249 006e 1343     		orrs	r3, r3, r2	@, _18, _16, HASH_InitStruct_27(D)->HASH_HMACKeyType
 250 0070 2B60     		str	r3, [r5]	@ _18, MEM[(struct HASH_TypeDef *)1342571520B].CR
 251              	.L5:
 210:../Libraries/STM32F4xx_StdPeriph_Driver/src/stm32f4xx_hash.c ****   }
 211:../Libraries/STM32F4xx_StdPeriph_Driver/src/stm32f4xx_hash.c **** 
 212:../Libraries/STM32F4xx_StdPeriph_Driver/src/stm32f4xx_hash.c ****   /* Reset the HASH processor core, so that the HASH will be ready to compute 
 213:../Libraries/STM32F4xx_StdPeriph_Driver/src/stm32f4xx_hash.c ****      the message digest of a new message */
 214:../Libraries/STM32F4xx_StdPeriph_Driver/src/stm32f4xx_hash.c ****   HASH->CR |= HASH_CR_INIT;  
 252              		.loc 1 214 3 is_stmt 1 view .LVU35
 253              	@ ../Libraries/STM32F4xx_StdPeriph_Driver/src/stm32f4xx_hash.c:214:   HASH->CR |= HASH_CR_INIT;  
 254              		.loc 1 214 12 is_stmt 0 view .LVU36
 255 0072 034A     		ldr	r2, .L7	@ tmp175,
 256 0074 1368     		ldr	r3, [r2]	@ _19, MEM[(struct HASH_TypeDef *)1342571520B].CR
 257 0076 43F00403 		orr	r3, r3, #4	@ _20, _19,
 258 007a 1360     		str	r3, [r2]	@ _20, MEM[(struct HASH_TypeDef *)1342571520B].CR
 259              	@ ../Libraries/STM32F4xx_StdPeriph_Driver/src/stm32f4xx_hash.c:215: }
 215:../Libraries/STM32F4xx_StdPeriph_Driver/src/stm32f4xx_hash.c **** }
 260              		.loc 1 215 1 view .LVU37
 261 007c 38BD     		pop	{r3, r4, r5, pc}	@
 262              	.LVL8:
 263              	.L8:
 264              		.loc 1 215 1 view .LVU38
 265 007e 00BF     		.align	2
 266              	.L7:
 267 0080 00040650 		.word	1342571520
 268              		.cfi_endproc
 269              	.LFE111:
 270              		.size	HASH_Init, .-HASH_Init
 271              		.section	.text.HASH_StructInit,"ax",%progbits
 272              		.align	1
 273              		.p2align 2,,3
 274              		.global	HASH_StructInit
 275              		.syntax unified
 276              		.thumb
 277              		.thumb_func
 278              		.type	HASH_StructInit, %function
 279              	HASH_StructInit:
 280              	.LVL9:
 281              	.LFB112:
 216:../Libraries/STM32F4xx_StdPeriph_Driver/src/stm32f4xx_hash.c **** 
 217:../Libraries/STM32F4xx_StdPeriph_Driver/src/stm32f4xx_hash.c **** /**
 218:../Libraries/STM32F4xx_StdPeriph_Driver/src/stm32f4xx_hash.c ****   * @brief  Fills each HASH_InitStruct member with its default value.
 219:../Libraries/STM32F4xx_StdPeriph_Driver/src/stm32f4xx_hash.c ****   * @param  HASH_InitStruct : pointer to a HASH_InitTypeDef structure which will
 220:../Libraries/STM32F4xx_StdPeriph_Driver/src/stm32f4xx_hash.c ****   *          be initialized.  
 221:../Libraries/STM32F4xx_StdPeriph_Driver/src/stm32f4xx_hash.c ****   *  @note  The default values set are : Processor mode is HASH, Algorithm selected is SHA1,
 222:../Libraries/STM32F4xx_StdPeriph_Driver/src/stm32f4xx_hash.c ****   *          Data type selected is 32b and HMAC Key Type is short key.  
ARM GAS  C:\Users\admin\AppData\Local\Temp\ccVYnskz.s 			page 10


 223:../Libraries/STM32F4xx_StdPeriph_Driver/src/stm32f4xx_hash.c ****   * @retval None
 224:../Libraries/STM32F4xx_StdPeriph_Driver/src/stm32f4xx_hash.c ****   */
 225:../Libraries/STM32F4xx_StdPeriph_Driver/src/stm32f4xx_hash.c **** void HASH_StructInit(HASH_InitTypeDef* HASH_InitStruct)
 226:../Libraries/STM32F4xx_StdPeriph_Driver/src/stm32f4xx_hash.c **** {
 282              		.loc 1 226 1 is_stmt 1 view -0
 283              		.cfi_startproc
 284              		@ args = 0, pretend = 0, frame = 0
 285              		@ frame_needed = 0, uses_anonymous_args = 0
 286              		@ link register save eliminated.
 227:../Libraries/STM32F4xx_StdPeriph_Driver/src/stm32f4xx_hash.c ****   /* Initialize the HASH_AlgoSelection member */
 228:../Libraries/STM32F4xx_StdPeriph_Driver/src/stm32f4xx_hash.c ****   HASH_InitStruct->HASH_AlgoSelection = HASH_AlgoSelection_SHA1;
 287              		.loc 1 228 3 view .LVU40
 288              	@ ../Libraries/STM32F4xx_StdPeriph_Driver/src/stm32f4xx_hash.c:228:   HASH_InitStruct->HASH_AlgoSel
 289              		.loc 1 228 39 is_stmt 0 view .LVU41
 290 0000 0023     		movs	r3, #0	@ tmp114,
 291              	@ ../Libraries/STM32F4xx_StdPeriph_Driver/src/stm32f4xx_hash.c:231:   HASH_InitStruct->HASH_AlgoMod
 229:../Libraries/STM32F4xx_StdPeriph_Driver/src/stm32f4xx_hash.c **** 
 230:../Libraries/STM32F4xx_StdPeriph_Driver/src/stm32f4xx_hash.c ****   /* Initialize the HASH_AlgoMode member */
 231:../Libraries/STM32F4xx_StdPeriph_Driver/src/stm32f4xx_hash.c ****   HASH_InitStruct->HASH_AlgoMode = HASH_AlgoMode_HASH;
 292              		.loc 1 231 34 view .LVU42
 293 0002 C0E90033 		strd	r3, r3, [r0]	@ tmp114, tmp114, HASH_InitStruct
 232:../Libraries/STM32F4xx_StdPeriph_Driver/src/stm32f4xx_hash.c **** 
 233:../Libraries/STM32F4xx_StdPeriph_Driver/src/stm32f4xx_hash.c ****   /* Initialize the HASH_DataType member */
 234:../Libraries/STM32F4xx_StdPeriph_Driver/src/stm32f4xx_hash.c ****   HASH_InitStruct->HASH_DataType = HASH_DataType_32b;
 294              		.loc 1 234 3 is_stmt 1 view .LVU43
 295              	@ ../Libraries/STM32F4xx_StdPeriph_Driver/src/stm32f4xx_hash.c:237:   HASH_InitStruct->HASH_HMACKey
 235:../Libraries/STM32F4xx_StdPeriph_Driver/src/stm32f4xx_hash.c **** 
 236:../Libraries/STM32F4xx_StdPeriph_Driver/src/stm32f4xx_hash.c ****   /* Initialize the HASH_HMACKeyType member */
 237:../Libraries/STM32F4xx_StdPeriph_Driver/src/stm32f4xx_hash.c ****   HASH_InitStruct->HASH_HMACKeyType = HASH_HMACKeyType_ShortKey;
 296              		.loc 1 237 37 is_stmt 0 view .LVU44
 297 0006 C0E90233 		strd	r3, r3, [r0, #8]	@ tmp114, tmp114, HASH_InitStruct,
 298              	@ ../Libraries/STM32F4xx_StdPeriph_Driver/src/stm32f4xx_hash.c:238: }
 238:../Libraries/STM32F4xx_StdPeriph_Driver/src/stm32f4xx_hash.c **** }
 299              		.loc 1 238 1 view .LVU45
 300 000a 7047     		bx	lr	@
 301              		.cfi_endproc
 302              	.LFE112:
 303              		.size	HASH_StructInit, .-HASH_StructInit
 304              		.section	.text.HASH_Reset,"ax",%progbits
 305              		.align	1
 306              		.p2align 2,,3
 307              		.global	HASH_Reset
 308              		.syntax unified
 309              		.thumb
 310              		.thumb_func
 311              		.type	HASH_Reset, %function
 312              	HASH_Reset:
 313              	.LFB113:
 239:../Libraries/STM32F4xx_StdPeriph_Driver/src/stm32f4xx_hash.c **** 
 240:../Libraries/STM32F4xx_StdPeriph_Driver/src/stm32f4xx_hash.c **** /**
 241:../Libraries/STM32F4xx_StdPeriph_Driver/src/stm32f4xx_hash.c ****   * @brief  Resets the HASH processor core, so that the HASH will be ready
 242:../Libraries/STM32F4xx_StdPeriph_Driver/src/stm32f4xx_hash.c ****   *         to compute the message digest of a new message.
 243:../Libraries/STM32F4xx_StdPeriph_Driver/src/stm32f4xx_hash.c ****   * @note   Calling this function will clear the HASH_SR_DCIS (Digest calculation 
 244:../Libraries/STM32F4xx_StdPeriph_Driver/src/stm32f4xx_hash.c ****   *         completion interrupt status) bit corresponding to HASH_IT_DCI 
 245:../Libraries/STM32F4xx_StdPeriph_Driver/src/stm32f4xx_hash.c ****   *         interrupt and HASH_FLAG_DCIS flag. 
 246:../Libraries/STM32F4xx_StdPeriph_Driver/src/stm32f4xx_hash.c ****   * @param  None
 247:../Libraries/STM32F4xx_StdPeriph_Driver/src/stm32f4xx_hash.c ****   * @retval None
ARM GAS  C:\Users\admin\AppData\Local\Temp\ccVYnskz.s 			page 11


 248:../Libraries/STM32F4xx_StdPeriph_Driver/src/stm32f4xx_hash.c ****   */
 249:../Libraries/STM32F4xx_StdPeriph_Driver/src/stm32f4xx_hash.c **** void HASH_Reset(void)
 250:../Libraries/STM32F4xx_StdPeriph_Driver/src/stm32f4xx_hash.c **** {
 314              		.loc 1 250 1 is_stmt 1 view -0
 315              		.cfi_startproc
 316              		@ args = 0, pretend = 0, frame = 0
 317              		@ frame_needed = 0, uses_anonymous_args = 0
 318              		@ link register save eliminated.
 251:../Libraries/STM32F4xx_StdPeriph_Driver/src/stm32f4xx_hash.c ****   /* Reset the HASH processor core */
 252:../Libraries/STM32F4xx_StdPeriph_Driver/src/stm32f4xx_hash.c ****   HASH->CR |= HASH_CR_INIT;
 319              		.loc 1 252 3 view .LVU47
 320              	@ ../Libraries/STM32F4xx_StdPeriph_Driver/src/stm32f4xx_hash.c:252:   HASH->CR |= HASH_CR_INIT;
 321              		.loc 1 252 12 is_stmt 0 view .LVU48
 322 0000 024A     		ldr	r2, .L11	@ tmp115,
 323 0002 1368     		ldr	r3, [r2]	@ _1, MEM[(struct HASH_TypeDef *)1342571520B].CR
 324 0004 43F00403 		orr	r3, r3, #4	@ _2, _1,
 325 0008 1360     		str	r3, [r2]	@ _2, MEM[(struct HASH_TypeDef *)1342571520B].CR
 326              	@ ../Libraries/STM32F4xx_StdPeriph_Driver/src/stm32f4xx_hash.c:253: }
 253:../Libraries/STM32F4xx_StdPeriph_Driver/src/stm32f4xx_hash.c **** }
 327              		.loc 1 253 1 view .LVU49
 328 000a 7047     		bx	lr	@
 329              	.L12:
 330              		.align	2
 331              	.L11:
 332 000c 00040650 		.word	1342571520
 333              		.cfi_endproc
 334              	.LFE113:
 335              		.size	HASH_Reset, .-HASH_Reset
 336              		.section	.text.HASH_SetLastWordValidBitsNbr,"ax",%progbits
 337              		.align	1
 338              		.p2align 2,,3
 339              		.global	HASH_SetLastWordValidBitsNbr
 340              		.syntax unified
 341              		.thumb
 342              		.thumb_func
 343              		.type	HASH_SetLastWordValidBitsNbr, %function
 344              	HASH_SetLastWordValidBitsNbr:
 345              	.LVL10:
 346              	.LFB114:
 254:../Libraries/STM32F4xx_StdPeriph_Driver/src/stm32f4xx_hash.c **** /**
 255:../Libraries/STM32F4xx_StdPeriph_Driver/src/stm32f4xx_hash.c ****   * @}
 256:../Libraries/STM32F4xx_StdPeriph_Driver/src/stm32f4xx_hash.c ****   */
 257:../Libraries/STM32F4xx_StdPeriph_Driver/src/stm32f4xx_hash.c ****  
 258:../Libraries/STM32F4xx_StdPeriph_Driver/src/stm32f4xx_hash.c **** /** @defgroup HASH_Group2 Message Digest generation functions
 259:../Libraries/STM32F4xx_StdPeriph_Driver/src/stm32f4xx_hash.c ****  *  @brief    Message Digest generation functions
 260:../Libraries/STM32F4xx_StdPeriph_Driver/src/stm32f4xx_hash.c ****  *
 261:../Libraries/STM32F4xx_StdPeriph_Driver/src/stm32f4xx_hash.c **** @verbatim    
 262:../Libraries/STM32F4xx_StdPeriph_Driver/src/stm32f4xx_hash.c ****  ===============================================================================
 263:../Libraries/STM32F4xx_StdPeriph_Driver/src/stm32f4xx_hash.c ****                       Message Digest generation functions
 264:../Libraries/STM32F4xx_StdPeriph_Driver/src/stm32f4xx_hash.c ****  ===============================================================================  
 265:../Libraries/STM32F4xx_StdPeriph_Driver/src/stm32f4xx_hash.c ****   This section provides functions allowing the generation of message digest: 
 266:../Libraries/STM32F4xx_StdPeriph_Driver/src/stm32f4xx_hash.c ****   - Push data in the IN FIFO : using HASH_DataIn()
 267:../Libraries/STM32F4xx_StdPeriph_Driver/src/stm32f4xx_hash.c ****   - Get the number of words set in IN FIFO, use HASH_GetInFIFOWordsNbr()  
 268:../Libraries/STM32F4xx_StdPeriph_Driver/src/stm32f4xx_hash.c ****   - set the last word valid bits number using HASH_SetLastWordValidBitsNbr() 
 269:../Libraries/STM32F4xx_StdPeriph_Driver/src/stm32f4xx_hash.c ****   - start digest calculation : using HASH_StartDigest()
 270:../Libraries/STM32F4xx_StdPeriph_Driver/src/stm32f4xx_hash.c ****   - Get the Digest message : using HASH_GetDigest()
 271:../Libraries/STM32F4xx_StdPeriph_Driver/src/stm32f4xx_hash.c ****  
ARM GAS  C:\Users\admin\AppData\Local\Temp\ccVYnskz.s 			page 12


 272:../Libraries/STM32F4xx_StdPeriph_Driver/src/stm32f4xx_hash.c **** @endverbatim
 273:../Libraries/STM32F4xx_StdPeriph_Driver/src/stm32f4xx_hash.c ****   * @{
 274:../Libraries/STM32F4xx_StdPeriph_Driver/src/stm32f4xx_hash.c ****   */
 275:../Libraries/STM32F4xx_StdPeriph_Driver/src/stm32f4xx_hash.c **** 
 276:../Libraries/STM32F4xx_StdPeriph_Driver/src/stm32f4xx_hash.c **** 
 277:../Libraries/STM32F4xx_StdPeriph_Driver/src/stm32f4xx_hash.c **** /**
 278:../Libraries/STM32F4xx_StdPeriph_Driver/src/stm32f4xx_hash.c ****   * @brief  Configure the Number of valid bits in last word of the message
 279:../Libraries/STM32F4xx_StdPeriph_Driver/src/stm32f4xx_hash.c ****   * @param  ValidNumber: Number of valid bits in last word of the message.
 280:../Libraries/STM32F4xx_StdPeriph_Driver/src/stm32f4xx_hash.c ****   *           This parameter must be a number between 0 and 0x1F.
 281:../Libraries/STM32F4xx_StdPeriph_Driver/src/stm32f4xx_hash.c ****   *             - 0x00: All 32 bits of the last data written are valid
 282:../Libraries/STM32F4xx_StdPeriph_Driver/src/stm32f4xx_hash.c ****   *             - 0x01: Only bit [0] of the last data written is valid
 283:../Libraries/STM32F4xx_StdPeriph_Driver/src/stm32f4xx_hash.c ****   *             - 0x02: Only bits[1:0] of the last data written are valid
 284:../Libraries/STM32F4xx_StdPeriph_Driver/src/stm32f4xx_hash.c ****   *             - 0x03: Only bits[2:0] of the last data written are valid
 285:../Libraries/STM32F4xx_StdPeriph_Driver/src/stm32f4xx_hash.c ****   *             - ...
 286:../Libraries/STM32F4xx_StdPeriph_Driver/src/stm32f4xx_hash.c ****   *             - 0x1F: Only bits[30:0] of the last data written are valid    
 287:../Libraries/STM32F4xx_StdPeriph_Driver/src/stm32f4xx_hash.c ****   * @note   The Number of valid bits must be set before to start the message 
 288:../Libraries/STM32F4xx_StdPeriph_Driver/src/stm32f4xx_hash.c ****   *         digest competition (in Hash and HMAC) and key treatment(in HMAC).    
 289:../Libraries/STM32F4xx_StdPeriph_Driver/src/stm32f4xx_hash.c ****   * @retval None
 290:../Libraries/STM32F4xx_StdPeriph_Driver/src/stm32f4xx_hash.c ****   */
 291:../Libraries/STM32F4xx_StdPeriph_Driver/src/stm32f4xx_hash.c **** void HASH_SetLastWordValidBitsNbr(uint16_t ValidNumber)
 292:../Libraries/STM32F4xx_StdPeriph_Driver/src/stm32f4xx_hash.c **** {
 347              		.loc 1 292 1 is_stmt 1 view -0
 348              		.cfi_startproc
 349              		@ args = 0, pretend = 0, frame = 0
 350              		@ frame_needed = 0, uses_anonymous_args = 0
 293:../Libraries/STM32F4xx_StdPeriph_Driver/src/stm32f4xx_hash.c ****   /* Check the parameters */
 294:../Libraries/STM32F4xx_StdPeriph_Driver/src/stm32f4xx_hash.c ****   assert_param(IS_HASH_VALIDBITSNUMBER(ValidNumber));
 351              		.loc 1 294 3 view .LVU51
 352 0000 1F28     		cmp	r0, #31	@ ValidNumber,
 353              	@ ../Libraries/STM32F4xx_StdPeriph_Driver/src/stm32f4xx_hash.c:292: {
 292:../Libraries/STM32F4xx_StdPeriph_Driver/src/stm32f4xx_hash.c ****   /* Check the parameters */
 354              		.loc 1 292 1 is_stmt 0 view .LVU52
 355 0002 10B5     		push	{r4, lr}	@
 356              		.cfi_def_cfa_offset 8
 357              		.cfi_offset 4, -8
 358              		.cfi_offset 14, -4
 359              	@ ../Libraries/STM32F4xx_StdPeriph_Driver/src/stm32f4xx_hash.c:292: {
 292:../Libraries/STM32F4xx_StdPeriph_Driver/src/stm32f4xx_hash.c ****   /* Check the parameters */
 360              		.loc 1 292 1 view .LVU53
 361 0004 0446     		mov	r4, r0	@ ValidNumber, tmp129
 362              	@ ../Libraries/STM32F4xx_StdPeriph_Driver/src/stm32f4xx_hash.c:294:   assert_param(IS_HASH_VALIDBIT
 363              		.loc 1 294 3 view .LVU54
 364 0006 8CBF     		ite	hi
 365 0008 0020     		movhi	r0, #0	@,
 366              	.LVL11:
 367              		.loc 1 294 3 view .LVU55
 368 000a 0120     		movls	r0, #1	@,
 369 000c FFF7FEFF 		bl	assert_param		@
 370              	.LVL12:
 295:../Libraries/STM32F4xx_StdPeriph_Driver/src/stm32f4xx_hash.c ****   
 296:../Libraries/STM32F4xx_StdPeriph_Driver/src/stm32f4xx_hash.c ****   /* Configure the Number of valid bits in last word of the message */
 297:../Libraries/STM32F4xx_StdPeriph_Driver/src/stm32f4xx_hash.c ****   HASH->STR &= ~(HASH_STR_NBW);
 371              		.loc 1 297 3 is_stmt 1 view .LVU56
 372              	@ ../Libraries/STM32F4xx_StdPeriph_Driver/src/stm32f4xx_hash.c:297:   HASH->STR &= ~(HASH_STR_NBW);
 373              		.loc 1 297 13 is_stmt 0 view .LVU57
 374 0010 044B     		ldr	r3, .L15	@ tmp125,
 375 0012 9A68     		ldr	r2, [r3, #8]	@ _3, MEM[(struct HASH_TypeDef *)1342571520B].STR
ARM GAS  C:\Users\admin\AppData\Local\Temp\ccVYnskz.s 			page 13


 376 0014 22F01F02 		bic	r2, r2, #31	@ _4, _3,
 377 0018 9A60     		str	r2, [r3, #8]	@ _4, MEM[(struct HASH_TypeDef *)1342571520B].STR
 298:../Libraries/STM32F4xx_StdPeriph_Driver/src/stm32f4xx_hash.c ****   HASH->STR |= ValidNumber;
 378              		.loc 1 298 3 is_stmt 1 view .LVU58
 379              	@ ../Libraries/STM32F4xx_StdPeriph_Driver/src/stm32f4xx_hash.c:298:   HASH->STR |= ValidNumber;
 380              		.loc 1 298 13 is_stmt 0 view .LVU59
 381 001a 9868     		ldr	r0, [r3, #8]	@ _5, MEM[(struct HASH_TypeDef *)1342571520B].STR
 382 001c 0443     		orrs	r4, r4, r0	@, _7, ValidNumber, _5
 383 001e 9C60     		str	r4, [r3, #8]	@ _7, MEM[(struct HASH_TypeDef *)1342571520B].STR
 384              	@ ../Libraries/STM32F4xx_StdPeriph_Driver/src/stm32f4xx_hash.c:299: }
 299:../Libraries/STM32F4xx_StdPeriph_Driver/src/stm32f4xx_hash.c **** }
 385              		.loc 1 299 1 view .LVU60
 386 0020 10BD     		pop	{r4, pc}	@
 387              	.L16:
 388 0022 00BF     		.align	2
 389              	.L15:
 390 0024 00040650 		.word	1342571520
 391              		.cfi_endproc
 392              	.LFE114:
 393              		.size	HASH_SetLastWordValidBitsNbr, .-HASH_SetLastWordValidBitsNbr
 394              		.section	.text.HASH_DataIn,"ax",%progbits
 395              		.align	1
 396              		.p2align 2,,3
 397              		.global	HASH_DataIn
 398              		.syntax unified
 399              		.thumb
 400              		.thumb_func
 401              		.type	HASH_DataIn, %function
 402              	HASH_DataIn:
 403              	.LVL13:
 404              	.LFB115:
 300:../Libraries/STM32F4xx_StdPeriph_Driver/src/stm32f4xx_hash.c **** 
 301:../Libraries/STM32F4xx_StdPeriph_Driver/src/stm32f4xx_hash.c **** /**
 302:../Libraries/STM32F4xx_StdPeriph_Driver/src/stm32f4xx_hash.c ****   * @brief  Writes data in the Data Input FIFO
 303:../Libraries/STM32F4xx_StdPeriph_Driver/src/stm32f4xx_hash.c ****   * @param  Data: new data of the message to be processed.
 304:../Libraries/STM32F4xx_StdPeriph_Driver/src/stm32f4xx_hash.c ****   * @retval None
 305:../Libraries/STM32F4xx_StdPeriph_Driver/src/stm32f4xx_hash.c ****   */
 306:../Libraries/STM32F4xx_StdPeriph_Driver/src/stm32f4xx_hash.c **** void HASH_DataIn(uint32_t Data)
 307:../Libraries/STM32F4xx_StdPeriph_Driver/src/stm32f4xx_hash.c **** {
 405              		.loc 1 307 1 is_stmt 1 view -0
 406              		.cfi_startproc
 407              		@ args = 0, pretend = 0, frame = 0
 408              		@ frame_needed = 0, uses_anonymous_args = 0
 409              		@ link register save eliminated.
 308:../Libraries/STM32F4xx_StdPeriph_Driver/src/stm32f4xx_hash.c ****   /* Write in the DIN register a new data */
 309:../Libraries/STM32F4xx_StdPeriph_Driver/src/stm32f4xx_hash.c ****   HASH->DIN = Data;
 410              		.loc 1 309 3 view .LVU62
 411              	@ ../Libraries/STM32F4xx_StdPeriph_Driver/src/stm32f4xx_hash.c:309:   HASH->DIN = Data;
 412              		.loc 1 309 13 is_stmt 0 view .LVU63
 413 0000 014B     		ldr	r3, .L18	@ tmp114,
 414 0002 5860     		str	r0, [r3, #4]	@ Data, MEM[(struct HASH_TypeDef *)1342571520B].DIN
 415              	@ ../Libraries/STM32F4xx_StdPeriph_Driver/src/stm32f4xx_hash.c:310: }
 310:../Libraries/STM32F4xx_StdPeriph_Driver/src/stm32f4xx_hash.c **** }
 416              		.loc 1 310 1 view .LVU64
 417 0004 7047     		bx	lr	@
 418              	.L19:
 419 0006 00BF     		.align	2
ARM GAS  C:\Users\admin\AppData\Local\Temp\ccVYnskz.s 			page 14


 420              	.L18:
 421 0008 00040650 		.word	1342571520
 422              		.cfi_endproc
 423              	.LFE115:
 424              		.size	HASH_DataIn, .-HASH_DataIn
 425              		.section	.text.HASH_GetInFIFOWordsNbr,"ax",%progbits
 426              		.align	1
 427              		.p2align 2,,3
 428              		.global	HASH_GetInFIFOWordsNbr
 429              		.syntax unified
 430              		.thumb
 431              		.thumb_func
 432              		.type	HASH_GetInFIFOWordsNbr, %function
 433              	HASH_GetInFIFOWordsNbr:
 434              	.LFB116:
 311:../Libraries/STM32F4xx_StdPeriph_Driver/src/stm32f4xx_hash.c **** 
 312:../Libraries/STM32F4xx_StdPeriph_Driver/src/stm32f4xx_hash.c **** /**
 313:../Libraries/STM32F4xx_StdPeriph_Driver/src/stm32f4xx_hash.c ****   * @brief  Returns the number of words already pushed into the IN FIFO.
 314:../Libraries/STM32F4xx_StdPeriph_Driver/src/stm32f4xx_hash.c ****   * @param  None
 315:../Libraries/STM32F4xx_StdPeriph_Driver/src/stm32f4xx_hash.c ****   * @retval The value of words already pushed into the IN FIFO.
 316:../Libraries/STM32F4xx_StdPeriph_Driver/src/stm32f4xx_hash.c ****   */
 317:../Libraries/STM32F4xx_StdPeriph_Driver/src/stm32f4xx_hash.c **** uint8_t HASH_GetInFIFOWordsNbr(void)
 318:../Libraries/STM32F4xx_StdPeriph_Driver/src/stm32f4xx_hash.c **** {
 435              		.loc 1 318 1 is_stmt 1 view -0
 436              		.cfi_startproc
 437              		@ args = 0, pretend = 0, frame = 0
 438              		@ frame_needed = 0, uses_anonymous_args = 0
 439              		@ link register save eliminated.
 319:../Libraries/STM32F4xx_StdPeriph_Driver/src/stm32f4xx_hash.c ****   /* Return the value of NBW bits */
 320:../Libraries/STM32F4xx_StdPeriph_Driver/src/stm32f4xx_hash.c ****   return ((HASH->CR & HASH_CR_NBW) >> 8);
 440              		.loc 1 320 3 view .LVU66
 441              	@ ../Libraries/STM32F4xx_StdPeriph_Driver/src/stm32f4xx_hash.c:320:   return ((HASH->CR & HASH_CR_N
 442              		.loc 1 320 16 is_stmt 0 view .LVU67
 443 0000 024B     		ldr	r3, .L21	@ tmp117,
 444 0002 1868     		ldr	r0, [r3]	@ _1, MEM[(struct HASH_TypeDef *)1342571520B].CR
 445              	@ ../Libraries/STM32F4xx_StdPeriph_Driver/src/stm32f4xx_hash.c:321: }
 321:../Libraries/STM32F4xx_StdPeriph_Driver/src/stm32f4xx_hash.c **** }
 446              		.loc 1 321 1 view .LVU68
 447 0004 C0F30320 		ubfx	r0, r0, #8, #4	@, _1,,
 448 0008 7047     		bx	lr	@
 449              	.L22:
 450 000a 00BF     		.align	2
 451              	.L21:
 452 000c 00040650 		.word	1342571520
 453              		.cfi_endproc
 454              	.LFE116:
 455              		.size	HASH_GetInFIFOWordsNbr, .-HASH_GetInFIFOWordsNbr
 456              		.section	.text.HASH_GetDigest,"ax",%progbits
 457              		.align	1
 458              		.p2align 2,,3
 459              		.global	HASH_GetDigest
 460              		.syntax unified
 461              		.thumb
 462              		.thumb_func
 463              		.type	HASH_GetDigest, %function
 464              	HASH_GetDigest:
 465              	.LVL14:
ARM GAS  C:\Users\admin\AppData\Local\Temp\ccVYnskz.s 			page 15


 466              	.LFB117:
 322:../Libraries/STM32F4xx_StdPeriph_Driver/src/stm32f4xx_hash.c **** 
 323:../Libraries/STM32F4xx_StdPeriph_Driver/src/stm32f4xx_hash.c **** /**
 324:../Libraries/STM32F4xx_StdPeriph_Driver/src/stm32f4xx_hash.c ****   * @brief  Provides the message digest result.
 325:../Libraries/STM32F4xx_StdPeriph_Driver/src/stm32f4xx_hash.c ****   * @note   In MD5 mode, Data[4] filed of HASH_MsgDigest structure is not used
 326:../Libraries/STM32F4xx_StdPeriph_Driver/src/stm32f4xx_hash.c ****   *         and is read as zero.  
 327:../Libraries/STM32F4xx_StdPeriph_Driver/src/stm32f4xx_hash.c ****   * @param  HASH_MessageDigest: pointer to a HASH_MsgDigest structure which will 
 328:../Libraries/STM32F4xx_StdPeriph_Driver/src/stm32f4xx_hash.c ****   *         hold the message digest result 
 329:../Libraries/STM32F4xx_StdPeriph_Driver/src/stm32f4xx_hash.c ****   * @retval None
 330:../Libraries/STM32F4xx_StdPeriph_Driver/src/stm32f4xx_hash.c ****   */
 331:../Libraries/STM32F4xx_StdPeriph_Driver/src/stm32f4xx_hash.c **** void HASH_GetDigest(HASH_MsgDigest* HASH_MessageDigest)
 332:../Libraries/STM32F4xx_StdPeriph_Driver/src/stm32f4xx_hash.c **** {
 467              		.loc 1 332 1 is_stmt 1 view -0
 468              		.cfi_startproc
 469              		@ args = 0, pretend = 0, frame = 0
 470              		@ frame_needed = 0, uses_anonymous_args = 0
 471              		@ link register save eliminated.
 333:../Libraries/STM32F4xx_StdPeriph_Driver/src/stm32f4xx_hash.c ****   /* Get the data field */
 334:../Libraries/STM32F4xx_StdPeriph_Driver/src/stm32f4xx_hash.c ****   HASH_MessageDigest->Data[0] = HASH->HR[0];
 472              		.loc 1 334 3 view .LVU70
 473              	@ ../Libraries/STM32F4xx_StdPeriph_Driver/src/stm32f4xx_hash.c:334:   HASH_MessageDigest->Data[0] =
 474              		.loc 1 334 41 is_stmt 0 view .LVU71
 475 0000 054B     		ldr	r3, .L24	@ tmp119,
 476 0002 DA68     		ldr	r2, [r3, #12]	@ _1, MEM[(struct HASH_TypeDef *)1342571520B].HR[0]
 477              	@ ../Libraries/STM32F4xx_StdPeriph_Driver/src/stm32f4xx_hash.c:334:   HASH_MessageDigest->Data[0] =
 478              		.loc 1 334 31 view .LVU72
 479 0004 0260     		str	r2, [r0]	@ _1, HASH_MessageDigest_7(D)->Data[0]
 335:../Libraries/STM32F4xx_StdPeriph_Driver/src/stm32f4xx_hash.c ****   HASH_MessageDigest->Data[1] = HASH->HR[1];
 480              		.loc 1 335 3 is_stmt 1 view .LVU73
 481              	@ ../Libraries/STM32F4xx_StdPeriph_Driver/src/stm32f4xx_hash.c:335:   HASH_MessageDigest->Data[1] =
 482              		.loc 1 335 41 is_stmt 0 view .LVU74
 483 0006 1A69     		ldr	r2, [r3, #16]	@ _2, MEM[(struct HASH_TypeDef *)1342571520B].HR[1]
 484              	@ ../Libraries/STM32F4xx_StdPeriph_Driver/src/stm32f4xx_hash.c:335:   HASH_MessageDigest->Data[1] =
 485              		.loc 1 335 31 view .LVU75
 486 0008 4260     		str	r2, [r0, #4]	@ _2, HASH_MessageDigest_7(D)->Data[1]
 336:../Libraries/STM32F4xx_StdPeriph_Driver/src/stm32f4xx_hash.c ****   HASH_MessageDigest->Data[2] = HASH->HR[2];
 487              		.loc 1 336 3 is_stmt 1 view .LVU76
 488              	@ ../Libraries/STM32F4xx_StdPeriph_Driver/src/stm32f4xx_hash.c:336:   HASH_MessageDigest->Data[2] =
 489              		.loc 1 336 41 is_stmt 0 view .LVU77
 490 000a 5A69     		ldr	r2, [r3, #20]	@ _3, MEM[(struct HASH_TypeDef *)1342571520B].HR[2]
 491              	@ ../Libraries/STM32F4xx_StdPeriph_Driver/src/stm32f4xx_hash.c:336:   HASH_MessageDigest->Data[2] =
 492              		.loc 1 336 31 view .LVU78
 493 000c 8260     		str	r2, [r0, #8]	@ _3, HASH_MessageDigest_7(D)->Data[2]
 337:../Libraries/STM32F4xx_StdPeriph_Driver/src/stm32f4xx_hash.c ****   HASH_MessageDigest->Data[3] = HASH->HR[3];
 494              		.loc 1 337 3 is_stmt 1 view .LVU79
 495              	@ ../Libraries/STM32F4xx_StdPeriph_Driver/src/stm32f4xx_hash.c:337:   HASH_MessageDigest->Data[3] =
 496              		.loc 1 337 41 is_stmt 0 view .LVU80
 497 000e 9A69     		ldr	r2, [r3, #24]	@ _4, MEM[(struct HASH_TypeDef *)1342571520B].HR[3]
 498              	@ ../Libraries/STM32F4xx_StdPeriph_Driver/src/stm32f4xx_hash.c:337:   HASH_MessageDigest->Data[3] =
 499              		.loc 1 337 31 view .LVU81
 500 0010 C260     		str	r2, [r0, #12]	@ _4, HASH_MessageDigest_7(D)->Data[3]
 338:../Libraries/STM32F4xx_StdPeriph_Driver/src/stm32f4xx_hash.c ****   HASH_MessageDigest->Data[4] = HASH->HR[4];
 501              		.loc 1 338 3 is_stmt 1 view .LVU82
 502              	@ ../Libraries/STM32F4xx_StdPeriph_Driver/src/stm32f4xx_hash.c:338:   HASH_MessageDigest->Data[4] =
 503              		.loc 1 338 41 is_stmt 0 view .LVU83
 504 0012 DB69     		ldr	r3, [r3, #28]	@ _5, MEM[(struct HASH_TypeDef *)1342571520B].HR[4]
 505              	@ ../Libraries/STM32F4xx_StdPeriph_Driver/src/stm32f4xx_hash.c:338:   HASH_MessageDigest->Data[4] =
ARM GAS  C:\Users\admin\AppData\Local\Temp\ccVYnskz.s 			page 16


 506              		.loc 1 338 31 view .LVU84
 507 0014 0361     		str	r3, [r0, #16]	@ _5, HASH_MessageDigest_7(D)->Data[4]
 508              	@ ../Libraries/STM32F4xx_StdPeriph_Driver/src/stm32f4xx_hash.c:339: }
 339:../Libraries/STM32F4xx_StdPeriph_Driver/src/stm32f4xx_hash.c **** }
 509              		.loc 1 339 1 view .LVU85
 510 0016 7047     		bx	lr	@
 511              	.L25:
 512              		.align	2
 513              	.L24:
 514 0018 00040650 		.word	1342571520
 515              		.cfi_endproc
 516              	.LFE117:
 517              		.size	HASH_GetDigest, .-HASH_GetDigest
 518              		.section	.text.HASH_StartDigest,"ax",%progbits
 519              		.align	1
 520              		.p2align 2,,3
 521              		.global	HASH_StartDigest
 522              		.syntax unified
 523              		.thumb
 524              		.thumb_func
 525              		.type	HASH_StartDigest, %function
 526              	HASH_StartDigest:
 527              	.LFB118:
 340:../Libraries/STM32F4xx_StdPeriph_Driver/src/stm32f4xx_hash.c **** 
 341:../Libraries/STM32F4xx_StdPeriph_Driver/src/stm32f4xx_hash.c **** /**
 342:../Libraries/STM32F4xx_StdPeriph_Driver/src/stm32f4xx_hash.c ****   * @brief  Starts the message padding and calculation of the final message     
 343:../Libraries/STM32F4xx_StdPeriph_Driver/src/stm32f4xx_hash.c ****   * @param  None
 344:../Libraries/STM32F4xx_StdPeriph_Driver/src/stm32f4xx_hash.c ****   * @retval None
 345:../Libraries/STM32F4xx_StdPeriph_Driver/src/stm32f4xx_hash.c ****   */
 346:../Libraries/STM32F4xx_StdPeriph_Driver/src/stm32f4xx_hash.c **** void HASH_StartDigest(void)
 347:../Libraries/STM32F4xx_StdPeriph_Driver/src/stm32f4xx_hash.c **** {
 528              		.loc 1 347 1 is_stmt 1 view -0
 529              		.cfi_startproc
 530              		@ args = 0, pretend = 0, frame = 0
 531              		@ frame_needed = 0, uses_anonymous_args = 0
 532              		@ link register save eliminated.
 348:../Libraries/STM32F4xx_StdPeriph_Driver/src/stm32f4xx_hash.c ****   /* Start the Digest calculation */
 349:../Libraries/STM32F4xx_StdPeriph_Driver/src/stm32f4xx_hash.c ****   HASH->STR |= HASH_STR_DCAL;
 533              		.loc 1 349 3 view .LVU87
 534              	@ ../Libraries/STM32F4xx_StdPeriph_Driver/src/stm32f4xx_hash.c:349:   HASH->STR |= HASH_STR_DCAL;
 535              		.loc 1 349 13 is_stmt 0 view .LVU88
 536 0000 024A     		ldr	r2, .L27	@ tmp115,
 537 0002 9368     		ldr	r3, [r2, #8]	@ _1, MEM[(struct HASH_TypeDef *)1342571520B].STR
 538 0004 43F48073 		orr	r3, r3, #256	@ _2, _1,
 539 0008 9360     		str	r3, [r2, #8]	@ _2, MEM[(struct HASH_TypeDef *)1342571520B].STR
 540              	@ ../Libraries/STM32F4xx_StdPeriph_Driver/src/stm32f4xx_hash.c:350: }
 350:../Libraries/STM32F4xx_StdPeriph_Driver/src/stm32f4xx_hash.c **** }
 541              		.loc 1 350 1 view .LVU89
 542 000a 7047     		bx	lr	@
 543              	.L28:
 544              		.align	2
 545              	.L27:
 546 000c 00040650 		.word	1342571520
 547              		.cfi_endproc
 548              	.LFE118:
 549              		.size	HASH_StartDigest, .-HASH_StartDigest
 550              		.section	.text.HASH_SaveContext,"ax",%progbits
ARM GAS  C:\Users\admin\AppData\Local\Temp\ccVYnskz.s 			page 17


 551              		.align	1
 552              		.p2align 2,,3
 553              		.global	HASH_SaveContext
 554              		.syntax unified
 555              		.thumb
 556              		.thumb_func
 557              		.type	HASH_SaveContext, %function
 558              	HASH_SaveContext:
 559              	.LVL15:
 560              	.LFB119:
 351:../Libraries/STM32F4xx_StdPeriph_Driver/src/stm32f4xx_hash.c **** /**
 352:../Libraries/STM32F4xx_StdPeriph_Driver/src/stm32f4xx_hash.c ****   * @}
 353:../Libraries/STM32F4xx_StdPeriph_Driver/src/stm32f4xx_hash.c ****   */
 354:../Libraries/STM32F4xx_StdPeriph_Driver/src/stm32f4xx_hash.c **** 
 355:../Libraries/STM32F4xx_StdPeriph_Driver/src/stm32f4xx_hash.c **** /** @defgroup HASH_Group3 Context swapping functions
 356:../Libraries/STM32F4xx_StdPeriph_Driver/src/stm32f4xx_hash.c ****  *  @brief   Context swapping functions
 357:../Libraries/STM32F4xx_StdPeriph_Driver/src/stm32f4xx_hash.c ****  *
 358:../Libraries/STM32F4xx_StdPeriph_Driver/src/stm32f4xx_hash.c **** @verbatim   
 359:../Libraries/STM32F4xx_StdPeriph_Driver/src/stm32f4xx_hash.c ****  ===============================================================================
 360:../Libraries/STM32F4xx_StdPeriph_Driver/src/stm32f4xx_hash.c ****                              Context swapping functions
 361:../Libraries/STM32F4xx_StdPeriph_Driver/src/stm32f4xx_hash.c ****  ===============================================================================  
 362:../Libraries/STM32F4xx_StdPeriph_Driver/src/stm32f4xx_hash.c **** 
 363:../Libraries/STM32F4xx_StdPeriph_Driver/src/stm32f4xx_hash.c ****   This section provides functions allowing to save and store HASH Context
 364:../Libraries/STM32F4xx_StdPeriph_Driver/src/stm32f4xx_hash.c ****   
 365:../Libraries/STM32F4xx_StdPeriph_Driver/src/stm32f4xx_hash.c ****   It is possible to interrupt a HASH/HMAC process to perform another processing 
 366:../Libraries/STM32F4xx_StdPeriph_Driver/src/stm32f4xx_hash.c ****   with a higher priority, and to complete the interrupted process later on, when 
 367:../Libraries/STM32F4xx_StdPeriph_Driver/src/stm32f4xx_hash.c ****   the higher priority task is complete. To do so, the context of the interrupted 
 368:../Libraries/STM32F4xx_StdPeriph_Driver/src/stm32f4xx_hash.c ****   task must be saved from the HASH registers to memory, and then be restored 
 369:../Libraries/STM32F4xx_StdPeriph_Driver/src/stm32f4xx_hash.c ****   from memory to the HASH registers.
 370:../Libraries/STM32F4xx_StdPeriph_Driver/src/stm32f4xx_hash.c ****   
 371:../Libraries/STM32F4xx_StdPeriph_Driver/src/stm32f4xx_hash.c ****   1. To save the current context, use HASH_SaveContext() function
 372:../Libraries/STM32F4xx_StdPeriph_Driver/src/stm32f4xx_hash.c ****   2. To restore the saved context, use HASH_RestoreContext() function 
 373:../Libraries/STM32F4xx_StdPeriph_Driver/src/stm32f4xx_hash.c ****   
 374:../Libraries/STM32F4xx_StdPeriph_Driver/src/stm32f4xx_hash.c **** 
 375:../Libraries/STM32F4xx_StdPeriph_Driver/src/stm32f4xx_hash.c **** @endverbatim
 376:../Libraries/STM32F4xx_StdPeriph_Driver/src/stm32f4xx_hash.c ****   * @{
 377:../Libraries/STM32F4xx_StdPeriph_Driver/src/stm32f4xx_hash.c ****   */
 378:../Libraries/STM32F4xx_StdPeriph_Driver/src/stm32f4xx_hash.c ****   
 379:../Libraries/STM32F4xx_StdPeriph_Driver/src/stm32f4xx_hash.c **** /**
 380:../Libraries/STM32F4xx_StdPeriph_Driver/src/stm32f4xx_hash.c ****   * @brief  Save the Hash peripheral Context. 
 381:../Libraries/STM32F4xx_StdPeriph_Driver/src/stm32f4xx_hash.c ****   * @note   The context can be saved only when no block is currently being 
 382:../Libraries/STM32F4xx_StdPeriph_Driver/src/stm32f4xx_hash.c ****   *         processed. So user must wait for DINIS = 1 (the last block has been 
 383:../Libraries/STM32F4xx_StdPeriph_Driver/src/stm32f4xx_hash.c ****   *         processed and the input FIFO is empty) or NBW != 0 (the FIFO is not 
 384:../Libraries/STM32F4xx_StdPeriph_Driver/src/stm32f4xx_hash.c ****   *         full and no processing is ongoing).   
 385:../Libraries/STM32F4xx_StdPeriph_Driver/src/stm32f4xx_hash.c ****   * @param  HASH_ContextSave: pointer to a HASH_Context structure that contains
 386:../Libraries/STM32F4xx_StdPeriph_Driver/src/stm32f4xx_hash.c ****   *         the repository for current context.
 387:../Libraries/STM32F4xx_StdPeriph_Driver/src/stm32f4xx_hash.c ****   * @retval None
 388:../Libraries/STM32F4xx_StdPeriph_Driver/src/stm32f4xx_hash.c ****   */
 389:../Libraries/STM32F4xx_StdPeriph_Driver/src/stm32f4xx_hash.c **** void HASH_SaveContext(HASH_Context* HASH_ContextSave)
 390:../Libraries/STM32F4xx_StdPeriph_Driver/src/stm32f4xx_hash.c **** {
 561              		.loc 1 390 1 is_stmt 1 view -0
 562              		.cfi_startproc
 563              		@ args = 0, pretend = 0, frame = 0
 564              		@ frame_needed = 0, uses_anonymous_args = 0
 565              		@ link register save eliminated.
 391:../Libraries/STM32F4xx_StdPeriph_Driver/src/stm32f4xx_hash.c ****   uint8_t i = 0;
 566              		.loc 1 391 3 view .LVU91
ARM GAS  C:\Users\admin\AppData\Local\Temp\ccVYnskz.s 			page 18


 392:../Libraries/STM32F4xx_StdPeriph_Driver/src/stm32f4xx_hash.c ****   
 393:../Libraries/STM32F4xx_StdPeriph_Driver/src/stm32f4xx_hash.c ****   /* save context registers */
 394:../Libraries/STM32F4xx_StdPeriph_Driver/src/stm32f4xx_hash.c ****   HASH_ContextSave->HASH_IMR = HASH->IMR;  
 567              		.loc 1 394 3 view .LVU92
 568              	@ ../Libraries/STM32F4xx_StdPeriph_Driver/src/stm32f4xx_hash.c:394:   HASH_ContextSave->HASH_IMR = 
 569              		.loc 1 394 36 is_stmt 0 view .LVU93
 570 0000 0949     		ldr	r1, .L32	@ tmp123,
 571 0002 0B6A     		ldr	r3, [r1, #32]	@ _1, MEM[(struct HASH_TypeDef *)1342571520B].IMR
 572              	@ ../Libraries/STM32F4xx_StdPeriph_Driver/src/stm32f4xx_hash.c:394:   HASH_ContextSave->HASH_IMR = 
 573              		.loc 1 394 30 view .LVU94
 574 0004 0360     		str	r3, [r0]	@ _1, HASH_ContextSave_9(D)->HASH_IMR
 395:../Libraries/STM32F4xx_StdPeriph_Driver/src/stm32f4xx_hash.c ****   HASH_ContextSave->HASH_STR = HASH->STR;      
 575              		.loc 1 395 3 is_stmt 1 view .LVU95
 576              	@ ../Libraries/STM32F4xx_StdPeriph_Driver/src/stm32f4xx_hash.c:395:   HASH_ContextSave->HASH_STR = 
 577              		.loc 1 395 36 is_stmt 0 view .LVU96
 578 0006 8B68     		ldr	r3, [r1, #8]	@ _2, MEM[(struct HASH_TypeDef *)1342571520B].STR
 579              	@ ../Libraries/STM32F4xx_StdPeriph_Driver/src/stm32f4xx_hash.c:395:   HASH_ContextSave->HASH_STR = 
 580              		.loc 1 395 30 view .LVU97
 581 0008 4360     		str	r3, [r0, #4]	@ _2, HASH_ContextSave_9(D)->HASH_STR
 396:../Libraries/STM32F4xx_StdPeriph_Driver/src/stm32f4xx_hash.c ****   HASH_ContextSave->HASH_CR  = HASH->CR;     
 582              		.loc 1 396 3 is_stmt 1 view .LVU98
 583              	@ ../Libraries/STM32F4xx_StdPeriph_Driver/src/stm32f4xx_hash.c:396:   HASH_ContextSave->HASH_CR  = 
 584              		.loc 1 396 36 is_stmt 0 view .LVU99
 585 000a 0B68     		ldr	r3, [r1]	@ _3, MEM[(struct HASH_TypeDef *)1342571520B].CR
 586              	@ ../Libraries/STM32F4xx_StdPeriph_Driver/src/stm32f4xx_hash.c:396:   HASH_ContextSave->HASH_CR  = 
 587              		.loc 1 396 30 view .LVU100
 588 000c 40F8083F 		str	r3, [r0, #8]!	@ _3, HASH_ContextSave_9(D)->HASH_CR
 589              	.LVL16:
 397:../Libraries/STM32F4xx_StdPeriph_Driver/src/stm32f4xx_hash.c ****   for(i=0; i<=50;i++)
 590              		.loc 1 397 3 is_stmt 1 view .LVU101
 591              		.loc 1 397 12 view .LVU102
 592              	@ ../Libraries/STM32F4xx_StdPeriph_Driver/src/stm32f4xx_hash.c:396:   HASH_ContextSave->HASH_CR  = 
 396:../Libraries/STM32F4xx_StdPeriph_Driver/src/stm32f4xx_hash.c ****   HASH_ContextSave->HASH_CR  = HASH->CR;     
 593              		.loc 1 396 30 is_stmt 0 view .LVU103
 594 0010 0023     		movs	r3, #0	@ ivtmp.55,
 595              	.LVL17:
 596              	.L30:
 398:../Libraries/STM32F4xx_StdPeriph_Driver/src/stm32f4xx_hash.c ****   {
 399:../Libraries/STM32F4xx_StdPeriph_Driver/src/stm32f4xx_hash.c ****      HASH_ContextSave->HASH_CSR[i] = HASH->CSR[i];
 597              		.loc 1 399 6 is_stmt 1 discriminator 3 view .LVU104
 598              	@ ../Libraries/STM32F4xx_StdPeriph_Driver/src/stm32f4xx_hash.c:399:      HASH_ContextSave->HASH_CSR
 599              		.loc 1 399 47 is_stmt 0 discriminator 3 view .LVU105
 600 0012 03F13E02 		add	r2, r3, #62	@ tmp127, ivtmp.55,
 601              	@ ../Libraries/STM32F4xx_StdPeriph_Driver/src/stm32f4xx_hash.c:397:   for(i=0; i<=50;i++)
 397:../Libraries/STM32F4xx_StdPeriph_Driver/src/stm32f4xx_hash.c ****   for(i=0; i<=50;i++)
 602              		.loc 1 397 3 discriminator 3 view .LVU106
 603 0016 0133     		adds	r3, r3, #1	@ ivtmp.55, ivtmp.55,
 604              	.LVL18:
 605              	@ ../Libraries/STM32F4xx_StdPeriph_Driver/src/stm32f4xx_hash.c:399:      HASH_ContextSave->HASH_CSR
 606              		.loc 1 399 47 discriminator 3 view .LVU107
 607 0018 51F82220 		ldr	r2, [r1, r2, lsl #2]	@ _5, MEM[(struct HASH_TypeDef *)1342571520B].CSR[_4]
 608              	@ ../Libraries/STM32F4xx_StdPeriph_Driver/src/stm32f4xx_hash.c:399:      HASH_ContextSave->HASH_CSR
 609              		.loc 1 399 36 discriminator 3 view .LVU108
 610 001c 40F8042F 		str	r2, [r0, #4]!	@ _5, MEM[base: _24, offset: 0B]
 397:../Libraries/STM32F4xx_StdPeriph_Driver/src/stm32f4xx_hash.c ****   for(i=0; i<=50;i++)
 611              		.loc 1 397 18 is_stmt 1 discriminator 3 view .LVU109
 397:../Libraries/STM32F4xx_StdPeriph_Driver/src/stm32f4xx_hash.c ****   for(i=0; i<=50;i++)
ARM GAS  C:\Users\admin\AppData\Local\Temp\ccVYnskz.s 			page 19


 612              		.loc 1 397 12 discriminator 3 view .LVU110
 613              	@ ../Libraries/STM32F4xx_StdPeriph_Driver/src/stm32f4xx_hash.c:397:   for(i=0; i<=50;i++)
 397:../Libraries/STM32F4xx_StdPeriph_Driver/src/stm32f4xx_hash.c ****   for(i=0; i<=50;i++)
 614              		.loc 1 397 3 is_stmt 0 discriminator 3 view .LVU111
 615 0020 332B     		cmp	r3, #51	@ ivtmp.55,
 616 0022 F6D1     		bne	.L30		@,
 617              	@ ../Libraries/STM32F4xx_StdPeriph_Driver/src/stm32f4xx_hash.c:401: }
 400:../Libraries/STM32F4xx_StdPeriph_Driver/src/stm32f4xx_hash.c ****   }   
 401:../Libraries/STM32F4xx_StdPeriph_Driver/src/stm32f4xx_hash.c **** }
 618              		.loc 1 401 1 view .LVU112
 619 0024 7047     		bx	lr	@
 620              	.L33:
 621 0026 00BF     		.align	2
 622              	.L32:
 623 0028 00040650 		.word	1342571520
 624              		.cfi_endproc
 625              	.LFE119:
 626              		.size	HASH_SaveContext, .-HASH_SaveContext
 627              		.section	.text.HASH_RestoreContext,"ax",%progbits
 628              		.align	1
 629              		.p2align 2,,3
 630              		.global	HASH_RestoreContext
 631              		.syntax unified
 632              		.thumb
 633              		.thumb_func
 634              		.type	HASH_RestoreContext, %function
 635              	HASH_RestoreContext:
 636              	.LVL19:
 637              	.LFB120:
 402:../Libraries/STM32F4xx_StdPeriph_Driver/src/stm32f4xx_hash.c **** 
 403:../Libraries/STM32F4xx_StdPeriph_Driver/src/stm32f4xx_hash.c **** /**
 404:../Libraries/STM32F4xx_StdPeriph_Driver/src/stm32f4xx_hash.c ****   * @brief  Restore the Hash peripheral Context.  
 405:../Libraries/STM32F4xx_StdPeriph_Driver/src/stm32f4xx_hash.c ****   * @note   After calling this function, user can restart the processing from the
 406:../Libraries/STM32F4xx_StdPeriph_Driver/src/stm32f4xx_hash.c ****   *         point where it has been interrupted.  
 407:../Libraries/STM32F4xx_StdPeriph_Driver/src/stm32f4xx_hash.c ****   * @param  HASH_ContextRestore: pointer to a HASH_Context structure that contains
 408:../Libraries/STM32F4xx_StdPeriph_Driver/src/stm32f4xx_hash.c ****   *         the repository for saved context.
 409:../Libraries/STM32F4xx_StdPeriph_Driver/src/stm32f4xx_hash.c ****   * @retval None
 410:../Libraries/STM32F4xx_StdPeriph_Driver/src/stm32f4xx_hash.c ****   */
 411:../Libraries/STM32F4xx_StdPeriph_Driver/src/stm32f4xx_hash.c **** void HASH_RestoreContext(HASH_Context* HASH_ContextRestore)  
 412:../Libraries/STM32F4xx_StdPeriph_Driver/src/stm32f4xx_hash.c **** {
 638              		.loc 1 412 1 is_stmt 1 view -0
 639              		.cfi_startproc
 640              		@ args = 0, pretend = 0, frame = 0
 641              		@ frame_needed = 0, uses_anonymous_args = 0
 642              		@ link register save eliminated.
 413:../Libraries/STM32F4xx_StdPeriph_Driver/src/stm32f4xx_hash.c ****   uint8_t i = 0;
 643              		.loc 1 413 3 view .LVU114
 414:../Libraries/STM32F4xx_StdPeriph_Driver/src/stm32f4xx_hash.c ****   
 415:../Libraries/STM32F4xx_StdPeriph_Driver/src/stm32f4xx_hash.c ****   /* restore context registers */
 416:../Libraries/STM32F4xx_StdPeriph_Driver/src/stm32f4xx_hash.c ****   HASH->IMR = HASH_ContextRestore->HASH_IMR;   
 644              		.loc 1 416 3 view .LVU115
 645              	@ ../Libraries/STM32F4xx_StdPeriph_Driver/src/stm32f4xx_hash.c:412: {
 412:../Libraries/STM32F4xx_StdPeriph_Driver/src/stm32f4xx_hash.c ****   uint8_t i = 0;
 646              		.loc 1 412 1 is_stmt 0 view .LVU116
 647 0000 10B4     		push	{r4}	@
 648              		.cfi_def_cfa_offset 4
 649              		.cfi_offset 4, -4
ARM GAS  C:\Users\admin\AppData\Local\Temp\ccVYnskz.s 			page 20


 650              	@ ../Libraries/STM32F4xx_StdPeriph_Driver/src/stm32f4xx_hash.c:416:   HASH->IMR = HASH_ContextResto
 651              		.loc 1 416 13 view .LVU117
 652 0002 0C4C     		ldr	r4, .L38	@ tmp125,
 653              	@ ../Libraries/STM32F4xx_StdPeriph_Driver/src/stm32f4xx_hash.c:416:   HASH->IMR = HASH_ContextResto
 654              		.loc 1 416 34 view .LVU118
 655 0004 0368     		ldr	r3, [r0]	@ _1, HASH_ContextRestore_11(D)->HASH_IMR
 656              	@ ../Libraries/STM32F4xx_StdPeriph_Driver/src/stm32f4xx_hash.c:416:   HASH->IMR = HASH_ContextResto
 657              		.loc 1 416 13 view .LVU119
 658 0006 2362     		str	r3, [r4, #32]	@ _1, MEM[(struct HASH_TypeDef *)1342571520B].IMR
 417:../Libraries/STM32F4xx_StdPeriph_Driver/src/stm32f4xx_hash.c ****   HASH->STR = HASH_ContextRestore->HASH_STR;     
 659              		.loc 1 417 3 is_stmt 1 view .LVU120
 660              	@ ../Libraries/STM32F4xx_StdPeriph_Driver/src/stm32f4xx_hash.c:417:   HASH->STR = HASH_ContextResto
 661              		.loc 1 417 34 is_stmt 0 view .LVU121
 662 0008 4368     		ldr	r3, [r0, #4]	@ _2, HASH_ContextRestore_11(D)->HASH_STR
 663              	@ ../Libraries/STM32F4xx_StdPeriph_Driver/src/stm32f4xx_hash.c:417:   HASH->STR = HASH_ContextResto
 664              		.loc 1 417 13 view .LVU122
 665 000a A360     		str	r3, [r4, #8]	@ _2, MEM[(struct HASH_TypeDef *)1342571520B].STR
 418:../Libraries/STM32F4xx_StdPeriph_Driver/src/stm32f4xx_hash.c ****   HASH->CR = HASH_ContextRestore->HASH_CR;
 666              		.loc 1 418 3 is_stmt 1 view .LVU123
 667              	@ ../Libraries/STM32F4xx_StdPeriph_Driver/src/stm32f4xx_hash.c:418:   HASH->CR = HASH_ContextRestor
 668              		.loc 1 418 33 is_stmt 0 view .LVU124
 669 000c 50F8083F 		ldr	r3, [r0, #8]!	@ _3, HASH_ContextRestore_11(D)->HASH_CR
 670              	.LVL20:
 671              	@ ../Libraries/STM32F4xx_StdPeriph_Driver/src/stm32f4xx_hash.c:418:   HASH->CR = HASH_ContextRestor
 672              		.loc 1 418 12 view .LVU125
 673 0010 2360     		str	r3, [r4]	@ _3, MEM[(struct HASH_TypeDef *)1342571520B].CR
 419:../Libraries/STM32F4xx_StdPeriph_Driver/src/stm32f4xx_hash.c ****   
 420:../Libraries/STM32F4xx_StdPeriph_Driver/src/stm32f4xx_hash.c ****   /* Initialize the hash processor */
 421:../Libraries/STM32F4xx_StdPeriph_Driver/src/stm32f4xx_hash.c ****   HASH->CR |= HASH_CR_INIT; 
 674              		.loc 1 421 3 is_stmt 1 view .LVU126
 675              	@ ../Libraries/STM32F4xx_StdPeriph_Driver/src/stm32f4xx_hash.c:421:   HASH->CR |= HASH_CR_INIT; 
 676              		.loc 1 421 12 is_stmt 0 view .LVU127
 677 0012 2268     		ldr	r2, [r4]	@ _4, MEM[(struct HASH_TypeDef *)1342571520B].CR
 678 0014 42F00402 		orr	r2, r2, #4	@ _5, _4,
 679 0018 0023     		movs	r3, #0	@ ivtmp.70,
 680 001a 2260     		str	r2, [r4]	@ _5, MEM[(struct HASH_TypeDef *)1342571520B].CR
 422:../Libraries/STM32F4xx_StdPeriph_Driver/src/stm32f4xx_hash.c ****   
 423:../Libraries/STM32F4xx_StdPeriph_Driver/src/stm32f4xx_hash.c ****    /* continue restoring context registers */     
 424:../Libraries/STM32F4xx_StdPeriph_Driver/src/stm32f4xx_hash.c ****   for(i=0; i<=50;i++)
 681              		.loc 1 424 3 is_stmt 1 view .LVU128
 682              		.loc 1 424 12 view .LVU129
 683              	.LVL21:
 684              	.L35:
 425:../Libraries/STM32F4xx_StdPeriph_Driver/src/stm32f4xx_hash.c ****   {
 426:../Libraries/STM32F4xx_StdPeriph_Driver/src/stm32f4xx_hash.c ****      HASH->CSR[i] = HASH_ContextRestore->HASH_CSR[i];
 685              		.loc 1 426 6 discriminator 3 view .LVU130
 686              	@ ../Libraries/STM32F4xx_StdPeriph_Driver/src/stm32f4xx_hash.c:426:      HASH->CSR[i] = HASH_Contex
 687              		.loc 1 426 19 is_stmt 0 discriminator 3 view .LVU131
 688 001c 03F13E02 		add	r2, r3, #62	@ tmp131, ivtmp.70,
 689              	@ ../Libraries/STM32F4xx_StdPeriph_Driver/src/stm32f4xx_hash.c:424:   for(i=0; i<=50;i++)
 424:../Libraries/STM32F4xx_StdPeriph_Driver/src/stm32f4xx_hash.c ****   {
 690              		.loc 1 424 3 discriminator 3 view .LVU132
 691 0020 0133     		adds	r3, r3, #1	@ ivtmp.70, ivtmp.70,
 692              	.LVL22:
 693              	@ ../Libraries/STM32F4xx_StdPeriph_Driver/src/stm32f4xx_hash.c:426:      HASH->CSR[i] = HASH_Contex
 694              		.loc 1 426 50 discriminator 3 view .LVU133
 695 0022 50F8041F 		ldr	r1, [r0, #4]!	@ _7, MEM[base: _27, offset: 0B]
ARM GAS  C:\Users\admin\AppData\Local\Temp\ccVYnskz.s 			page 21


 696              	@ ../Libraries/STM32F4xx_StdPeriph_Driver/src/stm32f4xx_hash.c:426:      HASH->CSR[i] = HASH_Contex
 697              		.loc 1 426 19 discriminator 3 view .LVU134
 698 0026 44F82210 		str	r1, [r4, r2, lsl #2]	@ _7, MEM[(struct HASH_TypeDef *)1342571520B].CSR[_6]
 424:../Libraries/STM32F4xx_StdPeriph_Driver/src/stm32f4xx_hash.c ****   {
 699              		.loc 1 424 18 is_stmt 1 discriminator 3 view .LVU135
 424:../Libraries/STM32F4xx_StdPeriph_Driver/src/stm32f4xx_hash.c ****   {
 700              		.loc 1 424 12 discriminator 3 view .LVU136
 701              	@ ../Libraries/STM32F4xx_StdPeriph_Driver/src/stm32f4xx_hash.c:424:   for(i=0; i<=50;i++)
 424:../Libraries/STM32F4xx_StdPeriph_Driver/src/stm32f4xx_hash.c ****   {
 702              		.loc 1 424 3 is_stmt 0 discriminator 3 view .LVU137
 703 002a 332B     		cmp	r3, #51	@ ivtmp.70,
 704 002c F6D1     		bne	.L35		@,
 705              	@ ../Libraries/STM32F4xx_StdPeriph_Driver/src/stm32f4xx_hash.c:428: }
 427:../Libraries/STM32F4xx_StdPeriph_Driver/src/stm32f4xx_hash.c ****   }   
 428:../Libraries/STM32F4xx_StdPeriph_Driver/src/stm32f4xx_hash.c **** }
 706              		.loc 1 428 1 view .LVU138
 707 002e 5DF8044B 		ldr	r4, [sp], #4	@,
 708              		.cfi_restore 4
 709              		.cfi_def_cfa_offset 0
 710 0032 7047     		bx	lr	@
 711              	.L39:
 712              		.align	2
 713              	.L38:
 714 0034 00040650 		.word	1342571520
 715              		.cfi_endproc
 716              	.LFE120:
 717              		.size	HASH_RestoreContext, .-HASH_RestoreContext
 718              		.section	.text.HASH_DMACmd,"ax",%progbits
 719              		.align	1
 720              		.p2align 2,,3
 721              		.global	HASH_DMACmd
 722              		.syntax unified
 723              		.thumb
 724              		.thumb_func
 725              		.type	HASH_DMACmd, %function
 726              	HASH_DMACmd:
 727              	.LVL23:
 728              	.LFB121:
 429:../Libraries/STM32F4xx_StdPeriph_Driver/src/stm32f4xx_hash.c **** /**
 430:../Libraries/STM32F4xx_StdPeriph_Driver/src/stm32f4xx_hash.c ****   * @}
 431:../Libraries/STM32F4xx_StdPeriph_Driver/src/stm32f4xx_hash.c ****   */
 432:../Libraries/STM32F4xx_StdPeriph_Driver/src/stm32f4xx_hash.c **** 
 433:../Libraries/STM32F4xx_StdPeriph_Driver/src/stm32f4xx_hash.c **** /** @defgroup HASH_Group4 HASH's DMA interface Configuration function
 434:../Libraries/STM32F4xx_StdPeriph_Driver/src/stm32f4xx_hash.c ****  *  @brief   HASH's DMA interface Configuration function 
 435:../Libraries/STM32F4xx_StdPeriph_Driver/src/stm32f4xx_hash.c ****  *
 436:../Libraries/STM32F4xx_StdPeriph_Driver/src/stm32f4xx_hash.c **** @verbatim   
 437:../Libraries/STM32F4xx_StdPeriph_Driver/src/stm32f4xx_hash.c ****  ===============================================================================
 438:../Libraries/STM32F4xx_StdPeriph_Driver/src/stm32f4xx_hash.c ****                    HASH's DMA interface Configuration function
 439:../Libraries/STM32F4xx_StdPeriph_Driver/src/stm32f4xx_hash.c ****  ===============================================================================  
 440:../Libraries/STM32F4xx_StdPeriph_Driver/src/stm32f4xx_hash.c **** 
 441:../Libraries/STM32F4xx_StdPeriph_Driver/src/stm32f4xx_hash.c ****   This section provides functions allowing to configure the DMA interface for 
 442:../Libraries/STM32F4xx_StdPeriph_Driver/src/stm32f4xx_hash.c ****   HASH/ HMAC data input transfer.
 443:../Libraries/STM32F4xx_StdPeriph_Driver/src/stm32f4xx_hash.c ****    
 444:../Libraries/STM32F4xx_StdPeriph_Driver/src/stm32f4xx_hash.c ****   When the DMA mode is enabled (using the HASH_DMACmd() function), data can be 
 445:../Libraries/STM32F4xx_StdPeriph_Driver/src/stm32f4xx_hash.c ****   sent to the IN FIFO using the DMA peripheral.
 446:../Libraries/STM32F4xx_StdPeriph_Driver/src/stm32f4xx_hash.c **** 
 447:../Libraries/STM32F4xx_StdPeriph_Driver/src/stm32f4xx_hash.c **** 
ARM GAS  C:\Users\admin\AppData\Local\Temp\ccVYnskz.s 			page 22


 448:../Libraries/STM32F4xx_StdPeriph_Driver/src/stm32f4xx_hash.c **** 
 449:../Libraries/STM32F4xx_StdPeriph_Driver/src/stm32f4xx_hash.c **** @endverbatim
 450:../Libraries/STM32F4xx_StdPeriph_Driver/src/stm32f4xx_hash.c ****   * @{
 451:../Libraries/STM32F4xx_StdPeriph_Driver/src/stm32f4xx_hash.c ****   */
 452:../Libraries/STM32F4xx_StdPeriph_Driver/src/stm32f4xx_hash.c ****   
 453:../Libraries/STM32F4xx_StdPeriph_Driver/src/stm32f4xx_hash.c **** /**
 454:../Libraries/STM32F4xx_StdPeriph_Driver/src/stm32f4xx_hash.c ****   * @brief  Enables or disables the HASH DMA interface.
 455:../Libraries/STM32F4xx_StdPeriph_Driver/src/stm32f4xx_hash.c ****   * @note   The DMA is disabled by hardware after the end of transfer.
 456:../Libraries/STM32F4xx_StdPeriph_Driver/src/stm32f4xx_hash.c ****   * @param  NewState: new state of the selected HASH DMA transfer request.
 457:../Libraries/STM32F4xx_StdPeriph_Driver/src/stm32f4xx_hash.c ****   *          This parameter can be: ENABLE or DISABLE.
 458:../Libraries/STM32F4xx_StdPeriph_Driver/src/stm32f4xx_hash.c ****   * @retval None
 459:../Libraries/STM32F4xx_StdPeriph_Driver/src/stm32f4xx_hash.c ****   */
 460:../Libraries/STM32F4xx_StdPeriph_Driver/src/stm32f4xx_hash.c **** void HASH_DMACmd(FunctionalState NewState)
 461:../Libraries/STM32F4xx_StdPeriph_Driver/src/stm32f4xx_hash.c **** {
 729              		.loc 1 461 1 is_stmt 1 view -0
 730              		.cfi_startproc
 731              		@ args = 0, pretend = 0, frame = 0
 732              		@ frame_needed = 0, uses_anonymous_args = 0
 462:../Libraries/STM32F4xx_StdPeriph_Driver/src/stm32f4xx_hash.c ****   /* Check the parameters */
 463:../Libraries/STM32F4xx_StdPeriph_Driver/src/stm32f4xx_hash.c ****   assert_param(IS_FUNCTIONAL_STATE(NewState));
 733              		.loc 1 463 3 view .LVU140
 734 0000 0128     		cmp	r0, #1	@ NewState,
 735              	@ ../Libraries/STM32F4xx_StdPeriph_Driver/src/stm32f4xx_hash.c:461: {
 461:../Libraries/STM32F4xx_StdPeriph_Driver/src/stm32f4xx_hash.c ****   /* Check the parameters */
 736              		.loc 1 461 1 is_stmt 0 view .LVU141
 737 0002 10B5     		push	{r4, lr}	@
 738              		.cfi_def_cfa_offset 8
 739              		.cfi_offset 4, -8
 740              		.cfi_offset 14, -4
 741              	@ ../Libraries/STM32F4xx_StdPeriph_Driver/src/stm32f4xx_hash.c:461: {
 461:../Libraries/STM32F4xx_StdPeriph_Driver/src/stm32f4xx_hash.c ****   /* Check the parameters */
 742              		.loc 1 461 1 view .LVU142
 743 0004 0446     		mov	r4, r0	@ NewState, tmp128
 744              	@ ../Libraries/STM32F4xx_StdPeriph_Driver/src/stm32f4xx_hash.c:463:   assert_param(IS_FUNCTIONAL_ST
 745              		.loc 1 463 3 view .LVU143
 746 0006 8CBF     		ite	hi
 747 0008 0020     		movhi	r0, #0	@,
 748              	.LVL24:
 749              		.loc 1 463 3 view .LVU144
 750 000a 0120     		movls	r0, #1	@,
 751 000c FFF7FEFF 		bl	assert_param		@
 752              	.LVL25:
 464:../Libraries/STM32F4xx_StdPeriph_Driver/src/stm32f4xx_hash.c **** 
 465:../Libraries/STM32F4xx_StdPeriph_Driver/src/stm32f4xx_hash.c ****   if (NewState != DISABLE)
 753              		.loc 1 465 3 is_stmt 1 view .LVU145
 754              	@ ../Libraries/STM32F4xx_StdPeriph_Driver/src/stm32f4xx_hash.c:468:     HASH->CR |= HASH_CR_DMAE;
 466:../Libraries/STM32F4xx_StdPeriph_Driver/src/stm32f4xx_hash.c ****   {
 467:../Libraries/STM32F4xx_StdPeriph_Driver/src/stm32f4xx_hash.c ****     /* Enable the HASH DMA request */
 468:../Libraries/STM32F4xx_StdPeriph_Driver/src/stm32f4xx_hash.c ****     HASH->CR |= HASH_CR_DMAE;
 755              		.loc 1 468 14 is_stmt 0 view .LVU146
 756 0010 054A     		ldr	r2, .L44	@ tmp124,
 757 0012 1368     		ldr	r3, [r2]	@ _3,
 758              	@ ../Libraries/STM32F4xx_StdPeriph_Driver/src/stm32f4xx_hash.c:465:   if (NewState != DISABLE)
 465:../Libraries/STM32F4xx_StdPeriph_Driver/src/stm32f4xx_hash.c ****   {
 759              		.loc 1 465 6 view .LVU147
 760 0014 1CB1     		cbz	r4, .L41	@ NewState,
 761              		.loc 1 468 5 is_stmt 1 view .LVU148
ARM GAS  C:\Users\admin\AppData\Local\Temp\ccVYnskz.s 			page 23


 762              	@ ../Libraries/STM32F4xx_StdPeriph_Driver/src/stm32f4xx_hash.c:468:     HASH->CR |= HASH_CR_DMAE;
 763              		.loc 1 468 14 is_stmt 0 view .LVU149
 764 0016 43F00803 		orr	r3, r3, #8	@ _4, _3,
 765 001a 1360     		str	r3, [r2]	@ _4,
 766              	@ ../Libraries/STM32F4xx_StdPeriph_Driver/src/stm32f4xx_hash.c:475: }
 469:../Libraries/STM32F4xx_StdPeriph_Driver/src/stm32f4xx_hash.c ****   }
 470:../Libraries/STM32F4xx_StdPeriph_Driver/src/stm32f4xx_hash.c ****   else
 471:../Libraries/STM32F4xx_StdPeriph_Driver/src/stm32f4xx_hash.c ****   {
 472:../Libraries/STM32F4xx_StdPeriph_Driver/src/stm32f4xx_hash.c ****     /* Disable the HASH DMA request */
 473:../Libraries/STM32F4xx_StdPeriph_Driver/src/stm32f4xx_hash.c ****     HASH->CR &= ~HASH_CR_DMAE;
 474:../Libraries/STM32F4xx_StdPeriph_Driver/src/stm32f4xx_hash.c ****   }
 475:../Libraries/STM32F4xx_StdPeriph_Driver/src/stm32f4xx_hash.c **** }
 767              		.loc 1 475 1 view .LVU150
 768 001c 10BD     		pop	{r4, pc}	@
 769              	.L41:
 473:../Libraries/STM32F4xx_StdPeriph_Driver/src/stm32f4xx_hash.c ****   }
 770              		.loc 1 473 5 is_stmt 1 view .LVU151
 771              	@ ../Libraries/STM32F4xx_StdPeriph_Driver/src/stm32f4xx_hash.c:473:     HASH->CR &= ~HASH_CR_DMAE;
 473:../Libraries/STM32F4xx_StdPeriph_Driver/src/stm32f4xx_hash.c ****   }
 772              		.loc 1 473 14 is_stmt 0 view .LVU152
 773 001e 23F00803 		bic	r3, r3, #8	@ _6, _5,
 774 0022 1360     		str	r3, [r2]	@ _6,
 775              	@ ../Libraries/STM32F4xx_StdPeriph_Driver/src/stm32f4xx_hash.c:475: }
 776              		.loc 1 475 1 view .LVU153
 777 0024 10BD     		pop	{r4, pc}	@
 778              	.L45:
 779 0026 00BF     		.align	2
 780              	.L44:
 781 0028 00040650 		.word	1342571520
 782              		.cfi_endproc
 783              	.LFE121:
 784              		.size	HASH_DMACmd, .-HASH_DMACmd
 785              		.section	.text.HASH_ITConfig,"ax",%progbits
 786              		.align	1
 787              		.p2align 2,,3
 788              		.global	HASH_ITConfig
 789              		.syntax unified
 790              		.thumb
 791              		.thumb_func
 792              		.type	HASH_ITConfig, %function
 793              	HASH_ITConfig:
 794              	.LVL26:
 795              	.LFB122:
 476:../Libraries/STM32F4xx_StdPeriph_Driver/src/stm32f4xx_hash.c **** /**
 477:../Libraries/STM32F4xx_StdPeriph_Driver/src/stm32f4xx_hash.c ****   * @}
 478:../Libraries/STM32F4xx_StdPeriph_Driver/src/stm32f4xx_hash.c ****   */
 479:../Libraries/STM32F4xx_StdPeriph_Driver/src/stm32f4xx_hash.c **** 
 480:../Libraries/STM32F4xx_StdPeriph_Driver/src/stm32f4xx_hash.c **** /** @defgroup HASH_Group5 Interrupts and flags management functions
 481:../Libraries/STM32F4xx_StdPeriph_Driver/src/stm32f4xx_hash.c ****  *  @brief   Interrupts and flags management functions
 482:../Libraries/STM32F4xx_StdPeriph_Driver/src/stm32f4xx_hash.c ****  *
 483:../Libraries/STM32F4xx_StdPeriph_Driver/src/stm32f4xx_hash.c **** @verbatim   
 484:../Libraries/STM32F4xx_StdPeriph_Driver/src/stm32f4xx_hash.c ****  ===============================================================================
 485:../Libraries/STM32F4xx_StdPeriph_Driver/src/stm32f4xx_hash.c ****                    Interrupts and flags management functions
 486:../Libraries/STM32F4xx_StdPeriph_Driver/src/stm32f4xx_hash.c ****  ===============================================================================  
 487:../Libraries/STM32F4xx_StdPeriph_Driver/src/stm32f4xx_hash.c **** 
 488:../Libraries/STM32F4xx_StdPeriph_Driver/src/stm32f4xx_hash.c ****   This section provides functions allowing to configure the HASH Interrupts and 
 489:../Libraries/STM32F4xx_StdPeriph_Driver/src/stm32f4xx_hash.c ****   to get the status and clear flags and Interrupts pending bits.
ARM GAS  C:\Users\admin\AppData\Local\Temp\ccVYnskz.s 			page 24


 490:../Libraries/STM32F4xx_StdPeriph_Driver/src/stm32f4xx_hash.c ****   
 491:../Libraries/STM32F4xx_StdPeriph_Driver/src/stm32f4xx_hash.c ****   The HASH provides 2 Interrupts sources and 5 Flags:
 492:../Libraries/STM32F4xx_StdPeriph_Driver/src/stm32f4xx_hash.c ****   
 493:../Libraries/STM32F4xx_StdPeriph_Driver/src/stm32f4xx_hash.c ****   Flags :
 494:../Libraries/STM32F4xx_StdPeriph_Driver/src/stm32f4xx_hash.c ****   ---------- 
 495:../Libraries/STM32F4xx_StdPeriph_Driver/src/stm32f4xx_hash.c ****      1. HASH_FLAG_DINIS : set when 16 locations are free in the Data IN FIFO 
 496:../Libraries/STM32F4xx_StdPeriph_Driver/src/stm32f4xx_hash.c ****                           which means that a  new block (512 bit) can be entered 
 497:../Libraries/STM32F4xx_StdPeriph_Driver/src/stm32f4xx_hash.c ****                           into the input buffer.
 498:../Libraries/STM32F4xx_StdPeriph_Driver/src/stm32f4xx_hash.c ****                           
 499:../Libraries/STM32F4xx_StdPeriph_Driver/src/stm32f4xx_hash.c ****      2. HASH_FLAG_DCIS :  set when Digest calculation is complete
 500:../Libraries/STM32F4xx_StdPeriph_Driver/src/stm32f4xx_hash.c ****       
 501:../Libraries/STM32F4xx_StdPeriph_Driver/src/stm32f4xx_hash.c ****      3. HASH_FLAG_DMAS :  set when HASH's DMA interface is enabled (DMAE=1) or 
 502:../Libraries/STM32F4xx_StdPeriph_Driver/src/stm32f4xx_hash.c ****                           a transfer is ongoing.
 503:../Libraries/STM32F4xx_StdPeriph_Driver/src/stm32f4xx_hash.c ****                           This Flag is cleared only by hardware.
 504:../Libraries/STM32F4xx_StdPeriph_Driver/src/stm32f4xx_hash.c ****                            
 505:../Libraries/STM32F4xx_StdPeriph_Driver/src/stm32f4xx_hash.c ****      4. HASH_FLAG_BUSY :  set when The hash core is processing a block of data
 506:../Libraries/STM32F4xx_StdPeriph_Driver/src/stm32f4xx_hash.c ****                           This Flag is cleared only by hardware. 
 507:../Libraries/STM32F4xx_StdPeriph_Driver/src/stm32f4xx_hash.c ****                            
 508:../Libraries/STM32F4xx_StdPeriph_Driver/src/stm32f4xx_hash.c ****      5. HASH_FLAG_DINNE : set when Data IN FIFO is not empty which means that 
 509:../Libraries/STM32F4xx_StdPeriph_Driver/src/stm32f4xx_hash.c ****                           the Data IN FIFO contains at least one word of data.
 510:../Libraries/STM32F4xx_StdPeriph_Driver/src/stm32f4xx_hash.c ****                           This Flag is cleared only by hardware.
 511:../Libraries/STM32F4xx_StdPeriph_Driver/src/stm32f4xx_hash.c ****      
 512:../Libraries/STM32F4xx_StdPeriph_Driver/src/stm32f4xx_hash.c ****   Interrupts :
 513:../Libraries/STM32F4xx_StdPeriph_Driver/src/stm32f4xx_hash.c ****   ------------
 514:../Libraries/STM32F4xx_StdPeriph_Driver/src/stm32f4xx_hash.c ****     
 515:../Libraries/STM32F4xx_StdPeriph_Driver/src/stm32f4xx_hash.c ****    1. HASH_IT_DINI  : if enabled, this interrupt source is pending when 16 
 516:../Libraries/STM32F4xx_StdPeriph_Driver/src/stm32f4xx_hash.c ****                       locations are free in the Data IN FIFO  which means that 
 517:../Libraries/STM32F4xx_StdPeriph_Driver/src/stm32f4xx_hash.c ****                       a new block (512 bit) can be entered into the input buffer.
 518:../Libraries/STM32F4xx_StdPeriph_Driver/src/stm32f4xx_hash.c ****                       This interrupt source is cleared using 
 519:../Libraries/STM32F4xx_StdPeriph_Driver/src/stm32f4xx_hash.c ****                       HASH_ClearITPendingBit(HASH_IT_DINI) function.
 520:../Libraries/STM32F4xx_StdPeriph_Driver/src/stm32f4xx_hash.c ****    
 521:../Libraries/STM32F4xx_StdPeriph_Driver/src/stm32f4xx_hash.c ****    2. HASH_IT_DCI   : if enabled, this interrupt source is pending when Digest 
 522:../Libraries/STM32F4xx_StdPeriph_Driver/src/stm32f4xx_hash.c ****                       calculation is complete.
 523:../Libraries/STM32F4xx_StdPeriph_Driver/src/stm32f4xx_hash.c ****                       This interrupt source is cleared using 
 524:../Libraries/STM32F4xx_StdPeriph_Driver/src/stm32f4xx_hash.c ****                       HASH_ClearITPendingBit(HASH_IT_DCI) function.
 525:../Libraries/STM32F4xx_StdPeriph_Driver/src/stm32f4xx_hash.c **** 
 526:../Libraries/STM32F4xx_StdPeriph_Driver/src/stm32f4xx_hash.c ****   Managing the HASH controller events :
 527:../Libraries/STM32F4xx_StdPeriph_Driver/src/stm32f4xx_hash.c ****   ------------------------------------ 
 528:../Libraries/STM32F4xx_StdPeriph_Driver/src/stm32f4xx_hash.c ****   The user should identify which mode will be used in his application to manage 
 529:../Libraries/STM32F4xx_StdPeriph_Driver/src/stm32f4xx_hash.c ****   the HASH controller events: Polling mode or Interrupt mode.
 530:../Libraries/STM32F4xx_StdPeriph_Driver/src/stm32f4xx_hash.c ****   
 531:../Libraries/STM32F4xx_StdPeriph_Driver/src/stm32f4xx_hash.c ****   1.  In the Polling Mode it is advised to use the following functions:
 532:../Libraries/STM32F4xx_StdPeriph_Driver/src/stm32f4xx_hash.c ****       - HASH_GetFlagStatus() : to check if flags events occur. 
 533:../Libraries/STM32F4xx_StdPeriph_Driver/src/stm32f4xx_hash.c ****       - HASH_ClearFlag()     : to clear the flags events.
 534:../Libraries/STM32F4xx_StdPeriph_Driver/src/stm32f4xx_hash.c ****     
 535:../Libraries/STM32F4xx_StdPeriph_Driver/src/stm32f4xx_hash.c ****   2.  In the Interrupt Mode it is advised to use the following functions:
 536:../Libraries/STM32F4xx_StdPeriph_Driver/src/stm32f4xx_hash.c ****       - HASH_ITConfig()       : to enable or disable the interrupt source.
 537:../Libraries/STM32F4xx_StdPeriph_Driver/src/stm32f4xx_hash.c ****       - HASH_GetITStatus()    : to check if Interrupt occurs.
 538:../Libraries/STM32F4xx_StdPeriph_Driver/src/stm32f4xx_hash.c ****       - HASH_ClearITPendingBit() : to clear the Interrupt pending Bit 
 539:../Libraries/STM32F4xx_StdPeriph_Driver/src/stm32f4xx_hash.c ****                                 (corresponding Flag). 
 540:../Libraries/STM32F4xx_StdPeriph_Driver/src/stm32f4xx_hash.c **** 
 541:../Libraries/STM32F4xx_StdPeriph_Driver/src/stm32f4xx_hash.c **** @endverbatim
 542:../Libraries/STM32F4xx_StdPeriph_Driver/src/stm32f4xx_hash.c ****   * @{
 543:../Libraries/STM32F4xx_StdPeriph_Driver/src/stm32f4xx_hash.c ****   */ 
 544:../Libraries/STM32F4xx_StdPeriph_Driver/src/stm32f4xx_hash.c ****   
 545:../Libraries/STM32F4xx_StdPeriph_Driver/src/stm32f4xx_hash.c **** /**
 546:../Libraries/STM32F4xx_StdPeriph_Driver/src/stm32f4xx_hash.c ****   * @brief  Enables or disables the specified HASH interrupts.
ARM GAS  C:\Users\admin\AppData\Local\Temp\ccVYnskz.s 			page 25


 547:../Libraries/STM32F4xx_StdPeriph_Driver/src/stm32f4xx_hash.c ****   * @param  HASH_IT: specifies the HASH interrupt source to be enabled or disabled.
 548:../Libraries/STM32F4xx_StdPeriph_Driver/src/stm32f4xx_hash.c ****   *          This parameter can be any combination of the following values:
 549:../Libraries/STM32F4xx_StdPeriph_Driver/src/stm32f4xx_hash.c ****   *            @arg HASH_IT_DINI: Data Input interrupt
 550:../Libraries/STM32F4xx_StdPeriph_Driver/src/stm32f4xx_hash.c ****   *            @arg HASH_IT_DCI: Digest Calculation Completion Interrupt
 551:../Libraries/STM32F4xx_StdPeriph_Driver/src/stm32f4xx_hash.c ****   * @param  NewState: new state of the specified HASH interrupt.
 552:../Libraries/STM32F4xx_StdPeriph_Driver/src/stm32f4xx_hash.c ****   *           This parameter can be: ENABLE or DISABLE.
 553:../Libraries/STM32F4xx_StdPeriph_Driver/src/stm32f4xx_hash.c ****   * @retval None
 554:../Libraries/STM32F4xx_StdPeriph_Driver/src/stm32f4xx_hash.c ****   */
 555:../Libraries/STM32F4xx_StdPeriph_Driver/src/stm32f4xx_hash.c **** void HASH_ITConfig(uint8_t HASH_IT, FunctionalState NewState)
 556:../Libraries/STM32F4xx_StdPeriph_Driver/src/stm32f4xx_hash.c **** {
 796              		.loc 1 556 1 is_stmt 1 view -0
 797              		.cfi_startproc
 798              		@ args = 0, pretend = 0, frame = 0
 799              		@ frame_needed = 0, uses_anonymous_args = 0
 557:../Libraries/STM32F4xx_StdPeriph_Driver/src/stm32f4xx_hash.c ****   /* Check the parameters */
 558:../Libraries/STM32F4xx_StdPeriph_Driver/src/stm32f4xx_hash.c ****   assert_param(IS_HASH_IT(HASH_IT));
 800              		.loc 1 558 3 view .LVU155
 801 0000 10F0FC0F 		tst	r0, #252	@ HASH_IT,
 802              	@ ../Libraries/STM32F4xx_StdPeriph_Driver/src/stm32f4xx_hash.c:556: {
 556:../Libraries/STM32F4xx_StdPeriph_Driver/src/stm32f4xx_hash.c ****   /* Check the parameters */
 803              		.loc 1 556 1 is_stmt 0 view .LVU156
 804 0004 38B5     		push	{r3, r4, r5, lr}	@
 805              		.cfi_def_cfa_offset 16
 806              		.cfi_offset 3, -16
 807              		.cfi_offset 4, -12
 808              		.cfi_offset 5, -8
 809              		.cfi_offset 14, -4
 810              	@ ../Libraries/STM32F4xx_StdPeriph_Driver/src/stm32f4xx_hash.c:556: {
 556:../Libraries/STM32F4xx_StdPeriph_Driver/src/stm32f4xx_hash.c ****   /* Check the parameters */
 811              		.loc 1 556 1 view .LVU157
 812 0006 0446     		mov	r4, r0	@ HASH_IT, tmp142
 813 0008 0D46     		mov	r5, r1	@ NewState, tmp143
 814              	@ ../Libraries/STM32F4xx_StdPeriph_Driver/src/stm32f4xx_hash.c:558:   assert_param(IS_HASH_IT(HASH_
 815              		.loc 1 558 3 view .LVU158
 816 000a 16D1     		bne	.L50		@,
 817              	@ ../Libraries/STM32F4xx_StdPeriph_Driver/src/stm32f4xx_hash.c:558:   assert_param(IS_HASH_IT(HASH_
 818              		.loc 1 558 3 discriminator 1 view .LVU159
 819 000c 0038     		subs	r0, r0, #0	@ iftmp.6_10, HASH_IT,
 820              	.LVL27:
 821              		.loc 1 558 3 discriminator 1 view .LVU160
 822 000e 18BF     		it	ne
 823 0010 0120     		movne	r0, #1	@ iftmp.6_10,
 824              	.L47:
 825              	@ ../Libraries/STM32F4xx_StdPeriph_Driver/src/stm32f4xx_hash.c:558:   assert_param(IS_HASH_IT(HASH_
 826              		.loc 1 558 3 discriminator 6 view .LVU161
 827 0012 FFF7FEFF 		bl	assert_param		@
 828              	.LVL28:
 559:../Libraries/STM32F4xx_StdPeriph_Driver/src/stm32f4xx_hash.c ****   assert_param(IS_FUNCTIONAL_STATE(NewState));
 829              		.loc 1 559 3 is_stmt 1 discriminator 6 view .LVU162
 830 0016 012D     		cmp	r5, #1	@ NewState,
 831 0018 8CBF     		ite	hi
 832 001a 0020     		movhi	r0, #0	@,
 833 001c 0120     		movls	r0, #1	@,
 834 001e FFF7FEFF 		bl	assert_param		@
 835              	.LVL29:
 560:../Libraries/STM32F4xx_StdPeriph_Driver/src/stm32f4xx_hash.c **** 
 561:../Libraries/STM32F4xx_StdPeriph_Driver/src/stm32f4xx_hash.c ****   if (NewState != DISABLE)
ARM GAS  C:\Users\admin\AppData\Local\Temp\ccVYnskz.s 			page 26


 836              		.loc 1 561 3 discriminator 6 view .LVU163
 837              	@ ../Libraries/STM32F4xx_StdPeriph_Driver/src/stm32f4xx_hash.c:564:     HASH->IMR |= HASH_IT;
 562:../Libraries/STM32F4xx_StdPeriph_Driver/src/stm32f4xx_hash.c ****   {
 563:../Libraries/STM32F4xx_StdPeriph_Driver/src/stm32f4xx_hash.c ****     /* Enable the selected HASH interrupt */
 564:../Libraries/STM32F4xx_StdPeriph_Driver/src/stm32f4xx_hash.c ****     HASH->IMR |= HASH_IT;
 838              		.loc 1 564 15 is_stmt 0 discriminator 6 view .LVU164
 839 0022 074B     		ldr	r3, .L52	@ tmp136,
 840 0024 186A     		ldr	r0, [r3, #32]	@ _3,
 841              	@ ../Libraries/STM32F4xx_StdPeriph_Driver/src/stm32f4xx_hash.c:561:   if (NewState != DISABLE)
 561:../Libraries/STM32F4xx_StdPeriph_Driver/src/stm32f4xx_hash.c ****   {
 842              		.loc 1 561 6 discriminator 6 view .LVU165
 843 0026 15B1     		cbz	r5, .L48	@ NewState,
 844              		.loc 1 564 5 is_stmt 1 view .LVU166
 845              	@ ../Libraries/STM32F4xx_StdPeriph_Driver/src/stm32f4xx_hash.c:564:     HASH->IMR |= HASH_IT;
 846              		.loc 1 564 15 is_stmt 0 view .LVU167
 847 0028 0443     		orrs	r4, r4, r0	@, _5, HASH_IT, _3
 848 002a 1C62     		str	r4, [r3, #32]	@ _5,
 849              	@ ../Libraries/STM32F4xx_StdPeriph_Driver/src/stm32f4xx_hash.c:571: }
 565:../Libraries/STM32F4xx_StdPeriph_Driver/src/stm32f4xx_hash.c ****   }
 566:../Libraries/STM32F4xx_StdPeriph_Driver/src/stm32f4xx_hash.c ****   else
 567:../Libraries/STM32F4xx_StdPeriph_Driver/src/stm32f4xx_hash.c ****   {
 568:../Libraries/STM32F4xx_StdPeriph_Driver/src/stm32f4xx_hash.c ****     /* Disable the selected HASH interrupt */
 569:../Libraries/STM32F4xx_StdPeriph_Driver/src/stm32f4xx_hash.c ****     HASH->IMR &= (uint8_t) ~HASH_IT;
 570:../Libraries/STM32F4xx_StdPeriph_Driver/src/stm32f4xx_hash.c ****   }
 571:../Libraries/STM32F4xx_StdPeriph_Driver/src/stm32f4xx_hash.c **** }
 850              		.loc 1 571 1 view .LVU168
 851 002c 38BD     		pop	{r3, r4, r5, pc}	@
 852              	.L48:
 569:../Libraries/STM32F4xx_StdPeriph_Driver/src/stm32f4xx_hash.c ****   }
 853              		.loc 1 569 5 is_stmt 1 view .LVU169
 854              	@ ../Libraries/STM32F4xx_StdPeriph_Driver/src/stm32f4xx_hash.c:569:     HASH->IMR &= (uint8_t) ~HAS
 569:../Libraries/STM32F4xx_StdPeriph_Driver/src/stm32f4xx_hash.c ****   }
 855              		.loc 1 569 18 is_stmt 0 view .LVU170
 856 002e 20EA0404 		bic	r4, r0, r4	@ tmp140, _6, HASH_IT
 857              	@ ../Libraries/STM32F4xx_StdPeriph_Driver/src/stm32f4xx_hash.c:569:     HASH->IMR &= (uint8_t) ~HAS
 569:../Libraries/STM32F4xx_StdPeriph_Driver/src/stm32f4xx_hash.c ****   }
 858              		.loc 1 569 15 view .LVU171
 859 0032 04F0FF04 		and	r4, r4, #255	@ _9, tmp140,
 860 0036 1C62     		str	r4, [r3, #32]	@ _9,
 861              	@ ../Libraries/STM32F4xx_StdPeriph_Driver/src/stm32f4xx_hash.c:571: }
 862              		.loc 1 571 1 view .LVU172
 863 0038 38BD     		pop	{r3, r4, r5, pc}	@
 864              	.LVL30:
 865              	.L50:
 866              	@ ../Libraries/STM32F4xx_StdPeriph_Driver/src/stm32f4xx_hash.c:558:   assert_param(IS_HASH_IT(HASH_
 558:../Libraries/STM32F4xx_StdPeriph_Driver/src/stm32f4xx_hash.c ****   assert_param(IS_FUNCTIONAL_STATE(NewState));
 867              		.loc 1 558 3 view .LVU173
 868 003a 0020     		movs	r0, #0	@ iftmp.6_10,
 869              	.LVL31:
 558:../Libraries/STM32F4xx_StdPeriph_Driver/src/stm32f4xx_hash.c ****   assert_param(IS_FUNCTIONAL_STATE(NewState));
 870              		.loc 1 558 3 view .LVU174
 871 003c E9E7     		b	.L47		@
 872              	.L53:
 873 003e 00BF     		.align	2
 874              	.L52:
 875 0040 00040650 		.word	1342571520
 876              		.cfi_endproc
ARM GAS  C:\Users\admin\AppData\Local\Temp\ccVYnskz.s 			page 27


 877              	.LFE122:
 878              		.size	HASH_ITConfig, .-HASH_ITConfig
 879              		.section	.text.HASH_GetFlagStatus,"ax",%progbits
 880              		.align	1
 881              		.p2align 2,,3
 882              		.global	HASH_GetFlagStatus
 883              		.syntax unified
 884              		.thumb
 885              		.thumb_func
 886              		.type	HASH_GetFlagStatus, %function
 887              	HASH_GetFlagStatus:
 888              	.LVL32:
 889              	.LFB123:
 572:../Libraries/STM32F4xx_StdPeriph_Driver/src/stm32f4xx_hash.c **** 
 573:../Libraries/STM32F4xx_StdPeriph_Driver/src/stm32f4xx_hash.c **** /**
 574:../Libraries/STM32F4xx_StdPeriph_Driver/src/stm32f4xx_hash.c ****   * @brief  Checks whether the specified HASH flag is set or not.
 575:../Libraries/STM32F4xx_StdPeriph_Driver/src/stm32f4xx_hash.c ****   * @param  HASH_FLAG: specifies the HASH flag to check.
 576:../Libraries/STM32F4xx_StdPeriph_Driver/src/stm32f4xx_hash.c ****   *          This parameter can be one of the following values:
 577:../Libraries/STM32F4xx_StdPeriph_Driver/src/stm32f4xx_hash.c ****   *            @arg HASH_FLAG_DINIS: Data input interrupt status flag
 578:../Libraries/STM32F4xx_StdPeriph_Driver/src/stm32f4xx_hash.c ****   *            @arg HASH_FLAG_DCIS: Digest calculation completion interrupt status flag
 579:../Libraries/STM32F4xx_StdPeriph_Driver/src/stm32f4xx_hash.c ****   *            @arg HASH_FLAG_BUSY: Busy flag
 580:../Libraries/STM32F4xx_StdPeriph_Driver/src/stm32f4xx_hash.c ****   *            @arg HASH_FLAG_DMAS: DMAS Status flag
 581:../Libraries/STM32F4xx_StdPeriph_Driver/src/stm32f4xx_hash.c ****   *            @arg HASH_FLAG_DINNE: Data Input register (DIN) not empty status flag
 582:../Libraries/STM32F4xx_StdPeriph_Driver/src/stm32f4xx_hash.c ****   * @retval The new state of HASH_FLAG (SET or RESET)
 583:../Libraries/STM32F4xx_StdPeriph_Driver/src/stm32f4xx_hash.c ****   */
 584:../Libraries/STM32F4xx_StdPeriph_Driver/src/stm32f4xx_hash.c **** FlagStatus HASH_GetFlagStatus(uint16_t HASH_FLAG)
 585:../Libraries/STM32F4xx_StdPeriph_Driver/src/stm32f4xx_hash.c **** {
 890              		.loc 1 585 1 is_stmt 1 view -0
 891              		.cfi_startproc
 892              		@ args = 0, pretend = 0, frame = 0
 893              		@ frame_needed = 0, uses_anonymous_args = 0
 586:../Libraries/STM32F4xx_StdPeriph_Driver/src/stm32f4xx_hash.c ****   FlagStatus bitstatus = RESET;
 894              		.loc 1 586 3 view .LVU176
 587:../Libraries/STM32F4xx_StdPeriph_Driver/src/stm32f4xx_hash.c ****   uint32_t tempreg = 0;
 895              		.loc 1 587 3 view .LVU177
 588:../Libraries/STM32F4xx_StdPeriph_Driver/src/stm32f4xx_hash.c **** 
 589:../Libraries/STM32F4xx_StdPeriph_Driver/src/stm32f4xx_hash.c ****   /* Check the parameters */
 590:../Libraries/STM32F4xx_StdPeriph_Driver/src/stm32f4xx_hash.c ****   assert_param(IS_HASH_GET_FLAG(HASH_FLAG));
 896              		.loc 1 590 3 view .LVU178
 897 0000 431E     		subs	r3, r0, #1	@ tmp126, HASH_FLAG,
 898 0002 012B     		cmp	r3, #1	@ tmp126,
 899              	@ ../Libraries/STM32F4xx_StdPeriph_Driver/src/stm32f4xx_hash.c:585: {
 585:../Libraries/STM32F4xx_StdPeriph_Driver/src/stm32f4xx_hash.c ****   FlagStatus bitstatus = RESET;
 900              		.loc 1 585 1 is_stmt 0 view .LVU179
 901 0004 10B5     		push	{r4, lr}	@
 902              		.cfi_def_cfa_offset 8
 903              		.cfi_offset 4, -8
 904              		.cfi_offset 14, -4
 905              	@ ../Libraries/STM32F4xx_StdPeriph_Driver/src/stm32f4xx_hash.c:585: {
 585:../Libraries/STM32F4xx_StdPeriph_Driver/src/stm32f4xx_hash.c ****   FlagStatus bitstatus = RESET;
 906              		.loc 1 585 1 view .LVU180
 907 0006 0446     		mov	r4, r0	@ HASH_FLAG, tmp138
 908              	@ ../Libraries/STM32F4xx_StdPeriph_Driver/src/stm32f4xx_hash.c:590:   assert_param(IS_HASH_GET_FLAG
 909              		.loc 1 590 3 view .LVU181
 910 0008 19D9     		bls	.L59		@,
 911              	@ ../Libraries/STM32F4xx_StdPeriph_Driver/src/stm32f4xx_hash.c:590:   assert_param(IS_HASH_GET_FLAG
 912              		.loc 1 590 16 discriminator 2 view .LVU182
ARM GAS  C:\Users\admin\AppData\Local\Temp\ccVYnskz.s 			page 28


 913 000a 0428     		cmp	r0, #4	@ HASH_FLAG,
 914 000c 11D0     		beq	.L56		@,
 915              	@ ../Libraries/STM32F4xx_StdPeriph_Driver/src/stm32f4xx_hash.c:590:   assert_param(IS_HASH_GET_FLAG
 916              		.loc 1 590 16 discriminator 4 view .LVU183
 917 000e 0828     		cmp	r0, #8	@ HASH_FLAG,
 918 0010 0FD0     		beq	.L56		@,
 919              	@ ../Libraries/STM32F4xx_StdPeriph_Driver/src/stm32f4xx_hash.c:590:   assert_param(IS_HASH_GET_FLAG
 920              		.loc 1 590 3 discriminator 6 view .LVU184
 921 0012 A0F58050 		sub	r0, r0, #4096	@ iftmp.7_6, HASH_FLAG,
 922              	.LVL33:
 923              		.loc 1 590 3 discriminator 6 view .LVU185
 924 0016 B0FA80F0 		clz	r0, r0	@ iftmp.7_6, iftmp.7_6
 925 001a 4009     		lsrs	r0, r0, #5	@ iftmp.7_6, iftmp.7_6,
 926              	.L55:
 927              	@ ../Libraries/STM32F4xx_StdPeriph_Driver/src/stm32f4xx_hash.c:590:   assert_param(IS_HASH_GET_FLAG
 928              		.loc 1 590 3 discriminator 10 view .LVU186
 929 001c FFF7FEFF 		bl	assert_param		@
 930              	.LVL34:
 591:../Libraries/STM32F4xx_StdPeriph_Driver/src/stm32f4xx_hash.c **** 
 592:../Libraries/STM32F4xx_StdPeriph_Driver/src/stm32f4xx_hash.c ****   /* check if the FLAG is in CR register */
 593:../Libraries/STM32F4xx_StdPeriph_Driver/src/stm32f4xx_hash.c ****   if ((HASH_FLAG & HASH_FLAG_DINNE) != (uint16_t)RESET ) 
 931              		.loc 1 593 3 is_stmt 1 discriminator 10 view .LVU187
 932              	@ ../Libraries/STM32F4xx_StdPeriph_Driver/src/stm32f4xx_hash.c:593:   if ((HASH_FLAG & HASH_FLAG_DI
 933              		.loc 1 593 6 is_stmt 0 discriminator 10 view .LVU188
 934 0020 E304     		lsls	r3, r4, #19	@, HASH_FLAG,
 935 0022 09D5     		bpl	.L57		@,
 594:../Libraries/STM32F4xx_StdPeriph_Driver/src/stm32f4xx_hash.c ****   {
 595:../Libraries/STM32F4xx_StdPeriph_Driver/src/stm32f4xx_hash.c ****     tempreg = HASH->CR;
 936              		.loc 1 595 5 is_stmt 1 view .LVU189
 937              	@ ../Libraries/STM32F4xx_StdPeriph_Driver/src/stm32f4xx_hash.c:595:     tempreg = HASH->CR;
 938              		.loc 1 595 13 is_stmt 0 view .LVU190
 939 0024 074B     		ldr	r3, .L71	@ tmp132,
 940 0026 1B68     		ldr	r3, [r3]	@ tempreg, MEM[(struct HASH_TypeDef *)1342571520B].CR
 941              	.LVL35:
 942              	.L58:
 596:../Libraries/STM32F4xx_StdPeriph_Driver/src/stm32f4xx_hash.c ****   }
 597:../Libraries/STM32F4xx_StdPeriph_Driver/src/stm32f4xx_hash.c ****   else /* The FLAG is in SR register */
 598:../Libraries/STM32F4xx_StdPeriph_Driver/src/stm32f4xx_hash.c ****   {
 599:../Libraries/STM32F4xx_StdPeriph_Driver/src/stm32f4xx_hash.c ****     tempreg = HASH->SR;
 600:../Libraries/STM32F4xx_StdPeriph_Driver/src/stm32f4xx_hash.c ****   }
 601:../Libraries/STM32F4xx_StdPeriph_Driver/src/stm32f4xx_hash.c **** 
 602:../Libraries/STM32F4xx_StdPeriph_Driver/src/stm32f4xx_hash.c ****   /* Check the status of the specified HASH flag */
 603:../Libraries/STM32F4xx_StdPeriph_Driver/src/stm32f4xx_hash.c ****   if ((tempreg & HASH_FLAG) != (uint16_t)RESET)
 943              		.loc 1 603 3 is_stmt 1 view .LVU191
 604:../Libraries/STM32F4xx_StdPeriph_Driver/src/stm32f4xx_hash.c ****   {
 605:../Libraries/STM32F4xx_StdPeriph_Driver/src/stm32f4xx_hash.c ****     /* HASH is set */
 606:../Libraries/STM32F4xx_StdPeriph_Driver/src/stm32f4xx_hash.c ****     bitstatus = SET;
 607:../Libraries/STM32F4xx_StdPeriph_Driver/src/stm32f4xx_hash.c ****   }
 608:../Libraries/STM32F4xx_StdPeriph_Driver/src/stm32f4xx_hash.c ****   else
 609:../Libraries/STM32F4xx_StdPeriph_Driver/src/stm32f4xx_hash.c ****   {
 610:../Libraries/STM32F4xx_StdPeriph_Driver/src/stm32f4xx_hash.c ****     /* HASH_FLAG is reset */
 611:../Libraries/STM32F4xx_StdPeriph_Driver/src/stm32f4xx_hash.c ****     bitstatus = RESET;
 612:../Libraries/STM32F4xx_StdPeriph_Driver/src/stm32f4xx_hash.c ****   }
 613:../Libraries/STM32F4xx_StdPeriph_Driver/src/stm32f4xx_hash.c **** 
 614:../Libraries/STM32F4xx_StdPeriph_Driver/src/stm32f4xx_hash.c ****   /* Return the HASH_FLAG status */
 615:../Libraries/STM32F4xx_StdPeriph_Driver/src/stm32f4xx_hash.c ****   return  bitstatus;
 944              		.loc 1 615 3 view .LVU192
ARM GAS  C:\Users\admin\AppData\Local\Temp\ccVYnskz.s 			page 29


 945              	@ ../Libraries/STM32F4xx_StdPeriph_Driver/src/stm32f4xx_hash.c:603:   if ((tempreg & HASH_FLAG) != 
 603:../Libraries/STM32F4xx_StdPeriph_Driver/src/stm32f4xx_hash.c ****   {
 946              		.loc 1 603 6 is_stmt 0 view .LVU193
 947 0028 1C42     		tst	r4, r3	@ HASH_FLAG, tempreg
 948              	@ ../Libraries/STM32F4xx_StdPeriph_Driver/src/stm32f4xx_hash.c:615:   return  bitstatus;
 949              		.loc 1 615 11 view .LVU194
 950 002a 14BF     		ite	ne
 951 002c 0120     		movne	r0, #1	@ tmp137,
 952 002e 0020     		moveq	r0, #0	@ tmp137,
 953              	@ ../Libraries/STM32F4xx_StdPeriph_Driver/src/stm32f4xx_hash.c:616: }
 616:../Libraries/STM32F4xx_StdPeriph_Driver/src/stm32f4xx_hash.c **** }
 954              		.loc 1 616 1 view .LVU195
 955 0030 10BD     		pop	{r4, pc}	@
 956              	.LVL36:
 957              	.L56:
 958              	@ ../Libraries/STM32F4xx_StdPeriph_Driver/src/stm32f4xx_hash.c:590:   assert_param(IS_HASH_GET_FLAG
 590:../Libraries/STM32F4xx_StdPeriph_Driver/src/stm32f4xx_hash.c **** 
 959              		.loc 1 590 3 view .LVU196
 960 0032 0120     		movs	r0, #1	@,
 961              	.LVL37:
 590:../Libraries/STM32F4xx_StdPeriph_Driver/src/stm32f4xx_hash.c **** 
 962              		.loc 1 590 3 view .LVU197
 963 0034 FFF7FEFF 		bl	assert_param		@
 964              	.LVL38:
 593:../Libraries/STM32F4xx_StdPeriph_Driver/src/stm32f4xx_hash.c ****   {
 965              		.loc 1 593 3 is_stmt 1 view .LVU198
 966              	.L57:
 599:../Libraries/STM32F4xx_StdPeriph_Driver/src/stm32f4xx_hash.c ****   }
 967              		.loc 1 599 5 view .LVU199
 968              	@ ../Libraries/STM32F4xx_StdPeriph_Driver/src/stm32f4xx_hash.c:599:     tempreg = HASH->SR;
 599:../Libraries/STM32F4xx_StdPeriph_Driver/src/stm32f4xx_hash.c ****   }
 969              		.loc 1 599 13 is_stmt 0 view .LVU200
 970 0038 024B     		ldr	r3, .L71	@ tmp133,
 971 003a 5B6A     		ldr	r3, [r3, #36]	@ tempreg, MEM[(struct HASH_TypeDef *)1342571520B].SR
 972              	.LVL39:
 599:../Libraries/STM32F4xx_StdPeriph_Driver/src/stm32f4xx_hash.c ****   }
 973              		.loc 1 599 13 view .LVU201
 974 003c F4E7     		b	.L58		@
 975              	.LVL40:
 976              	.L59:
 977              	@ ../Libraries/STM32F4xx_StdPeriph_Driver/src/stm32f4xx_hash.c:590:   assert_param(IS_HASH_GET_FLAG
 590:../Libraries/STM32F4xx_StdPeriph_Driver/src/stm32f4xx_hash.c **** 
 978              		.loc 1 590 3 view .LVU202
 979 003e 0120     		movs	r0, #1	@ iftmp.7_6,
 980              	.LVL41:
 590:../Libraries/STM32F4xx_StdPeriph_Driver/src/stm32f4xx_hash.c **** 
 981              		.loc 1 590 3 view .LVU203
 982 0040 ECE7     		b	.L55		@
 983              	.L72:
 984 0042 00BF     		.align	2
 985              	.L71:
 986 0044 00040650 		.word	1342571520
 987              		.cfi_endproc
 988              	.LFE123:
 989              		.size	HASH_GetFlagStatus, .-HASH_GetFlagStatus
 990              		.section	.text.HASH_ClearFlag,"ax",%progbits
 991              		.align	1
ARM GAS  C:\Users\admin\AppData\Local\Temp\ccVYnskz.s 			page 30


 992              		.p2align 2,,3
 993              		.global	HASH_ClearFlag
 994              		.syntax unified
 995              		.thumb
 996              		.thumb_func
 997              		.type	HASH_ClearFlag, %function
 998              	HASH_ClearFlag:
 999              	.LVL42:
 1000              	.LFB124:
 617:../Libraries/STM32F4xx_StdPeriph_Driver/src/stm32f4xx_hash.c **** /**
 618:../Libraries/STM32F4xx_StdPeriph_Driver/src/stm32f4xx_hash.c ****   * @brief  Clears the HASH flags.
 619:../Libraries/STM32F4xx_StdPeriph_Driver/src/stm32f4xx_hash.c ****   * @param  HASH_FLAG: specifies the flag to clear. 
 620:../Libraries/STM32F4xx_StdPeriph_Driver/src/stm32f4xx_hash.c ****   *          This parameter can be any combination of the following values:
 621:../Libraries/STM32F4xx_StdPeriph_Driver/src/stm32f4xx_hash.c ****   *            @arg HASH_FLAG_DINIS: Data Input Flag
 622:../Libraries/STM32F4xx_StdPeriph_Driver/src/stm32f4xx_hash.c ****   *            @arg HASH_FLAG_DCIS: Digest Calculation Completion Flag                       
 623:../Libraries/STM32F4xx_StdPeriph_Driver/src/stm32f4xx_hash.c ****   * @retval None
 624:../Libraries/STM32F4xx_StdPeriph_Driver/src/stm32f4xx_hash.c ****   */
 625:../Libraries/STM32F4xx_StdPeriph_Driver/src/stm32f4xx_hash.c **** void HASH_ClearFlag(uint16_t HASH_FLAG)
 626:../Libraries/STM32F4xx_StdPeriph_Driver/src/stm32f4xx_hash.c **** {
 1001              		.loc 1 626 1 is_stmt 1 view -0
 1002              		.cfi_startproc
 1003              		@ args = 0, pretend = 0, frame = 0
 1004              		@ frame_needed = 0, uses_anonymous_args = 0
 627:../Libraries/STM32F4xx_StdPeriph_Driver/src/stm32f4xx_hash.c ****   /* Check the parameters */
 628:../Libraries/STM32F4xx_StdPeriph_Driver/src/stm32f4xx_hash.c ****   assert_param(IS_HASH_CLEAR_FLAG(HASH_FLAG));
 1005              		.loc 1 628 3 view .LVU205
 1006              	@ ../Libraries/STM32F4xx_StdPeriph_Driver/src/stm32f4xx_hash.c:626: {
 626:../Libraries/STM32F4xx_StdPeriph_Driver/src/stm32f4xx_hash.c ****   /* Check the parameters */
 1007              		.loc 1 626 1 is_stmt 0 view .LVU206
 1008 0000 10B5     		push	{r4, lr}	@
 1009              		.cfi_def_cfa_offset 8
 1010              		.cfi_offset 4, -8
 1011              		.cfi_offset 14, -4
 1012              	@ ../Libraries/STM32F4xx_StdPeriph_Driver/src/stm32f4xx_hash.c:626: {
 626:../Libraries/STM32F4xx_StdPeriph_Driver/src/stm32f4xx_hash.c ****   /* Check the parameters */
 1013              		.loc 1 626 1 view .LVU207
 1014 0002 0446     		mov	r4, r0	@ HASH_FLAG, tmp126
 1015              	@ ../Libraries/STM32F4xx_StdPeriph_Driver/src/stm32f4xx_hash.c:628:   assert_param(IS_HASH_CLEAR_FL
 1016              		.loc 1 628 3 view .LVU208
 1017 0004 0138     		subs	r0, r0, #1	@ tmp123, HASH_FLAG,
 1018              	.LVL43:
 1019              		.loc 1 628 3 view .LVU209
 1020 0006 0128     		cmp	r0, #1	@ tmp123,
 1021 0008 8CBF     		ite	hi
 1022 000a 0020     		movhi	r0, #0	@,
 1023 000c 0120     		movls	r0, #1	@,
 1024 000e FFF7FEFF 		bl	assert_param		@
 1025              	.LVL44:
 629:../Libraries/STM32F4xx_StdPeriph_Driver/src/stm32f4xx_hash.c ****   
 630:../Libraries/STM32F4xx_StdPeriph_Driver/src/stm32f4xx_hash.c ****   /* Clear the selected HASH flags */
 631:../Libraries/STM32F4xx_StdPeriph_Driver/src/stm32f4xx_hash.c ****   HASH->SR = ~(uint32_t)HASH_FLAG;
 1026              		.loc 1 631 3 is_stmt 1 view .LVU210
 1027              	@ ../Libraries/STM32F4xx_StdPeriph_Driver/src/stm32f4xx_hash.c:631:   HASH->SR = ~(uint32_t)HASH_FL
 1028              		.loc 1 631 12 is_stmt 0 view .LVU211
 1029 0012 024B     		ldr	r3, .L75	@ tmp125,
 1030              	@ ../Libraries/STM32F4xx_StdPeriph_Driver/src/stm32f4xx_hash.c:631:   HASH->SR = ~(uint32_t)HASH_FL
 1031              		.loc 1 631 14 view .LVU212
ARM GAS  C:\Users\admin\AppData\Local\Temp\ccVYnskz.s 			page 31


 1032 0014 E443     		mvns	r4, r4	@ _5, HASH_FLAG
 1033              	@ ../Libraries/STM32F4xx_StdPeriph_Driver/src/stm32f4xx_hash.c:631:   HASH->SR = ~(uint32_t)HASH_FL
 1034              		.loc 1 631 12 view .LVU213
 1035 0016 5C62     		str	r4, [r3, #36]	@ _5, MEM[(struct HASH_TypeDef *)1342571520B].SR
 1036              	@ ../Libraries/STM32F4xx_StdPeriph_Driver/src/stm32f4xx_hash.c:632: }
 632:../Libraries/STM32F4xx_StdPeriph_Driver/src/stm32f4xx_hash.c **** }
 1037              		.loc 1 632 1 view .LVU214
 1038 0018 10BD     		pop	{r4, pc}	@
 1039              	.L76:
 1040 001a 00BF     		.align	2
 1041              	.L75:
 1042 001c 00040650 		.word	1342571520
 1043              		.cfi_endproc
 1044              	.LFE124:
 1045              		.size	HASH_ClearFlag, .-HASH_ClearFlag
 1046              		.section	.text.HASH_GetITStatus,"ax",%progbits
 1047              		.align	1
 1048              		.p2align 2,,3
 1049              		.global	HASH_GetITStatus
 1050              		.syntax unified
 1051              		.thumb
 1052              		.thumb_func
 1053              		.type	HASH_GetITStatus, %function
 1054              	HASH_GetITStatus:
 1055              	.LVL45:
 1056              	.LFB125:
 633:../Libraries/STM32F4xx_StdPeriph_Driver/src/stm32f4xx_hash.c **** /**
 634:../Libraries/STM32F4xx_StdPeriph_Driver/src/stm32f4xx_hash.c ****   * @brief  Checks whether the specified HASH interrupt has occurred or not.
 635:../Libraries/STM32F4xx_StdPeriph_Driver/src/stm32f4xx_hash.c ****   * @param  HASH_IT: specifies the HASH interrupt source to check.
 636:../Libraries/STM32F4xx_StdPeriph_Driver/src/stm32f4xx_hash.c ****   *          This parameter can be one of the following values:
 637:../Libraries/STM32F4xx_StdPeriph_Driver/src/stm32f4xx_hash.c ****   *            @arg HASH_IT_DINI: Data Input interrupt
 638:../Libraries/STM32F4xx_StdPeriph_Driver/src/stm32f4xx_hash.c ****   *            @arg HASH_IT_DCI: Digest Calculation Completion Interrupt
 639:../Libraries/STM32F4xx_StdPeriph_Driver/src/stm32f4xx_hash.c ****   * @retval The new state of HASH_IT (SET or RESET).
 640:../Libraries/STM32F4xx_StdPeriph_Driver/src/stm32f4xx_hash.c ****   */
 641:../Libraries/STM32F4xx_StdPeriph_Driver/src/stm32f4xx_hash.c **** ITStatus HASH_GetITStatus(uint8_t HASH_IT)
 642:../Libraries/STM32F4xx_StdPeriph_Driver/src/stm32f4xx_hash.c **** {
 1057              		.loc 1 642 1 is_stmt 1 view -0
 1058              		.cfi_startproc
 1059              		@ args = 0, pretend = 0, frame = 0
 1060              		@ frame_needed = 0, uses_anonymous_args = 0
 643:../Libraries/STM32F4xx_StdPeriph_Driver/src/stm32f4xx_hash.c ****   ITStatus bitstatus = RESET;
 1061              		.loc 1 643 3 view .LVU216
 644:../Libraries/STM32F4xx_StdPeriph_Driver/src/stm32f4xx_hash.c ****   uint32_t tmpreg = 0;
 1062              		.loc 1 644 3 view .LVU217
 645:../Libraries/STM32F4xx_StdPeriph_Driver/src/stm32f4xx_hash.c **** 
 646:../Libraries/STM32F4xx_StdPeriph_Driver/src/stm32f4xx_hash.c ****   /* Check the parameters */
 647:../Libraries/STM32F4xx_StdPeriph_Driver/src/stm32f4xx_hash.c ****   assert_param(IS_HASH_GET_IT(HASH_IT));  
 1063              		.loc 1 647 3 view .LVU218
 1064              	@ ../Libraries/STM32F4xx_StdPeriph_Driver/src/stm32f4xx_hash.c:642: {
 642:../Libraries/STM32F4xx_StdPeriph_Driver/src/stm32f4xx_hash.c ****   ITStatus bitstatus = RESET;
 1065              		.loc 1 642 1 is_stmt 0 view .LVU219
 1066 0000 10B5     		push	{r4, lr}	@
 1067              		.cfi_def_cfa_offset 8
 1068              		.cfi_offset 4, -8
 1069              		.cfi_offset 14, -4
 1070              	@ ../Libraries/STM32F4xx_StdPeriph_Driver/src/stm32f4xx_hash.c:642: {
 642:../Libraries/STM32F4xx_StdPeriph_Driver/src/stm32f4xx_hash.c ****   ITStatus bitstatus = RESET;
ARM GAS  C:\Users\admin\AppData\Local\Temp\ccVYnskz.s 			page 32


 1071              		.loc 1 642 1 view .LVU220
 1072 0002 0446     		mov	r4, r0	@ HASH_IT, tmp137
 1073              	@ ../Libraries/STM32F4xx_StdPeriph_Driver/src/stm32f4xx_hash.c:647:   assert_param(IS_HASH_GET_IT(H
 1074              		.loc 1 647 3 view .LVU221
 1075 0004 0138     		subs	r0, r0, #1	@ tmp128, HASH_IT,
 1076              	.LVL46:
 1077              		.loc 1 647 3 view .LVU222
 1078 0006 0128     		cmp	r0, #1	@ tmp128,
 1079 0008 8CBF     		ite	hi
 1080 000a 0020     		movhi	r0, #0	@,
 1081 000c 0120     		movls	r0, #1	@,
 1082 000e FFF7FEFF 		bl	assert_param		@
 1083              	.LVL47:
 648:../Libraries/STM32F4xx_StdPeriph_Driver/src/stm32f4xx_hash.c **** 
 649:../Libraries/STM32F4xx_StdPeriph_Driver/src/stm32f4xx_hash.c **** 
 650:../Libraries/STM32F4xx_StdPeriph_Driver/src/stm32f4xx_hash.c ****   /* Check the status of the specified HASH interrupt */
 651:../Libraries/STM32F4xx_StdPeriph_Driver/src/stm32f4xx_hash.c ****   tmpreg =  HASH->SR;
 1084              		.loc 1 651 3 is_stmt 1 view .LVU223
 1085              	@ ../Libraries/STM32F4xx_StdPeriph_Driver/src/stm32f4xx_hash.c:651:   tmpreg =  HASH->SR;
 1086              		.loc 1 651 10 is_stmt 0 view .LVU224
 1087 0012 044A     		ldr	r2, .L79	@ tmp130,
 1088 0014 516A     		ldr	r1, [r2, #36]	@ tmpreg, MEM[(struct HASH_TypeDef *)1342571520B].SR
 1089              	.LVL48:
 652:../Libraries/STM32F4xx_StdPeriph_Driver/src/stm32f4xx_hash.c **** 
 653:../Libraries/STM32F4xx_StdPeriph_Driver/src/stm32f4xx_hash.c ****   if (((HASH->IMR & tmpreg) & HASH_IT) != RESET)
 1090              		.loc 1 653 3 is_stmt 1 view .LVU225
 1091              	@ ../Libraries/STM32F4xx_StdPeriph_Driver/src/stm32f4xx_hash.c:653:   if (((HASH->IMR & tmpreg) & H
 1092              		.loc 1 653 13 is_stmt 0 view .LVU226
 1093 0016 136A     		ldr	r3, [r2, #32]	@ _4, MEM[(struct HASH_TypeDef *)1342571520B].IMR
 1094              	.LVL49:
 654:../Libraries/STM32F4xx_StdPeriph_Driver/src/stm32f4xx_hash.c ****   {
 655:../Libraries/STM32F4xx_StdPeriph_Driver/src/stm32f4xx_hash.c ****     /* HASH_IT is set */
 656:../Libraries/STM32F4xx_StdPeriph_Driver/src/stm32f4xx_hash.c ****     bitstatus = SET;
 657:../Libraries/STM32F4xx_StdPeriph_Driver/src/stm32f4xx_hash.c ****   }
 658:../Libraries/STM32F4xx_StdPeriph_Driver/src/stm32f4xx_hash.c ****   else
 659:../Libraries/STM32F4xx_StdPeriph_Driver/src/stm32f4xx_hash.c ****   {
 660:../Libraries/STM32F4xx_StdPeriph_Driver/src/stm32f4xx_hash.c ****     /* HASH_IT is reset */
 661:../Libraries/STM32F4xx_StdPeriph_Driver/src/stm32f4xx_hash.c ****     bitstatus = RESET;
 662:../Libraries/STM32F4xx_StdPeriph_Driver/src/stm32f4xx_hash.c ****   }
 663:../Libraries/STM32F4xx_StdPeriph_Driver/src/stm32f4xx_hash.c ****   /* Return the HASH_IT status */
 664:../Libraries/STM32F4xx_StdPeriph_Driver/src/stm32f4xx_hash.c ****   return bitstatus;
 1095              		.loc 1 664 3 is_stmt 1 view .LVU227
 1096              	@ ../Libraries/STM32F4xx_StdPeriph_Driver/src/stm32f4xx_hash.c:653:   if (((HASH->IMR & tmpreg) & H
 653:../Libraries/STM32F4xx_StdPeriph_Driver/src/stm32f4xx_hash.c ****   {
 1097              		.loc 1 653 19 is_stmt 0 view .LVU228
 1098 0018 0B40     		ands	r3, r3, r1	@, tmp133, _4, tmpreg
 1099              	.LVL50:
 1100              	@ ../Libraries/STM32F4xx_StdPeriph_Driver/src/stm32f4xx_hash.c:653:   if (((HASH->IMR & tmpreg) & H
 653:../Libraries/STM32F4xx_StdPeriph_Driver/src/stm32f4xx_hash.c ****   {
 1101              		.loc 1 653 6 view .LVU229
 1102 001a 2342     		tst	r3, r4	@ tmp133, HASH_IT
 1103              	@ ../Libraries/STM32F4xx_StdPeriph_Driver/src/stm32f4xx_hash.c:665: }
 665:../Libraries/STM32F4xx_StdPeriph_Driver/src/stm32f4xx_hash.c **** }
 1104              		.loc 1 665 1 view .LVU230
 1105 001c 14BF     		ite	ne
 1106 001e 0120     		movne	r0, #1	@,
 1107 0020 0020     		moveq	r0, #0	@,
ARM GAS  C:\Users\admin\AppData\Local\Temp\ccVYnskz.s 			page 33


 1108 0022 10BD     		pop	{r4, pc}	@
 1109              	.L80:
 1110              		.loc 1 665 1 view .LVU231
 1111              		.align	2
 1112              	.L79:
 1113 0024 00040650 		.word	1342571520
 1114              		.cfi_endproc
 1115              	.LFE125:
 1116              		.size	HASH_GetITStatus, .-HASH_GetITStatus
 1117              		.section	.text.HASH_ClearITPendingBit,"ax",%progbits
 1118              		.align	1
 1119              		.p2align 2,,3
 1120              		.global	HASH_ClearITPendingBit
 1121              		.syntax unified
 1122              		.thumb
 1123              		.thumb_func
 1124              		.type	HASH_ClearITPendingBit, %function
 1125              	HASH_ClearITPendingBit:
 1126              	.LVL51:
 1127              	.LFB126:
 666:../Libraries/STM32F4xx_StdPeriph_Driver/src/stm32f4xx_hash.c **** 
 667:../Libraries/STM32F4xx_StdPeriph_Driver/src/stm32f4xx_hash.c **** /**
 668:../Libraries/STM32F4xx_StdPeriph_Driver/src/stm32f4xx_hash.c ****   * @brief  Clears the HASH interrupt pending bit(s).
 669:../Libraries/STM32F4xx_StdPeriph_Driver/src/stm32f4xx_hash.c ****   * @param  HASH_IT: specifies the HASH interrupt pending bit(s) to clear.
 670:../Libraries/STM32F4xx_StdPeriph_Driver/src/stm32f4xx_hash.c ****   *          This parameter can be any combination of the following values:
 671:../Libraries/STM32F4xx_StdPeriph_Driver/src/stm32f4xx_hash.c ****   *            @arg HASH_IT_DINI: Data Input interrupt
 672:../Libraries/STM32F4xx_StdPeriph_Driver/src/stm32f4xx_hash.c ****   *            @arg HASH_IT_DCI: Digest Calculation Completion Interrupt
 673:../Libraries/STM32F4xx_StdPeriph_Driver/src/stm32f4xx_hash.c ****   * @retval None
 674:../Libraries/STM32F4xx_StdPeriph_Driver/src/stm32f4xx_hash.c ****   */
 675:../Libraries/STM32F4xx_StdPeriph_Driver/src/stm32f4xx_hash.c **** void HASH_ClearITPendingBit(uint8_t HASH_IT)
 676:../Libraries/STM32F4xx_StdPeriph_Driver/src/stm32f4xx_hash.c **** {
 1128              		.loc 1 676 1 is_stmt 1 view -0
 1129              		.cfi_startproc
 1130              		@ args = 0, pretend = 0, frame = 0
 1131              		@ frame_needed = 0, uses_anonymous_args = 0
 677:../Libraries/STM32F4xx_StdPeriph_Driver/src/stm32f4xx_hash.c ****   /* Check the parameters */
 678:../Libraries/STM32F4xx_StdPeriph_Driver/src/stm32f4xx_hash.c ****   assert_param(IS_HASH_IT(HASH_IT));
 1132              		.loc 1 678 3 view .LVU233
 1133 0000 10F0FC0F 		tst	r0, #252	@ HASH_IT,
 1134              	@ ../Libraries/STM32F4xx_StdPeriph_Driver/src/stm32f4xx_hash.c:676: {
 676:../Libraries/STM32F4xx_StdPeriph_Driver/src/stm32f4xx_hash.c ****   /* Check the parameters */
 1135              		.loc 1 676 1 is_stmt 0 view .LVU234
 1136 0004 10B5     		push	{r4, lr}	@
 1137              		.cfi_def_cfa_offset 8
 1138              		.cfi_offset 4, -8
 1139              		.cfi_offset 14, -4
 1140              	@ ../Libraries/STM32F4xx_StdPeriph_Driver/src/stm32f4xx_hash.c:676: {
 676:../Libraries/STM32F4xx_StdPeriph_Driver/src/stm32f4xx_hash.c ****   /* Check the parameters */
 1141              		.loc 1 676 1 view .LVU235
 1142 0006 0446     		mov	r4, r0	@ HASH_IT, tmp126
 1143              	@ ../Libraries/STM32F4xx_StdPeriph_Driver/src/stm32f4xx_hash.c:678:   assert_param(IS_HASH_IT(HASH_
 1144              		.loc 1 678 3 view .LVU236
 1145 0008 09D1     		bne	.L83		@,
 1146              	@ ../Libraries/STM32F4xx_StdPeriph_Driver/src/stm32f4xx_hash.c:678:   assert_param(IS_HASH_IT(HASH_
 1147              		.loc 1 678 3 discriminator 1 view .LVU237
 1148 000a 0038     		subs	r0, r0, #0	@ iftmp.8_3, HASH_IT,
 1149              	.LVL52:
ARM GAS  C:\Users\admin\AppData\Local\Temp\ccVYnskz.s 			page 34


 1150              		.loc 1 678 3 discriminator 1 view .LVU238
 1151 000c 18BF     		it	ne
 1152 000e 0120     		movne	r0, #1	@ iftmp.8_3,
 1153              	.L82:
 1154              	@ ../Libraries/STM32F4xx_StdPeriph_Driver/src/stm32f4xx_hash.c:678:   assert_param(IS_HASH_IT(HASH_
 1155              		.loc 1 678 3 discriminator 6 view .LVU239
 1156 0010 FFF7FEFF 		bl	assert_param		@
 1157              	.LVL53:
 679:../Libraries/STM32F4xx_StdPeriph_Driver/src/stm32f4xx_hash.c **** 
 680:../Libraries/STM32F4xx_StdPeriph_Driver/src/stm32f4xx_hash.c ****   /* Clear the selected HASH interrupt pending bit */
 681:../Libraries/STM32F4xx_StdPeriph_Driver/src/stm32f4xx_hash.c ****   HASH->SR = (uint8_t)~HASH_IT;
 1158              		.loc 1 681 3 is_stmt 1 discriminator 6 view .LVU240
 1159              	@ ../Libraries/STM32F4xx_StdPeriph_Driver/src/stm32f4xx_hash.c:681:   HASH->SR = (uint8_t)~HASH_IT;
 1160              		.loc 1 681 14 is_stmt 0 discriminator 6 view .LVU241
 1161 0014 E443     		mvns	r4, r4	@ tmp124, HASH_IT
 1162              	@ ../Libraries/STM32F4xx_StdPeriph_Driver/src/stm32f4xx_hash.c:681:   HASH->SR = (uint8_t)~HASH_IT;
 1163              		.loc 1 681 12 discriminator 6 view .LVU242
 1164 0016 034B     		ldr	r3, .L85	@ tmp125,
 1165              	@ ../Libraries/STM32F4xx_StdPeriph_Driver/src/stm32f4xx_hash.c:681:   HASH->SR = (uint8_t)~HASH_IT;
 1166              		.loc 1 681 14 discriminator 6 view .LVU243
 1167 0018 E4B2     		uxtb	r4, r4	@ _2, tmp124
 1168              	@ ../Libraries/STM32F4xx_StdPeriph_Driver/src/stm32f4xx_hash.c:681:   HASH->SR = (uint8_t)~HASH_IT;
 1169              		.loc 1 681 12 discriminator 6 view .LVU244
 1170 001a 5C62     		str	r4, [r3, #36]	@ _2, MEM[(struct HASH_TypeDef *)1342571520B].SR
 1171              	@ ../Libraries/STM32F4xx_StdPeriph_Driver/src/stm32f4xx_hash.c:682: }
 682:../Libraries/STM32F4xx_StdPeriph_Driver/src/stm32f4xx_hash.c **** }
 1172              		.loc 1 682 1 discriminator 6 view .LVU245
 1173 001c 10BD     		pop	{r4, pc}	@
 1174              	.LVL54:
 1175              	.L83:
 1176              	@ ../Libraries/STM32F4xx_StdPeriph_Driver/src/stm32f4xx_hash.c:678:   assert_param(IS_HASH_IT(HASH_
 678:../Libraries/STM32F4xx_StdPeriph_Driver/src/stm32f4xx_hash.c **** 
 1177              		.loc 1 678 3 view .LVU246
 1178 001e 0020     		movs	r0, #0	@ iftmp.8_3,
 1179              	.LVL55:
 678:../Libraries/STM32F4xx_StdPeriph_Driver/src/stm32f4xx_hash.c **** 
 1180              		.loc 1 678 3 view .LVU247
 1181 0020 F6E7     		b	.L82		@
 1182              	.L86:
 1183 0022 00BF     		.align	2
 1184              	.L85:
 1185 0024 00040650 		.word	1342571520
 1186              		.cfi_endproc
 1187              	.LFE126:
 1188              		.size	HASH_ClearITPendingBit, .-HASH_ClearITPendingBit
 1189              		.text
 1190              	.Letext0:
 1191              		.file 2 "c:\\program files (x86)\\gnu arm embedded toolchain\\10 2021.10\\arm-none-eabi\\include\\
 1192              		.file 3 "c:\\program files (x86)\\gnu arm embedded toolchain\\10 2021.10\\arm-none-eabi\\include\\
 1193              		.file 4 "../Libraries/CMSIS/ST/STM32F4xx/Include/stm32f4xx.h"
 1194              		.file 5 "../Libraries/STM32F4xx_StdPeriph_Driver/inc/stm32f4xx_hash.h"
 1195              		.file 6 "../Libraries/STM32F4xx_StdPeriph_Driver/inc/stm32f4xx_rcc.h"