ARM GAS  C:\Users\admin\AppData\Local\Temp\ccwrrJFc.s 			page 1


   1              		.cpu cortex-m4
   2              		.arch armv7e-m
   3              		.fpu fpv4-sp-d16
   4              		.eabi_attribute 27, 1	@ Tag_ABI_HardFP_use
   5              		.eabi_attribute 28, 1	@ Tag_ABI_VFP_args
   6              		.eabi_attribute 23, 1	@ Tag_ABI_FP_number_model
   7              		.eabi_attribute 24, 1	@ Tag_ABI_align8_needed
   8              		.eabi_attribute 25, 1	@ Tag_ABI_align8_preserved
   9              		.eabi_attribute 26, 1	@ Tag_ABI_enum_size
  10              		.eabi_attribute 30, 2	@ Tag_ABI_optimization_goals
  11              		.eabi_attribute 34, 1	@ Tag_CPU_unaligned_access
  12              		.eabi_attribute 18, 4	@ Tag_ABI_PCS_wchar_t
  13              		.file	"stm32f4xx_usart.c"
  14              	@ GNU C89 (GNU Arm Embedded Toolchain 10.3-2021.10) version 10.3.1 20210824 (release) (arm-none-eab
  15              	@	compiled by GNU C version 7.3-win32 20180312, GMP version 6.1.0, MPFR version 3.1.4, MPC version 
  16              	
  17              	@ GGC heuristics: --param ggc-min-expand=100 --param ggc-min-heapsize=131072
  18              	@ options passed:  -I . -I . -I ../Utilities/STM32F4-Discovery/
  19              	@ -I ../Libraries/STM32_USB_Device_Library/Class/audio/inc/
  20              	@ -I ../Libraries/STM32_USB_Device_Library/Core/inc/
  21              	@ -I ../Libraries/STM32_USB_OTG_Driver/inc/
  22              	@ -I ../Utilities/STM32F4-Discovery/
  23              	@ -I ../Libraries/STM32F4xx_StdPeriph_Driver/inc/
  24              	@ -I ../Utilities/STM32F4-Discovery/
  25              	@ -I ../Libraries/CMSIS/ST/STM32F4xx/Include/
  26              	@ -I ../Libraries/CMSIS/Include/ -imultilib thumb/v7e-m+fp/hard
  27              	@ -iprefix c:\program files (x86)\gnu arm embedded toolchain\10 2021.10\bin\../lib/gcc/arm-none-eab
  28              	@ -isysroot c:\program files (x86)\gnu arm embedded toolchain\10 2021.10\bin\../arm-none-eabi
  29              	@ -MD out/stm32f4xx_usart.d -MF out/stm32f4xx_usart.d -MP
  30              	@ -MQ out/stm32f4xx_usart.o -D__USES_INITFINI__ -D STM32F4XX -D __VFP_FP__
  31              	@ -D USE_USB_OTG_FS
  32              	@ ../Libraries/STM32F4xx_StdPeriph_Driver/src/stm32f4xx_usart.c
  33              	@ -mcpu=cortex-m4 -mthumb -mfloat-abi=hard -mfpu=fpv4-sp-d16
  34              	@ -mlibarch=armv7e-m+fp -march=armv7e-m+fp
  35              	@ -auxbase-strip out/stm32f4xx_usart.o -g -ggdb3 -O3 -Wall
  36              	@ -Wstrict-prototypes -Wextra -std=gnu90 -ffast-math -ffunction-sections
  37              	@ -fdata-sections -fverbose-asm
  38              	@ options enabled:  -faggressive-loop-optimizations -falign-functions
  39              	@ -falign-jumps -falign-labels -falign-loops -fallocation-dce
  40              	@ -fassociative-math -fauto-inc-dec -fbranch-count-reg -fcaller-saves
  41              	@ -fcombine-stack-adjustments -fcompare-elim -fcprop-registers
  42              	@ -fcrossjumping -fcse-follow-jumps -fcx-limited-range -fdata-sections
  43              	@ -fdefer-pop -fdelete-null-pointer-checks -fdevirtualize
  44              	@ -fdevirtualize-speculatively -fdwarf2-cfi-asm -fearly-inlining
  45              	@ -feliminate-unused-debug-symbols -feliminate-unused-debug-types
  46              	@ -fexpensive-optimizations -ffinite-math-only -fforward-propagate
  47              	@ -ffp-int-builtin-inexact -ffunction-cse -ffunction-sections -fgcse
  48              	@ -fgcse-after-reload -fgcse-lm -fgnu-unique -fguess-branch-probability
  49              	@ -fhoist-adjacent-loads -fident -fif-conversion -fif-conversion2
  50              	@ -findirect-inlining -finline -finline-atomics -finline-functions
  51              	@ -finline-functions-called-once -finline-small-functions -fipa-bit-cp
  52              	@ -fipa-cp -fipa-cp-clone -fipa-icf -fipa-icf-functions -fipa-icf-variables
  53              	@ -fipa-profile -fipa-pure-const -fipa-ra -fipa-reference
  54              	@ -fipa-reference-addressable -fipa-sra -fipa-stack-alignment -fipa-vrp
  55              	@ -fira-hoist-pressure -fira-share-save-slots -fira-share-spill-slots
  56              	@ -fisolate-erroneous-paths-dereference -fivopts -fkeep-static-consts
  57              	@ -fleading-underscore -flifetime-dse -floop-interchange
ARM GAS  C:\Users\admin\AppData\Local\Temp\ccwrrJFc.s 			page 2


  58              	@ -floop-unroll-and-jam -flra-remat -fmerge-constants -fmerge-debug-strings
  59              	@ -fmove-loop-invariants -fomit-frame-pointer -foptimize-sibling-calls
  60              	@ -foptimize-strlen -fpartial-inlining -fpeel-loops -fpeephole -fpeephole2
  61              	@ -fplt -fpredictive-commoning -fprefetch-loop-arrays -freciprocal-math
  62              	@ -freg-struct-return -freorder-blocks -freorder-functions
  63              	@ -frerun-cse-after-loop -fsched-critical-path-heuristic
  64              	@ -fsched-dep-count-heuristic -fsched-group-heuristic -fsched-interblock
  65              	@ -fsched-last-insn-heuristic -fsched-pressure -fsched-rank-heuristic
  66              	@ -fsched-spec -fsched-spec-insn-heuristic -fsched-stalled-insns-dep
  67              	@ -fschedule-insns -fschedule-insns2 -fsection-anchors
  68              	@ -fsemantic-interposition -fshow-column -fshrink-wrap
  69              	@ -fshrink-wrap-separate -fsplit-ivs-in-unroller -fsplit-loops
  70              	@ -fsplit-paths -fsplit-wide-types -fssa-backprop -fssa-phiopt -fstdarg-opt
  71              	@ -fstore-merging -fstrict-aliasing -fstrict-volatile-bitfields
  72              	@ -fsync-libcalls -fthread-jumps -ftoplevel-reorder -ftree-bit-ccp
  73              	@ -ftree-builtin-call-dce -ftree-ccp -ftree-ch -ftree-coalesce-vars
  74              	@ -ftree-copy-prop -ftree-cselim -ftree-dce -ftree-dominator-opts
  75              	@ -ftree-dse -ftree-forwprop -ftree-fre -ftree-loop-distribute-patterns
  76              	@ -ftree-loop-distribution -ftree-loop-if-convert -ftree-loop-im
  77              	@ -ftree-loop-ivcanon -ftree-loop-optimize -ftree-loop-vectorize
  78              	@ -ftree-parallelize-loops= -ftree-partial-pre -ftree-phiprop -ftree-pre
  79              	@ -ftree-pta -ftree-reassoc -ftree-scev-cprop -ftree-sink
  80              	@ -ftree-slp-vectorize -ftree-slsr -ftree-sra -ftree-switch-conversion
  81              	@ -ftree-tail-merge -ftree-ter -ftree-vrp -funit-at-a-time
  82              	@ -funsafe-math-optimizations -funswitch-loops -fvar-tracking
  83              	@ -fvar-tracking-assignments -fverbose-asm -fversion-loops-for-strides
  84              	@ -fzero-initialized-in-bss -masm-syntax-unified -mbe32 -mlittle-endian
  85              	@ -mpic-data-is-text-relative -msched-prolog -mthumb -munaligned-access
  86              	@ -mvectorize-with-neon-quad
  87              	
  88              		.text
  89              	.Ltext0:
  90              		.cfi_sections	.debug_frame
  91              		.section	.text.USART_DeInit,"ax",%progbits
  92              		.align	1
  93              		.p2align 2,,3
  94              		.global	USART_DeInit
  95              		.syntax unified
  96              		.thumb
  97              		.thumb_func
  98              		.type	USART_DeInit, %function
  99              	USART_DeInit:
 100              	.LVL0:
 101              	.LFB110:
 102              		.file 1 "../Libraries/STM32F4xx_StdPeriph_Driver/src/stm32f4xx_usart.c"
   1:../Libraries/STM32F4xx_StdPeriph_Driver/src/stm32f4xx_usart.c **** /**
   2:../Libraries/STM32F4xx_StdPeriph_Driver/src/stm32f4xx_usart.c ****   ******************************************************************************
   3:../Libraries/STM32F4xx_StdPeriph_Driver/src/stm32f4xx_usart.c ****   * @file    stm32f4xx_usart.c
   4:../Libraries/STM32F4xx_StdPeriph_Driver/src/stm32f4xx_usart.c ****   * @author  MCD Application Team
   5:../Libraries/STM32F4xx_StdPeriph_Driver/src/stm32f4xx_usart.c ****   * @version V1.0.0
   6:../Libraries/STM32F4xx_StdPeriph_Driver/src/stm32f4xx_usart.c ****   * @date    30-September-2011
   7:../Libraries/STM32F4xx_StdPeriph_Driver/src/stm32f4xx_usart.c ****   * @brief   This file provides firmware functions to manage the following 
   8:../Libraries/STM32F4xx_StdPeriph_Driver/src/stm32f4xx_usart.c ****   *          functionalities of the Universal synchronous asynchronous receiver
   9:../Libraries/STM32F4xx_StdPeriph_Driver/src/stm32f4xx_usart.c ****   *          transmitter (USART):           
  10:../Libraries/STM32F4xx_StdPeriph_Driver/src/stm32f4xx_usart.c ****   *           - Initialization and Configuration
  11:../Libraries/STM32F4xx_StdPeriph_Driver/src/stm32f4xx_usart.c ****   *           - Data transfers
  12:../Libraries/STM32F4xx_StdPeriph_Driver/src/stm32f4xx_usart.c ****   *           - Multi-Processor Communication
ARM GAS  C:\Users\admin\AppData\Local\Temp\ccwrrJFc.s 			page 3


  13:../Libraries/STM32F4xx_StdPeriph_Driver/src/stm32f4xx_usart.c ****   *           - LIN mode
  14:../Libraries/STM32F4xx_StdPeriph_Driver/src/stm32f4xx_usart.c ****   *           - Half-duplex mode
  15:../Libraries/STM32F4xx_StdPeriph_Driver/src/stm32f4xx_usart.c ****   *           - Smartcard mode
  16:../Libraries/STM32F4xx_StdPeriph_Driver/src/stm32f4xx_usart.c ****   *           - IrDA mode
  17:../Libraries/STM32F4xx_StdPeriph_Driver/src/stm32f4xx_usart.c ****   *           - DMA transfers management
  18:../Libraries/STM32F4xx_StdPeriph_Driver/src/stm32f4xx_usart.c ****   *           - Interrupts and flags management 
  19:../Libraries/STM32F4xx_StdPeriph_Driver/src/stm32f4xx_usart.c ****   *           
  20:../Libraries/STM32F4xx_StdPeriph_Driver/src/stm32f4xx_usart.c ****   *  @verbatim
  21:../Libraries/STM32F4xx_StdPeriph_Driver/src/stm32f4xx_usart.c ****   *      
  22:../Libraries/STM32F4xx_StdPeriph_Driver/src/stm32f4xx_usart.c ****   *          ===================================================================
  23:../Libraries/STM32F4xx_StdPeriph_Driver/src/stm32f4xx_usart.c ****   *                                 How to use this driver
  24:../Libraries/STM32F4xx_StdPeriph_Driver/src/stm32f4xx_usart.c ****   *          ===================================================================
  25:../Libraries/STM32F4xx_StdPeriph_Driver/src/stm32f4xx_usart.c ****   *          1. Enable peripheral clock using the follwoing functions
  26:../Libraries/STM32F4xx_StdPeriph_Driver/src/stm32f4xx_usart.c ****   *             RCC_APB2PeriphClockCmd(RCC_APB2Periph_USARTx, ENABLE) for USART1 and USART6 
  27:../Libraries/STM32F4xx_StdPeriph_Driver/src/stm32f4xx_usart.c ****   *             RCC_APB1PeriphClockCmd(RCC_APB1Periph_USARTx, ENABLE) for USART2, USART3, UART4 or 
  28:../Libraries/STM32F4xx_StdPeriph_Driver/src/stm32f4xx_usart.c ****   *
  29:../Libraries/STM32F4xx_StdPeriph_Driver/src/stm32f4xx_usart.c ****   *          2.  According to the USART mode, enable the GPIO clocks using 
  30:../Libraries/STM32F4xx_StdPeriph_Driver/src/stm32f4xx_usart.c ****   *              RCC_AHB1PeriphClockCmd() function. (The I/O can be TX, RX, CTS, 
  31:../Libraries/STM32F4xx_StdPeriph_Driver/src/stm32f4xx_usart.c ****   *              or/and SCLK). 
  32:../Libraries/STM32F4xx_StdPeriph_Driver/src/stm32f4xx_usart.c ****   *
  33:../Libraries/STM32F4xx_StdPeriph_Driver/src/stm32f4xx_usart.c ****   *          3. Peripheral's alternate function: 
  34:../Libraries/STM32F4xx_StdPeriph_Driver/src/stm32f4xx_usart.c ****   *                 - Connect the pin to the desired peripherals' Alternate 
  35:../Libraries/STM32F4xx_StdPeriph_Driver/src/stm32f4xx_usart.c ****   *                   Function (AF) using GPIO_PinAFConfig() function
  36:../Libraries/STM32F4xx_StdPeriph_Driver/src/stm32f4xx_usart.c ****   *                 - Configure the desired pin in alternate function by:
  37:../Libraries/STM32F4xx_StdPeriph_Driver/src/stm32f4xx_usart.c ****   *                   GPIO_InitStruct->GPIO_Mode = GPIO_Mode_AF
  38:../Libraries/STM32F4xx_StdPeriph_Driver/src/stm32f4xx_usart.c ****   *                 - Select the type, pull-up/pull-down and output speed via 
  39:../Libraries/STM32F4xx_StdPeriph_Driver/src/stm32f4xx_usart.c ****   *                   GPIO_PuPd, GPIO_OType and GPIO_Speed members
  40:../Libraries/STM32F4xx_StdPeriph_Driver/src/stm32f4xx_usart.c ****   *                 - Call GPIO_Init() function
  41:../Libraries/STM32F4xx_StdPeriph_Driver/src/stm32f4xx_usart.c ****   *        
  42:../Libraries/STM32F4xx_StdPeriph_Driver/src/stm32f4xx_usart.c ****   *          4. Program the Baud Rate, Word Length , Stop Bit, Parity, Hardware 
  43:../Libraries/STM32F4xx_StdPeriph_Driver/src/stm32f4xx_usart.c ****   *             flow control and Mode(Receiver/Transmitter) using the USART_Init()
  44:../Libraries/STM32F4xx_StdPeriph_Driver/src/stm32f4xx_usart.c ****   *             function.
  45:../Libraries/STM32F4xx_StdPeriph_Driver/src/stm32f4xx_usart.c ****   *
  46:../Libraries/STM32F4xx_StdPeriph_Driver/src/stm32f4xx_usart.c ****   *          5. For synchronous mode, enable the clock and program the polarity,
  47:../Libraries/STM32F4xx_StdPeriph_Driver/src/stm32f4xx_usart.c ****   *             phase and last bit using the USART_ClockInit() function.
  48:../Libraries/STM32F4xx_StdPeriph_Driver/src/stm32f4xx_usart.c ****   *
  49:../Libraries/STM32F4xx_StdPeriph_Driver/src/stm32f4xx_usart.c ****   *          5. Enable the NVIC and the corresponding interrupt using the function 
  50:../Libraries/STM32F4xx_StdPeriph_Driver/src/stm32f4xx_usart.c ****   *             USART_ITConfig() if you need to use interrupt mode. 
  51:../Libraries/STM32F4xx_StdPeriph_Driver/src/stm32f4xx_usart.c ****   *
  52:../Libraries/STM32F4xx_StdPeriph_Driver/src/stm32f4xx_usart.c ****   *          6. When using the DMA mode 
  53:../Libraries/STM32F4xx_StdPeriph_Driver/src/stm32f4xx_usart.c ****   *                   - Configure the DMA using DMA_Init() function
  54:../Libraries/STM32F4xx_StdPeriph_Driver/src/stm32f4xx_usart.c ****   *                   - Active the needed channel Request using USART_DMACmd() function
  55:../Libraries/STM32F4xx_StdPeriph_Driver/src/stm32f4xx_usart.c ****   * 
  56:../Libraries/STM32F4xx_StdPeriph_Driver/src/stm32f4xx_usart.c ****   *          7. Enable the USART using the USART_Cmd() function.
  57:../Libraries/STM32F4xx_StdPeriph_Driver/src/stm32f4xx_usart.c ****   * 
  58:../Libraries/STM32F4xx_StdPeriph_Driver/src/stm32f4xx_usart.c ****   *          8. Enable the DMA using the DMA_Cmd() function, when using DMA mode. 
  59:../Libraries/STM32F4xx_StdPeriph_Driver/src/stm32f4xx_usart.c ****   *
  60:../Libraries/STM32F4xx_StdPeriph_Driver/src/stm32f4xx_usart.c ****   *          Refer to Multi-Processor, LIN, half-duplex, Smartcard, IrDA sub-sections
  61:../Libraries/STM32F4xx_StdPeriph_Driver/src/stm32f4xx_usart.c ****   *          for more details
  62:../Libraries/STM32F4xx_StdPeriph_Driver/src/stm32f4xx_usart.c ****   *          
  63:../Libraries/STM32F4xx_StdPeriph_Driver/src/stm32f4xx_usart.c ****   *          In order to reach higher communication baudrates, it is possible to
  64:../Libraries/STM32F4xx_StdPeriph_Driver/src/stm32f4xx_usart.c ****   *          enable the oversampling by 8 mode using the function USART_OverSampling8Cmd().
  65:../Libraries/STM32F4xx_StdPeriph_Driver/src/stm32f4xx_usart.c ****   *          This function should be called after enabling the USART clock (RCC_APBxPeriphClockCmd(
  66:../Libraries/STM32F4xx_StdPeriph_Driver/src/stm32f4xx_usart.c ****   *          and before calling the function USART_Init().
  67:../Libraries/STM32F4xx_StdPeriph_Driver/src/stm32f4xx_usart.c ****   *          
  68:../Libraries/STM32F4xx_StdPeriph_Driver/src/stm32f4xx_usart.c ****   *  @endverbatim
  69:../Libraries/STM32F4xx_StdPeriph_Driver/src/stm32f4xx_usart.c ****   *        
ARM GAS  C:\Users\admin\AppData\Local\Temp\ccwrrJFc.s 			page 4


  70:../Libraries/STM32F4xx_StdPeriph_Driver/src/stm32f4xx_usart.c ****   ******************************************************************************
  71:../Libraries/STM32F4xx_StdPeriph_Driver/src/stm32f4xx_usart.c ****   * @attention
  72:../Libraries/STM32F4xx_StdPeriph_Driver/src/stm32f4xx_usart.c ****   *
  73:../Libraries/STM32F4xx_StdPeriph_Driver/src/stm32f4xx_usart.c ****   * THE PRESENT FIRMWARE WHICH IS FOR GUIDANCE ONLY AIMS AT PROVIDING CUSTOMERS
  74:../Libraries/STM32F4xx_StdPeriph_Driver/src/stm32f4xx_usart.c ****   * WITH CODING INFORMATION REGARDING THEIR PRODUCTS IN ORDER FOR THEM TO SAVE
  75:../Libraries/STM32F4xx_StdPeriph_Driver/src/stm32f4xx_usart.c ****   * TIME. AS A RESULT, STMICROELECTRONICS SHALL NOT BE HELD LIABLE FOR ANY
  76:../Libraries/STM32F4xx_StdPeriph_Driver/src/stm32f4xx_usart.c ****   * DIRECT, INDIRECT OR CONSEQUENTIAL DAMAGES WITH RESPECT TO ANY CLAIMS ARISING
  77:../Libraries/STM32F4xx_StdPeriph_Driver/src/stm32f4xx_usart.c ****   * FROM THE CONTENT OF SUCH FIRMWARE AND/OR THE USE MADE BY CUSTOMERS OF THE
  78:../Libraries/STM32F4xx_StdPeriph_Driver/src/stm32f4xx_usart.c ****   * CODING INFORMATION CONTAINED HEREIN IN CONNECTION WITH THEIR PRODUCTS.
  79:../Libraries/STM32F4xx_StdPeriph_Driver/src/stm32f4xx_usart.c ****   *
  80:../Libraries/STM32F4xx_StdPeriph_Driver/src/stm32f4xx_usart.c ****   * <h2><center>&copy; COPYRIGHT 2011 STMicroelectronics</center></h2>
  81:../Libraries/STM32F4xx_StdPeriph_Driver/src/stm32f4xx_usart.c ****   ******************************************************************************  
  82:../Libraries/STM32F4xx_StdPeriph_Driver/src/stm32f4xx_usart.c ****   */ 
  83:../Libraries/STM32F4xx_StdPeriph_Driver/src/stm32f4xx_usart.c **** 
  84:../Libraries/STM32F4xx_StdPeriph_Driver/src/stm32f4xx_usart.c **** /* Includes ------------------------------------------------------------------*/
  85:../Libraries/STM32F4xx_StdPeriph_Driver/src/stm32f4xx_usart.c **** #include "stm32f4xx_usart.h"
  86:../Libraries/STM32F4xx_StdPeriph_Driver/src/stm32f4xx_usart.c **** #include "stm32f4xx_rcc.h"
  87:../Libraries/STM32F4xx_StdPeriph_Driver/src/stm32f4xx_usart.c **** 
  88:../Libraries/STM32F4xx_StdPeriph_Driver/src/stm32f4xx_usart.c **** /** @addtogroup STM32F4xx_StdPeriph_Driver
  89:../Libraries/STM32F4xx_StdPeriph_Driver/src/stm32f4xx_usart.c ****   * @{
  90:../Libraries/STM32F4xx_StdPeriph_Driver/src/stm32f4xx_usart.c ****   */
  91:../Libraries/STM32F4xx_StdPeriph_Driver/src/stm32f4xx_usart.c **** 
  92:../Libraries/STM32F4xx_StdPeriph_Driver/src/stm32f4xx_usart.c **** /** @defgroup USART 
  93:../Libraries/STM32F4xx_StdPeriph_Driver/src/stm32f4xx_usart.c ****   * @brief USART driver modules
  94:../Libraries/STM32F4xx_StdPeriph_Driver/src/stm32f4xx_usart.c ****   * @{
  95:../Libraries/STM32F4xx_StdPeriph_Driver/src/stm32f4xx_usart.c ****   */
  96:../Libraries/STM32F4xx_StdPeriph_Driver/src/stm32f4xx_usart.c **** 
  97:../Libraries/STM32F4xx_StdPeriph_Driver/src/stm32f4xx_usart.c **** /* Private typedef -----------------------------------------------------------*/
  98:../Libraries/STM32F4xx_StdPeriph_Driver/src/stm32f4xx_usart.c **** /* Private define ------------------------------------------------------------*/
  99:../Libraries/STM32F4xx_StdPeriph_Driver/src/stm32f4xx_usart.c **** 
 100:../Libraries/STM32F4xx_StdPeriph_Driver/src/stm32f4xx_usart.c **** /*!< USART CR1 register clear Mask ((~(uint16_t)0xE9F3)) */
 101:../Libraries/STM32F4xx_StdPeriph_Driver/src/stm32f4xx_usart.c **** #define CR1_CLEAR_MASK            ((uint16_t)(USART_CR1_M | USART_CR1_PCE | \
 102:../Libraries/STM32F4xx_StdPeriph_Driver/src/stm32f4xx_usart.c ****                                               USART_CR1_PS | USART_CR1_TE | \
 103:../Libraries/STM32F4xx_StdPeriph_Driver/src/stm32f4xx_usart.c ****                                               USART_CR1_RE))
 104:../Libraries/STM32F4xx_StdPeriph_Driver/src/stm32f4xx_usart.c **** 
 105:../Libraries/STM32F4xx_StdPeriph_Driver/src/stm32f4xx_usart.c **** /*!< USART CR2 register clock bits clear Mask ((~(uint16_t)0xF0FF)) */
 106:../Libraries/STM32F4xx_StdPeriph_Driver/src/stm32f4xx_usart.c **** #define CR2_CLOCK_CLEAR_MASK      ((uint16_t)(USART_CR2_CLKEN | USART_CR2_CPOL | \
 107:../Libraries/STM32F4xx_StdPeriph_Driver/src/stm32f4xx_usart.c ****                                               USART_CR2_CPHA | USART_CR2_LBCL))
 108:../Libraries/STM32F4xx_StdPeriph_Driver/src/stm32f4xx_usart.c **** 
 109:../Libraries/STM32F4xx_StdPeriph_Driver/src/stm32f4xx_usart.c **** /*!< USART CR3 register clear Mask ((~(uint16_t)0xFCFF)) */
 110:../Libraries/STM32F4xx_StdPeriph_Driver/src/stm32f4xx_usart.c **** #define CR3_CLEAR_MASK            ((uint16_t)(USART_CR3_RTSE | USART_CR3_CTSE))
 111:../Libraries/STM32F4xx_StdPeriph_Driver/src/stm32f4xx_usart.c **** 
 112:../Libraries/STM32F4xx_StdPeriph_Driver/src/stm32f4xx_usart.c **** /*!< USART Interrupts mask */
 113:../Libraries/STM32F4xx_StdPeriph_Driver/src/stm32f4xx_usart.c **** #define IT_MASK                   ((uint16_t)0x001F)
 114:../Libraries/STM32F4xx_StdPeriph_Driver/src/stm32f4xx_usart.c **** 
 115:../Libraries/STM32F4xx_StdPeriph_Driver/src/stm32f4xx_usart.c **** /* Private macro -------------------------------------------------------------*/
 116:../Libraries/STM32F4xx_StdPeriph_Driver/src/stm32f4xx_usart.c **** /* Private variables ---------------------------------------------------------*/
 117:../Libraries/STM32F4xx_StdPeriph_Driver/src/stm32f4xx_usart.c **** /* Private function prototypes -----------------------------------------------*/
 118:../Libraries/STM32F4xx_StdPeriph_Driver/src/stm32f4xx_usart.c **** /* Private functions ---------------------------------------------------------*/
 119:../Libraries/STM32F4xx_StdPeriph_Driver/src/stm32f4xx_usart.c **** 
 120:../Libraries/STM32F4xx_StdPeriph_Driver/src/stm32f4xx_usart.c **** /** @defgroup USART_Private_Functions
 121:../Libraries/STM32F4xx_StdPeriph_Driver/src/stm32f4xx_usart.c ****   * @{
 122:../Libraries/STM32F4xx_StdPeriph_Driver/src/stm32f4xx_usart.c ****   */
 123:../Libraries/STM32F4xx_StdPeriph_Driver/src/stm32f4xx_usart.c **** 
 124:../Libraries/STM32F4xx_StdPeriph_Driver/src/stm32f4xx_usart.c **** /** @defgroup USART_Group1 Initialization and Configuration functions
 125:../Libraries/STM32F4xx_StdPeriph_Driver/src/stm32f4xx_usart.c ****  *  @brief   Initialization and Configuration functions 
 126:../Libraries/STM32F4xx_StdPeriph_Driver/src/stm32f4xx_usart.c ****  *
ARM GAS  C:\Users\admin\AppData\Local\Temp\ccwrrJFc.s 			page 5


 127:../Libraries/STM32F4xx_StdPeriph_Driver/src/stm32f4xx_usart.c **** @verbatim   
 128:../Libraries/STM32F4xx_StdPeriph_Driver/src/stm32f4xx_usart.c ****  ===============================================================================
 129:../Libraries/STM32F4xx_StdPeriph_Driver/src/stm32f4xx_usart.c ****                   Initialization and Configuration functions
 130:../Libraries/STM32F4xx_StdPeriph_Driver/src/stm32f4xx_usart.c ****  ===============================================================================  
 131:../Libraries/STM32F4xx_StdPeriph_Driver/src/stm32f4xx_usart.c **** 
 132:../Libraries/STM32F4xx_StdPeriph_Driver/src/stm32f4xx_usart.c ****   This subsection provides a set of functions allowing to initialize the USART 
 133:../Libraries/STM32F4xx_StdPeriph_Driver/src/stm32f4xx_usart.c ****   in asynchronous and in synchronous modes.
 134:../Libraries/STM32F4xx_StdPeriph_Driver/src/stm32f4xx_usart.c ****    - For the asynchronous mode only these parameters can be configured: 
 135:../Libraries/STM32F4xx_StdPeriph_Driver/src/stm32f4xx_usart.c ****         - Baud Rate
 136:../Libraries/STM32F4xx_StdPeriph_Driver/src/stm32f4xx_usart.c ****         - Word Length 
 137:../Libraries/STM32F4xx_StdPeriph_Driver/src/stm32f4xx_usart.c ****         - Stop Bit
 138:../Libraries/STM32F4xx_StdPeriph_Driver/src/stm32f4xx_usart.c ****         - Parity: If the parity is enabled, then the MSB bit of the data written
 139:../Libraries/STM32F4xx_StdPeriph_Driver/src/stm32f4xx_usart.c ****           in the data register is transmitted but is changed by the parity bit.
 140:../Libraries/STM32F4xx_StdPeriph_Driver/src/stm32f4xx_usart.c ****           Depending on the frame length defined by the M bit (8-bits or 9-bits),
 141:../Libraries/STM32F4xx_StdPeriph_Driver/src/stm32f4xx_usart.c ****           the possible USART frame formats are as listed in the following table:
 142:../Libraries/STM32F4xx_StdPeriph_Driver/src/stm32f4xx_usart.c ****    +-------------------------------------------------------------+     
 143:../Libraries/STM32F4xx_StdPeriph_Driver/src/stm32f4xx_usart.c ****    |   M bit |  PCE bit  |            USART frame                |
 144:../Libraries/STM32F4xx_StdPeriph_Driver/src/stm32f4xx_usart.c ****    |---------------------|---------------------------------------|             
 145:../Libraries/STM32F4xx_StdPeriph_Driver/src/stm32f4xx_usart.c ****    |    0    |    0      |    | SB | 8 bit data | STB |          |
 146:../Libraries/STM32F4xx_StdPeriph_Driver/src/stm32f4xx_usart.c ****    |---------|-----------|---------------------------------------|  
 147:../Libraries/STM32F4xx_StdPeriph_Driver/src/stm32f4xx_usart.c ****    |    0    |    1      |    | SB | 7 bit data | PB | STB |     |
 148:../Libraries/STM32F4xx_StdPeriph_Driver/src/stm32f4xx_usart.c ****    |---------|-----------|---------------------------------------|  
 149:../Libraries/STM32F4xx_StdPeriph_Driver/src/stm32f4xx_usart.c ****    |    1    |    0      |    | SB | 9 bit data | STB |          |
 150:../Libraries/STM32F4xx_StdPeriph_Driver/src/stm32f4xx_usart.c ****    |---------|-----------|---------------------------------------|  
 151:../Libraries/STM32F4xx_StdPeriph_Driver/src/stm32f4xx_usart.c ****    |    1    |    1      |    | SB | 8 bit data | PB | STB |     |
 152:../Libraries/STM32F4xx_StdPeriph_Driver/src/stm32f4xx_usart.c ****    +-------------------------------------------------------------+            
 153:../Libraries/STM32F4xx_StdPeriph_Driver/src/stm32f4xx_usart.c ****         - Hardware flow control
 154:../Libraries/STM32F4xx_StdPeriph_Driver/src/stm32f4xx_usart.c ****         - Receiver/transmitter modes
 155:../Libraries/STM32F4xx_StdPeriph_Driver/src/stm32f4xx_usart.c **** 
 156:../Libraries/STM32F4xx_StdPeriph_Driver/src/stm32f4xx_usart.c ****   The USART_Init() function follows the USART  asynchronous configuration procedure
 157:../Libraries/STM32F4xx_StdPeriph_Driver/src/stm32f4xx_usart.c ****   (details for the procedure are available in reference manual (RM0090)).
 158:../Libraries/STM32F4xx_StdPeriph_Driver/src/stm32f4xx_usart.c **** 
 159:../Libraries/STM32F4xx_StdPeriph_Driver/src/stm32f4xx_usart.c ****   - For the synchronous mode in addition to the asynchronous mode parameters these 
 160:../Libraries/STM32F4xx_StdPeriph_Driver/src/stm32f4xx_usart.c ****     parameters should be also configured:
 161:../Libraries/STM32F4xx_StdPeriph_Driver/src/stm32f4xx_usart.c ****         - USART Clock Enabled
 162:../Libraries/STM32F4xx_StdPeriph_Driver/src/stm32f4xx_usart.c ****         - USART polarity
 163:../Libraries/STM32F4xx_StdPeriph_Driver/src/stm32f4xx_usart.c ****         - USART phase
 164:../Libraries/STM32F4xx_StdPeriph_Driver/src/stm32f4xx_usart.c ****         - USART LastBit
 165:../Libraries/STM32F4xx_StdPeriph_Driver/src/stm32f4xx_usart.c ****   
 166:../Libraries/STM32F4xx_StdPeriph_Driver/src/stm32f4xx_usart.c ****   These parameters can be configured using the USART_ClockInit() function.
 167:../Libraries/STM32F4xx_StdPeriph_Driver/src/stm32f4xx_usart.c **** 
 168:../Libraries/STM32F4xx_StdPeriph_Driver/src/stm32f4xx_usart.c **** @endverbatim
 169:../Libraries/STM32F4xx_StdPeriph_Driver/src/stm32f4xx_usart.c ****   * @{
 170:../Libraries/STM32F4xx_StdPeriph_Driver/src/stm32f4xx_usart.c ****   */
 171:../Libraries/STM32F4xx_StdPeriph_Driver/src/stm32f4xx_usart.c ****   
 172:../Libraries/STM32F4xx_StdPeriph_Driver/src/stm32f4xx_usart.c **** /**
 173:../Libraries/STM32F4xx_StdPeriph_Driver/src/stm32f4xx_usart.c ****   * @brief  Deinitializes the USARTx peripheral registers to their default reset values.
 174:../Libraries/STM32F4xx_StdPeriph_Driver/src/stm32f4xx_usart.c ****   * @param  USARTx: where x can be 1, 2, 3, 4, 5 or 6 to select the USART or 
 175:../Libraries/STM32F4xx_StdPeriph_Driver/src/stm32f4xx_usart.c ****   *         UART peripheral.
 176:../Libraries/STM32F4xx_StdPeriph_Driver/src/stm32f4xx_usart.c ****   * @retval None
 177:../Libraries/STM32F4xx_StdPeriph_Driver/src/stm32f4xx_usart.c ****   */
 178:../Libraries/STM32F4xx_StdPeriph_Driver/src/stm32f4xx_usart.c **** void USART_DeInit(USART_TypeDef* USARTx)
 179:../Libraries/STM32F4xx_StdPeriph_Driver/src/stm32f4xx_usart.c **** {
 103              		.loc 1 179 1 view -0
 104              		.cfi_startproc
 105              		@ args = 0, pretend = 0, frame = 0
 106              		@ frame_needed = 0, uses_anonymous_args = 0
ARM GAS  C:\Users\admin\AppData\Local\Temp\ccwrrJFc.s 			page 6


 180:../Libraries/STM32F4xx_StdPeriph_Driver/src/stm32f4xx_usart.c ****   /* Check the parameters */
 181:../Libraries/STM32F4xx_StdPeriph_Driver/src/stm32f4xx_usart.c ****   assert_param(IS_USART_ALL_PERIPH(USARTx));
 107              		.loc 1 181 3 view .LVU1
 108              	@ ../Libraries/STM32F4xx_StdPeriph_Driver/src/stm32f4xx_usart.c:179: {
 179:../Libraries/STM32F4xx_StdPeriph_Driver/src/stm32f4xx_usart.c ****   /* Check the parameters */
 109              		.loc 1 179 1 is_stmt 0 view .LVU2
 110 0000 38B5     		push	{r3, r4, r5, lr}	@
 111              		.cfi_def_cfa_offset 16
 112              		.cfi_offset 3, -16
 113              		.cfi_offset 4, -12
 114              		.cfi_offset 5, -8
 115              		.cfi_offset 14, -4
 116              	@ ../Libraries/STM32F4xx_StdPeriph_Driver/src/stm32f4xx_usart.c:181:   assert_param(IS_USART_ALL_PE
 117              		.loc 1 181 3 view .LVU3
 118 0002 384B     		ldr	r3, .L11	@ tmp116,
 119 0004 9842     		cmp	r0, r3	@ USARTx, tmp116
 120 0006 38D0     		beq	.L2		@,
 121              	@ ../Libraries/STM32F4xx_StdPeriph_Driver/src/stm32f4xx_usart.c:181:   assert_param(IS_USART_ALL_PE
 122              		.loc 1 181 16 discriminator 2 view .LVU4
 123 0008 A3F54C43 		sub	r3, r3, #52224	@ tmp117, tmp117,
 124 000c 9842     		cmp	r0, r3	@ USARTx, tmp117
 125 000e 0446     		mov	r4, r0	@ USARTx, tmp125
 126 0010 15D0     		beq	.L3		@,
 127              	@ ../Libraries/STM32F4xx_StdPeriph_Driver/src/stm32f4xx_usart.c:181:   assert_param(IS_USART_ALL_PE
 128              		.loc 1 181 16 discriminator 4 view .LVU5
 129 0012 03F58063 		add	r3, r3, #1024	@ tmp118, tmp118,
 130 0016 9842     		cmp	r0, r3	@ USARTx, tmp118
 131 0018 3CD0     		beq	.L4		@,
 132              	@ ../Libraries/STM32F4xx_StdPeriph_Driver/src/stm32f4xx_usart.c:181:   assert_param(IS_USART_ALL_PE
 133              		.loc 1 181 16 discriminator 6 view .LVU6
 134 001a 03F58063 		add	r3, r3, #1024	@ tmp119, tmp119,
 135 001e 9842     		cmp	r0, r3	@ USARTx, tmp119
 136 0020 47D0     		beq	.L5		@,
 137              	@ ../Libraries/STM32F4xx_StdPeriph_Driver/src/stm32f4xx_usart.c:181:   assert_param(IS_USART_ALL_PE
 138              		.loc 1 181 16 discriminator 8 view .LVU7
 139 0022 03F58063 		add	r3, r3, #1024	@ tmp120, tmp120,
 140 0026 9842     		cmp	r0, r3	@ USARTx, tmp120
 141 0028 18D0     		beq	.L6		@,
 142              	@ ../Libraries/STM32F4xx_StdPeriph_Driver/src/stm32f4xx_usart.c:181:   assert_param(IS_USART_ALL_PE
 143              		.loc 1 181 3 discriminator 10 view .LVU8
 144 002a 2F4D     		ldr	r5, .L11+4	@ tmp123,
 145 002c 401B     		subs	r0, r0, r5	@, USARTx, tmp123
 146              	.LVL1:
 147              		.loc 1 181 3 discriminator 10 view .LVU9
 148 002e B0FA80F0 		clz	r0, r0	@,
 149 0032 4009     		lsrs	r0, r0, #5	@,,
 150 0034 FFF7FEFF 		bl	assert_param		@
 151              	.LVL2:
 182:../Libraries/STM32F4xx_StdPeriph_Driver/src/stm32f4xx_usart.c **** 
 183:../Libraries/STM32F4xx_StdPeriph_Driver/src/stm32f4xx_usart.c ****   if (USARTx == USART1)
 152              		.loc 1 183 3 is_stmt 1 discriminator 10 view .LVU10
 184:../Libraries/STM32F4xx_StdPeriph_Driver/src/stm32f4xx_usart.c ****   {
 185:../Libraries/STM32F4xx_StdPeriph_Driver/src/stm32f4xx_usart.c ****     RCC_APB2PeriphResetCmd(RCC_APB2Periph_USART1, ENABLE);
 186:../Libraries/STM32F4xx_StdPeriph_Driver/src/stm32f4xx_usart.c ****     RCC_APB2PeriphResetCmd(RCC_APB2Periph_USART1, DISABLE);
 187:../Libraries/STM32F4xx_StdPeriph_Driver/src/stm32f4xx_usart.c ****   }
 188:../Libraries/STM32F4xx_StdPeriph_Driver/src/stm32f4xx_usart.c ****   else if (USARTx == USART2)
 153              		.loc 1 188 8 discriminator 10 view .LVU11
ARM GAS  C:\Users\admin\AppData\Local\Temp\ccwrrJFc.s 			page 7


 189:../Libraries/STM32F4xx_StdPeriph_Driver/src/stm32f4xx_usart.c ****   {
 190:../Libraries/STM32F4xx_StdPeriph_Driver/src/stm32f4xx_usart.c ****     RCC_APB1PeriphResetCmd(RCC_APB1Periph_USART2, ENABLE);
 191:../Libraries/STM32F4xx_StdPeriph_Driver/src/stm32f4xx_usart.c ****     RCC_APB1PeriphResetCmd(RCC_APB1Periph_USART2, DISABLE);
 192:../Libraries/STM32F4xx_StdPeriph_Driver/src/stm32f4xx_usart.c ****   }
 193:../Libraries/STM32F4xx_StdPeriph_Driver/src/stm32f4xx_usart.c ****   else if (USARTx == USART3)
 154              		.loc 1 193 8 discriminator 10 view .LVU12
 194:../Libraries/STM32F4xx_StdPeriph_Driver/src/stm32f4xx_usart.c ****   {
 195:../Libraries/STM32F4xx_StdPeriph_Driver/src/stm32f4xx_usart.c ****     RCC_APB1PeriphResetCmd(RCC_APB1Periph_USART3, ENABLE);
 196:../Libraries/STM32F4xx_StdPeriph_Driver/src/stm32f4xx_usart.c ****     RCC_APB1PeriphResetCmd(RCC_APB1Periph_USART3, DISABLE);
 197:../Libraries/STM32F4xx_StdPeriph_Driver/src/stm32f4xx_usart.c ****   }    
 198:../Libraries/STM32F4xx_StdPeriph_Driver/src/stm32f4xx_usart.c ****   else if (USARTx == UART4)
 155              		.loc 1 198 8 discriminator 10 view .LVU13
 199:../Libraries/STM32F4xx_StdPeriph_Driver/src/stm32f4xx_usart.c ****   {
 200:../Libraries/STM32F4xx_StdPeriph_Driver/src/stm32f4xx_usart.c ****     RCC_APB1PeriphResetCmd(RCC_APB1Periph_UART4, ENABLE);
 201:../Libraries/STM32F4xx_StdPeriph_Driver/src/stm32f4xx_usart.c ****     RCC_APB1PeriphResetCmd(RCC_APB1Periph_UART4, DISABLE);
 202:../Libraries/STM32F4xx_StdPeriph_Driver/src/stm32f4xx_usart.c ****   }
 203:../Libraries/STM32F4xx_StdPeriph_Driver/src/stm32f4xx_usart.c ****   else if (USARTx == UART5)
 156              		.loc 1 203 8 discriminator 10 view .LVU14
 204:../Libraries/STM32F4xx_StdPeriph_Driver/src/stm32f4xx_usart.c ****   {
 205:../Libraries/STM32F4xx_StdPeriph_Driver/src/stm32f4xx_usart.c ****     RCC_APB1PeriphResetCmd(RCC_APB1Periph_UART5, ENABLE);
 206:../Libraries/STM32F4xx_StdPeriph_Driver/src/stm32f4xx_usart.c ****     RCC_APB1PeriphResetCmd(RCC_APB1Periph_UART5, DISABLE);
 207:../Libraries/STM32F4xx_StdPeriph_Driver/src/stm32f4xx_usart.c ****   }     
 208:../Libraries/STM32F4xx_StdPeriph_Driver/src/stm32f4xx_usart.c ****   else
 209:../Libraries/STM32F4xx_StdPeriph_Driver/src/stm32f4xx_usart.c ****   {
 210:../Libraries/STM32F4xx_StdPeriph_Driver/src/stm32f4xx_usart.c ****     if (USARTx == USART6)
 157              		.loc 1 210 5 discriminator 10 view .LVU15
 158              	@ ../Libraries/STM32F4xx_StdPeriph_Driver/src/stm32f4xx_usart.c:210:     if (USARTx == USART6)
 159              		.loc 1 210 8 is_stmt 0 discriminator 10 view .LVU16
 160 0038 AC42     		cmp	r4, r5	@ USARTx, tmp123
 161 003a 49D0     		beq	.L10		@,
 162              	@ ../Libraries/STM32F4xx_StdPeriph_Driver/src/stm32f4xx_usart.c:216: }
 211:../Libraries/STM32F4xx_StdPeriph_Driver/src/stm32f4xx_usart.c ****     { 
 212:../Libraries/STM32F4xx_StdPeriph_Driver/src/stm32f4xx_usart.c ****       RCC_APB2PeriphResetCmd(RCC_APB2Periph_USART6, ENABLE);
 213:../Libraries/STM32F4xx_StdPeriph_Driver/src/stm32f4xx_usart.c ****       RCC_APB2PeriphResetCmd(RCC_APB2Periph_USART6, DISABLE);
 214:../Libraries/STM32F4xx_StdPeriph_Driver/src/stm32f4xx_usart.c ****     }
 215:../Libraries/STM32F4xx_StdPeriph_Driver/src/stm32f4xx_usart.c ****   }
 216:../Libraries/STM32F4xx_StdPeriph_Driver/src/stm32f4xx_usart.c **** }
 163              		.loc 1 216 1 view .LVU17
 164 003c 38BD     		pop	{r3, r4, r5, pc}	@
 165              	.LVL3:
 166              	.L3:
 167              	@ ../Libraries/STM32F4xx_StdPeriph_Driver/src/stm32f4xx_usart.c:181:   assert_param(IS_USART_ALL_PE
 181:../Libraries/STM32F4xx_StdPeriph_Driver/src/stm32f4xx_usart.c **** 
 168              		.loc 1 181 3 view .LVU18
 169 003e 0120     		movs	r0, #1	@,
 170              	.LVL4:
 181:../Libraries/STM32F4xx_StdPeriph_Driver/src/stm32f4xx_usart.c **** 
 171              		.loc 1 181 3 view .LVU19
 172 0040 FFF7FEFF 		bl	assert_param		@
 173              	.LVL5:
 183:../Libraries/STM32F4xx_StdPeriph_Driver/src/stm32f4xx_usart.c ****   {
 174              		.loc 1 183 3 is_stmt 1 view .LVU20
 188:../Libraries/STM32F4xx_StdPeriph_Driver/src/stm32f4xx_usart.c ****   {
 175              		.loc 1 188 8 view .LVU21
 190:../Libraries/STM32F4xx_StdPeriph_Driver/src/stm32f4xx_usart.c ****     RCC_APB1PeriphResetCmd(RCC_APB1Periph_USART2, DISABLE);
 176              		.loc 1 190 5 view .LVU22
 177 0044 0121     		movs	r1, #1	@,
ARM GAS  C:\Users\admin\AppData\Local\Temp\ccwrrJFc.s 			page 8


 178 0046 4FF40030 		mov	r0, #131072	@,
 179 004a FFF7FEFF 		bl	RCC_APB1PeriphResetCmd		@
 180              	.LVL6:
 191:../Libraries/STM32F4xx_StdPeriph_Driver/src/stm32f4xx_usart.c ****   }
 181              		.loc 1 191 5 view .LVU23
 182              	@ ../Libraries/STM32F4xx_StdPeriph_Driver/src/stm32f4xx_usart.c:216: }
 183              		.loc 1 216 1 is_stmt 0 view .LVU24
 184 004e BDE83840 		pop	{r3, r4, r5, lr}	@
 185              		.cfi_remember_state
 186              		.cfi_restore 14
 187              		.cfi_restore 5
 188              		.cfi_restore 4
 189              		.cfi_restore 3
 190              		.cfi_def_cfa_offset 0
 191              	.LVL7:
 192              	@ ../Libraries/STM32F4xx_StdPeriph_Driver/src/stm32f4xx_usart.c:191:     RCC_APB1PeriphResetCmd(RCC
 191:../Libraries/STM32F4xx_StdPeriph_Driver/src/stm32f4xx_usart.c ****   }
 193              		.loc 1 191 5 view .LVU25
 194 0052 0021     		movs	r1, #0	@,
 195 0054 4FF40030 		mov	r0, #131072	@,
 196 0058 FFF7FEBF 		b	RCC_APB1PeriphResetCmd		@
 197              	.LVL8:
 198              	.L6:
 199              		.cfi_restore_state
 200              	@ ../Libraries/STM32F4xx_StdPeriph_Driver/src/stm32f4xx_usart.c:181:   assert_param(IS_USART_ALL_PE
 181:../Libraries/STM32F4xx_StdPeriph_Driver/src/stm32f4xx_usart.c **** 
 201              		.loc 1 181 3 view .LVU26
 202 005c 0120     		movs	r0, #1	@,
 203              	.LVL9:
 181:../Libraries/STM32F4xx_StdPeriph_Driver/src/stm32f4xx_usart.c **** 
 204              		.loc 1 181 3 view .LVU27
 205 005e FFF7FEFF 		bl	assert_param		@
 206              	.LVL10:
 183:../Libraries/STM32F4xx_StdPeriph_Driver/src/stm32f4xx_usart.c ****   {
 207              		.loc 1 183 3 is_stmt 1 view .LVU28
 188:../Libraries/STM32F4xx_StdPeriph_Driver/src/stm32f4xx_usart.c ****   {
 208              		.loc 1 188 8 view .LVU29
 205:../Libraries/STM32F4xx_StdPeriph_Driver/src/stm32f4xx_usart.c ****     RCC_APB1PeriphResetCmd(RCC_APB1Periph_UART5, DISABLE);
 209              		.loc 1 205 5 view .LVU30
 210 0062 0121     		movs	r1, #1	@,
 211 0064 4FF48010 		mov	r0, #1048576	@,
 212 0068 FFF7FEFF 		bl	RCC_APB1PeriphResetCmd		@
 213              	.LVL11:
 206:../Libraries/STM32F4xx_StdPeriph_Driver/src/stm32f4xx_usart.c ****   }     
 214              		.loc 1 206 5 view .LVU31
 215              	@ ../Libraries/STM32F4xx_StdPeriph_Driver/src/stm32f4xx_usart.c:216: }
 216              		.loc 1 216 1 is_stmt 0 view .LVU32
 217 006c BDE83840 		pop	{r3, r4, r5, lr}	@
 218              		.cfi_remember_state
 219              		.cfi_restore 14
 220              		.cfi_restore 5
 221              		.cfi_restore 4
 222              		.cfi_restore 3
 223              		.cfi_def_cfa_offset 0
 224              	.LVL12:
 225              	@ ../Libraries/STM32F4xx_StdPeriph_Driver/src/stm32f4xx_usart.c:206:     RCC_APB1PeriphResetCmd(RCC
 206:../Libraries/STM32F4xx_StdPeriph_Driver/src/stm32f4xx_usart.c ****   }     
ARM GAS  C:\Users\admin\AppData\Local\Temp\ccwrrJFc.s 			page 9


 226              		.loc 1 206 5 view .LVU33
 227 0070 0021     		movs	r1, #0	@,
 228 0072 4FF48010 		mov	r0, #1048576	@,
 229 0076 FFF7FEBF 		b	RCC_APB1PeriphResetCmd		@
 230              	.LVL13:
 231              	.L2:
 232              		.cfi_restore_state
 233              	@ ../Libraries/STM32F4xx_StdPeriph_Driver/src/stm32f4xx_usart.c:181:   assert_param(IS_USART_ALL_PE
 181:../Libraries/STM32F4xx_StdPeriph_Driver/src/stm32f4xx_usart.c **** 
 234              		.loc 1 181 3 view .LVU34
 235 007a 0120     		movs	r0, #1	@,
 236              	.LVL14:
 181:../Libraries/STM32F4xx_StdPeriph_Driver/src/stm32f4xx_usart.c **** 
 237              		.loc 1 181 3 view .LVU35
 238 007c FFF7FEFF 		bl	assert_param		@
 239              	.LVL15:
 183:../Libraries/STM32F4xx_StdPeriph_Driver/src/stm32f4xx_usart.c ****   {
 240              		.loc 1 183 3 is_stmt 1 view .LVU36
 185:../Libraries/STM32F4xx_StdPeriph_Driver/src/stm32f4xx_usart.c ****     RCC_APB2PeriphResetCmd(RCC_APB2Periph_USART1, DISABLE);
 241              		.loc 1 185 5 view .LVU37
 242 0080 0121     		movs	r1, #1	@,
 243 0082 1020     		movs	r0, #16	@,
 244 0084 FFF7FEFF 		bl	RCC_APB2PeriphResetCmd		@
 245              	.LVL16:
 186:../Libraries/STM32F4xx_StdPeriph_Driver/src/stm32f4xx_usart.c ****   }
 246              		.loc 1 186 5 view .LVU38
 247              	@ ../Libraries/STM32F4xx_StdPeriph_Driver/src/stm32f4xx_usart.c:216: }
 248              		.loc 1 216 1 is_stmt 0 view .LVU39
 249 0088 BDE83840 		pop	{r3, r4, r5, lr}	@
 250              		.cfi_remember_state
 251              		.cfi_restore 14
 252              		.cfi_restore 5
 253              		.cfi_restore 4
 254              		.cfi_restore 3
 255              		.cfi_def_cfa_offset 0
 256              	@ ../Libraries/STM32F4xx_StdPeriph_Driver/src/stm32f4xx_usart.c:186:     RCC_APB2PeriphResetCmd(RCC
 186:../Libraries/STM32F4xx_StdPeriph_Driver/src/stm32f4xx_usart.c ****   }
 257              		.loc 1 186 5 view .LVU40
 258 008c 0021     		movs	r1, #0	@,
 259 008e 1020     		movs	r0, #16	@,
 260 0090 FFF7FEBF 		b	RCC_APB2PeriphResetCmd		@
 261              	.LVL17:
 262              	.L4:
 263              		.cfi_restore_state
 264              	@ ../Libraries/STM32F4xx_StdPeriph_Driver/src/stm32f4xx_usart.c:181:   assert_param(IS_USART_ALL_PE
 181:../Libraries/STM32F4xx_StdPeriph_Driver/src/stm32f4xx_usart.c **** 
 265              		.loc 1 181 3 view .LVU41
 266 0094 0120     		movs	r0, #1	@,
 267              	.LVL18:
 181:../Libraries/STM32F4xx_StdPeriph_Driver/src/stm32f4xx_usart.c **** 
 268              		.loc 1 181 3 view .LVU42
 269 0096 FFF7FEFF 		bl	assert_param		@
 270              	.LVL19:
 183:../Libraries/STM32F4xx_StdPeriph_Driver/src/stm32f4xx_usart.c ****   {
 271              		.loc 1 183 3 is_stmt 1 view .LVU43
 188:../Libraries/STM32F4xx_StdPeriph_Driver/src/stm32f4xx_usart.c ****   {
 272              		.loc 1 188 8 view .LVU44
ARM GAS  C:\Users\admin\AppData\Local\Temp\ccwrrJFc.s 			page 10


 193:../Libraries/STM32F4xx_StdPeriph_Driver/src/stm32f4xx_usart.c ****   {
 273              		.loc 1 193 8 view .LVU45
 195:../Libraries/STM32F4xx_StdPeriph_Driver/src/stm32f4xx_usart.c ****     RCC_APB1PeriphResetCmd(RCC_APB1Periph_USART3, DISABLE);
 274              		.loc 1 195 5 view .LVU46
 275 009a 0121     		movs	r1, #1	@,
 276 009c 4FF48020 		mov	r0, #262144	@,
 277 00a0 FFF7FEFF 		bl	RCC_APB1PeriphResetCmd		@
 278              	.LVL20:
 196:../Libraries/STM32F4xx_StdPeriph_Driver/src/stm32f4xx_usart.c ****   }    
 279              		.loc 1 196 5 view .LVU47
 280              	@ ../Libraries/STM32F4xx_StdPeriph_Driver/src/stm32f4xx_usart.c:216: }
 281              		.loc 1 216 1 is_stmt 0 view .LVU48
 282 00a4 BDE83840 		pop	{r3, r4, r5, lr}	@
 283              		.cfi_remember_state
 284              		.cfi_restore 14
 285              		.cfi_restore 5
 286              		.cfi_restore 4
 287              		.cfi_restore 3
 288              		.cfi_def_cfa_offset 0
 289              	.LVL21:
 290              	@ ../Libraries/STM32F4xx_StdPeriph_Driver/src/stm32f4xx_usart.c:196:     RCC_APB1PeriphResetCmd(RCC
 196:../Libraries/STM32F4xx_StdPeriph_Driver/src/stm32f4xx_usart.c ****   }    
 291              		.loc 1 196 5 view .LVU49
 292 00a8 0021     		movs	r1, #0	@,
 293 00aa 4FF48020 		mov	r0, #262144	@,
 294 00ae FFF7FEBF 		b	RCC_APB1PeriphResetCmd		@
 295              	.LVL22:
 296              	.L5:
 297              		.cfi_restore_state
 298              	@ ../Libraries/STM32F4xx_StdPeriph_Driver/src/stm32f4xx_usart.c:181:   assert_param(IS_USART_ALL_PE
 181:../Libraries/STM32F4xx_StdPeriph_Driver/src/stm32f4xx_usart.c **** 
 299              		.loc 1 181 3 view .LVU50
 300 00b2 0120     		movs	r0, #1	@,
 301              	.LVL23:
 181:../Libraries/STM32F4xx_StdPeriph_Driver/src/stm32f4xx_usart.c **** 
 302              		.loc 1 181 3 view .LVU51
 303 00b4 FFF7FEFF 		bl	assert_param		@
 304              	.LVL24:
 183:../Libraries/STM32F4xx_StdPeriph_Driver/src/stm32f4xx_usart.c ****   {
 305              		.loc 1 183 3 is_stmt 1 view .LVU52
 188:../Libraries/STM32F4xx_StdPeriph_Driver/src/stm32f4xx_usart.c ****   {
 306              		.loc 1 188 8 view .LVU53
 193:../Libraries/STM32F4xx_StdPeriph_Driver/src/stm32f4xx_usart.c ****   {
 307              		.loc 1 193 8 view .LVU54
 198:../Libraries/STM32F4xx_StdPeriph_Driver/src/stm32f4xx_usart.c ****   {
 308              		.loc 1 198 8 view .LVU55
 200:../Libraries/STM32F4xx_StdPeriph_Driver/src/stm32f4xx_usart.c ****     RCC_APB1PeriphResetCmd(RCC_APB1Periph_UART4, DISABLE);
 309              		.loc 1 200 5 view .LVU56
 310 00b8 0121     		movs	r1, #1	@,
 311 00ba 4FF40020 		mov	r0, #524288	@,
 312 00be FFF7FEFF 		bl	RCC_APB1PeriphResetCmd		@
 313              	.LVL25:
 201:../Libraries/STM32F4xx_StdPeriph_Driver/src/stm32f4xx_usart.c ****   }
 314              		.loc 1 201 5 view .LVU57
 315              	@ ../Libraries/STM32F4xx_StdPeriph_Driver/src/stm32f4xx_usart.c:216: }
 316              		.loc 1 216 1 is_stmt 0 view .LVU58
 317 00c2 BDE83840 		pop	{r3, r4, r5, lr}	@
ARM GAS  C:\Users\admin\AppData\Local\Temp\ccwrrJFc.s 			page 11


 318              		.cfi_remember_state
 319              		.cfi_restore 14
 320              		.cfi_restore 5
 321              		.cfi_restore 4
 322              		.cfi_restore 3
 323              		.cfi_def_cfa_offset 0
 324              	.LVL26:
 325              	@ ../Libraries/STM32F4xx_StdPeriph_Driver/src/stm32f4xx_usart.c:201:     RCC_APB1PeriphResetCmd(RCC
 201:../Libraries/STM32F4xx_StdPeriph_Driver/src/stm32f4xx_usart.c ****   }
 326              		.loc 1 201 5 view .LVU59
 327 00c6 0021     		movs	r1, #0	@,
 328 00c8 4FF40020 		mov	r0, #524288	@,
 329 00cc FFF7FEBF 		b	RCC_APB1PeriphResetCmd		@
 330              	.LVL27:
 331              	.L10:
 332              		.cfi_restore_state
 212:../Libraries/STM32F4xx_StdPeriph_Driver/src/stm32f4xx_usart.c ****       RCC_APB2PeriphResetCmd(RCC_APB2Periph_USART6, DISABLE);
 333              		.loc 1 212 7 is_stmt 1 view .LVU60
 334 00d0 0121     		movs	r1, #1	@,
 335 00d2 2020     		movs	r0, #32	@,
 336 00d4 FFF7FEFF 		bl	RCC_APB2PeriphResetCmd		@
 337              	.LVL28:
 213:../Libraries/STM32F4xx_StdPeriph_Driver/src/stm32f4xx_usart.c ****     }
 338              		.loc 1 213 7 view .LVU61
 339              	@ ../Libraries/STM32F4xx_StdPeriph_Driver/src/stm32f4xx_usart.c:216: }
 340              		.loc 1 216 1 is_stmt 0 view .LVU62
 341 00d8 BDE83840 		pop	{r3, r4, r5, lr}	@
 342              		.cfi_restore 14
 343              		.cfi_restore 5
 344              		.cfi_restore 4
 345              		.cfi_restore 3
 346              		.cfi_def_cfa_offset 0
 347              	.LVL29:
 348              	@ ../Libraries/STM32F4xx_StdPeriph_Driver/src/stm32f4xx_usart.c:213:       RCC_APB2PeriphResetCmd(R
 213:../Libraries/STM32F4xx_StdPeriph_Driver/src/stm32f4xx_usart.c ****     }
 349              		.loc 1 213 7 view .LVU63
 350 00dc 0021     		movs	r1, #0	@,
 351 00de 2020     		movs	r0, #32	@,
 352 00e0 FFF7FEBF 		b	RCC_APB2PeriphResetCmd		@
 353              	.LVL30:
 354              	.L12:
 355              		.align	2
 356              	.L11:
 357 00e4 00100140 		.word	1073811456
 358 00e8 00140140 		.word	1073812480
 359              		.cfi_endproc
 360              	.LFE110:
 361              		.size	USART_DeInit, .-USART_DeInit
 362              		.section	.text.USART_Init,"ax",%progbits
 363              		.align	1
 364              		.p2align 2,,3
 365              		.global	USART_Init
 366              		.syntax unified
 367              		.thumb
 368              		.thumb_func
 369              		.type	USART_Init, %function
 370              	USART_Init:
ARM GAS  C:\Users\admin\AppData\Local\Temp\ccwrrJFc.s 			page 12


 371              	.LVL31:
 372              	.LFB111:
 217:../Libraries/STM32F4xx_StdPeriph_Driver/src/stm32f4xx_usart.c **** 
 218:../Libraries/STM32F4xx_StdPeriph_Driver/src/stm32f4xx_usart.c **** /**
 219:../Libraries/STM32F4xx_StdPeriph_Driver/src/stm32f4xx_usart.c ****   * @brief  Initializes the USARTx peripheral according to the specified
 220:../Libraries/STM32F4xx_StdPeriph_Driver/src/stm32f4xx_usart.c ****   *         parameters in the USART_InitStruct .
 221:../Libraries/STM32F4xx_StdPeriph_Driver/src/stm32f4xx_usart.c ****   * @param  USARTx: where x can be 1, 2, 3, 4, 5 or 6 to select the USART or 
 222:../Libraries/STM32F4xx_StdPeriph_Driver/src/stm32f4xx_usart.c ****   *         UART peripheral.
 223:../Libraries/STM32F4xx_StdPeriph_Driver/src/stm32f4xx_usart.c ****   * @param  USART_InitStruct: pointer to a USART_InitTypeDef structure that contains
 224:../Libraries/STM32F4xx_StdPeriph_Driver/src/stm32f4xx_usart.c ****   *         the configuration information for the specified USART peripheral.
 225:../Libraries/STM32F4xx_StdPeriph_Driver/src/stm32f4xx_usart.c ****   * @retval None
 226:../Libraries/STM32F4xx_StdPeriph_Driver/src/stm32f4xx_usart.c ****   */
 227:../Libraries/STM32F4xx_StdPeriph_Driver/src/stm32f4xx_usart.c **** void USART_Init(USART_TypeDef* USARTx, USART_InitTypeDef* USART_InitStruct)
 228:../Libraries/STM32F4xx_StdPeriph_Driver/src/stm32f4xx_usart.c **** {
 373              		.loc 1 228 1 is_stmt 1 view -0
 374              		.cfi_startproc
 375              		@ args = 0, pretend = 0, frame = 16
 376              		@ frame_needed = 0, uses_anonymous_args = 0
 229:../Libraries/STM32F4xx_StdPeriph_Driver/src/stm32f4xx_usart.c ****   uint32_t tmpreg = 0x00, apbclock = 0x00;
 377              		.loc 1 229 3 view .LVU65
 230:../Libraries/STM32F4xx_StdPeriph_Driver/src/stm32f4xx_usart.c ****   uint32_t integerdivider = 0x00;
 378              		.loc 1 230 3 view .LVU66
 231:../Libraries/STM32F4xx_StdPeriph_Driver/src/stm32f4xx_usart.c ****   uint32_t fractionaldivider = 0x00;
 379              		.loc 1 231 3 view .LVU67
 232:../Libraries/STM32F4xx_StdPeriph_Driver/src/stm32f4xx_usart.c ****   RCC_ClocksTypeDef RCC_ClocksStatus;
 380              		.loc 1 232 3 view .LVU68
 233:../Libraries/STM32F4xx_StdPeriph_Driver/src/stm32f4xx_usart.c **** 
 234:../Libraries/STM32F4xx_StdPeriph_Driver/src/stm32f4xx_usart.c ****   /* Check the parameters */
 235:../Libraries/STM32F4xx_StdPeriph_Driver/src/stm32f4xx_usart.c ****   assert_param(IS_USART_ALL_PERIPH(USARTx));
 381              		.loc 1 235 3 view .LVU69
 382              	@ ../Libraries/STM32F4xx_StdPeriph_Driver/src/stm32f4xx_usart.c:228: {
 228:../Libraries/STM32F4xx_StdPeriph_Driver/src/stm32f4xx_usart.c ****   uint32_t tmpreg = 0x00, apbclock = 0x00;
 383              		.loc 1 228 1 is_stmt 0 view .LVU70
 384 0000 30B5     		push	{r4, r5, lr}	@
 385              		.cfi_def_cfa_offset 12
 386              		.cfi_offset 4, -12
 387              		.cfi_offset 5, -8
 388              		.cfi_offset 14, -4
 389              	@ ../Libraries/STM32F4xx_StdPeriph_Driver/src/stm32f4xx_usart.c:235:   assert_param(IS_USART_ALL_PE
 390              		.loc 1 235 3 view .LVU71
 391 0002 674B     		ldr	r3, .L41	@ tmp193,
 392 0004 9842     		cmp	r0, r3	@ USARTx, tmp193
 393              	@ ../Libraries/STM32F4xx_StdPeriph_Driver/src/stm32f4xx_usart.c:228: {
 228:../Libraries/STM32F4xx_StdPeriph_Driver/src/stm32f4xx_usart.c ****   uint32_t tmpreg = 0x00, apbclock = 0x00;
 394              		.loc 1 228 1 view .LVU72
 395 0006 85B0     		sub	sp, sp, #20	@,,
 396              		.cfi_def_cfa_offset 32
 397              	@ ../Libraries/STM32F4xx_StdPeriph_Driver/src/stm32f4xx_usart.c:228: {
 228:../Libraries/STM32F4xx_StdPeriph_Driver/src/stm32f4xx_usart.c ****   uint32_t tmpreg = 0x00, apbclock = 0x00;
 398              		.loc 1 228 1 view .LVU73
 399 0008 0446     		mov	r4, r0	@ USARTx, tmp315
 400 000a 0D46     		mov	r5, r1	@ USART_InitStruct, tmp316
 401              	@ ../Libraries/STM32F4xx_StdPeriph_Driver/src/stm32f4xx_usart.c:235:   assert_param(IS_USART_ALL_PE
 402              		.loc 1 235 3 view .LVU74
 403 000c 15D0     		beq	.L30		@,
 404              	@ ../Libraries/STM32F4xx_StdPeriph_Driver/src/stm32f4xx_usart.c:235:   assert_param(IS_USART_ALL_PE
 405              		.loc 1 235 16 discriminator 2 view .LVU75
ARM GAS  C:\Users\admin\AppData\Local\Temp\ccwrrJFc.s 			page 13


 406 000e A3F54C43 		sub	r3, r3, #52224	@ tmp194, tmp194,
 407 0012 9842     		cmp	r0, r3	@ USARTx, tmp194
 408 0014 11D0     		beq	.L30		@,
 409              	@ ../Libraries/STM32F4xx_StdPeriph_Driver/src/stm32f4xx_usart.c:235:   assert_param(IS_USART_ALL_PE
 410              		.loc 1 235 16 discriminator 4 view .LVU76
 411 0016 03F58063 		add	r3, r3, #1024	@ tmp195, tmp195,
 412 001a 9842     		cmp	r0, r3	@ USARTx, tmp195
 413 001c 0DD0     		beq	.L30		@,
 414              	@ ../Libraries/STM32F4xx_StdPeriph_Driver/src/stm32f4xx_usart.c:235:   assert_param(IS_USART_ALL_PE
 415              		.loc 1 235 16 discriminator 6 view .LVU77
 416 001e 03F58063 		add	r3, r3, #1024	@ tmp196, tmp196,
 417 0022 9842     		cmp	r0, r3	@ USARTx, tmp196
 418 0024 09D0     		beq	.L30		@,
 419              	@ ../Libraries/STM32F4xx_StdPeriph_Driver/src/stm32f4xx_usart.c:235:   assert_param(IS_USART_ALL_PE
 420              		.loc 1 235 16 discriminator 8 view .LVU78
 421 0026 03F58063 		add	r3, r3, #1024	@ tmp197, tmp197,
 422 002a 9842     		cmp	r0, r3	@ USARTx, tmp197
 423 002c 05D0     		beq	.L30		@,
 424              	@ ../Libraries/STM32F4xx_StdPeriph_Driver/src/stm32f4xx_usart.c:235:   assert_param(IS_USART_ALL_PE
 425              		.loc 1 235 3 discriminator 10 view .LVU79
 426 002e 5D48     		ldr	r0, .L41+4	@ tmp200,
 427              	.LVL32:
 428              		.loc 1 235 3 discriminator 10 view .LVU80
 429 0030 201A     		subs	r0, r4, r0	@ iftmp.1_52, USARTx, tmp200
 430 0032 B0FA80F0 		clz	r0, r0	@ iftmp.1_52, iftmp.1_52
 431 0036 4009     		lsrs	r0, r0, #5	@ iftmp.1_52, iftmp.1_52,
 432 0038 00E0     		b	.L14		@
 433              	.LVL33:
 434              	.L30:
 435              	@ ../Libraries/STM32F4xx_StdPeriph_Driver/src/stm32f4xx_usart.c:235:   assert_param(IS_USART_ALL_PE
 436              		.loc 1 235 3 view .LVU81
 437 003a 0120     		movs	r0, #1	@ iftmp.1_52,
 438              	.LVL34:
 439              	.L14:
 440              	@ ../Libraries/STM32F4xx_StdPeriph_Driver/src/stm32f4xx_usart.c:235:   assert_param(IS_USART_ALL_PE
 441              		.loc 1 235 3 discriminator 14 view .LVU82
 442 003c FFF7FEFF 		bl	assert_param		@
 443              	.LVL35:
 236:../Libraries/STM32F4xx_StdPeriph_Driver/src/stm32f4xx_usart.c ****   assert_param(IS_USART_BAUDRATE(USART_InitStruct->USART_BaudRate));  
 444              		.loc 1 236 3 is_stmt 1 discriminator 14 view .LVU83
 445              	@ ../Libraries/STM32F4xx_StdPeriph_Driver/src/stm32f4xx_usart.c:236:   assert_param(IS_USART_BAUDRA
 446              		.loc 1 236 16 is_stmt 0 discriminator 14 view .LVU84
 447 0040 2B68     		ldr	r3, [r5]	@ USART_InitStruct_64(D)->USART_BaudRate, USART_InitStruct_64(D)->USART_BaudRate
 448              	@ ../Libraries/STM32F4xx_StdPeriph_Driver/src/stm32f4xx_usart.c:236:   assert_param(IS_USART_BAUDRA
 449              		.loc 1 236 3 discriminator 14 view .LVU85
 450 0042 5948     		ldr	r0, .L41+8	@ tmp205,
 451              	@ ../Libraries/STM32F4xx_StdPeriph_Driver/src/stm32f4xx_usart.c:236:   assert_param(IS_USART_BAUDRA
 452              		.loc 1 236 16 discriminator 14 view .LVU86
 453 0044 013B     		subs	r3, r3, #1	@ tmp201, USART_InitStruct_64(D)->USART_BaudRate,
 454              	@ ../Libraries/STM32F4xx_StdPeriph_Driver/src/stm32f4xx_usart.c:236:   assert_param(IS_USART_BAUDRA
 455              		.loc 1 236 3 discriminator 14 view .LVU87
 456 0046 8342     		cmp	r3, r0	@ tmp201, tmp205
 457 0048 8CBF     		ite	hi
 458 004a 0020     		movhi	r0, #0	@,
 459 004c 0120     		movls	r0, #1	@,
 460 004e FFF7FEFF 		bl	assert_param		@
 461              	.LVL36:
ARM GAS  C:\Users\admin\AppData\Local\Temp\ccwrrJFc.s 			page 14


 237:../Libraries/STM32F4xx_StdPeriph_Driver/src/stm32f4xx_usart.c ****   assert_param(IS_USART_WORD_LENGTH(USART_InitStruct->USART_WordLength));
 462              		.loc 1 237 3 is_stmt 1 discriminator 14 view .LVU88
 463 0052 A888     		ldrh	r0, [r5, #4]	@, USART_InitStruct_64(D)->USART_WordLength
 464 0054 20F48050 		bic	r0, r0, #4096	@ tmp207, USART_InitStruct_64(D)->USART_WordLength,
 465 0058 80B2     		uxth	r0, r0	@ tmp209, tmp207
 466 005a B0FA80F0 		clz	r0, r0	@, tmp209
 467 005e 4009     		lsrs	r0, r0, #5	@,,
 468 0060 FFF7FEFF 		bl	assert_param		@
 469              	.LVL37:
 238:../Libraries/STM32F4xx_StdPeriph_Driver/src/stm32f4xx_usart.c ****   assert_param(IS_USART_STOPBITS(USART_InitStruct->USART_StopBits));
 470              		.loc 1 238 3 discriminator 14 view .LVU89
 471 0064 E888     		ldrh	r0, [r5, #6]	@, USART_InitStruct_64(D)->USART_StopBits
 472 0066 20F44050 		bic	r0, r0, #12288	@ tmp212, USART_InitStruct_64(D)->USART_StopBits,
 473 006a 80B2     		uxth	r0, r0	@ tmp214, tmp212
 474 006c B0FA80F0 		clz	r0, r0	@, tmp214
 475 0070 4009     		lsrs	r0, r0, #5	@,,
 476 0072 FFF7FEFF 		bl	assert_param		@
 477              	.LVL38:
 239:../Libraries/STM32F4xx_StdPeriph_Driver/src/stm32f4xx_usart.c ****   assert_param(IS_USART_PARITY(USART_InitStruct->USART_Parity));
 478              		.loc 1 239 3 discriminator 14 view .LVU90
 479              	@ ../Libraries/STM32F4xx_StdPeriph_Driver/src/stm32f4xx_usart.c:239:   assert_param(IS_USART_PARITY
 480              		.loc 1 239 16 is_stmt 0 discriminator 14 view .LVU91
 481 0076 2889     		ldrh	r0, [r5, #8]	@ _7, USART_InitStruct_64(D)->USART_Parity
 482              	@ ../Libraries/STM32F4xx_StdPeriph_Driver/src/stm32f4xx_usart.c:239:   assert_param(IS_USART_PARITY
 483              		.loc 1 239 3 discriminator 14 view .LVU92
 484 0078 20F48063 		bic	r3, r0, #1024	@ tmp216, _7,
 485 007c 002B     		cmp	r3, #0	@ tmp216
 486 007e 7DD0     		beq	.L31	@
 487              	@ ../Libraries/STM32F4xx_StdPeriph_Driver/src/stm32f4xx_usart.c:239:   assert_param(IS_USART_PARITY
 488              		.loc 1 239 3 discriminator 4 view .LVU93
 489 0080 A0F5C060 		sub	r0, r0, #1536	@ iftmp.4_55, _7,
 490 0084 B0FA80F0 		clz	r0, r0	@ iftmp.4_55, iftmp.4_55
 491 0088 4009     		lsrs	r0, r0, #5	@ iftmp.4_55, iftmp.4_55,
 492              	.L15:
 493              	@ ../Libraries/STM32F4xx_StdPeriph_Driver/src/stm32f4xx_usart.c:239:   assert_param(IS_USART_PARITY
 494              		.loc 1 239 3 discriminator 8 view .LVU94
 495 008a FFF7FEFF 		bl	assert_param		@
 496              	.LVL39:
 240:../Libraries/STM32F4xx_StdPeriph_Driver/src/stm32f4xx_usart.c ****   assert_param(IS_USART_MODE(USART_InitStruct->USART_Mode));
 497              		.loc 1 240 3 is_stmt 1 discriminator 8 view .LVU95
 498              	@ ../Libraries/STM32F4xx_StdPeriph_Driver/src/stm32f4xx_usart.c:240:   assert_param(IS_USART_MODE(U
 499              		.loc 1 240 16 is_stmt 0 discriminator 8 view .LVU96
 500 008e 6889     		ldrh	r0, [r5, #10]	@ _8, USART_InitStruct_64(D)->USART_Mode
 501              	@ ../Libraries/STM32F4xx_StdPeriph_Driver/src/stm32f4xx_usart.c:240:   assert_param(IS_USART_MODE(U
 502              		.loc 1 240 3 discriminator 8 view .LVU97
 503 0090 20F00C03 		bic	r3, r0, #12	@ tmp221, _8,
 504 0094 002B     		cmp	r3, #0	@ tmp221
 505 0096 6FD1     		bne	.L32	@
 506              	@ ../Libraries/STM32F4xx_StdPeriph_Driver/src/stm32f4xx_usart.c:240:   assert_param(IS_USART_MODE(U
 507              		.loc 1 240 3 discriminator 1 view .LVU98
 508 0098 0038     		subs	r0, r0, #0	@ iftmp.5_56, _8,
 509 009a 18BF     		it	ne
 510 009c 0120     		movne	r0, #1	@ iftmp.5_56,
 511              	.L16:
 512              	@ ../Libraries/STM32F4xx_StdPeriph_Driver/src/stm32f4xx_usart.c:240:   assert_param(IS_USART_MODE(U
 513              		.loc 1 240 3 discriminator 6 view .LVU99
 514 009e FFF7FEFF 		bl	assert_param		@
ARM GAS  C:\Users\admin\AppData\Local\Temp\ccwrrJFc.s 			page 15


 515              	.LVL40:
 241:../Libraries/STM32F4xx_StdPeriph_Driver/src/stm32f4xx_usart.c ****   assert_param(IS_USART_HARDWARE_FLOW_CONTROL(USART_InitStruct->USART_HardwareFlowControl));
 516              		.loc 1 241 3 is_stmt 1 discriminator 6 view .LVU100
 517 00a2 A889     		ldrh	r0, [r5, #12]	@, USART_InitStruct_64(D)->USART_HardwareFlowControl
 518 00a4 20F44070 		bic	r0, r0, #768	@ tmp227, USART_InitStruct_64(D)->USART_HardwareFlowControl,
 519 00a8 80B2     		uxth	r0, r0	@ tmp229, tmp227
 520 00aa B0FA80F0 		clz	r0, r0	@, tmp229
 521 00ae 4009     		lsrs	r0, r0, #5	@,,
 522 00b0 FFF7FEFF 		bl	assert_param		@
 523              	.LVL41:
 242:../Libraries/STM32F4xx_StdPeriph_Driver/src/stm32f4xx_usart.c **** 
 243:../Libraries/STM32F4xx_StdPeriph_Driver/src/stm32f4xx_usart.c ****   /* The hardware flow control is available only for USART1, USART2, USART3 and USART6 */
 244:../Libraries/STM32F4xx_StdPeriph_Driver/src/stm32f4xx_usart.c ****   if (USART_InitStruct->USART_HardwareFlowControl != USART_HardwareFlowControl_None)
 524              		.loc 1 244 3 discriminator 6 view .LVU101
 525              	@ ../Libraries/STM32F4xx_StdPeriph_Driver/src/stm32f4xx_usart.c:244:   if (USART_InitStruct->USART_
 526              		.loc 1 244 23 is_stmt 0 discriminator 6 view .LVU102
 527 00b4 A989     		ldrh	r1, [r5, #12]	@ _10, USART_InitStruct_64(D)->USART_HardwareFlowControl
 528              	@ ../Libraries/STM32F4xx_StdPeriph_Driver/src/stm32f4xx_usart.c:244:   if (USART_InitStruct->USART_
 529              		.loc 1 244 6 discriminator 6 view .LVU103
 530 00b6 91B1     		cbz	r1, .L17	@ _10,
 245:../Libraries/STM32F4xx_StdPeriph_Driver/src/stm32f4xx_usart.c ****   {
 246:../Libraries/STM32F4xx_StdPeriph_Driver/src/stm32f4xx_usart.c ****     assert_param(IS_USART_1236_PERIPH(USARTx));
 531              		.loc 1 246 5 is_stmt 1 view .LVU104
 532 00b8 394B     		ldr	r3, .L41	@ tmp231,
 533 00ba 9C42     		cmp	r4, r3	@ USARTx, tmp231
 534 00bc 60D0     		beq	.L35		@,
 535              	@ ../Libraries/STM32F4xx_StdPeriph_Driver/src/stm32f4xx_usart.c:246:     assert_param(IS_USART_1236
 536              		.loc 1 246 18 is_stmt 0 discriminator 2 view .LVU105
 537 00be A3F54C43 		sub	r3, r3, #52224	@ tmp232, tmp232,
 538 00c2 9C42     		cmp	r4, r3	@ USARTx, tmp232
 539 00c4 5CD0     		beq	.L35		@,
 540              	@ ../Libraries/STM32F4xx_StdPeriph_Driver/src/stm32f4xx_usart.c:246:     assert_param(IS_USART_1236
 541              		.loc 1 246 18 discriminator 4 view .LVU106
 542 00c6 03F58063 		add	r3, r3, #1024	@ tmp233, tmp233,
 543 00ca 9C42     		cmp	r4, r3	@ USARTx, tmp233
 544 00cc 58D0     		beq	.L35		@,
 545              	@ ../Libraries/STM32F4xx_StdPeriph_Driver/src/stm32f4xx_usart.c:246:     assert_param(IS_USART_1236
 546              		.loc 1 246 5 discriminator 6 view .LVU107
 547 00ce 3548     		ldr	r0, .L41+4	@ tmp236,
 548 00d0 201A     		subs	r0, r4, r0	@ iftmp.7_58, USARTx, tmp236
 549 00d2 B0FA80F0 		clz	r0, r0	@ iftmp.7_58, iftmp.7_58
 550 00d6 4009     		lsrs	r0, r0, #5	@ iftmp.7_58, iftmp.7_58,
 551 00d8 FFF7FEFF 		bl	assert_param		@
 552              	.LVL42:
 553              	@ ../Libraries/STM32F4xx_StdPeriph_Driver/src/stm32f4xx_usart.c:286:   tmpreg |= USART_InitStruct->
 247:../Libraries/STM32F4xx_StdPeriph_Driver/src/stm32f4xx_usart.c ****   }
 248:../Libraries/STM32F4xx_StdPeriph_Driver/src/stm32f4xx_usart.c **** 
 249:../Libraries/STM32F4xx_StdPeriph_Driver/src/stm32f4xx_usart.c **** /*---------------------------- USART CR2 Configuration -----------------------*/
 250:../Libraries/STM32F4xx_StdPeriph_Driver/src/stm32f4xx_usart.c ****   tmpreg = USARTx->CR2;
 251:../Libraries/STM32F4xx_StdPeriph_Driver/src/stm32f4xx_usart.c **** 
 252:../Libraries/STM32F4xx_StdPeriph_Driver/src/stm32f4xx_usart.c ****   /* Clear STOP[13:12] bits */
 253:../Libraries/STM32F4xx_StdPeriph_Driver/src/stm32f4xx_usart.c ****   tmpreg &= (uint32_t)~((uint32_t)USART_CR2_STOP);
 254:../Libraries/STM32F4xx_StdPeriph_Driver/src/stm32f4xx_usart.c **** 
 255:../Libraries/STM32F4xx_StdPeriph_Driver/src/stm32f4xx_usart.c ****   /* Configure the USART Stop Bits, Clock, CPOL, CPHA and LastBit :
 256:../Libraries/STM32F4xx_StdPeriph_Driver/src/stm32f4xx_usart.c ****       Set STOP[13:12] bits according to USART_StopBits value */
 257:../Libraries/STM32F4xx_StdPeriph_Driver/src/stm32f4xx_usart.c ****   tmpreg |= (uint32_t)USART_InitStruct->USART_StopBits;
 258:../Libraries/STM32F4xx_StdPeriph_Driver/src/stm32f4xx_usart.c ****   
ARM GAS  C:\Users\admin\AppData\Local\Temp\ccwrrJFc.s 			page 16


 259:../Libraries/STM32F4xx_StdPeriph_Driver/src/stm32f4xx_usart.c ****   /* Write to USART CR2 */
 260:../Libraries/STM32F4xx_StdPeriph_Driver/src/stm32f4xx_usart.c ****   USARTx->CR2 = (uint16_t)tmpreg;
 261:../Libraries/STM32F4xx_StdPeriph_Driver/src/stm32f4xx_usart.c **** 
 262:../Libraries/STM32F4xx_StdPeriph_Driver/src/stm32f4xx_usart.c **** /*---------------------------- USART CR1 Configuration -----------------------*/
 263:../Libraries/STM32F4xx_StdPeriph_Driver/src/stm32f4xx_usart.c ****   tmpreg = USARTx->CR1;
 264:../Libraries/STM32F4xx_StdPeriph_Driver/src/stm32f4xx_usart.c **** 
 265:../Libraries/STM32F4xx_StdPeriph_Driver/src/stm32f4xx_usart.c ****   /* Clear M, PCE, PS, TE and RE bits */
 266:../Libraries/STM32F4xx_StdPeriph_Driver/src/stm32f4xx_usart.c ****   tmpreg &= (uint32_t)~((uint32_t)CR1_CLEAR_MASK);
 267:../Libraries/STM32F4xx_StdPeriph_Driver/src/stm32f4xx_usart.c **** 
 268:../Libraries/STM32F4xx_StdPeriph_Driver/src/stm32f4xx_usart.c ****   /* Configure the USART Word Length, Parity and mode: 
 269:../Libraries/STM32F4xx_StdPeriph_Driver/src/stm32f4xx_usart.c ****      Set the M bits according to USART_WordLength value 
 270:../Libraries/STM32F4xx_StdPeriph_Driver/src/stm32f4xx_usart.c ****      Set PCE and PS bits according to USART_Parity value
 271:../Libraries/STM32F4xx_StdPeriph_Driver/src/stm32f4xx_usart.c ****      Set TE and RE bits according to USART_Mode value */
 272:../Libraries/STM32F4xx_StdPeriph_Driver/src/stm32f4xx_usart.c ****   tmpreg |= (uint32_t)USART_InitStruct->USART_WordLength | USART_InitStruct->USART_Parity |
 273:../Libraries/STM32F4xx_StdPeriph_Driver/src/stm32f4xx_usart.c ****             USART_InitStruct->USART_Mode;
 274:../Libraries/STM32F4xx_StdPeriph_Driver/src/stm32f4xx_usart.c **** 
 275:../Libraries/STM32F4xx_StdPeriph_Driver/src/stm32f4xx_usart.c ****   /* Write to USART CR1 */
 276:../Libraries/STM32F4xx_StdPeriph_Driver/src/stm32f4xx_usart.c ****   USARTx->CR1 = (uint16_t)tmpreg;
 277:../Libraries/STM32F4xx_StdPeriph_Driver/src/stm32f4xx_usart.c **** 
 278:../Libraries/STM32F4xx_StdPeriph_Driver/src/stm32f4xx_usart.c **** /*---------------------------- USART CR3 Configuration -----------------------*/  
 279:../Libraries/STM32F4xx_StdPeriph_Driver/src/stm32f4xx_usart.c ****   tmpreg = USARTx->CR3;
 280:../Libraries/STM32F4xx_StdPeriph_Driver/src/stm32f4xx_usart.c **** 
 281:../Libraries/STM32F4xx_StdPeriph_Driver/src/stm32f4xx_usart.c ****   /* Clear CTSE and RTSE bits */
 282:../Libraries/STM32F4xx_StdPeriph_Driver/src/stm32f4xx_usart.c ****   tmpreg &= (uint32_t)~((uint32_t)CR3_CLEAR_MASK);
 283:../Libraries/STM32F4xx_StdPeriph_Driver/src/stm32f4xx_usart.c **** 
 284:../Libraries/STM32F4xx_StdPeriph_Driver/src/stm32f4xx_usart.c ****   /* Configure the USART HFC : 
 285:../Libraries/STM32F4xx_StdPeriph_Driver/src/stm32f4xx_usart.c ****       Set CTSE and RTSE bits according to USART_HardwareFlowControl value */
 286:../Libraries/STM32F4xx_StdPeriph_Driver/src/stm32f4xx_usart.c ****   tmpreg |= USART_InitStruct->USART_HardwareFlowControl;
 554              		.loc 1 286 29 discriminator 6 view .LVU108
 555 00dc A989     		ldrh	r1, [r5, #12]	@ _10, USART_InitStruct_64(D)->USART_HardwareFlowControl
 556              	.L17:
 250:../Libraries/STM32F4xx_StdPeriph_Driver/src/stm32f4xx_usart.c **** 
 557              		.loc 1 250 3 is_stmt 1 view .LVU109
 558              	@ ../Libraries/STM32F4xx_StdPeriph_Driver/src/stm32f4xx_usart.c:250:   tmpreg = USARTx->CR2;
 250:../Libraries/STM32F4xx_StdPeriph_Driver/src/stm32f4xx_usart.c **** 
 559              		.loc 1 250 18 is_stmt 0 view .LVU110
 560 00de 238A     		ldrh	r3, [r4, #16]	@, USARTx_61(D)->CR2
 561              	@ ../Libraries/STM32F4xx_StdPeriph_Driver/src/stm32f4xx_usart.c:257:   tmpreg |= (uint32_t)USART_In
 257:../Libraries/STM32F4xx_StdPeriph_Driver/src/stm32f4xx_usart.c ****   
 562              		.loc 1 257 13 view .LVU111
 563 00e0 EA88     		ldrh	r2, [r5, #6]	@ USART_InitStruct_64(D)->USART_StopBits, USART_InitStruct_64(D)->USART_StopBits
 564              	@ ../Libraries/STM32F4xx_StdPeriph_Driver/src/stm32f4xx_usart.c:272:   tmpreg |= (uint32_t)USART_In
 272:../Libraries/STM32F4xx_StdPeriph_Driver/src/stm32f4xx_usart.c ****             USART_InitStruct->USART_Mode;
 565              		.loc 1 272 91 view .LVU112
 566 00e2 2889     		ldrh	r0, [r5, #8]	@, USART_InitStruct_64(D)->USART_Parity
 567              	@ ../Libraries/STM32F4xx_StdPeriph_Driver/src/stm32f4xx_usart.c:250:   tmpreg = USARTx->CR2;
 250:../Libraries/STM32F4xx_StdPeriph_Driver/src/stm32f4xx_usart.c **** 
 568              		.loc 1 250 18 view .LVU113
 569 00e4 9BB2     		uxth	r3, r3	@ _11, USARTx_61(D)->CR2
 570              	.LVL43:
 253:../Libraries/STM32F4xx_StdPeriph_Driver/src/stm32f4xx_usart.c **** 
 571              		.loc 1 253 3 is_stmt 1 view .LVU114
 572              	@ ../Libraries/STM32F4xx_StdPeriph_Driver/src/stm32f4xx_usart.c:253:   tmpreg &= (uint32_t)~((uint3
 253:../Libraries/STM32F4xx_StdPeriph_Driver/src/stm32f4xx_usart.c **** 
 573              		.loc 1 253 10 is_stmt 0 view .LVU115
 574 00e6 23F44053 		bic	r3, r3, #12288	@ tmpreg, _11,
 575              	.LVL44:
ARM GAS  C:\Users\admin\AppData\Local\Temp\ccwrrJFc.s 			page 17


 257:../Libraries/STM32F4xx_StdPeriph_Driver/src/stm32f4xx_usart.c ****   
 576              		.loc 1 257 3 is_stmt 1 view .LVU116
 260:../Libraries/STM32F4xx_StdPeriph_Driver/src/stm32f4xx_usart.c **** 
 577              		.loc 1 260 3 view .LVU117
 578              	@ ../Libraries/STM32F4xx_StdPeriph_Driver/src/stm32f4xx_usart.c:260:   USARTx->CR2 = (uint16_t)tmpr
 260:../Libraries/STM32F4xx_StdPeriph_Driver/src/stm32f4xx_usart.c **** 
 579              		.loc 1 260 17 is_stmt 0 view .LVU118
 580 00ea 1343     		orrs	r3, r3, r2	@, _14, tmpreg, USART_InitStruct_64(D)->USART_StopBits
 581              	.LVL45:
 582              	@ ../Libraries/STM32F4xx_StdPeriph_Driver/src/stm32f4xx_usart.c:260:   USARTx->CR2 = (uint16_t)tmpr
 260:../Libraries/STM32F4xx_StdPeriph_Driver/src/stm32f4xx_usart.c **** 
 583              		.loc 1 260 15 view .LVU119
 584 00ec 2382     		strh	r3, [r4, #16]	@ movhi	@ _14, USARTx_61(D)->CR2
 263:../Libraries/STM32F4xx_StdPeriph_Driver/src/stm32f4xx_usart.c **** 
 585              		.loc 1 263 3 is_stmt 1 view .LVU120
 586              	@ ../Libraries/STM32F4xx_StdPeriph_Driver/src/stm32f4xx_usart.c:263:   tmpreg = USARTx->CR1;
 263:../Libraries/STM32F4xx_StdPeriph_Driver/src/stm32f4xx_usart.c **** 
 587              		.loc 1 263 18 is_stmt 0 view .LVU121
 588 00ee A289     		ldrh	r2, [r4, #12]	@, USARTx_61(D)->CR1
 589              	.LVL46:
 266:../Libraries/STM32F4xx_StdPeriph_Driver/src/stm32f4xx_usart.c **** 
 590              		.loc 1 266 3 is_stmt 1 view .LVU122
 591              	@ ../Libraries/STM32F4xx_StdPeriph_Driver/src/stm32f4xx_usart.c:272:   tmpreg |= (uint32_t)USART_In
 272:../Libraries/STM32F4xx_StdPeriph_Driver/src/stm32f4xx_usart.c ****             USART_InitStruct->USART_Mode;
 592              		.loc 1 272 91 is_stmt 0 view .LVU123
 593 00f0 AB88     		ldrh	r3, [r5, #4]	@, USART_InitStruct_64(D)->USART_WordLength
 594              	@ ../Libraries/STM32F4xx_StdPeriph_Driver/src/stm32f4xx_usart.c:266:   tmpreg &= (uint32_t)~((uint3
 266:../Libraries/STM32F4xx_StdPeriph_Driver/src/stm32f4xx_usart.c **** 
 595              		.loc 1 266 10 view .LVU124
 596 00f2 22F4B052 		bic	r2, r2, #5632	@ tmpreg, USARTx_61(D)->CR1,
 597              	.LVL47:
 598              	@ ../Libraries/STM32F4xx_StdPeriph_Driver/src/stm32f4xx_usart.c:272:   tmpreg |= (uint32_t)USART_In
 272:../Libraries/STM32F4xx_StdPeriph_Driver/src/stm32f4xx_usart.c ****             USART_InitStruct->USART_Mode;
 599              		.loc 1 272 91 view .LVU125
 600 00f6 0343     		orrs	r3, r3, r0	@, tmp247, USART_InitStruct_64(D)->USART_WordLength, USART_InitStruct_64(D)->USART
 601 00f8 6889     		ldrh	r0, [r5, #10]	@, USART_InitStruct_64(D)->USART_Mode
 602              	@ ../Libraries/STM32F4xx_StdPeriph_Driver/src/stm32f4xx_usart.c:266:   tmpreg &= (uint32_t)~((uint3
 266:../Libraries/STM32F4xx_StdPeriph_Driver/src/stm32f4xx_usart.c **** 
 603              		.loc 1 266 10 view .LVU126
 604 00fa 22F00C02 		bic	r2, r2, #12	@ tmpreg, tmpreg,
 605              	@ ../Libraries/STM32F4xx_StdPeriph_Driver/src/stm32f4xx_usart.c:272:   tmpreg |= (uint32_t)USART_In
 272:../Libraries/STM32F4xx_StdPeriph_Driver/src/stm32f4xx_usart.c ****             USART_InitStruct->USART_Mode;
 606              		.loc 1 272 91 view .LVU127
 607 00fe 0343     		orrs	r3, r3, r0	@, tmp250, tmp247, USART_InitStruct_64(D)->USART_Mode
 608              	@ ../Libraries/STM32F4xx_StdPeriph_Driver/src/stm32f4xx_usart.c:266:   tmpreg &= (uint32_t)~((uint3
 266:../Libraries/STM32F4xx_StdPeriph_Driver/src/stm32f4xx_usart.c **** 
 609              		.loc 1 266 10 view .LVU128
 610 0100 1204     		lsls	r2, r2, #16	@ tmpreg, tmpreg,
 611 0102 120C     		lsrs	r2, r2, #16	@ tmpreg, tmpreg,
 612              	.LVL48:
 272:../Libraries/STM32F4xx_StdPeriph_Driver/src/stm32f4xx_usart.c ****             USART_InitStruct->USART_Mode;
 613              		.loc 1 272 3 is_stmt 1 view .LVU129
 276:../Libraries/STM32F4xx_StdPeriph_Driver/src/stm32f4xx_usart.c **** 
 614              		.loc 1 276 3 view .LVU130
 615              	@ ../Libraries/STM32F4xx_StdPeriph_Driver/src/stm32f4xx_usart.c:272:   tmpreg |= (uint32_t)USART_In
 272:../Libraries/STM32F4xx_StdPeriph_Driver/src/stm32f4xx_usart.c ****             USART_InitStruct->USART_Mode;
 616              		.loc 1 272 91 is_stmt 0 view .LVU131
ARM GAS  C:\Users\admin\AppData\Local\Temp\ccwrrJFc.s 			page 18


 617 0104 9BB2     		uxth	r3, r3	@ tmp251, tmp250
 618              	@ ../Libraries/STM32F4xx_StdPeriph_Driver/src/stm32f4xx_usart.c:276:   USARTx->CR1 = (uint16_t)tmpr
 276:../Libraries/STM32F4xx_StdPeriph_Driver/src/stm32f4xx_usart.c **** 
 619              		.loc 1 276 17 view .LVU132
 620 0106 1343     		orrs	r3, r3, r2	@, _22, tmp251, tmpreg
 621              	@ ../Libraries/STM32F4xx_StdPeriph_Driver/src/stm32f4xx_usart.c:276:   USARTx->CR1 = (uint16_t)tmpr
 276:../Libraries/STM32F4xx_StdPeriph_Driver/src/stm32f4xx_usart.c **** 
 622              		.loc 1 276 15 view .LVU133
 623 0108 A381     		strh	r3, [r4, #12]	@ movhi	@ _22, USARTx_61(D)->CR1
 279:../Libraries/STM32F4xx_StdPeriph_Driver/src/stm32f4xx_usart.c **** 
 624              		.loc 1 279 3 is_stmt 1 view .LVU134
 625              	@ ../Libraries/STM32F4xx_StdPeriph_Driver/src/stm32f4xx_usart.c:279:   tmpreg = USARTx->CR3;
 279:../Libraries/STM32F4xx_StdPeriph_Driver/src/stm32f4xx_usart.c **** 
 626              		.loc 1 279 18 is_stmt 0 view .LVU135
 627 010a A38A     		ldrh	r3, [r4, #20]	@, USARTx_61(D)->CR3
 628 010c 9BB2     		uxth	r3, r3	@ _23, USARTx_61(D)->CR3
 629              	.LVL49:
 282:../Libraries/STM32F4xx_StdPeriph_Driver/src/stm32f4xx_usart.c **** 
 630              		.loc 1 282 3 is_stmt 1 view .LVU136
 631              	@ ../Libraries/STM32F4xx_StdPeriph_Driver/src/stm32f4xx_usart.c:282:   tmpreg &= (uint32_t)~((uint3
 282:../Libraries/STM32F4xx_StdPeriph_Driver/src/stm32f4xx_usart.c **** 
 632              		.loc 1 282 10 is_stmt 0 view .LVU137
 633 010e 23F44073 		bic	r3, r3, #768	@ tmpreg, _23,
 634              	.LVL50:
 635              		.loc 1 286 3 is_stmt 1 view .LVU138
 287:../Libraries/STM32F4xx_StdPeriph_Driver/src/stm32f4xx_usart.c **** 
 288:../Libraries/STM32F4xx_StdPeriph_Driver/src/stm32f4xx_usart.c ****   /* Write to USART CR3 */
 289:../Libraries/STM32F4xx_StdPeriph_Driver/src/stm32f4xx_usart.c ****   USARTx->CR3 = (uint16_t)tmpreg;
 636              		.loc 1 289 3 view .LVU139
 637              	@ ../Libraries/STM32F4xx_StdPeriph_Driver/src/stm32f4xx_usart.c:289:   USARTx->CR3 = (uint16_t)tmpr
 638              		.loc 1 289 17 is_stmt 0 view .LVU140
 639 0112 0B43     		orrs	r3, r3, r1	@, _26, tmpreg, _10
 640              	.LVL51:
 641              	@ ../Libraries/STM32F4xx_StdPeriph_Driver/src/stm32f4xx_usart.c:289:   USARTx->CR3 = (uint16_t)tmpr
 642              		.loc 1 289 15 view .LVU141
 643 0114 A382     		strh	r3, [r4, #20]	@ movhi	@ _26, USARTx_61(D)->CR3
 290:../Libraries/STM32F4xx_StdPeriph_Driver/src/stm32f4xx_usart.c **** 
 291:../Libraries/STM32F4xx_StdPeriph_Driver/src/stm32f4xx_usart.c **** /*---------------------------- USART BRR Configuration -----------------------*/
 292:../Libraries/STM32F4xx_StdPeriph_Driver/src/stm32f4xx_usart.c ****   /* Configure the USART Baud Rate */
 293:../Libraries/STM32F4xx_StdPeriph_Driver/src/stm32f4xx_usart.c ****   RCC_GetClocksFreq(&RCC_ClocksStatus);
 644              		.loc 1 293 3 is_stmt 1 view .LVU142
 645 0116 6846     		mov	r0, sp	@,
 646 0118 FFF7FEFF 		bl	RCC_GetClocksFreq		@
 647              	.LVL52:
 294:../Libraries/STM32F4xx_StdPeriph_Driver/src/stm32f4xx_usart.c **** 
 295:../Libraries/STM32F4xx_StdPeriph_Driver/src/stm32f4xx_usart.c ****   if ((USARTx == USART1) || (USARTx == USART6))
 648              		.loc 1 295 3 view .LVU143
 649              	@ ../Libraries/STM32F4xx_StdPeriph_Driver/src/stm32f4xx_usart.c:295:   if ((USARTx == USART1) || (U
 650              		.loc 1 295 6 is_stmt 0 view .LVU144
 651 011c 204B     		ldr	r3, .L41	@ tmp259,
 652 011e 9C42     		cmp	r4, r3	@ USARTx, tmp259
 653 0120 05D0     		beq	.L19		@,
 654              	@ ../Libraries/STM32F4xx_StdPeriph_Driver/src/stm32f4xx_usart.c:295:   if ((USARTx == USART1) || (U
 655              		.loc 1 295 26 discriminator 1 view .LVU145
 656 0122 03F58063 		add	r3, r3, #1024	@ tmp260, tmp260,
 657 0126 9C42     		cmp	r4, r3	@ USARTx, tmp260
 658 0128 01D0     		beq	.L19		@,
ARM GAS  C:\Users\admin\AppData\Local\Temp\ccwrrJFc.s 			page 19


 296:../Libraries/STM32F4xx_StdPeriph_Driver/src/stm32f4xx_usart.c ****   {
 297:../Libraries/STM32F4xx_StdPeriph_Driver/src/stm32f4xx_usart.c ****     apbclock = RCC_ClocksStatus.PCLK2_Frequency;
 298:../Libraries/STM32F4xx_StdPeriph_Driver/src/stm32f4xx_usart.c ****   }
 299:../Libraries/STM32F4xx_StdPeriph_Driver/src/stm32f4xx_usart.c ****   else
 300:../Libraries/STM32F4xx_StdPeriph_Driver/src/stm32f4xx_usart.c ****   {
 301:../Libraries/STM32F4xx_StdPeriph_Driver/src/stm32f4xx_usart.c ****     apbclock = RCC_ClocksStatus.PCLK1_Frequency;
 659              		.loc 1 301 5 is_stmt 1 view .LVU146
 660              	@ ../Libraries/STM32F4xx_StdPeriph_Driver/src/stm32f4xx_usart.c:301:     apbclock = RCC_ClocksStatu
 661              		.loc 1 301 14 is_stmt 0 view .LVU147
 662 012a 029A     		ldr	r2, [sp, #8]	@ apbclock, RCC_ClocksStatus.PCLK1_Frequency
 663              	.LVL53:
 664              		.loc 1 301 14 view .LVU148
 665 012c 00E0     		b	.L21		@
 666              	.LVL54:
 667              	.L19:
 297:../Libraries/STM32F4xx_StdPeriph_Driver/src/stm32f4xx_usart.c ****   }
 668              		.loc 1 297 5 is_stmt 1 view .LVU149
 669              	@ ../Libraries/STM32F4xx_StdPeriph_Driver/src/stm32f4xx_usart.c:297:     apbclock = RCC_ClocksStatu
 297:../Libraries/STM32F4xx_StdPeriph_Driver/src/stm32f4xx_usart.c ****   }
 670              		.loc 1 297 14 is_stmt 0 view .LVU150
 671 012e 039A     		ldr	r2, [sp, #12]	@ apbclock, RCC_ClocksStatus.PCLK2_Frequency
 672              	.LVL55:
 673              	.L21:
 302:../Libraries/STM32F4xx_StdPeriph_Driver/src/stm32f4xx_usart.c ****   }
 303:../Libraries/STM32F4xx_StdPeriph_Driver/src/stm32f4xx_usart.c ****   
 304:../Libraries/STM32F4xx_StdPeriph_Driver/src/stm32f4xx_usart.c ****   /* Determine the integer part */
 305:../Libraries/STM32F4xx_StdPeriph_Driver/src/stm32f4xx_usart.c ****   if ((USARTx->CR1 & USART_CR1_OVER8) != 0)
 674              		.loc 1 305 3 is_stmt 1 view .LVU151
 306:../Libraries/STM32F4xx_StdPeriph_Driver/src/stm32f4xx_usart.c ****   {
 307:../Libraries/STM32F4xx_StdPeriph_Driver/src/stm32f4xx_usart.c ****     /* Integer part computing in case Oversampling mode is 8 Samples */
 308:../Libraries/STM32F4xx_StdPeriph_Driver/src/stm32f4xx_usart.c ****     integerdivider = ((25 * apbclock) / (2 * (USART_InitStruct->USART_BaudRate)));    
 675              		.loc 1 308 5 view .LVU152
 309:../Libraries/STM32F4xx_StdPeriph_Driver/src/stm32f4xx_usart.c ****   }
 310:../Libraries/STM32F4xx_StdPeriph_Driver/src/stm32f4xx_usart.c ****   else /* if ((USARTx->CR1 & USART_CR1_OVER8) == 0) */
 311:../Libraries/STM32F4xx_StdPeriph_Driver/src/stm32f4xx_usart.c ****   {
 312:../Libraries/STM32F4xx_StdPeriph_Driver/src/stm32f4xx_usart.c ****     /* Integer part computing in case Oversampling mode is 16 Samples */
 313:../Libraries/STM32F4xx_StdPeriph_Driver/src/stm32f4xx_usart.c ****     integerdivider = ((25 * apbclock) / (4 * (USART_InitStruct->USART_BaudRate)));    
 676              		.loc 1 313 5 view .LVU153
 677              	@ ../Libraries/STM32F4xx_StdPeriph_Driver/src/stm32f4xx_usart.c:305:   if ((USARTx->CR1 & USART_CR1
 305:../Libraries/STM32F4xx_StdPeriph_Driver/src/stm32f4xx_usart.c ****   {
 678              		.loc 1 305 14 is_stmt 0 view .LVU154
 679 0130 A389     		ldrh	r3, [r4, #12]	@, USARTx_61(D)->CR1
 680              	@ ../Libraries/STM32F4xx_StdPeriph_Driver/src/stm32f4xx_usart.c:315:   tmpreg = (integerdivider / 1
 314:../Libraries/STM32F4xx_StdPeriph_Driver/src/stm32f4xx_usart.c ****   }
 315:../Libraries/STM32F4xx_StdPeriph_Driver/src/stm32f4xx_usart.c ****   tmpreg = (integerdivider / 100) << 4;
 681              		.loc 1 315 28 view .LVU155
 682 0132 1E48     		ldr	r0, .L41+12	@ tmp282,
 683              	@ ../Libraries/STM32F4xx_StdPeriph_Driver/src/stm32f4xx_usart.c:305:   if ((USARTx->CR1 & USART_CR1
 305:../Libraries/STM32F4xx_StdPeriph_Driver/src/stm32f4xx_usart.c ****   {
 684              		.loc 1 305 6 view .LVU156
 685 0134 13F4004F 		tst	r3, #32768	@ USARTx_61(D)->CR1,
 686              	@ ../Libraries/STM32F4xx_StdPeriph_Driver/src/stm32f4xx_usart.c:308:     integerdivider = ((25 * ap
 308:../Libraries/STM32F4xx_StdPeriph_Driver/src/stm32f4xx_usart.c ****   }
 687              		.loc 1 308 44 view .LVU157
 688 0138 2B68     		ldr	r3, [r5]	@ USART_InitStruct_64(D)->USART_BaudRate, USART_InitStruct_64(D)->USART_BaudRate
 689              	@ ../Libraries/STM32F4xx_StdPeriph_Driver/src/stm32f4xx_usart.c:321:   if ((USARTx->CR1 & USART_CR1
 316:../Libraries/STM32F4xx_StdPeriph_Driver/src/stm32f4xx_usart.c **** 
ARM GAS  C:\Users\admin\AppData\Local\Temp\ccwrrJFc.s 			page 20


 317:../Libraries/STM32F4xx_StdPeriph_Driver/src/stm32f4xx_usart.c ****   /* Determine the fractional part */
 318:../Libraries/STM32F4xx_StdPeriph_Driver/src/stm32f4xx_usart.c ****   fractionaldivider = integerdivider - (100 * (tmpreg >> 4));
 319:../Libraries/STM32F4xx_StdPeriph_Driver/src/stm32f4xx_usart.c **** 
 320:../Libraries/STM32F4xx_StdPeriph_Driver/src/stm32f4xx_usart.c ****   /* Implement the fractional part in the register */
 321:../Libraries/STM32F4xx_StdPeriph_Driver/src/stm32f4xx_usart.c ****   if ((USARTx->CR1 & USART_CR1_OVER8) != 0)
 690              		.loc 1 321 14 view .LVU158
 691 013a A589     		ldrh	r5, [r4, #12]	@, USARTx_61(D)->CR1
 692              	.LVL56:
 693              	@ ../Libraries/STM32F4xx_StdPeriph_Driver/src/stm32f4xx_usart.c:308:     integerdivider = ((25 * ap
 308:../Libraries/STM32F4xx_StdPeriph_Driver/src/stm32f4xx_usart.c ****   }
 694              		.loc 1 308 27 view .LVU159
 695 013c 02EB8202 		add	r2, r2, r2, lsl #2	@ tmp268, apbclock, apbclock,
 696              	.LVL57:
 308:../Libraries/STM32F4xx_StdPeriph_Driver/src/stm32f4xx_usart.c ****   }
 697              		.loc 1 308 27 view .LVU160
 698 0140 02EB8202 		add	r2, r2, r2, lsl #2	@ tmp270, tmp268, tmp268,
 699              	@ ../Libraries/STM32F4xx_StdPeriph_Driver/src/stm32f4xx_usart.c:308:     integerdivider = ((25 * ap
 308:../Libraries/STM32F4xx_StdPeriph_Driver/src/stm32f4xx_usart.c ****   }
 700              		.loc 1 308 44 view .LVU161
 701 0144 14BF     		ite	ne
 702 0146 5B00     		lslne	r3, r3, #1	@ tmp271, USART_InitStruct_64(D)->USART_BaudRate,
 703              	@ ../Libraries/STM32F4xx_StdPeriph_Driver/src/stm32f4xx_usart.c:313:     integerdivider = ((25 * ap
 313:../Libraries/STM32F4xx_StdPeriph_Driver/src/stm32f4xx_usart.c ****   }
 704              		.loc 1 313 44 view .LVU162
 705 0148 9B00     		lsleq	r3, r3, #2	@ tmp278, USART_InitStruct_64(D)->USART_BaudRate,
 706              	@ ../Libraries/STM32F4xx_StdPeriph_Driver/src/stm32f4xx_usart.c:313:     integerdivider = ((25 * ap
 313:../Libraries/STM32F4xx_StdPeriph_Driver/src/stm32f4xx_usart.c ****   }
 707              		.loc 1 313 20 view .LVU163
 708 014a B2FBF3F3 		udiv	r3, r2, r3	@ integerdivider, tmp277, tmp278
 709              	.LVL58:
 315:../Libraries/STM32F4xx_StdPeriph_Driver/src/stm32f4xx_usart.c **** 
 710              		.loc 1 315 3 is_stmt 1 view .LVU164
 711              	@ ../Libraries/STM32F4xx_StdPeriph_Driver/src/stm32f4xx_usart.c:315:   tmpreg = (integerdivider / 1
 315:../Libraries/STM32F4xx_StdPeriph_Driver/src/stm32f4xx_usart.c **** 
 712              		.loc 1 315 28 is_stmt 0 view .LVU165
 713 014e A0FB0321 		umull	r2, r1, r0, r3	@ tmp318, tmp281, tmp282, integerdivider
 714 0152 4909     		lsrs	r1, r1, #5	@ tmp280, tmp281,
 715 0154 4FF0640C 		mov	ip, #100	@ tmp286,
 716              	@ ../Libraries/STM32F4xx_StdPeriph_Driver/src/stm32f4xx_usart.c:315:   tmpreg = (integerdivider / 1
 315:../Libraries/STM32F4xx_StdPeriph_Driver/src/stm32f4xx_usart.c **** 
 717              		.loc 1 315 10 view .LVU166
 718 0158 0A01     		lsls	r2, r1, #4	@ tmpreg, tmp280,
 719              	.LVL59:
 318:../Libraries/STM32F4xx_StdPeriph_Driver/src/stm32f4xx_usart.c **** 
 720              		.loc 1 318 3 is_stmt 1 view .LVU167
 721 015a 0CFB1133 		mls	r3, ip, r1, r3	@ _95, tmp286, tmp280, integerdivider
 722              	.LVL60:
 723              		.loc 1 321 3 view .LVU168
 724              	@ ../Libraries/STM32F4xx_StdPeriph_Driver/src/stm32f4xx_usart.c:321:   if ((USARTx->CR1 & USART_CR1
 725              		.loc 1 321 6 is_stmt 0 view .LVU169
 726 015e 2904     		lsls	r1, r5, #16	@, USARTx_61(D)->CR1,
 727 0160 13D4     		bmi	.L40		@,
 322:../Libraries/STM32F4xx_StdPeriph_Driver/src/stm32f4xx_usart.c ****   {
 323:../Libraries/STM32F4xx_StdPeriph_Driver/src/stm32f4xx_usart.c ****     tmpreg |= ((((fractionaldivider * 8) + 50) / 100)) & ((uint8_t)0x07);
 324:../Libraries/STM32F4xx_StdPeriph_Driver/src/stm32f4xx_usart.c ****   }
 325:../Libraries/STM32F4xx_StdPeriph_Driver/src/stm32f4xx_usart.c ****   else /* if ((USARTx->CR1 & USART_CR1_OVER8) == 0) */
 326:../Libraries/STM32F4xx_StdPeriph_Driver/src/stm32f4xx_usart.c ****   {
ARM GAS  C:\Users\admin\AppData\Local\Temp\ccwrrJFc.s 			page 21


 327:../Libraries/STM32F4xx_StdPeriph_Driver/src/stm32f4xx_usart.c ****     tmpreg |= ((((fractionaldivider * 16) + 50) / 100)) & ((uint8_t)0x0F);
 728              		.loc 1 327 5 is_stmt 1 view .LVU170
 729              	@ ../Libraries/STM32F4xx_StdPeriph_Driver/src/stm32f4xx_usart.c:327:     tmpreg |= ((((fractionaldi
 730              		.loc 1 327 37 is_stmt 0 view .LVU171
 731 0162 1B01     		lsls	r3, r3, #4	@ tmp303, _95,
 732              	.LVL61:
 733              	@ ../Libraries/STM32F4xx_StdPeriph_Driver/src/stm32f4xx_usart.c:327:     tmpreg |= ((((fractionaldi
 734              		.loc 1 327 43 view .LVU172
 735 0164 3233     		adds	r3, r3, #50	@ tmp304, tmp303,
 736              	@ ../Libraries/STM32F4xx_StdPeriph_Driver/src/stm32f4xx_usart.c:327:     tmpreg |= ((((fractionaldi
 737              		.loc 1 327 49 view .LVU173
 738 0166 A0FB0313 		umull	r1, r3, r0, r3	@ tmp320, tmp306, tmp282, tmp304
 739              	@ ../Libraries/STM32F4xx_StdPeriph_Driver/src/stm32f4xx_usart.c:327:     tmpreg |= ((((fractionaldi
 740              		.loc 1 327 57 view .LVU174
 741 016a C3F34313 		ubfx	r3, r3, #5, #4	@ tmp313, tmp306,,
 742              	@ ../Libraries/STM32F4xx_StdPeriph_Driver/src/stm32f4xx_usart.c:327:     tmpreg |= ((((fractionaldi
 743              		.loc 1 327 12 view .LVU175
 744 016e 1343     		orrs	r3, r3, r2	@, tmpreg, tmp313, tmpreg
 745              	.LVL62:
 328:../Libraries/STM32F4xx_StdPeriph_Driver/src/stm32f4xx_usart.c ****   }
 329:../Libraries/STM32F4xx_StdPeriph_Driver/src/stm32f4xx_usart.c ****   
 330:../Libraries/STM32F4xx_StdPeriph_Driver/src/stm32f4xx_usart.c ****   /* Write to USART BRR register */
 331:../Libraries/STM32F4xx_StdPeriph_Driver/src/stm32f4xx_usart.c ****   USARTx->BRR = (uint16_t)tmpreg;
 746              		.loc 1 331 3 is_stmt 1 view .LVU176
 747              	@ ../Libraries/STM32F4xx_StdPeriph_Driver/src/stm32f4xx_usart.c:331:   USARTx->BRR = (uint16_t)tmpr
 748              		.loc 1 331 17 is_stmt 0 view .LVU177
 749 0170 9BB2     		uxth	r3, r3	@ _48, tmpreg
 750              	.LVL63:
 751              	@ ../Libraries/STM32F4xx_StdPeriph_Driver/src/stm32f4xx_usart.c:331:   USARTx->BRR = (uint16_t)tmpr
 752              		.loc 1 331 15 view .LVU178
 753 0172 2381     		strh	r3, [r4, #8]	@ movhi	@ _48, USARTx_61(D)->BRR
 754              	@ ../Libraries/STM32F4xx_StdPeriph_Driver/src/stm32f4xx_usart.c:332: }
 332:../Libraries/STM32F4xx_StdPeriph_Driver/src/stm32f4xx_usart.c **** }
 755              		.loc 1 332 1 view .LVU179
 756 0174 05B0     		add	sp, sp, #20	@,,
 757              		.cfi_remember_state
 758              		.cfi_def_cfa_offset 12
 759              		@ sp needed	@
 760 0176 30BD     		pop	{r4, r5, pc}	@
 761              	.LVL64:
 762              	.L32:
 763              		.cfi_restore_state
 764              	@ ../Libraries/STM32F4xx_StdPeriph_Driver/src/stm32f4xx_usart.c:240:   assert_param(IS_USART_MODE(U
 240:../Libraries/STM32F4xx_StdPeriph_Driver/src/stm32f4xx_usart.c ****   assert_param(IS_USART_HARDWARE_FLOW_CONTROL(USART_InitStruct->USART_HardwareFlowControl));
 765              		.loc 1 240 3 view .LVU180
 766 0178 0020     		movs	r0, #0	@ iftmp.5_56,
 767 017a 90E7     		b	.L16		@
 768              	.L31:
 769              	@ ../Libraries/STM32F4xx_StdPeriph_Driver/src/stm32f4xx_usart.c:239:   assert_param(IS_USART_PARITY
 239:../Libraries/STM32F4xx_StdPeriph_Driver/src/stm32f4xx_usart.c ****   assert_param(IS_USART_MODE(USART_InitStruct->USART_Mode));
 770              		.loc 1 239 3 view .LVU181
 771 017c 0120     		movs	r0, #1	@ iftmp.4_55,
 772 017e 84E7     		b	.L15		@
 773              	.L35:
 774              	@ ../Libraries/STM32F4xx_StdPeriph_Driver/src/stm32f4xx_usart.c:246:     assert_param(IS_USART_1236
 246:../Libraries/STM32F4xx_StdPeriph_Driver/src/stm32f4xx_usart.c ****   }
 775              		.loc 1 246 5 view .LVU182
ARM GAS  C:\Users\admin\AppData\Local\Temp\ccwrrJFc.s 			page 22


 776 0180 0120     		movs	r0, #1	@ iftmp.7_58,
 777 0182 FFF7FEFF 		bl	assert_param		@
 778              	.LVL65:
 779              	@ ../Libraries/STM32F4xx_StdPeriph_Driver/src/stm32f4xx_usart.c:286:   tmpreg |= USART_InitStruct->
 286:../Libraries/STM32F4xx_StdPeriph_Driver/src/stm32f4xx_usart.c **** 
 780              		.loc 1 286 29 view .LVU183
 781 0186 A989     		ldrh	r1, [r5, #12]	@ _10, USART_InitStruct_64(D)->USART_HardwareFlowControl
 782 0188 A9E7     		b	.L17		@
 783              	.LVL66:
 784              	.L40:
 323:../Libraries/STM32F4xx_StdPeriph_Driver/src/stm32f4xx_usart.c ****   }
 785              		.loc 1 323 5 is_stmt 1 view .LVU184
 786              	@ ../Libraries/STM32F4xx_StdPeriph_Driver/src/stm32f4xx_usart.c:323:     tmpreg |= ((((fractionaldi
 323:../Libraries/STM32F4xx_StdPeriph_Driver/src/stm32f4xx_usart.c ****   }
 787              		.loc 1 323 37 is_stmt 0 view .LVU185
 788 018a DB00     		lsls	r3, r3, #3	@ tmp292, _95,
 789              	.LVL67:
 790              	@ ../Libraries/STM32F4xx_StdPeriph_Driver/src/stm32f4xx_usart.c:323:     tmpreg |= ((((fractionaldi
 323:../Libraries/STM32F4xx_StdPeriph_Driver/src/stm32f4xx_usart.c ****   }
 791              		.loc 1 323 42 view .LVU186
 792 018c 3233     		adds	r3, r3, #50	@ tmp293, tmp292,
 793              	@ ../Libraries/STM32F4xx_StdPeriph_Driver/src/stm32f4xx_usart.c:323:     tmpreg |= ((((fractionaldi
 323:../Libraries/STM32F4xx_StdPeriph_Driver/src/stm32f4xx_usart.c ****   }
 794              		.loc 1 323 48 view .LVU187
 795 018e A0FB0313 		umull	r1, r3, r0, r3	@ tmp319, tmp295, tmp282, tmp293
 796              	@ ../Libraries/STM32F4xx_StdPeriph_Driver/src/stm32f4xx_usart.c:323:     tmpreg |= ((((fractionaldi
 323:../Libraries/STM32F4xx_StdPeriph_Driver/src/stm32f4xx_usart.c ****   }
 797              		.loc 1 323 56 view .LVU188
 798 0192 C3F34213 		ubfx	r3, r3, #5, #3	@ tmp302, tmp295,,
 799              	@ ../Libraries/STM32F4xx_StdPeriph_Driver/src/stm32f4xx_usart.c:323:     tmpreg |= ((((fractionaldi
 323:../Libraries/STM32F4xx_StdPeriph_Driver/src/stm32f4xx_usart.c ****   }
 800              		.loc 1 323 12 view .LVU189
 801 0196 1343     		orrs	r3, r3, r2	@, tmpreg, tmp302, tmpreg
 802              	.LVL68:
 331:../Libraries/STM32F4xx_StdPeriph_Driver/src/stm32f4xx_usart.c **** }
 803              		.loc 1 331 3 is_stmt 1 view .LVU190
 804              	@ ../Libraries/STM32F4xx_StdPeriph_Driver/src/stm32f4xx_usart.c:331:   USARTx->BRR = (uint16_t)tmpr
 331:../Libraries/STM32F4xx_StdPeriph_Driver/src/stm32f4xx_usart.c **** }
 805              		.loc 1 331 17 is_stmt 0 view .LVU191
 806 0198 9BB2     		uxth	r3, r3	@ _48, tmpreg
 807              	.LVL69:
 808              	@ ../Libraries/STM32F4xx_StdPeriph_Driver/src/stm32f4xx_usart.c:331:   USARTx->BRR = (uint16_t)tmpr
 331:../Libraries/STM32F4xx_StdPeriph_Driver/src/stm32f4xx_usart.c **** }
 809              		.loc 1 331 15 view .LVU192
 810 019a 2381     		strh	r3, [r4, #8]	@ movhi	@ _48, USARTx_61(D)->BRR
 811              	@ ../Libraries/STM32F4xx_StdPeriph_Driver/src/stm32f4xx_usart.c:332: }
 812              		.loc 1 332 1 view .LVU193
 813 019c 05B0     		add	sp, sp, #20	@,,
 814              		.cfi_def_cfa_offset 12
 815              		@ sp needed	@
 816 019e 30BD     		pop	{r4, r5, pc}	@
 817              	.LVL70:
 818              	.L42:
 819              		.loc 1 332 1 view .LVU194
 820              		.align	2
 821              	.L41:
 822 01a0 00100140 		.word	1073811456
ARM GAS  C:\Users\admin\AppData\Local\Temp\ccwrrJFc.s 			page 23


 823 01a4 00140140 		.word	1073812480
 824 01a8 DF707200 		.word	7499999
 825 01ac 1F85EB51 		.word	1374389535
 826              		.cfi_endproc
 827              	.LFE111:
 828              		.size	USART_Init, .-USART_Init
 829              		.section	.text.USART_StructInit,"ax",%progbits
 830              		.align	1
 831              		.p2align 2,,3
 832              		.global	USART_StructInit
 833              		.syntax unified
 834              		.thumb
 835              		.thumb_func
 836              		.type	USART_StructInit, %function
 837              	USART_StructInit:
 838              	.LVL71:
 839              	.LFB112:
 333:../Libraries/STM32F4xx_StdPeriph_Driver/src/stm32f4xx_usart.c **** 
 334:../Libraries/STM32F4xx_StdPeriph_Driver/src/stm32f4xx_usart.c **** /**
 335:../Libraries/STM32F4xx_StdPeriph_Driver/src/stm32f4xx_usart.c ****   * @brief  Fills each USART_InitStruct member with its default value.
 336:../Libraries/STM32F4xx_StdPeriph_Driver/src/stm32f4xx_usart.c ****   * @param  USART_InitStruct: pointer to a USART_InitTypeDef structure which will
 337:../Libraries/STM32F4xx_StdPeriph_Driver/src/stm32f4xx_usart.c ****   *         be initialized.
 338:../Libraries/STM32F4xx_StdPeriph_Driver/src/stm32f4xx_usart.c ****   * @retval None
 339:../Libraries/STM32F4xx_StdPeriph_Driver/src/stm32f4xx_usart.c ****   */
 340:../Libraries/STM32F4xx_StdPeriph_Driver/src/stm32f4xx_usart.c **** void USART_StructInit(USART_InitTypeDef* USART_InitStruct)
 341:../Libraries/STM32F4xx_StdPeriph_Driver/src/stm32f4xx_usart.c **** {
 840              		.loc 1 341 1 is_stmt 1 view -0
 841              		.cfi_startproc
 842              		@ args = 0, pretend = 0, frame = 0
 843              		@ frame_needed = 0, uses_anonymous_args = 0
 844              		@ link register save eliminated.
 342:../Libraries/STM32F4xx_StdPeriph_Driver/src/stm32f4xx_usart.c ****   /* USART_InitStruct members default value */
 343:../Libraries/STM32F4xx_StdPeriph_Driver/src/stm32f4xx_usart.c ****   USART_InitStruct->USART_BaudRate = 9600;
 845              		.loc 1 343 3 view .LVU196
 846              	@ ../Libraries/STM32F4xx_StdPeriph_Driver/src/stm32f4xx_usart.c:344:   USART_InitStruct->USART_Word
 344:../Libraries/STM32F4xx_StdPeriph_Driver/src/stm32f4xx_usart.c ****   USART_InitStruct->USART_WordLength = USART_WordLength_8b;
 847              		.loc 1 344 38 is_stmt 0 view .LVU197
 848 0000 0023     		movs	r3, #0	@ tmp115,
 849              	@ ../Libraries/STM32F4xx_StdPeriph_Driver/src/stm32f4xx_usart.c:343:   USART_InitStruct->USART_Baud
 343:../Libraries/STM32F4xx_StdPeriph_Driver/src/stm32f4xx_usart.c ****   USART_InitStruct->USART_WordLength = USART_WordLength_8b;
 850              		.loc 1 343 36 view .LVU198
 851 0002 4FF41651 		mov	r1, #9600	@ tmp114,
 852              	@ ../Libraries/STM32F4xx_StdPeriph_Driver/src/stm32f4xx_usart.c:344:   USART_InitStruct->USART_Word
 853              		.loc 1 344 38 view .LVU199
 854 0006 4FF44022 		mov	r2, #786432	@ tmp116,
 855 000a C0E90013 		strd	r1, r3, [r0]	@ tmp114, tmp115, USART_InitStruct
 856 000e 8260     		str	r2, [r0, #8]	@ tmp116, MEM <vector(2) short unsigned int> [(short unsigned int *)USART_InitStr
 345:../Libraries/STM32F4xx_StdPeriph_Driver/src/stm32f4xx_usart.c ****   USART_InitStruct->USART_StopBits = USART_StopBits_1;
 346:../Libraries/STM32F4xx_StdPeriph_Driver/src/stm32f4xx_usart.c ****   USART_InitStruct->USART_Parity = USART_Parity_No ;
 347:../Libraries/STM32F4xx_StdPeriph_Driver/src/stm32f4xx_usart.c ****   USART_InitStruct->USART_Mode = USART_Mode_Rx | USART_Mode_Tx;
 348:../Libraries/STM32F4xx_StdPeriph_Driver/src/stm32f4xx_usart.c ****   USART_InitStruct->USART_HardwareFlowControl = USART_HardwareFlowControl_None;  
 857              		.loc 1 348 3 is_stmt 1 view .LVU200
 858              	@ ../Libraries/STM32F4xx_StdPeriph_Driver/src/stm32f4xx_usart.c:348:   USART_InitStruct->USART_Hard
 859              		.loc 1 348 47 is_stmt 0 view .LVU201
 860 0010 8381     		strh	r3, [r0, #12]	@ movhi	@ tmp115, USART_InitStruct_2(D)->USART_HardwareFlowControl
 861              	@ ../Libraries/STM32F4xx_StdPeriph_Driver/src/stm32f4xx_usart.c:349: }
 349:../Libraries/STM32F4xx_StdPeriph_Driver/src/stm32f4xx_usart.c **** }
ARM GAS  C:\Users\admin\AppData\Local\Temp\ccwrrJFc.s 			page 24


 862              		.loc 1 349 1 view .LVU202
 863 0012 7047     		bx	lr	@
 864              		.cfi_endproc
 865              	.LFE112:
 866              		.size	USART_StructInit, .-USART_StructInit
 867              		.section	.text.USART_ClockInit,"ax",%progbits
 868              		.align	1
 869              		.p2align 2,,3
 870              		.global	USART_ClockInit
 871              		.syntax unified
 872              		.thumb
 873              		.thumb_func
 874              		.type	USART_ClockInit, %function
 875              	USART_ClockInit:
 876              	.LVL72:
 877              	.LFB113:
 350:../Libraries/STM32F4xx_StdPeriph_Driver/src/stm32f4xx_usart.c **** 
 351:../Libraries/STM32F4xx_StdPeriph_Driver/src/stm32f4xx_usart.c **** /**
 352:../Libraries/STM32F4xx_StdPeriph_Driver/src/stm32f4xx_usart.c ****   * @brief  Initializes the USARTx peripheral Clock according to the 
 353:../Libraries/STM32F4xx_StdPeriph_Driver/src/stm32f4xx_usart.c ****   *         specified parameters in the USART_ClockInitStruct .
 354:../Libraries/STM32F4xx_StdPeriph_Driver/src/stm32f4xx_usart.c ****   * @param  USARTx: where x can be 1, 2, 3 or 6 to select the USART peripheral.
 355:../Libraries/STM32F4xx_StdPeriph_Driver/src/stm32f4xx_usart.c ****   * @param  USART_ClockInitStruct: pointer to a USART_ClockInitTypeDef structure that
 356:../Libraries/STM32F4xx_StdPeriph_Driver/src/stm32f4xx_usart.c ****   *         contains the configuration information for the specified  USART peripheral.
 357:../Libraries/STM32F4xx_StdPeriph_Driver/src/stm32f4xx_usart.c ****   * @note   The Smart Card and Synchronous modes are not available for UART4 and UART5.    
 358:../Libraries/STM32F4xx_StdPeriph_Driver/src/stm32f4xx_usart.c ****   * @retval None
 359:../Libraries/STM32F4xx_StdPeriph_Driver/src/stm32f4xx_usart.c ****   */
 360:../Libraries/STM32F4xx_StdPeriph_Driver/src/stm32f4xx_usart.c **** void USART_ClockInit(USART_TypeDef* USARTx, USART_ClockInitTypeDef* USART_ClockInitStruct)
 361:../Libraries/STM32F4xx_StdPeriph_Driver/src/stm32f4xx_usart.c **** {
 878              		.loc 1 361 1 is_stmt 1 view -0
 879              		.cfi_startproc
 880              		@ args = 0, pretend = 0, frame = 0
 881              		@ frame_needed = 0, uses_anonymous_args = 0
 362:../Libraries/STM32F4xx_StdPeriph_Driver/src/stm32f4xx_usart.c ****   uint32_t tmpreg = 0x00;
 882              		.loc 1 362 3 view .LVU204
 363:../Libraries/STM32F4xx_StdPeriph_Driver/src/stm32f4xx_usart.c ****   /* Check the parameters */
 364:../Libraries/STM32F4xx_StdPeriph_Driver/src/stm32f4xx_usart.c ****   assert_param(IS_USART_1236_PERIPH(USARTx));
 883              		.loc 1 364 3 view .LVU205
 884              	@ ../Libraries/STM32F4xx_StdPeriph_Driver/src/stm32f4xx_usart.c:361: {
 361:../Libraries/STM32F4xx_StdPeriph_Driver/src/stm32f4xx_usart.c ****   uint32_t tmpreg = 0x00;
 885              		.loc 1 361 1 is_stmt 0 view .LVU206
 886 0000 38B5     		push	{r3, r4, r5, lr}	@
 887              		.cfi_def_cfa_offset 16
 888              		.cfi_offset 3, -16
 889              		.cfi_offset 4, -12
 890              		.cfi_offset 5, -8
 891              		.cfi_offset 14, -4
 892              	@ ../Libraries/STM32F4xx_StdPeriph_Driver/src/stm32f4xx_usart.c:364:   assert_param(IS_USART_1236_P
 893              		.loc 1 364 3 view .LVU207
 894 0002 244B     		ldr	r3, .L50	@ tmp146,
 895 0004 9842     		cmp	r0, r3	@ USARTx, tmp146
 896              	@ ../Libraries/STM32F4xx_StdPeriph_Driver/src/stm32f4xx_usart.c:361: {
 361:../Libraries/STM32F4xx_StdPeriph_Driver/src/stm32f4xx_usart.c ****   uint32_t tmpreg = 0x00;
 897              		.loc 1 361 1 view .LVU208
 898 0006 0546     		mov	r5, r0	@ USARTx, tmp186
 899 0008 0C46     		mov	r4, r1	@ USART_ClockInitStruct, tmp187
 900              	@ ../Libraries/STM32F4xx_StdPeriph_Driver/src/stm32f4xx_usart.c:364:   assert_param(IS_USART_1236_P
 901              		.loc 1 364 3 view .LVU209
ARM GAS  C:\Users\admin\AppData\Local\Temp\ccwrrJFc.s 			page 25


 902 000a 0DD0     		beq	.L48		@,
 903              	@ ../Libraries/STM32F4xx_StdPeriph_Driver/src/stm32f4xx_usart.c:364:   assert_param(IS_USART_1236_P
 904              		.loc 1 364 16 discriminator 2 view .LVU210
 905 000c A3F54C43 		sub	r3, r3, #52224	@ tmp147, tmp147,
 906 0010 9842     		cmp	r0, r3	@ USARTx, tmp147
 907 0012 09D0     		beq	.L48		@,
 908              	@ ../Libraries/STM32F4xx_StdPeriph_Driver/src/stm32f4xx_usart.c:364:   assert_param(IS_USART_1236_P
 909              		.loc 1 364 16 discriminator 4 view .LVU211
 910 0014 03F58063 		add	r3, r3, #1024	@ tmp148, tmp148,
 911 0018 9842     		cmp	r0, r3	@ USARTx, tmp148
 912 001a 05D0     		beq	.L48		@,
 913              	@ ../Libraries/STM32F4xx_StdPeriph_Driver/src/stm32f4xx_usart.c:364:   assert_param(IS_USART_1236_P
 914              		.loc 1 364 3 discriminator 6 view .LVU212
 915 001c 1E48     		ldr	r0, .L50+4	@ tmp151,
 916              	.LVL73:
 917              		.loc 1 364 3 discriminator 6 view .LVU213
 918 001e 281A     		subs	r0, r5, r0	@ iftmp.8_15, USARTx, tmp151
 919 0020 B0FA80F0 		clz	r0, r0	@ iftmp.8_15, iftmp.8_15
 920 0024 4009     		lsrs	r0, r0, #5	@ iftmp.8_15, iftmp.8_15,
 921 0026 00E0     		b	.L45		@
 922              	.LVL74:
 923              	.L48:
 924              	@ ../Libraries/STM32F4xx_StdPeriph_Driver/src/stm32f4xx_usart.c:364:   assert_param(IS_USART_1236_P
 925              		.loc 1 364 3 view .LVU214
 926 0028 0120     		movs	r0, #1	@ iftmp.8_15,
 927              	.LVL75:
 928              	.L45:
 929              	@ ../Libraries/STM32F4xx_StdPeriph_Driver/src/stm32f4xx_usart.c:364:   assert_param(IS_USART_1236_P
 930              		.loc 1 364 3 discriminator 10 view .LVU215
 931 002a FFF7FEFF 		bl	assert_param		@
 932              	.LVL76:
 365:../Libraries/STM32F4xx_StdPeriph_Driver/src/stm32f4xx_usart.c ****   assert_param(IS_USART_CLOCK(USART_ClockInitStruct->USART_Clock));
 933              		.loc 1 365 3 is_stmt 1 discriminator 10 view .LVU216
 934 002e 2088     		ldrh	r0, [r4]	@, USART_ClockInitStruct_23(D)->USART_Clock
 935 0030 20F40060 		bic	r0, r0, #2048	@ tmp153, USART_ClockInitStruct_23(D)->USART_Clock,
 936 0034 80B2     		uxth	r0, r0	@ tmp155, tmp153
 937 0036 B0FA80F0 		clz	r0, r0	@, tmp155
 938 003a 4009     		lsrs	r0, r0, #5	@,,
 939 003c FFF7FEFF 		bl	assert_param		@
 940              	.LVL77:
 366:../Libraries/STM32F4xx_StdPeriph_Driver/src/stm32f4xx_usart.c ****   assert_param(IS_USART_CPOL(USART_ClockInitStruct->USART_CPOL));
 941              		.loc 1 366 3 discriminator 10 view .LVU217
 942 0040 6088     		ldrh	r0, [r4, #2]	@, USART_ClockInitStruct_23(D)->USART_CPOL
 943 0042 20F48060 		bic	r0, r0, #1024	@ tmp158, USART_ClockInitStruct_23(D)->USART_CPOL,
 944 0046 80B2     		uxth	r0, r0	@ tmp160, tmp158
 945 0048 B0FA80F0 		clz	r0, r0	@, tmp160
 946 004c 4009     		lsrs	r0, r0, #5	@,,
 947 004e FFF7FEFF 		bl	assert_param		@
 948              	.LVL78:
 367:../Libraries/STM32F4xx_StdPeriph_Driver/src/stm32f4xx_usart.c ****   assert_param(IS_USART_CPHA(USART_ClockInitStruct->USART_CPHA));
 949              		.loc 1 367 3 discriminator 10 view .LVU218
 950 0052 A088     		ldrh	r0, [r4, #4]	@, USART_ClockInitStruct_23(D)->USART_CPHA
 951 0054 20F40070 		bic	r0, r0, #512	@ tmp163, USART_ClockInitStruct_23(D)->USART_CPHA,
 952 0058 80B2     		uxth	r0, r0	@ tmp165, tmp163
 953 005a B0FA80F0 		clz	r0, r0	@, tmp165
 954 005e 4009     		lsrs	r0, r0, #5	@,,
 955 0060 FFF7FEFF 		bl	assert_param		@
ARM GAS  C:\Users\admin\AppData\Local\Temp\ccwrrJFc.s 			page 26


 956              	.LVL79:
 368:../Libraries/STM32F4xx_StdPeriph_Driver/src/stm32f4xx_usart.c ****   assert_param(IS_USART_LASTBIT(USART_ClockInitStruct->USART_LastBit));
 957              		.loc 1 368 3 discriminator 10 view .LVU219
 958 0064 E088     		ldrh	r0, [r4, #6]	@, USART_ClockInitStruct_23(D)->USART_LastBit
 959 0066 20F48070 		bic	r0, r0, #256	@ tmp168, USART_ClockInitStruct_23(D)->USART_LastBit,
 960 006a 80B2     		uxth	r0, r0	@ tmp170, tmp168
 961 006c B0FA80F0 		clz	r0, r0	@, tmp170
 962 0070 4009     		lsrs	r0, r0, #5	@,,
 963 0072 FFF7FEFF 		bl	assert_param		@
 964              	.LVL80:
 369:../Libraries/STM32F4xx_StdPeriph_Driver/src/stm32f4xx_usart.c ****   
 370:../Libraries/STM32F4xx_StdPeriph_Driver/src/stm32f4xx_usart.c **** /*---------------------------- USART CR2 Configuration -----------------------*/
 371:../Libraries/STM32F4xx_StdPeriph_Driver/src/stm32f4xx_usart.c ****   tmpreg = USARTx->CR2;
 965              		.loc 1 371 3 discriminator 10 view .LVU220
 966              	@ ../Libraries/STM32F4xx_StdPeriph_Driver/src/stm32f4xx_usart.c:380:                  USART_ClockIn
 372:../Libraries/STM32F4xx_StdPeriph_Driver/src/stm32f4xx_usart.c ****   /* Clear CLKEN, CPOL, CPHA and LBCL bits */
 373:../Libraries/STM32F4xx_StdPeriph_Driver/src/stm32f4xx_usart.c ****   tmpreg &= (uint32_t)~((uint32_t)CR2_CLOCK_CLEAR_MASK);
 374:../Libraries/STM32F4xx_StdPeriph_Driver/src/stm32f4xx_usart.c ****   /* Configure the USART Clock, CPOL, CPHA and LastBit ------------*/
 375:../Libraries/STM32F4xx_StdPeriph_Driver/src/stm32f4xx_usart.c ****   /* Set CLKEN bit according to USART_Clock value */
 376:../Libraries/STM32F4xx_StdPeriph_Driver/src/stm32f4xx_usart.c ****   /* Set CPOL bit according to USART_CPOL value */
 377:../Libraries/STM32F4xx_StdPeriph_Driver/src/stm32f4xx_usart.c ****   /* Set CPHA bit according to USART_CPHA value */
 378:../Libraries/STM32F4xx_StdPeriph_Driver/src/stm32f4xx_usart.c ****   /* Set LBCL bit according to USART_LastBit value */
 379:../Libraries/STM32F4xx_StdPeriph_Driver/src/stm32f4xx_usart.c ****   tmpreg |= (uint32_t)USART_ClockInitStruct->USART_Clock | USART_ClockInitStruct->USART_CPOL | 
 380:../Libraries/STM32F4xx_StdPeriph_Driver/src/stm32f4xx_usart.c ****                  USART_ClockInitStruct->USART_CPHA | USART_ClockInitStruct->USART_LastBit;
 967              		.loc 1 380 52 is_stmt 0 discriminator 10 view .LVU221
 968 0076 6188     		ldrh	r1, [r4, #2]	@, USART_ClockInitStruct_23(D)->USART_CPOL
 969 0078 2388     		ldrh	r3, [r4]	@, USART_ClockInitStruct_23(D)->USART_Clock
 970 007a A088     		ldrh	r0, [r4, #4]	@, USART_ClockInitStruct_23(D)->USART_CPHA
 971              	@ ../Libraries/STM32F4xx_StdPeriph_Driver/src/stm32f4xx_usart.c:371:   tmpreg = USARTx->CR2;
 371:../Libraries/STM32F4xx_StdPeriph_Driver/src/stm32f4xx_usart.c ****   /* Clear CLKEN, CPOL, CPHA and LBCL bits */
 972              		.loc 1 371 18 discriminator 10 view .LVU222
 973 007c 2A8A     		ldrh	r2, [r5, #16]	@, USARTx_20(D)->CR2
 974              	@ ../Libraries/STM32F4xx_StdPeriph_Driver/src/stm32f4xx_usart.c:380:                  USART_ClockIn
 975              		.loc 1 380 52 discriminator 10 view .LVU223
 976 007e 0B43     		orrs	r3, r3, r1	@, tmp176, USART_ClockInitStruct_23(D)->USART_Clock, USART_ClockInitStruct_23(D)->
 977 0080 E188     		ldrh	r1, [r4, #6]	@, USART_ClockInitStruct_23(D)->USART_LastBit
 978 0082 0343     		orrs	r3, r3, r0	@, tmp179, tmp176, USART_ClockInitStruct_23(D)->USART_CPHA
 979              	@ ../Libraries/STM32F4xx_StdPeriph_Driver/src/stm32f4xx_usart.c:371:   tmpreg = USARTx->CR2;
 371:../Libraries/STM32F4xx_StdPeriph_Driver/src/stm32f4xx_usart.c ****   /* Clear CLKEN, CPOL, CPHA and LBCL bits */
 980              		.loc 1 371 18 discriminator 10 view .LVU224
 981 0084 92B2     		uxth	r2, r2	@ _5, USARTx_20(D)->CR2
 982              	.LVL81:
 373:../Libraries/STM32F4xx_StdPeriph_Driver/src/stm32f4xx_usart.c ****   /* Configure the USART Clock, CPOL, CPHA and LastBit ------------*/
 983              		.loc 1 373 3 is_stmt 1 discriminator 10 view .LVU225
 984              	@ ../Libraries/STM32F4xx_StdPeriph_Driver/src/stm32f4xx_usart.c:380:                  USART_ClockIn
 985              		.loc 1 380 52 is_stmt 0 discriminator 10 view .LVU226
 986 0086 0B43     		orrs	r3, r3, r1	@, tmp182, tmp179, USART_ClockInitStruct_23(D)->USART_LastBit
 987              	@ ../Libraries/STM32F4xx_StdPeriph_Driver/src/stm32f4xx_usart.c:373:   tmpreg &= (uint32_t)~((uint3
 373:../Libraries/STM32F4xx_StdPeriph_Driver/src/stm32f4xx_usart.c ****   /* Configure the USART Clock, CPOL, CPHA and LastBit ------------*/
 988              		.loc 1 373 10 discriminator 10 view .LVU227
 989 0088 22F47062 		bic	r2, r2, #3840	@ tmpreg, _5,
 990              	.LVL82:
 379:../Libraries/STM32F4xx_StdPeriph_Driver/src/stm32f4xx_usart.c ****                  USART_ClockInitStruct->USART_CPHA | USART_ClockInitStruct->USART_LastBit;
 991              		.loc 1 379 3 is_stmt 1 discriminator 10 view .LVU228
 381:../Libraries/STM32F4xx_StdPeriph_Driver/src/stm32f4xx_usart.c ****   /* Write to USART CR2 */
 382:../Libraries/STM32F4xx_StdPeriph_Driver/src/stm32f4xx_usart.c ****   USARTx->CR2 = (uint16_t)tmpreg;
 992              		.loc 1 382 3 discriminator 10 view .LVU229
ARM GAS  C:\Users\admin\AppData\Local\Temp\ccwrrJFc.s 			page 27


 993              	@ ../Libraries/STM32F4xx_StdPeriph_Driver/src/stm32f4xx_usart.c:380:                  USART_ClockIn
 380:../Libraries/STM32F4xx_StdPeriph_Driver/src/stm32f4xx_usart.c ****   /* Write to USART CR2 */
 994              		.loc 1 380 52 is_stmt 0 discriminator 10 view .LVU230
 995 008c 9BB2     		uxth	r3, r3	@ tmp183, tmp182
 996              	@ ../Libraries/STM32F4xx_StdPeriph_Driver/src/stm32f4xx_usart.c:382:   USARTx->CR2 = (uint16_t)tmpr
 997              		.loc 1 382 17 discriminator 10 view .LVU231
 998 008e 1343     		orrs	r3, r3, r2	@, _14, tmp183, tmpreg
 999              	@ ../Libraries/STM32F4xx_StdPeriph_Driver/src/stm32f4xx_usart.c:382:   USARTx->CR2 = (uint16_t)tmpr
 1000              		.loc 1 382 15 discriminator 10 view .LVU232
 1001 0090 2B82     		strh	r3, [r5, #16]	@ movhi	@ _14, USARTx_20(D)->CR2
 1002              	@ ../Libraries/STM32F4xx_StdPeriph_Driver/src/stm32f4xx_usart.c:383: }
 383:../Libraries/STM32F4xx_StdPeriph_Driver/src/stm32f4xx_usart.c **** }
 1003              		.loc 1 383 1 discriminator 10 view .LVU233
 1004 0092 38BD     		pop	{r3, r4, r5, pc}	@
 1005              	.LVL83:
 1006              	.L51:
 1007              		.loc 1 383 1 discriminator 10 view .LVU234
 1008              		.align	2
 1009              	.L50:
 1010 0094 00100140 		.word	1073811456
 1011 0098 00140140 		.word	1073812480
 1012              		.cfi_endproc
 1013              	.LFE113:
 1014              		.size	USART_ClockInit, .-USART_ClockInit
 1015              		.section	.text.USART_ClockStructInit,"ax",%progbits
 1016              		.align	1
 1017              		.p2align 2,,3
 1018              		.global	USART_ClockStructInit
 1019              		.syntax unified
 1020              		.thumb
 1021              		.thumb_func
 1022              		.type	USART_ClockStructInit, %function
 1023              	USART_ClockStructInit:
 1024              	.LVL84:
 1025              	.LFB114:
 384:../Libraries/STM32F4xx_StdPeriph_Driver/src/stm32f4xx_usart.c **** 
 385:../Libraries/STM32F4xx_StdPeriph_Driver/src/stm32f4xx_usart.c **** /**
 386:../Libraries/STM32F4xx_StdPeriph_Driver/src/stm32f4xx_usart.c ****   * @brief  Fills each USART_ClockInitStruct member with its default value.
 387:../Libraries/STM32F4xx_StdPeriph_Driver/src/stm32f4xx_usart.c ****   * @param  USART_ClockInitStruct: pointer to a USART_ClockInitTypeDef structure
 388:../Libraries/STM32F4xx_StdPeriph_Driver/src/stm32f4xx_usart.c ****   *         which will be initialized.
 389:../Libraries/STM32F4xx_StdPeriph_Driver/src/stm32f4xx_usart.c ****   * @retval None
 390:../Libraries/STM32F4xx_StdPeriph_Driver/src/stm32f4xx_usart.c ****   */
 391:../Libraries/STM32F4xx_StdPeriph_Driver/src/stm32f4xx_usart.c **** void USART_ClockStructInit(USART_ClockInitTypeDef* USART_ClockInitStruct)
 392:../Libraries/STM32F4xx_StdPeriph_Driver/src/stm32f4xx_usart.c **** {
 1026              		.loc 1 392 1 is_stmt 1 view -0
 1027              		.cfi_startproc
 1028              		@ args = 0, pretend = 0, frame = 0
 1029              		@ frame_needed = 0, uses_anonymous_args = 0
 1030              		@ link register save eliminated.
 393:../Libraries/STM32F4xx_StdPeriph_Driver/src/stm32f4xx_usart.c ****   /* USART_ClockInitStruct members default value */
 394:../Libraries/STM32F4xx_StdPeriph_Driver/src/stm32f4xx_usart.c ****   USART_ClockInitStruct->USART_Clock = USART_Clock_Disable;
 1031              		.loc 1 394 3 view .LVU236
 395:../Libraries/STM32F4xx_StdPeriph_Driver/src/stm32f4xx_usart.c ****   USART_ClockInitStruct->USART_CPOL = USART_CPOL_Low;
 1032              		.loc 1 395 3 view .LVU237
 396:../Libraries/STM32F4xx_StdPeriph_Driver/src/stm32f4xx_usart.c ****   USART_ClockInitStruct->USART_CPHA = USART_CPHA_1Edge;
 1033              		.loc 1 396 3 view .LVU238
 397:../Libraries/STM32F4xx_StdPeriph_Driver/src/stm32f4xx_usart.c ****   USART_ClockInitStruct->USART_LastBit = USART_LastBit_Disable;
ARM GAS  C:\Users\admin\AppData\Local\Temp\ccwrrJFc.s 			page 28


 1034              		.loc 1 397 3 view .LVU239
 1035              	@ ../Libraries/STM32F4xx_StdPeriph_Driver/src/stm32f4xx_usart.c:394:   USART_ClockInitStruct->USART
 394:../Libraries/STM32F4xx_StdPeriph_Driver/src/stm32f4xx_usart.c ****   USART_ClockInitStruct->USART_CPOL = USART_CPOL_Low;
 1036              		.loc 1 394 38 is_stmt 0 view .LVU240
 1037 0000 0023     		movs	r3, #0	@ tmp114,
 1038 0002 0360     		str	r3, [r0]	@ unaligned	@ tmp114, MEM <vector(2) short unsigned int> [(short unsigned int *)USART
 1039 0004 4360     		str	r3, [r0, #4]	@ unaligned	@ tmp114, MEM <vector(2) short unsigned int> [(short unsigned int *)U
 1040              	@ ../Libraries/STM32F4xx_StdPeriph_Driver/src/stm32f4xx_usart.c:398: }
 398:../Libraries/STM32F4xx_StdPeriph_Driver/src/stm32f4xx_usart.c **** }
 1041              		.loc 1 398 1 view .LVU241
 1042 0006 7047     		bx	lr	@
 1043              		.cfi_endproc
 1044              	.LFE114:
 1045              		.size	USART_ClockStructInit, .-USART_ClockStructInit
 1046              		.section	.text.USART_Cmd,"ax",%progbits
 1047              		.align	1
 1048              		.p2align 2,,3
 1049              		.global	USART_Cmd
 1050              		.syntax unified
 1051              		.thumb
 1052              		.thumb_func
 1053              		.type	USART_Cmd, %function
 1054              	USART_Cmd:
 1055              	.LVL85:
 1056              	.LFB115:
 399:../Libraries/STM32F4xx_StdPeriph_Driver/src/stm32f4xx_usart.c **** 
 400:../Libraries/STM32F4xx_StdPeriph_Driver/src/stm32f4xx_usart.c **** /**
 401:../Libraries/STM32F4xx_StdPeriph_Driver/src/stm32f4xx_usart.c ****   * @brief  Enables or disables the specified USART peripheral.
 402:../Libraries/STM32F4xx_StdPeriph_Driver/src/stm32f4xx_usart.c ****   * @param  USARTx: where x can be 1, 2, 3, 4, 5 or 6 to select the USART or 
 403:../Libraries/STM32F4xx_StdPeriph_Driver/src/stm32f4xx_usart.c ****   *         UART peripheral.
 404:../Libraries/STM32F4xx_StdPeriph_Driver/src/stm32f4xx_usart.c ****   * @param  NewState: new state of the USARTx peripheral.
 405:../Libraries/STM32F4xx_StdPeriph_Driver/src/stm32f4xx_usart.c ****   *          This parameter can be: ENABLE or DISABLE.
 406:../Libraries/STM32F4xx_StdPeriph_Driver/src/stm32f4xx_usart.c ****   * @retval None
 407:../Libraries/STM32F4xx_StdPeriph_Driver/src/stm32f4xx_usart.c ****   */
 408:../Libraries/STM32F4xx_StdPeriph_Driver/src/stm32f4xx_usart.c **** void USART_Cmd(USART_TypeDef* USARTx, FunctionalState NewState)
 409:../Libraries/STM32F4xx_StdPeriph_Driver/src/stm32f4xx_usart.c **** {
 1057              		.loc 1 409 1 is_stmt 1 view -0
 1058              		.cfi_startproc
 1059              		@ args = 0, pretend = 0, frame = 0
 1060              		@ frame_needed = 0, uses_anonymous_args = 0
 410:../Libraries/STM32F4xx_StdPeriph_Driver/src/stm32f4xx_usart.c ****   /* Check the parameters */
 411:../Libraries/STM32F4xx_StdPeriph_Driver/src/stm32f4xx_usart.c ****   assert_param(IS_USART_ALL_PERIPH(USARTx));
 1061              		.loc 1 411 3 view .LVU243
 1062              	@ ../Libraries/STM32F4xx_StdPeriph_Driver/src/stm32f4xx_usart.c:409: {
 409:../Libraries/STM32F4xx_StdPeriph_Driver/src/stm32f4xx_usart.c ****   /* Check the parameters */
 1063              		.loc 1 409 1 is_stmt 0 view .LVU244
 1064 0000 38B5     		push	{r3, r4, r5, lr}	@
 1065              		.cfi_def_cfa_offset 16
 1066              		.cfi_offset 3, -16
 1067              		.cfi_offset 4, -12
 1068              		.cfi_offset 5, -8
 1069              		.cfi_offset 14, -4
 1070              	@ ../Libraries/STM32F4xx_StdPeriph_Driver/src/stm32f4xx_usart.c:411:   assert_param(IS_USART_ALL_PE
 1071              		.loc 1 411 3 view .LVU245
 1072 0002 184B     		ldr	r3, .L63	@ tmp123,
 1073 0004 9842     		cmp	r0, r3	@ USARTx, tmp123
 1074              	@ ../Libraries/STM32F4xx_StdPeriph_Driver/src/stm32f4xx_usart.c:409: {
ARM GAS  C:\Users\admin\AppData\Local\Temp\ccwrrJFc.s 			page 29


 409:../Libraries/STM32F4xx_StdPeriph_Driver/src/stm32f4xx_usart.c ****   /* Check the parameters */
 1075              		.loc 1 409 1 view .LVU246
 1076 0006 0446     		mov	r4, r0	@ USARTx, tmp143
 1077 0008 0D46     		mov	r5, r1	@ NewState, tmp144
 1078              	@ ../Libraries/STM32F4xx_StdPeriph_Driver/src/stm32f4xx_usart.c:411:   assert_param(IS_USART_ALL_PE
 1079              		.loc 1 411 3 view .LVU247
 1080 000a 15D0     		beq	.L61		@,
 1081              	@ ../Libraries/STM32F4xx_StdPeriph_Driver/src/stm32f4xx_usart.c:411:   assert_param(IS_USART_ALL_PE
 1082              		.loc 1 411 16 discriminator 2 view .LVU248
 1083 000c A3F54C43 		sub	r3, r3, #52224	@ tmp124, tmp124,
 1084 0010 9842     		cmp	r0, r3	@ USARTx, tmp124
 1085 0012 11D0     		beq	.L61		@,
 1086              	@ ../Libraries/STM32F4xx_StdPeriph_Driver/src/stm32f4xx_usart.c:411:   assert_param(IS_USART_ALL_PE
 1087              		.loc 1 411 16 discriminator 4 view .LVU249
 1088 0014 03F58063 		add	r3, r3, #1024	@ tmp125, tmp125,
 1089 0018 9842     		cmp	r0, r3	@ USARTx, tmp125
 1090 001a 0DD0     		beq	.L61		@,
 1091              	@ ../Libraries/STM32F4xx_StdPeriph_Driver/src/stm32f4xx_usart.c:411:   assert_param(IS_USART_ALL_PE
 1092              		.loc 1 411 16 discriminator 6 view .LVU250
 1093 001c 03F58063 		add	r3, r3, #1024	@ tmp126, tmp126,
 1094 0020 9842     		cmp	r0, r3	@ USARTx, tmp126
 1095 0022 09D0     		beq	.L61		@,
 1096              	@ ../Libraries/STM32F4xx_StdPeriph_Driver/src/stm32f4xx_usart.c:411:   assert_param(IS_USART_ALL_PE
 1097              		.loc 1 411 16 discriminator 8 view .LVU251
 1098 0024 03F58063 		add	r3, r3, #1024	@ tmp127, tmp127,
 1099 0028 9842     		cmp	r0, r3	@ USARTx, tmp127
 1100 002a 05D0     		beq	.L61		@,
 1101              	@ ../Libraries/STM32F4xx_StdPeriph_Driver/src/stm32f4xx_usart.c:411:   assert_param(IS_USART_ALL_PE
 1102              		.loc 1 411 3 discriminator 10 view .LVU252
 1103 002c 0E48     		ldr	r0, .L63+4	@ tmp130,
 1104              	.LVL86:
 1105              		.loc 1 411 3 discriminator 10 view .LVU253
 1106 002e 201A     		subs	r0, r4, r0	@ iftmp.13_7, USARTx, tmp130
 1107 0030 B0FA80F0 		clz	r0, r0	@ iftmp.13_7, iftmp.13_7
 1108 0034 4009     		lsrs	r0, r0, #5	@ iftmp.13_7, iftmp.13_7,
 1109 0036 00E0     		b	.L54		@
 1110              	.LVL87:
 1111              	.L61:
 1112              	@ ../Libraries/STM32F4xx_StdPeriph_Driver/src/stm32f4xx_usart.c:411:   assert_param(IS_USART_ALL_PE
 1113              		.loc 1 411 3 view .LVU254
 1114 0038 0120     		movs	r0, #1	@ iftmp.13_7,
 1115              	.LVL88:
 1116              	.L54:
 1117              	@ ../Libraries/STM32F4xx_StdPeriph_Driver/src/stm32f4xx_usart.c:411:   assert_param(IS_USART_ALL_PE
 1118              		.loc 1 411 3 discriminator 14 view .LVU255
 1119 003a FFF7FEFF 		bl	assert_param		@
 1120              	.LVL89:
 412:../Libraries/STM32F4xx_StdPeriph_Driver/src/stm32f4xx_usart.c ****   assert_param(IS_FUNCTIONAL_STATE(NewState));
 1121              		.loc 1 412 3 is_stmt 1 discriminator 14 view .LVU256
 1122 003e 012D     		cmp	r5, #1	@ NewState,
 1123 0040 8CBF     		ite	hi
 1124 0042 0020     		movhi	r0, #0	@,
 1125 0044 0120     		movls	r0, #1	@,
 1126 0046 FFF7FEFF 		bl	assert_param		@
 1127              	.LVL90:
 413:../Libraries/STM32F4xx_StdPeriph_Driver/src/stm32f4xx_usart.c ****   
 414:../Libraries/STM32F4xx_StdPeriph_Driver/src/stm32f4xx_usart.c ****   if (NewState != DISABLE)
ARM GAS  C:\Users\admin\AppData\Local\Temp\ccwrrJFc.s 			page 30


 1128              		.loc 1 414 3 discriminator 14 view .LVU257
 1129              	@ ../Libraries/STM32F4xx_StdPeriph_Driver/src/stm32f4xx_usart.c:417:     USARTx->CR1 |= USART_CR1_U
 415:../Libraries/STM32F4xx_StdPeriph_Driver/src/stm32f4xx_usart.c ****   {
 416:../Libraries/STM32F4xx_StdPeriph_Driver/src/stm32f4xx_usart.c ****     /* Enable the selected USART by setting the UE bit in the CR1 register */
 417:../Libraries/STM32F4xx_StdPeriph_Driver/src/stm32f4xx_usart.c ****     USARTx->CR1 |= USART_CR1_UE;
 1130              		.loc 1 417 17 is_stmt 0 discriminator 14 view .LVU258
 1131 004a A389     		ldrh	r3, [r4, #12]	@,
 1132              	@ ../Libraries/STM32F4xx_StdPeriph_Driver/src/stm32f4xx_usart.c:414:   if (NewState != DISABLE)
 414:../Libraries/STM32F4xx_StdPeriph_Driver/src/stm32f4xx_usart.c ****   {
 1133              		.loc 1 414 6 discriminator 14 view .LVU259
 1134 004c 25B1     		cbz	r5, .L55	@ NewState,
 1135              		.loc 1 417 5 is_stmt 1 view .LVU260
 1136              	@ ../Libraries/STM32F4xx_StdPeriph_Driver/src/stm32f4xx_usart.c:417:     USARTx->CR1 |= USART_CR1_U
 1137              		.loc 1 417 17 is_stmt 0 view .LVU261
 1138 004e 9BB2     		uxth	r3, r3	@ _3, USARTx_9(D)->CR1
 1139 0050 43F40053 		orr	r3, r3, #8192	@ _4, _3,
 1140 0054 A381     		strh	r3, [r4, #12]	@ movhi	@ _4,
 1141              	@ ../Libraries/STM32F4xx_StdPeriph_Driver/src/stm32f4xx_usart.c:424: }
 418:../Libraries/STM32F4xx_StdPeriph_Driver/src/stm32f4xx_usart.c ****   }
 419:../Libraries/STM32F4xx_StdPeriph_Driver/src/stm32f4xx_usart.c ****   else
 420:../Libraries/STM32F4xx_StdPeriph_Driver/src/stm32f4xx_usart.c ****   {
 421:../Libraries/STM32F4xx_StdPeriph_Driver/src/stm32f4xx_usart.c ****     /* Disable the selected USART by clearing the UE bit in the CR1 register */
 422:../Libraries/STM32F4xx_StdPeriph_Driver/src/stm32f4xx_usart.c ****     USARTx->CR1 &= (uint16_t)~((uint16_t)USART_CR1_UE);
 423:../Libraries/STM32F4xx_StdPeriph_Driver/src/stm32f4xx_usart.c ****   }
 424:../Libraries/STM32F4xx_StdPeriph_Driver/src/stm32f4xx_usart.c **** }
 1142              		.loc 1 424 1 view .LVU262
 1143 0056 38BD     		pop	{r3, r4, r5, pc}	@
 1144              	.LVL91:
 1145              	.L55:
 422:../Libraries/STM32F4xx_StdPeriph_Driver/src/stm32f4xx_usart.c ****   }
 1146              		.loc 1 422 5 is_stmt 1 view .LVU263
 1147              	@ ../Libraries/STM32F4xx_StdPeriph_Driver/src/stm32f4xx_usart.c:422:     USARTx->CR1 &= (uint16_t)~
 422:../Libraries/STM32F4xx_StdPeriph_Driver/src/stm32f4xx_usart.c ****   }
 1148              		.loc 1 422 17 is_stmt 0 view .LVU264
 1149 0058 23F40053 		bic	r3, r3, #8192	@ _6, USARTx_9(D)->CR1,
 1150 005c 1B04     		lsls	r3, r3, #16	@ _6, _6,
 1151 005e 1B0C     		lsrs	r3, r3, #16	@ _6, _6,
 1152 0060 A381     		strh	r3, [r4, #12]	@ movhi	@ _6,
 1153              	@ ../Libraries/STM32F4xx_StdPeriph_Driver/src/stm32f4xx_usart.c:424: }
 1154              		.loc 1 424 1 view .LVU265
 1155 0062 38BD     		pop	{r3, r4, r5, pc}	@
 1156              	.LVL92:
 1157              	.L64:
 1158              		.loc 1 424 1 view .LVU266
 1159              		.align	2
 1160              	.L63:
 1161 0064 00100140 		.word	1073811456
 1162 0068 00140140 		.word	1073812480
 1163              		.cfi_endproc
 1164              	.LFE115:
 1165              		.size	USART_Cmd, .-USART_Cmd
 1166              		.section	.text.USART_SetPrescaler,"ax",%progbits
 1167              		.align	1
 1168              		.p2align 2,,3
 1169              		.global	USART_SetPrescaler
 1170              		.syntax unified
 1171              		.thumb
ARM GAS  C:\Users\admin\AppData\Local\Temp\ccwrrJFc.s 			page 31


 1172              		.thumb_func
 1173              		.type	USART_SetPrescaler, %function
 1174              	USART_SetPrescaler:
 1175              	.LVL93:
 1176              	.LFB116:
 425:../Libraries/STM32F4xx_StdPeriph_Driver/src/stm32f4xx_usart.c **** 
 426:../Libraries/STM32F4xx_StdPeriph_Driver/src/stm32f4xx_usart.c **** /**
 427:../Libraries/STM32F4xx_StdPeriph_Driver/src/stm32f4xx_usart.c ****   * @brief  Sets the system clock prescaler.
 428:../Libraries/STM32F4xx_StdPeriph_Driver/src/stm32f4xx_usart.c ****   * @param  USARTx: where x can be 1, 2, 3, 4, 5 or 6 to select the USART or 
 429:../Libraries/STM32F4xx_StdPeriph_Driver/src/stm32f4xx_usart.c ****   *         UART peripheral.
 430:../Libraries/STM32F4xx_StdPeriph_Driver/src/stm32f4xx_usart.c ****   * @param  USART_Prescaler: specifies the prescaler clock. 
 431:../Libraries/STM32F4xx_StdPeriph_Driver/src/stm32f4xx_usart.c ****   * @note   The function is used for IrDA mode with UART4 and UART5.   
 432:../Libraries/STM32F4xx_StdPeriph_Driver/src/stm32f4xx_usart.c ****   * @retval None
 433:../Libraries/STM32F4xx_StdPeriph_Driver/src/stm32f4xx_usart.c ****   */
 434:../Libraries/STM32F4xx_StdPeriph_Driver/src/stm32f4xx_usart.c **** void USART_SetPrescaler(USART_TypeDef* USARTx, uint8_t USART_Prescaler)
 435:../Libraries/STM32F4xx_StdPeriph_Driver/src/stm32f4xx_usart.c **** { 
 1177              		.loc 1 435 1 is_stmt 1 view -0
 1178              		.cfi_startproc
 1179              		@ args = 0, pretend = 0, frame = 0
 1180              		@ frame_needed = 0, uses_anonymous_args = 0
 436:../Libraries/STM32F4xx_StdPeriph_Driver/src/stm32f4xx_usart.c ****   /* Check the parameters */
 437:../Libraries/STM32F4xx_StdPeriph_Driver/src/stm32f4xx_usart.c ****   assert_param(IS_USART_ALL_PERIPH(USARTx));
 1181              		.loc 1 437 3 view .LVU268
 1182              	@ ../Libraries/STM32F4xx_StdPeriph_Driver/src/stm32f4xx_usart.c:435: { 
 435:../Libraries/STM32F4xx_StdPeriph_Driver/src/stm32f4xx_usart.c ****   /* Check the parameters */
 1183              		.loc 1 435 1 is_stmt 0 view .LVU269
 1184 0000 38B5     		push	{r3, r4, r5, lr}	@
 1185              		.cfi_def_cfa_offset 16
 1186              		.cfi_offset 3, -16
 1187              		.cfi_offset 4, -12
 1188              		.cfi_offset 5, -8
 1189              		.cfi_offset 14, -4
 1190              	@ ../Libraries/STM32F4xx_StdPeriph_Driver/src/stm32f4xx_usart.c:437:   assert_param(IS_USART_ALL_PE
 1191              		.loc 1 437 3 view .LVU270
 1192 0002 144B     		ldr	r3, .L73	@ tmp122,
 1193 0004 9842     		cmp	r0, r3	@ USARTx, tmp122
 1194              	@ ../Libraries/STM32F4xx_StdPeriph_Driver/src/stm32f4xx_usart.c:435: { 
 435:../Libraries/STM32F4xx_StdPeriph_Driver/src/stm32f4xx_usart.c ****   /* Check the parameters */
 1195              		.loc 1 435 1 view .LVU271
 1196 0006 0446     		mov	r4, r0	@ USARTx, tmp139
 1197 0008 0D46     		mov	r5, r1	@ USART_Prescaler, tmp140
 1198              	@ ../Libraries/STM32F4xx_StdPeriph_Driver/src/stm32f4xx_usart.c:437:   assert_param(IS_USART_ALL_PE
 1199              		.loc 1 437 3 view .LVU272
 1200 000a 15D0     		beq	.L71		@,
 1201              	@ ../Libraries/STM32F4xx_StdPeriph_Driver/src/stm32f4xx_usart.c:437:   assert_param(IS_USART_ALL_PE
 1202              		.loc 1 437 16 discriminator 2 view .LVU273
 1203 000c A3F54C43 		sub	r3, r3, #52224	@ tmp123, tmp123,
 1204 0010 9842     		cmp	r0, r3	@ USARTx, tmp123
 1205 0012 11D0     		beq	.L71		@,
 1206              	@ ../Libraries/STM32F4xx_StdPeriph_Driver/src/stm32f4xx_usart.c:437:   assert_param(IS_USART_ALL_PE
 1207              		.loc 1 437 16 discriminator 4 view .LVU274
 1208 0014 03F58063 		add	r3, r3, #1024	@ tmp124, tmp124,
 1209 0018 9842     		cmp	r0, r3	@ USARTx, tmp124
 1210 001a 0DD0     		beq	.L71		@,
 1211              	@ ../Libraries/STM32F4xx_StdPeriph_Driver/src/stm32f4xx_usart.c:437:   assert_param(IS_USART_ALL_PE
 1212              		.loc 1 437 16 discriminator 6 view .LVU275
 1213 001c 03F58063 		add	r3, r3, #1024	@ tmp125, tmp125,
ARM GAS  C:\Users\admin\AppData\Local\Temp\ccwrrJFc.s 			page 32


 1214 0020 9842     		cmp	r0, r3	@ USARTx, tmp125
 1215 0022 09D0     		beq	.L71		@,
 1216              	@ ../Libraries/STM32F4xx_StdPeriph_Driver/src/stm32f4xx_usart.c:437:   assert_param(IS_USART_ALL_PE
 1217              		.loc 1 437 16 discriminator 8 view .LVU276
 1218 0024 03F58063 		add	r3, r3, #1024	@ tmp126, tmp126,
 1219 0028 9842     		cmp	r0, r3	@ USARTx, tmp126
 1220 002a 05D0     		beq	.L71		@,
 1221              	@ ../Libraries/STM32F4xx_StdPeriph_Driver/src/stm32f4xx_usart.c:437:   assert_param(IS_USART_ALL_PE
 1222              		.loc 1 437 3 discriminator 10 view .LVU277
 1223 002c 0A48     		ldr	r0, .L73+4	@ tmp129,
 1224              	.LVL94:
 1225              		.loc 1 437 3 discriminator 10 view .LVU278
 1226 002e 201A     		subs	r0, r4, r0	@ iftmp.14_6, USARTx, tmp129
 1227 0030 B0FA80F0 		clz	r0, r0	@ iftmp.14_6, iftmp.14_6
 1228 0034 4009     		lsrs	r0, r0, #5	@ iftmp.14_6, iftmp.14_6,
 1229 0036 00E0     		b	.L66		@
 1230              	.LVL95:
 1231              	.L71:
 1232              	@ ../Libraries/STM32F4xx_StdPeriph_Driver/src/stm32f4xx_usart.c:437:   assert_param(IS_USART_ALL_PE
 1233              		.loc 1 437 3 view .LVU279
 1234 0038 0120     		movs	r0, #1	@ iftmp.14_6,
 1235              	.LVL96:
 1236              	.L66:
 1237              	@ ../Libraries/STM32F4xx_StdPeriph_Driver/src/stm32f4xx_usart.c:437:   assert_param(IS_USART_ALL_PE
 1238              		.loc 1 437 3 discriminator 14 view .LVU280
 1239 003a FFF7FEFF 		bl	assert_param		@
 1240              	.LVL97:
 438:../Libraries/STM32F4xx_StdPeriph_Driver/src/stm32f4xx_usart.c ****   
 439:../Libraries/STM32F4xx_StdPeriph_Driver/src/stm32f4xx_usart.c ****   /* Clear the USART prescaler */
 440:../Libraries/STM32F4xx_StdPeriph_Driver/src/stm32f4xx_usart.c ****   USARTx->GTPR &= USART_GTPR_GT;
 1241              		.loc 1 440 3 is_stmt 1 discriminator 14 view .LVU281
 1242              	@ ../Libraries/STM32F4xx_StdPeriph_Driver/src/stm32f4xx_usart.c:440:   USARTx->GTPR &= USART_GTPR_G
 1243              		.loc 1 440 16 is_stmt 0 discriminator 14 view .LVU282
 1244 003e 238B     		ldrh	r3, [r4, #24]	@, USARTx_7(D)->GTPR
 1245 0040 03F47F43 		and	r3, r3, #65280	@ _2, USARTx_7(D)->GTPR,
 1246 0044 2383     		strh	r3, [r4, #24]	@ movhi	@ _2, USARTx_7(D)->GTPR
 441:../Libraries/STM32F4xx_StdPeriph_Driver/src/stm32f4xx_usart.c ****   /* Set the USART prescaler */
 442:../Libraries/STM32F4xx_StdPeriph_Driver/src/stm32f4xx_usart.c ****   USARTx->GTPR |= USART_Prescaler;
 1247              		.loc 1 442 3 is_stmt 1 discriminator 14 view .LVU283
 1248              	@ ../Libraries/STM32F4xx_StdPeriph_Driver/src/stm32f4xx_usart.c:442:   USARTx->GTPR |= USART_Presca
 1249              		.loc 1 442 16 is_stmt 0 discriminator 14 view .LVU284
 1250 0046 238B     		ldrh	r3, [r4, #24]	@, USARTx_7(D)->GTPR
 1251 0048 9BB2     		uxth	r3, r3	@ _3, USARTx_7(D)->GTPR
 1252 004a 43EA0501 		orr	r1, r3, r5	@ _5, _3, USART_Prescaler
 1253 004e 2183     		strh	r1, [r4, #24]	@ movhi	@ _5, USARTx_7(D)->GTPR
 1254              	@ ../Libraries/STM32F4xx_StdPeriph_Driver/src/stm32f4xx_usart.c:443: }
 443:../Libraries/STM32F4xx_StdPeriph_Driver/src/stm32f4xx_usart.c **** }
 1255              		.loc 1 443 1 discriminator 14 view .LVU285
 1256 0050 38BD     		pop	{r3, r4, r5, pc}	@
 1257              	.LVL98:
 1258              	.L74:
 1259              		.loc 1 443 1 discriminator 14 view .LVU286
 1260 0052 00BF     		.align	2
 1261              	.L73:
 1262 0054 00100140 		.word	1073811456
 1263 0058 00140140 		.word	1073812480
 1264              		.cfi_endproc
ARM GAS  C:\Users\admin\AppData\Local\Temp\ccwrrJFc.s 			page 33


 1265              	.LFE116:
 1266              		.size	USART_SetPrescaler, .-USART_SetPrescaler
 1267              		.section	.text.USART_OverSampling8Cmd,"ax",%progbits
 1268              		.align	1
 1269              		.p2align 2,,3
 1270              		.global	USART_OverSampling8Cmd
 1271              		.syntax unified
 1272              		.thumb
 1273              		.thumb_func
 1274              		.type	USART_OverSampling8Cmd, %function
 1275              	USART_OverSampling8Cmd:
 1276              	.LVL99:
 1277              	.LFB117:
 444:../Libraries/STM32F4xx_StdPeriph_Driver/src/stm32f4xx_usart.c **** 
 445:../Libraries/STM32F4xx_StdPeriph_Driver/src/stm32f4xx_usart.c **** /**
 446:../Libraries/STM32F4xx_StdPeriph_Driver/src/stm32f4xx_usart.c ****   * @brief  Enables or disables the USART's 8x oversampling mode.
 447:../Libraries/STM32F4xx_StdPeriph_Driver/src/stm32f4xx_usart.c ****   * @note   This function has to be called before calling USART_Init() function
 448:../Libraries/STM32F4xx_StdPeriph_Driver/src/stm32f4xx_usart.c ****   *         in order to have correct baudrate Divider value.
 449:../Libraries/STM32F4xx_StdPeriph_Driver/src/stm32f4xx_usart.c ****   * @param  USARTx: where x can be 1, 2, 3, 4, 5 or 6 to select the USART or 
 450:../Libraries/STM32F4xx_StdPeriph_Driver/src/stm32f4xx_usart.c ****   *         UART peripheral.
 451:../Libraries/STM32F4xx_StdPeriph_Driver/src/stm32f4xx_usart.c ****   * @param  NewState: new state of the USART 8x oversampling mode.
 452:../Libraries/STM32F4xx_StdPeriph_Driver/src/stm32f4xx_usart.c ****   *          This parameter can be: ENABLE or DISABLE.
 453:../Libraries/STM32F4xx_StdPeriph_Driver/src/stm32f4xx_usart.c ****   * @retval None
 454:../Libraries/STM32F4xx_StdPeriph_Driver/src/stm32f4xx_usart.c ****   */
 455:../Libraries/STM32F4xx_StdPeriph_Driver/src/stm32f4xx_usart.c **** void USART_OverSampling8Cmd(USART_TypeDef* USARTx, FunctionalState NewState)
 456:../Libraries/STM32F4xx_StdPeriph_Driver/src/stm32f4xx_usart.c **** {
 1278              		.loc 1 456 1 is_stmt 1 view -0
 1279              		.cfi_startproc
 1280              		@ args = 0, pretend = 0, frame = 0
 1281              		@ frame_needed = 0, uses_anonymous_args = 0
 457:../Libraries/STM32F4xx_StdPeriph_Driver/src/stm32f4xx_usart.c ****   /* Check the parameters */
 458:../Libraries/STM32F4xx_StdPeriph_Driver/src/stm32f4xx_usart.c ****   assert_param(IS_USART_ALL_PERIPH(USARTx));
 1282              		.loc 1 458 3 view .LVU288
 1283              	@ ../Libraries/STM32F4xx_StdPeriph_Driver/src/stm32f4xx_usart.c:456: {
 456:../Libraries/STM32F4xx_StdPeriph_Driver/src/stm32f4xx_usart.c ****   /* Check the parameters */
 1284              		.loc 1 456 1 is_stmt 0 view .LVU289
 1285 0000 38B5     		push	{r3, r4, r5, lr}	@
 1286              		.cfi_def_cfa_offset 16
 1287              		.cfi_offset 3, -16
 1288              		.cfi_offset 4, -12
 1289              		.cfi_offset 5, -8
 1290              		.cfi_offset 14, -4
 1291              	@ ../Libraries/STM32F4xx_StdPeriph_Driver/src/stm32f4xx_usart.c:458:   assert_param(IS_USART_ALL_PE
 1292              		.loc 1 458 3 view .LVU290
 1293 0002 184B     		ldr	r3, .L85	@ tmp123,
 1294 0004 9842     		cmp	r0, r3	@ USARTx, tmp123
 1295              	@ ../Libraries/STM32F4xx_StdPeriph_Driver/src/stm32f4xx_usart.c:456: {
 456:../Libraries/STM32F4xx_StdPeriph_Driver/src/stm32f4xx_usart.c ****   /* Check the parameters */
 1296              		.loc 1 456 1 view .LVU291
 1297 0006 0446     		mov	r4, r0	@ USARTx, tmp145
 1298 0008 0D46     		mov	r5, r1	@ NewState, tmp146
 1299              	@ ../Libraries/STM32F4xx_StdPeriph_Driver/src/stm32f4xx_usart.c:458:   assert_param(IS_USART_ALL_PE
 1300              		.loc 1 458 3 view .LVU292
 1301 000a 15D0     		beq	.L83		@,
 1302              	@ ../Libraries/STM32F4xx_StdPeriph_Driver/src/stm32f4xx_usart.c:458:   assert_param(IS_USART_ALL_PE
 1303              		.loc 1 458 16 discriminator 2 view .LVU293
 1304 000c A3F54C43 		sub	r3, r3, #52224	@ tmp124, tmp124,
ARM GAS  C:\Users\admin\AppData\Local\Temp\ccwrrJFc.s 			page 34


 1305 0010 9842     		cmp	r0, r3	@ USARTx, tmp124
 1306 0012 11D0     		beq	.L83		@,
 1307              	@ ../Libraries/STM32F4xx_StdPeriph_Driver/src/stm32f4xx_usart.c:458:   assert_param(IS_USART_ALL_PE
 1308              		.loc 1 458 16 discriminator 4 view .LVU294
 1309 0014 03F58063 		add	r3, r3, #1024	@ tmp125, tmp125,
 1310 0018 9842     		cmp	r0, r3	@ USARTx, tmp125
 1311 001a 0DD0     		beq	.L83		@,
 1312              	@ ../Libraries/STM32F4xx_StdPeriph_Driver/src/stm32f4xx_usart.c:458:   assert_param(IS_USART_ALL_PE
 1313              		.loc 1 458 16 discriminator 6 view .LVU295
 1314 001c 03F58063 		add	r3, r3, #1024	@ tmp126, tmp126,
 1315 0020 9842     		cmp	r0, r3	@ USARTx, tmp126
 1316 0022 09D0     		beq	.L83		@,
 1317              	@ ../Libraries/STM32F4xx_StdPeriph_Driver/src/stm32f4xx_usart.c:458:   assert_param(IS_USART_ALL_PE
 1318              		.loc 1 458 16 discriminator 8 view .LVU296
 1319 0024 03F58063 		add	r3, r3, #1024	@ tmp127, tmp127,
 1320 0028 9842     		cmp	r0, r3	@ USARTx, tmp127
 1321 002a 05D0     		beq	.L83		@,
 1322              	@ ../Libraries/STM32F4xx_StdPeriph_Driver/src/stm32f4xx_usart.c:458:   assert_param(IS_USART_ALL_PE
 1323              		.loc 1 458 3 discriminator 10 view .LVU297
 1324 002c 0E48     		ldr	r0, .L85+4	@ tmp130,
 1325              	.LVL100:
 1326              		.loc 1 458 3 discriminator 10 view .LVU298
 1327 002e 201A     		subs	r0, r4, r0	@ iftmp.15_7, USARTx, tmp130
 1328 0030 B0FA80F0 		clz	r0, r0	@ iftmp.15_7, iftmp.15_7
 1329 0034 4009     		lsrs	r0, r0, #5	@ iftmp.15_7, iftmp.15_7,
 1330 0036 00E0     		b	.L76		@
 1331              	.LVL101:
 1332              	.L83:
 1333              	@ ../Libraries/STM32F4xx_StdPeriph_Driver/src/stm32f4xx_usart.c:458:   assert_param(IS_USART_ALL_PE
 1334              		.loc 1 458 3 view .LVU299
 1335 0038 0120     		movs	r0, #1	@ iftmp.15_7,
 1336              	.LVL102:
 1337              	.L76:
 1338              	@ ../Libraries/STM32F4xx_StdPeriph_Driver/src/stm32f4xx_usart.c:458:   assert_param(IS_USART_ALL_PE
 1339              		.loc 1 458 3 discriminator 14 view .LVU300
 1340 003a FFF7FEFF 		bl	assert_param		@
 1341              	.LVL103:
 459:../Libraries/STM32F4xx_StdPeriph_Driver/src/stm32f4xx_usart.c ****   assert_param(IS_FUNCTIONAL_STATE(NewState));
 1342              		.loc 1 459 3 is_stmt 1 discriminator 14 view .LVU301
 1343 003e 012D     		cmp	r5, #1	@ NewState,
 1344 0040 8CBF     		ite	hi
 1345 0042 0020     		movhi	r0, #0	@,
 1346 0044 0120     		movls	r0, #1	@,
 1347 0046 FFF7FEFF 		bl	assert_param		@
 1348              	.LVL104:
 460:../Libraries/STM32F4xx_StdPeriph_Driver/src/stm32f4xx_usart.c ****   
 461:../Libraries/STM32F4xx_StdPeriph_Driver/src/stm32f4xx_usart.c ****   if (NewState != DISABLE)
 1349              		.loc 1 461 3 discriminator 14 view .LVU302
 1350              	@ ../Libraries/STM32F4xx_StdPeriph_Driver/src/stm32f4xx_usart.c:464:     USARTx->CR1 |= USART_CR1_O
 462:../Libraries/STM32F4xx_StdPeriph_Driver/src/stm32f4xx_usart.c ****   {
 463:../Libraries/STM32F4xx_StdPeriph_Driver/src/stm32f4xx_usart.c ****     /* Enable the 8x Oversampling mode by setting the OVER8 bit in the CR1 register */
 464:../Libraries/STM32F4xx_StdPeriph_Driver/src/stm32f4xx_usart.c ****     USARTx->CR1 |= USART_CR1_OVER8;
 1351              		.loc 1 464 17 is_stmt 0 discriminator 14 view .LVU303
 1352 004a A389     		ldrh	r3, [r4, #12]	@,
 1353              	@ ../Libraries/STM32F4xx_StdPeriph_Driver/src/stm32f4xx_usart.c:461:   if (NewState != DISABLE)
 461:../Libraries/STM32F4xx_StdPeriph_Driver/src/stm32f4xx_usart.c ****   {
 1354              		.loc 1 461 6 discriminator 14 view .LVU304
ARM GAS  C:\Users\admin\AppData\Local\Temp\ccwrrJFc.s 			page 35


 1355 004c 35B1     		cbz	r5, .L77	@ NewState,
 1356              		.loc 1 464 5 is_stmt 1 view .LVU305
 1357              	@ ../Libraries/STM32F4xx_StdPeriph_Driver/src/stm32f4xx_usart.c:464:     USARTx->CR1 |= USART_CR1_O
 1358              		.loc 1 464 17 is_stmt 0 view .LVU306
 1359 004e 6FEA4343 		mvn	r3, r3, lsl #17	@ tmp137, USARTx_9(D)->CR1,
 1360 0052 6FEA5343 		mvn	r3, r3, lsr #17	@ tmp137, tmp137,
 1361 0056 9BB2     		uxth	r3, r3	@ _4, tmp137
 1362 0058 A381     		strh	r3, [r4, #12]	@ movhi	@ _4,
 1363              	@ ../Libraries/STM32F4xx_StdPeriph_Driver/src/stm32f4xx_usart.c:471: }  
 465:../Libraries/STM32F4xx_StdPeriph_Driver/src/stm32f4xx_usart.c ****   }
 466:../Libraries/STM32F4xx_StdPeriph_Driver/src/stm32f4xx_usart.c ****   else
 467:../Libraries/STM32F4xx_StdPeriph_Driver/src/stm32f4xx_usart.c ****   {
 468:../Libraries/STM32F4xx_StdPeriph_Driver/src/stm32f4xx_usart.c ****     /* Disable the 8x Oversampling mode by clearing the OVER8 bit in the CR1 register */
 469:../Libraries/STM32F4xx_StdPeriph_Driver/src/stm32f4xx_usart.c ****     USARTx->CR1 &= (uint16_t)~((uint16_t)USART_CR1_OVER8);
 470:../Libraries/STM32F4xx_StdPeriph_Driver/src/stm32f4xx_usart.c ****   }
 471:../Libraries/STM32F4xx_StdPeriph_Driver/src/stm32f4xx_usart.c **** }  
 1364              		.loc 1 471 1 view .LVU307
 1365 005a 38BD     		pop	{r3, r4, r5, pc}	@
 1366              	.LVL105:
 1367              	.L77:
 469:../Libraries/STM32F4xx_StdPeriph_Driver/src/stm32f4xx_usart.c ****   }
 1368              		.loc 1 469 5 is_stmt 1 view .LVU308
 1369              	@ ../Libraries/STM32F4xx_StdPeriph_Driver/src/stm32f4xx_usart.c:469:     USARTx->CR1 &= (uint16_t)~
 469:../Libraries/STM32F4xx_StdPeriph_Driver/src/stm32f4xx_usart.c ****   }
 1370              		.loc 1 469 17 is_stmt 0 view .LVU309
 1371 005c C3F30E03 		ubfx	r3, r3, #0, #15	@ _6, USARTx_9(D)->CR1,,
 1372 0060 A381     		strh	r3, [r4, #12]	@ movhi	@ _6,
 1373              	@ ../Libraries/STM32F4xx_StdPeriph_Driver/src/stm32f4xx_usart.c:471: }  
 1374              		.loc 1 471 1 view .LVU310
 1375 0062 38BD     		pop	{r3, r4, r5, pc}	@
 1376              	.LVL106:
 1377              	.L86:
 1378              		.loc 1 471 1 view .LVU311
 1379              		.align	2
 1380              	.L85:
 1381 0064 00100140 		.word	1073811456
 1382 0068 00140140 		.word	1073812480
 1383              		.cfi_endproc
 1384              	.LFE117:
 1385              		.size	USART_OverSampling8Cmd, .-USART_OverSampling8Cmd
 1386              		.section	.text.USART_OneBitMethodCmd,"ax",%progbits
 1387              		.align	1
 1388              		.p2align 2,,3
 1389              		.global	USART_OneBitMethodCmd
 1390              		.syntax unified
 1391              		.thumb
 1392              		.thumb_func
 1393              		.type	USART_OneBitMethodCmd, %function
 1394              	USART_OneBitMethodCmd:
 1395              	.LVL107:
 1396              	.LFB118:
 472:../Libraries/STM32F4xx_StdPeriph_Driver/src/stm32f4xx_usart.c **** 
 473:../Libraries/STM32F4xx_StdPeriph_Driver/src/stm32f4xx_usart.c **** /**
 474:../Libraries/STM32F4xx_StdPeriph_Driver/src/stm32f4xx_usart.c ****   * @brief  Enables or disables the USART's one bit sampling method.
 475:../Libraries/STM32F4xx_StdPeriph_Driver/src/stm32f4xx_usart.c ****   * @param  USARTx: where x can be 1, 2, 3, 4, 5 or 6 to select the USART or 
 476:../Libraries/STM32F4xx_StdPeriph_Driver/src/stm32f4xx_usart.c ****   *         UART peripheral.
 477:../Libraries/STM32F4xx_StdPeriph_Driver/src/stm32f4xx_usart.c ****   * @param  NewState: new state of the USART one bit sampling method.
ARM GAS  C:\Users\admin\AppData\Local\Temp\ccwrrJFc.s 			page 36


 478:../Libraries/STM32F4xx_StdPeriph_Driver/src/stm32f4xx_usart.c ****   *          This parameter can be: ENABLE or DISABLE.
 479:../Libraries/STM32F4xx_StdPeriph_Driver/src/stm32f4xx_usart.c ****   * @retval None
 480:../Libraries/STM32F4xx_StdPeriph_Driver/src/stm32f4xx_usart.c ****   */
 481:../Libraries/STM32F4xx_StdPeriph_Driver/src/stm32f4xx_usart.c **** void USART_OneBitMethodCmd(USART_TypeDef* USARTx, FunctionalState NewState)
 482:../Libraries/STM32F4xx_StdPeriph_Driver/src/stm32f4xx_usart.c **** {
 1397              		.loc 1 482 1 is_stmt 1 view -0
 1398              		.cfi_startproc
 1399              		@ args = 0, pretend = 0, frame = 0
 1400              		@ frame_needed = 0, uses_anonymous_args = 0
 483:../Libraries/STM32F4xx_StdPeriph_Driver/src/stm32f4xx_usart.c ****   /* Check the parameters */
 484:../Libraries/STM32F4xx_StdPeriph_Driver/src/stm32f4xx_usart.c ****   assert_param(IS_USART_ALL_PERIPH(USARTx));
 1401              		.loc 1 484 3 view .LVU313
 1402              	@ ../Libraries/STM32F4xx_StdPeriph_Driver/src/stm32f4xx_usart.c:482: {
 482:../Libraries/STM32F4xx_StdPeriph_Driver/src/stm32f4xx_usart.c ****   /* Check the parameters */
 1403              		.loc 1 482 1 is_stmt 0 view .LVU314
 1404 0000 38B5     		push	{r3, r4, r5, lr}	@
 1405              		.cfi_def_cfa_offset 16
 1406              		.cfi_offset 3, -16
 1407              		.cfi_offset 4, -12
 1408              		.cfi_offset 5, -8
 1409              		.cfi_offset 14, -4
 1410              	@ ../Libraries/STM32F4xx_StdPeriph_Driver/src/stm32f4xx_usart.c:484:   assert_param(IS_USART_ALL_PE
 1411              		.loc 1 484 3 view .LVU315
 1412 0002 184B     		ldr	r3, .L97	@ tmp123,
 1413 0004 9842     		cmp	r0, r3	@ USARTx, tmp123
 1414              	@ ../Libraries/STM32F4xx_StdPeriph_Driver/src/stm32f4xx_usart.c:482: {
 482:../Libraries/STM32F4xx_StdPeriph_Driver/src/stm32f4xx_usart.c ****   /* Check the parameters */
 1415              		.loc 1 482 1 view .LVU316
 1416 0006 0446     		mov	r4, r0	@ USARTx, tmp143
 1417 0008 0D46     		mov	r5, r1	@ NewState, tmp144
 1418              	@ ../Libraries/STM32F4xx_StdPeriph_Driver/src/stm32f4xx_usart.c:484:   assert_param(IS_USART_ALL_PE
 1419              		.loc 1 484 3 view .LVU317
 1420 000a 15D0     		beq	.L95		@,
 1421              	@ ../Libraries/STM32F4xx_StdPeriph_Driver/src/stm32f4xx_usart.c:484:   assert_param(IS_USART_ALL_PE
 1422              		.loc 1 484 16 discriminator 2 view .LVU318
 1423 000c A3F54C43 		sub	r3, r3, #52224	@ tmp124, tmp124,
 1424 0010 9842     		cmp	r0, r3	@ USARTx, tmp124
 1425 0012 11D0     		beq	.L95		@,
 1426              	@ ../Libraries/STM32F4xx_StdPeriph_Driver/src/stm32f4xx_usart.c:484:   assert_param(IS_USART_ALL_PE
 1427              		.loc 1 484 16 discriminator 4 view .LVU319
 1428 0014 03F58063 		add	r3, r3, #1024	@ tmp125, tmp125,
 1429 0018 9842     		cmp	r0, r3	@ USARTx, tmp125
 1430 001a 0DD0     		beq	.L95		@,
 1431              	@ ../Libraries/STM32F4xx_StdPeriph_Driver/src/stm32f4xx_usart.c:484:   assert_param(IS_USART_ALL_PE
 1432              		.loc 1 484 16 discriminator 6 view .LVU320
 1433 001c 03F58063 		add	r3, r3, #1024	@ tmp126, tmp126,
 1434 0020 9842     		cmp	r0, r3	@ USARTx, tmp126
 1435 0022 09D0     		beq	.L95		@,
 1436              	@ ../Libraries/STM32F4xx_StdPeriph_Driver/src/stm32f4xx_usart.c:484:   assert_param(IS_USART_ALL_PE
 1437              		.loc 1 484 16 discriminator 8 view .LVU321
 1438 0024 03F58063 		add	r3, r3, #1024	@ tmp127, tmp127,
 1439 0028 9842     		cmp	r0, r3	@ USARTx, tmp127
 1440 002a 05D0     		beq	.L95		@,
 1441              	@ ../Libraries/STM32F4xx_StdPeriph_Driver/src/stm32f4xx_usart.c:484:   assert_param(IS_USART_ALL_PE
 1442              		.loc 1 484 3 discriminator 10 view .LVU322
 1443 002c 0E48     		ldr	r0, .L97+4	@ tmp130,
 1444              	.LVL108:
ARM GAS  C:\Users\admin\AppData\Local\Temp\ccwrrJFc.s 			page 37


 1445              		.loc 1 484 3 discriminator 10 view .LVU323
 1446 002e 201A     		subs	r0, r4, r0	@ iftmp.16_7, USARTx, tmp130
 1447 0030 B0FA80F0 		clz	r0, r0	@ iftmp.16_7, iftmp.16_7
 1448 0034 4009     		lsrs	r0, r0, #5	@ iftmp.16_7, iftmp.16_7,
 1449 0036 00E0     		b	.L88		@
 1450              	.LVL109:
 1451              	.L95:
 1452              	@ ../Libraries/STM32F4xx_StdPeriph_Driver/src/stm32f4xx_usart.c:484:   assert_param(IS_USART_ALL_PE
 1453              		.loc 1 484 3 view .LVU324
 1454 0038 0120     		movs	r0, #1	@ iftmp.16_7,
 1455              	.LVL110:
 1456              	.L88:
 1457              	@ ../Libraries/STM32F4xx_StdPeriph_Driver/src/stm32f4xx_usart.c:484:   assert_param(IS_USART_ALL_PE
 1458              		.loc 1 484 3 discriminator 14 view .LVU325
 1459 003a FFF7FEFF 		bl	assert_param		@
 1460              	.LVL111:
 485:../Libraries/STM32F4xx_StdPeriph_Driver/src/stm32f4xx_usart.c ****   assert_param(IS_FUNCTIONAL_STATE(NewState));
 1461              		.loc 1 485 3 is_stmt 1 discriminator 14 view .LVU326
 1462 003e 012D     		cmp	r5, #1	@ NewState,
 1463 0040 8CBF     		ite	hi
 1464 0042 0020     		movhi	r0, #0	@,
 1465 0044 0120     		movls	r0, #1	@,
 1466 0046 FFF7FEFF 		bl	assert_param		@
 1467              	.LVL112:
 486:../Libraries/STM32F4xx_StdPeriph_Driver/src/stm32f4xx_usart.c ****   
 487:../Libraries/STM32F4xx_StdPeriph_Driver/src/stm32f4xx_usart.c ****   if (NewState != DISABLE)
 1468              		.loc 1 487 3 discriminator 14 view .LVU327
 1469              	@ ../Libraries/STM32F4xx_StdPeriph_Driver/src/stm32f4xx_usart.c:490:     USARTx->CR3 |= USART_CR3_O
 488:../Libraries/STM32F4xx_StdPeriph_Driver/src/stm32f4xx_usart.c ****   {
 489:../Libraries/STM32F4xx_StdPeriph_Driver/src/stm32f4xx_usart.c ****     /* Enable the one bit method by setting the ONEBITE bit in the CR3 register */
 490:../Libraries/STM32F4xx_StdPeriph_Driver/src/stm32f4xx_usart.c ****     USARTx->CR3 |= USART_CR3_ONEBIT;
 1470              		.loc 1 490 17 is_stmt 0 discriminator 14 view .LVU328
 1471 004a A38A     		ldrh	r3, [r4, #20]	@,
 1472              	@ ../Libraries/STM32F4xx_StdPeriph_Driver/src/stm32f4xx_usart.c:487:   if (NewState != DISABLE)
 487:../Libraries/STM32F4xx_StdPeriph_Driver/src/stm32f4xx_usart.c ****   {
 1473              		.loc 1 487 6 discriminator 14 view .LVU329
 1474 004c 25B1     		cbz	r5, .L89	@ NewState,
 1475              		.loc 1 490 5 is_stmt 1 view .LVU330
 1476              	@ ../Libraries/STM32F4xx_StdPeriph_Driver/src/stm32f4xx_usart.c:490:     USARTx->CR3 |= USART_CR3_O
 1477              		.loc 1 490 17 is_stmt 0 view .LVU331
 1478 004e 9BB2     		uxth	r3, r3	@ _3, USARTx_9(D)->CR3
 1479 0050 43F40063 		orr	r3, r3, #2048	@ _4, _3,
 1480 0054 A382     		strh	r3, [r4, #20]	@ movhi	@ _4,
 1481              	@ ../Libraries/STM32F4xx_StdPeriph_Driver/src/stm32f4xx_usart.c:497: }
 491:../Libraries/STM32F4xx_StdPeriph_Driver/src/stm32f4xx_usart.c ****   }
 492:../Libraries/STM32F4xx_StdPeriph_Driver/src/stm32f4xx_usart.c ****   else
 493:../Libraries/STM32F4xx_StdPeriph_Driver/src/stm32f4xx_usart.c ****   {
 494:../Libraries/STM32F4xx_StdPeriph_Driver/src/stm32f4xx_usart.c ****     /* Disable the one bit method by clearing the ONEBITE bit in the CR3 register */
 495:../Libraries/STM32F4xx_StdPeriph_Driver/src/stm32f4xx_usart.c ****     USARTx->CR3 &= (uint16_t)~((uint16_t)USART_CR3_ONEBIT);
 496:../Libraries/STM32F4xx_StdPeriph_Driver/src/stm32f4xx_usart.c ****   }
 497:../Libraries/STM32F4xx_StdPeriph_Driver/src/stm32f4xx_usart.c **** }
 1482              		.loc 1 497 1 view .LVU332
 1483 0056 38BD     		pop	{r3, r4, r5, pc}	@
 1484              	.LVL113:
 1485              	.L89:
 495:../Libraries/STM32F4xx_StdPeriph_Driver/src/stm32f4xx_usart.c ****   }
 1486              		.loc 1 495 5 is_stmt 1 view .LVU333
ARM GAS  C:\Users\admin\AppData\Local\Temp\ccwrrJFc.s 			page 38


 1487              	@ ../Libraries/STM32F4xx_StdPeriph_Driver/src/stm32f4xx_usart.c:495:     USARTx->CR3 &= (uint16_t)~
 495:../Libraries/STM32F4xx_StdPeriph_Driver/src/stm32f4xx_usart.c ****   }
 1488              		.loc 1 495 17 is_stmt 0 view .LVU334
 1489 0058 23F40063 		bic	r3, r3, #2048	@ _6, USARTx_9(D)->CR3,
 1490 005c 1B04     		lsls	r3, r3, #16	@ _6, _6,
 1491 005e 1B0C     		lsrs	r3, r3, #16	@ _6, _6,
 1492 0060 A382     		strh	r3, [r4, #20]	@ movhi	@ _6,
 1493              	@ ../Libraries/STM32F4xx_StdPeriph_Driver/src/stm32f4xx_usart.c:497: }
 1494              		.loc 1 497 1 view .LVU335
 1495 0062 38BD     		pop	{r3, r4, r5, pc}	@
 1496              	.LVL114:
 1497              	.L98:
 1498              		.loc 1 497 1 view .LVU336
 1499              		.align	2
 1500              	.L97:
 1501 0064 00100140 		.word	1073811456
 1502 0068 00140140 		.word	1073812480
 1503              		.cfi_endproc
 1504              	.LFE118:
 1505              		.size	USART_OneBitMethodCmd, .-USART_OneBitMethodCmd
 1506              		.section	.text.USART_SendData,"ax",%progbits
 1507              		.align	1
 1508              		.p2align 2,,3
 1509              		.global	USART_SendData
 1510              		.syntax unified
 1511              		.thumb
 1512              		.thumb_func
 1513              		.type	USART_SendData, %function
 1514              	USART_SendData:
 1515              	.LVL115:
 1516              	.LFB119:
 498:../Libraries/STM32F4xx_StdPeriph_Driver/src/stm32f4xx_usart.c **** 
 499:../Libraries/STM32F4xx_StdPeriph_Driver/src/stm32f4xx_usart.c **** /**
 500:../Libraries/STM32F4xx_StdPeriph_Driver/src/stm32f4xx_usart.c ****   * @}
 501:../Libraries/STM32F4xx_StdPeriph_Driver/src/stm32f4xx_usart.c ****   */
 502:../Libraries/STM32F4xx_StdPeriph_Driver/src/stm32f4xx_usart.c **** 
 503:../Libraries/STM32F4xx_StdPeriph_Driver/src/stm32f4xx_usart.c **** /** @defgroup USART_Group2 Data transfers functions
 504:../Libraries/STM32F4xx_StdPeriph_Driver/src/stm32f4xx_usart.c ****  *  @brief   Data transfers functions 
 505:../Libraries/STM32F4xx_StdPeriph_Driver/src/stm32f4xx_usart.c ****  *
 506:../Libraries/STM32F4xx_StdPeriph_Driver/src/stm32f4xx_usart.c **** @verbatim   
 507:../Libraries/STM32F4xx_StdPeriph_Driver/src/stm32f4xx_usart.c ****  ===============================================================================
 508:../Libraries/STM32F4xx_StdPeriph_Driver/src/stm32f4xx_usart.c ****                             Data transfers functions
 509:../Libraries/STM32F4xx_StdPeriph_Driver/src/stm32f4xx_usart.c ****  ===============================================================================  
 510:../Libraries/STM32F4xx_StdPeriph_Driver/src/stm32f4xx_usart.c **** 
 511:../Libraries/STM32F4xx_StdPeriph_Driver/src/stm32f4xx_usart.c ****   This subsection provides a set of functions allowing to manage the USART data 
 512:../Libraries/STM32F4xx_StdPeriph_Driver/src/stm32f4xx_usart.c ****   transfers.
 513:../Libraries/STM32F4xx_StdPeriph_Driver/src/stm32f4xx_usart.c ****   
 514:../Libraries/STM32F4xx_StdPeriph_Driver/src/stm32f4xx_usart.c ****   During an USART reception, data shifts in least significant bit first through 
 515:../Libraries/STM32F4xx_StdPeriph_Driver/src/stm32f4xx_usart.c ****   the RX pin. In this mode, the USART_DR register consists of a buffer (RDR) 
 516:../Libraries/STM32F4xx_StdPeriph_Driver/src/stm32f4xx_usart.c ****   between the internal bus and the received shift register.
 517:../Libraries/STM32F4xx_StdPeriph_Driver/src/stm32f4xx_usart.c **** 
 518:../Libraries/STM32F4xx_StdPeriph_Driver/src/stm32f4xx_usart.c ****   When a transmission is taking place, a write instruction to the USART_DR register 
 519:../Libraries/STM32F4xx_StdPeriph_Driver/src/stm32f4xx_usart.c ****   stores the data in the TDR register and which is copied in the shift register 
 520:../Libraries/STM32F4xx_StdPeriph_Driver/src/stm32f4xx_usart.c ****   at the end of the current transmission.
 521:../Libraries/STM32F4xx_StdPeriph_Driver/src/stm32f4xx_usart.c **** 
 522:../Libraries/STM32F4xx_StdPeriph_Driver/src/stm32f4xx_usart.c ****   The read access of the USART_DR register can be done using the USART_ReceiveData()
 523:../Libraries/STM32F4xx_StdPeriph_Driver/src/stm32f4xx_usart.c ****   function and returns the RDR buffered value. Whereas a write access to the USART_DR 
ARM GAS  C:\Users\admin\AppData\Local\Temp\ccwrrJFc.s 			page 39


 524:../Libraries/STM32F4xx_StdPeriph_Driver/src/stm32f4xx_usart.c ****   can be done using USART_SendData() function and stores the written data into 
 525:../Libraries/STM32F4xx_StdPeriph_Driver/src/stm32f4xx_usart.c ****   TDR buffer.
 526:../Libraries/STM32F4xx_StdPeriph_Driver/src/stm32f4xx_usart.c **** 
 527:../Libraries/STM32F4xx_StdPeriph_Driver/src/stm32f4xx_usart.c **** @endverbatim
 528:../Libraries/STM32F4xx_StdPeriph_Driver/src/stm32f4xx_usart.c ****   * @{
 529:../Libraries/STM32F4xx_StdPeriph_Driver/src/stm32f4xx_usart.c ****   */
 530:../Libraries/STM32F4xx_StdPeriph_Driver/src/stm32f4xx_usart.c **** 
 531:../Libraries/STM32F4xx_StdPeriph_Driver/src/stm32f4xx_usart.c **** /**
 532:../Libraries/STM32F4xx_StdPeriph_Driver/src/stm32f4xx_usart.c ****   * @brief  Transmits single data through the USARTx peripheral.
 533:../Libraries/STM32F4xx_StdPeriph_Driver/src/stm32f4xx_usart.c ****   * @param  USARTx: where x can be 1, 2, 3, 4, 5 or 6 to select the USART or 
 534:../Libraries/STM32F4xx_StdPeriph_Driver/src/stm32f4xx_usart.c ****   *         UART peripheral.
 535:../Libraries/STM32F4xx_StdPeriph_Driver/src/stm32f4xx_usart.c ****   * @param  Data: the data to transmit.
 536:../Libraries/STM32F4xx_StdPeriph_Driver/src/stm32f4xx_usart.c ****   * @retval None
 537:../Libraries/STM32F4xx_StdPeriph_Driver/src/stm32f4xx_usart.c ****   */
 538:../Libraries/STM32F4xx_StdPeriph_Driver/src/stm32f4xx_usart.c **** void USART_SendData(USART_TypeDef* USARTx, uint16_t Data)
 539:../Libraries/STM32F4xx_StdPeriph_Driver/src/stm32f4xx_usart.c **** {
 1517              		.loc 1 539 1 is_stmt 1 view -0
 1518              		.cfi_startproc
 1519              		@ args = 0, pretend = 0, frame = 0
 1520              		@ frame_needed = 0, uses_anonymous_args = 0
 540:../Libraries/STM32F4xx_StdPeriph_Driver/src/stm32f4xx_usart.c ****   /* Check the parameters */
 541:../Libraries/STM32F4xx_StdPeriph_Driver/src/stm32f4xx_usart.c ****   assert_param(IS_USART_ALL_PERIPH(USARTx));
 1521              		.loc 1 541 3 view .LVU338
 1522              	@ ../Libraries/STM32F4xx_StdPeriph_Driver/src/stm32f4xx_usart.c:539: {
 539:../Libraries/STM32F4xx_StdPeriph_Driver/src/stm32f4xx_usart.c ****   /* Check the parameters */
 1523              		.loc 1 539 1 is_stmt 0 view .LVU339
 1524 0000 38B5     		push	{r3, r4, r5, lr}	@
 1525              		.cfi_def_cfa_offset 16
 1526              		.cfi_offset 3, -16
 1527              		.cfi_offset 4, -12
 1528              		.cfi_offset 5, -8
 1529              		.cfi_offset 14, -4
 1530              	@ ../Libraries/STM32F4xx_StdPeriph_Driver/src/stm32f4xx_usart.c:541:   assert_param(IS_USART_ALL_PE
 1531              		.loc 1 541 3 view .LVU340
 1532 0002 144B     		ldr	r3, .L107	@ tmp120,
 1533 0004 9842     		cmp	r0, r3	@ USARTx, tmp120
 1534              	@ ../Libraries/STM32F4xx_StdPeriph_Driver/src/stm32f4xx_usart.c:539: {
 539:../Libraries/STM32F4xx_StdPeriph_Driver/src/stm32f4xx_usart.c ****   /* Check the parameters */
 1535              		.loc 1 539 1 view .LVU341
 1536 0006 0546     		mov	r5, r0	@ USARTx, tmp136
 1537 0008 0C46     		mov	r4, r1	@ Data, tmp137
 1538              	@ ../Libraries/STM32F4xx_StdPeriph_Driver/src/stm32f4xx_usart.c:541:   assert_param(IS_USART_ALL_PE
 1539              		.loc 1 541 3 view .LVU342
 1540 000a 15D0     		beq	.L105		@,
 1541              	@ ../Libraries/STM32F4xx_StdPeriph_Driver/src/stm32f4xx_usart.c:541:   assert_param(IS_USART_ALL_PE
 1542              		.loc 1 541 16 discriminator 2 view .LVU343
 1543 000c A3F54C43 		sub	r3, r3, #52224	@ tmp121, tmp121,
 1544 0010 9842     		cmp	r0, r3	@ USARTx, tmp121
 1545 0012 11D0     		beq	.L105		@,
 1546              	@ ../Libraries/STM32F4xx_StdPeriph_Driver/src/stm32f4xx_usart.c:541:   assert_param(IS_USART_ALL_PE
 1547              		.loc 1 541 16 discriminator 4 view .LVU344
 1548 0014 03F58063 		add	r3, r3, #1024	@ tmp122, tmp122,
 1549 0018 9842     		cmp	r0, r3	@ USARTx, tmp122
 1550 001a 0DD0     		beq	.L105		@,
 1551              	@ ../Libraries/STM32F4xx_StdPeriph_Driver/src/stm32f4xx_usart.c:541:   assert_param(IS_USART_ALL_PE
 1552              		.loc 1 541 16 discriminator 6 view .LVU345
 1553 001c 03F58063 		add	r3, r3, #1024	@ tmp123, tmp123,
ARM GAS  C:\Users\admin\AppData\Local\Temp\ccwrrJFc.s 			page 40


 1554 0020 9842     		cmp	r0, r3	@ USARTx, tmp123
 1555 0022 09D0     		beq	.L105		@,
 1556              	@ ../Libraries/STM32F4xx_StdPeriph_Driver/src/stm32f4xx_usart.c:541:   assert_param(IS_USART_ALL_PE
 1557              		.loc 1 541 16 discriminator 8 view .LVU346
 1558 0024 03F58063 		add	r3, r3, #1024	@ tmp124, tmp124,
 1559 0028 9842     		cmp	r0, r3	@ USARTx, tmp124
 1560 002a 05D0     		beq	.L105		@,
 1561              	@ ../Libraries/STM32F4xx_StdPeriph_Driver/src/stm32f4xx_usart.c:541:   assert_param(IS_USART_ALL_PE
 1562              		.loc 1 541 3 discriminator 10 view .LVU347
 1563 002c 0A48     		ldr	r0, .L107+4	@ tmp127,
 1564              	.LVL116:
 1565              		.loc 1 541 3 discriminator 10 view .LVU348
 1566 002e 281A     		subs	r0, r5, r0	@ iftmp.17_4, USARTx, tmp127
 1567 0030 B0FA80F0 		clz	r0, r0	@ iftmp.17_4, iftmp.17_4
 1568 0034 4009     		lsrs	r0, r0, #5	@ iftmp.17_4, iftmp.17_4,
 1569 0036 00E0     		b	.L100		@
 1570              	.LVL117:
 1571              	.L105:
 1572              	@ ../Libraries/STM32F4xx_StdPeriph_Driver/src/stm32f4xx_usart.c:541:   assert_param(IS_USART_ALL_PE
 1573              		.loc 1 541 3 view .LVU349
 1574 0038 0120     		movs	r0, #1	@ iftmp.17_4,
 1575              	.LVL118:
 1576              	.L100:
 1577              	@ ../Libraries/STM32F4xx_StdPeriph_Driver/src/stm32f4xx_usart.c:541:   assert_param(IS_USART_ALL_PE
 1578              		.loc 1 541 3 discriminator 14 view .LVU350
 1579 003a FFF7FEFF 		bl	assert_param		@
 1580              	.LVL119:
 542:../Libraries/STM32F4xx_StdPeriph_Driver/src/stm32f4xx_usart.c ****   assert_param(IS_USART_DATA(Data)); 
 1581              		.loc 1 542 3 is_stmt 1 discriminator 14 view .LVU351
 1582 003e B4F5007F 		cmp	r4, #512	@ Data,
 1583 0042 2CBF     		ite	cs
 1584 0044 0020     		movcs	r0, #0	@,
 1585 0046 0120     		movcc	r0, #1	@,
 1586              	@ ../Libraries/STM32F4xx_StdPeriph_Driver/src/stm32f4xx_usart.c:545:   USARTx->DR = (Data & (uint16
 543:../Libraries/STM32F4xx_StdPeriph_Driver/src/stm32f4xx_usart.c ****     
 544:../Libraries/STM32F4xx_StdPeriph_Driver/src/stm32f4xx_usart.c ****   /* Transmit Data */
 545:../Libraries/STM32F4xx_StdPeriph_Driver/src/stm32f4xx_usart.c ****   USARTx->DR = (Data & (uint16_t)0x01FF);
 1587              		.loc 1 545 22 is_stmt 0 discriminator 14 view .LVU352
 1588 0048 C4F30804 		ubfx	r4, r4, #0, #9	@ _3, Data,,
 1589              	@ ../Libraries/STM32F4xx_StdPeriph_Driver/src/stm32f4xx_usart.c:542:   assert_param(IS_USART_DATA(D
 542:../Libraries/STM32F4xx_StdPeriph_Driver/src/stm32f4xx_usart.c ****   assert_param(IS_USART_DATA(Data)); 
 1590              		.loc 1 542 3 discriminator 14 view .LVU353
 1591 004c FFF7FEFF 		bl	assert_param		@
 1592              	.LVL120:
 1593              		.loc 1 545 3 is_stmt 1 discriminator 14 view .LVU354
 1594              	@ ../Libraries/STM32F4xx_StdPeriph_Driver/src/stm32f4xx_usart.c:545:   USARTx->DR = (Data & (uint16
 1595              		.loc 1 545 14 is_stmt 0 discriminator 14 view .LVU355
 1596 0050 AC80     		strh	r4, [r5, #4]	@ movhi	@ _3, USARTx_5(D)->DR
 1597              	@ ../Libraries/STM32F4xx_StdPeriph_Driver/src/stm32f4xx_usart.c:546: }
 546:../Libraries/STM32F4xx_StdPeriph_Driver/src/stm32f4xx_usart.c **** }
 1598              		.loc 1 546 1 discriminator 14 view .LVU356
 1599 0052 38BD     		pop	{r3, r4, r5, pc}	@
 1600              	.LVL121:
 1601              	.L108:
 1602              		.loc 1 546 1 discriminator 14 view .LVU357
 1603              		.align	2
 1604              	.L107:
ARM GAS  C:\Users\admin\AppData\Local\Temp\ccwrrJFc.s 			page 41


 1605 0054 00100140 		.word	1073811456
 1606 0058 00140140 		.word	1073812480
 1607              		.cfi_endproc
 1608              	.LFE119:
 1609              		.size	USART_SendData, .-USART_SendData
 1610              		.section	.text.USART_ReceiveData,"ax",%progbits
 1611              		.align	1
 1612              		.p2align 2,,3
 1613              		.global	USART_ReceiveData
 1614              		.syntax unified
 1615              		.thumb
 1616              		.thumb_func
 1617              		.type	USART_ReceiveData, %function
 1618              	USART_ReceiveData:
 1619              	.LVL122:
 1620              	.LFB120:
 547:../Libraries/STM32F4xx_StdPeriph_Driver/src/stm32f4xx_usart.c **** 
 548:../Libraries/STM32F4xx_StdPeriph_Driver/src/stm32f4xx_usart.c **** /**
 549:../Libraries/STM32F4xx_StdPeriph_Driver/src/stm32f4xx_usart.c ****   * @brief  Returns the most recent received data by the USARTx peripheral.
 550:../Libraries/STM32F4xx_StdPeriph_Driver/src/stm32f4xx_usart.c ****   * @param  USARTx: where x can be 1, 2, 3, 4, 5 or 6 to select the USART or 
 551:../Libraries/STM32F4xx_StdPeriph_Driver/src/stm32f4xx_usart.c ****   *         UART peripheral.
 552:../Libraries/STM32F4xx_StdPeriph_Driver/src/stm32f4xx_usart.c ****   * @retval The received data.
 553:../Libraries/STM32F4xx_StdPeriph_Driver/src/stm32f4xx_usart.c ****   */
 554:../Libraries/STM32F4xx_StdPeriph_Driver/src/stm32f4xx_usart.c **** uint16_t USART_ReceiveData(USART_TypeDef* USARTx)
 555:../Libraries/STM32F4xx_StdPeriph_Driver/src/stm32f4xx_usart.c **** {
 1621              		.loc 1 555 1 is_stmt 1 view -0
 1622              		.cfi_startproc
 1623              		@ args = 0, pretend = 0, frame = 0
 1624              		@ frame_needed = 0, uses_anonymous_args = 0
 556:../Libraries/STM32F4xx_StdPeriph_Driver/src/stm32f4xx_usart.c ****   /* Check the parameters */
 557:../Libraries/STM32F4xx_StdPeriph_Driver/src/stm32f4xx_usart.c ****   assert_param(IS_USART_ALL_PERIPH(USARTx));
 1625              		.loc 1 557 3 view .LVU359
 1626 0000 134B     		ldr	r3, .L117	@ tmp118,
 1627 0002 9842     		cmp	r0, r3	@ USARTx, tmp118
 1628              	@ ../Libraries/STM32F4xx_StdPeriph_Driver/src/stm32f4xx_usart.c:555: {
 555:../Libraries/STM32F4xx_StdPeriph_Driver/src/stm32f4xx_usart.c ****   /* Check the parameters */
 1629              		.loc 1 555 1 is_stmt 0 view .LVU360
 1630 0004 10B5     		push	{r4, lr}	@
 1631              		.cfi_def_cfa_offset 8
 1632              		.cfi_offset 4, -8
 1633              		.cfi_offset 14, -4
 1634              	@ ../Libraries/STM32F4xx_StdPeriph_Driver/src/stm32f4xx_usart.c:555: {
 555:../Libraries/STM32F4xx_StdPeriph_Driver/src/stm32f4xx_usart.c ****   /* Check the parameters */
 1635              		.loc 1 555 1 view .LVU361
 1636 0006 0446     		mov	r4, r0	@ USARTx, tmp132
 1637              	@ ../Libraries/STM32F4xx_StdPeriph_Driver/src/stm32f4xx_usart.c:557:   assert_param(IS_USART_ALL_PE
 1638              		.loc 1 557 3 view .LVU362
 1639 0008 1AD0     		beq	.L115		@,
 1640              	@ ../Libraries/STM32F4xx_StdPeriph_Driver/src/stm32f4xx_usart.c:557:   assert_param(IS_USART_ALL_PE
 1641              		.loc 1 557 16 discriminator 2 view .LVU363
 1642 000a A3F54C43 		sub	r3, r3, #52224	@ tmp119, tmp119,
 1643 000e 9842     		cmp	r0, r3	@ USARTx, tmp119
 1644 0010 16D0     		beq	.L115		@,
 1645              	@ ../Libraries/STM32F4xx_StdPeriph_Driver/src/stm32f4xx_usart.c:557:   assert_param(IS_USART_ALL_PE
 1646              		.loc 1 557 16 discriminator 4 view .LVU364
 1647 0012 03F58063 		add	r3, r3, #1024	@ tmp120, tmp120,
 1648 0016 9842     		cmp	r0, r3	@ USARTx, tmp120
ARM GAS  C:\Users\admin\AppData\Local\Temp\ccwrrJFc.s 			page 42


 1649 0018 12D0     		beq	.L115		@,
 1650              	@ ../Libraries/STM32F4xx_StdPeriph_Driver/src/stm32f4xx_usart.c:557:   assert_param(IS_USART_ALL_PE
 1651              		.loc 1 557 16 discriminator 6 view .LVU365
 1652 001a 03F58063 		add	r3, r3, #1024	@ tmp121, tmp121,
 1653 001e 9842     		cmp	r0, r3	@ USARTx, tmp121
 1654 0020 0ED0     		beq	.L115		@,
 1655              	@ ../Libraries/STM32F4xx_StdPeriph_Driver/src/stm32f4xx_usart.c:557:   assert_param(IS_USART_ALL_PE
 1656              		.loc 1 557 16 discriminator 8 view .LVU366
 1657 0022 03F58063 		add	r3, r3, #1024	@ tmp122, tmp122,
 1658 0026 9842     		cmp	r0, r3	@ USARTx, tmp122
 1659 0028 0AD0     		beq	.L115		@,
 1660              	@ ../Libraries/STM32F4xx_StdPeriph_Driver/src/stm32f4xx_usart.c:557:   assert_param(IS_USART_ALL_PE
 1661              		.loc 1 557 3 discriminator 10 view .LVU367
 1662 002a 0A48     		ldr	r0, .L117+4	@ tmp125,
 1663              	.LVL123:
 1664              		.loc 1 557 3 discriminator 10 view .LVU368
 1665 002c 201A     		subs	r0, r4, r0	@ iftmp.18_2, USARTx, tmp125
 1666 002e B0FA80F0 		clz	r0, r0	@ iftmp.18_2, iftmp.18_2
 1667 0032 4009     		lsrs	r0, r0, #5	@ iftmp.18_2, iftmp.18_2,
 1668 0034 FFF7FEFF 		bl	assert_param		@
 1669              	.LVL124:
 558:../Libraries/STM32F4xx_StdPeriph_Driver/src/stm32f4xx_usart.c ****   
 559:../Libraries/STM32F4xx_StdPeriph_Driver/src/stm32f4xx_usart.c ****   /* Receive Data */
 560:../Libraries/STM32F4xx_StdPeriph_Driver/src/stm32f4xx_usart.c ****   return (uint16_t)(USARTx->DR & (uint16_t)0x01FF);
 1670              		.loc 1 560 3 is_stmt 1 discriminator 10 view .LVU369
 1671              	@ ../Libraries/STM32F4xx_StdPeriph_Driver/src/stm32f4xx_usart.c:560:   return (uint16_t)(USARTx->DR
 1672              		.loc 1 560 27 is_stmt 0 discriminator 10 view .LVU370
 1673 0038 A088     		ldrh	r0, [r4, #4]	@, USARTx_3(D)->DR
 1674              	@ ../Libraries/STM32F4xx_StdPeriph_Driver/src/stm32f4xx_usart.c:561: }
 561:../Libraries/STM32F4xx_StdPeriph_Driver/src/stm32f4xx_usart.c **** }
 1675              		.loc 1 561 1 discriminator 10 view .LVU371
 1676 003a C0F30800 		ubfx	r0, r0, #0, #9	@, USARTx_3(D)->DR,,
 1677 003e 10BD     		pop	{r4, pc}	@
 1678              	.LVL125:
 1679              	.L115:
 1680              	@ ../Libraries/STM32F4xx_StdPeriph_Driver/src/stm32f4xx_usart.c:557:   assert_param(IS_USART_ALL_PE
 557:../Libraries/STM32F4xx_StdPeriph_Driver/src/stm32f4xx_usart.c ****   
 1681              		.loc 1 557 3 view .LVU372
 1682 0040 0120     		movs	r0, #1	@ iftmp.18_2,
 1683              	.LVL126:
 557:../Libraries/STM32F4xx_StdPeriph_Driver/src/stm32f4xx_usart.c ****   
 1684              		.loc 1 557 3 view .LVU373
 1685 0042 FFF7FEFF 		bl	assert_param		@
 1686              	.LVL127:
 560:../Libraries/STM32F4xx_StdPeriph_Driver/src/stm32f4xx_usart.c **** }
 1687              		.loc 1 560 3 is_stmt 1 view .LVU374
 1688              	@ ../Libraries/STM32F4xx_StdPeriph_Driver/src/stm32f4xx_usart.c:560:   return (uint16_t)(USARTx->DR
 560:../Libraries/STM32F4xx_StdPeriph_Driver/src/stm32f4xx_usart.c **** }
 1689              		.loc 1 560 27 is_stmt 0 view .LVU375
 1690 0046 A088     		ldrh	r0, [r4, #4]	@, USARTx_3(D)->DR
 1691              	@ ../Libraries/STM32F4xx_StdPeriph_Driver/src/stm32f4xx_usart.c:561: }
 1692              		.loc 1 561 1 view .LVU376
 1693 0048 C0F30800 		ubfx	r0, r0, #0, #9	@, USARTx_3(D)->DR,,
 1694 004c 10BD     		pop	{r4, pc}	@
 1695              	.LVL128:
 1696              	.L118:
 1697              		.loc 1 561 1 view .LVU377
ARM GAS  C:\Users\admin\AppData\Local\Temp\ccwrrJFc.s 			page 43


 1698 004e 00BF     		.align	2
 1699              	.L117:
 1700 0050 00100140 		.word	1073811456
 1701 0054 00140140 		.word	1073812480
 1702              		.cfi_endproc
 1703              	.LFE120:
 1704              		.size	USART_ReceiveData, .-USART_ReceiveData
 1705              		.section	.text.USART_SetAddress,"ax",%progbits
 1706              		.align	1
 1707              		.p2align 2,,3
 1708              		.global	USART_SetAddress
 1709              		.syntax unified
 1710              		.thumb
 1711              		.thumb_func
 1712              		.type	USART_SetAddress, %function
 1713              	USART_SetAddress:
 1714              	.LVL129:
 1715              	.LFB121:
 562:../Libraries/STM32F4xx_StdPeriph_Driver/src/stm32f4xx_usart.c **** 
 563:../Libraries/STM32F4xx_StdPeriph_Driver/src/stm32f4xx_usart.c **** /**
 564:../Libraries/STM32F4xx_StdPeriph_Driver/src/stm32f4xx_usart.c ****   * @}
 565:../Libraries/STM32F4xx_StdPeriph_Driver/src/stm32f4xx_usart.c ****   */
 566:../Libraries/STM32F4xx_StdPeriph_Driver/src/stm32f4xx_usart.c **** 
 567:../Libraries/STM32F4xx_StdPeriph_Driver/src/stm32f4xx_usart.c **** /** @defgroup USART_Group3 MultiProcessor Communication functions
 568:../Libraries/STM32F4xx_StdPeriph_Driver/src/stm32f4xx_usart.c ****  *  @brief   Multi-Processor Communication functions 
 569:../Libraries/STM32F4xx_StdPeriph_Driver/src/stm32f4xx_usart.c ****  *
 570:../Libraries/STM32F4xx_StdPeriph_Driver/src/stm32f4xx_usart.c **** @verbatim   
 571:../Libraries/STM32F4xx_StdPeriph_Driver/src/stm32f4xx_usart.c ****  ===============================================================================
 572:../Libraries/STM32F4xx_StdPeriph_Driver/src/stm32f4xx_usart.c ****                     Multi-Processor Communication functions
 573:../Libraries/STM32F4xx_StdPeriph_Driver/src/stm32f4xx_usart.c ****  ===============================================================================  
 574:../Libraries/STM32F4xx_StdPeriph_Driver/src/stm32f4xx_usart.c **** 
 575:../Libraries/STM32F4xx_StdPeriph_Driver/src/stm32f4xx_usart.c ****   This subsection provides a set of functions allowing to manage the USART 
 576:../Libraries/STM32F4xx_StdPeriph_Driver/src/stm32f4xx_usart.c ****   multiprocessor communication.
 577:../Libraries/STM32F4xx_StdPeriph_Driver/src/stm32f4xx_usart.c ****   
 578:../Libraries/STM32F4xx_StdPeriph_Driver/src/stm32f4xx_usart.c ****   For instance one of the USARTs can be the master, its TX output is connected to 
 579:../Libraries/STM32F4xx_StdPeriph_Driver/src/stm32f4xx_usart.c ****   the RX input of the other USART. The others are slaves, their respective TX outputs 
 580:../Libraries/STM32F4xx_StdPeriph_Driver/src/stm32f4xx_usart.c ****   are logically ANDed together and connected to the RX input of the master.
 581:../Libraries/STM32F4xx_StdPeriph_Driver/src/stm32f4xx_usart.c **** 
 582:../Libraries/STM32F4xx_StdPeriph_Driver/src/stm32f4xx_usart.c ****   USART multiprocessor communication is possible through the following procedure:
 583:../Libraries/STM32F4xx_StdPeriph_Driver/src/stm32f4xx_usart.c ****      1. Program the Baud rate, Word length = 9 bits, Stop bits, Parity, Mode transmitter 
 584:../Libraries/STM32F4xx_StdPeriph_Driver/src/stm32f4xx_usart.c ****         or Mode receiver and hardware flow control values using the USART_Init()
 585:../Libraries/STM32F4xx_StdPeriph_Driver/src/stm32f4xx_usart.c ****         function.
 586:../Libraries/STM32F4xx_StdPeriph_Driver/src/stm32f4xx_usart.c ****      2. Configures the USART address using the USART_SetAddress() function.
 587:../Libraries/STM32F4xx_StdPeriph_Driver/src/stm32f4xx_usart.c ****      3. Configures the wake up method (USART_WakeUp_IdleLine or USART_WakeUp_AddressMark)
 588:../Libraries/STM32F4xx_StdPeriph_Driver/src/stm32f4xx_usart.c ****         using USART_WakeUpConfig() function only for the slaves.
 589:../Libraries/STM32F4xx_StdPeriph_Driver/src/stm32f4xx_usart.c ****      4. Enable the USART using the USART_Cmd() function.
 590:../Libraries/STM32F4xx_StdPeriph_Driver/src/stm32f4xx_usart.c ****      5. Enter the USART slaves in mute mode using USART_ReceiverWakeUpCmd() function.
 591:../Libraries/STM32F4xx_StdPeriph_Driver/src/stm32f4xx_usart.c **** 
 592:../Libraries/STM32F4xx_StdPeriph_Driver/src/stm32f4xx_usart.c ****   The USART Slave exit from mute mode when receive the wake up condition.
 593:../Libraries/STM32F4xx_StdPeriph_Driver/src/stm32f4xx_usart.c **** 
 594:../Libraries/STM32F4xx_StdPeriph_Driver/src/stm32f4xx_usart.c **** @endverbatim
 595:../Libraries/STM32F4xx_StdPeriph_Driver/src/stm32f4xx_usart.c ****   * @{
 596:../Libraries/STM32F4xx_StdPeriph_Driver/src/stm32f4xx_usart.c ****   */
 597:../Libraries/STM32F4xx_StdPeriph_Driver/src/stm32f4xx_usart.c **** 
 598:../Libraries/STM32F4xx_StdPeriph_Driver/src/stm32f4xx_usart.c **** /**
 599:../Libraries/STM32F4xx_StdPeriph_Driver/src/stm32f4xx_usart.c ****   * @brief  Sets the address of the USART node.
 600:../Libraries/STM32F4xx_StdPeriph_Driver/src/stm32f4xx_usart.c ****   * @param  USARTx: where x can be 1, 2, 3, 4, 5 or 6 to select the USART or 
ARM GAS  C:\Users\admin\AppData\Local\Temp\ccwrrJFc.s 			page 44


 601:../Libraries/STM32F4xx_StdPeriph_Driver/src/stm32f4xx_usart.c ****   *         UART peripheral.
 602:../Libraries/STM32F4xx_StdPeriph_Driver/src/stm32f4xx_usart.c ****   * @param  USART_Address: Indicates the address of the USART node.
 603:../Libraries/STM32F4xx_StdPeriph_Driver/src/stm32f4xx_usart.c ****   * @retval None
 604:../Libraries/STM32F4xx_StdPeriph_Driver/src/stm32f4xx_usart.c ****   */
 605:../Libraries/STM32F4xx_StdPeriph_Driver/src/stm32f4xx_usart.c **** void USART_SetAddress(USART_TypeDef* USARTx, uint8_t USART_Address)
 606:../Libraries/STM32F4xx_StdPeriph_Driver/src/stm32f4xx_usart.c **** {
 1716              		.loc 1 606 1 is_stmt 1 view -0
 1717              		.cfi_startproc
 1718              		@ args = 0, pretend = 0, frame = 0
 1719              		@ frame_needed = 0, uses_anonymous_args = 0
 607:../Libraries/STM32F4xx_StdPeriph_Driver/src/stm32f4xx_usart.c ****   /* Check the parameters */
 608:../Libraries/STM32F4xx_StdPeriph_Driver/src/stm32f4xx_usart.c ****   assert_param(IS_USART_ALL_PERIPH(USARTx));
 1720              		.loc 1 608 3 view .LVU379
 1721              	@ ../Libraries/STM32F4xx_StdPeriph_Driver/src/stm32f4xx_usart.c:606: {
 606:../Libraries/STM32F4xx_StdPeriph_Driver/src/stm32f4xx_usart.c ****   /* Check the parameters */
 1722              		.loc 1 606 1 is_stmt 0 view .LVU380
 1723 0000 38B5     		push	{r3, r4, r5, lr}	@
 1724              		.cfi_def_cfa_offset 16
 1725              		.cfi_offset 3, -16
 1726              		.cfi_offset 4, -12
 1727              		.cfi_offset 5, -8
 1728              		.cfi_offset 14, -4
 1729              	@ ../Libraries/STM32F4xx_StdPeriph_Driver/src/stm32f4xx_usart.c:608:   assert_param(IS_USART_ALL_PE
 1730              		.loc 1 608 3 view .LVU381
 1731 0002 184B     		ldr	r3, .L127	@ tmp124,
 1732 0004 9842     		cmp	r0, r3	@ USARTx, tmp124
 1733              	@ ../Libraries/STM32F4xx_StdPeriph_Driver/src/stm32f4xx_usart.c:606: {
 606:../Libraries/STM32F4xx_StdPeriph_Driver/src/stm32f4xx_usart.c ****   /* Check the parameters */
 1734              		.loc 1 606 1 view .LVU382
 1735 0006 0446     		mov	r4, r0	@ USARTx, tmp145
 1736 0008 0D46     		mov	r5, r1	@ USART_Address, tmp146
 1737              	@ ../Libraries/STM32F4xx_StdPeriph_Driver/src/stm32f4xx_usart.c:608:   assert_param(IS_USART_ALL_PE
 1738              		.loc 1 608 3 view .LVU383
 1739 000a 15D0     		beq	.L125		@,
 1740              	@ ../Libraries/STM32F4xx_StdPeriph_Driver/src/stm32f4xx_usart.c:608:   assert_param(IS_USART_ALL_PE
 1741              		.loc 1 608 16 discriminator 2 view .LVU384
 1742 000c A3F54C43 		sub	r3, r3, #52224	@ tmp125, tmp125,
 1743 0010 9842     		cmp	r0, r3	@ USARTx, tmp125
 1744 0012 11D0     		beq	.L125		@,
 1745              	@ ../Libraries/STM32F4xx_StdPeriph_Driver/src/stm32f4xx_usart.c:608:   assert_param(IS_USART_ALL_PE
 1746              		.loc 1 608 16 discriminator 4 view .LVU385
 1747 0014 03F58063 		add	r3, r3, #1024	@ tmp126, tmp126,
 1748 0018 9842     		cmp	r0, r3	@ USARTx, tmp126
 1749 001a 0DD0     		beq	.L125		@,
 1750              	@ ../Libraries/STM32F4xx_StdPeriph_Driver/src/stm32f4xx_usart.c:608:   assert_param(IS_USART_ALL_PE
 1751              		.loc 1 608 16 discriminator 6 view .LVU386
 1752 001c 03F58063 		add	r3, r3, #1024	@ tmp127, tmp127,
 1753 0020 9842     		cmp	r0, r3	@ USARTx, tmp127
 1754 0022 09D0     		beq	.L125		@,
 1755              	@ ../Libraries/STM32F4xx_StdPeriph_Driver/src/stm32f4xx_usart.c:608:   assert_param(IS_USART_ALL_PE
 1756              		.loc 1 608 16 discriminator 8 view .LVU387
 1757 0024 03F58063 		add	r3, r3, #1024	@ tmp128, tmp128,
 1758 0028 9842     		cmp	r0, r3	@ USARTx, tmp128
 1759 002a 05D0     		beq	.L125		@,
 1760              	@ ../Libraries/STM32F4xx_StdPeriph_Driver/src/stm32f4xx_usart.c:608:   assert_param(IS_USART_ALL_PE
 1761              		.loc 1 608 3 discriminator 10 view .LVU388
 1762 002c 0E48     		ldr	r0, .L127+4	@ tmp131,
ARM GAS  C:\Users\admin\AppData\Local\Temp\ccwrrJFc.s 			page 45


 1763              	.LVL130:
 1764              		.loc 1 608 3 discriminator 10 view .LVU389
 1765 002e 201A     		subs	r0, r4, r0	@ iftmp.19_8, USARTx, tmp131
 1766 0030 B0FA80F0 		clz	r0, r0	@ iftmp.19_8, iftmp.19_8
 1767 0034 4009     		lsrs	r0, r0, #5	@ iftmp.19_8, iftmp.19_8,
 1768 0036 00E0     		b	.L120		@
 1769              	.LVL131:
 1770              	.L125:
 1771              	@ ../Libraries/STM32F4xx_StdPeriph_Driver/src/stm32f4xx_usart.c:608:   assert_param(IS_USART_ALL_PE
 1772              		.loc 1 608 3 view .LVU390
 1773 0038 0120     		movs	r0, #1	@ iftmp.19_8,
 1774              	.LVL132:
 1775              	.L120:
 1776              	@ ../Libraries/STM32F4xx_StdPeriph_Driver/src/stm32f4xx_usart.c:608:   assert_param(IS_USART_ALL_PE
 1777              		.loc 1 608 3 discriminator 14 view .LVU391
 1778 003a FFF7FEFF 		bl	assert_param		@
 1779              	.LVL133:
 609:../Libraries/STM32F4xx_StdPeriph_Driver/src/stm32f4xx_usart.c ****   assert_param(IS_USART_ADDRESS(USART_Address)); 
 1780              		.loc 1 609 3 is_stmt 1 discriminator 14 view .LVU392
 1781 003e 0F2D     		cmp	r5, #15	@ USART_Address,
 1782 0040 8CBF     		ite	hi
 1783 0042 0020     		movhi	r0, #0	@,
 1784 0044 0120     		movls	r0, #1	@,
 1785 0046 FFF7FEFF 		bl	assert_param		@
 1786              	.LVL134:
 610:../Libraries/STM32F4xx_StdPeriph_Driver/src/stm32f4xx_usart.c ****     
 611:../Libraries/STM32F4xx_StdPeriph_Driver/src/stm32f4xx_usart.c ****   /* Clear the USART address */
 612:../Libraries/STM32F4xx_StdPeriph_Driver/src/stm32f4xx_usart.c ****   USARTx->CR2 &= (uint16_t)~((uint16_t)USART_CR2_ADD);
 1787              		.loc 1 612 3 discriminator 14 view .LVU393
 1788              	@ ../Libraries/STM32F4xx_StdPeriph_Driver/src/stm32f4xx_usart.c:612:   USARTx->CR2 &= (uint16_t)~((
 1789              		.loc 1 612 15 is_stmt 0 discriminator 14 view .LVU394
 1790 004a 238A     		ldrh	r3, [r4, #16]	@, USARTx_9(D)->CR2
 1791 004c 23F00F03 		bic	r3, r3, #15	@ _4, USARTx_9(D)->CR2,
 1792 0050 1B04     		lsls	r3, r3, #16	@ _4, _4,
 1793 0052 1B0C     		lsrs	r3, r3, #16	@ _4, _4,
 1794 0054 2382     		strh	r3, [r4, #16]	@ movhi	@ _4, USARTx_9(D)->CR2
 613:../Libraries/STM32F4xx_StdPeriph_Driver/src/stm32f4xx_usart.c ****   /* Set the USART address node */
 614:../Libraries/STM32F4xx_StdPeriph_Driver/src/stm32f4xx_usart.c ****   USARTx->CR2 |= USART_Address;
 1795              		.loc 1 614 3 is_stmt 1 discriminator 14 view .LVU395
 1796              	@ ../Libraries/STM32F4xx_StdPeriph_Driver/src/stm32f4xx_usart.c:614:   USARTx->CR2 |= USART_Address
 1797              		.loc 1 614 15 is_stmt 0 discriminator 14 view .LVU396
 1798 0056 238A     		ldrh	r3, [r4, #16]	@, USARTx_9(D)->CR2
 1799 0058 9BB2     		uxth	r3, r3	@ _5, USARTx_9(D)->CR2
 1800 005a 43EA0501 		orr	r1, r3, r5	@ _7, _5, USART_Address
 1801 005e 2182     		strh	r1, [r4, #16]	@ movhi	@ _7, USARTx_9(D)->CR2
 1802              	@ ../Libraries/STM32F4xx_StdPeriph_Driver/src/stm32f4xx_usart.c:615: }
 615:../Libraries/STM32F4xx_StdPeriph_Driver/src/stm32f4xx_usart.c **** }
 1803              		.loc 1 615 1 discriminator 14 view .LVU397
 1804 0060 38BD     		pop	{r3, r4, r5, pc}	@
 1805              	.LVL135:
 1806              	.L128:
 1807              		.loc 1 615 1 discriminator 14 view .LVU398
 1808 0062 00BF     		.align	2
 1809              	.L127:
 1810 0064 00100140 		.word	1073811456
 1811 0068 00140140 		.word	1073812480
 1812              		.cfi_endproc
ARM GAS  C:\Users\admin\AppData\Local\Temp\ccwrrJFc.s 			page 46


 1813              	.LFE121:
 1814              		.size	USART_SetAddress, .-USART_SetAddress
 1815              		.section	.text.USART_ReceiverWakeUpCmd,"ax",%progbits
 1816              		.align	1
 1817              		.p2align 2,,3
 1818              		.global	USART_ReceiverWakeUpCmd
 1819              		.syntax unified
 1820              		.thumb
 1821              		.thumb_func
 1822              		.type	USART_ReceiverWakeUpCmd, %function
 1823              	USART_ReceiverWakeUpCmd:
 1824              	.LVL136:
 1825              	.LFB122:
 616:../Libraries/STM32F4xx_StdPeriph_Driver/src/stm32f4xx_usart.c **** 
 617:../Libraries/STM32F4xx_StdPeriph_Driver/src/stm32f4xx_usart.c **** /**
 618:../Libraries/STM32F4xx_StdPeriph_Driver/src/stm32f4xx_usart.c ****   * @brief  Determines if the USART is in mute mode or not.
 619:../Libraries/STM32F4xx_StdPeriph_Driver/src/stm32f4xx_usart.c ****   * @param  USARTx: where x can be 1, 2, 3, 4, 5 or 6 to select the USART or 
 620:../Libraries/STM32F4xx_StdPeriph_Driver/src/stm32f4xx_usart.c ****   *         UART peripheral.
 621:../Libraries/STM32F4xx_StdPeriph_Driver/src/stm32f4xx_usart.c ****   * @param  NewState: new state of the USART mute mode.
 622:../Libraries/STM32F4xx_StdPeriph_Driver/src/stm32f4xx_usart.c ****   *          This parameter can be: ENABLE or DISABLE.
 623:../Libraries/STM32F4xx_StdPeriph_Driver/src/stm32f4xx_usart.c ****   * @retval None
 624:../Libraries/STM32F4xx_StdPeriph_Driver/src/stm32f4xx_usart.c ****   */
 625:../Libraries/STM32F4xx_StdPeriph_Driver/src/stm32f4xx_usart.c **** void USART_ReceiverWakeUpCmd(USART_TypeDef* USARTx, FunctionalState NewState)
 626:../Libraries/STM32F4xx_StdPeriph_Driver/src/stm32f4xx_usart.c **** {
 1826              		.loc 1 626 1 is_stmt 1 view -0
 1827              		.cfi_startproc
 1828              		@ args = 0, pretend = 0, frame = 0
 1829              		@ frame_needed = 0, uses_anonymous_args = 0
 627:../Libraries/STM32F4xx_StdPeriph_Driver/src/stm32f4xx_usart.c ****   /* Check the parameters */
 628:../Libraries/STM32F4xx_StdPeriph_Driver/src/stm32f4xx_usart.c ****   assert_param(IS_USART_ALL_PERIPH(USARTx));
 1830              		.loc 1 628 3 view .LVU400
 1831              	@ ../Libraries/STM32F4xx_StdPeriph_Driver/src/stm32f4xx_usart.c:626: {
 626:../Libraries/STM32F4xx_StdPeriph_Driver/src/stm32f4xx_usart.c ****   /* Check the parameters */
 1832              		.loc 1 626 1 is_stmt 0 view .LVU401
 1833 0000 38B5     		push	{r3, r4, r5, lr}	@
 1834              		.cfi_def_cfa_offset 16
 1835              		.cfi_offset 3, -16
 1836              		.cfi_offset 4, -12
 1837              		.cfi_offset 5, -8
 1838              		.cfi_offset 14, -4
 1839              	@ ../Libraries/STM32F4xx_StdPeriph_Driver/src/stm32f4xx_usart.c:628:   assert_param(IS_USART_ALL_PE
 1840              		.loc 1 628 3 view .LVU402
 1841 0002 184B     		ldr	r3, .L139	@ tmp123,
 1842 0004 9842     		cmp	r0, r3	@ USARTx, tmp123
 1843              	@ ../Libraries/STM32F4xx_StdPeriph_Driver/src/stm32f4xx_usart.c:626: {
 626:../Libraries/STM32F4xx_StdPeriph_Driver/src/stm32f4xx_usart.c ****   /* Check the parameters */
 1844              		.loc 1 626 1 view .LVU403
 1845 0006 0446     		mov	r4, r0	@ USARTx, tmp143
 1846 0008 0D46     		mov	r5, r1	@ NewState, tmp144
 1847              	@ ../Libraries/STM32F4xx_StdPeriph_Driver/src/stm32f4xx_usart.c:628:   assert_param(IS_USART_ALL_PE
 1848              		.loc 1 628 3 view .LVU404
 1849 000a 15D0     		beq	.L137		@,
 1850              	@ ../Libraries/STM32F4xx_StdPeriph_Driver/src/stm32f4xx_usart.c:628:   assert_param(IS_USART_ALL_PE
 1851              		.loc 1 628 16 discriminator 2 view .LVU405
 1852 000c A3F54C43 		sub	r3, r3, #52224	@ tmp124, tmp124,
 1853 0010 9842     		cmp	r0, r3	@ USARTx, tmp124
 1854 0012 11D0     		beq	.L137		@,
ARM GAS  C:\Users\admin\AppData\Local\Temp\ccwrrJFc.s 			page 47


 1855              	@ ../Libraries/STM32F4xx_StdPeriph_Driver/src/stm32f4xx_usart.c:628:   assert_param(IS_USART_ALL_PE
 1856              		.loc 1 628 16 discriminator 4 view .LVU406
 1857 0014 03F58063 		add	r3, r3, #1024	@ tmp125, tmp125,
 1858 0018 9842     		cmp	r0, r3	@ USARTx, tmp125
 1859 001a 0DD0     		beq	.L137		@,
 1860              	@ ../Libraries/STM32F4xx_StdPeriph_Driver/src/stm32f4xx_usart.c:628:   assert_param(IS_USART_ALL_PE
 1861              		.loc 1 628 16 discriminator 6 view .LVU407
 1862 001c 03F58063 		add	r3, r3, #1024	@ tmp126, tmp126,
 1863 0020 9842     		cmp	r0, r3	@ USARTx, tmp126
 1864 0022 09D0     		beq	.L137		@,
 1865              	@ ../Libraries/STM32F4xx_StdPeriph_Driver/src/stm32f4xx_usart.c:628:   assert_param(IS_USART_ALL_PE
 1866              		.loc 1 628 16 discriminator 8 view .LVU408
 1867 0024 03F58063 		add	r3, r3, #1024	@ tmp127, tmp127,
 1868 0028 9842     		cmp	r0, r3	@ USARTx, tmp127
 1869 002a 05D0     		beq	.L137		@,
 1870              	@ ../Libraries/STM32F4xx_StdPeriph_Driver/src/stm32f4xx_usart.c:628:   assert_param(IS_USART_ALL_PE
 1871              		.loc 1 628 3 discriminator 10 view .LVU409
 1872 002c 0E48     		ldr	r0, .L139+4	@ tmp130,
 1873              	.LVL137:
 1874              		.loc 1 628 3 discriminator 10 view .LVU410
 1875 002e 201A     		subs	r0, r4, r0	@ iftmp.20_7, USARTx, tmp130
 1876 0030 B0FA80F0 		clz	r0, r0	@ iftmp.20_7, iftmp.20_7
 1877 0034 4009     		lsrs	r0, r0, #5	@ iftmp.20_7, iftmp.20_7,
 1878 0036 00E0     		b	.L130		@
 1879              	.LVL138:
 1880              	.L137:
 1881              	@ ../Libraries/STM32F4xx_StdPeriph_Driver/src/stm32f4xx_usart.c:628:   assert_param(IS_USART_ALL_PE
 1882              		.loc 1 628 3 view .LVU411
 1883 0038 0120     		movs	r0, #1	@ iftmp.20_7,
 1884              	.LVL139:
 1885              	.L130:
 1886              	@ ../Libraries/STM32F4xx_StdPeriph_Driver/src/stm32f4xx_usart.c:628:   assert_param(IS_USART_ALL_PE
 1887              		.loc 1 628 3 discriminator 14 view .LVU412
 1888 003a FFF7FEFF 		bl	assert_param		@
 1889              	.LVL140:
 629:../Libraries/STM32F4xx_StdPeriph_Driver/src/stm32f4xx_usart.c ****   assert_param(IS_FUNCTIONAL_STATE(NewState)); 
 1890              		.loc 1 629 3 is_stmt 1 discriminator 14 view .LVU413
 1891 003e 012D     		cmp	r5, #1	@ NewState,
 1892 0040 8CBF     		ite	hi
 1893 0042 0020     		movhi	r0, #0	@,
 1894 0044 0120     		movls	r0, #1	@,
 1895 0046 FFF7FEFF 		bl	assert_param		@
 1896              	.LVL141:
 630:../Libraries/STM32F4xx_StdPeriph_Driver/src/stm32f4xx_usart.c ****   
 631:../Libraries/STM32F4xx_StdPeriph_Driver/src/stm32f4xx_usart.c ****   if (NewState != DISABLE)
 1897              		.loc 1 631 3 discriminator 14 view .LVU414
 1898              	@ ../Libraries/STM32F4xx_StdPeriph_Driver/src/stm32f4xx_usart.c:634:     USARTx->CR1 |= USART_CR1_R
 632:../Libraries/STM32F4xx_StdPeriph_Driver/src/stm32f4xx_usart.c ****   {
 633:../Libraries/STM32F4xx_StdPeriph_Driver/src/stm32f4xx_usart.c ****     /* Enable the USART mute mode  by setting the RWU bit in the CR1 register */
 634:../Libraries/STM32F4xx_StdPeriph_Driver/src/stm32f4xx_usart.c ****     USARTx->CR1 |= USART_CR1_RWU;
 1899              		.loc 1 634 17 is_stmt 0 discriminator 14 view .LVU415
 1900 004a A389     		ldrh	r3, [r4, #12]	@,
 1901              	@ ../Libraries/STM32F4xx_StdPeriph_Driver/src/stm32f4xx_usart.c:631:   if (NewState != DISABLE)
 631:../Libraries/STM32F4xx_StdPeriph_Driver/src/stm32f4xx_usart.c ****   {
 1902              		.loc 1 631 6 discriminator 14 view .LVU416
 1903 004c 25B1     		cbz	r5, .L131	@ NewState,
 1904              		.loc 1 634 5 is_stmt 1 view .LVU417
ARM GAS  C:\Users\admin\AppData\Local\Temp\ccwrrJFc.s 			page 48


 1905              	@ ../Libraries/STM32F4xx_StdPeriph_Driver/src/stm32f4xx_usart.c:634:     USARTx->CR1 |= USART_CR1_R
 1906              		.loc 1 634 17 is_stmt 0 view .LVU418
 1907 004e 9BB2     		uxth	r3, r3	@ _3, USARTx_9(D)->CR1
 1908 0050 43F00203 		orr	r3, r3, #2	@ _4, _3,
 1909 0054 A381     		strh	r3, [r4, #12]	@ movhi	@ _4,
 1910              	@ ../Libraries/STM32F4xx_StdPeriph_Driver/src/stm32f4xx_usart.c:641: }
 635:../Libraries/STM32F4xx_StdPeriph_Driver/src/stm32f4xx_usart.c ****   }
 636:../Libraries/STM32F4xx_StdPeriph_Driver/src/stm32f4xx_usart.c ****   else
 637:../Libraries/STM32F4xx_StdPeriph_Driver/src/stm32f4xx_usart.c ****   {
 638:../Libraries/STM32F4xx_StdPeriph_Driver/src/stm32f4xx_usart.c ****     /* Disable the USART mute mode by clearing the RWU bit in the CR1 register */
 639:../Libraries/STM32F4xx_StdPeriph_Driver/src/stm32f4xx_usart.c ****     USARTx->CR1 &= (uint16_t)~((uint16_t)USART_CR1_RWU);
 640:../Libraries/STM32F4xx_StdPeriph_Driver/src/stm32f4xx_usart.c ****   }
 641:../Libraries/STM32F4xx_StdPeriph_Driver/src/stm32f4xx_usart.c **** }
 1911              		.loc 1 641 1 view .LVU419
 1912 0056 38BD     		pop	{r3, r4, r5, pc}	@
 1913              	.LVL142:
 1914              	.L131:
 639:../Libraries/STM32F4xx_StdPeriph_Driver/src/stm32f4xx_usart.c ****   }
 1915              		.loc 1 639 5 is_stmt 1 view .LVU420
 1916              	@ ../Libraries/STM32F4xx_StdPeriph_Driver/src/stm32f4xx_usart.c:639:     USARTx->CR1 &= (uint16_t)~
 639:../Libraries/STM32F4xx_StdPeriph_Driver/src/stm32f4xx_usart.c ****   }
 1917              		.loc 1 639 17 is_stmt 0 view .LVU421
 1918 0058 23F00203 		bic	r3, r3, #2	@ _6, USARTx_9(D)->CR1,
 1919 005c 1B04     		lsls	r3, r3, #16	@ _6, _6,
 1920 005e 1B0C     		lsrs	r3, r3, #16	@ _6, _6,
 1921 0060 A381     		strh	r3, [r4, #12]	@ movhi	@ _6,
 1922              	@ ../Libraries/STM32F4xx_StdPeriph_Driver/src/stm32f4xx_usart.c:641: }
 1923              		.loc 1 641 1 view .LVU422
 1924 0062 38BD     		pop	{r3, r4, r5, pc}	@
 1925              	.LVL143:
 1926              	.L140:
 1927              		.loc 1 641 1 view .LVU423
 1928              		.align	2
 1929              	.L139:
 1930 0064 00100140 		.word	1073811456
 1931 0068 00140140 		.word	1073812480
 1932              		.cfi_endproc
 1933              	.LFE122:
 1934              		.size	USART_ReceiverWakeUpCmd, .-USART_ReceiverWakeUpCmd
 1935              		.section	.text.USART_WakeUpConfig,"ax",%progbits
 1936              		.align	1
 1937              		.p2align 2,,3
 1938              		.global	USART_WakeUpConfig
 1939              		.syntax unified
 1940              		.thumb
 1941              		.thumb_func
 1942              		.type	USART_WakeUpConfig, %function
 1943              	USART_WakeUpConfig:
 1944              	.LVL144:
 1945              	.LFB123:
 642:../Libraries/STM32F4xx_StdPeriph_Driver/src/stm32f4xx_usart.c **** /**
 643:../Libraries/STM32F4xx_StdPeriph_Driver/src/stm32f4xx_usart.c ****   * @brief  Selects the USART WakeUp method.
 644:../Libraries/STM32F4xx_StdPeriph_Driver/src/stm32f4xx_usart.c ****   * @param  USARTx: where x can be 1, 2, 3, 4, 5 or 6 to select the USART or 
 645:../Libraries/STM32F4xx_StdPeriph_Driver/src/stm32f4xx_usart.c ****   *         UART peripheral.
 646:../Libraries/STM32F4xx_StdPeriph_Driver/src/stm32f4xx_usart.c ****   * @param  USART_WakeUp: specifies the USART wakeup method.
 647:../Libraries/STM32F4xx_StdPeriph_Driver/src/stm32f4xx_usart.c ****   *          This parameter can be one of the following values:
 648:../Libraries/STM32F4xx_StdPeriph_Driver/src/stm32f4xx_usart.c ****   *            @arg USART_WakeUp_IdleLine: WakeUp by an idle line detection
ARM GAS  C:\Users\admin\AppData\Local\Temp\ccwrrJFc.s 			page 49


 649:../Libraries/STM32F4xx_StdPeriph_Driver/src/stm32f4xx_usart.c ****   *            @arg USART_WakeUp_AddressMark: WakeUp by an address mark
 650:../Libraries/STM32F4xx_StdPeriph_Driver/src/stm32f4xx_usart.c ****   * @retval None
 651:../Libraries/STM32F4xx_StdPeriph_Driver/src/stm32f4xx_usart.c ****   */
 652:../Libraries/STM32F4xx_StdPeriph_Driver/src/stm32f4xx_usart.c **** void USART_WakeUpConfig(USART_TypeDef* USARTx, uint16_t USART_WakeUp)
 653:../Libraries/STM32F4xx_StdPeriph_Driver/src/stm32f4xx_usart.c **** {
 1946              		.loc 1 653 1 is_stmt 1 view -0
 1947              		.cfi_startproc
 1948              		@ args = 0, pretend = 0, frame = 0
 1949              		@ frame_needed = 0, uses_anonymous_args = 0
 654:../Libraries/STM32F4xx_StdPeriph_Driver/src/stm32f4xx_usart.c ****   /* Check the parameters */
 655:../Libraries/STM32F4xx_StdPeriph_Driver/src/stm32f4xx_usart.c ****   assert_param(IS_USART_ALL_PERIPH(USARTx));
 1950              		.loc 1 655 3 view .LVU425
 1951              	@ ../Libraries/STM32F4xx_StdPeriph_Driver/src/stm32f4xx_usart.c:653: {
 653:../Libraries/STM32F4xx_StdPeriph_Driver/src/stm32f4xx_usart.c ****   /* Check the parameters */
 1952              		.loc 1 653 1 is_stmt 0 view .LVU426
 1953 0000 38B5     		push	{r3, r4, r5, lr}	@
 1954              		.cfi_def_cfa_offset 16
 1955              		.cfi_offset 3, -16
 1956              		.cfi_offset 4, -12
 1957              		.cfi_offset 5, -8
 1958              		.cfi_offset 14, -4
 1959              	@ ../Libraries/STM32F4xx_StdPeriph_Driver/src/stm32f4xx_usart.c:655:   assert_param(IS_USART_ALL_PE
 1960              		.loc 1 655 3 view .LVU427
 1961 0002 184B     		ldr	r3, .L149	@ tmp124,
 1962 0004 9842     		cmp	r0, r3	@ USARTx, tmp124
 1963              	@ ../Libraries/STM32F4xx_StdPeriph_Driver/src/stm32f4xx_usart.c:653: {
 653:../Libraries/STM32F4xx_StdPeriph_Driver/src/stm32f4xx_usart.c ****   /* Check the parameters */
 1964              		.loc 1 653 1 view .LVU428
 1965 0006 0446     		mov	r4, r0	@ USARTx, tmp144
 1966 0008 0D46     		mov	r5, r1	@ USART_WakeUp, tmp145
 1967              	@ ../Libraries/STM32F4xx_StdPeriph_Driver/src/stm32f4xx_usart.c:655:   assert_param(IS_USART_ALL_PE
 1968              		.loc 1 655 3 view .LVU429
 1969 000a 15D0     		beq	.L147		@,
 1970              	@ ../Libraries/STM32F4xx_StdPeriph_Driver/src/stm32f4xx_usart.c:655:   assert_param(IS_USART_ALL_PE
 1971              		.loc 1 655 16 discriminator 2 view .LVU430
 1972 000c A3F54C43 		sub	r3, r3, #52224	@ tmp125, tmp125,
 1973 0010 9842     		cmp	r0, r3	@ USARTx, tmp125
 1974 0012 11D0     		beq	.L147		@,
 1975              	@ ../Libraries/STM32F4xx_StdPeriph_Driver/src/stm32f4xx_usart.c:655:   assert_param(IS_USART_ALL_PE
 1976              		.loc 1 655 16 discriminator 4 view .LVU431
 1977 0014 03F58063 		add	r3, r3, #1024	@ tmp126, tmp126,
 1978 0018 9842     		cmp	r0, r3	@ USARTx, tmp126
 1979 001a 0DD0     		beq	.L147		@,
 1980              	@ ../Libraries/STM32F4xx_StdPeriph_Driver/src/stm32f4xx_usart.c:655:   assert_param(IS_USART_ALL_PE
 1981              		.loc 1 655 16 discriminator 6 view .LVU432
 1982 001c 03F58063 		add	r3, r3, #1024	@ tmp127, tmp127,
 1983 0020 9842     		cmp	r0, r3	@ USARTx, tmp127
 1984 0022 09D0     		beq	.L147		@,
 1985              	@ ../Libraries/STM32F4xx_StdPeriph_Driver/src/stm32f4xx_usart.c:655:   assert_param(IS_USART_ALL_PE
 1986              		.loc 1 655 16 discriminator 8 view .LVU433
 1987 0024 03F58063 		add	r3, r3, #1024	@ tmp128, tmp128,
 1988 0028 9842     		cmp	r0, r3	@ USARTx, tmp128
 1989 002a 05D0     		beq	.L147		@,
 1990              	@ ../Libraries/STM32F4xx_StdPeriph_Driver/src/stm32f4xx_usart.c:655:   assert_param(IS_USART_ALL_PE
 1991              		.loc 1 655 3 discriminator 10 view .LVU434
 1992 002c 0E48     		ldr	r0, .L149+4	@ tmp131,
 1993              	.LVL145:
ARM GAS  C:\Users\admin\AppData\Local\Temp\ccwrrJFc.s 			page 50


 1994              		.loc 1 655 3 discriminator 10 view .LVU435
 1995 002e 201A     		subs	r0, r4, r0	@ iftmp.21_5, USARTx, tmp131
 1996 0030 B0FA80F0 		clz	r0, r0	@ iftmp.21_5, iftmp.21_5
 1997 0034 4009     		lsrs	r0, r0, #5	@ iftmp.21_5, iftmp.21_5,
 1998 0036 00E0     		b	.L142		@
 1999              	.LVL146:
 2000              	.L147:
 2001              	@ ../Libraries/STM32F4xx_StdPeriph_Driver/src/stm32f4xx_usart.c:655:   assert_param(IS_USART_ALL_PE
 2002              		.loc 1 655 3 view .LVU436
 2003 0038 0120     		movs	r0, #1	@ iftmp.21_5,
 2004              	.LVL147:
 2005              	.L142:
 2006              	@ ../Libraries/STM32F4xx_StdPeriph_Driver/src/stm32f4xx_usart.c:655:   assert_param(IS_USART_ALL_PE
 2007              		.loc 1 655 3 discriminator 14 view .LVU437
 2008 003a FFF7FEFF 		bl	assert_param		@
 2009              	.LVL148:
 656:../Libraries/STM32F4xx_StdPeriph_Driver/src/stm32f4xx_usart.c ****   assert_param(IS_USART_WAKEUP(USART_WakeUp));
 2010              		.loc 1 656 3 is_stmt 1 discriminator 14 view .LVU438
 2011 003e 25F40060 		bic	r0, r5, #2048	@ tmp132, USART_WakeUp,
 2012 0042 B0FA80F0 		clz	r0, r0	@, tmp132
 2013 0046 4009     		lsrs	r0, r0, #5	@,,
 2014 0048 FFF7FEFF 		bl	assert_param		@
 2015              	.LVL149:
 657:../Libraries/STM32F4xx_StdPeriph_Driver/src/stm32f4xx_usart.c ****   
 658:../Libraries/STM32F4xx_StdPeriph_Driver/src/stm32f4xx_usart.c ****   USARTx->CR1 &= (uint16_t)~((uint16_t)USART_CR1_WAKE);
 2016              		.loc 1 658 3 discriminator 14 view .LVU439
 2017              	@ ../Libraries/STM32F4xx_StdPeriph_Driver/src/stm32f4xx_usart.c:658:   USARTx->CR1 &= (uint16_t)~((
 2018              		.loc 1 658 15 is_stmt 0 discriminator 14 view .LVU440
 2019 004c A389     		ldrh	r3, [r4, #12]	@, USARTx_7(D)->CR1
 2020 004e 23F40063 		bic	r3, r3, #2048	@ _2, USARTx_7(D)->CR1,
 2021 0052 1B04     		lsls	r3, r3, #16	@ _2, _2,
 2022 0054 1B0C     		lsrs	r3, r3, #16	@ _2, _2,
 2023 0056 A381     		strh	r3, [r4, #12]	@ movhi	@ _2, USARTx_7(D)->CR1
 659:../Libraries/STM32F4xx_StdPeriph_Driver/src/stm32f4xx_usart.c ****   USARTx->CR1 |= USART_WakeUp;
 2024              		.loc 1 659 3 is_stmt 1 discriminator 14 view .LVU441
 2025              	@ ../Libraries/STM32F4xx_StdPeriph_Driver/src/stm32f4xx_usart.c:659:   USARTx->CR1 |= USART_WakeUp;
 2026              		.loc 1 659 15 is_stmt 0 discriminator 14 view .LVU442
 2027 0058 A389     		ldrh	r3, [r4, #12]	@, USARTx_7(D)->CR1
 2028 005a 9BB2     		uxth	r3, r3	@ _3, USARTx_7(D)->CR1
 2029 005c 43EA0501 		orr	r1, r3, r5	@ _4, _3, USART_WakeUp
 2030 0060 A181     		strh	r1, [r4, #12]	@ movhi	@ _4, USARTx_7(D)->CR1
 2031              	@ ../Libraries/STM32F4xx_StdPeriph_Driver/src/stm32f4xx_usart.c:660: }
 660:../Libraries/STM32F4xx_StdPeriph_Driver/src/stm32f4xx_usart.c **** }
 2032              		.loc 1 660 1 discriminator 14 view .LVU443
 2033 0062 38BD     		pop	{r3, r4, r5, pc}	@
 2034              	.LVL150:
 2035              	.L150:
 2036              		.loc 1 660 1 discriminator 14 view .LVU444
 2037              		.align	2
 2038              	.L149:
 2039 0064 00100140 		.word	1073811456
 2040 0068 00140140 		.word	1073812480
 2041              		.cfi_endproc
 2042              	.LFE123:
 2043              		.size	USART_WakeUpConfig, .-USART_WakeUpConfig
 2044              		.section	.text.USART_LINBreakDetectLengthConfig,"ax",%progbits
 2045              		.align	1
ARM GAS  C:\Users\admin\AppData\Local\Temp\ccwrrJFc.s 			page 51


 2046              		.p2align 2,,3
 2047              		.global	USART_LINBreakDetectLengthConfig
 2048              		.syntax unified
 2049              		.thumb
 2050              		.thumb_func
 2051              		.type	USART_LINBreakDetectLengthConfig, %function
 2052              	USART_LINBreakDetectLengthConfig:
 2053              	.LVL151:
 2054              	.LFB124:
 661:../Libraries/STM32F4xx_StdPeriph_Driver/src/stm32f4xx_usart.c **** 
 662:../Libraries/STM32F4xx_StdPeriph_Driver/src/stm32f4xx_usart.c **** /**
 663:../Libraries/STM32F4xx_StdPeriph_Driver/src/stm32f4xx_usart.c ****   * @}
 664:../Libraries/STM32F4xx_StdPeriph_Driver/src/stm32f4xx_usart.c ****   */
 665:../Libraries/STM32F4xx_StdPeriph_Driver/src/stm32f4xx_usart.c **** 
 666:../Libraries/STM32F4xx_StdPeriph_Driver/src/stm32f4xx_usart.c **** /** @defgroup USART_Group4 LIN mode functions
 667:../Libraries/STM32F4xx_StdPeriph_Driver/src/stm32f4xx_usart.c ****  *  @brief   LIN mode functions 
 668:../Libraries/STM32F4xx_StdPeriph_Driver/src/stm32f4xx_usart.c ****  *
 669:../Libraries/STM32F4xx_StdPeriph_Driver/src/stm32f4xx_usart.c **** @verbatim   
 670:../Libraries/STM32F4xx_StdPeriph_Driver/src/stm32f4xx_usart.c ****  ===============================================================================
 671:../Libraries/STM32F4xx_StdPeriph_Driver/src/stm32f4xx_usart.c ****                                 LIN mode functions
 672:../Libraries/STM32F4xx_StdPeriph_Driver/src/stm32f4xx_usart.c ****  ===============================================================================  
 673:../Libraries/STM32F4xx_StdPeriph_Driver/src/stm32f4xx_usart.c **** 
 674:../Libraries/STM32F4xx_StdPeriph_Driver/src/stm32f4xx_usart.c ****   This subsection provides a set of functions allowing to manage the USART LIN 
 675:../Libraries/STM32F4xx_StdPeriph_Driver/src/stm32f4xx_usart.c ****   Mode communication.
 676:../Libraries/STM32F4xx_StdPeriph_Driver/src/stm32f4xx_usart.c ****   
 677:../Libraries/STM32F4xx_StdPeriph_Driver/src/stm32f4xx_usart.c ****   In LIN mode, 8-bit data format with 1 stop bit is required in accordance with 
 678:../Libraries/STM32F4xx_StdPeriph_Driver/src/stm32f4xx_usart.c ****   the LIN standard.
 679:../Libraries/STM32F4xx_StdPeriph_Driver/src/stm32f4xx_usart.c **** 
 680:../Libraries/STM32F4xx_StdPeriph_Driver/src/stm32f4xx_usart.c ****   Only this LIN Feature is supported by the USART IP:
 681:../Libraries/STM32F4xx_StdPeriph_Driver/src/stm32f4xx_usart.c ****     - LIN Master Synchronous Break send capability and LIN slave break detection
 682:../Libraries/STM32F4xx_StdPeriph_Driver/src/stm32f4xx_usart.c ****       capability :  13-bit break generation and 10/11 bit break detection
 683:../Libraries/STM32F4xx_StdPeriph_Driver/src/stm32f4xx_usart.c **** 
 684:../Libraries/STM32F4xx_StdPeriph_Driver/src/stm32f4xx_usart.c **** 
 685:../Libraries/STM32F4xx_StdPeriph_Driver/src/stm32f4xx_usart.c ****   USART LIN Master transmitter communication is possible through the following procedure:
 686:../Libraries/STM32F4xx_StdPeriph_Driver/src/stm32f4xx_usart.c ****      1. Program the Baud rate, Word length = 8bits, Stop bits = 1bit, Parity, 
 687:../Libraries/STM32F4xx_StdPeriph_Driver/src/stm32f4xx_usart.c ****         Mode transmitter or Mode receiver and hardware flow control values using 
 688:../Libraries/STM32F4xx_StdPeriph_Driver/src/stm32f4xx_usart.c ****         the USART_Init() function.
 689:../Libraries/STM32F4xx_StdPeriph_Driver/src/stm32f4xx_usart.c ****      2. Enable the USART using the USART_Cmd() function.
 690:../Libraries/STM32F4xx_StdPeriph_Driver/src/stm32f4xx_usart.c ****      3. Enable the LIN mode using the USART_LINCmd() function.
 691:../Libraries/STM32F4xx_StdPeriph_Driver/src/stm32f4xx_usart.c ****      4. Send the break character using USART_SendBreak() function.
 692:../Libraries/STM32F4xx_StdPeriph_Driver/src/stm32f4xx_usart.c **** 
 693:../Libraries/STM32F4xx_StdPeriph_Driver/src/stm32f4xx_usart.c ****   USART LIN Master receiver communication is possible through the following procedure:
 694:../Libraries/STM32F4xx_StdPeriph_Driver/src/stm32f4xx_usart.c ****      1. Program the Baud rate, Word length = 8bits, Stop bits = 1bit, Parity, 
 695:../Libraries/STM32F4xx_StdPeriph_Driver/src/stm32f4xx_usart.c ****         Mode transmitter or Mode receiver and hardware flow control values using 
 696:../Libraries/STM32F4xx_StdPeriph_Driver/src/stm32f4xx_usart.c ****         the USART_Init() function.
 697:../Libraries/STM32F4xx_StdPeriph_Driver/src/stm32f4xx_usart.c ****      2. Enable the USART using the USART_Cmd() function.
 698:../Libraries/STM32F4xx_StdPeriph_Driver/src/stm32f4xx_usart.c ****      3. Configures the break detection length using the USART_LINBreakDetectLengthConfig()
 699:../Libraries/STM32F4xx_StdPeriph_Driver/src/stm32f4xx_usart.c ****         function.
 700:../Libraries/STM32F4xx_StdPeriph_Driver/src/stm32f4xx_usart.c ****      4. Enable the LIN mode using the USART_LINCmd() function.
 701:../Libraries/STM32F4xx_StdPeriph_Driver/src/stm32f4xx_usart.c **** 
 702:../Libraries/STM32F4xx_StdPeriph_Driver/src/stm32f4xx_usart.c **** 
 703:../Libraries/STM32F4xx_StdPeriph_Driver/src/stm32f4xx_usart.c **** @note In LIN mode, the following bits must be kept cleared:
 704:../Libraries/STM32F4xx_StdPeriph_Driver/src/stm32f4xx_usart.c ****         - CLKEN in the USART_CR2 register,
 705:../Libraries/STM32F4xx_StdPeriph_Driver/src/stm32f4xx_usart.c ****         - STOP[1:0], SCEN, HDSEL and IREN in the USART_CR3 register.
 706:../Libraries/STM32F4xx_StdPeriph_Driver/src/stm32f4xx_usart.c **** 
 707:../Libraries/STM32F4xx_StdPeriph_Driver/src/stm32f4xx_usart.c **** @endverbatim
 708:../Libraries/STM32F4xx_StdPeriph_Driver/src/stm32f4xx_usart.c ****   * @{
ARM GAS  C:\Users\admin\AppData\Local\Temp\ccwrrJFc.s 			page 52


 709:../Libraries/STM32F4xx_StdPeriph_Driver/src/stm32f4xx_usart.c ****   */
 710:../Libraries/STM32F4xx_StdPeriph_Driver/src/stm32f4xx_usart.c **** 
 711:../Libraries/STM32F4xx_StdPeriph_Driver/src/stm32f4xx_usart.c **** /**
 712:../Libraries/STM32F4xx_StdPeriph_Driver/src/stm32f4xx_usart.c ****   * @brief  Sets the USART LIN Break detection length.
 713:../Libraries/STM32F4xx_StdPeriph_Driver/src/stm32f4xx_usart.c ****   * @param  USARTx: where x can be 1, 2, 3, 4, 5 or 6 to select the USART or 
 714:../Libraries/STM32F4xx_StdPeriph_Driver/src/stm32f4xx_usart.c ****   *         UART peripheral.
 715:../Libraries/STM32F4xx_StdPeriph_Driver/src/stm32f4xx_usart.c ****   * @param  USART_LINBreakDetectLength: specifies the LIN break detection length.
 716:../Libraries/STM32F4xx_StdPeriph_Driver/src/stm32f4xx_usart.c ****   *          This parameter can be one of the following values:
 717:../Libraries/STM32F4xx_StdPeriph_Driver/src/stm32f4xx_usart.c ****   *            @arg USART_LINBreakDetectLength_10b: 10-bit break detection
 718:../Libraries/STM32F4xx_StdPeriph_Driver/src/stm32f4xx_usart.c ****   *            @arg USART_LINBreakDetectLength_11b: 11-bit break detection
 719:../Libraries/STM32F4xx_StdPeriph_Driver/src/stm32f4xx_usart.c ****   * @retval None
 720:../Libraries/STM32F4xx_StdPeriph_Driver/src/stm32f4xx_usart.c ****   */
 721:../Libraries/STM32F4xx_StdPeriph_Driver/src/stm32f4xx_usart.c **** void USART_LINBreakDetectLengthConfig(USART_TypeDef* USARTx, uint16_t USART_LINBreakDetectLength)
 722:../Libraries/STM32F4xx_StdPeriph_Driver/src/stm32f4xx_usart.c **** {
 2055              		.loc 1 722 1 is_stmt 1 view -0
 2056              		.cfi_startproc
 2057              		@ args = 0, pretend = 0, frame = 0
 2058              		@ frame_needed = 0, uses_anonymous_args = 0
 723:../Libraries/STM32F4xx_StdPeriph_Driver/src/stm32f4xx_usart.c ****   /* Check the parameters */
 724:../Libraries/STM32F4xx_StdPeriph_Driver/src/stm32f4xx_usart.c ****   assert_param(IS_USART_ALL_PERIPH(USARTx));
 2059              		.loc 1 724 3 view .LVU446
 2060              	@ ../Libraries/STM32F4xx_StdPeriph_Driver/src/stm32f4xx_usart.c:722: {
 722:../Libraries/STM32F4xx_StdPeriph_Driver/src/stm32f4xx_usart.c ****   /* Check the parameters */
 2061              		.loc 1 722 1 is_stmt 0 view .LVU447
 2062 0000 38B5     		push	{r3, r4, r5, lr}	@
 2063              		.cfi_def_cfa_offset 16
 2064              		.cfi_offset 3, -16
 2065              		.cfi_offset 4, -12
 2066              		.cfi_offset 5, -8
 2067              		.cfi_offset 14, -4
 2068              	@ ../Libraries/STM32F4xx_StdPeriph_Driver/src/stm32f4xx_usart.c:724:   assert_param(IS_USART_ALL_PE
 2069              		.loc 1 724 3 view .LVU448
 2070 0002 184B     		ldr	r3, .L159	@ tmp124,
 2071 0004 9842     		cmp	r0, r3	@ USARTx, tmp124
 2072              	@ ../Libraries/STM32F4xx_StdPeriph_Driver/src/stm32f4xx_usart.c:722: {
 722:../Libraries/STM32F4xx_StdPeriph_Driver/src/stm32f4xx_usart.c ****   /* Check the parameters */
 2073              		.loc 1 722 1 view .LVU449
 2074 0006 0446     		mov	r4, r0	@ USARTx, tmp144
 2075 0008 0D46     		mov	r5, r1	@ USART_LINBreakDetectLength, tmp145
 2076              	@ ../Libraries/STM32F4xx_StdPeriph_Driver/src/stm32f4xx_usart.c:724:   assert_param(IS_USART_ALL_PE
 2077              		.loc 1 724 3 view .LVU450
 2078 000a 15D0     		beq	.L157		@,
 2079              	@ ../Libraries/STM32F4xx_StdPeriph_Driver/src/stm32f4xx_usart.c:724:   assert_param(IS_USART_ALL_PE
 2080              		.loc 1 724 16 discriminator 2 view .LVU451
 2081 000c A3F54C43 		sub	r3, r3, #52224	@ tmp125, tmp125,
 2082 0010 9842     		cmp	r0, r3	@ USARTx, tmp125
 2083 0012 11D0     		beq	.L157		@,
 2084              	@ ../Libraries/STM32F4xx_StdPeriph_Driver/src/stm32f4xx_usart.c:724:   assert_param(IS_USART_ALL_PE
 2085              		.loc 1 724 16 discriminator 4 view .LVU452
 2086 0014 03F58063 		add	r3, r3, #1024	@ tmp126, tmp126,
 2087 0018 9842     		cmp	r0, r3	@ USARTx, tmp126
 2088 001a 0DD0     		beq	.L157		@,
 2089              	@ ../Libraries/STM32F4xx_StdPeriph_Driver/src/stm32f4xx_usart.c:724:   assert_param(IS_USART_ALL_PE
 2090              		.loc 1 724 16 discriminator 6 view .LVU453
 2091 001c 03F58063 		add	r3, r3, #1024	@ tmp127, tmp127,
 2092 0020 9842     		cmp	r0, r3	@ USARTx, tmp127
 2093 0022 09D0     		beq	.L157		@,
ARM GAS  C:\Users\admin\AppData\Local\Temp\ccwrrJFc.s 			page 53


 2094              	@ ../Libraries/STM32F4xx_StdPeriph_Driver/src/stm32f4xx_usart.c:724:   assert_param(IS_USART_ALL_PE
 2095              		.loc 1 724 16 discriminator 8 view .LVU454
 2096 0024 03F58063 		add	r3, r3, #1024	@ tmp128, tmp128,
 2097 0028 9842     		cmp	r0, r3	@ USARTx, tmp128
 2098 002a 05D0     		beq	.L157		@,
 2099              	@ ../Libraries/STM32F4xx_StdPeriph_Driver/src/stm32f4xx_usart.c:724:   assert_param(IS_USART_ALL_PE
 2100              		.loc 1 724 3 discriminator 10 view .LVU455
 2101 002c 0E48     		ldr	r0, .L159+4	@ tmp131,
 2102              	.LVL152:
 2103              		.loc 1 724 3 discriminator 10 view .LVU456
 2104 002e 201A     		subs	r0, r4, r0	@ iftmp.23_5, USARTx, tmp131
 2105 0030 B0FA80F0 		clz	r0, r0	@ iftmp.23_5, iftmp.23_5
 2106 0034 4009     		lsrs	r0, r0, #5	@ iftmp.23_5, iftmp.23_5,
 2107 0036 00E0     		b	.L152		@
 2108              	.LVL153:
 2109              	.L157:
 2110              	@ ../Libraries/STM32F4xx_StdPeriph_Driver/src/stm32f4xx_usart.c:724:   assert_param(IS_USART_ALL_PE
 2111              		.loc 1 724 3 view .LVU457
 2112 0038 0120     		movs	r0, #1	@ iftmp.23_5,
 2113              	.LVL154:
 2114              	.L152:
 2115              	@ ../Libraries/STM32F4xx_StdPeriph_Driver/src/stm32f4xx_usart.c:724:   assert_param(IS_USART_ALL_PE
 2116              		.loc 1 724 3 discriminator 14 view .LVU458
 2117 003a FFF7FEFF 		bl	assert_param		@
 2118              	.LVL155:
 725:../Libraries/STM32F4xx_StdPeriph_Driver/src/stm32f4xx_usart.c ****   assert_param(IS_USART_LIN_BREAK_DETECT_LENGTH(USART_LINBreakDetectLength));
 2119              		.loc 1 725 3 is_stmt 1 discriminator 14 view .LVU459
 2120 003e 25F02000 		bic	r0, r5, #32	@ tmp132, USART_LINBreakDetectLength,
 2121 0042 B0FA80F0 		clz	r0, r0	@, tmp132
 2122 0046 4009     		lsrs	r0, r0, #5	@,,
 2123 0048 FFF7FEFF 		bl	assert_param		@
 2124              	.LVL156:
 726:../Libraries/STM32F4xx_StdPeriph_Driver/src/stm32f4xx_usart.c ****   
 727:../Libraries/STM32F4xx_StdPeriph_Driver/src/stm32f4xx_usart.c ****   USARTx->CR2 &= (uint16_t)~((uint16_t)USART_CR2_LBDL);
 2125              		.loc 1 727 3 discriminator 14 view .LVU460
 2126              	@ ../Libraries/STM32F4xx_StdPeriph_Driver/src/stm32f4xx_usart.c:727:   USARTx->CR2 &= (uint16_t)~((
 2127              		.loc 1 727 15 is_stmt 0 discriminator 14 view .LVU461
 2128 004c 238A     		ldrh	r3, [r4, #16]	@, USARTx_7(D)->CR2
 2129 004e 23F02003 		bic	r3, r3, #32	@ _2, USARTx_7(D)->CR2,
 2130 0052 1B04     		lsls	r3, r3, #16	@ _2, _2,
 2131 0054 1B0C     		lsrs	r3, r3, #16	@ _2, _2,
 2132 0056 2382     		strh	r3, [r4, #16]	@ movhi	@ _2, USARTx_7(D)->CR2
 728:../Libraries/STM32F4xx_StdPeriph_Driver/src/stm32f4xx_usart.c ****   USARTx->CR2 |= USART_LINBreakDetectLength;  
 2133              		.loc 1 728 3 is_stmt 1 discriminator 14 view .LVU462
 2134              	@ ../Libraries/STM32F4xx_StdPeriph_Driver/src/stm32f4xx_usart.c:728:   USARTx->CR2 |= USART_LINBrea
 2135              		.loc 1 728 15 is_stmt 0 discriminator 14 view .LVU463
 2136 0058 238A     		ldrh	r3, [r4, #16]	@, USARTx_7(D)->CR2
 2137 005a 9BB2     		uxth	r3, r3	@ _3, USARTx_7(D)->CR2
 2138 005c 43EA0501 		orr	r1, r3, r5	@ _4, _3, USART_LINBreakDetectLength
 2139 0060 2182     		strh	r1, [r4, #16]	@ movhi	@ _4, USARTx_7(D)->CR2
 2140              	@ ../Libraries/STM32F4xx_StdPeriph_Driver/src/stm32f4xx_usart.c:729: }
 729:../Libraries/STM32F4xx_StdPeriph_Driver/src/stm32f4xx_usart.c **** }
 2141              		.loc 1 729 1 discriminator 14 view .LVU464
 2142 0062 38BD     		pop	{r3, r4, r5, pc}	@
 2143              	.LVL157:
 2144              	.L160:
 2145              		.loc 1 729 1 discriminator 14 view .LVU465
ARM GAS  C:\Users\admin\AppData\Local\Temp\ccwrrJFc.s 			page 54


 2146              		.align	2
 2147              	.L159:
 2148 0064 00100140 		.word	1073811456
 2149 0068 00140140 		.word	1073812480
 2150              		.cfi_endproc
 2151              	.LFE124:
 2152              		.size	USART_LINBreakDetectLengthConfig, .-USART_LINBreakDetectLengthConfig
 2153              		.section	.text.USART_LINCmd,"ax",%progbits
 2154              		.align	1
 2155              		.p2align 2,,3
 2156              		.global	USART_LINCmd
 2157              		.syntax unified
 2158              		.thumb
 2159              		.thumb_func
 2160              		.type	USART_LINCmd, %function
 2161              	USART_LINCmd:
 2162              	.LVL158:
 2163              	.LFB125:
 730:../Libraries/STM32F4xx_StdPeriph_Driver/src/stm32f4xx_usart.c **** 
 731:../Libraries/STM32F4xx_StdPeriph_Driver/src/stm32f4xx_usart.c **** /**
 732:../Libraries/STM32F4xx_StdPeriph_Driver/src/stm32f4xx_usart.c ****   * @brief  Enables or disables the USART's LIN mode.
 733:../Libraries/STM32F4xx_StdPeriph_Driver/src/stm32f4xx_usart.c ****   * @param  USARTx: where x can be 1, 2, 3, 4, 5 or 6 to select the USART or 
 734:../Libraries/STM32F4xx_StdPeriph_Driver/src/stm32f4xx_usart.c ****   *         UART peripheral.
 735:../Libraries/STM32F4xx_StdPeriph_Driver/src/stm32f4xx_usart.c ****   * @param  NewState: new state of the USART LIN mode.
 736:../Libraries/STM32F4xx_StdPeriph_Driver/src/stm32f4xx_usart.c ****   *          This parameter can be: ENABLE or DISABLE.
 737:../Libraries/STM32F4xx_StdPeriph_Driver/src/stm32f4xx_usart.c ****   * @retval None
 738:../Libraries/STM32F4xx_StdPeriph_Driver/src/stm32f4xx_usart.c ****   */
 739:../Libraries/STM32F4xx_StdPeriph_Driver/src/stm32f4xx_usart.c **** void USART_LINCmd(USART_TypeDef* USARTx, FunctionalState NewState)
 740:../Libraries/STM32F4xx_StdPeriph_Driver/src/stm32f4xx_usart.c **** {
 2164              		.loc 1 740 1 is_stmt 1 view -0
 2165              		.cfi_startproc
 2166              		@ args = 0, pretend = 0, frame = 0
 2167              		@ frame_needed = 0, uses_anonymous_args = 0
 741:../Libraries/STM32F4xx_StdPeriph_Driver/src/stm32f4xx_usart.c ****   /* Check the parameters */
 742:../Libraries/STM32F4xx_StdPeriph_Driver/src/stm32f4xx_usart.c ****   assert_param(IS_USART_ALL_PERIPH(USARTx));
 2168              		.loc 1 742 3 view .LVU467
 2169              	@ ../Libraries/STM32F4xx_StdPeriph_Driver/src/stm32f4xx_usart.c:740: {
 740:../Libraries/STM32F4xx_StdPeriph_Driver/src/stm32f4xx_usart.c ****   /* Check the parameters */
 2170              		.loc 1 740 1 is_stmt 0 view .LVU468
 2171 0000 38B5     		push	{r3, r4, r5, lr}	@
 2172              		.cfi_def_cfa_offset 16
 2173              		.cfi_offset 3, -16
 2174              		.cfi_offset 4, -12
 2175              		.cfi_offset 5, -8
 2176              		.cfi_offset 14, -4
 2177              	@ ../Libraries/STM32F4xx_StdPeriph_Driver/src/stm32f4xx_usart.c:742:   assert_param(IS_USART_ALL_PE
 2178              		.loc 1 742 3 view .LVU469
 2179 0002 184B     		ldr	r3, .L171	@ tmp123,
 2180 0004 9842     		cmp	r0, r3	@ USARTx, tmp123
 2181              	@ ../Libraries/STM32F4xx_StdPeriph_Driver/src/stm32f4xx_usart.c:740: {
 740:../Libraries/STM32F4xx_StdPeriph_Driver/src/stm32f4xx_usart.c ****   /* Check the parameters */
 2182              		.loc 1 740 1 view .LVU470
 2183 0006 0446     		mov	r4, r0	@ USARTx, tmp143
 2184 0008 0D46     		mov	r5, r1	@ NewState, tmp144
 2185              	@ ../Libraries/STM32F4xx_StdPeriph_Driver/src/stm32f4xx_usart.c:742:   assert_param(IS_USART_ALL_PE
 2186              		.loc 1 742 3 view .LVU471
 2187 000a 15D0     		beq	.L169		@,
ARM GAS  C:\Users\admin\AppData\Local\Temp\ccwrrJFc.s 			page 55


 2188              	@ ../Libraries/STM32F4xx_StdPeriph_Driver/src/stm32f4xx_usart.c:742:   assert_param(IS_USART_ALL_PE
 2189              		.loc 1 742 16 discriminator 2 view .LVU472
 2190 000c A3F54C43 		sub	r3, r3, #52224	@ tmp124, tmp124,
 2191 0010 9842     		cmp	r0, r3	@ USARTx, tmp124
 2192 0012 11D0     		beq	.L169		@,
 2193              	@ ../Libraries/STM32F4xx_StdPeriph_Driver/src/stm32f4xx_usart.c:742:   assert_param(IS_USART_ALL_PE
 2194              		.loc 1 742 16 discriminator 4 view .LVU473
 2195 0014 03F58063 		add	r3, r3, #1024	@ tmp125, tmp125,
 2196 0018 9842     		cmp	r0, r3	@ USARTx, tmp125
 2197 001a 0DD0     		beq	.L169		@,
 2198              	@ ../Libraries/STM32F4xx_StdPeriph_Driver/src/stm32f4xx_usart.c:742:   assert_param(IS_USART_ALL_PE
 2199              		.loc 1 742 16 discriminator 6 view .LVU474
 2200 001c 03F58063 		add	r3, r3, #1024	@ tmp126, tmp126,
 2201 0020 9842     		cmp	r0, r3	@ USARTx, tmp126
 2202 0022 09D0     		beq	.L169		@,
 2203              	@ ../Libraries/STM32F4xx_StdPeriph_Driver/src/stm32f4xx_usart.c:742:   assert_param(IS_USART_ALL_PE
 2204              		.loc 1 742 16 discriminator 8 view .LVU475
 2205 0024 03F58063 		add	r3, r3, #1024	@ tmp127, tmp127,
 2206 0028 9842     		cmp	r0, r3	@ USARTx, tmp127
 2207 002a 05D0     		beq	.L169		@,
 2208              	@ ../Libraries/STM32F4xx_StdPeriph_Driver/src/stm32f4xx_usart.c:742:   assert_param(IS_USART_ALL_PE
 2209              		.loc 1 742 3 discriminator 10 view .LVU476
 2210 002c 0E48     		ldr	r0, .L171+4	@ tmp130,
 2211              	.LVL159:
 2212              		.loc 1 742 3 discriminator 10 view .LVU477
 2213 002e 201A     		subs	r0, r4, r0	@ iftmp.25_7, USARTx, tmp130
 2214 0030 B0FA80F0 		clz	r0, r0	@ iftmp.25_7, iftmp.25_7
 2215 0034 4009     		lsrs	r0, r0, #5	@ iftmp.25_7, iftmp.25_7,
 2216 0036 00E0     		b	.L162		@
 2217              	.LVL160:
 2218              	.L169:
 2219              	@ ../Libraries/STM32F4xx_StdPeriph_Driver/src/stm32f4xx_usart.c:742:   assert_param(IS_USART_ALL_PE
 2220              		.loc 1 742 3 view .LVU478
 2221 0038 0120     		movs	r0, #1	@ iftmp.25_7,
 2222              	.LVL161:
 2223              	.L162:
 2224              	@ ../Libraries/STM32F4xx_StdPeriph_Driver/src/stm32f4xx_usart.c:742:   assert_param(IS_USART_ALL_PE
 2225              		.loc 1 742 3 discriminator 14 view .LVU479
 2226 003a FFF7FEFF 		bl	assert_param		@
 2227              	.LVL162:
 743:../Libraries/STM32F4xx_StdPeriph_Driver/src/stm32f4xx_usart.c ****   assert_param(IS_FUNCTIONAL_STATE(NewState));
 2228              		.loc 1 743 3 is_stmt 1 discriminator 14 view .LVU480
 2229 003e 012D     		cmp	r5, #1	@ NewState,
 2230 0040 8CBF     		ite	hi
 2231 0042 0020     		movhi	r0, #0	@,
 2232 0044 0120     		movls	r0, #1	@,
 2233 0046 FFF7FEFF 		bl	assert_param		@
 2234              	.LVL163:
 744:../Libraries/STM32F4xx_StdPeriph_Driver/src/stm32f4xx_usart.c ****   
 745:../Libraries/STM32F4xx_StdPeriph_Driver/src/stm32f4xx_usart.c ****   if (NewState != DISABLE)
 2235              		.loc 1 745 3 discriminator 14 view .LVU481
 2236              	@ ../Libraries/STM32F4xx_StdPeriph_Driver/src/stm32f4xx_usart.c:748:     USARTx->CR2 |= USART_CR2_L
 746:../Libraries/STM32F4xx_StdPeriph_Driver/src/stm32f4xx_usart.c ****   {
 747:../Libraries/STM32F4xx_StdPeriph_Driver/src/stm32f4xx_usart.c ****     /* Enable the LIN mode by setting the LINEN bit in the CR2 register */
 748:../Libraries/STM32F4xx_StdPeriph_Driver/src/stm32f4xx_usart.c ****     USARTx->CR2 |= USART_CR2_LINEN;
 2237              		.loc 1 748 17 is_stmt 0 discriminator 14 view .LVU482
 2238 004a 238A     		ldrh	r3, [r4, #16]	@,
ARM GAS  C:\Users\admin\AppData\Local\Temp\ccwrrJFc.s 			page 56


 2239              	@ ../Libraries/STM32F4xx_StdPeriph_Driver/src/stm32f4xx_usart.c:745:   if (NewState != DISABLE)
 745:../Libraries/STM32F4xx_StdPeriph_Driver/src/stm32f4xx_usart.c ****   {
 2240              		.loc 1 745 6 discriminator 14 view .LVU483
 2241 004c 25B1     		cbz	r5, .L163	@ NewState,
 2242              		.loc 1 748 5 is_stmt 1 view .LVU484
 2243              	@ ../Libraries/STM32F4xx_StdPeriph_Driver/src/stm32f4xx_usart.c:748:     USARTx->CR2 |= USART_CR2_L
 2244              		.loc 1 748 17 is_stmt 0 view .LVU485
 2245 004e 9BB2     		uxth	r3, r3	@ _3, USARTx_9(D)->CR2
 2246 0050 43F48043 		orr	r3, r3, #16384	@ _4, _3,
 2247 0054 2382     		strh	r3, [r4, #16]	@ movhi	@ _4,
 2248              	@ ../Libraries/STM32F4xx_StdPeriph_Driver/src/stm32f4xx_usart.c:755: }
 749:../Libraries/STM32F4xx_StdPeriph_Driver/src/stm32f4xx_usart.c ****   }
 750:../Libraries/STM32F4xx_StdPeriph_Driver/src/stm32f4xx_usart.c ****   else
 751:../Libraries/STM32F4xx_StdPeriph_Driver/src/stm32f4xx_usart.c ****   {
 752:../Libraries/STM32F4xx_StdPeriph_Driver/src/stm32f4xx_usart.c ****     /* Disable the LIN mode by clearing the LINEN bit in the CR2 register */
 753:../Libraries/STM32F4xx_StdPeriph_Driver/src/stm32f4xx_usart.c ****     USARTx->CR2 &= (uint16_t)~((uint16_t)USART_CR2_LINEN);
 754:../Libraries/STM32F4xx_StdPeriph_Driver/src/stm32f4xx_usart.c ****   }
 755:../Libraries/STM32F4xx_StdPeriph_Driver/src/stm32f4xx_usart.c **** }
 2249              		.loc 1 755 1 view .LVU486
 2250 0056 38BD     		pop	{r3, r4, r5, pc}	@
 2251              	.LVL164:
 2252              	.L163:
 753:../Libraries/STM32F4xx_StdPeriph_Driver/src/stm32f4xx_usart.c ****   }
 2253              		.loc 1 753 5 is_stmt 1 view .LVU487
 2254              	@ ../Libraries/STM32F4xx_StdPeriph_Driver/src/stm32f4xx_usart.c:753:     USARTx->CR2 &= (uint16_t)~
 753:../Libraries/STM32F4xx_StdPeriph_Driver/src/stm32f4xx_usart.c ****   }
 2255              		.loc 1 753 17 is_stmt 0 view .LVU488
 2256 0058 23F48043 		bic	r3, r3, #16384	@ _6, USARTx_9(D)->CR2,
 2257 005c 1B04     		lsls	r3, r3, #16	@ _6, _6,
 2258 005e 1B0C     		lsrs	r3, r3, #16	@ _6, _6,
 2259 0060 2382     		strh	r3, [r4, #16]	@ movhi	@ _6,
 2260              	@ ../Libraries/STM32F4xx_StdPeriph_Driver/src/stm32f4xx_usart.c:755: }
 2261              		.loc 1 755 1 view .LVU489
 2262 0062 38BD     		pop	{r3, r4, r5, pc}	@
 2263              	.LVL165:
 2264              	.L172:
 2265              		.loc 1 755 1 view .LVU490
 2266              		.align	2
 2267              	.L171:
 2268 0064 00100140 		.word	1073811456
 2269 0068 00140140 		.word	1073812480
 2270              		.cfi_endproc
 2271              	.LFE125:
 2272              		.size	USART_LINCmd, .-USART_LINCmd
 2273              		.section	.text.USART_SendBreak,"ax",%progbits
 2274              		.align	1
 2275              		.p2align 2,,3
 2276              		.global	USART_SendBreak
 2277              		.syntax unified
 2278              		.thumb
 2279              		.thumb_func
 2280              		.type	USART_SendBreak, %function
 2281              	USART_SendBreak:
 2282              	.LVL166:
 2283              	.LFB126:
 756:../Libraries/STM32F4xx_StdPeriph_Driver/src/stm32f4xx_usart.c **** 
 757:../Libraries/STM32F4xx_StdPeriph_Driver/src/stm32f4xx_usart.c **** /**
ARM GAS  C:\Users\admin\AppData\Local\Temp\ccwrrJFc.s 			page 57


 758:../Libraries/STM32F4xx_StdPeriph_Driver/src/stm32f4xx_usart.c ****   * @brief  Transmits break characters.
 759:../Libraries/STM32F4xx_StdPeriph_Driver/src/stm32f4xx_usart.c ****   * @param  USARTx: where x can be 1, 2, 3, 4, 5 or 6 to select the USART or 
 760:../Libraries/STM32F4xx_StdPeriph_Driver/src/stm32f4xx_usart.c ****   *         UART peripheral.
 761:../Libraries/STM32F4xx_StdPeriph_Driver/src/stm32f4xx_usart.c ****   * @retval None
 762:../Libraries/STM32F4xx_StdPeriph_Driver/src/stm32f4xx_usart.c ****   */
 763:../Libraries/STM32F4xx_StdPeriph_Driver/src/stm32f4xx_usart.c **** void USART_SendBreak(USART_TypeDef* USARTx)
 764:../Libraries/STM32F4xx_StdPeriph_Driver/src/stm32f4xx_usart.c **** {
 2284              		.loc 1 764 1 is_stmt 1 view -0
 2285              		.cfi_startproc
 2286              		@ args = 0, pretend = 0, frame = 0
 2287              		@ frame_needed = 0, uses_anonymous_args = 0
 765:../Libraries/STM32F4xx_StdPeriph_Driver/src/stm32f4xx_usart.c ****   /* Check the parameters */
 766:../Libraries/STM32F4xx_StdPeriph_Driver/src/stm32f4xx_usart.c ****   assert_param(IS_USART_ALL_PERIPH(USARTx));
 2288              		.loc 1 766 3 view .LVU492
 2289 0000 114B     		ldr	r3, .L181	@ tmp118,
 2290 0002 9842     		cmp	r0, r3	@ USARTx, tmp118
 2291              	@ ../Libraries/STM32F4xx_StdPeriph_Driver/src/stm32f4xx_usart.c:764: {
 764:../Libraries/STM32F4xx_StdPeriph_Driver/src/stm32f4xx_usart.c ****   /* Check the parameters */
 2292              		.loc 1 764 1 is_stmt 0 view .LVU493
 2293 0004 10B5     		push	{r4, lr}	@
 2294              		.cfi_def_cfa_offset 8
 2295              		.cfi_offset 4, -8
 2296              		.cfi_offset 14, -4
 2297              	@ ../Libraries/STM32F4xx_StdPeriph_Driver/src/stm32f4xx_usart.c:764: {
 764:../Libraries/STM32F4xx_StdPeriph_Driver/src/stm32f4xx_usart.c ****   /* Check the parameters */
 2298              		.loc 1 764 1 view .LVU494
 2299 0006 0446     		mov	r4, r0	@ USARTx, tmp130
 2300              	@ ../Libraries/STM32F4xx_StdPeriph_Driver/src/stm32f4xx_usart.c:766:   assert_param(IS_USART_ALL_PE
 2301              		.loc 1 766 3 view .LVU495
 2302 0008 15D0     		beq	.L179		@,
 2303              	@ ../Libraries/STM32F4xx_StdPeriph_Driver/src/stm32f4xx_usart.c:766:   assert_param(IS_USART_ALL_PE
 2304              		.loc 1 766 16 discriminator 2 view .LVU496
 2305 000a A3F54C43 		sub	r3, r3, #52224	@ tmp119, tmp119,
 2306 000e 9842     		cmp	r0, r3	@ USARTx, tmp119
 2307 0010 11D0     		beq	.L179		@,
 2308              	@ ../Libraries/STM32F4xx_StdPeriph_Driver/src/stm32f4xx_usart.c:766:   assert_param(IS_USART_ALL_PE
 2309              		.loc 1 766 16 discriminator 4 view .LVU497
 2310 0012 03F58063 		add	r3, r3, #1024	@ tmp120, tmp120,
 2311 0016 9842     		cmp	r0, r3	@ USARTx, tmp120
 2312 0018 0DD0     		beq	.L179		@,
 2313              	@ ../Libraries/STM32F4xx_StdPeriph_Driver/src/stm32f4xx_usart.c:766:   assert_param(IS_USART_ALL_PE
 2314              		.loc 1 766 16 discriminator 6 view .LVU498
 2315 001a 03F58063 		add	r3, r3, #1024	@ tmp121, tmp121,
 2316 001e 9842     		cmp	r0, r3	@ USARTx, tmp121
 2317 0020 09D0     		beq	.L179		@,
 2318              	@ ../Libraries/STM32F4xx_StdPeriph_Driver/src/stm32f4xx_usart.c:766:   assert_param(IS_USART_ALL_PE
 2319              		.loc 1 766 16 discriminator 8 view .LVU499
 2320 0022 03F58063 		add	r3, r3, #1024	@ tmp122, tmp122,
 2321 0026 9842     		cmp	r0, r3	@ USARTx, tmp122
 2322 0028 05D0     		beq	.L179		@,
 2323              	@ ../Libraries/STM32F4xx_StdPeriph_Driver/src/stm32f4xx_usart.c:766:   assert_param(IS_USART_ALL_PE
 2324              		.loc 1 766 3 discriminator 10 view .LVU500
 2325 002a 0848     		ldr	r0, .L181+4	@ tmp125,
 2326              	.LVL167:
 2327              		.loc 1 766 3 discriminator 10 view .LVU501
 2328 002c 201A     		subs	r0, r4, r0	@ iftmp.26_3, USARTx, tmp125
 2329 002e B0FA80F0 		clz	r0, r0	@ iftmp.26_3, iftmp.26_3
ARM GAS  C:\Users\admin\AppData\Local\Temp\ccwrrJFc.s 			page 58


 2330 0032 4009     		lsrs	r0, r0, #5	@ iftmp.26_3, iftmp.26_3,
 2331 0034 00E0     		b	.L174		@
 2332              	.LVL168:
 2333              	.L179:
 2334              	@ ../Libraries/STM32F4xx_StdPeriph_Driver/src/stm32f4xx_usart.c:766:   assert_param(IS_USART_ALL_PE
 2335              		.loc 1 766 3 view .LVU502
 2336 0036 0120     		movs	r0, #1	@ iftmp.26_3,
 2337              	.LVL169:
 2338              	.L174:
 2339              	@ ../Libraries/STM32F4xx_StdPeriph_Driver/src/stm32f4xx_usart.c:766:   assert_param(IS_USART_ALL_PE
 2340              		.loc 1 766 3 discriminator 14 view .LVU503
 2341 0038 FFF7FEFF 		bl	assert_param		@
 2342              	.LVL170:
 767:../Libraries/STM32F4xx_StdPeriph_Driver/src/stm32f4xx_usart.c ****   
 768:../Libraries/STM32F4xx_StdPeriph_Driver/src/stm32f4xx_usart.c ****   /* Send break characters */
 769:../Libraries/STM32F4xx_StdPeriph_Driver/src/stm32f4xx_usart.c ****   USARTx->CR1 |= USART_CR1_SBK;
 2343              		.loc 1 769 3 is_stmt 1 discriminator 14 view .LVU504
 2344              	@ ../Libraries/STM32F4xx_StdPeriph_Driver/src/stm32f4xx_usart.c:769:   USARTx->CR1 |= USART_CR1_SBK
 2345              		.loc 1 769 15 is_stmt 0 discriminator 14 view .LVU505
 2346 003c A389     		ldrh	r3, [r4, #12]	@, USARTx_4(D)->CR1
 2347 003e 9BB2     		uxth	r3, r3	@ _1, USARTx_4(D)->CR1
 2348 0040 43F00103 		orr	r3, r3, #1	@ _2, _1,
 2349 0044 A381     		strh	r3, [r4, #12]	@ movhi	@ _2, USARTx_4(D)->CR1
 2350              	@ ../Libraries/STM32F4xx_StdPeriph_Driver/src/stm32f4xx_usart.c:770: }
 770:../Libraries/STM32F4xx_StdPeriph_Driver/src/stm32f4xx_usart.c **** }
 2351              		.loc 1 770 1 discriminator 14 view .LVU506
 2352 0046 10BD     		pop	{r4, pc}	@
 2353              	.LVL171:
 2354              	.L182:
 2355              		.loc 1 770 1 discriminator 14 view .LVU507
 2356              		.align	2
 2357              	.L181:
 2358 0048 00100140 		.word	1073811456
 2359 004c 00140140 		.word	1073812480
 2360              		.cfi_endproc
 2361              	.LFE126:
 2362              		.size	USART_SendBreak, .-USART_SendBreak
 2363              		.section	.text.USART_HalfDuplexCmd,"ax",%progbits
 2364              		.align	1
 2365              		.p2align 2,,3
 2366              		.global	USART_HalfDuplexCmd
 2367              		.syntax unified
 2368              		.thumb
 2369              		.thumb_func
 2370              		.type	USART_HalfDuplexCmd, %function
 2371              	USART_HalfDuplexCmd:
 2372              	.LVL172:
 2373              	.LFB127:
 771:../Libraries/STM32F4xx_StdPeriph_Driver/src/stm32f4xx_usart.c **** 
 772:../Libraries/STM32F4xx_StdPeriph_Driver/src/stm32f4xx_usart.c **** /**
 773:../Libraries/STM32F4xx_StdPeriph_Driver/src/stm32f4xx_usart.c ****   * @}
 774:../Libraries/STM32F4xx_StdPeriph_Driver/src/stm32f4xx_usart.c ****   */
 775:../Libraries/STM32F4xx_StdPeriph_Driver/src/stm32f4xx_usart.c **** 
 776:../Libraries/STM32F4xx_StdPeriph_Driver/src/stm32f4xx_usart.c **** /** @defgroup USART_Group5 Halfduplex mode function
 777:../Libraries/STM32F4xx_StdPeriph_Driver/src/stm32f4xx_usart.c ****  *  @brief   Half-duplex mode function 
 778:../Libraries/STM32F4xx_StdPeriph_Driver/src/stm32f4xx_usart.c ****  *
 779:../Libraries/STM32F4xx_StdPeriph_Driver/src/stm32f4xx_usart.c **** @verbatim   
ARM GAS  C:\Users\admin\AppData\Local\Temp\ccwrrJFc.s 			page 59


 780:../Libraries/STM32F4xx_StdPeriph_Driver/src/stm32f4xx_usart.c ****  ===============================================================================
 781:../Libraries/STM32F4xx_StdPeriph_Driver/src/stm32f4xx_usart.c ****                          Half-duplex mode function
 782:../Libraries/STM32F4xx_StdPeriph_Driver/src/stm32f4xx_usart.c ****  ===============================================================================  
 783:../Libraries/STM32F4xx_StdPeriph_Driver/src/stm32f4xx_usart.c **** 
 784:../Libraries/STM32F4xx_StdPeriph_Driver/src/stm32f4xx_usart.c ****   This subsection provides a set of functions allowing to manage the USART 
 785:../Libraries/STM32F4xx_StdPeriph_Driver/src/stm32f4xx_usart.c ****   Half-duplex communication.
 786:../Libraries/STM32F4xx_StdPeriph_Driver/src/stm32f4xx_usart.c ****   
 787:../Libraries/STM32F4xx_StdPeriph_Driver/src/stm32f4xx_usart.c ****   The USART can be configured to follow a single-wire half-duplex protocol where 
 788:../Libraries/STM32F4xx_StdPeriph_Driver/src/stm32f4xx_usart.c ****   the TX and RX lines are internally connected.
 789:../Libraries/STM32F4xx_StdPeriph_Driver/src/stm32f4xx_usart.c **** 
 790:../Libraries/STM32F4xx_StdPeriph_Driver/src/stm32f4xx_usart.c ****   USART Half duplex communication is possible through the following procedure:
 791:../Libraries/STM32F4xx_StdPeriph_Driver/src/stm32f4xx_usart.c ****      1. Program the Baud rate, Word length, Stop bits, Parity, Mode transmitter 
 792:../Libraries/STM32F4xx_StdPeriph_Driver/src/stm32f4xx_usart.c ****         or Mode receiver and hardware flow control values using the USART_Init()
 793:../Libraries/STM32F4xx_StdPeriph_Driver/src/stm32f4xx_usart.c ****         function.
 794:../Libraries/STM32F4xx_StdPeriph_Driver/src/stm32f4xx_usart.c ****      2. Configures the USART address using the USART_SetAddress() function.
 795:../Libraries/STM32F4xx_StdPeriph_Driver/src/stm32f4xx_usart.c ****      3. Enable the USART using the USART_Cmd() function.
 796:../Libraries/STM32F4xx_StdPeriph_Driver/src/stm32f4xx_usart.c ****      4. Enable the half duplex mode using USART_HalfDuplexCmd() function.
 797:../Libraries/STM32F4xx_StdPeriph_Driver/src/stm32f4xx_usart.c **** 
 798:../Libraries/STM32F4xx_StdPeriph_Driver/src/stm32f4xx_usart.c **** 
 799:../Libraries/STM32F4xx_StdPeriph_Driver/src/stm32f4xx_usart.c **** @note The RX pin is no longer used
 800:../Libraries/STM32F4xx_StdPeriph_Driver/src/stm32f4xx_usart.c **** @note In Half-duplex mode the following bits must be kept cleared:
 801:../Libraries/STM32F4xx_StdPeriph_Driver/src/stm32f4xx_usart.c ****         - LINEN and CLKEN bits in the USART_CR2 register.
 802:../Libraries/STM32F4xx_StdPeriph_Driver/src/stm32f4xx_usart.c ****         - SCEN and IREN bits in the USART_CR3 register.
 803:../Libraries/STM32F4xx_StdPeriph_Driver/src/stm32f4xx_usart.c **** 
 804:../Libraries/STM32F4xx_StdPeriph_Driver/src/stm32f4xx_usart.c **** @endverbatim
 805:../Libraries/STM32F4xx_StdPeriph_Driver/src/stm32f4xx_usart.c ****   * @{
 806:../Libraries/STM32F4xx_StdPeriph_Driver/src/stm32f4xx_usart.c ****   */
 807:../Libraries/STM32F4xx_StdPeriph_Driver/src/stm32f4xx_usart.c **** 
 808:../Libraries/STM32F4xx_StdPeriph_Driver/src/stm32f4xx_usart.c **** /**
 809:../Libraries/STM32F4xx_StdPeriph_Driver/src/stm32f4xx_usart.c ****   * @brief  Enables or disables the USART's Half Duplex communication.
 810:../Libraries/STM32F4xx_StdPeriph_Driver/src/stm32f4xx_usart.c ****   * @param  USARTx: where x can be 1, 2, 3, 4, 5 or 6 to select the USART or 
 811:../Libraries/STM32F4xx_StdPeriph_Driver/src/stm32f4xx_usart.c ****   *         UART peripheral.
 812:../Libraries/STM32F4xx_StdPeriph_Driver/src/stm32f4xx_usart.c ****   * @param  NewState: new state of the USART Communication.
 813:../Libraries/STM32F4xx_StdPeriph_Driver/src/stm32f4xx_usart.c ****   *          This parameter can be: ENABLE or DISABLE.
 814:../Libraries/STM32F4xx_StdPeriph_Driver/src/stm32f4xx_usart.c ****   * @retval None
 815:../Libraries/STM32F4xx_StdPeriph_Driver/src/stm32f4xx_usart.c ****   */
 816:../Libraries/STM32F4xx_StdPeriph_Driver/src/stm32f4xx_usart.c **** void USART_HalfDuplexCmd(USART_TypeDef* USARTx, FunctionalState NewState)
 817:../Libraries/STM32F4xx_StdPeriph_Driver/src/stm32f4xx_usart.c **** {
 2374              		.loc 1 817 1 is_stmt 1 view -0
 2375              		.cfi_startproc
 2376              		@ args = 0, pretend = 0, frame = 0
 2377              		@ frame_needed = 0, uses_anonymous_args = 0
 818:../Libraries/STM32F4xx_StdPeriph_Driver/src/stm32f4xx_usart.c ****   /* Check the parameters */
 819:../Libraries/STM32F4xx_StdPeriph_Driver/src/stm32f4xx_usart.c ****   assert_param(IS_USART_ALL_PERIPH(USARTx));
 2378              		.loc 1 819 3 view .LVU509
 2379              	@ ../Libraries/STM32F4xx_StdPeriph_Driver/src/stm32f4xx_usart.c:817: {
 817:../Libraries/STM32F4xx_StdPeriph_Driver/src/stm32f4xx_usart.c ****   /* Check the parameters */
 2380              		.loc 1 817 1 is_stmt 0 view .LVU510
 2381 0000 38B5     		push	{r3, r4, r5, lr}	@
 2382              		.cfi_def_cfa_offset 16
 2383              		.cfi_offset 3, -16
 2384              		.cfi_offset 4, -12
 2385              		.cfi_offset 5, -8
 2386              		.cfi_offset 14, -4
 2387              	@ ../Libraries/STM32F4xx_StdPeriph_Driver/src/stm32f4xx_usart.c:819:   assert_param(IS_USART_ALL_PE
 2388              		.loc 1 819 3 view .LVU511
 2389 0002 184B     		ldr	r3, .L193	@ tmp123,
ARM GAS  C:\Users\admin\AppData\Local\Temp\ccwrrJFc.s 			page 60


 2390 0004 9842     		cmp	r0, r3	@ USARTx, tmp123
 2391              	@ ../Libraries/STM32F4xx_StdPeriph_Driver/src/stm32f4xx_usart.c:817: {
 817:../Libraries/STM32F4xx_StdPeriph_Driver/src/stm32f4xx_usart.c ****   /* Check the parameters */
 2392              		.loc 1 817 1 view .LVU512
 2393 0006 0446     		mov	r4, r0	@ USARTx, tmp143
 2394 0008 0D46     		mov	r5, r1	@ NewState, tmp144
 2395              	@ ../Libraries/STM32F4xx_StdPeriph_Driver/src/stm32f4xx_usart.c:819:   assert_param(IS_USART_ALL_PE
 2396              		.loc 1 819 3 view .LVU513
 2397 000a 15D0     		beq	.L191		@,
 2398              	@ ../Libraries/STM32F4xx_StdPeriph_Driver/src/stm32f4xx_usart.c:819:   assert_param(IS_USART_ALL_PE
 2399              		.loc 1 819 16 discriminator 2 view .LVU514
 2400 000c A3F54C43 		sub	r3, r3, #52224	@ tmp124, tmp124,
 2401 0010 9842     		cmp	r0, r3	@ USARTx, tmp124
 2402 0012 11D0     		beq	.L191		@,
 2403              	@ ../Libraries/STM32F4xx_StdPeriph_Driver/src/stm32f4xx_usart.c:819:   assert_param(IS_USART_ALL_PE
 2404              		.loc 1 819 16 discriminator 4 view .LVU515
 2405 0014 03F58063 		add	r3, r3, #1024	@ tmp125, tmp125,
 2406 0018 9842     		cmp	r0, r3	@ USARTx, tmp125
 2407 001a 0DD0     		beq	.L191		@,
 2408              	@ ../Libraries/STM32F4xx_StdPeriph_Driver/src/stm32f4xx_usart.c:819:   assert_param(IS_USART_ALL_PE
 2409              		.loc 1 819 16 discriminator 6 view .LVU516
 2410 001c 03F58063 		add	r3, r3, #1024	@ tmp126, tmp126,
 2411 0020 9842     		cmp	r0, r3	@ USARTx, tmp126
 2412 0022 09D0     		beq	.L191		@,
 2413              	@ ../Libraries/STM32F4xx_StdPeriph_Driver/src/stm32f4xx_usart.c:819:   assert_param(IS_USART_ALL_PE
 2414              		.loc 1 819 16 discriminator 8 view .LVU517
 2415 0024 03F58063 		add	r3, r3, #1024	@ tmp127, tmp127,
 2416 0028 9842     		cmp	r0, r3	@ USARTx, tmp127
 2417 002a 05D0     		beq	.L191		@,
 2418              	@ ../Libraries/STM32F4xx_StdPeriph_Driver/src/stm32f4xx_usart.c:819:   assert_param(IS_USART_ALL_PE
 2419              		.loc 1 819 3 discriminator 10 view .LVU518
 2420 002c 0E48     		ldr	r0, .L193+4	@ tmp130,
 2421              	.LVL173:
 2422              		.loc 1 819 3 discriminator 10 view .LVU519
 2423 002e 201A     		subs	r0, r4, r0	@ iftmp.27_7, USARTx, tmp130
 2424 0030 B0FA80F0 		clz	r0, r0	@ iftmp.27_7, iftmp.27_7
 2425 0034 4009     		lsrs	r0, r0, #5	@ iftmp.27_7, iftmp.27_7,
 2426 0036 00E0     		b	.L184		@
 2427              	.LVL174:
 2428              	.L191:
 2429              	@ ../Libraries/STM32F4xx_StdPeriph_Driver/src/stm32f4xx_usart.c:819:   assert_param(IS_USART_ALL_PE
 2430              		.loc 1 819 3 view .LVU520
 2431 0038 0120     		movs	r0, #1	@ iftmp.27_7,
 2432              	.LVL175:
 2433              	.L184:
 2434              	@ ../Libraries/STM32F4xx_StdPeriph_Driver/src/stm32f4xx_usart.c:819:   assert_param(IS_USART_ALL_PE
 2435              		.loc 1 819 3 discriminator 14 view .LVU521
 2436 003a FFF7FEFF 		bl	assert_param		@
 2437              	.LVL176:
 820:../Libraries/STM32F4xx_StdPeriph_Driver/src/stm32f4xx_usart.c ****   assert_param(IS_FUNCTIONAL_STATE(NewState));
 2438              		.loc 1 820 3 is_stmt 1 discriminator 14 view .LVU522
 2439 003e 012D     		cmp	r5, #1	@ NewState,
 2440 0040 8CBF     		ite	hi
 2441 0042 0020     		movhi	r0, #0	@,
 2442 0044 0120     		movls	r0, #1	@,
 2443 0046 FFF7FEFF 		bl	assert_param		@
 2444              	.LVL177:
ARM GAS  C:\Users\admin\AppData\Local\Temp\ccwrrJFc.s 			page 61


 821:../Libraries/STM32F4xx_StdPeriph_Driver/src/stm32f4xx_usart.c ****   
 822:../Libraries/STM32F4xx_StdPeriph_Driver/src/stm32f4xx_usart.c ****   if (NewState != DISABLE)
 2445              		.loc 1 822 3 discriminator 14 view .LVU523
 2446              	@ ../Libraries/STM32F4xx_StdPeriph_Driver/src/stm32f4xx_usart.c:825:     USARTx->CR3 |= USART_CR3_H
 823:../Libraries/STM32F4xx_StdPeriph_Driver/src/stm32f4xx_usart.c ****   {
 824:../Libraries/STM32F4xx_StdPeriph_Driver/src/stm32f4xx_usart.c ****     /* Enable the Half-Duplex mode by setting the HDSEL bit in the CR3 register */
 825:../Libraries/STM32F4xx_StdPeriph_Driver/src/stm32f4xx_usart.c ****     USARTx->CR3 |= USART_CR3_HDSEL;
 2447              		.loc 1 825 17 is_stmt 0 discriminator 14 view .LVU524
 2448 004a A38A     		ldrh	r3, [r4, #20]	@,
 2449              	@ ../Libraries/STM32F4xx_StdPeriph_Driver/src/stm32f4xx_usart.c:822:   if (NewState != DISABLE)
 822:../Libraries/STM32F4xx_StdPeriph_Driver/src/stm32f4xx_usart.c ****   {
 2450              		.loc 1 822 6 discriminator 14 view .LVU525
 2451 004c 25B1     		cbz	r5, .L185	@ NewState,
 2452              		.loc 1 825 5 is_stmt 1 view .LVU526
 2453              	@ ../Libraries/STM32F4xx_StdPeriph_Driver/src/stm32f4xx_usart.c:825:     USARTx->CR3 |= USART_CR3_H
 2454              		.loc 1 825 17 is_stmt 0 view .LVU527
 2455 004e 9BB2     		uxth	r3, r3	@ _3, USARTx_9(D)->CR3
 2456 0050 43F00803 		orr	r3, r3, #8	@ _4, _3,
 2457 0054 A382     		strh	r3, [r4, #20]	@ movhi	@ _4,
 2458              	@ ../Libraries/STM32F4xx_StdPeriph_Driver/src/stm32f4xx_usart.c:832: }
 826:../Libraries/STM32F4xx_StdPeriph_Driver/src/stm32f4xx_usart.c ****   }
