ARM GAS  C:\Users\admin\AppData\Local\Temp\ccm61GQJ.s 			page 1


   1              		.cpu cortex-m4
   2              		.arch armv7e-m
   3              		.fpu fpv4-sp-d16
   4              		.eabi_attribute 27, 1	@ Tag_ABI_HardFP_use
   5              		.eabi_attribute 28, 1	@ Tag_ABI_VFP_args
   6              		.eabi_attribute 23, 1	@ Tag_ABI_FP_number_model
   7              		.eabi_attribute 24, 1	@ Tag_ABI_align8_needed
   8              		.eabi_attribute 25, 1	@ Tag_ABI_align8_preserved
   9              		.eabi_attribute 26, 1	@ Tag_ABI_enum_size
  10              		.eabi_attribute 30, 2	@ Tag_ABI_optimization_goals
  11              		.eabi_attribute 34, 1	@ Tag_CPU_unaligned_access
  12              		.eabi_attribute 18, 4	@ Tag_ABI_PCS_wchar_t
  13              		.file	"stm32f4xx_i2c.c"
  14              	@ GNU C89 (GNU Arm Embedded Toolchain 10.3-2021.10) version 10.3.1 20210824 (release) (arm-none-eab
  15              	@	compiled by GNU C version 7.3-win32 20180312, GMP version 6.1.0, MPFR version 3.1.4, MPC version 
  16              	
  17              	@ GGC heuristics: --param ggc-min-expand=100 --param ggc-min-heapsize=131072
  18              	@ options passed:  -I . -I . -I ../Utilities/STM32F4-Discovery/
  19              	@ -I ../Libraries/STM32_USB_Device_Library/Class/audio/inc/
  20              	@ -I ../Libraries/STM32_USB_Device_Library/Core/inc/
  21              	@ -I ../Libraries/STM32_USB_OTG_Driver/inc/
  22              	@ -I ../Utilities/STM32F4-Discovery/
  23              	@ -I ../Libraries/STM32F4xx_StdPeriph_Driver/inc/
  24              	@ -I ../Utilities/STM32F4-Discovery/
  25              	@ -I ../Libraries/CMSIS/ST/STM32F4xx/Include/
  26              	@ -I ../Libraries/CMSIS/Include/ -imultilib thumb/v7e-m+fp/hard
  27              	@ -iprefix c:\program files (x86)\gnu arm embedded toolchain\10 2021.10\bin\../lib/gcc/arm-none-eab
  28              	@ -isysroot c:\program files (x86)\gnu arm embedded toolchain\10 2021.10\bin\../arm-none-eabi
  29              	@ -MD out/stm32f4xx_i2c.d -MF out/stm32f4xx_i2c.d -MP
  30              	@ -MQ out/stm32f4xx_i2c.o -D__USES_INITFINI__ -D STM32F4XX -D __VFP_FP__
  31              	@ -D USE_USB_OTG_FS
  32              	@ ../Libraries/STM32F4xx_StdPeriph_Driver/src/stm32f4xx_i2c.c
  33              	@ -mcpu=cortex-m4 -mthumb -mfloat-abi=hard -mfpu=fpv4-sp-d16
  34              	@ -mlibarch=armv7e-m+fp -march=armv7e-m+fp
  35              	@ -auxbase-strip out/stm32f4xx_i2c.o -g -ggdb3 -O3 -Wall
  36              	@ -Wstrict-prototypes -Wextra -std=gnu90 -ffast-math -ffunction-sections
  37              	@ -fdata-sections -fverbose-asm
  38              	@ options enabled:  -faggressive-loop-optimizations -falign-functions
  39              	@ -falign-jumps -falign-labels -falign-loops -fallocation-dce
  40              	@ -fassociative-math -fauto-inc-dec -fbranch-count-reg -fcaller-saves
  41              	@ -fcombine-stack-adjustments -fcompare-elim -fcprop-registers
  42              	@ -fcrossjumping -fcse-follow-jumps -fcx-limited-range -fdata-sections
  43              	@ -fdefer-pop -fdelete-null-pointer-checks -fdevirtualize
  44              	@ -fdevirtualize-speculatively -fdwarf2-cfi-asm -fearly-inlining
  45              	@ -feliminate-unused-debug-symbols -feliminate-unused-debug-types
  46              	@ -fexpensive-optimizations -ffinite-math-only -fforward-propagate
  47              	@ -ffp-int-builtin-inexact -ffunction-cse -ffunction-sections -fgcse
  48              	@ -fgcse-after-reload -fgcse-lm -fgnu-unique -fguess-branch-probability
  49              	@ -fhoist-adjacent-loads -fident -fif-conversion -fif-conversion2
  50              	@ -findirect-inlining -finline -finline-atomics -finline-functions
  51              	@ -finline-functions-called-once -finline-small-functions -fipa-bit-cp
  52              	@ -fipa-cp -fipa-cp-clone -fipa-icf -fipa-icf-functions -fipa-icf-variables
  53              	@ -fipa-profile -fipa-pure-const -fipa-ra -fipa-reference
  54              	@ -fipa-reference-addressable -fipa-sra -fipa-stack-alignment -fipa-vrp
  55              	@ -fira-hoist-pressure -fira-share-save-slots -fira-share-spill-slots
  56              	@ -fisolate-erroneous-paths-dereference -fivopts -fkeep-static-consts
  57              	@ -fleading-underscore -flifetime-dse -floop-interchange
ARM GAS  C:\Users\admin\AppData\Local\Temp\ccm61GQJ.s 			page 2


  58              	@ -floop-unroll-and-jam -flra-remat -fmerge-constants -fmerge-debug-strings
  59              	@ -fmove-loop-invariants -fomit-frame-pointer -foptimize-sibling-calls
  60              	@ -foptimize-strlen -fpartial-inlining -fpeel-loops -fpeephole -fpeephole2
  61              	@ -fplt -fpredictive-commoning -fprefetch-loop-arrays -freciprocal-math
  62              	@ -freg-struct-return -freorder-blocks -freorder-functions
  63              	@ -frerun-cse-after-loop -fsched-critical-path-heuristic
  64              	@ -fsched-dep-count-heuristic -fsched-group-heuristic -fsched-interblock
  65              	@ -fsched-last-insn-heuristic -fsched-pressure -fsched-rank-heuristic
  66              	@ -fsched-spec -fsched-spec-insn-heuristic -fsched-stalled-insns-dep
  67              	@ -fschedule-insns -fschedule-insns2 -fsection-anchors
  68              	@ -fsemantic-interposition -fshow-column -fshrink-wrap
  69              	@ -fshrink-wrap-separate -fsplit-ivs-in-unroller -fsplit-loops
  70              	@ -fsplit-paths -fsplit-wide-types -fssa-backprop -fssa-phiopt -fstdarg-opt
  71              	@ -fstore-merging -fstrict-aliasing -fstrict-volatile-bitfields
  72              	@ -fsync-libcalls -fthread-jumps -ftoplevel-reorder -ftree-bit-ccp
  73              	@ -ftree-builtin-call-dce -ftree-ccp -ftree-ch -ftree-coalesce-vars
  74              	@ -ftree-copy-prop -ftree-cselim -ftree-dce -ftree-dominator-opts
  75              	@ -ftree-dse -ftree-forwprop -ftree-fre -ftree-loop-distribute-patterns
  76              	@ -ftree-loop-distribution -ftree-loop-if-convert -ftree-loop-im
  77              	@ -ftree-loop-ivcanon -ftree-loop-optimize -ftree-loop-vectorize
  78              	@ -ftree-parallelize-loops= -ftree-partial-pre -ftree-phiprop -ftree-pre
  79              	@ -ftree-pta -ftree-reassoc -ftree-scev-cprop -ftree-sink
  80              	@ -ftree-slp-vectorize -ftree-slsr -ftree-sra -ftree-switch-conversion
  81              	@ -ftree-tail-merge -ftree-ter -ftree-vrp -funit-at-a-time
  82              	@ -funsafe-math-optimizations -funswitch-loops -fvar-tracking
  83              	@ -fvar-tracking-assignments -fverbose-asm -fversion-loops-for-strides
  84              	@ -fzero-initialized-in-bss -masm-syntax-unified -mbe32 -mlittle-endian
  85              	@ -mpic-data-is-text-relative -msched-prolog -mthumb -munaligned-access
  86              	@ -mvectorize-with-neon-quad
  87              	
  88              		.text
  89              	.Ltext0:
  90              		.cfi_sections	.debug_frame
  91              		.section	.text.I2C_DeInit,"ax",%progbits
  92              		.align	1
  93              		.p2align 2,,3
  94              		.global	I2C_DeInit
  95              		.syntax unified
  96              		.thumb
  97              		.thumb_func
  98              		.type	I2C_DeInit, %function
  99              	I2C_DeInit:
 100              	.LVL0:
 101              	.LFB110:
 102              		.file 1 "../Libraries/STM32F4xx_StdPeriph_Driver/src/stm32f4xx_i2c.c"
   1:../Libraries/STM32F4xx_StdPeriph_Driver/src/stm32f4xx_i2c.c **** /**
   2:../Libraries/STM32F4xx_StdPeriph_Driver/src/stm32f4xx_i2c.c ****   ******************************************************************************
   3:../Libraries/STM32F4xx_StdPeriph_Driver/src/stm32f4xx_i2c.c ****   * @file    stm32f4xx_i2c.c
   4:../Libraries/STM32F4xx_StdPeriph_Driver/src/stm32f4xx_i2c.c ****   * @author  MCD Application Team
   5:../Libraries/STM32F4xx_StdPeriph_Driver/src/stm32f4xx_i2c.c ****   * @version V1.0.0
   6:../Libraries/STM32F4xx_StdPeriph_Driver/src/stm32f4xx_i2c.c ****   * @date    30-September-2011
   7:../Libraries/STM32F4xx_StdPeriph_Driver/src/stm32f4xx_i2c.c ****   * @brief   This file provides firmware functions to manage the following 
   8:../Libraries/STM32F4xx_StdPeriph_Driver/src/stm32f4xx_i2c.c ****   *          functionalities of the Inter-integrated circuit (I2C)
   9:../Libraries/STM32F4xx_StdPeriph_Driver/src/stm32f4xx_i2c.c ****   *           - Initialization and Configuration
  10:../Libraries/STM32F4xx_StdPeriph_Driver/src/stm32f4xx_i2c.c ****   *           - Data transfers
  11:../Libraries/STM32F4xx_StdPeriph_Driver/src/stm32f4xx_i2c.c ****   *           - PEC management
  12:../Libraries/STM32F4xx_StdPeriph_Driver/src/stm32f4xx_i2c.c ****   *           - DMA transfers management
ARM GAS  C:\Users\admin\AppData\Local\Temp\ccm61GQJ.s 			page 3


  13:../Libraries/STM32F4xx_StdPeriph_Driver/src/stm32f4xx_i2c.c ****   *           - Interrupts, events and flags management 
  14:../Libraries/STM32F4xx_StdPeriph_Driver/src/stm32f4xx_i2c.c ****   *           
  15:../Libraries/STM32F4xx_StdPeriph_Driver/src/stm32f4xx_i2c.c ****   *  @verbatim
  16:../Libraries/STM32F4xx_StdPeriph_Driver/src/stm32f4xx_i2c.c ****   *    
  17:../Libraries/STM32F4xx_StdPeriph_Driver/src/stm32f4xx_i2c.c ****   *          ===================================================================
  18:../Libraries/STM32F4xx_StdPeriph_Driver/src/stm32f4xx_i2c.c ****   *                                 How to use this driver
  19:../Libraries/STM32F4xx_StdPeriph_Driver/src/stm32f4xx_i2c.c ****   *          ===================================================================
  20:../Libraries/STM32F4xx_StdPeriph_Driver/src/stm32f4xx_i2c.c ****   *          1. Enable peripheral clock using RCC_APB1PeriphClockCmd(RCC_APB1Periph_I2Cx, ENABLE)
  21:../Libraries/STM32F4xx_StdPeriph_Driver/src/stm32f4xx_i2c.c ****   *             function for I2C1, I2C2 or I2C3.
  22:../Libraries/STM32F4xx_StdPeriph_Driver/src/stm32f4xx_i2c.c ****   *
  23:../Libraries/STM32F4xx_StdPeriph_Driver/src/stm32f4xx_i2c.c ****   *          2. Enable SDA, SCL  and SMBA (when used) GPIO clocks using 
  24:../Libraries/STM32F4xx_StdPeriph_Driver/src/stm32f4xx_i2c.c ****   *             RCC_AHBPeriphClockCmd() function. 
  25:../Libraries/STM32F4xx_StdPeriph_Driver/src/stm32f4xx_i2c.c ****   *
  26:../Libraries/STM32F4xx_StdPeriph_Driver/src/stm32f4xx_i2c.c ****   *          3. Peripherals alternate function: 
  27:../Libraries/STM32F4xx_StdPeriph_Driver/src/stm32f4xx_i2c.c ****   *                 - Connect the pin to the desired peripherals' Alternate 
  28:../Libraries/STM32F4xx_StdPeriph_Driver/src/stm32f4xx_i2c.c ****   *                   Function (AF) using GPIO_PinAFConfig() function
  29:../Libraries/STM32F4xx_StdPeriph_Driver/src/stm32f4xx_i2c.c ****   *                 - Configure the desired pin in alternate function by:
  30:../Libraries/STM32F4xx_StdPeriph_Driver/src/stm32f4xx_i2c.c ****   *                   GPIO_InitStruct->GPIO_Mode = GPIO_Mode_AF
  31:../Libraries/STM32F4xx_StdPeriph_Driver/src/stm32f4xx_i2c.c ****   *                 - Select the type, pull-up/pull-down and output speed via 
  32:../Libraries/STM32F4xx_StdPeriph_Driver/src/stm32f4xx_i2c.c ****   *                   GPIO_PuPd, GPIO_OType and GPIO_Speed members
  33:../Libraries/STM32F4xx_StdPeriph_Driver/src/stm32f4xx_i2c.c ****   *                 - Call GPIO_Init() function
  34:../Libraries/STM32F4xx_StdPeriph_Driver/src/stm32f4xx_i2c.c ****   *                 Recommended configuration is Push-Pull, Pull-up, Open-Drain.
  35:../Libraries/STM32F4xx_StdPeriph_Driver/src/stm32f4xx_i2c.c ****   *                 Add an external pull up if necessary (typically 4.7 KOhm).      
  36:../Libraries/STM32F4xx_StdPeriph_Driver/src/stm32f4xx_i2c.c ****   *        
  37:../Libraries/STM32F4xx_StdPeriph_Driver/src/stm32f4xx_i2c.c ****   *          4. Program the Mode, duty cycle , Own address, Ack, Speed and Acknowledged
  38:../Libraries/STM32F4xx_StdPeriph_Driver/src/stm32f4xx_i2c.c ****   *             Address using the I2C_Init() function.
  39:../Libraries/STM32F4xx_StdPeriph_Driver/src/stm32f4xx_i2c.c ****   *
  40:../Libraries/STM32F4xx_StdPeriph_Driver/src/stm32f4xx_i2c.c ****   *          5. Optionally you can enable/configure the following parameters without
  41:../Libraries/STM32F4xx_StdPeriph_Driver/src/stm32f4xx_i2c.c ****   *             re-initialization (i.e there is no need to call again I2C_Init() function):
  42:../Libraries/STM32F4xx_StdPeriph_Driver/src/stm32f4xx_i2c.c ****   *              - Enable the acknowledge feature using I2C_AcknowledgeConfig() function
  43:../Libraries/STM32F4xx_StdPeriph_Driver/src/stm32f4xx_i2c.c ****   *              - Enable the dual addressing mode using I2C_DualAddressCmd() function
  44:../Libraries/STM32F4xx_StdPeriph_Driver/src/stm32f4xx_i2c.c ****   *              - Enable the general call using the I2C_GeneralCallCmd() function
  45:../Libraries/STM32F4xx_StdPeriph_Driver/src/stm32f4xx_i2c.c ****   *              - Enable the clock stretching using I2C_StretchClockCmd() function
  46:../Libraries/STM32F4xx_StdPeriph_Driver/src/stm32f4xx_i2c.c ****   *              - Enable the fast mode duty cycle using the I2C_FastModeDutyCycleConfig()
  47:../Libraries/STM32F4xx_StdPeriph_Driver/src/stm32f4xx_i2c.c ****   *                function.
  48:../Libraries/STM32F4xx_StdPeriph_Driver/src/stm32f4xx_i2c.c ****   *              - Configure the NACK position for Master Receiver mode in case of 
  49:../Libraries/STM32F4xx_StdPeriph_Driver/src/stm32f4xx_i2c.c ****   *                2 bytes reception using the function I2C_NACKPositionConfig().  
  50:../Libraries/STM32F4xx_StdPeriph_Driver/src/stm32f4xx_i2c.c ****   *              - Enable the PEC Calculation using I2C_CalculatePEC() function
  51:../Libraries/STM32F4xx_StdPeriph_Driver/src/stm32f4xx_i2c.c ****   *              - For SMBus Mode: 
  52:../Libraries/STM32F4xx_StdPeriph_Driver/src/stm32f4xx_i2c.c ****   *                   - Enable the Address Resolution Protocol (ARP) using I2C_ARPCmd() function
  53:../Libraries/STM32F4xx_StdPeriph_Driver/src/stm32f4xx_i2c.c ****   *                   - Configure the SMBusAlert pin using I2C_SMBusAlertConfig() function
  54:../Libraries/STM32F4xx_StdPeriph_Driver/src/stm32f4xx_i2c.c ****   *
  55:../Libraries/STM32F4xx_StdPeriph_Driver/src/stm32f4xx_i2c.c ****   *          6. Enable the NVIC and the corresponding interrupt using the function 
  56:../Libraries/STM32F4xx_StdPeriph_Driver/src/stm32f4xx_i2c.c ****   *             I2C_ITConfig() if you need to use interrupt mode. 
  57:../Libraries/STM32F4xx_StdPeriph_Driver/src/stm32f4xx_i2c.c ****   *
  58:../Libraries/STM32F4xx_StdPeriph_Driver/src/stm32f4xx_i2c.c ****   *          7. When using the DMA mode 
  59:../Libraries/STM32F4xx_StdPeriph_Driver/src/stm32f4xx_i2c.c ****   *                   - Configure the DMA using DMA_Init() function
  60:../Libraries/STM32F4xx_StdPeriph_Driver/src/stm32f4xx_i2c.c ****   *                   - Active the needed channel Request using I2C_DMACmd() or
  61:../Libraries/STM32F4xx_StdPeriph_Driver/src/stm32f4xx_i2c.c ****   *                     I2C_DMALastTransferCmd() function.
  62:../Libraries/STM32F4xx_StdPeriph_Driver/src/stm32f4xx_i2c.c ****   *              @note When using DMA mode, I2C interrupts may be used at the same time to
  63:../Libraries/STM32F4xx_StdPeriph_Driver/src/stm32f4xx_i2c.c ****   *                    control the communication flow (Start/Stop/Ack... events and errors).
  64:../Libraries/STM32F4xx_StdPeriph_Driver/src/stm32f4xx_i2c.c ****   * 
  65:../Libraries/STM32F4xx_StdPeriph_Driver/src/stm32f4xx_i2c.c ****   *          8. Enable the I2C using the I2C_Cmd() function.
  66:../Libraries/STM32F4xx_StdPeriph_Driver/src/stm32f4xx_i2c.c ****   * 
  67:../Libraries/STM32F4xx_StdPeriph_Driver/src/stm32f4xx_i2c.c ****   *          9. Enable the DMA using the DMA_Cmd() function when using DMA mode in the 
  68:../Libraries/STM32F4xx_StdPeriph_Driver/src/stm32f4xx_i2c.c ****   *             transfers. 
  69:../Libraries/STM32F4xx_StdPeriph_Driver/src/stm32f4xx_i2c.c ****   *
ARM GAS  C:\Users\admin\AppData\Local\Temp\ccm61GQJ.s 			page 4


  70:../Libraries/STM32F4xx_StdPeriph_Driver/src/stm32f4xx_i2c.c ****   *  @endverbatim
  71:../Libraries/STM32F4xx_StdPeriph_Driver/src/stm32f4xx_i2c.c ****   *  
  72:../Libraries/STM32F4xx_StdPeriph_Driver/src/stm32f4xx_i2c.c ****   ******************************************************************************
  73:../Libraries/STM32F4xx_StdPeriph_Driver/src/stm32f4xx_i2c.c ****   * @attention
  74:../Libraries/STM32F4xx_StdPeriph_Driver/src/stm32f4xx_i2c.c ****   *
  75:../Libraries/STM32F4xx_StdPeriph_Driver/src/stm32f4xx_i2c.c ****   * THE PRESENT FIRMWARE WHICH IS FOR GUIDANCE ONLY AIMS AT PROVIDING CUSTOMERS
  76:../Libraries/STM32F4xx_StdPeriph_Driver/src/stm32f4xx_i2c.c ****   * WITH CODING INFORMATION REGARDING THEIR PRODUCTS IN ORDER FOR THEM TO SAVE
  77:../Libraries/STM32F4xx_StdPeriph_Driver/src/stm32f4xx_i2c.c ****   * TIME. AS A RESULT, STMICROELECTRONICS SHALL NOT BE HELD LIABLE FOR ANY
  78:../Libraries/STM32F4xx_StdPeriph_Driver/src/stm32f4xx_i2c.c ****   * DIRECT, INDIRECT OR CONSEQUENTIAL DAMAGES WITH RESPECT TO ANY CLAIMS ARISING
  79:../Libraries/STM32F4xx_StdPeriph_Driver/src/stm32f4xx_i2c.c ****   * FROM THE CONTENT OF SUCH FIRMWARE AND/OR THE USE MADE BY CUSTOMERS OF THE
  80:../Libraries/STM32F4xx_StdPeriph_Driver/src/stm32f4xx_i2c.c ****   * CODING INFORMATION CONTAINED HEREIN IN CONNECTION WITH THEIR PRODUCTS.
  81:../Libraries/STM32F4xx_StdPeriph_Driver/src/stm32f4xx_i2c.c ****   *
  82:../Libraries/STM32F4xx_StdPeriph_Driver/src/stm32f4xx_i2c.c ****   * <h2><center>&copy; COPYRIGHT 2011 STMicroelectronics</center></h2>
  83:../Libraries/STM32F4xx_StdPeriph_Driver/src/stm32f4xx_i2c.c ****   ******************************************************************************  
  84:../Libraries/STM32F4xx_StdPeriph_Driver/src/stm32f4xx_i2c.c ****   */ 
  85:../Libraries/STM32F4xx_StdPeriph_Driver/src/stm32f4xx_i2c.c **** 
  86:../Libraries/STM32F4xx_StdPeriph_Driver/src/stm32f4xx_i2c.c **** /* Includes ------------------------------------------------------------------*/
  87:../Libraries/STM32F4xx_StdPeriph_Driver/src/stm32f4xx_i2c.c **** #include "stm32f4xx_i2c.h"
  88:../Libraries/STM32F4xx_StdPeriph_Driver/src/stm32f4xx_i2c.c **** #include "stm32f4xx_rcc.h"
  89:../Libraries/STM32F4xx_StdPeriph_Driver/src/stm32f4xx_i2c.c **** #include <stm32f4xx_conf.h>
  90:../Libraries/STM32F4xx_StdPeriph_Driver/src/stm32f4xx_i2c.c **** 
  91:../Libraries/STM32F4xx_StdPeriph_Driver/src/stm32f4xx_i2c.c **** /** @addtogroup STM32F4xx_StdPeriph_Driver
  92:../Libraries/STM32F4xx_StdPeriph_Driver/src/stm32f4xx_i2c.c ****   * @{
  93:../Libraries/STM32F4xx_StdPeriph_Driver/src/stm32f4xx_i2c.c ****   */
  94:../Libraries/STM32F4xx_StdPeriph_Driver/src/stm32f4xx_i2c.c **** 
  95:../Libraries/STM32F4xx_StdPeriph_Driver/src/stm32f4xx_i2c.c **** /** @defgroup I2C 
  96:../Libraries/STM32F4xx_StdPeriph_Driver/src/stm32f4xx_i2c.c ****   * @brief I2C driver modules
  97:../Libraries/STM32F4xx_StdPeriph_Driver/src/stm32f4xx_i2c.c ****   * @{
  98:../Libraries/STM32F4xx_StdPeriph_Driver/src/stm32f4xx_i2c.c ****   */ 
  99:../Libraries/STM32F4xx_StdPeriph_Driver/src/stm32f4xx_i2c.c **** 
 100:../Libraries/STM32F4xx_StdPeriph_Driver/src/stm32f4xx_i2c.c **** /* Private typedef -----------------------------------------------------------*/
 101:../Libraries/STM32F4xx_StdPeriph_Driver/src/stm32f4xx_i2c.c **** /* Private define ------------------------------------------------------------*/
 102:../Libraries/STM32F4xx_StdPeriph_Driver/src/stm32f4xx_i2c.c **** 
 103:../Libraries/STM32F4xx_StdPeriph_Driver/src/stm32f4xx_i2c.c **** #define CR1_CLEAR_MASK    ((uint16_t)0xFBF5)      /*<! I2C registers Masks */
 104:../Libraries/STM32F4xx_StdPeriph_Driver/src/stm32f4xx_i2c.c **** #define FLAG_MASK         ((uint32_t)0x00FFFFFF)  /*<! I2C FLAG mask */
 105:../Libraries/STM32F4xx_StdPeriph_Driver/src/stm32f4xx_i2c.c **** #define ITEN_MASK         ((uint32_t)0x07000000)  /*<! I2C Interrupt Enable mask */
 106:../Libraries/STM32F4xx_StdPeriph_Driver/src/stm32f4xx_i2c.c **** 
 107:../Libraries/STM32F4xx_StdPeriph_Driver/src/stm32f4xx_i2c.c **** /* Private macro -------------------------------------------------------------*/
 108:../Libraries/STM32F4xx_StdPeriph_Driver/src/stm32f4xx_i2c.c **** /* Private variables ---------------------------------------------------------*/
 109:../Libraries/STM32F4xx_StdPeriph_Driver/src/stm32f4xx_i2c.c **** /* Private function prototypes -----------------------------------------------*/
 110:../Libraries/STM32F4xx_StdPeriph_Driver/src/stm32f4xx_i2c.c **** /* Private functions ---------------------------------------------------------*/
 111:../Libraries/STM32F4xx_StdPeriph_Driver/src/stm32f4xx_i2c.c **** 
 112:../Libraries/STM32F4xx_StdPeriph_Driver/src/stm32f4xx_i2c.c **** /** @defgroup I2C_Private_Functions
 113:../Libraries/STM32F4xx_StdPeriph_Driver/src/stm32f4xx_i2c.c ****   * @{
 114:../Libraries/STM32F4xx_StdPeriph_Driver/src/stm32f4xx_i2c.c ****   */
 115:../Libraries/STM32F4xx_StdPeriph_Driver/src/stm32f4xx_i2c.c **** 
 116:../Libraries/STM32F4xx_StdPeriph_Driver/src/stm32f4xx_i2c.c **** /** @defgroup I2C_Group1 Initialization and Configuration functions
 117:../Libraries/STM32F4xx_StdPeriph_Driver/src/stm32f4xx_i2c.c ****  *  @brief   Initialization and Configuration functions 
 118:../Libraries/STM32F4xx_StdPeriph_Driver/src/stm32f4xx_i2c.c ****  *
 119:../Libraries/STM32F4xx_StdPeriph_Driver/src/stm32f4xx_i2c.c **** @verbatim   
 120:../Libraries/STM32F4xx_StdPeriph_Driver/src/stm32f4xx_i2c.c ****  ===============================================================================
 121:../Libraries/STM32F4xx_StdPeriph_Driver/src/stm32f4xx_i2c.c ****                    Initialization and Configuration functions
 122:../Libraries/STM32F4xx_StdPeriph_Driver/src/stm32f4xx_i2c.c ****  ===============================================================================  
 123:../Libraries/STM32F4xx_StdPeriph_Driver/src/stm32f4xx_i2c.c **** 
 124:../Libraries/STM32F4xx_StdPeriph_Driver/src/stm32f4xx_i2c.c **** @endverbatim
 125:../Libraries/STM32F4xx_StdPeriph_Driver/src/stm32f4xx_i2c.c ****   * @{
 126:../Libraries/STM32F4xx_StdPeriph_Driver/src/stm32f4xx_i2c.c ****   */
ARM GAS  C:\Users\admin\AppData\Local\Temp\ccm61GQJ.s 			page 5


 127:../Libraries/STM32F4xx_StdPeriph_Driver/src/stm32f4xx_i2c.c **** 
 128:../Libraries/STM32F4xx_StdPeriph_Driver/src/stm32f4xx_i2c.c **** /**
 129:../Libraries/STM32F4xx_StdPeriph_Driver/src/stm32f4xx_i2c.c ****   * @brief  Deinitialize the I2Cx peripheral registers to their default reset values.
 130:../Libraries/STM32F4xx_StdPeriph_Driver/src/stm32f4xx_i2c.c ****   * @param  I2Cx: where x can be 1, 2 or 3 to select the I2C peripheral.
 131:../Libraries/STM32F4xx_StdPeriph_Driver/src/stm32f4xx_i2c.c ****   * @retval None
 132:../Libraries/STM32F4xx_StdPeriph_Driver/src/stm32f4xx_i2c.c ****   */
 133:../Libraries/STM32F4xx_StdPeriph_Driver/src/stm32f4xx_i2c.c **** void I2C_DeInit(I2C_TypeDef* I2Cx)
 134:../Libraries/STM32F4xx_StdPeriph_Driver/src/stm32f4xx_i2c.c **** {
 103              		.loc 1 134 1 view -0
 104              		.cfi_startproc
 105              		@ args = 0, pretend = 0, frame = 0
 106              		@ frame_needed = 0, uses_anonymous_args = 0
 135:../Libraries/STM32F4xx_StdPeriph_Driver/src/stm32f4xx_i2c.c ****   /* Check the parameters */
 136:../Libraries/STM32F4xx_StdPeriph_Driver/src/stm32f4xx_i2c.c ****   assert_param(IS_I2C_ALL_PERIPH(I2Cx));
 107              		.loc 1 136 3 view .LVU1
 137:../Libraries/STM32F4xx_StdPeriph_Driver/src/stm32f4xx_i2c.c **** 
 138:../Libraries/STM32F4xx_StdPeriph_Driver/src/stm32f4xx_i2c.c ****   if (I2Cx == I2C1)
 108              		.loc 1 138 3 view .LVU2
 109              	@ ../Libraries/STM32F4xx_StdPeriph_Driver/src/stm32f4xx_i2c.c:134: {
 134:../Libraries/STM32F4xx_StdPeriph_Driver/src/stm32f4xx_i2c.c ****   /* Check the parameters */
 110              		.loc 1 134 1 is_stmt 0 view .LVU3
 111 0000 08B5     		push	{r3, lr}	@
 112              		.cfi_def_cfa_offset 8
 113              		.cfi_offset 3, -8
 114              		.cfi_offset 14, -4
 115              	@ ../Libraries/STM32F4xx_StdPeriph_Driver/src/stm32f4xx_i2c.c:138:   if (I2Cx == I2C1)
 116              		.loc 1 138 6 view .LVU4
 117 0002 174B     		ldr	r3, .L10	@ tmp114,
 118 0004 9842     		cmp	r0, r3	@ I2Cx, tmp114
 119 0006 06D0     		beq	.L7		@,
 139:../Libraries/STM32F4xx_StdPeriph_Driver/src/stm32f4xx_i2c.c ****   {
 140:../Libraries/STM32F4xx_StdPeriph_Driver/src/stm32f4xx_i2c.c ****     /* Enable I2C1 reset state */
 141:../Libraries/STM32F4xx_StdPeriph_Driver/src/stm32f4xx_i2c.c ****     RCC_APB1PeriphResetCmd(RCC_APB1Periph_I2C1, ENABLE);
 142:../Libraries/STM32F4xx_StdPeriph_Driver/src/stm32f4xx_i2c.c ****     /* Release I2C1 from reset state */
 143:../Libraries/STM32F4xx_StdPeriph_Driver/src/stm32f4xx_i2c.c ****     RCC_APB1PeriphResetCmd(RCC_APB1Periph_I2C1, DISABLE);    
 144:../Libraries/STM32F4xx_StdPeriph_Driver/src/stm32f4xx_i2c.c ****   }
 145:../Libraries/STM32F4xx_StdPeriph_Driver/src/stm32f4xx_i2c.c ****   else if (I2Cx == I2C2)
 120              		.loc 1 145 8 is_stmt 1 view .LVU5
 121              	@ ../Libraries/STM32F4xx_StdPeriph_Driver/src/stm32f4xx_i2c.c:145:   else if (I2Cx == I2C2)
 122              		.loc 1 145 11 is_stmt 0 view .LVU6
 123 0008 164B     		ldr	r3, .L10+4	@ tmp115,
 124 000a 9842     		cmp	r0, r3	@ I2Cx, tmp115
 125 000c 0FD0     		beq	.L8		@,
 146:../Libraries/STM32F4xx_StdPeriph_Driver/src/stm32f4xx_i2c.c ****   {
 147:../Libraries/STM32F4xx_StdPeriph_Driver/src/stm32f4xx_i2c.c ****     /* Enable I2C2 reset state */
 148:../Libraries/STM32F4xx_StdPeriph_Driver/src/stm32f4xx_i2c.c ****     RCC_APB1PeriphResetCmd(RCC_APB1Periph_I2C2, ENABLE);
 149:../Libraries/STM32F4xx_StdPeriph_Driver/src/stm32f4xx_i2c.c ****     /* Release I2C2 from reset state */
 150:../Libraries/STM32F4xx_StdPeriph_Driver/src/stm32f4xx_i2c.c ****     RCC_APB1PeriphResetCmd(RCC_APB1Periph_I2C2, DISABLE);      
 151:../Libraries/STM32F4xx_StdPeriph_Driver/src/stm32f4xx_i2c.c ****   }
 152:../Libraries/STM32F4xx_StdPeriph_Driver/src/stm32f4xx_i2c.c ****   else 
 153:../Libraries/STM32F4xx_StdPeriph_Driver/src/stm32f4xx_i2c.c ****   {
 154:../Libraries/STM32F4xx_StdPeriph_Driver/src/stm32f4xx_i2c.c ****     if (I2Cx == I2C3)
 126              		.loc 1 154 5 is_stmt 1 view .LVU7
 127              	@ ../Libraries/STM32F4xx_StdPeriph_Driver/src/stm32f4xx_i2c.c:154:     if (I2Cx == I2C3)
 128              		.loc 1 154 8 is_stmt 0 view .LVU8
 129 000e 164B     		ldr	r3, .L10+8	@ tmp116,
 130 0010 9842     		cmp	r0, r3	@ I2Cx, tmp116
ARM GAS  C:\Users\admin\AppData\Local\Temp\ccm61GQJ.s 			page 6


 131 0012 18D0     		beq	.L9		@,
 132              	@ ../Libraries/STM32F4xx_StdPeriph_Driver/src/stm32f4xx_i2c.c:162: }
 155:../Libraries/STM32F4xx_StdPeriph_Driver/src/stm32f4xx_i2c.c ****     {
 156:../Libraries/STM32F4xx_StdPeriph_Driver/src/stm32f4xx_i2c.c ****       /* Enable I2C3 reset state */
 157:../Libraries/STM32F4xx_StdPeriph_Driver/src/stm32f4xx_i2c.c ****       RCC_APB1PeriphResetCmd(RCC_APB1Periph_I2C3, ENABLE);
 158:../Libraries/STM32F4xx_StdPeriph_Driver/src/stm32f4xx_i2c.c ****       /* Release I2C3 from reset state */
 159:../Libraries/STM32F4xx_StdPeriph_Driver/src/stm32f4xx_i2c.c ****       RCC_APB1PeriphResetCmd(RCC_APB1Periph_I2C3, DISABLE);     
 160:../Libraries/STM32F4xx_StdPeriph_Driver/src/stm32f4xx_i2c.c ****     }
 161:../Libraries/STM32F4xx_StdPeriph_Driver/src/stm32f4xx_i2c.c ****   }
 162:../Libraries/STM32F4xx_StdPeriph_Driver/src/stm32f4xx_i2c.c **** }
 133              		.loc 1 162 1 view .LVU9
 134 0014 08BD     		pop	{r3, pc}	@
 135              	.L7:
 141:../Libraries/STM32F4xx_StdPeriph_Driver/src/stm32f4xx_i2c.c ****     /* Release I2C1 from reset state */
 136              		.loc 1 141 5 is_stmt 1 view .LVU10
 137 0016 0121     		movs	r1, #1	@,
 138 0018 4FF40010 		mov	r0, #2097152	@,
 139              	.LVL1:
 141:../Libraries/STM32F4xx_StdPeriph_Driver/src/stm32f4xx_i2c.c ****     /* Release I2C1 from reset state */
 140              		.loc 1 141 5 is_stmt 0 view .LVU11
 141 001c FFF7FEFF 		bl	RCC_APB1PeriphResetCmd		@
 142              	.LVL2:
 143:../Libraries/STM32F4xx_StdPeriph_Driver/src/stm32f4xx_i2c.c ****   }
 143              		.loc 1 143 5 is_stmt 1 view .LVU12
 144              	@ ../Libraries/STM32F4xx_StdPeriph_Driver/src/stm32f4xx_i2c.c:162: }
 145              		.loc 1 162 1 is_stmt 0 view .LVU13
 146 0020 BDE80840 		pop	{r3, lr}	@
 147              		.cfi_remember_state
 148              		.cfi_restore 14
 149              		.cfi_restore 3
 150              		.cfi_def_cfa_offset 0
 151              	@ ../Libraries/STM32F4xx_StdPeriph_Driver/src/stm32f4xx_i2c.c:143:     RCC_APB1PeriphResetCmd(RCC_A
 143:../Libraries/STM32F4xx_StdPeriph_Driver/src/stm32f4xx_i2c.c ****   }
 152              		.loc 1 143 5 view .LVU14
 153 0024 0021     		movs	r1, #0	@,
 154 0026 4FF40010 		mov	r0, #2097152	@,
 155 002a FFF7FEBF 		b	RCC_APB1PeriphResetCmd		@
 156              	.LVL3:
 157              	.L8:
 158              		.cfi_restore_state
 148:../Libraries/STM32F4xx_StdPeriph_Driver/src/stm32f4xx_i2c.c ****     /* Release I2C2 from reset state */
 159              		.loc 1 148 5 is_stmt 1 view .LVU15
 160 002e 0121     		movs	r1, #1	@,
 161 0030 4FF48000 		mov	r0, #4194304	@,
 162              	.LVL4:
 148:../Libraries/STM32F4xx_StdPeriph_Driver/src/stm32f4xx_i2c.c ****     /* Release I2C2 from reset state */
 163              		.loc 1 148 5 is_stmt 0 view .LVU16
 164 0034 FFF7FEFF 		bl	RCC_APB1PeriphResetCmd		@
 165              	.LVL5:
 150:../Libraries/STM32F4xx_StdPeriph_Driver/src/stm32f4xx_i2c.c ****   }
 166              		.loc 1 150 5 is_stmt 1 view .LVU17
 167              	@ ../Libraries/STM32F4xx_StdPeriph_Driver/src/stm32f4xx_i2c.c:162: }
 168              		.loc 1 162 1 is_stmt 0 view .LVU18
 169 0038 BDE80840 		pop	{r3, lr}	@
 170              		.cfi_remember_state
 171              		.cfi_restore 14
 172              		.cfi_restore 3
ARM GAS  C:\Users\admin\AppData\Local\Temp\ccm61GQJ.s 			page 7


 173              		.cfi_def_cfa_offset 0
 174              	@ ../Libraries/STM32F4xx_StdPeriph_Driver/src/stm32f4xx_i2c.c:150:     RCC_APB1PeriphResetCmd(RCC_A
 150:../Libraries/STM32F4xx_StdPeriph_Driver/src/stm32f4xx_i2c.c ****   }
 175              		.loc 1 150 5 view .LVU19
 176 003c 0021     		movs	r1, #0	@,
 177 003e 4FF48000 		mov	r0, #4194304	@,
 178 0042 FFF7FEBF 		b	RCC_APB1PeriphResetCmd		@
 179              	.LVL6:
 180              	.L9:
 181              		.cfi_restore_state
 157:../Libraries/STM32F4xx_StdPeriph_Driver/src/stm32f4xx_i2c.c ****       /* Release I2C3 from reset state */
 182              		.loc 1 157 7 is_stmt 1 view .LVU20
 183 0046 0121     		movs	r1, #1	@,
 184 0048 4FF40000 		mov	r0, #8388608	@,
 185              	.LVL7:
 157:../Libraries/STM32F4xx_StdPeriph_Driver/src/stm32f4xx_i2c.c ****       /* Release I2C3 from reset state */
 186              		.loc 1 157 7 is_stmt 0 view .LVU21
 187 004c FFF7FEFF 		bl	RCC_APB1PeriphResetCmd		@
 188              	.LVL8:
 159:../Libraries/STM32F4xx_StdPeriph_Driver/src/stm32f4xx_i2c.c ****     }
 189              		.loc 1 159 7 is_stmt 1 view .LVU22
 190              	@ ../Libraries/STM32F4xx_StdPeriph_Driver/src/stm32f4xx_i2c.c:162: }
 191              		.loc 1 162 1 is_stmt 0 view .LVU23
 192 0050 BDE80840 		pop	{r3, lr}	@
 193              		.cfi_restore 14
 194              		.cfi_restore 3
 195              		.cfi_def_cfa_offset 0
 196              	@ ../Libraries/STM32F4xx_StdPeriph_Driver/src/stm32f4xx_i2c.c:159:       RCC_APB1PeriphResetCmd(RCC
 159:../Libraries/STM32F4xx_StdPeriph_Driver/src/stm32f4xx_i2c.c ****     }
 197              		.loc 1 159 7 view .LVU24
 198 0054 0021     		movs	r1, #0	@,
 199 0056 4FF40000 		mov	r0, #8388608	@,
 200 005a FFF7FEBF 		b	RCC_APB1PeriphResetCmd		@
 201              	.LVL9:
 202              	.L11:
 203 005e 00BF     		.align	2
 204              	.L10:
 205 0060 00540040 		.word	1073763328
 206 0064 00580040 		.word	1073764352
 207 0068 005C0040 		.word	1073765376
 208              		.cfi_endproc
 209              	.LFE110:
 210              		.size	I2C_DeInit, .-I2C_DeInit
 211              		.section	.text.I2C_Init,"ax",%progbits
 212              		.align	1
 213              		.p2align 2,,3
 214              		.global	I2C_Init
 215              		.syntax unified
 216              		.thumb
 217              		.thumb_func
 218              		.type	I2C_Init, %function
 219              	I2C_Init:
 220              	.LVL10:
 221              	.LFB111:
 163:../Libraries/STM32F4xx_StdPeriph_Driver/src/stm32f4xx_i2c.c **** 
 164:../Libraries/STM32F4xx_StdPeriph_Driver/src/stm32f4xx_i2c.c **** /**
 165:../Libraries/STM32F4xx_StdPeriph_Driver/src/stm32f4xx_i2c.c ****   * @brief  Initializes the I2Cx peripheral according to the specified 
ARM GAS  C:\Users\admin\AppData\Local\Temp\ccm61GQJ.s 			page 8


 166:../Libraries/STM32F4xx_StdPeriph_Driver/src/stm32f4xx_i2c.c ****   *         parameters in the I2C_InitStruct.
 167:../Libraries/STM32F4xx_StdPeriph_Driver/src/stm32f4xx_i2c.c ****   *           
 168:../Libraries/STM32F4xx_StdPeriph_Driver/src/stm32f4xx_i2c.c ****   * @note   To use the I2C at 400 KHz (in fast mode), the PCLK1 frequency 
 169:../Libraries/STM32F4xx_StdPeriph_Driver/src/stm32f4xx_i2c.c ****   *         (I2C peripheral input clock) must be a multiple of 10 MHz.  
 170:../Libraries/STM32F4xx_StdPeriph_Driver/src/stm32f4xx_i2c.c ****   *           
 171:../Libraries/STM32F4xx_StdPeriph_Driver/src/stm32f4xx_i2c.c ****   * @param  I2Cx: where x can be 1, 2 or 3 to select the I2C peripheral.
 172:../Libraries/STM32F4xx_StdPeriph_Driver/src/stm32f4xx_i2c.c ****   * @param  I2C_InitStruct: pointer to a I2C_InitTypeDef structure that contains 
 173:../Libraries/STM32F4xx_StdPeriph_Driver/src/stm32f4xx_i2c.c ****   *         the configuration information for the specified I2C peripheral.
 174:../Libraries/STM32F4xx_StdPeriph_Driver/src/stm32f4xx_i2c.c ****   * @retval None
 175:../Libraries/STM32F4xx_StdPeriph_Driver/src/stm32f4xx_i2c.c ****   */
 176:../Libraries/STM32F4xx_StdPeriph_Driver/src/stm32f4xx_i2c.c **** void I2C_Init(I2C_TypeDef* I2Cx, I2C_InitTypeDef* I2C_InitStruct)
 177:../Libraries/STM32F4xx_StdPeriph_Driver/src/stm32f4xx_i2c.c **** {
 222              		.loc 1 177 1 is_stmt 1 view -0
 223              		.cfi_startproc
 224              		@ args = 0, pretend = 0, frame = 16
 225              		@ frame_needed = 0, uses_anonymous_args = 0
 178:../Libraries/STM32F4xx_StdPeriph_Driver/src/stm32f4xx_i2c.c ****   uint16_t tmpreg = 0, freqrange = 0;
 226              		.loc 1 178 3 view .LVU26
 179:../Libraries/STM32F4xx_StdPeriph_Driver/src/stm32f4xx_i2c.c ****   uint16_t result = 0x04;
 227              		.loc 1 179 3 view .LVU27
 180:../Libraries/STM32F4xx_StdPeriph_Driver/src/stm32f4xx_i2c.c ****   uint32_t pclk1 = 8000000;
 228              		.loc 1 180 3 view .LVU28
 181:../Libraries/STM32F4xx_StdPeriph_Driver/src/stm32f4xx_i2c.c ****   RCC_ClocksTypeDef  rcc_clocks;
 229              		.loc 1 181 3 view .LVU29
 182:../Libraries/STM32F4xx_StdPeriph_Driver/src/stm32f4xx_i2c.c ****   /* Check the parameters */
 183:../Libraries/STM32F4xx_StdPeriph_Driver/src/stm32f4xx_i2c.c ****   assert_param(IS_I2C_ALL_PERIPH(I2Cx));
 230              		.loc 1 183 3 view .LVU30
 184:../Libraries/STM32F4xx_StdPeriph_Driver/src/stm32f4xx_i2c.c ****   assert_param(IS_I2C_CLOCK_SPEED(I2C_InitStruct->I2C_ClockSpeed));
 231              		.loc 1 184 3 view .LVU31
 185:../Libraries/STM32F4xx_StdPeriph_Driver/src/stm32f4xx_i2c.c ****   assert_param(IS_I2C_MODE(I2C_InitStruct->I2C_Mode));
 232              		.loc 1 185 3 view .LVU32
 186:../Libraries/STM32F4xx_StdPeriph_Driver/src/stm32f4xx_i2c.c ****   assert_param(IS_I2C_DUTY_CYCLE(I2C_InitStruct->I2C_DutyCycle));
 233              		.loc 1 186 3 view .LVU33
 187:../Libraries/STM32F4xx_StdPeriph_Driver/src/stm32f4xx_i2c.c ****   assert_param(IS_I2C_OWN_ADDRESS1(I2C_InitStruct->I2C_OwnAddress1));
 234              		.loc 1 187 3 view .LVU34
 188:../Libraries/STM32F4xx_StdPeriph_Driver/src/stm32f4xx_i2c.c ****   assert_param(IS_I2C_ACK_STATE(I2C_InitStruct->I2C_Ack));
 235              		.loc 1 188 3 view .LVU35
 189:../Libraries/STM32F4xx_StdPeriph_Driver/src/stm32f4xx_i2c.c ****   assert_param(IS_I2C_ACKNOWLEDGE_ADDRESS(I2C_InitStruct->I2C_AcknowledgedAddress));
 236              		.loc 1 189 3 view .LVU36
 190:../Libraries/STM32F4xx_StdPeriph_Driver/src/stm32f4xx_i2c.c **** 
 191:../Libraries/STM32F4xx_StdPeriph_Driver/src/stm32f4xx_i2c.c **** /*---------------------------- I2Cx CR2 Configuration ------------------------*/
 192:../Libraries/STM32F4xx_StdPeriph_Driver/src/stm32f4xx_i2c.c ****   /* Get the I2Cx CR2 value */
 193:../Libraries/STM32F4xx_StdPeriph_Driver/src/stm32f4xx_i2c.c ****   tmpreg = I2Cx->CR2;
 237              		.loc 1 193 3 view .LVU37
 238              	@ ../Libraries/STM32F4xx_StdPeriph_Driver/src/stm32f4xx_i2c.c:177: {
 177:../Libraries/STM32F4xx_StdPeriph_Driver/src/stm32f4xx_i2c.c ****   uint16_t tmpreg = 0, freqrange = 0;
 239              		.loc 1 177 1 is_stmt 0 view .LVU38
 240 0000 70B5     		push	{r4, r5, r6, lr}	@
 241              		.cfi_def_cfa_offset 16
 242              		.cfi_offset 4, -16
 243              		.cfi_offset 5, -12
 244              		.cfi_offset 6, -8
 245              		.cfi_offset 14, -4
 246              	@ ../Libraries/STM32F4xx_StdPeriph_Driver/src/stm32f4xx_i2c.c:193:   tmpreg = I2Cx->CR2;
 247              		.loc 1 193 10 view .LVU39
 248 0002 8688     		ldrh	r6, [r0, #4]	@, I2Cx_34(D)->CR2
 249              	.LVL11:
ARM GAS  C:\Users\admin\AppData\Local\Temp\ccm61GQJ.s 			page 9


 194:../Libraries/STM32F4xx_StdPeriph_Driver/src/stm32f4xx_i2c.c ****   /* Clear frequency FREQ[5:0] bits */
 195:../Libraries/STM32F4xx_StdPeriph_Driver/src/stm32f4xx_i2c.c ****   tmpreg &= (uint16_t)~((uint16_t)I2C_CR2_FREQ);
 250              		.loc 1 195 3 is_stmt 1 view .LVU40
 251              	@ ../Libraries/STM32F4xx_StdPeriph_Driver/src/stm32f4xx_i2c.c:177: {
 177:../Libraries/STM32F4xx_StdPeriph_Driver/src/stm32f4xx_i2c.c ****   uint16_t tmpreg = 0, freqrange = 0;
 252              		.loc 1 177 1 is_stmt 0 view .LVU41
 253 0004 84B0     		sub	sp, sp, #16	@,,
 254              		.cfi_def_cfa_offset 32
 255              	@ ../Libraries/STM32F4xx_StdPeriph_Driver/src/stm32f4xx_i2c.c:177: {
 177:../Libraries/STM32F4xx_StdPeriph_Driver/src/stm32f4xx_i2c.c ****   uint16_t tmpreg = 0, freqrange = 0;
 256              		.loc 1 177 1 view .LVU42
 257 0006 0446     		mov	r4, r0	@ I2Cx, tmp224
 258              	@ ../Libraries/STM32F4xx_StdPeriph_Driver/src/stm32f4xx_i2c.c:197:   RCC_GetClocksFreq(&rcc_clocks)
 196:../Libraries/STM32F4xx_StdPeriph_Driver/src/stm32f4xx_i2c.c ****   /* Get pclk1 frequency value */
 197:../Libraries/STM32F4xx_StdPeriph_Driver/src/stm32f4xx_i2c.c ****   RCC_GetClocksFreq(&rcc_clocks);
 259              		.loc 1 197 3 view .LVU43
 260 0008 6846     		mov	r0, sp	@,
 261              	.LVL12:
 262              	@ ../Libraries/STM32F4xx_StdPeriph_Driver/src/stm32f4xx_i2c.c:177: {
 177:../Libraries/STM32F4xx_StdPeriph_Driver/src/stm32f4xx_i2c.c ****   uint16_t tmpreg = 0, freqrange = 0;
 263              		.loc 1 177 1 view .LVU44
 264 000a 0D46     		mov	r5, r1	@ I2C_InitStruct, tmp225
 265              	@ ../Libraries/STM32F4xx_StdPeriph_Driver/src/stm32f4xx_i2c.c:195:   tmpreg &= (uint16_t)~((uint16_
 195:../Libraries/STM32F4xx_StdPeriph_Driver/src/stm32f4xx_i2c.c ****   /* Get pclk1 frequency value */
 266              		.loc 1 195 10 view .LVU45
 267 000c 26F03F06 		bic	r6, r6, #63	@ tmpreg, I2Cx_34(D)->CR2,
 268              	.LVL13:
 269              	@ ../Libraries/STM32F4xx_StdPeriph_Driver/src/stm32f4xx_i2c.c:197:   RCC_GetClocksFreq(&rcc_clocks)
 270              		.loc 1 197 3 view .LVU46
 271 0010 FFF7FEFF 		bl	RCC_GetClocksFreq		@
 272              	.LVL14:
 273              	@ ../Libraries/STM32F4xx_StdPeriph_Driver/src/stm32f4xx_i2c.c:198:   pclk1 = rcc_clocks.PCLK1_Frequ
 198:../Libraries/STM32F4xx_StdPeriph_Driver/src/stm32f4xx_i2c.c ****   pclk1 = rcc_clocks.PCLK1_Frequency;
 274              		.loc 1 198 9 view .LVU47
 275 0014 0299     		ldr	r1, [sp, #8]	@ pclk1, rcc_clocks.PCLK1_Frequency
 276              	@ ../Libraries/STM32F4xx_StdPeriph_Driver/src/stm32f4xx_i2c.c:200:   freqrange = (uint16_t)(pclk1 /
 199:../Libraries/STM32F4xx_StdPeriph_Driver/src/stm32f4xx_i2c.c ****   /* Set frequency bits depending on pclk1 value */
 200:../Libraries/STM32F4xx_StdPeriph_Driver/src/stm32f4xx_i2c.c ****   freqrange = (uint16_t)(pclk1 / 1000000);
 277              		.loc 1 200 32 view .LVU48
 278 0016 2F4A     		ldr	r2, .L20	@ tmp158,
 279              	@ ../Libraries/STM32F4xx_StdPeriph_Driver/src/stm32f4xx_i2c.c:195:   tmpreg &= (uint16_t)~((uint16_
 195:../Libraries/STM32F4xx_StdPeriph_Driver/src/stm32f4xx_i2c.c ****   /* Get pclk1 frequency value */
 280              		.loc 1 195 10 view .LVU49
 281 0018 3604     		lsls	r6, r6, #16	@ tmpreg, tmpreg,
 282              	@ ../Libraries/STM32F4xx_StdPeriph_Driver/src/stm32f4xx_i2c.c:200:   freqrange = (uint16_t)(pclk1 /
 283              		.loc 1 200 32 view .LVU50
 284 001a A2FB0132 		umull	r3, r2, r2, r1	@ tmp227, tmp157, tmp158, pclk1
 285              	@ ../Libraries/STM32F4xx_StdPeriph_Driver/src/stm32f4xx_i2c.c:195:   tmpreg &= (uint16_t)~((uint16_
 195:../Libraries/STM32F4xx_StdPeriph_Driver/src/stm32f4xx_i2c.c ****   /* Get pclk1 frequency value */
 286              		.loc 1 195 10 view .LVU51
 287 001e 360C     		lsrs	r6, r6, #16	@ tmpreg, tmpreg,
 288              	.LVL15:
 197:../Libraries/STM32F4xx_StdPeriph_Driver/src/stm32f4xx_i2c.c ****   pclk1 = rcc_clocks.PCLK1_Frequency;
 289              		.loc 1 197 3 is_stmt 1 view .LVU52
 198:../Libraries/STM32F4xx_StdPeriph_Driver/src/stm32f4xx_i2c.c ****   /* Set frequency bits depending on pclk1 value */
 290              		.loc 1 198 3 view .LVU53
 291              		.loc 1 200 3 view .LVU54
ARM GAS  C:\Users\admin\AppData\Local\Temp\ccm61GQJ.s 			page 10


 292              	@ ../Libraries/STM32F4xx_StdPeriph_Driver/src/stm32f4xx_i2c.c:201:   tmpreg |= freqrange;
 201:../Libraries/STM32F4xx_StdPeriph_Driver/src/stm32f4xx_i2c.c ****   tmpreg |= freqrange;
 293              		.loc 1 201 10 is_stmt 0 view .LVU55
 294 0020 46EA9246 		orr	r6, r6, r2, lsr #18	@ tmpreg, tmpreg, tmp157,
 295              	.LVL16:
 296              	@ ../Libraries/STM32F4xx_StdPeriph_Driver/src/stm32f4xx_i2c.c:203:   I2Cx->CR2 = tmpreg;
 202:../Libraries/STM32F4xx_StdPeriph_Driver/src/stm32f4xx_i2c.c ****   /* Write to I2Cx CR2 */
 203:../Libraries/STM32F4xx_StdPeriph_Driver/src/stm32f4xx_i2c.c ****   I2Cx->CR2 = tmpreg;
 297              		.loc 1 203 13 view .LVU56
 298 0024 A680     		strh	r6, [r4, #4]	@ movhi	@ tmpreg, I2Cx_34(D)->CR2
 299              	@ ../Libraries/STM32F4xx_StdPeriph_Driver/src/stm32f4xx_i2c.c:207:   I2Cx->CR1 &= (uint16_t)~((uint
 204:../Libraries/STM32F4xx_StdPeriph_Driver/src/stm32f4xx_i2c.c **** 
 205:../Libraries/STM32F4xx_StdPeriph_Driver/src/stm32f4xx_i2c.c **** /*---------------------------- I2Cx CCR Configuration ------------------------*/
 206:../Libraries/STM32F4xx_StdPeriph_Driver/src/stm32f4xx_i2c.c ****   /* Disable the selected I2C peripheral to configure TRISE */
 207:../Libraries/STM32F4xx_StdPeriph_Driver/src/stm32f4xx_i2c.c ****   I2Cx->CR1 &= (uint16_t)~((uint16_t)I2C_CR1_PE);
 300              		.loc 1 207 13 view .LVU57
 301 0026 2388     		ldrh	r3, [r4]	@, I2Cx_34(D)->CR1
 302              	@ ../Libraries/STM32F4xx_StdPeriph_Driver/src/stm32f4xx_i2c.c:213:   if (I2C_InitStruct->I2C_ClockS
 208:../Libraries/STM32F4xx_StdPeriph_Driver/src/stm32f4xx_i2c.c ****   /* Reset tmpreg value */
 209:../Libraries/STM32F4xx_StdPeriph_Driver/src/stm32f4xx_i2c.c ****   /* Clear F/S, DUTY and CCR[11:0] bits */
 210:../Libraries/STM32F4xx_StdPeriph_Driver/src/stm32f4xx_i2c.c ****   tmpreg = 0;
 211:../Libraries/STM32F4xx_StdPeriph_Driver/src/stm32f4xx_i2c.c **** 
 212:../Libraries/STM32F4xx_StdPeriph_Driver/src/stm32f4xx_i2c.c ****   /* Configure speed in standard mode */
 213:../Libraries/STM32F4xx_StdPeriph_Driver/src/stm32f4xx_i2c.c ****   if (I2C_InitStruct->I2C_ClockSpeed <= 100000)
 303              		.loc 1 213 6 view .LVU58
 304 0028 2B4E     		ldr	r6, .L20+4	@ tmp164,
 305              	@ ../Libraries/STM32F4xx_StdPeriph_Driver/src/stm32f4xx_i2c.c:207:   I2Cx->CR1 &= (uint16_t)~((uint
 207:../Libraries/STM32F4xx_StdPeriph_Driver/src/stm32f4xx_i2c.c ****   /* Reset tmpreg value */
 306              		.loc 1 207 13 view .LVU59
 307 002a 23F00103 		bic	r3, r3, #1	@ _3, I2Cx_34(D)->CR1,
 308 002e 1B04     		lsls	r3, r3, #16	@ _3, _3,
 309 0030 1B0C     		lsrs	r3, r3, #16	@ _3, _3,
 310 0032 2380     		strh	r3, [r4]	@ movhi	@ _3, I2Cx_34(D)->CR1
 311              	@ ../Libraries/STM32F4xx_StdPeriph_Driver/src/stm32f4xx_i2c.c:213:   if (I2C_InitStruct->I2C_ClockS
 312              		.loc 1 213 21 view .LVU60
 313 0034 2B68     		ldr	r3, [r5]	@ _4, I2C_InitStruct_43(D)->I2C_ClockSpeed
 314              	@ ../Libraries/STM32F4xx_StdPeriph_Driver/src/stm32f4xx_i2c.c:213:   if (I2C_InitStruct->I2C_ClockS
 315              		.loc 1 213 6 view .LVU61
 316 0036 B342     		cmp	r3, r6	@ _4, tmp164
 317              	@ ../Libraries/STM32F4xx_StdPeriph_Driver/src/stm32f4xx_i2c.c:200:   freqrange = (uint16_t)(pclk1 /
 200:../Libraries/STM32F4xx_StdPeriph_Driver/src/stm32f4xx_i2c.c ****   tmpreg |= freqrange;
 318              		.loc 1 200 32 view .LVU62
 319 0038 4FEA9240 		lsr	r0, r2, #18	@ _1, tmp157,
 320              	.LVL17:
 201:../Libraries/STM32F4xx_StdPeriph_Driver/src/stm32f4xx_i2c.c ****   /* Write to I2Cx CR2 */
 321              		.loc 1 201 3 is_stmt 1 view .LVU63
 203:../Libraries/STM32F4xx_StdPeriph_Driver/src/stm32f4xx_i2c.c **** 
 322              		.loc 1 203 3 view .LVU64
 207:../Libraries/STM32F4xx_StdPeriph_Driver/src/stm32f4xx_i2c.c ****   /* Reset tmpreg value */
 323              		.loc 1 207 3 view .LVU65
 210:../Libraries/STM32F4xx_StdPeriph_Driver/src/stm32f4xx_i2c.c **** 
 324              		.loc 1 210 3 view .LVU66
 325              		.loc 1 213 3 view .LVU67
 326              	@ ../Libraries/STM32F4xx_StdPeriph_Driver/src/stm32f4xx_i2c.c:213:   if (I2C_InitStruct->I2C_ClockS
 327              		.loc 1 213 6 is_stmt 0 view .LVU68
 328 003c 23D8     		bhi	.L13		@,
 214:../Libraries/STM32F4xx_StdPeriph_Driver/src/stm32f4xx_i2c.c ****   {
ARM GAS  C:\Users\admin\AppData\Local\Temp\ccm61GQJ.s 			page 11


 215:../Libraries/STM32F4xx_StdPeriph_Driver/src/stm32f4xx_i2c.c ****     /* Standard mode speed calculate */
 216:../Libraries/STM32F4xx_StdPeriph_Driver/src/stm32f4xx_i2c.c ****     result = (uint16_t)(pclk1 / (I2C_InitStruct->I2C_ClockSpeed << 1));
 329              		.loc 1 216 5 is_stmt 1 view .LVU69
 330 003e 0246     		mov	r2, r0	@ freqrange, _1
 331              	@ ../Libraries/STM32F4xx_StdPeriph_Driver/src/stm32f4xx_i2c.c:216:     result = (uint16_t)(pclk1 / 
 332              		.loc 1 216 65 is_stmt 0 view .LVU70
 333 0040 5B00     		lsls	r3, r3, #1	@ tmp165, _4,
 334              	@ ../Libraries/STM32F4xx_StdPeriph_Driver/src/stm32f4xx_i2c.c:216:     result = (uint16_t)(pclk1 / 
 335              		.loc 1 216 31 view .LVU71
 336 0042 B1FBF3F3 		udiv	r3, r1, r3	@ tmp167, pclk1, tmp165
 337              	@ ../Libraries/STM32F4xx_StdPeriph_Driver/src/stm32f4xx_i2c.c:216:     result = (uint16_t)(pclk1 / 
 338              		.loc 1 216 12 view .LVU72
 339 0046 9BB2     		uxth	r3, r3	@ result, tmp167
 340              	.LVL18:
 217:../Libraries/STM32F4xx_StdPeriph_Driver/src/stm32f4xx_i2c.c ****     /* Test if CCR value is under 0x4*/
 218:../Libraries/STM32F4xx_StdPeriph_Driver/src/stm32f4xx_i2c.c ****     if (result < 0x04)
 341              		.loc 1 218 5 is_stmt 1 view .LVU73
 342              	@ ../Libraries/STM32F4xx_StdPeriph_Driver/src/stm32f4xx_i2c.c:226:     I2Cx->TRISE = freqrange + 1;
 219:../Libraries/STM32F4xx_StdPeriph_Driver/src/stm32f4xx_i2c.c ****     {
 220:../Libraries/STM32F4xx_StdPeriph_Driver/src/stm32f4xx_i2c.c ****       /* Set minimum allowed value */
 221:../Libraries/STM32F4xx_StdPeriph_Driver/src/stm32f4xx_i2c.c ****       result = 0x04;  
 222:../Libraries/STM32F4xx_StdPeriph_Driver/src/stm32f4xx_i2c.c ****     }
 223:../Libraries/STM32F4xx_StdPeriph_Driver/src/stm32f4xx_i2c.c ****     /* Set speed value for standard mode */
 224:../Libraries/STM32F4xx_StdPeriph_Driver/src/stm32f4xx_i2c.c ****     tmpreg |= result;	  
 225:../Libraries/STM32F4xx_StdPeriph_Driver/src/stm32f4xx_i2c.c ****     /* Set Maximum Rise Time for standard mode */
 226:../Libraries/STM32F4xx_StdPeriph_Driver/src/stm32f4xx_i2c.c ****     I2Cx->TRISE = freqrange + 1; 
 343              		.loc 1 226 29 is_stmt 0 view .LVU74
 344 0048 0132     		adds	r2, r2, #1	@ _7, freqrange,
 345 004a 042B     		cmp	r3, #4	@ result,
 346 004c 38BF     		it	cc
 347 004e 0423     		movcc	r3, #4	@ result,
 348              	.LVL19:
 224:../Libraries/STM32F4xx_StdPeriph_Driver/src/stm32f4xx_i2c.c ****     /* Set Maximum Rise Time for standard mode */
 349              		.loc 1 224 5 is_stmt 1 view .LVU75
 350              		.loc 1 226 5 view .LVU76
 351              	@ ../Libraries/STM32F4xx_StdPeriph_Driver/src/stm32f4xx_i2c.c:226:     I2Cx->TRISE = freqrange + 1;
 352              		.loc 1 226 17 is_stmt 0 view .LVU77
 353 0050 2284     		strh	r2, [r4, #32]	@ movhi	@ _7, I2Cx_34(D)->TRISE
 354              	.LVL20:
 355              	.L14:
 227:../Libraries/STM32F4xx_StdPeriph_Driver/src/stm32f4xx_i2c.c ****   }
 228:../Libraries/STM32F4xx_StdPeriph_Driver/src/stm32f4xx_i2c.c ****   /* Configure speed in fast mode */
 229:../Libraries/STM32F4xx_StdPeriph_Driver/src/stm32f4xx_i2c.c ****   /* To use the I2C at 400 KHz (in fast mode), the PCLK1 frequency (I2C peripheral
 230:../Libraries/STM32F4xx_StdPeriph_Driver/src/stm32f4xx_i2c.c ****      input clock) must be a multiple of 10 MHz */
 231:../Libraries/STM32F4xx_StdPeriph_Driver/src/stm32f4xx_i2c.c ****   else /*(I2C_InitStruct->I2C_ClockSpeed <= 400000)*/
 232:../Libraries/STM32F4xx_StdPeriph_Driver/src/stm32f4xx_i2c.c ****   {
 233:../Libraries/STM32F4xx_StdPeriph_Driver/src/stm32f4xx_i2c.c ****     if (I2C_InitStruct->I2C_DutyCycle == I2C_DutyCycle_2)
 234:../Libraries/STM32F4xx_StdPeriph_Driver/src/stm32f4xx_i2c.c ****     {
 235:../Libraries/STM32F4xx_StdPeriph_Driver/src/stm32f4xx_i2c.c ****       /* Fast mode speed calculate: Tlow/Thigh = 2 */
 236:../Libraries/STM32F4xx_StdPeriph_Driver/src/stm32f4xx_i2c.c ****       result = (uint16_t)(pclk1 / (I2C_InitStruct->I2C_ClockSpeed * 3));
 237:../Libraries/STM32F4xx_StdPeriph_Driver/src/stm32f4xx_i2c.c ****     }
 238:../Libraries/STM32F4xx_StdPeriph_Driver/src/stm32f4xx_i2c.c ****     else /*I2C_InitStruct->I2C_DutyCycle == I2C_DutyCycle_16_9*/
 239:../Libraries/STM32F4xx_StdPeriph_Driver/src/stm32f4xx_i2c.c ****     {
 240:../Libraries/STM32F4xx_StdPeriph_Driver/src/stm32f4xx_i2c.c ****       /* Fast mode speed calculate: Tlow/Thigh = 16/9 */
 241:../Libraries/STM32F4xx_StdPeriph_Driver/src/stm32f4xx_i2c.c ****       result = (uint16_t)(pclk1 / (I2C_InitStruct->I2C_ClockSpeed * 25));
 242:../Libraries/STM32F4xx_StdPeriph_Driver/src/stm32f4xx_i2c.c ****       /* Set DUTY bit */
 243:../Libraries/STM32F4xx_StdPeriph_Driver/src/stm32f4xx_i2c.c ****       result |= I2C_DutyCycle_16_9;
ARM GAS  C:\Users\admin\AppData\Local\Temp\ccm61GQJ.s 			page 12


 244:../Libraries/STM32F4xx_StdPeriph_Driver/src/stm32f4xx_i2c.c ****     }
 245:../Libraries/STM32F4xx_StdPeriph_Driver/src/stm32f4xx_i2c.c **** 
 246:../Libraries/STM32F4xx_StdPeriph_Driver/src/stm32f4xx_i2c.c ****     /* Test if CCR value is under 0x1*/
 247:../Libraries/STM32F4xx_StdPeriph_Driver/src/stm32f4xx_i2c.c ****     if ((result & I2C_CCR_CCR) == 0)
 248:../Libraries/STM32F4xx_StdPeriph_Driver/src/stm32f4xx_i2c.c ****     {
 249:../Libraries/STM32F4xx_StdPeriph_Driver/src/stm32f4xx_i2c.c ****       /* Set minimum allowed value */
 250:../Libraries/STM32F4xx_StdPeriph_Driver/src/stm32f4xx_i2c.c ****       result |= (uint16_t)0x0001;  
 251:../Libraries/STM32F4xx_StdPeriph_Driver/src/stm32f4xx_i2c.c ****     }
 252:../Libraries/STM32F4xx_StdPeriph_Driver/src/stm32f4xx_i2c.c ****     /* Set speed value and set F/S bit for fast mode */
 253:../Libraries/STM32F4xx_StdPeriph_Driver/src/stm32f4xx_i2c.c ****     tmpreg |= (uint16_t)(result | I2C_CCR_FS);
 254:../Libraries/STM32F4xx_StdPeriph_Driver/src/stm32f4xx_i2c.c ****     /* Set Maximum Rise Time for fast mode */
 255:../Libraries/STM32F4xx_StdPeriph_Driver/src/stm32f4xx_i2c.c ****     I2Cx->TRISE = (uint16_t)(((freqrange * (uint16_t)300) / (uint16_t)1000) + (uint16_t)1);  
 256:../Libraries/STM32F4xx_StdPeriph_Driver/src/stm32f4xx_i2c.c ****   }
 257:../Libraries/STM32F4xx_StdPeriph_Driver/src/stm32f4xx_i2c.c **** 
 258:../Libraries/STM32F4xx_StdPeriph_Driver/src/stm32f4xx_i2c.c ****   /* Write to I2Cx CCR */
 259:../Libraries/STM32F4xx_StdPeriph_Driver/src/stm32f4xx_i2c.c ****   I2Cx->CCR = tmpreg;
 356              		.loc 1 259 3 is_stmt 1 view .LVU78
 357              	@ ../Libraries/STM32F4xx_StdPeriph_Driver/src/stm32f4xx_i2c.c:259:   I2Cx->CCR = tmpreg;
 358              		.loc 1 259 13 is_stmt 0 view .LVU79
 359 0052 A383     		strh	r3, [r4, #28]	@ movhi	@ result, I2Cx_34(D)->CCR
 260:../Libraries/STM32F4xx_StdPeriph_Driver/src/stm32f4xx_i2c.c ****   /* Enable the selected I2C peripheral */
 261:../Libraries/STM32F4xx_StdPeriph_Driver/src/stm32f4xx_i2c.c ****   I2Cx->CR1 |= I2C_CR1_PE;
 360              		.loc 1 261 3 is_stmt 1 view .LVU80
 361              	@ ../Libraries/STM32F4xx_StdPeriph_Driver/src/stm32f4xx_i2c.c:261:   I2Cx->CR1 |= I2C_CR1_PE;
 362              		.loc 1 261 13 is_stmt 0 view .LVU81
 363 0054 2288     		ldrh	r2, [r4]	@, I2Cx_34(D)->CR1
 364              	@ ../Libraries/STM32F4xx_StdPeriph_Driver/src/stm32f4xx_i2c.c:271:   tmpreg |= (uint16_t)((uint32_t
 262:../Libraries/STM32F4xx_StdPeriph_Driver/src/stm32f4xx_i2c.c **** 
 263:../Libraries/STM32F4xx_StdPeriph_Driver/src/stm32f4xx_i2c.c **** /*---------------------------- I2Cx CR1 Configuration ------------------------*/
 264:../Libraries/STM32F4xx_StdPeriph_Driver/src/stm32f4xx_i2c.c ****   /* Get the I2Cx CR1 value */
 265:../Libraries/STM32F4xx_StdPeriph_Driver/src/stm32f4xx_i2c.c ****   tmpreg = I2Cx->CR1;
 266:../Libraries/STM32F4xx_StdPeriph_Driver/src/stm32f4xx_i2c.c ****   /* Clear ACK, SMBTYPE and  SMBUS bits */
 267:../Libraries/STM32F4xx_StdPeriph_Driver/src/stm32f4xx_i2c.c ****   tmpreg &= CR1_CLEAR_MASK;
 268:../Libraries/STM32F4xx_StdPeriph_Driver/src/stm32f4xx_i2c.c ****   /* Configure I2Cx: mode and acknowledgement */
 269:../Libraries/STM32F4xx_StdPeriph_Driver/src/stm32f4xx_i2c.c ****   /* Set SMBTYPE and SMBUS bits according to I2C_Mode value */
 270:../Libraries/STM32F4xx_StdPeriph_Driver/src/stm32f4xx_i2c.c ****   /* Set ACK bit according to I2C_Ack value */
 271:../Libraries/STM32F4xx_StdPeriph_Driver/src/stm32f4xx_i2c.c ****   tmpreg |= (uint16_t)((uint32_t)I2C_InitStruct->I2C_Mode | I2C_InitStruct->I2C_Ack);
 365              		.loc 1 271 13 view .LVU82
 366 0056 A988     		ldrh	r1, [r5, #4]	@, I2C_InitStruct_43(D)->I2C_Mode
 367              	.LVL21:
 368              	@ ../Libraries/STM32F4xx_StdPeriph_Driver/src/stm32f4xx_i2c.c:277:   I2Cx->OAR1 = (I2C_InitStruct->
 272:../Libraries/STM32F4xx_StdPeriph_Driver/src/stm32f4xx_i2c.c ****   /* Write to I2Cx CR1 */
 273:../Libraries/STM32F4xx_StdPeriph_Driver/src/stm32f4xx_i2c.c ****   I2Cx->CR1 = tmpreg;
 274:../Libraries/STM32F4xx_StdPeriph_Driver/src/stm32f4xx_i2c.c **** 
 275:../Libraries/STM32F4xx_StdPeriph_Driver/src/stm32f4xx_i2c.c **** /*---------------------------- I2Cx OAR1 Configuration -----------------------*/
 276:../Libraries/STM32F4xx_StdPeriph_Driver/src/stm32f4xx_i2c.c ****   /* Set I2Cx Own Address1 and acknowledged address */
 277:../Libraries/STM32F4xx_StdPeriph_Driver/src/stm32f4xx_i2c.c ****   I2Cx->OAR1 = (I2C_InitStruct->I2C_AcknowledgedAddress | I2C_InitStruct->I2C_OwnAddress1);
 369              		.loc 1 277 14 view .LVU83
 370 0058 2889     		ldrh	r0, [r5, #8]	@, I2C_InitStruct_43(D)->I2C_OwnAddress1
 371              	@ ../Libraries/STM32F4xx_StdPeriph_Driver/src/stm32f4xx_i2c.c:261:   I2Cx->CR1 |= I2C_CR1_PE;
 261:../Libraries/STM32F4xx_StdPeriph_Driver/src/stm32f4xx_i2c.c **** 
 372              		.loc 1 261 13 view .LVU84
 373 005a 92B2     		uxth	r2, r2	@ _19, I2Cx_34(D)->CR1
 374 005c 42F00102 		orr	r2, r2, #1	@ _20, _19,
 375 0060 2280     		strh	r2, [r4]	@ movhi	@ _20, I2Cx_34(D)->CR1
 265:../Libraries/STM32F4xx_StdPeriph_Driver/src/stm32f4xx_i2c.c ****   /* Clear ACK, SMBTYPE and  SMBUS bits */
 376              		.loc 1 265 3 is_stmt 1 view .LVU85
ARM GAS  C:\Users\admin\AppData\Local\Temp\ccm61GQJ.s 			page 13


 377              	@ ../Libraries/STM32F4xx_StdPeriph_Driver/src/stm32f4xx_i2c.c:265:   tmpreg = I2Cx->CR1;
 265:../Libraries/STM32F4xx_StdPeriph_Driver/src/stm32f4xx_i2c.c ****   /* Clear ACK, SMBTYPE and  SMBUS bits */
 378              		.loc 1 265 10 is_stmt 0 view .LVU86
 379 0062 2388     		ldrh	r3, [r4]	@, I2Cx_34(D)->CR1
 380              	.LVL22:
 267:../Libraries/STM32F4xx_StdPeriph_Driver/src/stm32f4xx_i2c.c ****   /* Configure I2Cx: mode and acknowledgement */
 381              		.loc 1 267 3 is_stmt 1 view .LVU87
 382              	@ ../Libraries/STM32F4xx_StdPeriph_Driver/src/stm32f4xx_i2c.c:271:   tmpreg |= (uint16_t)((uint32_t
 271:../Libraries/STM32F4xx_StdPeriph_Driver/src/stm32f4xx_i2c.c ****   /* Write to I2Cx CR1 */
 383              		.loc 1 271 13 is_stmt 0 view .LVU88
 384 0064 6A89     		ldrh	r2, [r5, #10]	@, I2C_InitStruct_43(D)->I2C_Ack
 385              	@ ../Libraries/STM32F4xx_StdPeriph_Driver/src/stm32f4xx_i2c.c:267:   tmpreg &= CR1_CLEAR_MASK;
 267:../Libraries/STM32F4xx_StdPeriph_Driver/src/stm32f4xx_i2c.c ****   /* Configure I2Cx: mode and acknowledgement */
 386              		.loc 1 267 10 view .LVU89
 387 0066 23F48163 		bic	r3, r3, #1032	@ tmpreg, I2Cx_34(D)->CR1,
 388              	.LVL23:
 267:../Libraries/STM32F4xx_StdPeriph_Driver/src/stm32f4xx_i2c.c ****   /* Configure I2Cx: mode and acknowledgement */
 389              		.loc 1 267 10 view .LVU90
 390 006a 23F00203 		bic	r3, r3, #2	@ tmpreg, tmpreg,
 391              	@ ../Libraries/STM32F4xx_StdPeriph_Driver/src/stm32f4xx_i2c.c:271:   tmpreg |= (uint16_t)((uint32_t
 271:../Libraries/STM32F4xx_StdPeriph_Driver/src/stm32f4xx_i2c.c ****   /* Write to I2Cx CR1 */
 392              		.loc 1 271 13 view .LVU91
 393 006e 1143     		orrs	r1, r1, r2	@, tmp216, I2C_InitStruct_43(D)->I2C_Mode, I2C_InitStruct_43(D)->I2C_Ack
 394              	@ ../Libraries/STM32F4xx_StdPeriph_Driver/src/stm32f4xx_i2c.c:267:   tmpreg &= CR1_CLEAR_MASK;
 267:../Libraries/STM32F4xx_StdPeriph_Driver/src/stm32f4xx_i2c.c ****   /* Configure I2Cx: mode and acknowledgement */
 395              		.loc 1 267 10 view .LVU92
 396 0070 1B04     		lsls	r3, r3, #16	@ tmpreg, tmpreg,
 397              	@ ../Libraries/STM32F4xx_StdPeriph_Driver/src/stm32f4xx_i2c.c:277:   I2Cx->OAR1 = (I2C_InitStruct->
 398              		.loc 1 277 14 view .LVU93
 399 0072 AA89     		ldrh	r2, [r5, #12]	@, I2C_InitStruct_43(D)->I2C_AcknowledgedAddress
 400              	@ ../Libraries/STM32F4xx_StdPeriph_Driver/src/stm32f4xx_i2c.c:267:   tmpreg &= CR1_CLEAR_MASK;
 267:../Libraries/STM32F4xx_StdPeriph_Driver/src/stm32f4xx_i2c.c ****   /* Configure I2Cx: mode and acknowledgement */
 401              		.loc 1 267 10 view .LVU94
 402 0074 1B0C     		lsrs	r3, r3, #16	@ tmpreg, tmpreg,
 403              	.LVL24:
 271:../Libraries/STM32F4xx_StdPeriph_Driver/src/stm32f4xx_i2c.c ****   /* Write to I2Cx CR1 */
 404              		.loc 1 271 3 is_stmt 1 view .LVU95
 405              	@ ../Libraries/STM32F4xx_StdPeriph_Driver/src/stm32f4xx_i2c.c:277:   I2Cx->OAR1 = (I2C_InitStruct->
 406              		.loc 1 277 14 is_stmt 0 view .LVU96
 407 0076 0243     		orrs	r2, r2, r0	@, tmp222, I2C_InitStruct_43(D)->I2C_AcknowledgedAddress, I2C_InitStruct_43(D)->I2
 408              	@ ../Libraries/STM32F4xx_StdPeriph_Driver/src/stm32f4xx_i2c.c:271:   tmpreg |= (uint16_t)((uint32_t
 271:../Libraries/STM32F4xx_StdPeriph_Driver/src/stm32f4xx_i2c.c ****   /* Write to I2Cx CR1 */
 409              		.loc 1 271 10 view .LVU97
 410 0078 0B43     		orrs	r3, r3, r1	@, tmp218, tmpreg, tmp216
 411              	.LVL25:
 271:../Libraries/STM32F4xx_StdPeriph_Driver/src/stm32f4xx_i2c.c ****   /* Write to I2Cx CR1 */
 412              		.loc 1 271 10 view .LVU98
 413 007a 9BB2     		uxth	r3, r3	@ tmpreg, tmp218
 414              	.LVL26:
 273:../Libraries/STM32F4xx_StdPeriph_Driver/src/stm32f4xx_i2c.c **** 
 415              		.loc 1 273 3 is_stmt 1 view .LVU99
 416              	@ ../Libraries/STM32F4xx_StdPeriph_Driver/src/stm32f4xx_i2c.c:277:   I2Cx->OAR1 = (I2C_InitStruct->
 417              		.loc 1 277 14 is_stmt 0 view .LVU100
 418 007c 92B2     		uxth	r2, r2	@ _26, tmp222
 419              	@ ../Libraries/STM32F4xx_StdPeriph_Driver/src/stm32f4xx_i2c.c:273:   I2Cx->CR1 = tmpreg;
 273:../Libraries/STM32F4xx_StdPeriph_Driver/src/stm32f4xx_i2c.c **** 
 420              		.loc 1 273 13 view .LVU101
ARM GAS  C:\Users\admin\AppData\Local\Temp\ccm61GQJ.s 			page 14


 421 007e 2380     		strh	r3, [r4]	@ movhi	@ tmpreg, I2Cx_34(D)->CR1
 422              		.loc 1 277 3 is_stmt 1 view .LVU102
 423              	@ ../Libraries/STM32F4xx_StdPeriph_Driver/src/stm32f4xx_i2c.c:277:   I2Cx->OAR1 = (I2C_InitStruct->
 424              		.loc 1 277 14 is_stmt 0 view .LVU103
 425 0080 2281     		strh	r2, [r4, #8]	@ movhi	@ _26, I2Cx_34(D)->OAR1
 426              	@ ../Libraries/STM32F4xx_StdPeriph_Driver/src/stm32f4xx_i2c.c:278: }
 278:../Libraries/STM32F4xx_StdPeriph_Driver/src/stm32f4xx_i2c.c **** }
 427              		.loc 1 278 1 view .LVU104
 428 0082 04B0     		add	sp, sp, #16	@,,
 429              		.cfi_remember_state
 430              		.cfi_def_cfa_offset 16
 431              		@ sp needed	@
 432 0084 70BD     		pop	{r4, r5, r6, pc}	@
 433              	.LVL27:
 434              	.L13:
 435              		.cfi_restore_state
 233:../Libraries/STM32F4xx_StdPeriph_Driver/src/stm32f4xx_i2c.c ****     {
 436              		.loc 1 233 5 is_stmt 1 view .LVU105
 437              	@ ../Libraries/STM32F4xx_StdPeriph_Driver/src/stm32f4xx_i2c.c:233:     if (I2C_InitStruct->I2C_Duty
 233:../Libraries/STM32F4xx_StdPeriph_Driver/src/stm32f4xx_i2c.c ****     {
 438              		.loc 1 233 8 is_stmt 0 view .LVU106
 439 0086 EE88     		ldrh	r6, [r5, #6]	@ I2C_InitStruct_43(D)->I2C_DutyCycle, I2C_InitStruct_43(D)->I2C_DutyCycle
 440 0088 4BF6FF72 		movw	r2, #49151	@ tmp173,
 441 008c 9642     		cmp	r6, r2	@ I2C_InitStruct_43(D)->I2C_DutyCycle, tmp173
 442 008e 1AD0     		beq	.L19		@,
 241:../Libraries/STM32F4xx_StdPeriph_Driver/src/stm32f4xx_i2c.c ****       /* Set DUTY bit */
 443              		.loc 1 241 7 is_stmt 1 view .LVU107
 444              	@ ../Libraries/STM32F4xx_StdPeriph_Driver/src/stm32f4xx_i2c.c:241:       result = (uint16_t)(pclk1 
 241:../Libraries/STM32F4xx_StdPeriph_Driver/src/stm32f4xx_i2c.c ****       /* Set DUTY bit */
 445              		.loc 1 241 67 is_stmt 0 view .LVU108
 446 0090 03EB8303 		add	r3, r3, r3, lsl #2	@ tmp181, _4, _4,
 447 0094 03EB8303 		add	r3, r3, r3, lsl #2	@ tmp183, tmp181, tmp181,
 448              	@ ../Libraries/STM32F4xx_StdPeriph_Driver/src/stm32f4xx_i2c.c:241:       result = (uint16_t)(pclk1 
 241:../Libraries/STM32F4xx_StdPeriph_Driver/src/stm32f4xx_i2c.c ****       /* Set DUTY bit */
 449              		.loc 1 241 33 view .LVU109
 450 0098 B1FBF3F3 		udiv	r3, r1, r3	@ tmp185, pclk1, tmp183
 451              	@ ../Libraries/STM32F4xx_StdPeriph_Driver/src/stm32f4xx_i2c.c:241:       result = (uint16_t)(pclk1 
 241:../Libraries/STM32F4xx_StdPeriph_Driver/src/stm32f4xx_i2c.c ****       /* Set DUTY bit */
 452              		.loc 1 241 14 view .LVU110
 453 009c 9BB2     		uxth	r3, r3	@ result, tmp185
 454              	.LVL28:
 243:../Libraries/STM32F4xx_StdPeriph_Driver/src/stm32f4xx_i2c.c ****     }
 455              		.loc 1 243 7 is_stmt 1 view .LVU111
 456              	@ ../Libraries/STM32F4xx_StdPeriph_Driver/src/stm32f4xx_i2c.c:243:       result |= I2C_DutyCycle_16
 243:../Libraries/STM32F4xx_StdPeriph_Driver/src/stm32f4xx_i2c.c ****     }
 457              		.loc 1 243 14 is_stmt 0 view .LVU112
 458 009e 43F48043 		orr	r3, r3, #16384	@ result, result,
 459              	.LVL29:
 460              	.L16:
 247:../Libraries/STM32F4xx_StdPeriph_Driver/src/stm32f4xx_i2c.c ****     {
 461              		.loc 1 247 5 is_stmt 1 view .LVU113
 462              	@ ../Libraries/STM32F4xx_StdPeriph_Driver/src/stm32f4xx_i2c.c:247:     if ((result & I2C_CCR_CCR) =
 247:../Libraries/STM32F4xx_StdPeriph_Driver/src/stm32f4xx_i2c.c ****     {
 463              		.loc 1 247 8 is_stmt 0 view .LVU114
 464 00a2 C3F30B02 		ubfx	r2, r3, #0, #12	@ tmp190, result,,
 465 00a6 0AB9     		cbnz	r2, .L17	@ tmp190,
 250:../Libraries/STM32F4xx_StdPeriph_Driver/src/stm32f4xx_i2c.c ****     }
ARM GAS  C:\Users\admin\AppData\Local\Temp\ccm61GQJ.s 			page 15


 466              		.loc 1 250 7 is_stmt 1 view .LVU115
 467              	@ ../Libraries/STM32F4xx_StdPeriph_Driver/src/stm32f4xx_i2c.c:250:       result |= (uint16_t)0x0001
 250:../Libraries/STM32F4xx_StdPeriph_Driver/src/stm32f4xx_i2c.c ****     }
 468              		.loc 1 250 14 is_stmt 0 view .LVU116
 469 00a8 43F00103 		orr	r3, r3, #1	@ result, result,
 470              	.LVL30:
 471              	.L17:
 253:../Libraries/STM32F4xx_StdPeriph_Driver/src/stm32f4xx_i2c.c ****     /* Set Maximum Rise Time for fast mode */
 472              		.loc 1 253 5 is_stmt 1 view .LVU117
 473              	@ ../Libraries/STM32F4xx_StdPeriph_Driver/src/stm32f4xx_i2c.c:255:     I2Cx->TRISE = (uint16_t)(((f
 255:../Libraries/STM32F4xx_StdPeriph_Driver/src/stm32f4xx_i2c.c ****   }
 474              		.loc 1 255 42 is_stmt 0 view .LVU118
 475 00ac 4FF49672 		mov	r2, #300	@ tmp195,
 476 00b0 02FB00F0 		mul	r0, r2, r0	@ tmp194, tmp195, _1
 477              	.LVL31:
 478              	@ ../Libraries/STM32F4xx_StdPeriph_Driver/src/stm32f4xx_i2c.c:255:     I2Cx->TRISE = (uint16_t)(((f
 255:../Libraries/STM32F4xx_StdPeriph_Driver/src/stm32f4xx_i2c.c ****   }
 479              		.loc 1 255 59 view .LVU119
 480 00b4 094A     		ldr	r2, .L20+8	@ tmp198,
 481 00b6 A2FB0020 		umull	r2, r0, r2, r0	@ tmp228, tmp197, tmp198, tmp194
 482 00ba 8009     		lsrs	r0, r0, #6	@ tmp196, tmp197,
 483              	@ ../Libraries/STM32F4xx_StdPeriph_Driver/src/stm32f4xx_i2c.c:255:     I2Cx->TRISE = (uint16_t)(((f
 255:../Libraries/STM32F4xx_StdPeriph_Driver/src/stm32f4xx_i2c.c ****   }
 484              		.loc 1 255 19 view .LVU120
 485 00bc 0130     		adds	r0, r0, #1	@ _18, tmp196,
 486              	@ ../Libraries/STM32F4xx_StdPeriph_Driver/src/stm32f4xx_i2c.c:253:     tmpreg |= (uint16_t)(result 
 253:../Libraries/STM32F4xx_StdPeriph_Driver/src/stm32f4xx_i2c.c ****     /* Set Maximum Rise Time for fast mode */
 487              		.loc 1 253 12 view .LVU121
 488 00be 43F40043 		orr	r3, r3, #32768	@ result, result,
 489              	.LVL32:
 255:../Libraries/STM32F4xx_StdPeriph_Driver/src/stm32f4xx_i2c.c ****   }
 490              		.loc 1 255 5 is_stmt 1 view .LVU122
 491              	@ ../Libraries/STM32F4xx_StdPeriph_Driver/src/stm32f4xx_i2c.c:255:     I2Cx->TRISE = (uint16_t)(((f
 255:../Libraries/STM32F4xx_StdPeriph_Driver/src/stm32f4xx_i2c.c ****   }
 492              		.loc 1 255 17 is_stmt 0 view .LVU123
 493 00c2 2084     		strh	r0, [r4, #32]	@ movhi	@ _18, I2Cx_34(D)->TRISE
 494 00c4 C5E7     		b	.L14		@
 495              	.LVL33:
 496              	.L19:
 236:../Libraries/STM32F4xx_StdPeriph_Driver/src/stm32f4xx_i2c.c ****     }
 497              		.loc 1 236 7 is_stmt 1 view .LVU124
 498              	@ ../Libraries/STM32F4xx_StdPeriph_Driver/src/stm32f4xx_i2c.c:236:       result = (uint16_t)(pclk1 
 236:../Libraries/STM32F4xx_StdPeriph_Driver/src/stm32f4xx_i2c.c ****     }
 499              		.loc 1 236 67 is_stmt 0 view .LVU125
 500 00c6 03EB4303 		add	r3, r3, r3, lsl #1	@ tmp176, _4, _4,
 501              	@ ../Libraries/STM32F4xx_StdPeriph_Driver/src/stm32f4xx_i2c.c:236:       result = (uint16_t)(pclk1 
 236:../Libraries/STM32F4xx_StdPeriph_Driver/src/stm32f4xx_i2c.c ****     }
 502              		.loc 1 236 33 view .LVU126
 503 00ca B1FBF3F3 		udiv	r3, r1, r3	@ tmp178, pclk1, tmp176
 504              	@ ../Libraries/STM32F4xx_StdPeriph_Driver/src/stm32f4xx_i2c.c:236:       result = (uint16_t)(pclk1 
 236:../Libraries/STM32F4xx_StdPeriph_Driver/src/stm32f4xx_i2c.c ****     }
 505              		.loc 1 236 14 view .LVU127
 506 00ce 9BB2     		uxth	r3, r3	@ result, tmp178
 507              	.LVL34:
 236:../Libraries/STM32F4xx_StdPeriph_Driver/src/stm32f4xx_i2c.c ****     }
 508              		.loc 1 236 14 view .LVU128
 509 00d0 E7E7     		b	.L16		@
ARM GAS  C:\Users\admin\AppData\Local\Temp\ccm61GQJ.s 			page 16


 510              	.L21:
 511 00d2 00BF     		.align	2
 512              	.L20:
 513 00d4 83DE1B43 		.word	1125899907
 514 00d8 A0860100 		.word	100000
 515 00dc D34D6210 		.word	274877907
 516              		.cfi_endproc
 517              	.LFE111:
 518              		.size	I2C_Init, .-I2C_Init
 519              		.section	.text.I2C_StructInit,"ax",%progbits
 520              		.align	1
 521              		.p2align 2,,3
 522              		.global	I2C_StructInit
 523              		.syntax unified
 524              		.thumb
 525              		.thumb_func
 526              		.type	I2C_StructInit, %function
 527              	I2C_StructInit:
 528              	.LVL35:
 529              	.LFB112:
 279:../Libraries/STM32F4xx_StdPeriph_Driver/src/stm32f4xx_i2c.c **** 
 280:../Libraries/STM32F4xx_StdPeriph_Driver/src/stm32f4xx_i2c.c **** /**
 281:../Libraries/STM32F4xx_StdPeriph_Driver/src/stm32f4xx_i2c.c ****   * @brief  Fills each I2C_InitStruct member with its default value.
 282:../Libraries/STM32F4xx_StdPeriph_Driver/src/stm32f4xx_i2c.c ****   * @param  I2C_InitStruct: pointer to an I2C_InitTypeDef structure which will be initialized.
 283:../Libraries/STM32F4xx_StdPeriph_Driver/src/stm32f4xx_i2c.c ****   * @retval None
 284:../Libraries/STM32F4xx_StdPeriph_Driver/src/stm32f4xx_i2c.c ****   */
 285:../Libraries/STM32F4xx_StdPeriph_Driver/src/stm32f4xx_i2c.c **** void I2C_StructInit(I2C_InitTypeDef* I2C_InitStruct)
 286:../Libraries/STM32F4xx_StdPeriph_Driver/src/stm32f4xx_i2c.c **** {
 530              		.loc 1 286 1 is_stmt 1 view -0
 531              		.cfi_startproc
 532              		@ args = 0, pretend = 0, frame = 0
 533              		@ frame_needed = 0, uses_anonymous_args = 0
 534              		@ link register save eliminated.
 287:../Libraries/STM32F4xx_StdPeriph_Driver/src/stm32f4xx_i2c.c **** /*---------------- Reset I2C init structure parameters values ----------------*/
 288:../Libraries/STM32F4xx_StdPeriph_Driver/src/stm32f4xx_i2c.c ****   /* initialize the I2C_ClockSpeed member */
 289:../Libraries/STM32F4xx_StdPeriph_Driver/src/stm32f4xx_i2c.c ****   I2C_InitStruct->I2C_ClockSpeed = 5000;
 535              		.loc 1 289 3 view .LVU130
 536              	@ ../Libraries/STM32F4xx_StdPeriph_Driver/src/stm32f4xx_i2c.c:291:   I2C_InitStruct->I2C_Mode = I2C
 290:../Libraries/STM32F4xx_StdPeriph_Driver/src/stm32f4xx_i2c.c ****   /* Initialize the I2C_Mode member */
 291:../Libraries/STM32F4xx_StdPeriph_Driver/src/stm32f4xx_i2c.c ****   I2C_InitStruct->I2C_Mode = I2C_Mode_I2C;
 537              		.loc 1 291 28 is_stmt 0 view .LVU131
 538 0000 0649     		ldr	r1, .L24	@ tmp115,
 539              	@ ../Libraries/STM32F4xx_StdPeriph_Driver/src/stm32f4xx_i2c.c:286: {
 286:../Libraries/STM32F4xx_StdPeriph_Driver/src/stm32f4xx_i2c.c **** /*---------------- Reset I2C init structure parameters values ----------------*/
 540              		.loc 1 286 1 view .LVU132
 541 0002 10B4     		push	{r4}	@
 542              		.cfi_def_cfa_offset 4
 543              		.cfi_offset 4, -4
 544              	@ ../Libraries/STM32F4xx_StdPeriph_Driver/src/stm32f4xx_i2c.c:291:   I2C_InitStruct->I2C_Mode = I2C
 545              		.loc 1 291 28 view .LVU133
 546 0004 0022     		movs	r2, #0	@ tmp116,
 547              	@ ../Libraries/STM32F4xx_StdPeriph_Driver/src/stm32f4xx_i2c.c:289:   I2C_InitStruct->I2C_ClockSpeed
 289:../Libraries/STM32F4xx_StdPeriph_Driver/src/stm32f4xx_i2c.c ****   /* Initialize the I2C_Mode member */
 548              		.loc 1 289 34 view .LVU134
 549 0006 41F28834 		movw	r4, #5000	@ tmp114,
 550              	@ ../Libraries/STM32F4xx_StdPeriph_Driver/src/stm32f4xx_i2c.c:299:   I2C_InitStruct->I2C_Acknowledg
 292:../Libraries/STM32F4xx_StdPeriph_Driver/src/stm32f4xx_i2c.c ****   /* Initialize the I2C_DutyCycle member */
ARM GAS  C:\Users\admin\AppData\Local\Temp\ccm61GQJ.s 			page 17


 293:../Libraries/STM32F4xx_StdPeriph_Driver/src/stm32f4xx_i2c.c ****   I2C_InitStruct->I2C_DutyCycle = I2C_DutyCycle_2;
 294:../Libraries/STM32F4xx_StdPeriph_Driver/src/stm32f4xx_i2c.c ****   /* Initialize the I2C_OwnAddress1 member */
 295:../Libraries/STM32F4xx_StdPeriph_Driver/src/stm32f4xx_i2c.c ****   I2C_InitStruct->I2C_OwnAddress1 = 0;
 296:../Libraries/STM32F4xx_StdPeriph_Driver/src/stm32f4xx_i2c.c ****   /* Initialize the I2C_Ack member */
 297:../Libraries/STM32F4xx_StdPeriph_Driver/src/stm32f4xx_i2c.c ****   I2C_InitStruct->I2C_Ack = I2C_Ack_Disable;
 298:../Libraries/STM32F4xx_StdPeriph_Driver/src/stm32f4xx_i2c.c ****   /* Initialize the I2C_AcknowledgedAddress member */
 299:../Libraries/STM32F4xx_StdPeriph_Driver/src/stm32f4xx_i2c.c ****   I2C_InitStruct->I2C_AcknowledgedAddress = I2C_AcknowledgedAddress_7bit;
 551              		.loc 1 299 43 view .LVU135
 552 000a 4FF48043 		mov	r3, #16384	@ tmp118,
 553              	@ ../Libraries/STM32F4xx_StdPeriph_Driver/src/stm32f4xx_i2c.c:291:   I2C_InitStruct->I2C_Mode = I2C
 291:../Libraries/STM32F4xx_StdPeriph_Driver/src/stm32f4xx_i2c.c ****   /* Initialize the I2C_DutyCycle member */
 554              		.loc 1 291 28 view .LVU136
 555 000e C0E90041 		strd	r4, r1, [r0]	@ tmp114, tmp115, I2C_InitStruct
 556 0012 8260     		str	r2, [r0, #8]	@ tmp116, MEM <vector(2) short unsigned int> [(short unsigned int *)I2C_InitStruc
 557              		.loc 1 299 3 is_stmt 1 view .LVU137
 558              	@ ../Libraries/STM32F4xx_StdPeriph_Driver/src/stm32f4xx_i2c.c:300: }
 300:../Libraries/STM32F4xx_StdPeriph_Driver/src/stm32f4xx_i2c.c **** }
 559              		.loc 1 300 1 is_stmt 0 view .LVU138
 560 0014 5DF8044B 		ldr	r4, [sp], #4	@,
 561              		.cfi_restore 4
 562              		.cfi_def_cfa_offset 0
 563              	@ ../Libraries/STM32F4xx_StdPeriph_Driver/src/stm32f4xx_i2c.c:299:   I2C_InitStruct->I2C_Acknowledg
 299:../Libraries/STM32F4xx_StdPeriph_Driver/src/stm32f4xx_i2c.c **** }
 564              		.loc 1 299 43 view .LVU139
 565 0018 8381     		strh	r3, [r0, #12]	@ movhi	@ tmp118, I2C_InitStruct_2(D)->I2C_AcknowledgedAddress
 566              	@ ../Libraries/STM32F4xx_StdPeriph_Driver/src/stm32f4xx_i2c.c:300: }
 567              		.loc 1 300 1 view .LVU140
 568 001a 7047     		bx	lr	@
 569              	.L25:
 570              		.align	2
 571              	.L24:
 572 001c 0000FFBF 		.word	-1073807360
 573              		.cfi_endproc
 574              	.LFE112:
 575              		.size	I2C_StructInit, .-I2C_StructInit
 576              		.section	.text.I2C_Cmd,"ax",%progbits
 577              		.align	1
 578              		.p2align 2,,3
 579              		.global	I2C_Cmd
 580              		.syntax unified
 581              		.thumb
 582              		.thumb_func
 583              		.type	I2C_Cmd, %function
 584              	I2C_Cmd:
 585              	.LVL36:
 586              	.LFB113:
 301:../Libraries/STM32F4xx_StdPeriph_Driver/src/stm32f4xx_i2c.c **** 
 302:../Libraries/STM32F4xx_StdPeriph_Driver/src/stm32f4xx_i2c.c **** /**
 303:../Libraries/STM32F4xx_StdPeriph_Driver/src/stm32f4xx_i2c.c ****   * @brief  Enables or disables the specified I2C peripheral.
 304:../Libraries/STM32F4xx_StdPeriph_Driver/src/stm32f4xx_i2c.c ****   * @param  I2Cx: where x can be 1, 2 or 3 to select the I2C peripheral.
 305:../Libraries/STM32F4xx_StdPeriph_Driver/src/stm32f4xx_i2c.c ****   * @param  NewState: new state of the I2Cx peripheral. 
 306:../Libraries/STM32F4xx_StdPeriph_Driver/src/stm32f4xx_i2c.c ****   *          This parameter can be: ENABLE or DISABLE.
 307:../Libraries/STM32F4xx_StdPeriph_Driver/src/stm32f4xx_i2c.c ****   * @retval None
 308:../Libraries/STM32F4xx_StdPeriph_Driver/src/stm32f4xx_i2c.c ****   */
 309:../Libraries/STM32F4xx_StdPeriph_Driver/src/stm32f4xx_i2c.c **** void I2C_Cmd(I2C_TypeDef* I2Cx, FunctionalState NewState)
 310:../Libraries/STM32F4xx_StdPeriph_Driver/src/stm32f4xx_i2c.c **** {
 587              		.loc 1 310 1 is_stmt 1 view -0
ARM GAS  C:\Users\admin\AppData\Local\Temp\ccm61GQJ.s 			page 18


 588              		.cfi_startproc
 589              		@ args = 0, pretend = 0, frame = 0
 590              		@ frame_needed = 0, uses_anonymous_args = 0
 591              		@ link register save eliminated.
 311:../Libraries/STM32F4xx_StdPeriph_Driver/src/stm32f4xx_i2c.c ****   /* Check the parameters */
 312:../Libraries/STM32F4xx_StdPeriph_Driver/src/stm32f4xx_i2c.c ****   assert_param(IS_I2C_ALL_PERIPH(I2Cx));
 592              		.loc 1 312 3 view .LVU142
 313:../Libraries/STM32F4xx_StdPeriph_Driver/src/stm32f4xx_i2c.c ****   assert_param(IS_FUNCTIONAL_STATE(NewState));
 593              		.loc 1 313 3 view .LVU143
 314:../Libraries/STM32F4xx_StdPeriph_Driver/src/stm32f4xx_i2c.c ****   if (NewState != DISABLE)
 594              		.loc 1 314 3 view .LVU144
 595              	@ ../Libraries/STM32F4xx_StdPeriph_Driver/src/stm32f4xx_i2c.c:317:     I2Cx->CR1 |= I2C_CR1_PE;
 315:../Libraries/STM32F4xx_StdPeriph_Driver/src/stm32f4xx_i2c.c ****   {
 316:../Libraries/STM32F4xx_StdPeriph_Driver/src/stm32f4xx_i2c.c ****     /* Enable the selected I2C peripheral */
 317:../Libraries/STM32F4xx_StdPeriph_Driver/src/stm32f4xx_i2c.c ****     I2Cx->CR1 |= I2C_CR1_PE;
 596              		.loc 1 317 15 is_stmt 0 view .LVU145
 597 0000 0388     		ldrh	r3, [r0]	@,* I2Cx
 598              	@ ../Libraries/STM32F4xx_StdPeriph_Driver/src/stm32f4xx_i2c.c:314:   if (NewState != DISABLE)
 314:../Libraries/STM32F4xx_StdPeriph_Driver/src/stm32f4xx_i2c.c ****   if (NewState != DISABLE)
 599              		.loc 1 314 6 view .LVU146
 600 0002 21B1     		cbz	r1, .L27	@ tmp126,
 601              		.loc 1 317 5 is_stmt 1 view .LVU147
 602              	@ ../Libraries/STM32F4xx_StdPeriph_Driver/src/stm32f4xx_i2c.c:317:     I2Cx->CR1 |= I2C_CR1_PE;
 603              		.loc 1 317 15 is_stmt 0 view .LVU148
 604 0004 9BB2     		uxth	r3, r3	@ _1, I2Cx_8(D)->CR1
 605 0006 43F00103 		orr	r3, r3, #1	@ _2, _1,
 606 000a 0380     		strh	r3, [r0]	@ movhi	@ _2,* I2Cx
 607 000c 7047     		bx	lr	@
 608              	.L27:
 318:../Libraries/STM32F4xx_StdPeriph_Driver/src/stm32f4xx_i2c.c ****   }
 319:../Libraries/STM32F4xx_StdPeriph_Driver/src/stm32f4xx_i2c.c ****   else
 320:../Libraries/STM32F4xx_StdPeriph_Driver/src/stm32f4xx_i2c.c ****   {
 321:../Libraries/STM32F4xx_StdPeriph_Driver/src/stm32f4xx_i2c.c ****     /* Disable the selected I2C peripheral */
 322:../Libraries/STM32F4xx_StdPeriph_Driver/src/stm32f4xx_i2c.c ****     I2Cx->CR1 &= (uint16_t)~((uint16_t)I2C_CR1_PE);
 609              		.loc 1 322 5 is_stmt 1 view .LVU149
 610              	@ ../Libraries/STM32F4xx_StdPeriph_Driver/src/stm32f4xx_i2c.c:322:     I2Cx->CR1 &= (uint16_t)~((ui
 611              		.loc 1 322 15 is_stmt 0 view .LVU150
 612 000e 23F00103 		bic	r3, r3, #1	@ _4, I2Cx_8(D)->CR1,
 613 0012 1B04     		lsls	r3, r3, #16	@ _4, _4,
 614 0014 1B0C     		lsrs	r3, r3, #16	@ _4, _4,
 615 0016 0380     		strh	r3, [r0]	@ movhi	@ _4,* I2Cx
 616              	@ ../Libraries/STM32F4xx_StdPeriph_Driver/src/stm32f4xx_i2c.c:324: }
 323:../Libraries/STM32F4xx_StdPeriph_Driver/src/stm32f4xx_i2c.c ****   }
 324:../Libraries/STM32F4xx_StdPeriph_Driver/src/stm32f4xx_i2c.c **** }
 617              		.loc 1 324 1 view .LVU151
 618 0018 7047     		bx	lr	@
 619              		.cfi_endproc
 620              	.LFE113:
 621              		.size	I2C_Cmd, .-I2C_Cmd
 622 001a 00BF     		.section	.text.I2C_GenerateSTART,"ax",%progbits
 623              		.align	1
 624              		.p2align 2,,3
 625              		.global	I2C_GenerateSTART
 626              		.syntax unified
 627              		.thumb
 628              		.thumb_func
 629              		.type	I2C_GenerateSTART, %function
ARM GAS  C:\Users\admin\AppData\Local\Temp\ccm61GQJ.s 			page 19


 630              	I2C_GenerateSTART:
 631              	.LVL37:
 632              	.LFB114:
 325:../Libraries/STM32F4xx_StdPeriph_Driver/src/stm32f4xx_i2c.c **** 
 326:../Libraries/STM32F4xx_StdPeriph_Driver/src/stm32f4xx_i2c.c **** /**
 327:../Libraries/STM32F4xx_StdPeriph_Driver/src/stm32f4xx_i2c.c ****   * @brief  Generates I2Cx communication START condition.
 328:../Libraries/STM32F4xx_StdPeriph_Driver/src/stm32f4xx_i2c.c ****   * @param  I2Cx: where x can be 1, 2 or 3 to select the I2C peripheral.
 329:../Libraries/STM32F4xx_StdPeriph_Driver/src/stm32f4xx_i2c.c ****   * @param  NewState: new state of the I2C START condition generation.
 330:../Libraries/STM32F4xx_StdPeriph_Driver/src/stm32f4xx_i2c.c ****   *          This parameter can be: ENABLE or DISABLE.
 331:../Libraries/STM32F4xx_StdPeriph_Driver/src/stm32f4xx_i2c.c ****   * @retval None.
 332:../Libraries/STM32F4xx_StdPeriph_Driver/src/stm32f4xx_i2c.c ****   */
 333:../Libraries/STM32F4xx_StdPeriph_Driver/src/stm32f4xx_i2c.c **** void I2C_GenerateSTART(I2C_TypeDef* I2Cx, FunctionalState NewState)
 334:../Libraries/STM32F4xx_StdPeriph_Driver/src/stm32f4xx_i2c.c **** {
 633              		.loc 1 334 1 is_stmt 1 view -0
 634              		.cfi_startproc
 635              		@ args = 0, pretend = 0, frame = 0
 636              		@ frame_needed = 0, uses_anonymous_args = 0
 637              		@ link register save eliminated.
 335:../Libraries/STM32F4xx_StdPeriph_Driver/src/stm32f4xx_i2c.c ****   /* Check the parameters */
 336:../Libraries/STM32F4xx_StdPeriph_Driver/src/stm32f4xx_i2c.c ****   assert_param(IS_I2C_ALL_PERIPH(I2Cx));
 638              		.loc 1 336 3 view .LVU153
 337:../Libraries/STM32F4xx_StdPeriph_Driver/src/stm32f4xx_i2c.c ****   assert_param(IS_FUNCTIONAL_STATE(NewState));
 639              		.loc 1 337 3 view .LVU154
 338:../Libraries/STM32F4xx_StdPeriph_Driver/src/stm32f4xx_i2c.c ****   if (NewState != DISABLE)
 640              		.loc 1 338 3 view .LVU155
 641              	@ ../Libraries/STM32F4xx_StdPeriph_Driver/src/stm32f4xx_i2c.c:341:     I2Cx->CR1 |= I2C_CR1_START;
 339:../Libraries/STM32F4xx_StdPeriph_Driver/src/stm32f4xx_i2c.c ****   {
 340:../Libraries/STM32F4xx_StdPeriph_Driver/src/stm32f4xx_i2c.c ****     /* Generate a START condition */
 341:../Libraries/STM32F4xx_StdPeriph_Driver/src/stm32f4xx_i2c.c ****     I2Cx->CR1 |= I2C_CR1_START;
 642              		.loc 1 341 15 is_stmt 0 view .LVU156
 643 0000 0388     		ldrh	r3, [r0]	@,* I2Cx
 644              	@ ../Libraries/STM32F4xx_StdPeriph_Driver/src/stm32f4xx_i2c.c:338:   if (NewState != DISABLE)
 338:../Libraries/STM32F4xx_StdPeriph_Driver/src/stm32f4xx_i2c.c ****   if (NewState != DISABLE)
 645              		.loc 1 338 6 view .LVU157
 646 0002 21B1     		cbz	r1, .L30	@ tmp126,
 647              		.loc 1 341 5 is_stmt 1 view .LVU158
 648              	@ ../Libraries/STM32F4xx_StdPeriph_Driver/src/stm32f4xx_i2c.c:341:     I2Cx->CR1 |= I2C_CR1_START;
 649              		.loc 1 341 15 is_stmt 0 view .LVU159
 650 0004 9BB2     		uxth	r3, r3	@ _1, I2Cx_8(D)->CR1
 651 0006 43F48073 		orr	r3, r3, #256	@ _2, _1,
 652 000a 0380     		strh	r3, [r0]	@ movhi	@ _2,* I2Cx
 653 000c 7047     		bx	lr	@
 654              	.L30:
 342:../Libraries/STM32F4xx_StdPeriph_Driver/src/stm32f4xx_i2c.c ****   }
 343:../Libraries/STM32F4xx_StdPeriph_Driver/src/stm32f4xx_i2c.c ****   else
 344:../Libraries/STM32F4xx_StdPeriph_Driver/src/stm32f4xx_i2c.c ****   {
 345:../Libraries/STM32F4xx_StdPeriph_Driver/src/stm32f4xx_i2c.c ****     /* Disable the START condition generation */
 346:../Libraries/STM32F4xx_StdPeriph_Driver/src/stm32f4xx_i2c.c ****     I2Cx->CR1 &= (uint16_t)~((uint16_t)I2C_CR1_START);
 655              		.loc 1 346 5 is_stmt 1 view .LVU160
 656              	@ ../Libraries/STM32F4xx_StdPeriph_Driver/src/stm32f4xx_i2c.c:346:     I2Cx->CR1 &= (uint16_t)~((ui
 657              		.loc 1 346 15 is_stmt 0 view .LVU161
 658 000e 23F48073 		bic	r3, r3, #256	@ _4, I2Cx_8(D)->CR1,
 659 0012 1B04     		lsls	r3, r3, #16	@ _4, _4,
 660 0014 1B0C     		lsrs	r3, r3, #16	@ _4, _4,
 661 0016 0380     		strh	r3, [r0]	@ movhi	@ _4,* I2Cx
 662              	@ ../Libraries/STM32F4xx_StdPeriph_Driver/src/stm32f4xx_i2c.c:348: }
 347:../Libraries/STM32F4xx_StdPeriph_Driver/src/stm32f4xx_i2c.c ****   }
ARM GAS  C:\Users\admin\AppData\Local\Temp\ccm61GQJ.s 			page 20


 348:../Libraries/STM32F4xx_StdPeriph_Driver/src/stm32f4xx_i2c.c **** }
 663              		.loc 1 348 1 view .LVU162
 664 0018 7047     		bx	lr	@
 665              		.cfi_endproc
 666              	.LFE114:
 667              		.size	I2C_GenerateSTART, .-I2C_GenerateSTART
 668 001a 00BF     		.section	.text.I2C_GenerateSTOP,"ax",%progbits
 669              		.align	1
 670              		.p2align 2,,3
 671              		.global	I2C_GenerateSTOP
 672              		.syntax unified
 673              		.thumb
 674              		.thumb_func
 675              		.type	I2C_GenerateSTOP, %function
 676              	I2C_GenerateSTOP:
 677              	.LVL38:
 678              	.LFB115:
 349:../Libraries/STM32F4xx_StdPeriph_Driver/src/stm32f4xx_i2c.c **** 
 350:../Libraries/STM32F4xx_StdPeriph_Driver/src/stm32f4xx_i2c.c **** /**
 351:../Libraries/STM32F4xx_StdPeriph_Driver/src/stm32f4xx_i2c.c ****   * @brief  Generates I2Cx communication STOP condition.
 352:../Libraries/STM32F4xx_StdPeriph_Driver/src/stm32f4xx_i2c.c ****   * @param  I2Cx: where x can be 1, 2 or 3 to select the I2C peripheral.
 353:../Libraries/STM32F4xx_StdPeriph_Driver/src/stm32f4xx_i2c.c ****   * @param  NewState: new state of the I2C STOP condition generation.
 354:../Libraries/STM32F4xx_StdPeriph_Driver/src/stm32f4xx_i2c.c ****   *          This parameter can be: ENABLE or DISABLE.
 355:../Libraries/STM32F4xx_StdPeriph_Driver/src/stm32f4xx_i2c.c ****   * @retval None.
 356:../Libraries/STM32F4xx_StdPeriph_Driver/src/stm32f4xx_i2c.c ****   */
 357:../Libraries/STM32F4xx_StdPeriph_Driver/src/stm32f4xx_i2c.c **** void I2C_GenerateSTOP(I2C_TypeDef* I2Cx, FunctionalState NewState)
 358:../Libraries/STM32F4xx_StdPeriph_Driver/src/stm32f4xx_i2c.c **** {
 679              		.loc 1 358 1 is_stmt 1 view -0
 680              		.cfi_startproc
 681              		@ args = 0, pretend = 0, frame = 0
 682              		@ frame_needed = 0, uses_anonymous_args = 0
 683              		@ link register save eliminated.
 359:../Libraries/STM32F4xx_StdPeriph_Driver/src/stm32f4xx_i2c.c ****   /* Check the parameters */
 360:../Libraries/STM32F4xx_StdPeriph_Driver/src/stm32f4xx_i2c.c ****   assert_param(IS_I2C_ALL_PERIPH(I2Cx));
 684              		.loc 1 360 3 view .LVU164
 361:../Libraries/STM32F4xx_StdPeriph_Driver/src/stm32f4xx_i2c.c ****   assert_param(IS_FUNCTIONAL_STATE(NewState));
 685              		.loc 1 361 3 view .LVU165
 362:../Libraries/STM32F4xx_StdPeriph_Driver/src/stm32f4xx_i2c.c ****   if (NewState != DISABLE)
 686              		.loc 1 362 3 view .LVU166
 687              	@ ../Libraries/STM32F4xx_StdPeriph_Driver/src/stm32f4xx_i2c.c:365:     I2Cx->CR1 |= I2C_CR1_STOP;
 363:../Libraries/STM32F4xx_StdPeriph_Driver/src/stm32f4xx_i2c.c ****   {
 364:../Libraries/STM32F4xx_StdPeriph_Driver/src/stm32f4xx_i2c.c ****     /* Generate a STOP condition */
 365:../Libraries/STM32F4xx_StdPeriph_Driver/src/stm32f4xx_i2c.c ****     I2Cx->CR1 |= I2C_CR1_STOP;
 688              		.loc 1 365 15 is_stmt 0 view .LVU167
 689 0000 0388     		ldrh	r3, [r0]	@,* I2Cx
 690              	@ ../Libraries/STM32F4xx_StdPeriph_Driver/src/stm32f4xx_i2c.c:362:   if (NewState != DISABLE)
 362:../Libraries/STM32F4xx_StdPeriph_Driver/src/stm32f4xx_i2c.c ****   if (NewState != DISABLE)
 691              		.loc 1 362 6 view .LVU168
 692 0002 21B1     		cbz	r1, .L33	@ tmp126,
 693              		.loc 1 365 5 is_stmt 1 view .LVU169
 694              	@ ../Libraries/STM32F4xx_StdPeriph_Driver/src/stm32f4xx_i2c.c:365:     I2Cx->CR1 |= I2C_CR1_STOP;
 695              		.loc 1 365 15 is_stmt 0 view .LVU170
 696 0004 9BB2     		uxth	r3, r3	@ _1, I2Cx_8(D)->CR1
 697 0006 43F40073 		orr	r3, r3, #512	@ _2, _1,
 698 000a 0380     		strh	r3, [r0]	@ movhi	@ _2,* I2Cx
 699 000c 7047     		bx	lr	@
 700              	.L33:
ARM GAS  C:\Users\admin\AppData\Local\Temp\ccm61GQJ.s 			page 21


 366:../Libraries/STM32F4xx_StdPeriph_Driver/src/stm32f4xx_i2c.c ****   }
 367:../Libraries/STM32F4xx_StdPeriph_Driver/src/stm32f4xx_i2c.c ****   else
 368:../Libraries/STM32F4xx_StdPeriph_Driver/src/stm32f4xx_i2c.c ****   {
 369:../Libraries/STM32F4xx_StdPeriph_Driver/src/stm32f4xx_i2c.c ****     /* Disable the STOP condition generation */
 370:../Libraries/STM32F4xx_StdPeriph_Driver/src/stm32f4xx_i2c.c ****     I2Cx->CR1 &= (uint16_t)~((uint16_t)I2C_CR1_STOP);
 701              		.loc 1 370 5 is_stmt 1 view .LVU171
 702              	@ ../Libraries/STM32F4xx_StdPeriph_Driver/src/stm32f4xx_i2c.c:370:     I2Cx->CR1 &= (uint16_t)~((ui
 703              		.loc 1 370 15 is_stmt 0 view .LVU172
 704 000e 23F40073 		bic	r3, r3, #512	@ _4, I2Cx_8(D)->CR1,
 705 0012 1B04     		lsls	r3, r3, #16	@ _4, _4,
 706 0014 1B0C     		lsrs	r3, r3, #16	@ _4, _4,
 707 0016 0380     		strh	r3, [r0]	@ movhi	@ _4,* I2Cx
 708              	@ ../Libraries/STM32F4xx_StdPeriph_Driver/src/stm32f4xx_i2c.c:372: }
 371:../Libraries/STM32F4xx_StdPeriph_Driver/src/stm32f4xx_i2c.c ****   }
 372:../Libraries/STM32F4xx_StdPeriph_Driver/src/stm32f4xx_i2c.c **** }
 709              		.loc 1 372 1 view .LVU173
 710 0018 7047     		bx	lr	@
 711              		.cfi_endproc
 712              	.LFE115:
 713              		.size	I2C_GenerateSTOP, .-I2C_GenerateSTOP
 714 001a 00BF     		.section	.text.I2C_Send7bitAddress,"ax",%progbits
 715              		.align	1
 716              		.p2align 2,,3
 717              		.global	I2C_Send7bitAddress
 718              		.syntax unified
 719              		.thumb
 720              		.thumb_func
 721              		.type	I2C_Send7bitAddress, %function
 722              	I2C_Send7bitAddress:
 723              	.LVL39:
 724              	.LFB116:
 373:../Libraries/STM32F4xx_StdPeriph_Driver/src/stm32f4xx_i2c.c **** 
 374:../Libraries/STM32F4xx_StdPeriph_Driver/src/stm32f4xx_i2c.c **** /**
 375:../Libraries/STM32F4xx_StdPeriph_Driver/src/stm32f4xx_i2c.c ****   * @brief  Transmits the address byte to select the slave device.
 376:../Libraries/STM32F4xx_StdPeriph_Driver/src/stm32f4xx_i2c.c ****   * @param  I2Cx: where x can be 1, 2 or 3 to select the I2C peripheral.
 377:../Libraries/STM32F4xx_StdPeriph_Driver/src/stm32f4xx_i2c.c ****   * @param  Address: specifies the slave address which will be transmitted
 378:../Libraries/STM32F4xx_StdPeriph_Driver/src/stm32f4xx_i2c.c ****   * @param  I2C_Direction: specifies whether the I2C device will be a Transmitter
 379:../Libraries/STM32F4xx_StdPeriph_Driver/src/stm32f4xx_i2c.c ****   *         or a Receiver. 
 380:../Libraries/STM32F4xx_StdPeriph_Driver/src/stm32f4xx_i2c.c ****   *          This parameter can be one of the following values
 381:../Libraries/STM32F4xx_StdPeriph_Driver/src/stm32f4xx_i2c.c ****   *            @arg I2C_Direction_Transmitter: Transmitter mode
 382:../Libraries/STM32F4xx_StdPeriph_Driver/src/stm32f4xx_i2c.c ****   *            @arg I2C_Direction_Receiver: Receiver mode
 383:../Libraries/STM32F4xx_StdPeriph_Driver/src/stm32f4xx_i2c.c ****   * @retval None.
 384:../Libraries/STM32F4xx_StdPeriph_Driver/src/stm32f4xx_i2c.c ****   */
 385:../Libraries/STM32F4xx_StdPeriph_Driver/src/stm32f4xx_i2c.c **** void I2C_Send7bitAddress(I2C_TypeDef* I2Cx, uint8_t Address, uint8_t I2C_Direction)
 386:../Libraries/STM32F4xx_StdPeriph_Driver/src/stm32f4xx_i2c.c **** {
 725              		.loc 1 386 1 is_stmt 1 view -0
 726              		.cfi_startproc
 727              		@ args = 0, pretend = 0, frame = 0
 728              		@ frame_needed = 0, uses_anonymous_args = 0
 729              		@ link register save eliminated.
 387:../Libraries/STM32F4xx_StdPeriph_Driver/src/stm32f4xx_i2c.c ****   /* Check the parameters */
 388:../Libraries/STM32F4xx_StdPeriph_Driver/src/stm32f4xx_i2c.c ****   assert_param(IS_I2C_ALL_PERIPH(I2Cx));
 730              		.loc 1 388 3 view .LVU175
 389:../Libraries/STM32F4xx_StdPeriph_Driver/src/stm32f4xx_i2c.c ****   assert_param(IS_I2C_DIRECTION(I2C_Direction));
 731              		.loc 1 389 3 view .LVU176
 390:../Libraries/STM32F4xx_StdPeriph_Driver/src/stm32f4xx_i2c.c ****   /* Test on the direction to set/reset the read/write bit */
 391:../Libraries/STM32F4xx_StdPeriph_Driver/src/stm32f4xx_i2c.c ****   if (I2C_Direction != I2C_Direction_Transmitter)
ARM GAS  C:\Users\admin\AppData\Local\Temp\ccm61GQJ.s 			page 22


 732              		.loc 1 391 3 view .LVU177
 733              	@ ../Libraries/STM32F4xx_StdPeriph_Driver/src/stm32f4xx_i2c.c:391:   if (I2C_Direction != I2C_Direc
 734              		.loc 1 391 6 is_stmt 0 view .LVU178
 735 0000 22B1     		cbz	r2, .L36	@ tmp123,
 392:../Libraries/STM32F4xx_StdPeriph_Driver/src/stm32f4xx_i2c.c ****   {
 393:../Libraries/STM32F4xx_StdPeriph_Driver/src/stm32f4xx_i2c.c ****     /* Set the address bit0 for read */
 394:../Libraries/STM32F4xx_StdPeriph_Driver/src/stm32f4xx_i2c.c ****     Address |= I2C_OAR1_ADD0;
 736              		.loc 1 394 5 is_stmt 1 view .LVU179
 737              	@ ../Libraries/STM32F4xx_StdPeriph_Driver/src/stm32f4xx_i2c.c:394:     Address |= I2C_OAR1_ADD0;
 738              		.loc 1 394 13 is_stmt 0 view .LVU180
 739 0002 41F00101 		orr	r1, r1, #1	@ Address, Address,
 740              	.LVL40:
 395:../Libraries/STM32F4xx_StdPeriph_Driver/src/stm32f4xx_i2c.c ****   }
 396:../Libraries/STM32F4xx_StdPeriph_Driver/src/stm32f4xx_i2c.c ****   else
 397:../Libraries/STM32F4xx_StdPeriph_Driver/src/stm32f4xx_i2c.c ****   {
 398:../Libraries/STM32F4xx_StdPeriph_Driver/src/stm32f4xx_i2c.c ****     /* Reset the address bit0 for write */
 399:../Libraries/STM32F4xx_StdPeriph_Driver/src/stm32f4xx_i2c.c ****     Address &= (uint8_t)~((uint8_t)I2C_OAR1_ADD0);
 400:../Libraries/STM32F4xx_StdPeriph_Driver/src/stm32f4xx_i2c.c ****   }
 401:../Libraries/STM32F4xx_StdPeriph_Driver/src/stm32f4xx_i2c.c ****   /* Send the address */
 402:../Libraries/STM32F4xx_StdPeriph_Driver/src/stm32f4xx_i2c.c ****   I2Cx->DR = Address;
 741              		.loc 1 402 3 is_stmt 1 view .LVU181
 742              	@ ../Libraries/STM32F4xx_StdPeriph_Driver/src/stm32f4xx_i2c.c:402:   I2Cx->DR = Address;
 743              		.loc 1 402 12 is_stmt 0 view .LVU182
 744 0006 89B2     		uxth	r1, r1	@ _1, Address
 745              	.LVL41:
 746              		.loc 1 402 12 view .LVU183
 747 0008 0182     		strh	r1, [r0, #16]	@ movhi	@ _1, I2Cx_8(D)->DR
 748              	@ ../Libraries/STM32F4xx_StdPeriph_Driver/src/stm32f4xx_i2c.c:403: }
 403:../Libraries/STM32F4xx_StdPeriph_Driver/src/stm32f4xx_i2c.c **** }
 749              		.loc 1 403 1 view .LVU184
 750 000a 7047     		bx	lr	@
 751              	.LVL42:
 752              	.L36:
 399:../Libraries/STM32F4xx_StdPeriph_Driver/src/stm32f4xx_i2c.c ****   }
 753              		.loc 1 399 5 is_stmt 1 view .LVU185
 754              	@ ../Libraries/STM32F4xx_StdPeriph_Driver/src/stm32f4xx_i2c.c:399:     Address &= (uint8_t)~((uint8
 399:../Libraries/STM32F4xx_StdPeriph_Driver/src/stm32f4xx_i2c.c ****   }
 755              		.loc 1 399 13 is_stmt 0 view .LVU186
 756 000c 01F0FE01 		and	r1, r1, #254	@ Address, Address,
 757              	.LVL43:
 402:../Libraries/STM32F4xx_StdPeriph_Driver/src/stm32f4xx_i2c.c **** }
 758              		.loc 1 402 3 is_stmt 1 view .LVU187
 759              	@ ../Libraries/STM32F4xx_StdPeriph_Driver/src/stm32f4xx_i2c.c:402:   I2Cx->DR = Address;
 402:../Libraries/STM32F4xx_StdPeriph_Driver/src/stm32f4xx_i2c.c **** }
 760              		.loc 1 402 12 is_stmt 0 view .LVU188
 761 0010 89B2     		uxth	r1, r1	@ _1, Address
 762              	.LVL44:
 402:../Libraries/STM32F4xx_StdPeriph_Driver/src/stm32f4xx_i2c.c **** }
 763              		.loc 1 402 12 view .LVU189
 764 0012 0182     		strh	r1, [r0, #16]	@ movhi	@ _1, I2Cx_8(D)->DR
 765              	@ ../Libraries/STM32F4xx_StdPeriph_Driver/src/stm32f4xx_i2c.c:403: }
 766              		.loc 1 403 1 view .LVU190
 767 0014 7047     		bx	lr	@
 768              		.cfi_endproc
 769              	.LFE116:
 770              		.size	I2C_Send7bitAddress, .-I2C_Send7bitAddress
 771 0016 00BF     		.section	.text.I2C_AcknowledgeConfig,"ax",%progbits
ARM GAS  C:\Users\admin\AppData\Local\Temp\ccm61GQJ.s 			page 23


 772              		.align	1
 773              		.p2align 2,,3
 774              		.global	I2C_AcknowledgeConfig
 775              		.syntax unified
 776              		.thumb
 777              		.thumb_func
 778              		.type	I2C_AcknowledgeConfig, %function
 779              	I2C_AcknowledgeConfig:
 780              	.LVL45:
 781              	.LFB117:
 404:../Libraries/STM32F4xx_StdPeriph_Driver/src/stm32f4xx_i2c.c **** 
 405:../Libraries/STM32F4xx_StdPeriph_Driver/src/stm32f4xx_i2c.c **** /**
 406:../Libraries/STM32F4xx_StdPeriph_Driver/src/stm32f4xx_i2c.c ****   * @brief  Enables or disables the specified I2C acknowledge feature.
 407:../Libraries/STM32F4xx_StdPeriph_Driver/src/stm32f4xx_i2c.c ****   * @param  I2Cx: where x can be 1, 2 or 3 to select the I2C peripheral.
 408:../Libraries/STM32F4xx_StdPeriph_Driver/src/stm32f4xx_i2c.c ****   * @param  NewState: new state of the I2C Acknowledgement.
 409:../Libraries/STM32F4xx_StdPeriph_Driver/src/stm32f4xx_i2c.c ****   *          This parameter can be: ENABLE or DISABLE.
 410:../Libraries/STM32F4xx_StdPeriph_Driver/src/stm32f4xx_i2c.c ****   * @retval None.
 411:../Libraries/STM32F4xx_StdPeriph_Driver/src/stm32f4xx_i2c.c ****   */
 412:../Libraries/STM32F4xx_StdPeriph_Driver/src/stm32f4xx_i2c.c **** void I2C_AcknowledgeConfig(I2C_TypeDef* I2Cx, FunctionalState NewState)
 413:../Libraries/STM32F4xx_StdPeriph_Driver/src/stm32f4xx_i2c.c **** {
 782              		.loc 1 413 1 is_stmt 1 view -0
 783              		.cfi_startproc
 784              		@ args = 0, pretend = 0, frame = 0
 785              		@ frame_needed = 0, uses_anonymous_args = 0
 786              		@ link register save eliminated.
 414:../Libraries/STM32F4xx_StdPeriph_Driver/src/stm32f4xx_i2c.c ****   /* Check the parameters */
 415:../Libraries/STM32F4xx_StdPeriph_Driver/src/stm32f4xx_i2c.c ****   assert_param(IS_I2C_ALL_PERIPH(I2Cx));
 787              		.loc 1 415 3 view .LVU192
 416:../Libraries/STM32F4xx_StdPeriph_Driver/src/stm32f4xx_i2c.c ****   assert_param(IS_FUNCTIONAL_STATE(NewState));
 788              		.loc 1 416 3 view .LVU193
 417:../Libraries/STM32F4xx_StdPeriph_Driver/src/stm32f4xx_i2c.c ****   if (NewState != DISABLE)
 789              		.loc 1 417 3 view .LVU194
 790              	@ ../Libraries/STM32F4xx_StdPeriph_Driver/src/stm32f4xx_i2c.c:420:     I2Cx->CR1 |= I2C_CR1_ACK;
 418:../Libraries/STM32F4xx_StdPeriph_Driver/src/stm32f4xx_i2c.c ****   {
 419:../Libraries/STM32F4xx_StdPeriph_Driver/src/stm32f4xx_i2c.c ****     /* Enable the acknowledgement */
 420:../Libraries/STM32F4xx_StdPeriph_Driver/src/stm32f4xx_i2c.c ****     I2Cx->CR1 |= I2C_CR1_ACK;
 791              		.loc 1 420 15 is_stmt 0 view .LVU195
 792 0000 0388     		ldrh	r3, [r0]	@,* I2Cx
 793              	@ ../Libraries/STM32F4xx_StdPeriph_Driver/src/stm32f4xx_i2c.c:417:   if (NewState != DISABLE)
 417:../Libraries/STM32F4xx_StdPeriph_Driver/src/stm32f4xx_i2c.c ****   if (NewState != DISABLE)
 794              		.loc 1 417 6 view .LVU196
 795 0002 21B1     		cbz	r1, .L39	@ tmp126,
 796              		.loc 1 420 5 is_stmt 1 view .LVU197
 797              	@ ../Libraries/STM32F4xx_StdPeriph_Driver/src/stm32f4xx_i2c.c:420:     I2Cx->CR1 |= I2C_CR1_ACK;
 798              		.loc 1 420 15 is_stmt 0 view .LVU198
 799 0004 9BB2     		uxth	r3, r3	@ _1, I2Cx_8(D)->CR1
 800 0006 43F48063 		orr	r3, r3, #1024	@ _2, _1,
 801 000a 0380     		strh	r3, [r0]	@ movhi	@ _2,* I2Cx
 802 000c 7047     		bx	lr	@
 803              	.L39:
 421:../Libraries/STM32F4xx_StdPeriph_Driver/src/stm32f4xx_i2c.c ****   }
 422:../Libraries/STM32F4xx_StdPeriph_Driver/src/stm32f4xx_i2c.c ****   else
 423:../Libraries/STM32F4xx_StdPeriph_Driver/src/stm32f4xx_i2c.c ****   {
 424:../Libraries/STM32F4xx_StdPeriph_Driver/src/stm32f4xx_i2c.c ****     /* Disable the acknowledgement */
 425:../Libraries/STM32F4xx_StdPeriph_Driver/src/stm32f4xx_i2c.c ****     I2Cx->CR1 &= (uint16_t)~((uint16_t)I2C_CR1_ACK);
 804              		.loc 1 425 5 is_stmt 1 view .LVU199
 805              	@ ../Libraries/STM32F4xx_StdPeriph_Driver/src/stm32f4xx_i2c.c:425:     I2Cx->CR1 &= (uint16_t)~((ui
ARM GAS  C:\Users\admin\AppData\Local\Temp\ccm61GQJ.s 			page 24


 806              		.loc 1 425 15 is_stmt 0 view .LVU200
 807 000e 23F48063 		bic	r3, r3, #1024	@ _4, I2Cx_8(D)->CR1,
 808 0012 1B04     		lsls	r3, r3, #16	@ _4, _4,
 809 0014 1B0C     		lsrs	r3, r3, #16	@ _4, _4,
 810 0016 0380     		strh	r3, [r0]	@ movhi	@ _4,* I2Cx
 811              	@ ../Libraries/STM32F4xx_StdPeriph_Driver/src/stm32f4xx_i2c.c:427: }
 426:../Libraries/STM32F4xx_StdPeriph_Driver/src/stm32f4xx_i2c.c ****   }
 427:../Libraries/STM32F4xx_StdPeriph_Driver/src/stm32f4xx_i2c.c **** }
 812              		.loc 1 427 1 view .LVU201
 813 0018 7047     		bx	lr	@
 814              		.cfi_endproc
 815              	.LFE117:
 816              		.size	I2C_AcknowledgeConfig, .-I2C_AcknowledgeConfig
 817 001a 00BF     		.section	.text.I2C_OwnAddress2Config,"ax",%progbits
 818              		.align	1
 819              		.p2align 2,,3
 820              		.global	I2C_OwnAddress2Config
 821              		.syntax unified
 822              		.thumb
 823              		.thumb_func
 824              		.type	I2C_OwnAddress2Config, %function
 825              	I2C_OwnAddress2Config:
 826              	.LVL46:
 827              	.LFB118:
 428:../Libraries/STM32F4xx_StdPeriph_Driver/src/stm32f4xx_i2c.c **** 
 429:../Libraries/STM32F4xx_StdPeriph_Driver/src/stm32f4xx_i2c.c **** /**
 430:../Libraries/STM32F4xx_StdPeriph_Driver/src/stm32f4xx_i2c.c ****   * @brief  Configures the specified I2C own address2.
 431:../Libraries/STM32F4xx_StdPeriph_Driver/src/stm32f4xx_i2c.c ****   * @param  I2Cx: where x can be 1, 2 or 3 to select the I2C peripheral.
 432:../Libraries/STM32F4xx_StdPeriph_Driver/src/stm32f4xx_i2c.c ****   * @param  Address: specifies the 7bit I2C own address2.
 433:../Libraries/STM32F4xx_StdPeriph_Driver/src/stm32f4xx_i2c.c ****   * @retval None.
 434:../Libraries/STM32F4xx_StdPeriph_Driver/src/stm32f4xx_i2c.c ****   */
 435:../Libraries/STM32F4xx_StdPeriph_Driver/src/stm32f4xx_i2c.c **** void I2C_OwnAddress2Config(I2C_TypeDef* I2Cx, uint8_t Address)
 436:../Libraries/STM32F4xx_StdPeriph_Driver/src/stm32f4xx_i2c.c **** {
 828              		.loc 1 436 1 is_stmt 1 view -0
 829              		.cfi_startproc
 830              		@ args = 0, pretend = 0, frame = 0
 831              		@ frame_needed = 0, uses_anonymous_args = 0
 832              		@ link register save eliminated.
 437:../Libraries/STM32F4xx_StdPeriph_Driver/src/stm32f4xx_i2c.c ****   uint16_t tmpreg = 0;
 833              		.loc 1 437 3 view .LVU203
 438:../Libraries/STM32F4xx_StdPeriph_Driver/src/stm32f4xx_i2c.c **** 
 439:../Libraries/STM32F4xx_StdPeriph_Driver/src/stm32f4xx_i2c.c ****   /* Check the parameters */
 440:../Libraries/STM32F4xx_StdPeriph_Driver/src/stm32f4xx_i2c.c ****   assert_param(IS_I2C_ALL_PERIPH(I2Cx));
 834              		.loc 1 440 3 view .LVU204
 441:../Libraries/STM32F4xx_StdPeriph_Driver/src/stm32f4xx_i2c.c **** 
 442:../Libraries/STM32F4xx_StdPeriph_Driver/src/stm32f4xx_i2c.c ****   /* Get the old register value */
 443:../Libraries/STM32F4xx_StdPeriph_Driver/src/stm32f4xx_i2c.c ****   tmpreg = I2Cx->OAR2;
 835              		.loc 1 443 3 view .LVU205
 836              	@ ../Libraries/STM32F4xx_StdPeriph_Driver/src/stm32f4xx_i2c.c:443:   tmpreg = I2Cx->OAR2;
 837              		.loc 1 443 10 is_stmt 0 view .LVU206
 838 0000 8389     		ldrh	r3, [r0, #12]	@, I2Cx_6(D)->OAR2
 839 0002 9BB2     		uxth	r3, r3	@ tmpreg, I2Cx_6(D)->OAR2
 840              	.LVL47:
 444:../Libraries/STM32F4xx_StdPeriph_Driver/src/stm32f4xx_i2c.c **** 
 445:../Libraries/STM32F4xx_StdPeriph_Driver/src/stm32f4xx_i2c.c ****   /* Reset I2Cx Own address2 bit [7:1] */
 446:../Libraries/STM32F4xx_StdPeriph_Driver/src/stm32f4xx_i2c.c ****   tmpreg &= (uint16_t)~((uint16_t)I2C_OAR2_ADD2);
 841              		.loc 1 446 3 is_stmt 1 view .LVU207
ARM GAS  C:\Users\admin\AppData\Local\Temp\ccm61GQJ.s 			page 25


 447:../Libraries/STM32F4xx_StdPeriph_Driver/src/stm32f4xx_i2c.c **** 
 448:../Libraries/STM32F4xx_StdPeriph_Driver/src/stm32f4xx_i2c.c ****   /* Set I2Cx Own address2 */
 449:../Libraries/STM32F4xx_StdPeriph_Driver/src/stm32f4xx_i2c.c ****   tmpreg |= (uint16_t)((uint16_t)Address & (uint16_t)0x00FE);
 842              		.loc 1 449 3 view .LVU208
 843              	@ ../Libraries/STM32F4xx_StdPeriph_Driver/src/stm32f4xx_i2c.c:449:   tmpreg |= (uint16_t)((uint16_t
 844              		.loc 1 449 13 is_stmt 0 view .LVU209
 845 0004 01F0FE01 		and	r1, r1, #254	@ tmp126, tmp132,
 846              	.LVL48:
 847              	@ ../Libraries/STM32F4xx_StdPeriph_Driver/src/stm32f4xx_i2c.c:446:   tmpreg &= (uint16_t)~((uint16_
 446:../Libraries/STM32F4xx_StdPeriph_Driver/src/stm32f4xx_i2c.c **** 
 848              		.loc 1 446 10 view .LVU210
 849 0008 23F0FE03 		bic	r3, r3, #254	@ tmp127, tmpreg,
 850              	.LVL49:
 851              	@ ../Libraries/STM32F4xx_StdPeriph_Driver/src/stm32f4xx_i2c.c:449:   tmpreg |= (uint16_t)((uint16_t
 852              		.loc 1 449 10 view .LVU211
 853 000c 1943     		orrs	r1, r1, r3	@, tmpreg, tmp126, tmp127
 854              	.LVL50:
 450:../Libraries/STM32F4xx_StdPeriph_Driver/src/stm32f4xx_i2c.c **** 
 451:../Libraries/STM32F4xx_StdPeriph_Driver/src/stm32f4xx_i2c.c ****   /* Store the new register value */
 452:../Libraries/STM32F4xx_StdPeriph_Driver/src/stm32f4xx_i2c.c ****   I2Cx->OAR2 = tmpreg;
 855              		.loc 1 452 3 is_stmt 1 view .LVU212
 856              	@ ../Libraries/STM32F4xx_StdPeriph_Driver/src/stm32f4xx_i2c.c:452:   I2Cx->OAR2 = tmpreg;
 857              		.loc 1 452 14 is_stmt 0 view .LVU213
 858 000e 8181     		strh	r1, [r0, #12]	@ movhi	@ tmpreg, I2Cx_6(D)->OAR2
 859              	@ ../Libraries/STM32F4xx_StdPeriph_Driver/src/stm32f4xx_i2c.c:453: }
 453:../Libraries/STM32F4xx_StdPeriph_Driver/src/stm32f4xx_i2c.c **** }
 860              		.loc 1 453 1 view .LVU214
 861 0010 7047     		bx	lr	@
 862              		.cfi_endproc
 863              	.LFE118:
 864              		.size	I2C_OwnAddress2Config, .-I2C_OwnAddress2Config
 865 0012 00BF     		.section	.text.I2C_DualAddressCmd,"ax",%progbits
 866              		.align	1
 867              		.p2align 2,,3
 868              		.global	I2C_DualAddressCmd
 869              		.syntax unified
 870              		.thumb
 871              		.thumb_func
 872              		.type	I2C_DualAddressCmd, %function
 873              	I2C_DualAddressCmd:
 874              	.LVL51:
 875              	.LFB119:
 454:../Libraries/STM32F4xx_StdPeriph_Driver/src/stm32f4xx_i2c.c **** 
 455:../Libraries/STM32F4xx_StdPeriph_Driver/src/stm32f4xx_i2c.c **** /**
 456:../Libraries/STM32F4xx_StdPeriph_Driver/src/stm32f4xx_i2c.c ****   * @brief  Enables or disables the specified I2C dual addressing mode.
 457:../Libraries/STM32F4xx_StdPeriph_Driver/src/stm32f4xx_i2c.c ****   * @param  I2Cx: where x can be 1, 2 or 3 to select the I2C peripheral.
 458:../Libraries/STM32F4xx_StdPeriph_Driver/src/stm32f4xx_i2c.c ****   * @param  NewState: new state of the I2C dual addressing mode.
 459:../Libraries/STM32F4xx_StdPeriph_Driver/src/stm32f4xx_i2c.c ****   *          This parameter can be: ENABLE or DISABLE.
 460:../Libraries/STM32F4xx_StdPeriph_Driver/src/stm32f4xx_i2c.c ****   * @retval None
 461:../Libraries/STM32F4xx_StdPeriph_Driver/src/stm32f4xx_i2c.c ****   */
 462:../Libraries/STM32F4xx_StdPeriph_Driver/src/stm32f4xx_i2c.c **** void I2C_DualAddressCmd(I2C_TypeDef* I2Cx, FunctionalState NewState)
 463:../Libraries/STM32F4xx_StdPeriph_Driver/src/stm32f4xx_i2c.c **** {
 876              		.loc 1 463 1 is_stmt 1 view -0
 877              		.cfi_startproc
 878              		@ args = 0, pretend = 0, frame = 0
 879              		@ frame_needed = 0, uses_anonymous_args = 0
 880              		@ link register save eliminated.
ARM GAS  C:\Users\admin\AppData\Local\Temp\ccm61GQJ.s 			page 26


 464:../Libraries/STM32F4xx_StdPeriph_Driver/src/stm32f4xx_i2c.c ****   /* Check the parameters */
 465:../Libraries/STM32F4xx_StdPeriph_Driver/src/stm32f4xx_i2c.c ****   assert_param(IS_I2C_ALL_PERIPH(I2Cx));
 881              		.loc 1 465 3 view .LVU216
 466:../Libraries/STM32F4xx_StdPeriph_Driver/src/stm32f4xx_i2c.c ****   assert_param(IS_FUNCTIONAL_STATE(NewState));
 882              		.loc 1 466 3 view .LVU217
 467:../Libraries/STM32F4xx_StdPeriph_Driver/src/stm32f4xx_i2c.c ****   if (NewState != DISABLE)
 883              		.loc 1 467 3 view .LVU218
 884              	@ ../Libraries/STM32F4xx_StdPeriph_Driver/src/stm32f4xx_i2c.c:470:     I2Cx->OAR2 |= I2C_OAR2_ENDUA
 468:../Libraries/STM32F4xx_StdPeriph_Driver/src/stm32f4xx_i2c.c ****   {
 469:../Libraries/STM32F4xx_StdPeriph_Driver/src/stm32f4xx_i2c.c ****     /* Enable dual addressing mode */
 470:../Libraries/STM32F4xx_StdPeriph_Driver/src/stm32f4xx_i2c.c ****     I2Cx->OAR2 |= I2C_OAR2_ENDUAL;
 885              		.loc 1 470 16 is_stmt 0 view .LVU219
 886 0000 8389     		ldrh	r3, [r0, #12]	@,
 887              	@ ../Libraries/STM32F4xx_StdPeriph_Driver/src/stm32f4xx_i2c.c:467:   if (NewState != DISABLE)
 467:../Libraries/STM32F4xx_StdPeriph_Driver/src/stm32f4xx_i2c.c ****   if (NewState != DISABLE)
 888              		.loc 1 467 6 view .LVU220
 889 0002 21B1     		cbz	r1, .L43	@ tmp128,
 890              		.loc 1 470 5 is_stmt 1 view .LVU221
 891              	@ ../Libraries/STM32F4xx_StdPeriph_Driver/src/stm32f4xx_i2c.c:470:     I2Cx->OAR2 |= I2C_OAR2_ENDUA
 892              		.loc 1 470 16 is_stmt 0 view .LVU222
 893 0004 9BB2     		uxth	r3, r3	@ _1, I2Cx_8(D)->OAR2
 894 0006 43F00103 		orr	r3, r3, #1	@ _2, _1,
 895 000a 8381     		strh	r3, [r0, #12]	@ movhi	@ _2,
 896 000c 7047     		bx	lr	@
 897              	.L43:
 471:../Libraries/STM32F4xx_StdPeriph_Driver/src/stm32f4xx_i2c.c ****   }
 472:../Libraries/STM32F4xx_StdPeriph_Driver/src/stm32f4xx_i2c.c ****   else
 473:../Libraries/STM32F4xx_StdPeriph_Driver/src/stm32f4xx_i2c.c ****   {
 474:../Libraries/STM32F4xx_StdPeriph_Driver/src/stm32f4xx_i2c.c ****     /* Disable dual addressing mode */
 475:../Libraries/STM32F4xx_StdPeriph_Driver/src/stm32f4xx_i2c.c ****     I2Cx->OAR2 &= (uint16_t)~((uint16_t)I2C_OAR2_ENDUAL);
 898              		.loc 1 475 5 is_stmt 1 view .LVU223
 899              	@ ../Libraries/STM32F4xx_StdPeriph_Driver/src/stm32f4xx_i2c.c:475:     I2Cx->OAR2 &= (uint16_t)~((u
 900              		.loc 1 475 16 is_stmt 0 view .LVU224
 901 000e 23F00103 		bic	r3, r3, #1	@ _4, I2Cx_8(D)->OAR2,
 902 0012 1B04     		lsls	r3, r3, #16	@ _4, _4,
 903 0014 1B0C     		lsrs	r3, r3, #16	@ _4, _4,
 904 0016 8381     		strh	r3, [r0, #12]	@ movhi	@ _4,
 905              	@ ../Libraries/STM32F4xx_StdPeriph_Driver/src/stm32f4xx_i2c.c:477: }
 476:../Libraries/STM32F4xx_StdPeriph_Driver/src/stm32f4xx_i2c.c ****   }
 477:../Libraries/STM32F4xx_StdPeriph_Driver/src/stm32f4xx_i2c.c **** }
 906              		.loc 1 477 1 view .LVU225
 907 0018 7047     		bx	lr	@
 908              		.cfi_endproc
 909              	.LFE119:
 910              		.size	I2C_DualAddressCmd, .-I2C_DualAddressCmd
 911 001a 00BF     		.section	.text.I2C_GeneralCallCmd,"ax",%progbits
 912              		.align	1
 913              		.p2align 2,,3
 914              		.global	I2C_GeneralCallCmd
 915              		.syntax unified
 916              		.thumb
 917              		.thumb_func
 918              		.type	I2C_GeneralCallCmd, %function
 919              	I2C_GeneralCallCmd:
 920              	.LVL52:
 921              	.LFB120:
 478:../Libraries/STM32F4xx_StdPeriph_Driver/src/stm32f4xx_i2c.c **** 
ARM GAS  C:\Users\admin\AppData\Local\Temp\ccm61GQJ.s 			page 27


 479:../Libraries/STM32F4xx_StdPeriph_Driver/src/stm32f4xx_i2c.c **** /**
 480:../Libraries/STM32F4xx_StdPeriph_Driver/src/stm32f4xx_i2c.c ****   * @brief  Enables or disables the specified I2C general call feature.
 481:../Libraries/STM32F4xx_StdPeriph_Driver/src/stm32f4xx_i2c.c ****   * @param  I2Cx: where x can be 1, 2 or 3 to select the I2C peripheral.
 482:../Libraries/STM32F4xx_StdPeriph_Driver/src/stm32f4xx_i2c.c ****   * @param  NewState: new state of the I2C General call.
 483:../Libraries/STM32F4xx_StdPeriph_Driver/src/stm32f4xx_i2c.c ****   *          This parameter can be: ENABLE or DISABLE.
 484:../Libraries/STM32F4xx_StdPeriph_Driver/src/stm32f4xx_i2c.c ****   * @retval None
 485:../Libraries/STM32F4xx_StdPeriph_Driver/src/stm32f4xx_i2c.c ****   */
 486:../Libraries/STM32F4xx_StdPeriph_Driver/src/stm32f4xx_i2c.c **** void I2C_GeneralCallCmd(I2C_TypeDef* I2Cx, FunctionalState NewState)
 487:../Libraries/STM32F4xx_StdPeriph_Driver/src/stm32f4xx_i2c.c **** {
 922              		.loc 1 487 1 is_stmt 1 view -0
 923              		.cfi_startproc
 924              		@ args = 0, pretend = 0, frame = 0
 925              		@ frame_needed = 0, uses_anonymous_args = 0
 926              		@ link register save eliminated.
 488:../Libraries/STM32F4xx_StdPeriph_Driver/src/stm32f4xx_i2c.c ****   /* Check the parameters */
 489:../Libraries/STM32F4xx_StdPeriph_Driver/src/stm32f4xx_i2c.c ****   assert_param(IS_I2C_ALL_PERIPH(I2Cx));
 927              		.loc 1 489 3 view .LVU227
 490:../Libraries/STM32F4xx_StdPeriph_Driver/src/stm32f4xx_i2c.c ****   assert_param(IS_FUNCTIONAL_STATE(NewState));
 928              		.loc 1 490 3 view .LVU228
 491:../Libraries/STM32F4xx_StdPeriph_Driver/src/stm32f4xx_i2c.c ****   if (NewState != DISABLE)
 929              		.loc 1 491 3 view .LVU229
 930              	@ ../Libraries/STM32F4xx_StdPeriph_Driver/src/stm32f4xx_i2c.c:494:     I2Cx->CR1 |= I2C_CR1_ENGC;
 492:../Libraries/STM32F4xx_StdPeriph_Driver/src/stm32f4xx_i2c.c ****   {
 493:../Libraries/STM32F4xx_StdPeriph_Driver/src/stm32f4xx_i2c.c ****     /* Enable generall call */
 494:../Libraries/STM32F4xx_StdPeriph_Driver/src/stm32f4xx_i2c.c ****     I2Cx->CR1 |= I2C_CR1_ENGC;
 931              		.loc 1 494 15 is_stmt 0 view .LVU230
 932 0000 0388     		ldrh	r3, [r0]	@,* I2Cx
 933              	@ ../Libraries/STM32F4xx_StdPeriph_Driver/src/stm32f4xx_i2c.c:491:   if (NewState != DISABLE)
 491:../Libraries/STM32F4xx_StdPeriph_Driver/src/stm32f4xx_i2c.c ****   if (NewState != DISABLE)
 934              		.loc 1 491 6 view .LVU231
 935 0002 21B1     		cbz	r1, .L46	@ tmp126,
 936              		.loc 1 494 5 is_stmt 1 view .LVU232
 937              	@ ../Libraries/STM32F4xx_StdPeriph_Driver/src/stm32f4xx_i2c.c:494:     I2Cx->CR1 |= I2C_CR1_ENGC;
 938              		.loc 1 494 15 is_stmt 0 view .LVU233
 939 0004 9BB2     		uxth	r3, r3	@ _1, I2Cx_8(D)->CR1
 940 0006 43F04003 		orr	r3, r3, #64	@ _2, _1,
 941 000a 0380     		strh	r3, [r0]	@ movhi	@ _2,* I2Cx
 942 000c 7047     		bx	lr	@
 943              	.L46:
 495:../Libraries/STM32F4xx_StdPeriph_Driver/src/stm32f4xx_i2c.c ****   }
 496:../Libraries/STM32F4xx_StdPeriph_Driver/src/stm32f4xx_i2c.c ****   else
 497:../Libraries/STM32F4xx_StdPeriph_Driver/src/stm32f4xx_i2c.c ****   {
 498:../Libraries/STM32F4xx_StdPeriph_Driver/src/stm32f4xx_i2c.c ****     /* Disable generall call */
 499:../Libraries/STM32F4xx_StdPeriph_Driver/src/stm32f4xx_i2c.c ****     I2Cx->CR1 &= (uint16_t)~((uint16_t)I2C_CR1_ENGC);
 944              		.loc 1 499 5 is_stmt 1 view .LVU234
 945              	@ ../Libraries/STM32F4xx_StdPeriph_Driver/src/stm32f4xx_i2c.c:499:     I2Cx->CR1 &= (uint16_t)~((ui
 946              		.loc 1 499 15 is_stmt 0 view .LVU235
 947 000e 23F04003 		bic	r3, r3, #64	@ _4, I2Cx_8(D)->CR1,
 948 0012 1B04     		lsls	r3, r3, #16	@ _4, _4,
 949 0014 1B0C     		lsrs	r3, r3, #16	@ _4, _4,
 950 0016 0380     		strh	r3, [r0]	@ movhi	@ _4,* I2Cx
 951              	@ ../Libraries/STM32F4xx_StdPeriph_Driver/src/stm32f4xx_i2c.c:501: }
 500:../Libraries/STM32F4xx_StdPeriph_Driver/src/stm32f4xx_i2c.c ****   }
 501:../Libraries/STM32F4xx_StdPeriph_Driver/src/stm32f4xx_i2c.c **** }
 952              		.loc 1 501 1 view .LVU236
 953 0018 7047     		bx	lr	@
 954              		.cfi_endproc
ARM GAS  C:\Users\admin\AppData\Local\Temp\ccm61GQJ.s 			page 28


 955              	.LFE120:
 956              		.size	I2C_GeneralCallCmd, .-I2C_GeneralCallCmd
 957 001a 00BF     		.section	.text.I2C_SoftwareResetCmd,"ax",%progbits
 958              		.align	1
 959              		.p2align 2,,3
 960              		.global	I2C_SoftwareResetCmd
 961              		.syntax unified
 962              		.thumb
 963              		.thumb_func
 964              		.type	I2C_SoftwareResetCmd, %function
 965              	I2C_SoftwareResetCmd:
 966              	.LVL53:
 967              	.LFB121:
 502:../Libraries/STM32F4xx_StdPeriph_Driver/src/stm32f4xx_i2c.c **** 
 503:../Libraries/STM32F4xx_StdPeriph_Driver/src/stm32f4xx_i2c.c **** /**
 504:../Libraries/STM32F4xx_StdPeriph_Driver/src/stm32f4xx_i2c.c ****   * @brief  Enables or disables the specified I2C software reset.
 505:../Libraries/STM32F4xx_StdPeriph_Driver/src/stm32f4xx_i2c.c ****   * @note   When software reset is enabled, the I2C IOs are released (this can
 506:../Libraries/STM32F4xx_StdPeriph_Driver/src/stm32f4xx_i2c.c ****   *         be useful to recover from bus errors).  
 507:../Libraries/STM32F4xx_StdPeriph_Driver/src/stm32f4xx_i2c.c ****   * @param  I2Cx: where x can be 1, 2 or 3 to select the I2C peripheral.
 508:../Libraries/STM32F4xx_StdPeriph_Driver/src/stm32f4xx_i2c.c ****   * @param  NewState: new state of the I2C software reset.
 509:../Libraries/STM32F4xx_StdPeriph_Driver/src/stm32f4xx_i2c.c ****   *          This parameter can be: ENABLE or DISABLE.
 510:../Libraries/STM32F4xx_StdPeriph_Driver/src/stm32f4xx_i2c.c ****   * @retval None
 511:../Libraries/STM32F4xx_StdPeriph_Driver/src/stm32f4xx_i2c.c ****   */
 512:../Libraries/STM32F4xx_StdPeriph_Driver/src/stm32f4xx_i2c.c **** void I2C_SoftwareResetCmd(I2C_TypeDef* I2Cx, FunctionalState NewState)
 513:../Libraries/STM32F4xx_StdPeriph_Driver/src/stm32f4xx_i2c.c **** {
 968              		.loc 1 513 1 is_stmt 1 view -0
 969              		.cfi_startproc
 970              		@ args = 0, pretend = 0, frame = 0
 971              		@ frame_needed = 0, uses_anonymous_args = 0
 972              		@ link register save eliminated.
 514:../Libraries/STM32F4xx_StdPeriph_Driver/src/stm32f4xx_i2c.c ****   /* Check the parameters */
 515:../Libraries/STM32F4xx_StdPeriph_Driver/src/stm32f4xx_i2c.c ****   assert_param(IS_I2C_ALL_PERIPH(I2Cx));
 973              		.loc 1 515 3 view .LVU238
 516:../Libraries/STM32F4xx_StdPeriph_Driver/src/stm32f4xx_i2c.c ****   assert_param(IS_FUNCTIONAL_STATE(NewState));
 974              		.loc 1 516 3 view .LVU239
 517:../Libraries/STM32F4xx_StdPeriph_Driver/src/stm32f4xx_i2c.c ****   if (NewState != DISABLE)
 975              		.loc 1 517 3 view .LVU240
 976              	@ ../Libraries/STM32F4xx_StdPeriph_Driver/src/stm32f4xx_i2c.c:520:     I2Cx->CR1 |= I2C_CR1_SWRST;
 518:../Libraries/STM32F4xx_StdPeriph_Driver/src/stm32f4xx_i2c.c ****   {
 519:../Libraries/STM32F4xx_StdPeriph_Driver/src/stm32f4xx_i2c.c ****     /* Peripheral under reset */
 520:../Libraries/STM32F4xx_StdPeriph_Driver/src/stm32f4xx_i2c.c ****     I2Cx->CR1 |= I2C_CR1_SWRST;
 977              		.loc 1 520 15 is_stmt 0 view .LVU241
 978 0000 0388     		ldrh	r3, [r0]	@,* I2Cx
 979              	@ ../Libraries/STM32F4xx_StdPeriph_Driver/src/stm32f4xx_i2c.c:517:   if (NewState != DISABLE)
 517:../Libraries/STM32F4xx_StdPeriph_Driver/src/stm32f4xx_i2c.c ****   if (NewState != DISABLE)
 980              		.loc 1 517 6 view .LVU242
 981 0002 31B1     		cbz	r1, .L49	@ tmp128,
 982              		.loc 1 520 5 is_stmt 1 view .LVU243
 983              	@ ../Libraries/STM32F4xx_StdPeriph_Driver/src/stm32f4xx_i2c.c:520:     I2Cx->CR1 |= I2C_CR1_SWRST;
 984              		.loc 1 520 15 is_stmt 0 view .LVU244
 985 0004 6FEA4343 		mvn	r3, r3, lsl #17	@ tmp120, I2Cx_8(D)->CR1,
 986 0008 6FEA5343 		mvn	r3, r3, lsr #17	@ tmp120, tmp120,
 987 000c 9BB2     		uxth	r3, r3	@ _2, tmp120
 988 000e 0380     		strh	r3, [r0]	@ movhi	@ _2,* I2Cx
 989 0010 7047     		bx	lr	@
 990              	.L49:
 521:../Libraries/STM32F4xx_StdPeriph_Driver/src/stm32f4xx_i2c.c ****   }
ARM GAS  C:\Users\admin\AppData\Local\Temp\ccm61GQJ.s 			page 29


 522:../Libraries/STM32F4xx_StdPeriph_Driver/src/stm32f4xx_i2c.c ****   else
 523:../Libraries/STM32F4xx_StdPeriph_Driver/src/stm32f4xx_i2c.c ****   {
 524:../Libraries/STM32F4xx_StdPeriph_Driver/src/stm32f4xx_i2c.c ****     /* Peripheral not under reset */
 525:../Libraries/STM32F4xx_StdPeriph_Driver/src/stm32f4xx_i2c.c ****     I2Cx->CR1 &= (uint16_t)~((uint16_t)I2C_CR1_SWRST);
 991              		.loc 1 525 5 is_stmt 1 view .LVU245
 992              	@ ../Libraries/STM32F4xx_StdPeriph_Driver/src/stm32f4xx_i2c.c:525:     I2Cx->CR1 &= (uint16_t)~((ui
 993              		.loc 1 525 15 is_stmt 0 view .LVU246
 994 0012 C3F30E03 		ubfx	r3, r3, #0, #15	@ _4, I2Cx_8(D)->CR1,,
 995 0016 0380     		strh	r3, [r0]	@ movhi	@ _4,* I2Cx
 996              	@ ../Libraries/STM32F4xx_StdPeriph_Driver/src/stm32f4xx_i2c.c:527: }
 526:../Libraries/STM32F4xx_StdPeriph_Driver/src/stm32f4xx_i2c.c ****   }
 527:../Libraries/STM32F4xx_StdPeriph_Driver/src/stm32f4xx_i2c.c **** }
 997              		.loc 1 527 1 view .LVU247
 998 0018 7047     		bx	lr	@
 999              		.cfi_endproc
 1000              	.LFE121:
 1001              		.size	I2C_SoftwareResetCmd, .-I2C_SoftwareResetCmd
 1002 001a 00BF     		.section	.text.I2C_StretchClockCmd,"ax",%progbits
 1003              		.align	1
 1004              		.p2align 2,,3
 1005              		.global	I2C_StretchClockCmd
 1006              		.syntax unified
 1007              		.thumb
 1008              		.thumb_func
 1009              		.type	I2C_StretchClockCmd, %function
 1010              	I2C_StretchClockCmd:
 1011              	.LVL54:
 1012              	.LFB122:
 528:../Libraries/STM32F4xx_StdPeriph_Driver/src/stm32f4xx_i2c.c **** 
 529:../Libraries/STM32F4xx_StdPeriph_Driver/src/stm32f4xx_i2c.c **** /**
 530:../Libraries/STM32F4xx_StdPeriph_Driver/src/stm32f4xx_i2c.c ****   * @brief  Enables or disables the specified I2C Clock stretching.
 531:../Libraries/STM32F4xx_StdPeriph_Driver/src/stm32f4xx_i2c.c ****   * @param  I2Cx: where x can be 1, 2 or 3 to select the I2C peripheral.
 532:../Libraries/STM32F4xx_StdPeriph_Driver/src/stm32f4xx_i2c.c ****   * @param  NewState: new state of the I2Cx Clock stretching.
 533:../Libraries/STM32F4xx_StdPeriph_Driver/src/stm32f4xx_i2c.c ****   *          This parameter can be: ENABLE or DISABLE.
 534:../Libraries/STM32F4xx_StdPeriph_Driver/src/stm32f4xx_i2c.c ****   * @retval None
 535:../Libraries/STM32F4xx_StdPeriph_Driver/src/stm32f4xx_i2c.c ****   */
 536:../Libraries/STM32F4xx_StdPeriph_Driver/src/stm32f4xx_i2c.c **** void I2C_StretchClockCmd(I2C_TypeDef* I2Cx, FunctionalState NewState)
 537:../Libraries/STM32F4xx_StdPeriph_Driver/src/stm32f4xx_i2c.c **** {
 1013              		.loc 1 537 1 is_stmt 1 view -0
 1014              		.cfi_startproc
 1015              		@ args = 0, pretend = 0, frame = 0
 1016              		@ frame_needed = 0, uses_anonymous_args = 0
 1017              		@ link register save eliminated.
 538:../Libraries/STM32F4xx_StdPeriph_Driver/src/stm32f4xx_i2c.c ****   /* Check the parameters */
 539:../Libraries/STM32F4xx_StdPeriph_Driver/src/stm32f4xx_i2c.c ****   assert_param(IS_I2C_ALL_PERIPH(I2Cx));
 1018              		.loc 1 539 3 view .LVU249
 540:../Libraries/STM32F4xx_StdPeriph_Driver/src/stm32f4xx_i2c.c ****   assert_param(IS_FUNCTIONAL_STATE(NewState));
 1019              		.loc 1 540 3 view .LVU250
 541:../Libraries/STM32F4xx_StdPeriph_Driver/src/stm32f4xx_i2c.c ****   if (NewState == DISABLE)
 1020              		.loc 1 541 3 view .LVU251
 1021              	@ ../Libraries/STM32F4xx_StdPeriph_Driver/src/stm32f4xx_i2c.c:544:     I2Cx->CR1 |= I2C_CR1_NOSTRET
 542:../Libraries/STM32F4xx_StdPeriph_Driver/src/stm32f4xx_i2c.c ****   {
 543:../Libraries/STM32F4xx_StdPeriph_Driver/src/stm32f4xx_i2c.c ****     /* Enable the selected I2C Clock stretching */
 544:../Libraries/STM32F4xx_StdPeriph_Driver/src/stm32f4xx_i2c.c ****     I2Cx->CR1 |= I2C_CR1_NOSTRETCH;
 1022              		.loc 1 544 15 is_stmt 0 view .LVU252
 1023 0000 0388     		ldrh	r3, [r0]	@,* I2Cx
 1024              	@ ../Libraries/STM32F4xx_StdPeriph_Driver/src/stm32f4xx_i2c.c:541:   if (NewState == DISABLE)
ARM GAS  C:\Users\admin\AppData\Local\Temp\ccm61GQJ.s 			page 30


 541:../Libraries/STM32F4xx_StdPeriph_Driver/src/stm32f4xx_i2c.c ****   if (NewState == DISABLE)
 1025              		.loc 1 541 6 view .LVU253
 1026 0002 21B9     		cbnz	r1, .L52	@ tmp126,
 1027              		.loc 1 544 5 is_stmt 1 view .LVU254
 1028              	@ ../Libraries/STM32F4xx_StdPeriph_Driver/src/stm32f4xx_i2c.c:544:     I2Cx->CR1 |= I2C_CR1_NOSTRET
 1029              		.loc 1 544 15 is_stmt 0 view .LVU255
 1030 0004 9BB2     		uxth	r3, r3	@ _1, I2Cx_8(D)->CR1
 1031 0006 43F08003 		orr	r3, r3, #128	@ _2, _1,
 1032 000a 0380     		strh	r3, [r0]	@ movhi	@ _2,* I2Cx
 1033 000c 7047     		bx	lr	@
 1034              	.L52:
 545:../Libraries/STM32F4xx_StdPeriph_Driver/src/stm32f4xx_i2c.c ****   }
 546:../Libraries/STM32F4xx_StdPeriph_Driver/src/stm32f4xx_i2c.c ****   else
 547:../Libraries/STM32F4xx_StdPeriph_Driver/src/stm32f4xx_i2c.c ****   {
 548:../Libraries/STM32F4xx_StdPeriph_Driver/src/stm32f4xx_i2c.c ****     /* Disable the selected I2C Clock stretching */
 549:../Libraries/STM32F4xx_StdPeriph_Driver/src/stm32f4xx_i2c.c ****     I2Cx->CR1 &= (uint16_t)~((uint16_t)I2C_CR1_NOSTRETCH);
 1035              		.loc 1 549 5 is_stmt 1 view .LVU256
 1036              	@ ../Libraries/STM32F4xx_StdPeriph_Driver/src/stm32f4xx_i2c.c:549:     I2Cx->CR1 &= (uint16_t)~((ui
 1037              		.loc 1 549 15 is_stmt 0 view .LVU257
 1038 000e 23F08003 		bic	r3, r3, #128	@ _4, I2Cx_8(D)->CR1,
 1039 0012 1B04     		lsls	r3, r3, #16	@ _4, _4,
 1040 0014 1B0C     		lsrs	r3, r3, #16	@ _4, _4,
 1041 0016 0380     		strh	r3, [r0]	@ movhi	@ _4,* I2Cx
 1042              	@ ../Libraries/STM32F4xx_StdPeriph_Driver/src/stm32f4xx_i2c.c:551: }
 550:../Libraries/STM32F4xx_StdPeriph_Driver/src/stm32f4xx_i2c.c ****   }
 551:../Libraries/STM32F4xx_StdPeriph_Driver/src/stm32f4xx_i2c.c **** }
 1043              		.loc 1 551 1 view .LVU258
 1044 0018 7047     		bx	lr	@
 1045              		.cfi_endproc
 1046              	.LFE122:
 1047              		.size	I2C_StretchClockCmd, .-I2C_StretchClockCmd
 1048 001a 00BF     		.section	.text.I2C_FastModeDutyCycleConfig,"ax",%progbits
 1049              		.align	1
 1050              		.p2align 2,,3
 1051              		.global	I2C_FastModeDutyCycleConfig
 1052              		.syntax unified
 1053              		.thumb
 1054              		.thumb_func
 1055              		.type	I2C_FastModeDutyCycleConfig, %function
 1056              	I2C_FastModeDutyCycleConfig:
 1057              	.LVL55:
 1058              	.LFB123:
 552:../Libraries/STM32F4xx_StdPeriph_Driver/src/stm32f4xx_i2c.c **** 
 553:../Libraries/STM32F4xx_StdPeriph_Driver/src/stm32f4xx_i2c.c **** /**
 554:../Libraries/STM32F4xx_StdPeriph_Driver/src/stm32f4xx_i2c.c ****   * @brief  Selects the specified I2C fast mode duty cycle.
 555:../Libraries/STM32F4xx_StdPeriph_Driver/src/stm32f4xx_i2c.c ****   * @param  I2Cx: where x can be 1, 2 or 3 to select the I2C peripheral.
 556:../Libraries/STM32F4xx_StdPeriph_Driver/src/stm32f4xx_i2c.c ****   * @param  I2C_DutyCycle: specifies the fast mode duty cycle.
 557:../Libraries/STM32F4xx_StdPeriph_Driver/src/stm32f4xx_i2c.c ****   *          This parameter can be one of the following values:
 558:../Libraries/STM32F4xx_StdPeriph_Driver/src/stm32f4xx_i2c.c ****   *            @arg I2C_DutyCycle_2: I2C fast mode Tlow/Thigh = 2
 559:../Libraries/STM32F4xx_StdPeriph_Driver/src/stm32f4xx_i2c.c ****   *            @arg I2C_DutyCycle_16_9: I2C fast mode Tlow/Thigh = 16/9
 560:../Libraries/STM32F4xx_StdPeriph_Driver/src/stm32f4xx_i2c.c ****   * @retval None
 561:../Libraries/STM32F4xx_StdPeriph_Driver/src/stm32f4xx_i2c.c ****   */
 562:../Libraries/STM32F4xx_StdPeriph_Driver/src/stm32f4xx_i2c.c **** void I2C_FastModeDutyCycleConfig(I2C_TypeDef* I2Cx, uint16_t I2C_DutyCycle)
 563:../Libraries/STM32F4xx_StdPeriph_Driver/src/stm32f4xx_i2c.c **** {
 1059              		.loc 1 563 1 is_stmt 1 view -0
 1060              		.cfi_startproc
 1061              		@ args = 0, pretend = 0, frame = 0
ARM GAS  C:\Users\admin\AppData\Local\Temp\ccm61GQJ.s 			page 31


 1062              		@ frame_needed = 0, uses_anonymous_args = 0
 1063              		@ link register save eliminated.
 564:../Libraries/STM32F4xx_StdPeriph_Driver/src/stm32f4xx_i2c.c ****   /* Check the parameters */
 565:../Libraries/STM32F4xx_StdPeriph_Driver/src/stm32f4xx_i2c.c ****   assert_param(IS_I2C_ALL_PERIPH(I2Cx));
 1064              		.loc 1 565 3 view .LVU260
 566:../Libraries/STM32F4xx_StdPeriph_Driver/src/stm32f4xx_i2c.c ****   assert_param(IS_I2C_DUTY_CYCLE(I2C_DutyCycle));
 1065              		.loc 1 566 3 view .LVU261
 567:../Libraries/STM32F4xx_StdPeriph_Driver/src/stm32f4xx_i2c.c ****   if (I2C_DutyCycle != I2C_DutyCycle_16_9)
 1066              		.loc 1 567 3 view .LVU262
 1067              	@ ../Libraries/STM32F4xx_StdPeriph_Driver/src/stm32f4xx_i2c.c:567:   if (I2C_DutyCycle != I2C_DutyC
 1068              		.loc 1 567 6 is_stmt 0 view .LVU263
 1069 0000 B1F5804F 		cmp	r1, #16384	@ tmp128,
 1070              	@ ../Libraries/STM32F4xx_StdPeriph_Driver/src/stm32f4xx_i2c.c:570:     I2Cx->CCR &= I2C_DutyCycle_2
 568:../Libraries/STM32F4xx_StdPeriph_Driver/src/stm32f4xx_i2c.c ****   {
 569:../Libraries/STM32F4xx_StdPeriph_Driver/src/stm32f4xx_i2c.c ****     /* I2C fast mode Tlow/Thigh=2 */
 570:../Libraries/STM32F4xx_StdPeriph_Driver/src/stm32f4xx_i2c.c ****     I2Cx->CCR &= I2C_DutyCycle_2;
 1071              		.loc 1 570 15 view .LVU264
 1072 0004 838B     		ldrh	r3, [r0, #28]	@,
 1073              	@ ../Libraries/STM32F4xx_StdPeriph_Driver/src/stm32f4xx_i2c.c:567:   if (I2C_DutyCycle != I2C_DutyC
 567:../Libraries/STM32F4xx_StdPeriph_Driver/src/stm32f4xx_i2c.c ****   if (I2C_DutyCycle != I2C_DutyCycle_16_9)
 1074              		.loc 1 567 6 view .LVU265
 1075 0006 05D0     		beq	.L55		@,
 1076              		.loc 1 570 5 is_stmt 1 view .LVU266
 1077              	@ ../Libraries/STM32F4xx_StdPeriph_Driver/src/stm32f4xx_i2c.c:570:     I2Cx->CCR &= I2C_DutyCycle_2
 1078              		.loc 1 570 15 is_stmt 0 view .LVU267
 1079 0008 23F48043 		bic	r3, r3, #16384	@ _2, I2Cx_8(D)->CCR,
 1080 000c 1B04     		lsls	r3, r3, #16	@ _2, _2,
 1081 000e 1B0C     		lsrs	r3, r3, #16	@ _2, _2,
 1082 0010 8383     		strh	r3, [r0, #28]	@ movhi	@ _2,
 1083 0012 7047     		bx	lr	@
 1084              	.L55:
 571:../Libraries/STM32F4xx_StdPeriph_Driver/src/stm32f4xx_i2c.c ****   }
 572:../Libraries/STM32F4xx_StdPeriph_Driver/src/stm32f4xx_i2c.c ****   else
 573:../Libraries/STM32F4xx_StdPeriph_Driver/src/stm32f4xx_i2c.c ****   {
 574:../Libraries/STM32F4xx_StdPeriph_Driver/src/stm32f4xx_i2c.c ****     /* I2C fast mode Tlow/Thigh=16/9 */
 575:../Libraries/STM32F4xx_StdPeriph_Driver/src/stm32f4xx_i2c.c ****     I2Cx->CCR |= I2C_DutyCycle_16_9;
 1085              		.loc 1 575 5 is_stmt 1 view .LVU268
 1086              	@ ../Libraries/STM32F4xx_StdPeriph_Driver/src/stm32f4xx_i2c.c:575:     I2Cx->CCR |= I2C_DutyCycle_1
 1087              		.loc 1 575 15 is_stmt 0 view .LVU269
 1088 0014 9BB2     		uxth	r3, r3	@ _3, I2Cx_8(D)->CCR
 1089 0016 43F48043 		orr	r3, r3, #16384	@ _4, _3,
 1090 001a 8383     		strh	r3, [r0, #28]	@ movhi	@ _4,
 1091              	@ ../Libraries/STM32F4xx_StdPeriph_Driver/src/stm32f4xx_i2c.c:577: }
 576:../Libraries/STM32F4xx_StdPeriph_Driver/src/stm32f4xx_i2c.c ****   }
 577:../Libraries/STM32F4xx_StdPeriph_Driver/src/stm32f4xx_i2c.c **** }
 1092              		.loc 1 577 1 view .LVU270
 1093 001c 7047     		bx	lr	@
 1094              		.cfi_endproc
 1095              	.LFE123:
 1096              		.size	I2C_FastModeDutyCycleConfig, .-I2C_FastModeDutyCycleConfig
 1097 001e 00BF     		.section	.text.I2C_NACKPositionConfig,"ax",%progbits
 1098              		.align	1
 1099              		.p2align 2,,3
 1100              		.global	I2C_NACKPositionConfig
 1101              		.syntax unified
 1102              		.thumb
 1103              		.thumb_func
ARM GAS  C:\Users\admin\AppData\Local\Temp\ccm61GQJ.s 			page 32


 1104              		.type	I2C_NACKPositionConfig, %function
 1105              	I2C_NACKPositionConfig:
 1106              	.LVL56:
 1107              	.LFB124:
 578:../Libraries/STM32F4xx_StdPeriph_Driver/src/stm32f4xx_i2c.c **** 
 579:../Libraries/STM32F4xx_StdPeriph_Driver/src/stm32f4xx_i2c.c **** /**
 580:../Libraries/STM32F4xx_StdPeriph_Driver/src/stm32f4xx_i2c.c ****   * @brief  Selects the specified I2C NACK position in master receiver mode.
 581:../Libraries/STM32F4xx_StdPeriph_Driver/src/stm32f4xx_i2c.c ****   * @note   This function is useful in I2C Master Receiver mode when the number
 582:../Libraries/STM32F4xx_StdPeriph_Driver/src/stm32f4xx_i2c.c ****   *         of data to be received is equal to 2. In this case, this function 
 583:../Libraries/STM32F4xx_StdPeriph_Driver/src/stm32f4xx_i2c.c ****   *         should be called (with parameter I2C_NACKPosition_Next) before data 
 584:../Libraries/STM32F4xx_StdPeriph_Driver/src/stm32f4xx_i2c.c ****   *         reception starts,as described in the 2-byte reception procedure 
 585:../Libraries/STM32F4xx_StdPeriph_Driver/src/stm32f4xx_i2c.c ****   *         recommended in Reference Manual in Section: Master receiver.                
 586:../Libraries/STM32F4xx_StdPeriph_Driver/src/stm32f4xx_i2c.c ****   * @param  I2Cx: where x can be 1, 2 or 3 to select the I2C peripheral.
 587:../Libraries/STM32F4xx_StdPeriph_Driver/src/stm32f4xx_i2c.c ****   * @param  I2C_NACKPosition: specifies the NACK position. 
 588:../Libraries/STM32F4xx_StdPeriph_Driver/src/stm32f4xx_i2c.c ****   *          This parameter can be one of the following values:
 589:../Libraries/STM32F4xx_StdPeriph_Driver/src/stm32f4xx_i2c.c ****   *            @arg I2C_NACKPosition_Next: indicates that the next byte will be the last
 590:../Libraries/STM32F4xx_StdPeriph_Driver/src/stm32f4xx_i2c.c ****   *                                        received byte.  
 591:../Libraries/STM32F4xx_StdPeriph_Driver/src/stm32f4xx_i2c.c ****   *            @arg I2C_NACKPosition_Current: indicates that current byte is the last 
 592:../Libraries/STM32F4xx_StdPeriph_Driver/src/stm32f4xx_i2c.c ****   *                                           received byte.
 593:../Libraries/STM32F4xx_StdPeriph_Driver/src/stm32f4xx_i2c.c ****   *            
 594:../Libraries/STM32F4xx_StdPeriph_Driver/src/stm32f4xx_i2c.c ****   * @note    This function configures the same bit (POS) as I2C_PECPositionConfig() 
 595:../Libraries/STM32F4xx_StdPeriph_Driver/src/stm32f4xx_i2c.c ****   *          but is intended to be used in I2C mode while I2C_PECPositionConfig() 
 596:../Libraries/STM32F4xx_StdPeriph_Driver/src/stm32f4xx_i2c.c ****   *          is intended to used in SMBUS mode. 
 597:../Libraries/STM32F4xx_StdPeriph_Driver/src/stm32f4xx_i2c.c ****   *            
 598:../Libraries/STM32F4xx_StdPeriph_Driver/src/stm32f4xx_i2c.c ****   * @retval None
 599:../Libraries/STM32F4xx_StdPeriph_Driver/src/stm32f4xx_i2c.c ****   */
 600:../Libraries/STM32F4xx_StdPeriph_Driver/src/stm32f4xx_i2c.c **** void I2C_NACKPositionConfig(I2C_TypeDef* I2Cx, uint16_t I2C_NACKPosition)
 601:../Libraries/STM32F4xx_StdPeriph_Driver/src/stm32f4xx_i2c.c **** {
 1108              		.loc 1 601 1 is_stmt 1 view -0
 1109              		.cfi_startproc
 1110              		@ args = 0, pretend = 0, frame = 0
 1111              		@ frame_needed = 0, uses_anonymous_args = 0
 1112              		@ link register save eliminated.
 602:../Libraries/STM32F4xx_StdPeriph_Driver/src/stm32f4xx_i2c.c ****   /* Check the parameters */
 603:../Libraries/STM32F4xx_StdPeriph_Driver/src/stm32f4xx_i2c.c ****   assert_param(IS_I2C_ALL_PERIPH(I2Cx));
 1113              		.loc 1 603 3 view .LVU272
 604:../Libraries/STM32F4xx_StdPeriph_Driver/src/stm32f4xx_i2c.c ****   assert_param(IS_I2C_NACK_POSITION(I2C_NACKPosition));
 1114              		.loc 1 604 3 view .LVU273
 605:../Libraries/STM32F4xx_StdPeriph_Driver/src/stm32f4xx_i2c.c ****   
 606:../Libraries/STM32F4xx_StdPeriph_Driver/src/stm32f4xx_i2c.c ****   /* Check the input parameter */
 607:../Libraries/STM32F4xx_StdPeriph_Driver/src/stm32f4xx_i2c.c ****   if (I2C_NACKPosition == I2C_NACKPosition_Next)
 1115              		.loc 1 607 3 view .LVU274
 1116              	@ ../Libraries/STM32F4xx_StdPeriph_Driver/src/stm32f4xx_i2c.c:607:   if (I2C_NACKPosition == I2C_NA
 1117              		.loc 1 607 6 is_stmt 0 view .LVU275
 1118 0000 B1F5006F 		cmp	r1, #2048	@ tmp126,
 1119              	@ ../Libraries/STM32F4xx_StdPeriph_Driver/src/stm32f4xx_i2c.c:610:     I2Cx->CR1 |= I2C_NACKPositio
 608:../Libraries/STM32F4xx_StdPeriph_Driver/src/stm32f4xx_i2c.c ****   {
 609:../Libraries/STM32F4xx_StdPeriph_Driver/src/stm32f4xx_i2c.c ****     /* Next byte in shift register is the last received byte */
 610:../Libraries/STM32F4xx_StdPeriph_Driver/src/stm32f4xx_i2c.c ****     I2Cx->CR1 |= I2C_NACKPosition_Next;
 1120              		.loc 1 610 15 view .LVU276
 1121 0004 0388     		ldrh	r3, [r0]	@,* I2Cx
 1122              	@ ../Libraries/STM32F4xx_StdPeriph_Driver/src/stm32f4xx_i2c.c:607:   if (I2C_NACKPosition == I2C_NA
 607:../Libraries/STM32F4xx_StdPeriph_Driver/src/stm32f4xx_i2c.c ****   {
 1123              		.loc 1 607 6 view .LVU277
 1124 0006 05D0     		beq	.L60		@,
 611:../Libraries/STM32F4xx_StdPeriph_Driver/src/stm32f4xx_i2c.c ****   }
 612:../Libraries/STM32F4xx_StdPeriph_Driver/src/stm32f4xx_i2c.c ****   else
ARM GAS  C:\Users\admin\AppData\Local\Temp\ccm61GQJ.s 			page 33


 613:../Libraries/STM32F4xx_StdPeriph_Driver/src/stm32f4xx_i2c.c ****   {
 614:../Libraries/STM32F4xx_StdPeriph_Driver/src/stm32f4xx_i2c.c ****     /* Current byte in shift register is the last received byte */
 615:../Libraries/STM32F4xx_StdPeriph_Driver/src/stm32f4xx_i2c.c ****     I2Cx->CR1 &= I2C_NACKPosition_Current;
 1125              		.loc 1 615 5 is_stmt 1 view .LVU278
 1126              	@ ../Libraries/STM32F4xx_StdPeriph_Driver/src/stm32f4xx_i2c.c:615:     I2Cx->CR1 &= I2C_NACKPositio
 1127              		.loc 1 615 15 is_stmt 0 view .LVU279
 1128 0008 23F40063 		bic	r3, r3, #2048	@ _4, I2Cx_8(D)->CR1,
 1129 000c 1B04     		lsls	r3, r3, #16	@ _4, _4,
 1130 000e 1B0C     		lsrs	r3, r3, #16	@ _4, _4,
 1131 0010 0380     		strh	r3, [r0]	@ movhi	@ _4,* I2Cx
 1132              	@ ../Libraries/STM32F4xx_StdPeriph_Driver/src/stm32f4xx_i2c.c:617: }
 616:../Libraries/STM32F4xx_StdPeriph_Driver/src/stm32f4xx_i2c.c ****   }
 617:../Libraries/STM32F4xx_StdPeriph_Driver/src/stm32f4xx_i2c.c **** }
 1133              		.loc 1 617 1 view .LVU280
 1134 0012 7047     		bx	lr	@
 1135              	.L60:
 610:../Libraries/STM32F4xx_StdPeriph_Driver/src/stm32f4xx_i2c.c ****   }
 1136              		.loc 1 610 5 is_stmt 1 view .LVU281
 1137              	@ ../Libraries/STM32F4xx_StdPeriph_Driver/src/stm32f4xx_i2c.c:610:     I2Cx->CR1 |= I2C_NACKPositio
 610:../Libraries/STM32F4xx_StdPeriph_Driver/src/stm32f4xx_i2c.c ****   }
 1138              		.loc 1 610 15 is_stmt 0 view .LVU282
 1139 0014 9BB2     		uxth	r3, r3	@ _1, I2Cx_8(D)->CR1
 1140 0016 43F40063 		orr	r3, r3, #2048	@ _2, _1,
 1141 001a 0380     		strh	r3, [r0]	@ movhi	@ _2,* I2Cx
 1142 001c 7047     		bx	lr	@
 1143              		.cfi_endproc
 1144              	.LFE124:
 1145              		.size	I2C_NACKPositionConfig, .-I2C_NACKPositionConfig
 1146 001e 00BF     		.section	.text.I2C_SMBusAlertConfig,"ax",%progbits
 1147              		.align	1
 1148              		.p2align 2,,3
 1149              		.global	I2C_SMBusAlertConfig
 1150              		.syntax unified
 1151              		.thumb
 1152              		.thumb_func
 1153              		.type	I2C_SMBusAlertConfig, %function
 1154              	I2C_SMBusAlertConfig:
 1155              	.LVL57:
 1156              	.LFB125:
 618:../Libraries/STM32F4xx_StdPeriph_Driver/src/stm32f4xx_i2c.c **** 
 619:../Libraries/STM32F4xx_StdPeriph_Driver/src/stm32f4xx_i2c.c **** /**
 620:../Libraries/STM32F4xx_StdPeriph_Driver/src/stm32f4xx_i2c.c ****   * @brief  Drives the SMBusAlert pin high or low for the specified I2C.
 621:../Libraries/STM32F4xx_StdPeriph_Driver/src/stm32f4xx_i2c.c ****   * @param  I2Cx: where x can be 1, 2 or 3 to select the I2C peripheral.
 622:../Libraries/STM32F4xx_StdPeriph_Driver/src/stm32f4xx_i2c.c ****   * @param  I2C_SMBusAlert: specifies SMBAlert pin level. 
 623:../Libraries/STM32F4xx_StdPeriph_Driver/src/stm32f4xx_i2c.c ****   *          This parameter can be one of the following values:
 624:../Libraries/STM32F4xx_StdPeriph_Driver/src/stm32f4xx_i2c.c ****   *            @arg I2C_SMBusAlert_Low: SMBAlert pin driven low
 625:../Libraries/STM32F4xx_StdPeriph_Driver/src/stm32f4xx_i2c.c ****   *            @arg I2C_SMBusAlert_High: SMBAlert pin driven high
 626:../Libraries/STM32F4xx_StdPeriph_Driver/src/stm32f4xx_i2c.c ****   * @retval None
 627:../Libraries/STM32F4xx_StdPeriph_Driver/src/stm32f4xx_i2c.c ****   */
 628:../Libraries/STM32F4xx_StdPeriph_Driver/src/stm32f4xx_i2c.c **** void I2C_SMBusAlertConfig(I2C_TypeDef* I2Cx, uint16_t I2C_SMBusAlert)
 629:../Libraries/STM32F4xx_StdPeriph_Driver/src/stm32f4xx_i2c.c **** {
 1157              		.loc 1 629 1 is_stmt 1 view -0
 1158              		.cfi_startproc
 1159              		@ args = 0, pretend = 0, frame = 0
 1160              		@ frame_needed = 0, uses_anonymous_args = 0
 1161              		@ link register save eliminated.
 630:../Libraries/STM32F4xx_StdPeriph_Driver/src/stm32f4xx_i2c.c ****   /* Check the parameters */
ARM GAS  C:\Users\admin\AppData\Local\Temp\ccm61GQJ.s 			page 34


 631:../Libraries/STM32F4xx_StdPeriph_Driver/src/stm32f4xx_i2c.c ****   assert_param(IS_I2C_ALL_PERIPH(I2Cx));
 1162              		.loc 1 631 3 view .LVU284
 632:../Libraries/STM32F4xx_StdPeriph_Driver/src/stm32f4xx_i2c.c ****   assert_param(IS_I2C_SMBUS_ALERT(I2C_SMBusAlert));
 1163              		.loc 1 632 3 view .LVU285
 633:../Libraries/STM32F4xx_StdPeriph_Driver/src/stm32f4xx_i2c.c ****   if (I2C_SMBusAlert == I2C_SMBusAlert_Low)
 1164              		.loc 1 633 3 view .LVU286
 1165              	@ ../Libraries/STM32F4xx_StdPeriph_Driver/src/stm32f4xx_i2c.c:633:   if (I2C_SMBusAlert == I2C_SMBu
 1166              		.loc 1 633 6 is_stmt 0 view .LVU287
 1167 0000 B1F5005F 		cmp	r1, #8192	@ tmp126,
 1168              	@ ../Libraries/STM32F4xx_StdPeriph_Driver/src/stm32f4xx_i2c.c:636:     I2Cx->CR1 |= I2C_SMBusAlert_
 634:../Libraries/STM32F4xx_StdPeriph_Driver/src/stm32f4xx_i2c.c ****   {
 635:../Libraries/STM32F4xx_StdPeriph_Driver/src/stm32f4xx_i2c.c ****     /* Drive the SMBusAlert pin Low */
 636:../Libraries/STM32F4xx_StdPeriph_Driver/src/stm32f4xx_i2c.c ****     I2Cx->CR1 |= I2C_SMBusAlert_Low;
 1169              		.loc 1 636 15 view .LVU288
 1170 0004 0388     		ldrh	r3, [r0]	@,* I2Cx
 1171              	@ ../Libraries/STM32F4xx_StdPeriph_Driver/src/stm32f4xx_i2c.c:633:   if (I2C_SMBusAlert == I2C_SMBu
 633:../Libraries/STM32F4xx_StdPeriph_Driver/src/stm32f4xx_i2c.c ****   if (I2C_SMBusAlert == I2C_SMBusAlert_Low)
 1172              		.loc 1 633 6 view .LVU289
 1173 0006 05D0     		beq	.L64		@,
 637:../Libraries/STM32F4xx_StdPeriph_Driver/src/stm32f4xx_i2c.c ****   }
 638:../Libraries/STM32F4xx_StdPeriph_Driver/src/stm32f4xx_i2c.c ****   else
 639:../Libraries/STM32F4xx_StdPeriph_Driver/src/stm32f4xx_i2c.c ****   {
 640:../Libraries/STM32F4xx_StdPeriph_Driver/src/stm32f4xx_i2c.c ****     /* Drive the SMBusAlert pin High  */
 641:../Libraries/STM32F4xx_StdPeriph_Driver/src/stm32f4xx_i2c.c ****     I2Cx->CR1 &= I2C_SMBusAlert_High;
 1174              		.loc 1 641 5 is_stmt 1 view .LVU290
 1175              	@ ../Libraries/STM32F4xx_StdPeriph_Driver/src/stm32f4xx_i2c.c:641:     I2Cx->CR1 &= I2C_SMBusAlert_
 1176              		.loc 1 641 15 is_stmt 0 view .LVU291
 1177 0008 23F40053 		bic	r3, r3, #8192	@ _4, I2Cx_8(D)->CR1,
 1178 000c 1B04     		lsls	r3, r3, #16	@ _4, _4,
 1179 000e 1B0C     		lsrs	r3, r3, #16	@ _4, _4,
 1180 0010 0380     		strh	r3, [r0]	@ movhi	@ _4,* I2Cx
 1181              	@ ../Libraries/STM32F4xx_StdPeriph_Driver/src/stm32f4xx_i2c.c:643: }
 642:../Libraries/STM32F4xx_StdPeriph_Driver/src/stm32f4xx_i2c.c ****   }
 643:../Libraries/STM32F4xx_StdPeriph_Driver/src/stm32f4xx_i2c.c **** }
 1182              		.loc 1 643 1 view .LVU292
 1183 0012 7047     		bx	lr	@
 1184              	.L64:
 636:../Libraries/STM32F4xx_StdPeriph_Driver/src/stm32f4xx_i2c.c ****   }
 1185              		.loc 1 636 5 is_stmt 1 view .LVU293
 1186              	@ ../Libraries/STM32F4xx_StdPeriph_Driver/src/stm32f4xx_i2c.c:636:     I2Cx->CR1 |= I2C_SMBusAlert_
 636:../Libraries/STM32F4xx_StdPeriph_Driver/src/stm32f4xx_i2c.c ****   }
 1187              		.loc 1 636 15 is_stmt 0 view .LVU294
 1188 0014 9BB2     		uxth	r3, r3	@ _1, I2Cx_8(D)->CR1
 1189 0016 43F40053 		orr	r3, r3, #8192	@ _2, _1,
 1190 001a 0380     		strh	r3, [r0]	@ movhi	@ _2,* I2Cx
 1191 001c 7047     		bx	lr	@
 1192              		.cfi_endproc
 1193              	.LFE125:
 1194              		.size	I2C_SMBusAlertConfig, .-I2C_SMBusAlertConfig
 1195 001e 00BF     		.section	.text.I2C_ARPCmd,"ax",%progbits
 1196              		.align	1
 1197              		.p2align 2,,3
 1198              		.global	I2C_ARPCmd
 1199              		.syntax unified
 1200              		.thumb
 1201              		.thumb_func
 1202              		.type	I2C_ARPCmd, %function
ARM GAS  C:\Users\admin\AppData\Local\Temp\ccm61GQJ.s 			page 35


 1203              	I2C_ARPCmd:
 1204              	.LVL58:
 1205              	.LFB126:
 644:../Libraries/STM32F4xx_StdPeriph_Driver/src/stm32f4xx_i2c.c **** 
 645:../Libraries/STM32F4xx_StdPeriph_Driver/src/stm32f4xx_i2c.c **** /**
 646:../Libraries/STM32F4xx_StdPeriph_Driver/src/stm32f4xx_i2c.c ****   * @brief  Enables or disables the specified I2C ARP.
 647:../Libraries/STM32F4xx_StdPeriph_Driver/src/stm32f4xx_i2c.c ****   * @param  I2Cx: where x can be 1, 2 or 3 to select the I2C peripheral.
 648:../Libraries/STM32F4xx_StdPeriph_Driver/src/stm32f4xx_i2c.c ****   * @param  NewState: new state of the I2Cx ARP. 
 649:../Libraries/STM32F4xx_StdPeriph_Driver/src/stm32f4xx_i2c.c ****   *          This parameter can be: ENABLE or DISABLE.
 650:../Libraries/STM32F4xx_StdPeriph_Driver/src/stm32f4xx_i2c.c ****   * @retval None
 651:../Libraries/STM32F4xx_StdPeriph_Driver/src/stm32f4xx_i2c.c ****   */
 652:../Libraries/STM32F4xx_StdPeriph_Driver/src/stm32f4xx_i2c.c **** void I2C_ARPCmd(I2C_TypeDef* I2Cx, FunctionalState NewState)
 653:../Libraries/STM32F4xx_StdPeriph_Driver/src/stm32f4xx_i2c.c **** {
 1206              		.loc 1 653 1 is_stmt 1 view -0
 1207              		.cfi_startproc
 1208              		@ args = 0, pretend = 0, frame = 0
 1209              		@ frame_needed = 0, uses_anonymous_args = 0
 1210              		@ link register save eliminated.
 654:../Libraries/STM32F4xx_StdPeriph_Driver/src/stm32f4xx_i2c.c ****   /* Check the parameters */
 655:../Libraries/STM32F4xx_StdPeriph_Driver/src/stm32f4xx_i2c.c ****   assert_param(IS_I2C_ALL_PERIPH(I2Cx));
 1211              		.loc 1 655 3 view .LVU296
 656:../Libraries/STM32F4xx_StdPeriph_Driver/src/stm32f4xx_i2c.c ****   assert_param(IS_FUNCTIONAL_STATE(NewState));
 1212              		.loc 1 656 3 view .LVU297
 657:../Libraries/STM32F4xx_StdPeriph_Driver/src/stm32f4xx_i2c.c ****   if (NewState != DISABLE)
 1213              		.loc 1 657 3 view .LVU298
 1214              	@ ../Libraries/STM32F4xx_StdPeriph_Driver/src/stm32f4xx_i2c.c:660:     I2Cx->CR1 |= I2C_CR1_ENARP;
 658:../Libraries/STM32F4xx_StdPeriph_Driver/src/stm32f4xx_i2c.c ****   {
 659:../Libraries/STM32F4xx_StdPeriph_Driver/src/stm32f4xx_i2c.c ****     /* Enable the selected I2C ARP */
 660:../Libraries/STM32F4xx_StdPeriph_Driver/src/stm32f4xx_i2c.c ****     I2Cx->CR1 |= I2C_CR1_ENARP;
 1215              		.loc 1 660 15 is_stmt 0 view .LVU299
 1216 0000 0388     		ldrh	r3, [r0]	@,* I2Cx
 1217              	@ ../Libraries/STM32F4xx_StdPeriph_Driver/src/stm32f4xx_i2c.c:657:   if (NewState != DISABLE)
 657:../Libraries/STM32F4xx_StdPeriph_Driver/src/stm32f4xx_i2c.c ****   if (NewState != DISABLE)
 1218              		.loc 1 657 6 view .LVU300
 1219 0002 21B1     		cbz	r1, .L66	@ tmp126,
 1220              		.loc 1 660 5 is_stmt 1 view .LVU301
 1221              	@ ../Libraries/STM32F4xx_StdPeriph_Driver/src/stm32f4xx_i2c.c:660:     I2Cx->CR1 |= I2C_CR1_ENARP;
 1222              		.loc 1 660 15 is_stmt 0 view .LVU302
 1223 0004 9BB2     		uxth	r3, r3	@ _1, I2Cx_8(D)->CR1
 1224 0006 43F01003 		orr	r3, r3, #16	@ _2, _1,
 1225 000a 0380     		strh	r3, [r0]	@ movhi	@ _2,* I2Cx
 1226 000c 7047     		bx	lr	@
 1227              	.L66:
 661:../Libraries/STM32F4xx_StdPeriph_Driver/src/stm32f4xx_i2c.c ****   }
 662:../Libraries/STM32F4xx_StdPeriph_Driver/src/stm32f4xx_i2c.c ****   else
 663:../Libraries/STM32F4xx_StdPeriph_Driver/src/stm32f4xx_i2c.c ****   {
 664:../Libraries/STM32F4xx_StdPeriph_Driver/src/stm32f4xx_i2c.c ****     /* Disable the selected I2C ARP */
 665:../Libraries/STM32F4xx_StdPeriph_Driver/src/stm32f4xx_i2c.c ****     I2Cx->CR1 &= (uint16_t)~((uint16_t)I2C_CR1_ENARP);
 1228              		.loc 1 665 5 is_stmt 1 view .LVU303
 1229              	@ ../Libraries/STM32F4xx_StdPeriph_Driver/src/stm32f4xx_i2c.c:665:     I2Cx->CR1 &= (uint16_t)~((ui
 1230              		.loc 1 665 15 is_stmt 0 view .LVU304
 1231 000e 23F01003 		bic	r3, r3, #16	@ _4, I2Cx_8(D)->CR1,
 1232 0012 1B04     		lsls	r3, r3, #16	@ _4, _4,
 1233 0014 1B0C     		lsrs	r3, r3, #16	@ _4, _4,
 1234 0016 0380     		strh	r3, [r0]	@ movhi	@ _4,* I2Cx
 1235              	@ ../Libraries/STM32F4xx_StdPeriph_Driver/src/stm32f4xx_i2c.c:667: }
 666:../Libraries/STM32F4xx_StdPeriph_Driver/src/stm32f4xx_i2c.c ****   }
ARM GAS  C:\Users\admin\AppData\Local\Temp\ccm61GQJ.s 			page 36


 667:../Libraries/STM32F4xx_StdPeriph_Driver/src/stm32f4xx_i2c.c **** }
 1236              		.loc 1 667 1 view .LVU305
 1237 0018 7047     		bx	lr	@
 1238              		.cfi_endproc
 1239              	.LFE126:
 1240              		.size	I2C_ARPCmd, .-I2C_ARPCmd
 1241 001a 00BF     		.section	.text.I2C_SendData,"ax",%progbits
 1242              		.align	1
 1243              		.p2align 2,,3
 1244              		.global	I2C_SendData
 1245              		.syntax unified
 1246              		.thumb
 1247              		.thumb_func
 1248              		.type	I2C_SendData, %function
 1249              	I2C_SendData:
 1250              	.LVL59:
 1251              	.LFB127:
 668:../Libraries/STM32F4xx_StdPeriph_Driver/src/stm32f4xx_i2c.c **** /**
 669:../Libraries/STM32F4xx_StdPeriph_Driver/src/stm32f4xx_i2c.c ****   * @}
 670:../Libraries/STM32F4xx_StdPeriph_Driver/src/stm32f4xx_i2c.c ****   */
 671:../Libraries/STM32F4xx_StdPeriph_Driver/src/stm32f4xx_i2c.c **** 
 672:../Libraries/STM32F4xx_StdPeriph_Driver/src/stm32f4xx_i2c.c **** /** @defgroup I2C_Group2 Data transfers functions
 673:../Libraries/STM32F4xx_StdPeriph_Driver/src/stm32f4xx_i2c.c ****  *  @brief   Data transfers functions 
 674:../Libraries/STM32F4xx_StdPeriph_Driver/src/stm32f4xx_i2c.c ****  *
 675:../Libraries/STM32F4xx_StdPeriph_Driver/src/stm32f4xx_i2c.c **** @verbatim   
 676:../Libraries/STM32F4xx_StdPeriph_Driver/src/stm32f4xx_i2c.c ****  ===============================================================================
 677:../Libraries/STM32F4xx_StdPeriph_Driver/src/stm32f4xx_i2c.c ****                         Data transfers functions
 678:../Libraries/STM32F4xx_StdPeriph_Driver/src/stm32f4xx_i2c.c ****  ===============================================================================  
 679:../Libraries/STM32F4xx_StdPeriph_Driver/src/stm32f4xx_i2c.c **** 
 680:../Libraries/STM32F4xx_StdPeriph_Driver/src/stm32f4xx_i2c.c **** @endverbatim
 681:../Libraries/STM32F4xx_StdPeriph_Driver/src/stm32f4xx_i2c.c ****   * @{
 682:../Libraries/STM32F4xx_StdPeriph_Driver/src/stm32f4xx_i2c.c ****   */
 683:../Libraries/STM32F4xx_StdPeriph_Driver/src/stm32f4xx_i2c.c **** 
 684:../Libraries/STM32F4xx_StdPeriph_Driver/src/stm32f4xx_i2c.c **** /**
 685:../Libraries/STM32F4xx_StdPeriph_Driver/src/stm32f4xx_i2c.c ****   * @brief  Sends a data byte through the I2Cx peripheral.
 686:../Libraries/STM32F4xx_StdPeriph_Driver/src/stm32f4xx_i2c.c ****   * @param  I2Cx: where x can be 1, 2 or 3 to select the I2C peripheral.
 687:../Libraries/STM32F4xx_StdPeriph_Driver/src/stm32f4xx_i2c.c ****   * @param  Data: Byte to be transmitted..
 688:../Libraries/STM32F4xx_StdPeriph_Driver/src/stm32f4xx_i2c.c ****   * @retval None
 689:../Libraries/STM32F4xx_StdPeriph_Driver/src/stm32f4xx_i2c.c ****   */
 690:../Libraries/STM32F4xx_StdPeriph_Driver/src/stm32f4xx_i2c.c **** void I2C_SendData(I2C_TypeDef* I2Cx, uint8_t Data)
 691:../Libraries/STM32F4xx_StdPeriph_Driver/src/stm32f4xx_i2c.c **** {
 1252              		.loc 1 691 1 is_stmt 1 view -0
 1253              		.cfi_startproc
 1254              		@ args = 0, pretend = 0, frame = 0
 1255              		@ frame_needed = 0, uses_anonymous_args = 0
 1256              		@ link register save eliminated.
 692:../Libraries/STM32F4xx_StdPeriph_Driver/src/stm32f4xx_i2c.c ****   /* Check the parameters */
 693:../Libraries/STM32F4xx_StdPeriph_Driver/src/stm32f4xx_i2c.c ****   assert_param(IS_I2C_ALL_PERIPH(I2Cx));
 1257              		.loc 1 693 3 view .LVU307
 694:../Libraries/STM32F4xx_StdPeriph_Driver/src/stm32f4xx_i2c.c ****   /* Write in the DR register the data to be sent */
 695:../Libraries/STM32F4xx_StdPeriph_Driver/src/stm32f4xx_i2c.c ****   I2Cx->DR = Data;
 1258              		.loc 1 695 3 view .LVU308
 1259              	@ ../Libraries/STM32F4xx_StdPeriph_Driver/src/stm32f4xx_i2c.c:695:   I2Cx->DR = Data;
 1260              		.loc 1 695 12 is_stmt 0 view .LVU309
 1261 0000 0182     		strh	r1, [r0, #16]	@ movhi	@ _1, I2Cx_4(D)->DR
 1262              	@ ../Libraries/STM32F4xx_StdPeriph_Driver/src/stm32f4xx_i2c.c:696: }
 696:../Libraries/STM32F4xx_StdPeriph_Driver/src/stm32f4xx_i2c.c **** }
ARM GAS  C:\Users\admin\AppData\Local\Temp\ccm61GQJ.s 			page 37


 1263              		.loc 1 696 1 view .LVU310
 1264 0002 7047     		bx	lr	@
 1265              		.cfi_endproc
 1266              	.LFE127:
 1267              		.size	I2C_SendData, .-I2C_SendData
 1268              		.section	.text.I2C_ReceiveData,"ax",%progbits
 1269              		.align	1
 1270              		.p2align 2,,3
 1271              		.global	I2C_ReceiveData
 1272              		.syntax unified
 1273              		.thumb
 1274              		.thumb_func
 1275              		.type	I2C_ReceiveData, %function
 1276              	I2C_ReceiveData:
 1277              	.LVL60:
 1278              	.LFB128:
 697:../Libraries/STM32F4xx_StdPeriph_Driver/src/stm32f4xx_i2c.c **** 
 698:../Libraries/STM32F4xx_StdPeriph_Driver/src/stm32f4xx_i2c.c **** /**
 699:../Libraries/STM32F4xx_StdPeriph_Driver/src/stm32f4xx_i2c.c ****   * @brief  Returns the most recent received data by the I2Cx peripheral.
 700:../Libraries/STM32F4xx_StdPeriph_Driver/src/stm32f4xx_i2c.c ****   * @param  I2Cx: where x can be 1, 2 or 3 to select the I2C peripheral.
 701:../Libraries/STM32F4xx_StdPeriph_Driver/src/stm32f4xx_i2c.c ****   * @retval The value of the received data.
 702:../Libraries/STM32F4xx_StdPeriph_Driver/src/stm32f4xx_i2c.c ****   */
 703:../Libraries/STM32F4xx_StdPeriph_Driver/src/stm32f4xx_i2c.c **** uint8_t I2C_ReceiveData(I2C_TypeDef* I2Cx)
 704:../Libraries/STM32F4xx_StdPeriph_Driver/src/stm32f4xx_i2c.c **** {
 1279              		.loc 1 704 1 is_stmt 1 view -0
 1280              		.cfi_startproc
 1281              		@ args = 0, pretend = 0, frame = 0
 1282              		@ frame_needed = 0, uses_anonymous_args = 0
 1283              		@ link register save eliminated.
 705:../Libraries/STM32F4xx_StdPeriph_Driver/src/stm32f4xx_i2c.c ****   /* Check the parameters */
 706:../Libraries/STM32F4xx_StdPeriph_Driver/src/stm32f4xx_i2c.c ****   assert_param(IS_I2C_ALL_PERIPH(I2Cx));
 1284              		.loc 1 706 3 view .LVU312
 707:../Libraries/STM32F4xx_StdPeriph_Driver/src/stm32f4xx_i2c.c ****   /* Return the data in the DR register */
 708:../Libraries/STM32F4xx_StdPeriph_Driver/src/stm32f4xx_i2c.c ****   return (uint8_t)I2Cx->DR;
 1285              		.loc 1 708 3 view .LVU313
 1286              	@ ../Libraries/STM32F4xx_StdPeriph_Driver/src/stm32f4xx_i2c.c:708:   return (uint8_t)I2Cx->DR;
 1287              		.loc 1 708 23 is_stmt 0 view .LVU314
 1288 0000 008A     		ldrh	r0, [r0, #16]	@, I2Cx_3(D)->DR
 1289              	.LVL61:
 1290              	@ ../Libraries/STM32F4xx_StdPeriph_Driver/src/stm32f4xx_i2c.c:709: }
 709:../Libraries/STM32F4xx_StdPeriph_Driver/src/stm32f4xx_i2c.c **** }
 1291              		.loc 1 709 1 view .LVU315
 1292 0002 C0B2     		uxtb	r0, r0	@, I2Cx_3(D)->DR
 1293 0004 7047     		bx	lr	@
 1294              		.cfi_endproc
 1295              	.LFE128:
 1296              		.size	I2C_ReceiveData, .-I2C_ReceiveData
 1297 0006 00BF     		.section	.text.I2C_TransmitPEC,"ax",%progbits
 1298              		.align	1
 1299              		.p2align 2,,3
 1300              		.global	I2C_TransmitPEC
 1301              		.syntax unified
 1302              		.thumb
 1303              		.thumb_func
 1304              		.type	I2C_TransmitPEC, %function
 1305              	I2C_TransmitPEC:
 1306              	.LVL62:
ARM GAS  C:\Users\admin\AppData\Local\Temp\ccm61GQJ.s 			page 38


 1307              	.LFB129:
 710:../Libraries/STM32F4xx_StdPeriph_Driver/src/stm32f4xx_i2c.c **** 
 711:../Libraries/STM32F4xx_StdPeriph_Driver/src/stm32f4xx_i2c.c **** /**
 712:../Libraries/STM32F4xx_StdPeriph_Driver/src/stm32f4xx_i2c.c ****   * @}
 713:../Libraries/STM32F4xx_StdPeriph_Driver/src/stm32f4xx_i2c.c ****   */
 714:../Libraries/STM32F4xx_StdPeriph_Driver/src/stm32f4xx_i2c.c **** 
 715:../Libraries/STM32F4xx_StdPeriph_Driver/src/stm32f4xx_i2c.c **** /** @defgroup I2C_Group3 PEC management functions
 716:../Libraries/STM32F4xx_StdPeriph_Driver/src/stm32f4xx_i2c.c ****  *  @brief   PEC management functions 
 717:../Libraries/STM32F4xx_StdPeriph_Driver/src/stm32f4xx_i2c.c ****  *
 718:../Libraries/STM32F4xx_StdPeriph_Driver/src/stm32f4xx_i2c.c **** @verbatim   
 719:../Libraries/STM32F4xx_StdPeriph_Driver/src/stm32f4xx_i2c.c ****  ===============================================================================
 720:../Libraries/STM32F4xx_StdPeriph_Driver/src/stm32f4xx_i2c.c ****                          PEC management functions
 721:../Libraries/STM32F4xx_StdPeriph_Driver/src/stm32f4xx_i2c.c ****  ===============================================================================  
 722:../Libraries/STM32F4xx_StdPeriph_Driver/src/stm32f4xx_i2c.c **** 
 723:../Libraries/STM32F4xx_StdPeriph_Driver/src/stm32f4xx_i2c.c **** @endverbatim
 724:../Libraries/STM32F4xx_StdPeriph_Driver/src/stm32f4xx_i2c.c ****   * @{
 725:../Libraries/STM32F4xx_StdPeriph_Driver/src/stm32f4xx_i2c.c ****   */
 726:../Libraries/STM32F4xx_StdPeriph_Driver/src/stm32f4xx_i2c.c **** 
 727:../Libraries/STM32F4xx_StdPeriph_Driver/src/stm32f4xx_i2c.c **** /**
 728:../Libraries/STM32F4xx_StdPeriph_Driver/src/stm32f4xx_i2c.c ****   * @brief  Enables or disables the specified I2C PEC transfer.
 729:../Libraries/STM32F4xx_StdPeriph_Driver/src/stm32f4xx_i2c.c ****   * @param  I2Cx: where x can be 1, 2 or 3 to select the I2C peripheral.
 730:../Libraries/STM32F4xx_StdPeriph_Driver/src/stm32f4xx_i2c.c ****   * @param  NewState: new state of the I2C PEC transmission.
 731:../Libraries/STM32F4xx_StdPeriph_Driver/src/stm32f4xx_i2c.c ****   *          This parameter can be: ENABLE or DISABLE.
 732:../Libraries/STM32F4xx_StdPeriph_Driver/src/stm32f4xx_i2c.c ****   * @retval None
 733:../Libraries/STM32F4xx_StdPeriph_Driver/src/stm32f4xx_i2c.c ****   */
 734:../Libraries/STM32F4xx_StdPeriph_Driver/src/stm32f4xx_i2c.c **** void I2C_TransmitPEC(I2C_TypeDef* I2Cx, FunctionalState NewState)
 735:../Libraries/STM32F4xx_StdPeriph_Driver/src/stm32f4xx_i2c.c **** {
 1308              		.loc 1 735 1 is_stmt 1 view -0
 1309              		.cfi_startproc
 1310              		@ args = 0, pretend = 0, frame = 0
 1311              		@ frame_needed = 0, uses_anonymous_args = 0
 1312              		@ link register save eliminated.
 736:../Libraries/STM32F4xx_StdPeriph_Driver/src/stm32f4xx_i2c.c ****   /* Check the parameters */
 737:../Libraries/STM32F4xx_StdPeriph_Driver/src/stm32f4xx_i2c.c ****   assert_param(IS_I2C_ALL_PERIPH(I2Cx));
 1313              		.loc 1 737 3 view .LVU317
 738:../Libraries/STM32F4xx_StdPeriph_Driver/src/stm32f4xx_i2c.c ****   assert_param(IS_FUNCTIONAL_STATE(NewState));
 1314              		.loc 1 738 3 view .LVU318
 739:../Libraries/STM32F4xx_StdPeriph_Driver/src/stm32f4xx_i2c.c ****   if (NewState != DISABLE)
 1315              		.loc 1 739 3 view .LVU319
 1316              	@ ../Libraries/STM32F4xx_StdPeriph_Driver/src/stm32f4xx_i2c.c:742:     I2Cx->CR1 |= I2C_CR1_PEC;
 740:../Libraries/STM32F4xx_StdPeriph_Driver/src/stm32f4xx_i2c.c ****   {
 741:../Libraries/STM32F4xx_StdPeriph_Driver/src/stm32f4xx_i2c.c ****     /* Enable the selected I2C PEC transmission */
 742:../Libraries/STM32F4xx_StdPeriph_Driver/src/stm32f4xx_i2c.c ****     I2Cx->CR1 |= I2C_CR1_PEC;
 1317              		.loc 1 742 15 is_stmt 0 view .LVU320
 1318 0000 0388     		ldrh	r3, [r0]	@,* I2Cx
 1319              	@ ../Libraries/STM32F4xx_StdPeriph_Driver/src/stm32f4xx_i2c.c:739:   if (NewState != DISABLE)
 739:../Libraries/STM32F4xx_StdPeriph_Driver/src/stm32f4xx_i2c.c ****   if (NewState != DISABLE)
 1320              		.loc 1 739 6 view .LVU321
 1321 0002 21B1     		cbz	r1, .L71	@ tmp126,
 1322              		.loc 1 742 5 is_stmt 1 view .LVU322
 1323              	@ ../Libraries/STM32F4xx_StdPeriph_Driver/src/stm32f4xx_i2c.c:742:     I2Cx->CR1 |= I2C_CR1_PEC;
 1324              		.loc 1 742 15 is_stmt 0 view .LVU323
 1325 0004 9BB2     		uxth	r3, r3	@ _1, I2Cx_8(D)->CR1
 1326 0006 43F48053 		orr	r3, r3, #4096	@ _2, _1,
 1327 000a 0380     		strh	r3, [r0]	@ movhi	@ _2,* I2Cx
 1328 000c 7047     		bx	lr	@
 1329              	.L71:
ARM GAS  C:\Users\admin\AppData\Local\Temp\ccm61GQJ.s 			page 39


 743:../Libraries/STM32F4xx_StdPeriph_Driver/src/stm32f4xx_i2c.c ****   }
 744:../Libraries/STM32F4xx_StdPeriph_Driver/src/stm32f4xx_i2c.c ****   else
 745:../Libraries/STM32F4xx_StdPeriph_Driver/src/stm32f4xx_i2c.c ****   {
 746:../Libraries/STM32F4xx_StdPeriph_Driver/src/stm32f4xx_i2c.c ****     /* Disable the selected I2C PEC transmission */
 747:../Libraries/STM32F4xx_StdPeriph_Driver/src/stm32f4xx_i2c.c ****     I2Cx->CR1 &= (uint16_t)~((uint16_t)I2C_CR1_PEC);
 1330              		.loc 1 747 5 is_stmt 1 view .LVU324
 1331              	@ ../Libraries/STM32F4xx_StdPeriph_Driver/src/stm32f4xx_i2c.c:747:     I2Cx->CR1 &= (uint16_t)~((ui
 1332              		.loc 1 747 15 is_stmt 0 view .LVU325
 1333 000e 23F48053 		bic	r3, r3, #4096	@ _4, I2Cx_8(D)->CR1,
 1334 0012 1B04     		lsls	r3, r3, #16	@ _4, _4,
 1335 0014 1B0C     		lsrs	r3, r3, #16	@ _4, _4,
 1336 0016 0380     		strh	r3, [r0]	@ movhi	@ _4,* I2Cx
 1337              	@ ../Libraries/STM32F4xx_StdPeriph_Driver/src/stm32f4xx_i2c.c:749: }
 748:../Libraries/STM32F4xx_StdPeriph_Driver/src/stm32f4xx_i2c.c ****   }
 749:../Libraries/STM32F4xx_StdPeriph_Driver/src/stm32f4xx_i2c.c **** }
 1338              		.loc 1 749 1 view .LVU326
 1339 0018 7047     		bx	lr	@
 1340              		.cfi_endproc
 1341              	.LFE129:
 1342              		.size	I2C_TransmitPEC, .-I2C_TransmitPEC
 1343 001a 00BF     		.section	.text.I2C_PECPositionConfig,"ax",%progbits
 1344              		.align	1
 1345              		.p2align 2,,3
 1346              		.global	I2C_PECPositionConfig
 1347              		.syntax unified
 1348              		.thumb
 1349              		.thumb_func
 1350              		.type	I2C_PECPositionConfig, %function
 1351              	I2C_PECPositionConfig:
 1352              	.LFB144:
 1353              		.cfi_startproc
 1354              		@ args = 0, pretend = 0, frame = 0
 1355              		@ frame_needed = 0, uses_anonymous_args = 0
 1356              		@ link register save eliminated.
 1357 0000 B1F5006F 		cmp	r1, #2048	@ tmp126,
 1358 0004 0388     		ldrh	r3, [r0]	@,* I2Cx
 1359 0006 05D0     		beq	.L76		@,
 1360 0008 23F40063 		bic	r3, r3, #2048	@ _8, I2Cx_2(D)->CR1,
 1361 000c 1B04     		lsls	r3, r3, #16	@ _8, _8,
 1362 000e 1B0C     		lsrs	r3, r3, #16	@ _8, _8,
 1363 0010 0380     		strh	r3, [r0]	@ movhi	@ _8,* I2Cx
 1364 0012 7047     		bx	lr	@
 1365              	.L76:
 1366 0014 9BB2     		uxth	r3, r3	@ _5, I2Cx_2(D)->CR1
 1367 0016 43F40063 		orr	r3, r3, #2048	@ _6, _5,
 1368 001a 0380     		strh	r3, [r0]	@ movhi	@ _6,* I2Cx
 1369 001c 7047     		bx	lr	@
 1370              		.cfi_endproc
 1371              	.LFE144:
 1372              		.size	I2C_PECPositionConfig, .-I2C_PECPositionConfig
 1373 001e 00BF     		.section	.text.I2C_CalculatePEC,"ax",%progbits
 1374              		.align	1
 1375              		.p2align 2,,3
 1376              		.global	I2C_CalculatePEC
 1377              		.syntax unified
 1378              		.thumb
 1379              		.thumb_func
ARM GAS  C:\Users\admin\AppData\Local\Temp\ccm61GQJ.s 			page 40


 1380              		.type	I2C_CalculatePEC, %function
 1381              	I2C_CalculatePEC:
 1382              	.LVL63:
 1383              	.LFB131:
 750:../Libraries/STM32F4xx_StdPeriph_Driver/src/stm32f4xx_i2c.c **** 
 751:../Libraries/STM32F4xx_StdPeriph_Driver/src/stm32f4xx_i2c.c **** /**
 752:../Libraries/STM32F4xx_StdPeriph_Driver/src/stm32f4xx_i2c.c ****   * @brief  Selects the specified I2C PEC position.
 753:../Libraries/STM32F4xx_StdPeriph_Driver/src/stm32f4xx_i2c.c ****   * @param  I2Cx: where x can be 1, 2 or 3 to select the I2C peripheral.
 754:../Libraries/STM32F4xx_StdPeriph_Driver/src/stm32f4xx_i2c.c ****   * @param  I2C_PECPosition: specifies the PEC position. 
 755:../Libraries/STM32F4xx_StdPeriph_Driver/src/stm32f4xx_i2c.c ****   *          This parameter can be one of the following values:
 756:../Libraries/STM32F4xx_StdPeriph_Driver/src/stm32f4xx_i2c.c ****   *            @arg I2C_PECPosition_Next: indicates that the next byte is PEC
 757:../Libraries/STM32F4xx_StdPeriph_Driver/src/stm32f4xx_i2c.c ****   *            @arg I2C_PECPosition_Current: indicates that current byte is PEC
 758:../Libraries/STM32F4xx_StdPeriph_Driver/src/stm32f4xx_i2c.c ****   *       
 759:../Libraries/STM32F4xx_StdPeriph_Driver/src/stm32f4xx_i2c.c ****   * @note    This function configures the same bit (POS) as I2C_NACKPositionConfig()
 760:../Libraries/STM32F4xx_StdPeriph_Driver/src/stm32f4xx_i2c.c ****   *          but is intended to be used in SMBUS mode while I2C_NACKPositionConfig() 
 761:../Libraries/STM32F4xx_StdPeriph_Driver/src/stm32f4xx_i2c.c ****   *          is intended to used in I2C mode.
 762:../Libraries/STM32F4xx_StdPeriph_Driver/src/stm32f4xx_i2c.c ****   *                
 763:../Libraries/STM32F4xx_StdPeriph_Driver/src/stm32f4xx_i2c.c ****   * @retval None
 764:../Libraries/STM32F4xx_StdPeriph_Driver/src/stm32f4xx_i2c.c ****   */
 765:../Libraries/STM32F4xx_StdPeriph_Driver/src/stm32f4xx_i2c.c **** void I2C_PECPositionConfig(I2C_TypeDef* I2Cx, uint16_t I2C_PECPosition)
 766:../Libraries/STM32F4xx_StdPeriph_Driver/src/stm32f4xx_i2c.c **** {
 767:../Libraries/STM32F4xx_StdPeriph_Driver/src/stm32f4xx_i2c.c ****   /* Check the parameters */
 768:../Libraries/STM32F4xx_StdPeriph_Driver/src/stm32f4xx_i2c.c ****   assert_param(IS_I2C_ALL_PERIPH(I2Cx));
 769:../Libraries/STM32F4xx_StdPeriph_Driver/src/stm32f4xx_i2c.c ****   assert_param(IS_I2C_PEC_POSITION(I2C_PECPosition));
 770:../Libraries/STM32F4xx_StdPeriph_Driver/src/stm32f4xx_i2c.c ****   if (I2C_PECPosition == I2C_PECPosition_Next)
 771:../Libraries/STM32F4xx_StdPeriph_Driver/src/stm32f4xx_i2c.c ****   {
 772:../Libraries/STM32F4xx_StdPeriph_Driver/src/stm32f4xx_i2c.c ****     /* Next byte in shift register is PEC */
 773:../Libraries/STM32F4xx_StdPeriph_Driver/src/stm32f4xx_i2c.c ****     I2Cx->CR1 |= I2C_PECPosition_Next;
 774:../Libraries/STM32F4xx_StdPeriph_Driver/src/stm32f4xx_i2c.c ****   }
 775:../Libraries/STM32F4xx_StdPeriph_Driver/src/stm32f4xx_i2c.c ****   else
 776:../Libraries/STM32F4xx_StdPeriph_Driver/src/stm32f4xx_i2c.c ****   {
 777:../Libraries/STM32F4xx_StdPeriph_Driver/src/stm32f4xx_i2c.c ****     /* Current byte in shift register is PEC */
 778:../Libraries/STM32F4xx_StdPeriph_Driver/src/stm32f4xx_i2c.c ****     I2Cx->CR1 &= I2C_PECPosition_Current;
 779:../Libraries/STM32F4xx_StdPeriph_Driver/src/stm32f4xx_i2c.c ****   }
 780:../Libraries/STM32F4xx_StdPeriph_Driver/src/stm32f4xx_i2c.c **** }
 781:../Libraries/STM32F4xx_StdPeriph_Driver/src/stm32f4xx_i2c.c **** 
 782:../Libraries/STM32F4xx_StdPeriph_Driver/src/stm32f4xx_i2c.c **** /**
 783:../Libraries/STM32F4xx_StdPeriph_Driver/src/stm32f4xx_i2c.c ****   * @brief  Enables or disables the PEC value calculation of the transferred bytes.
 784:../Libraries/STM32F4xx_StdPeriph_Driver/src/stm32f4xx_i2c.c ****   * @param  I2Cx: where x can be 1, 2 or 3 to select the I2C peripheral.
 785:../Libraries/STM32F4xx_StdPeriph_Driver/src/stm32f4xx_i2c.c ****   * @param  NewState: new state of the I2Cx PEC value calculation.
 786:../Libraries/STM32F4xx_StdPeriph_Driver/src/stm32f4xx_i2c.c ****   *          This parameter can be: ENABLE or DISABLE.
 787:../Libraries/STM32F4xx_StdPeriph_Driver/src/stm32f4xx_i2c.c ****   * @retval None
 788:../Libraries/STM32F4xx_StdPeriph_Driver/src/stm32f4xx_i2c.c ****   */
 789:../Libraries/STM32F4xx_StdPeriph_Driver/src/stm32f4xx_i2c.c **** void I2C_CalculatePEC(I2C_TypeDef* I2Cx, FunctionalState NewState)
 790:../Libraries/STM32F4xx_StdPeriph_Driver/src/stm32f4xx_i2c.c **** {
 1384              		.loc 1 790 1 is_stmt 1 view -0
 1385              		.cfi_startproc
 1386              		@ args = 0, pretend = 0, frame = 0
 1387              		@ frame_needed = 0, uses_anonymous_args = 0
 1388              		@ link register save eliminated.
 791:../Libraries/STM32F4xx_StdPeriph_Driver/src/stm32f4xx_i2c.c ****   /* Check the parameters */
 792:../Libraries/STM32F4xx_StdPeriph_Driver/src/stm32f4xx_i2c.c ****   assert_param(IS_I2C_ALL_PERIPH(I2Cx));
 1389              		.loc 1 792 3 view .LVU328
 793:../Libraries/STM32F4xx_StdPeriph_Driver/src/stm32f4xx_i2c.c ****   assert_param(IS_FUNCTIONAL_STATE(NewState));
 1390              		.loc 1 793 3 view .LVU329
 794:../Libraries/STM32F4xx_StdPeriph_Driver/src/stm32f4xx_i2c.c ****   if (NewState != DISABLE)
 1391              		.loc 1 794 3 view .LVU330
ARM GAS  C:\Users\admin\AppData\Local\Temp\ccm61GQJ.s 			page 41


 1392              	@ ../Libraries/STM32F4xx_StdPeriph_Driver/src/stm32f4xx_i2c.c:797:     I2Cx->CR1 |= I2C_CR1_ENPEC;
 795:../Libraries/STM32F4xx_StdPeriph_Driver/src/stm32f4xx_i2c.c ****   {
 796:../Libraries/STM32F4xx_StdPeriph_Driver/src/stm32f4xx_i2c.c ****     /* Enable the selected I2C PEC calculation */
 797:../Libraries/STM32F4xx_StdPeriph_Driver/src/stm32f4xx_i2c.c ****     I2Cx->CR1 |= I2C_CR1_ENPEC;
 1393              		.loc 1 797 15 is_stmt 0 view .LVU331
 1394 0000 0388     		ldrh	r3, [r0]	@,* I2Cx
 1395              	@ ../Libraries/STM32F4xx_StdPeriph_Driver/src/stm32f4xx_i2c.c:794:   if (NewState != DISABLE)
 794:../Libraries/STM32F4xx_StdPeriph_Driver/src/stm32f4xx_i2c.c ****   if (NewState != DISABLE)
 1396              		.loc 1 794 6 view .LVU332
 1397 0002 21B1     		cbz	r1, .L78	@ tmp126,
 1398              		.loc 1 797 5 is_stmt 1 view .LVU333
 1399              	@ ../Libraries/STM32F4xx_StdPeriph_Driver/src/stm32f4xx_i2c.c:797:     I2Cx->CR1 |= I2C_CR1_ENPEC;
 1400              		.loc 1 797 15 is_stmt 0 view .LVU334
 1401 0004 9BB2     		uxth	r3, r3	@ _1, I2Cx_8(D)->CR1
 1402 0006 43F02003 		orr	r3, r3, #32	@ _2, _1,
 1403 000a 0380     		strh	r3, [r0]	@ movhi	@ _2,* I2Cx
 1404 000c 7047     		bx	lr	@
 1405              	.L78:
 798:../Libraries/STM32F4xx_StdPeriph_Driver/src/stm32f4xx_i2c.c ****   }
 799:../Libraries/STM32F4xx_StdPeriph_Driver/src/stm32f4xx_i2c.c ****   else
 800:../Libraries/STM32F4xx_StdPeriph_Driver/src/stm32f4xx_i2c.c ****   {
 801:../Libraries/STM32F4xx_StdPeriph_Driver/src/stm32f4xx_i2c.c ****     /* Disable the selected I2C PEC calculation */
 802:../Libraries/STM32F4xx_StdPeriph_Driver/src/stm32f4xx_i2c.c ****     I2Cx->CR1 &= (uint16_t)~((uint16_t)I2C_CR1_ENPEC);
 1406              		.loc 1 802 5 is_stmt 1 view .LVU335
 1407              	@ ../Libraries/STM32F4xx_StdPeriph_Driver/src/stm32f4xx_i2c.c:802:     I2Cx->CR1 &= (uint16_t)~((ui
 1408              		.loc 1 802 15 is_stmt 0 view .LVU336
 1409 000e 23F02003 		bic	r3, r3, #32	@ _4, I2Cx_8(D)->CR1,
 1410 0012 1B04     		lsls	r3, r3, #16	@ _4, _4,
 1411 0014 1B0C     		lsrs	r3, r3, #16	@ _4, _4,
 1412 0016 0380     		strh	r3, [r0]	@ movhi	@ _4,* I2Cx
 1413              	@ ../Libraries/STM32F4xx_StdPeriph_Driver/src/stm32f4xx_i2c.c:804: }
 803:../Libraries/STM32F4xx_StdPeriph_Driver/src/stm32f4xx_i2c.c ****   }
 804:../Libraries/STM32F4xx_StdPeriph_Driver/src/stm32f4xx_i2c.c **** }
 1414              		.loc 1 804 1 view .LVU337
 1415 0018 7047     		bx	lr	@
 1416              		.cfi_endproc
 1417              	.LFE131:
 1418              		.size	I2C_CalculatePEC, .-I2C_CalculatePEC
 1419 001a 00BF     		.section	.text.I2C_GetPEC,"ax",%progbits
 1420              		.align	1
 1421              		.p2align 2,,3
 1422              		.global	I2C_GetPEC
 1423              		.syntax unified
 1424              		.thumb
 1425              		.thumb_func
 1426              		.type	I2C_GetPEC, %function
 1427              	I2C_GetPEC:
 1428              	.LVL64:
 1429              	.LFB132:
 805:../Libraries/STM32F4xx_StdPeriph_Driver/src/stm32f4xx_i2c.c **** 
 806:../Libraries/STM32F4xx_StdPeriph_Driver/src/stm32f4xx_i2c.c **** /**
 807:../Libraries/STM32F4xx_StdPeriph_Driver/src/stm32f4xx_i2c.c ****   * @brief  Returns the PEC value for the specified I2C.
 808:../Libraries/STM32F4xx_StdPeriph_Driver/src/stm32f4xx_i2c.c ****   * @param  I2Cx: where x can be 1, 2 or 3 to select the I2C peripheral.
 809:../Libraries/STM32F4xx_StdPeriph_Driver/src/stm32f4xx_i2c.c ****   * @retval The PEC value.
 810:../Libraries/STM32F4xx_StdPeriph_Driver/src/stm32f4xx_i2c.c ****   */
 811:../Libraries/STM32F4xx_StdPeriph_Driver/src/stm32f4xx_i2c.c **** uint8_t I2C_GetPEC(I2C_TypeDef* I2Cx)
 812:../Libraries/STM32F4xx_StdPeriph_Driver/src/stm32f4xx_i2c.c **** {
ARM GAS  C:\Users\admin\AppData\Local\Temp\ccm61GQJ.s 			page 42


 1430              		.loc 1 812 1 is_stmt 1 view -0
 1431              		.cfi_startproc
 1432              		@ args = 0, pretend = 0, frame = 0
 1433              		@ frame_needed = 0, uses_anonymous_args = 0
 1434              		@ link register save eliminated.
 813:../Libraries/STM32F4xx_StdPeriph_Driver/src/stm32f4xx_i2c.c ****   /* Check the parameters */
 814:../Libraries/STM32F4xx_StdPeriph_Driver/src/stm32f4xx_i2c.c ****   assert_param(IS_I2C_ALL_PERIPH(I2Cx));
 1435              		.loc 1 814 3 view .LVU339
 815:../Libraries/STM32F4xx_StdPeriph_Driver/src/stm32f4xx_i2c.c ****   /* Return the selected I2C PEC value */
 816:../Libraries/STM32F4xx_StdPeriph_Driver/src/stm32f4xx_i2c.c ****   return ((I2Cx->SR2) >> 8);
 1436              		.loc 1 816 3 view .LVU340
 1437              	@ ../Libraries/STM32F4xx_StdPeriph_Driver/src/stm32f4xx_i2c.c:816:   return ((I2Cx->SR2) >> 8);
 1438              		.loc 1 816 16 is_stmt 0 view .LVU341
 1439 0000 008B     		ldrh	r0, [r0, #24]	@, I2Cx_4(D)->SR2
 1440              	.LVL65:
 1441              	@ ../Libraries/STM32F4xx_StdPeriph_Driver/src/stm32f4xx_i2c.c:817: }
 817:../Libraries/STM32F4xx_StdPeriph_Driver/src/stm32f4xx_i2c.c **** }
 1442              		.loc 1 817 1 view .LVU342
 1443 0002 C0F30720 		ubfx	r0, r0, #8, #8	@, I2Cx_4(D)->SR2,,
 1444 0006 7047     		bx	lr	@
 1445              		.cfi_endproc
 1446              	.LFE132:
 1447              		.size	I2C_GetPEC, .-I2C_GetPEC
 1448              		.section	.text.I2C_DMACmd,"ax",%progbits
 1449              		.align	1
 1450              		.p2align 2,,3
 1451              		.global	I2C_DMACmd
 1452              		.syntax unified
 1453              		.thumb
 1454              		.thumb_func
 1455              		.type	I2C_DMACmd, %function
 1456              	I2C_DMACmd:
 1457              	.LVL66:
 1458              	.LFB133:
 818:../Libraries/STM32F4xx_StdPeriph_Driver/src/stm32f4xx_i2c.c **** 
 819:../Libraries/STM32F4xx_StdPeriph_Driver/src/stm32f4xx_i2c.c **** /**
 820:../Libraries/STM32F4xx_StdPeriph_Driver/src/stm32f4xx_i2c.c ****   * @}
 821:../Libraries/STM32F4xx_StdPeriph_Driver/src/stm32f4xx_i2c.c ****   */
 822:../Libraries/STM32F4xx_StdPeriph_Driver/src/stm32f4xx_i2c.c **** 
 823:../Libraries/STM32F4xx_StdPeriph_Driver/src/stm32f4xx_i2c.c **** /** @defgroup I2C_Group4 DMA transfers management functions
 824:../Libraries/STM32F4xx_StdPeriph_Driver/src/stm32f4xx_i2c.c ****  *  @brief   DMA transfers management functions 
 825:../Libraries/STM32F4xx_StdPeriph_Driver/src/stm32f4xx_i2c.c ****  *
 826:../Libraries/STM32F4xx_StdPeriph_Driver/src/stm32f4xx_i2c.c **** @verbatim   
 827:../Libraries/STM32F4xx_StdPeriph_Driver/src/stm32f4xx_i2c.c ****  ===============================================================================
 828:../Libraries/STM32F4xx_StdPeriph_Driver/src/stm32f4xx_i2c.c ****                          DMA transfers management functions
 829:../Libraries/STM32F4xx_StdPeriph_Driver/src/stm32f4xx_i2c.c ****  ===============================================================================  
 830:../Libraries/STM32F4xx_StdPeriph_Driver/src/stm32f4xx_i2c.c ****   This section provides functions allowing to configure the I2C DMA channels 
 831:../Libraries/STM32F4xx_StdPeriph_Driver/src/stm32f4xx_i2c.c ****   requests.
 832:../Libraries/STM32F4xx_StdPeriph_Driver/src/stm32f4xx_i2c.c ****   
 833:../Libraries/STM32F4xx_StdPeriph_Driver/src/stm32f4xx_i2c.c **** @endverbatim
 834:../Libraries/STM32F4xx_StdPeriph_Driver/src/stm32f4xx_i2c.c ****   * @{
 835:../Libraries/STM32F4xx_StdPeriph_Driver/src/stm32f4xx_i2c.c ****   */
 836:../Libraries/STM32F4xx_StdPeriph_Driver/src/stm32f4xx_i2c.c **** 
 837:../Libraries/STM32F4xx_StdPeriph_Driver/src/stm32f4xx_i2c.c **** /**
 838:../Libraries/STM32F4xx_StdPeriph_Driver/src/stm32f4xx_i2c.c ****   * @brief  Enables or disables the specified I2C DMA requests.
 839:../Libraries/STM32F4xx_StdPeriph_Driver/src/stm32f4xx_i2c.c ****   * @param  I2Cx: where x can be 1, 2 or 3 to select the I2C peripheral.
 840:../Libraries/STM32F4xx_StdPeriph_Driver/src/stm32f4xx_i2c.c ****   * @param  NewState: new state of the I2C DMA transfer.
ARM GAS  C:\Users\admin\AppData\Local\Temp\ccm61GQJ.s 			page 43


 841:../Libraries/STM32F4xx_StdPeriph_Driver/src/stm32f4xx_i2c.c ****   *          This parameter can be: ENABLE or DISABLE.
 842:../Libraries/STM32F4xx_StdPeriph_Driver/src/stm32f4xx_i2c.c ****   * @retval None
 843:../Libraries/STM32F4xx_StdPeriph_Driver/src/stm32f4xx_i2c.c ****   */
 844:../Libraries/STM32F4xx_StdPeriph_Driver/src/stm32f4xx_i2c.c **** void I2C_DMACmd(I2C_TypeDef* I2Cx, FunctionalState NewState)
 845:../Libraries/STM32F4xx_StdPeriph_Driver/src/stm32f4xx_i2c.c **** {
 1459              		.loc 1 845 1 is_stmt 1 view -0
 1460              		.cfi_startproc
 1461              		@ args = 0, pretend = 0, frame = 0
 1462              		@ frame_needed = 0, uses_anonymous_args = 0
 1463              		@ link register save eliminated.
 846:../Libraries/STM32F4xx_StdPeriph_Driver/src/stm32f4xx_i2c.c ****   /* Check the parameters */
 847:../Libraries/STM32F4xx_StdPeriph_Driver/src/stm32f4xx_i2c.c ****   assert_param(IS_I2C_ALL_PERIPH(I2Cx));
 1464              		.loc 1 847 3 view .LVU344
 848:../Libraries/STM32F4xx_StdPeriph_Driver/src/stm32f4xx_i2c.c ****   assert_param(IS_FUNCTIONAL_STATE(NewState));
 1465              		.loc 1 848 3 view .LVU345
 849:../Libraries/STM32F4xx_StdPeriph_Driver/src/stm32f4xx_i2c.c ****   if (NewState != DISABLE)
 1466              		.loc 1 849 3 view .LVU346
 1467              	@ ../Libraries/STM32F4xx_StdPeriph_Driver/src/stm32f4xx_i2c.c:852:     I2Cx->CR2 |= I2C_CR2_DMAEN;
 850:../Libraries/STM32F4xx_StdPeriph_Driver/src/stm32f4xx_i2c.c ****   {
 851:../Libraries/STM32F4xx_StdPeriph_Driver/src/stm32f4xx_i2c.c ****     /* Enable the selected I2C DMA requests */
 852:../Libraries/STM32F4xx_StdPeriph_Driver/src/stm32f4xx_i2c.c ****     I2Cx->CR2 |= I2C_CR2_DMAEN;
 1468              		.loc 1 852 15 is_stmt 0 view .LVU347
 1469 0000 8388     		ldrh	r3, [r0, #4]	@,
 1470              	@ ../Libraries/STM32F4xx_StdPeriph_Driver/src/stm32f4xx_i2c.c:849:   if (NewState != DISABLE)
 849:../Libraries/STM32F4xx_StdPeriph_Driver/src/stm32f4xx_i2c.c ****   if (NewState != DISABLE)
 1471              		.loc 1 849 6 view .LVU348
 1472 0002 21B1     		cbz	r1, .L82	@ tmp128,
 1473              		.loc 1 852 5 is_stmt 1 view .LVU349
 1474              	@ ../Libraries/STM32F4xx_StdPeriph_Driver/src/stm32f4xx_i2c.c:852:     I2Cx->CR2 |= I2C_CR2_DMAEN;
 1475              		.loc 1 852 15 is_stmt 0 view .LVU350
 1476 0004 9BB2     		uxth	r3, r3	@ _1, I2Cx_8(D)->CR2
 1477 0006 43F40063 		orr	r3, r3, #2048	@ _2, _1,
 1478 000a 8380     		strh	r3, [r0, #4]	@ movhi	@ _2,
 1479 000c 7047     		bx	lr	@
 1480              	.L82:
 853:../Libraries/STM32F4xx_StdPeriph_Driver/src/stm32f4xx_i2c.c ****   }
 854:../Libraries/STM32F4xx_StdPeriph_Driver/src/stm32f4xx_i2c.c ****   else
 855:../Libraries/STM32F4xx_StdPeriph_Driver/src/stm32f4xx_i2c.c ****   {
 856:../Libraries/STM32F4xx_StdPeriph_Driver/src/stm32f4xx_i2c.c ****     /* Disable the selected I2C DMA requests */
 857:../Libraries/STM32F4xx_StdPeriph_Driver/src/stm32f4xx_i2c.c ****     I2Cx->CR2 &= (uint16_t)~((uint16_t)I2C_CR2_DMAEN);
 1481              		.loc 1 857 5 is_stmt 1 view .LVU351
 1482              	@ ../Libraries/STM32F4xx_StdPeriph_Driver/src/stm32f4xx_i2c.c:857:     I2Cx->CR2 &= (uint16_t)~((ui
 1483              		.loc 1 857 15 is_stmt 0 view .LVU352
 1484 000e 23F40063 		bic	r3, r3, #2048	@ _4, I2Cx_8(D)->CR2,
 1485 0012 1B04     		lsls	r3, r3, #16	@ _4, _4,
 1486 0014 1B0C     		lsrs	r3, r3, #16	@ _4, _4,
 1487 0016 8380     		strh	r3, [r0, #4]	@ movhi	@ _4,
 1488              	@ ../Libraries/STM32F4xx_StdPeriph_Driver/src/stm32f4xx_i2c.c:859: }
 858:../Libraries/STM32F4xx_StdPeriph_Driver/src/stm32f4xx_i2c.c ****   }
 859:../Libraries/STM32F4xx_StdPeriph_Driver/src/stm32f4xx_i2c.c **** }
 1489              		.loc 1 859 1 view .LVU353
 1490 0018 7047     		bx	lr	@
 1491              		.cfi_endproc
 1492              	.LFE133:
 1493              		.size	I2C_DMACmd, .-I2C_DMACmd
 1494 001a 00BF     		.section	.text.I2C_DMALastTransferCmd,"ax",%progbits
 1495              		.align	1
ARM GAS  C:\Users\admin\AppData\Local\Temp\ccm61GQJ.s 			page 44


 1496              		.p2align 2,,3
 1497              		.global	I2C_DMALastTransferCmd
 1498              		.syntax unified
 1499              		.thumb
 1500              		.thumb_func
 1501              		.type	I2C_DMALastTransferCmd, %function
 1502              	I2C_DMALastTransferCmd:
 1503              	.LVL67:
 1504              	.LFB134:
 860:../Libraries/STM32F4xx_StdPeriph_Driver/src/stm32f4xx_i2c.c **** 
 861:../Libraries/STM32F4xx_StdPeriph_Driver/src/stm32f4xx_i2c.c **** /**
 862:../Libraries/STM32F4xx_StdPeriph_Driver/src/stm32f4xx_i2c.c ****   * @brief  Specifies that the next DMA transfer is the last one.
 863:../Libraries/STM32F4xx_StdPeriph_Driver/src/stm32f4xx_i2c.c ****   * @param  I2Cx: where x can be 1, 2 or 3 to select the I2C peripheral.
 864:../Libraries/STM32F4xx_StdPeriph_Driver/src/stm32f4xx_i2c.c ****   * @param  NewState: new state of the I2C DMA last transfer.
 865:../Libraries/STM32F4xx_StdPeriph_Driver/src/stm32f4xx_i2c.c ****   *          This parameter can be: ENABLE or DISABLE.
 866:../Libraries/STM32F4xx_StdPeriph_Driver/src/stm32f4xx_i2c.c ****   * @retval None
 867:../Libraries/STM32F4xx_StdPeriph_Driver/src/stm32f4xx_i2c.c ****   */
 868:../Libraries/STM32F4xx_StdPeriph_Driver/src/stm32f4xx_i2c.c **** void I2C_DMALastTransferCmd(I2C_TypeDef* I2Cx, FunctionalState NewState)
 869:../Libraries/STM32F4xx_StdPeriph_Driver/src/stm32f4xx_i2c.c **** {
 1505              		.loc 1 869 1 is_stmt 1 view -0
 1506              		.cfi_startproc
 1507              		@ args = 0, pretend = 0, frame = 0
 1508              		@ frame_needed = 0, uses_anonymous_args = 0
 1509              		@ link register save eliminated.
 870:../Libraries/STM32F4xx_StdPeriph_Driver/src/stm32f4xx_i2c.c ****   /* Check the parameters */
 871:../Libraries/STM32F4xx_StdPeriph_Driver/src/stm32f4xx_i2c.c ****   assert_param(IS_I2C_ALL_PERIPH(I2Cx));
 1510              		.loc 1 871 3 view .LVU355
 872:../Libraries/STM32F4xx_StdPeriph_Driver/src/stm32f4xx_i2c.c ****   assert_param(IS_FUNCTIONAL_STATE(NewState));
 1511              		.loc 1 872 3 view .LVU356
 873:../Libraries/STM32F4xx_StdPeriph_Driver/src/stm32f4xx_i2c.c ****   if (NewState != DISABLE)
 1512              		.loc 1 873 3 view .LVU357
 1513              	@ ../Libraries/STM32F4xx_StdPeriph_Driver/src/stm32f4xx_i2c.c:876:     I2Cx->CR2 |= I2C_CR2_LAST;
 874:../Libraries/STM32F4xx_StdPeriph_Driver/src/stm32f4xx_i2c.c ****   {
 875:../Libraries/STM32F4xx_StdPeriph_Driver/src/stm32f4xx_i2c.c ****     /* Next DMA transfer is the last transfer */
 876:../Libraries/STM32F4xx_StdPeriph_Driver/src/stm32f4xx_i2c.c ****     I2Cx->CR2 |= I2C_CR2_LAST;
 1514              		.loc 1 876 15 is_stmt 0 view .LVU358
 1515 0000 8388     		ldrh	r3, [r0, #4]	@,
 1516              	@ ../Libraries/STM32F4xx_StdPeriph_Driver/src/stm32f4xx_i2c.c:873:   if (NewState != DISABLE)
 873:../Libraries/STM32F4xx_StdPeriph_Driver/src/stm32f4xx_i2c.c ****   if (NewState != DISABLE)
 1517              		.loc 1 873 6 view .LVU359
 1518 0002 21B1     		cbz	r1, .L85	@ tmp128,
 1519              		.loc 1 876 5 is_stmt 1 view .LVU360
 1520              	@ ../Libraries/STM32F4xx_StdPeriph_Driver/src/stm32f4xx_i2c.c:876:     I2Cx->CR2 |= I2C_CR2_LAST;
 1521              		.loc 1 876 15 is_stmt 0 view .LVU361
 1522 0004 9BB2     		uxth	r3, r3	@ _1, I2Cx_8(D)->CR2
 1523 0006 43F48053 		orr	r3, r3, #4096	@ _2, _1,
 1524 000a 8380     		strh	r3, [r0, #4]	@ movhi	@ _2,
 1525 000c 7047     		bx	lr	@
 1526              	.L85:
 877:../Libraries/STM32F4xx_StdPeriph_Driver/src/stm32f4xx_i2c.c ****   }
 878:../Libraries/STM32F4xx_StdPeriph_Driver/src/stm32f4xx_i2c.c ****   else
 879:../Libraries/STM32F4xx_StdPeriph_Driver/src/stm32f4xx_i2c.c ****   {
 880:../Libraries/STM32F4xx_StdPeriph_Driver/src/stm32f4xx_i2c.c ****     /* Next DMA transfer is not the last transfer */
 881:../Libraries/STM32F4xx_StdPeriph_Driver/src/stm32f4xx_i2c.c ****     I2Cx->CR2 &= (uint16_t)~((uint16_t)I2C_CR2_LAST);
 1527              		.loc 1 881 5 is_stmt 1 view .LVU362
 1528              	@ ../Libraries/STM32F4xx_StdPeriph_Driver/src/stm32f4xx_i2c.c:881:     I2Cx->CR2 &= (uint16_t)~((ui
 1529              		.loc 1 881 15 is_stmt 0 view .LVU363
ARM GAS  C:\Users\admin\AppData\Local\Temp\ccm61GQJ.s 			page 45


 1530 000e 23F48053 		bic	r3, r3, #4096	@ _4, I2Cx_8(D)->CR2,
 1531 0012 1B04     		lsls	r3, r3, #16	@ _4, _4,
 1532 0014 1B0C     		lsrs	r3, r3, #16	@ _4, _4,
 1533 0016 8380     		strh	r3, [r0, #4]	@ movhi	@ _4,
 1534              	@ ../Libraries/STM32F4xx_StdPeriph_Driver/src/stm32f4xx_i2c.c:883: }
 882:../Libraries/STM32F4xx_StdPeriph_Driver/src/stm32f4xx_i2c.c ****   }
 883:../Libraries/STM32F4xx_StdPeriph_Driver/src/stm32f4xx_i2c.c **** }
 1535              		.loc 1 883 1 view .LVU364
 1536 0018 7047     		bx	lr	@
 1537              		.cfi_endproc
 1538              	.LFE134:
 1539              		.size	I2C_DMALastTransferCmd, .-I2C_DMALastTransferCmd
 1540 001a 00BF     		.section	.text.I2C_ReadRegister,"ax",%progbits
 1541              		.align	1
 1542              		.p2align 2,,3
 1543              		.global	I2C_ReadRegister
 1544              		.syntax unified
 1545              		.thumb
 1546              		.thumb_func
 1547              		.type	I2C_ReadRegister, %function
 1548              	I2C_ReadRegister:
 1549              	.LVL68:
 1550              	.LFB135:
 884:../Libraries/STM32F4xx_StdPeriph_Driver/src/stm32f4xx_i2c.c **** 
 885:../Libraries/STM32F4xx_StdPeriph_Driver/src/stm32f4xx_i2c.c **** /**
 886:../Libraries/STM32F4xx_StdPeriph_Driver/src/stm32f4xx_i2c.c ****   * @}
 887:../Libraries/STM32F4xx_StdPeriph_Driver/src/stm32f4xx_i2c.c ****   */
 888:../Libraries/STM32F4xx_StdPeriph_Driver/src/stm32f4xx_i2c.c **** 
 889:../Libraries/STM32F4xx_StdPeriph_Driver/src/stm32f4xx_i2c.c **** /** @defgroup I2C_Group5 Interrupts events and flags management functions
 890:../Libraries/STM32F4xx_StdPeriph_Driver/src/stm32f4xx_i2c.c ****  *  @brief   Interrupts, events and flags management functions
 891:../Libraries/STM32F4xx_StdPeriph_Driver/src/stm32f4xx_i2c.c ****  *
 892:../Libraries/STM32F4xx_StdPeriph_Driver/src/stm32f4xx_i2c.c **** @verbatim   
 893:../Libraries/STM32F4xx_StdPeriph_Driver/src/stm32f4xx_i2c.c ****  ===============================================================================
 894:../Libraries/STM32F4xx_StdPeriph_Driver/src/stm32f4xx_i2c.c ****                 Interrupts, events and flags management functions
 895:../Libraries/STM32F4xx_StdPeriph_Driver/src/stm32f4xx_i2c.c ****  ===============================================================================  
 896:../Libraries/STM32F4xx_StdPeriph_Driver/src/stm32f4xx_i2c.c ****   This section provides functions allowing to configure the I2C Interrupts 
 897:../Libraries/STM32F4xx_StdPeriph_Driver/src/stm32f4xx_i2c.c ****   sources and check or clear the flags or pending bits status.
 898:../Libraries/STM32F4xx_StdPeriph_Driver/src/stm32f4xx_i2c.c ****   The user should identify which mode will be used in his application to manage 
 899:../Libraries/STM32F4xx_StdPeriph_Driver/src/stm32f4xx_i2c.c ****   the communication: Polling mode, Interrupt mode or DMA mode. 
 900:../Libraries/STM32F4xx_StdPeriph_Driver/src/stm32f4xx_i2c.c **** 
 901:../Libraries/STM32F4xx_StdPeriph_Driver/src/stm32f4xx_i2c.c ****  ===============================================================================
 902:../Libraries/STM32F4xx_StdPeriph_Driver/src/stm32f4xx_i2c.c ****                           I2C State Monitoring Functions                    
 903:../Libraries/STM32F4xx_StdPeriph_Driver/src/stm32f4xx_i2c.c ****  ===============================================================================   
 904:../Libraries/STM32F4xx_StdPeriph_Driver/src/stm32f4xx_i2c.c ****   This I2C driver provides three different ways for I2C state monitoring
 905:../Libraries/STM32F4xx_StdPeriph_Driver/src/stm32f4xx_i2c.c ****   depending on the application requirements and constraints:
 906:../Libraries/STM32F4xx_StdPeriph_Driver/src/stm32f4xx_i2c.c ****          
 907:../Libraries/STM32F4xx_StdPeriph_Driver/src/stm32f4xx_i2c.c ****    
 908:../Libraries/STM32F4xx_StdPeriph_Driver/src/stm32f4xx_i2c.c ****      1. Basic state monitoring (Using I2C_CheckEvent() function)
 909:../Libraries/STM32F4xx_StdPeriph_Driver/src/stm32f4xx_i2c.c ****      -----------------------------------------------------------
 910:../Libraries/STM32F4xx_StdPeriph_Driver/src/stm32f4xx_i2c.c ****         It compares the status registers (SR1 and SR2) content to a given event
 911:../Libraries/STM32F4xx_StdPeriph_Driver/src/stm32f4xx_i2c.c ****         (can be the combination of one or more flags).
 912:../Libraries/STM32F4xx_StdPeriph_Driver/src/stm32f4xx_i2c.c ****         It returns SUCCESS if the current status includes the given flags 
 913:../Libraries/STM32F4xx_StdPeriph_Driver/src/stm32f4xx_i2c.c ****         and returns ERROR if one or more flags are missing in the current status.
 914:../Libraries/STM32F4xx_StdPeriph_Driver/src/stm32f4xx_i2c.c **** 
 915:../Libraries/STM32F4xx_StdPeriph_Driver/src/stm32f4xx_i2c.c ****           - When to use
 916:../Libraries/STM32F4xx_StdPeriph_Driver/src/stm32f4xx_i2c.c ****              - This function is suitable for most applications as well as for startup 
 917:../Libraries/STM32F4xx_StdPeriph_Driver/src/stm32f4xx_i2c.c ****                activity since the events are fully described in the product reference 
ARM GAS  C:\Users\admin\AppData\Local\Temp\ccm61GQJ.s 			page 46


 918:../Libraries/STM32F4xx_StdPeriph_Driver/src/stm32f4xx_i2c.c ****                manual (RM0090).
 919:../Libraries/STM32F4xx_StdPeriph_Driver/src/stm32f4xx_i2c.c ****              - It is also suitable for users who need to define their own events.
 920:../Libraries/STM32F4xx_StdPeriph_Driver/src/stm32f4xx_i2c.c **** 
 921:../Libraries/STM32F4xx_StdPeriph_Driver/src/stm32f4xx_i2c.c ****           - Limitations
 922:../Libraries/STM32F4xx_StdPeriph_Driver/src/stm32f4xx_i2c.c ****              - If an error occurs (ie. error flags are set besides to the monitored 
 923:../Libraries/STM32F4xx_StdPeriph_Driver/src/stm32f4xx_i2c.c ****                flags), the I2C_CheckEvent() function may return SUCCESS despite 
 924:../Libraries/STM32F4xx_StdPeriph_Driver/src/stm32f4xx_i2c.c ****                the communication hold or corrupted real state. 
 925:../Libraries/STM32F4xx_StdPeriph_Driver/src/stm32f4xx_i2c.c ****                In this case, it is advised to use error interrupts to monitor 
 926:../Libraries/STM32F4xx_StdPeriph_Driver/src/stm32f4xx_i2c.c ****                the error events and handle them in the interrupt IRQ handler.
 927:../Libraries/STM32F4xx_StdPeriph_Driver/src/stm32f4xx_i2c.c ****          
 928:../Libraries/STM32F4xx_StdPeriph_Driver/src/stm32f4xx_i2c.c ****      @note 
 929:../Libraries/STM32F4xx_StdPeriph_Driver/src/stm32f4xx_i2c.c ****          For error management, it is advised to use the following functions:
 930:../Libraries/STM32F4xx_StdPeriph_Driver/src/stm32f4xx_i2c.c ****            - I2C_ITConfig() to configure and enable the error interrupts (I2C_IT_ERR).
 931:../Libraries/STM32F4xx_StdPeriph_Driver/src/stm32f4xx_i2c.c ****            - I2Cx_ER_IRQHandler() which is called when the error interrupt occurs.
 932:../Libraries/STM32F4xx_StdPeriph_Driver/src/stm32f4xx_i2c.c ****              Where x is the peripheral instance (I2C1, I2C2 ...)
 933:../Libraries/STM32F4xx_StdPeriph_Driver/src/stm32f4xx_i2c.c ****            - I2C_GetFlagStatus() or I2C_GetITStatus()  to be called into the 
 934:../Libraries/STM32F4xx_StdPeriph_Driver/src/stm32f4xx_i2c.c ****              I2Cx_ER_IRQHandler() function in order to determine which error occurred.
 935:../Libraries/STM32F4xx_StdPeriph_Driver/src/stm32f4xx_i2c.c ****            - I2C_ClearFlag() or I2C_ClearITPendingBit() and/or I2C_SoftwareResetCmd() 
 936:../Libraries/STM32F4xx_StdPeriph_Driver/src/stm32f4xx_i2c.c ****              and/or I2C_GenerateStop() in order to clear the error flag and source 
 937:../Libraries/STM32F4xx_StdPeriph_Driver/src/stm32f4xx_i2c.c ****              and return to correct  communication status.
 938:../Libraries/STM32F4xx_StdPeriph_Driver/src/stm32f4xx_i2c.c ****              
 939:../Libraries/STM32F4xx_StdPeriph_Driver/src/stm32f4xx_i2c.c ****  
 940:../Libraries/STM32F4xx_StdPeriph_Driver/src/stm32f4xx_i2c.c ****      2. Advanced state monitoring (Using the function I2C_GetLastEvent())
 941:../Libraries/STM32F4xx_StdPeriph_Driver/src/stm32f4xx_i2c.c ****      -------------------------------------------------------------------- 
 942:../Libraries/STM32F4xx_StdPeriph_Driver/src/stm32f4xx_i2c.c ****         Using the function I2C_GetLastEvent() which returns the image of both status 
 943:../Libraries/STM32F4xx_StdPeriph_Driver/src/stm32f4xx_i2c.c ****         registers in a single word (uint32_t) (Status Register 2 value is shifted left 
 944:../Libraries/STM32F4xx_StdPeriph_Driver/src/stm32f4xx_i2c.c ****         by 16 bits and concatenated to Status Register 1).
 945:../Libraries/STM32F4xx_StdPeriph_Driver/src/stm32f4xx_i2c.c **** 
 946:../Libraries/STM32F4xx_StdPeriph_Driver/src/stm32f4xx_i2c.c ****           - When to use
 947:../Libraries/STM32F4xx_StdPeriph_Driver/src/stm32f4xx_i2c.c ****              - This function is suitable for the same applications above but it 
 948:../Libraries/STM32F4xx_StdPeriph_Driver/src/stm32f4xx_i2c.c ****                allows to overcome the mentioned limitation of I2C_GetFlagStatus() 
 949:../Libraries/STM32F4xx_StdPeriph_Driver/src/stm32f4xx_i2c.c ****                function.
 950:../Libraries/STM32F4xx_StdPeriph_Driver/src/stm32f4xx_i2c.c ****              - The returned value could be compared to events already defined in 
 951:../Libraries/STM32F4xx_StdPeriph_Driver/src/stm32f4xx_i2c.c ****                the library (stm32f4xx_i2c.h) or to custom values defined by user.
 952:../Libraries/STM32F4xx_StdPeriph_Driver/src/stm32f4xx_i2c.c ****                This function is suitable when multiple flags are monitored at the 
 953:../Libraries/STM32F4xx_StdPeriph_Driver/src/stm32f4xx_i2c.c ****                same time.
 954:../Libraries/STM32F4xx_StdPeriph_Driver/src/stm32f4xx_i2c.c ****              - At the opposite of I2C_CheckEvent() function, this function allows 
 955:../Libraries/STM32F4xx_StdPeriph_Driver/src/stm32f4xx_i2c.c ****                user to choose when an event is accepted (when all events flags are 
 956:../Libraries/STM32F4xx_StdPeriph_Driver/src/stm32f4xx_i2c.c ****                set and no other flags are set or just when the needed flags are set 
 957:../Libraries/STM32F4xx_StdPeriph_Driver/src/stm32f4xx_i2c.c ****                like I2C_CheckEvent() function.
 958:../Libraries/STM32F4xx_StdPeriph_Driver/src/stm32f4xx_i2c.c **** 
 959:../Libraries/STM32F4xx_StdPeriph_Driver/src/stm32f4xx_i2c.c ****           - Limitations
 960:../Libraries/STM32F4xx_StdPeriph_Driver/src/stm32f4xx_i2c.c ****              - User may need to define his own events.
 961:../Libraries/STM32F4xx_StdPeriph_Driver/src/stm32f4xx_i2c.c ****              - Same remark concerning the error management is applicable for this 
 962:../Libraries/STM32F4xx_StdPeriph_Driver/src/stm32f4xx_i2c.c ****                function if user decides to check only regular communication flags 
 963:../Libraries/STM32F4xx_StdPeriph_Driver/src/stm32f4xx_i2c.c ****                (and ignores error flags).
 964:../Libraries/STM32F4xx_StdPeriph_Driver/src/stm32f4xx_i2c.c ****       
 965:../Libraries/STM32F4xx_StdPeriph_Driver/src/stm32f4xx_i2c.c ****  
 966:../Libraries/STM32F4xx_StdPeriph_Driver/src/stm32f4xx_i2c.c ****      3. Flag-based state monitoring (Using the function I2C_GetFlagStatus())
 967:../Libraries/STM32F4xx_StdPeriph_Driver/src/stm32f4xx_i2c.c ****      -----------------------------------------------------------------------
 968:../Libraries/STM32F4xx_StdPeriph_Driver/src/stm32f4xx_i2c.c ****      
 969:../Libraries/STM32F4xx_StdPeriph_Driver/src/stm32f4xx_i2c.c ****       Using the function I2C_GetFlagStatus() which simply returns the status of 
 970:../Libraries/STM32F4xx_StdPeriph_Driver/src/stm32f4xx_i2c.c ****       one single flag (ie. I2C_FLAG_RXNE ...). 
 971:../Libraries/STM32F4xx_StdPeriph_Driver/src/stm32f4xx_i2c.c **** 
 972:../Libraries/STM32F4xx_StdPeriph_Driver/src/stm32f4xx_i2c.c ****           - When to use
 973:../Libraries/STM32F4xx_StdPeriph_Driver/src/stm32f4xx_i2c.c ****              - This function could be used for specific applications or in debug 
 974:../Libraries/STM32F4xx_StdPeriph_Driver/src/stm32f4xx_i2c.c ****                phase.
ARM GAS  C:\Users\admin\AppData\Local\Temp\ccm61GQJ.s 			page 47


 975:../Libraries/STM32F4xx_StdPeriph_Driver/src/stm32f4xx_i2c.c ****              - It is suitable when only one flag checking is needed (most I2C 
 976:../Libraries/STM32F4xx_StdPeriph_Driver/src/stm32f4xx_i2c.c ****                events are monitored through multiple flags).
 977:../Libraries/STM32F4xx_StdPeriph_Driver/src/stm32f4xx_i2c.c ****           - Limitations: 
 978:../Libraries/STM32F4xx_StdPeriph_Driver/src/stm32f4xx_i2c.c ****              - When calling this function, the Status register is accessed. 
 979:../Libraries/STM32F4xx_StdPeriph_Driver/src/stm32f4xx_i2c.c ****                Some flags are cleared when the status register is accessed. 
 980:../Libraries/STM32F4xx_StdPeriph_Driver/src/stm32f4xx_i2c.c ****                So checking the status of one Flag, may clear other ones.
 981:../Libraries/STM32F4xx_StdPeriph_Driver/src/stm32f4xx_i2c.c ****              - Function may need to be called twice or more in order to monitor 
 982:../Libraries/STM32F4xx_StdPeriph_Driver/src/stm32f4xx_i2c.c ****                one single event.
 983:../Libraries/STM32F4xx_StdPeriph_Driver/src/stm32f4xx_i2c.c ****  
 984:../Libraries/STM32F4xx_StdPeriph_Driver/src/stm32f4xx_i2c.c ****    For detailed description of Events, please refer to section I2C_Events in 
 985:../Libraries/STM32F4xx_StdPeriph_Driver/src/stm32f4xx_i2c.c ****    stm32f4xx_i2c.h file.
 986:../Libraries/STM32F4xx_StdPeriph_Driver/src/stm32f4xx_i2c.c ****        
 987:../Libraries/STM32F4xx_StdPeriph_Driver/src/stm32f4xx_i2c.c **** @endverbatim
 988:../Libraries/STM32F4xx_StdPeriph_Driver/src/stm32f4xx_i2c.c ****   * @{
 989:../Libraries/STM32F4xx_StdPeriph_Driver/src/stm32f4xx_i2c.c ****   */
 990:../Libraries/STM32F4xx_StdPeriph_Driver/src/stm32f4xx_i2c.c ****    
 991:../Libraries/STM32F4xx_StdPeriph_Driver/src/stm32f4xx_i2c.c **** /**
 992:../Libraries/STM32F4xx_StdPeriph_Driver/src/stm32f4xx_i2c.c ****   * @brief  Reads the specified I2C register and returns its value.
 993:../Libraries/STM32F4xx_StdPeriph_Driver/src/stm32f4xx_i2c.c ****   * @param  I2C_Register: specifies the register to read.
 994:../Libraries/STM32F4xx_StdPeriph_Driver/src/stm32f4xx_i2c.c ****   *          This parameter can be one of the following values:
 995:../Libraries/STM32F4xx_StdPeriph_Driver/src/stm32f4xx_i2c.c ****   *            @arg I2C_Register_CR1:  CR1 register.
 996:../Libraries/STM32F4xx_StdPeriph_Driver/src/stm32f4xx_i2c.c ****   *            @arg I2C_Register_CR2:   CR2 register.
 997:../Libraries/STM32F4xx_StdPeriph_Driver/src/stm32f4xx_i2c.c ****   *            @arg I2C_Register_OAR1:  OAR1 register.
 998:../Libraries/STM32F4xx_StdPeriph_Driver/src/stm32f4xx_i2c.c ****   *            @arg I2C_Register_OAR2:  OAR2 register.
 999:../Libraries/STM32F4xx_StdPeriph_Driver/src/stm32f4xx_i2c.c ****   *            @arg I2C_Register_DR:    DR register.
1000:../Libraries/STM32F4xx_StdPeriph_Driver/src/stm32f4xx_i2c.c ****   *            @arg I2C_Register_SR1:   SR1 register.
1001:../Libraries/STM32F4xx_StdPeriph_Driver/src/stm32f4xx_i2c.c ****   *            @arg I2C_Register_SR2:   SR2 register.
1002:../Libraries/STM32F4xx_StdPeriph_Driver/src/stm32f4xx_i2c.c ****   *            @arg I2C_Register_CCR:   CCR register.
1003:../Libraries/STM32F4xx_StdPeriph_Driver/src/stm32f4xx_i2c.c ****   *            @arg I2C_Register_TRISE: TRISE register.
1004:../Libraries/STM32F4xx_StdPeriph_Driver/src/stm32f4xx_i2c.c ****   * @retval The value of the read register.
1005:../Libraries/STM32F4xx_StdPeriph_Driver/src/stm32f4xx_i2c.c ****   */
1006:../Libraries/STM32F4xx_StdPeriph_Driver/src/stm32f4xx_i2c.c **** uint16_t I2C_ReadRegister(I2C_TypeDef* I2Cx, uint8_t I2C_Register)
1007:../Libraries/STM32F4xx_StdPeriph_Driver/src/stm32f4xx_i2c.c **** {
 1551              		.loc 1 1007 1 is_stmt 1 view -0
 1552              		.cfi_startproc
 1553              		@ args = 0, pretend = 0, frame = 8
 1554              		@ frame_needed = 0, uses_anonymous_args = 0
 1555              		@ link register save eliminated.
1008:../Libraries/STM32F4xx_StdPeriph_Driver/src/stm32f4xx_i2c.c ****   __IO uint32_t tmp = 0;
 1556              		.loc 1 1008 3 view .LVU366
 1557              	@ ../Libraries/STM32F4xx_StdPeriph_Driver/src/stm32f4xx_i2c.c:1007: {
1007:../Libraries/STM32F4xx_StdPeriph_Driver/src/stm32f4xx_i2c.c ****   __IO uint32_t tmp = 0;
 1558              		.loc 1 1007 1 is_stmt 0 view .LVU367
 1559 0000 82B0     		sub	sp, sp, #8	@,,
 1560              		.cfi_def_cfa_offset 8
 1561              	@ ../Libraries/STM32F4xx_StdPeriph_Driver/src/stm32f4xx_i2c.c:1008:   __IO uint32_t tmp = 0;
 1562              		.loc 1 1008 17 view .LVU368
 1563 0002 0023     		movs	r3, #0	@ tmp122,
 1564 0004 0193     		str	r3, [sp, #4]	@ tmp122, tmp
1009:../Libraries/STM32F4xx_StdPeriph_Driver/src/stm32f4xx_i2c.c **** 
1010:../Libraries/STM32F4xx_StdPeriph_Driver/src/stm32f4xx_i2c.c ****   /* Check the parameters */
1011:../Libraries/STM32F4xx_StdPeriph_Driver/src/stm32f4xx_i2c.c ****   assert_param(IS_I2C_ALL_PERIPH(I2Cx));
 1565              		.loc 1 1011 3 is_stmt 1 view .LVU369
1012:../Libraries/STM32F4xx_StdPeriph_Driver/src/stm32f4xx_i2c.c ****   assert_param(IS_I2C_REGISTER(I2C_Register));
 1566              		.loc 1 1012 3 view .LVU370
1013:../Libraries/STM32F4xx_StdPeriph_Driver/src/stm32f4xx_i2c.c **** 
1014:../Libraries/STM32F4xx_StdPeriph_Driver/src/stm32f4xx_i2c.c ****   tmp = (uint32_t) I2Cx;
ARM GAS  C:\Users\admin\AppData\Local\Temp\ccm61GQJ.s 			page 48


 1567              		.loc 1 1014 3 view .LVU371
 1568              	@ ../Libraries/STM32F4xx_StdPeriph_Driver/src/stm32f4xx_i2c.c:1014:   tmp = (uint32_t) I2Cx;
 1569              		.loc 1 1014 7 is_stmt 0 view .LVU372
 1570 0006 0190     		str	r0, [sp, #4]	@ I2Cx, tmp
1015:../Libraries/STM32F4xx_StdPeriph_Driver/src/stm32f4xx_i2c.c ****   tmp += I2C_Register;
 1571              		.loc 1 1015 3 is_stmt 1 view .LVU373
 1572              	@ ../Libraries/STM32F4xx_StdPeriph_Driver/src/stm32f4xx_i2c.c:1015:   tmp += I2C_Register;
 1573              		.loc 1 1015 7 is_stmt 0 view .LVU374
 1574 0008 019B     		ldr	r3, [sp, #4]	@ tmp.2_3, tmp
 1575 000a 1944     		add	r1, r1, r3	@ _4, tmp.2_3
 1576              	.LVL69:
 1577              		.loc 1 1015 7 view .LVU375
 1578 000c 0191     		str	r1, [sp, #4]	@ _4, tmp
1016:../Libraries/STM32F4xx_StdPeriph_Driver/src/stm32f4xx_i2c.c **** 
1017:../Libraries/STM32F4xx_StdPeriph_Driver/src/stm32f4xx_i2c.c ****   /* Return the selected register value */
1018:../Libraries/STM32F4xx_StdPeriph_Driver/src/stm32f4xx_i2c.c ****   return (*(__IO uint16_t *) tmp);
 1579              		.loc 1 1018 3 is_stmt 1 view .LVU376
 1580              	@ ../Libraries/STM32F4xx_StdPeriph_Driver/src/stm32f4xx_i2c.c:1018:   return (*(__IO uint16_t *) tm
 1581              		.loc 1 1018 12 is_stmt 0 view .LVU377
 1582 000e 019B     		ldr	r3, [sp, #4]	@ tmp.3_5, tmp
 1583              	@ ../Libraries/STM32F4xx_StdPeriph_Driver/src/stm32f4xx_i2c.c:1018:   return (*(__IO uint16_t *) tm
 1584              		.loc 1 1018 11 view .LVU378
 1585 0010 1888     		ldrh	r0, [r3]	@, *tmp.4_6
 1586              	.LVL70:
 1587              	@ ../Libraries/STM32F4xx_StdPeriph_Driver/src/stm32f4xx_i2c.c:1019: }
1019:../Libraries/STM32F4xx_StdPeriph_Driver/src/stm32f4xx_i2c.c **** }
 1588              		.loc 1 1019 1 view .LVU379
 1589 0012 80B2     		uxth	r0, r0	@, *tmp.4_6
 1590 0014 02B0     		add	sp, sp, #8	@,,
 1591              		.cfi_def_cfa_offset 0
 1592              		@ sp needed	@
 1593 0016 7047     		bx	lr	@
 1594              		.cfi_endproc
 1595              	.LFE135:
 1596              		.size	I2C_ReadRegister, .-I2C_ReadRegister
 1597              		.section	.text.I2C_ITConfig,"ax",%progbits
 1598              		.align	1
 1599              		.p2align 2,,3
 1600              		.global	I2C_ITConfig
 1601              		.syntax unified
 1602              		.thumb
 1603              		.thumb_func
 1604              		.type	I2C_ITConfig, %function
 1605              	I2C_ITConfig:
 1606              	.LVL71:
 1607              	.LFB136:
1020:../Libraries/STM32F4xx_StdPeriph_Driver/src/stm32f4xx_i2c.c **** 
1021:../Libraries/STM32F4xx_StdPeriph_Driver/src/stm32f4xx_i2c.c **** /**
1022:../Libraries/STM32F4xx_StdPeriph_Driver/src/stm32f4xx_i2c.c ****   * @brief  Enables or disables the specified I2C interrupts.
1023:../Libraries/STM32F4xx_StdPeriph_Driver/src/stm32f4xx_i2c.c ****   * @param  I2Cx: where x can be 1, 2 or 3 to select the I2C peripheral.
1024:../Libraries/STM32F4xx_StdPeriph_Driver/src/stm32f4xx_i2c.c ****   * @param  I2C_IT: specifies the I2C interrupts sources to be enabled or disabled. 
1025:../Libraries/STM32F4xx_StdPeriph_Driver/src/stm32f4xx_i2c.c ****   *          This parameter can be any combination of the following values:
1026:../Libraries/STM32F4xx_StdPeriph_Driver/src/stm32f4xx_i2c.c ****   *            @arg I2C_IT_BUF: Buffer interrupt mask
1027:../Libraries/STM32F4xx_StdPeriph_Driver/src/stm32f4xx_i2c.c ****   *            @arg I2C_IT_EVT: Event interrupt mask
1028:../Libraries/STM32F4xx_StdPeriph_Driver/src/stm32f4xx_i2c.c ****   *            @arg I2C_IT_ERR: Error interrupt mask
1029:../Libraries/STM32F4xx_StdPeriph_Driver/src/stm32f4xx_i2c.c ****   * @param  NewState: new state of the specified I2C interrupts.
1030:../Libraries/STM32F4xx_StdPeriph_Driver/src/stm32f4xx_i2c.c ****   *          This parameter can be: ENABLE or DISABLE.
ARM GAS  C:\Users\admin\AppData\Local\Temp\ccm61GQJ.s 			page 49


1031:../Libraries/STM32F4xx_StdPeriph_Driver/src/stm32f4xx_i2c.c ****   * @retval None
1032:../Libraries/STM32F4xx_StdPeriph_Driver/src/stm32f4xx_i2c.c ****   */
1033:../Libraries/STM32F4xx_StdPeriph_Driver/src/stm32f4xx_i2c.c **** void I2C_ITConfig(I2C_TypeDef* I2Cx, uint16_t I2C_IT, FunctionalState NewState)
1034:../Libraries/STM32F4xx_StdPeriph_Driver/src/stm32f4xx_i2c.c **** {
 1608              		.loc 1 1034 1 is_stmt 1 view -0
 1609              		.cfi_startproc
 1610              		@ args = 0, pretend = 0, frame = 0
 1611              		@ frame_needed = 0, uses_anonymous_args = 0
 1612              		@ link register save eliminated.
1035:../Libraries/STM32F4xx_StdPeriph_Driver/src/stm32f4xx_i2c.c ****   /* Check the parameters */
1036:../Libraries/STM32F4xx_StdPeriph_Driver/src/stm32f4xx_i2c.c ****   assert_param(IS_I2C_ALL_PERIPH(I2Cx));
 1613              		.loc 1 1036 3 view .LVU381
1037:../Libraries/STM32F4xx_StdPeriph_Driver/src/stm32f4xx_i2c.c ****   assert_param(IS_FUNCTIONAL_STATE(NewState));
 1614              		.loc 1 1037 3 view .LVU382
1038:../Libraries/STM32F4xx_StdPeriph_Driver/src/stm32f4xx_i2c.c ****   assert_param(IS_I2C_CONFIG_IT(I2C_IT));
 1615              		.loc 1 1038 3 view .LVU383
1039:../Libraries/STM32F4xx_StdPeriph_Driver/src/stm32f4xx_i2c.c ****   
1040:../Libraries/STM32F4xx_StdPeriph_Driver/src/stm32f4xx_i2c.c ****   if (NewState != DISABLE)
 1616              		.loc 1 1040 3 view .LVU384
 1617              	@ ../Libraries/STM32F4xx_StdPeriph_Driver/src/stm32f4xx_i2c.c:1043:     I2Cx->CR2 |= I2C_IT;
1041:../Libraries/STM32F4xx_StdPeriph_Driver/src/stm32f4xx_i2c.c ****   {
1042:../Libraries/STM32F4xx_StdPeriph_Driver/src/stm32f4xx_i2c.c ****     /* Enable the selected I2C interrupts */
1043:../Libraries/STM32F4xx_StdPeriph_Driver/src/stm32f4xx_i2c.c ****     I2Cx->CR2 |= I2C_IT;
 1618              		.loc 1 1043 15 is_stmt 0 view .LVU385
 1619 0000 8388     		ldrh	r3, [r0, #4]	@,
 1620 0002 9BB2     		uxth	r3, r3	@ _1, I2Cx_9(D)->CR2
 1621              	@ ../Libraries/STM32F4xx_StdPeriph_Driver/src/stm32f4xx_i2c.c:1040:   if (NewState != DISABLE)
1040:../Libraries/STM32F4xx_StdPeriph_Driver/src/stm32f4xx_i2c.c ****   {
 1622              		.loc 1 1040 6 view .LVU386
 1623 0004 12B1     		cbz	r2, .L90	@ tmp133,
 1624              		.loc 1 1043 5 is_stmt 1 view .LVU387
 1625              	@ ../Libraries/STM32F4xx_StdPeriph_Driver/src/stm32f4xx_i2c.c:1043:     I2Cx->CR2 |= I2C_IT;
 1626              		.loc 1 1043 15 is_stmt 0 view .LVU388
 1627 0006 1943     		orrs	r1, r1, r3	@, _2, I2C_IT, _1
 1628              	.LVL72:
 1629              		.loc 1 1043 15 view .LVU389
 1630 0008 8180     		strh	r1, [r0, #4]	@ movhi	@ _2,
 1631 000a 7047     		bx	lr	@
 1632              	.LVL73:
 1633              	.L90:
1044:../Libraries/STM32F4xx_StdPeriph_Driver/src/stm32f4xx_i2c.c ****   }
1045:../Libraries/STM32F4xx_StdPeriph_Driver/src/stm32f4xx_i2c.c ****   else
1046:../Libraries/STM32F4xx_StdPeriph_Driver/src/stm32f4xx_i2c.c ****   {
1047:../Libraries/STM32F4xx_StdPeriph_Driver/src/stm32f4xx_i2c.c ****     /* Disable the selected I2C interrupts */
1048:../Libraries/STM32F4xx_StdPeriph_Driver/src/stm32f4xx_i2c.c ****     I2Cx->CR2 &= (uint16_t)~I2C_IT;
 1634              		.loc 1 1048 5 is_stmt 1 view .LVU390
 1635              	@ ../Libraries/STM32F4xx_StdPeriph_Driver/src/stm32f4xx_i2c.c:1048:     I2Cx->CR2 &= (uint16_t)~I2C
 1636              		.loc 1 1048 15 is_stmt 0 view .LVU391
 1637 000c 23EA0101 		bic	r1, r3, r1	@ _5, _3, I2C_IT
 1638              	.LVL74:
 1639              		.loc 1 1048 15 view .LVU392
 1640 0010 8180     		strh	r1, [r0, #4]	@ movhi	@ _5,
 1641              	@ ../Libraries/STM32F4xx_StdPeriph_Driver/src/stm32f4xx_i2c.c:1050: }
1049:../Libraries/STM32F4xx_StdPeriph_Driver/src/stm32f4xx_i2c.c ****   }
1050:../Libraries/STM32F4xx_StdPeriph_Driver/src/stm32f4xx_i2c.c **** }
 1642              		.loc 1 1050 1 view .LVU393
 1643 0012 7047     		bx	lr	@
ARM GAS  C:\Users\admin\AppData\Local\Temp\ccm61GQJ.s 			page 50


 1644              		.cfi_endproc
 1645              	.LFE136:
 1646              		.size	I2C_ITConfig, .-I2C_ITConfig
 1647              		.section	.text.I2C_CheckEvent,"ax",%progbits
 1648              		.align	1
 1649              		.p2align 2,,3
 1650              		.global	I2C_CheckEvent
 1651              		.syntax unified
 1652              		.thumb
 1653              		.thumb_func
 1654              		.type	I2C_CheckEvent, %function
 1655              	I2C_CheckEvent:
 1656              	.LVL75:
 1657              	.LFB137:
1051:../Libraries/STM32F4xx_StdPeriph_Driver/src/stm32f4xx_i2c.c **** 
1052:../Libraries/STM32F4xx_StdPeriph_Driver/src/stm32f4xx_i2c.c **** /*
1053:../Libraries/STM32F4xx_StdPeriph_Driver/src/stm32f4xx_i2c.c ****  ===============================================================================
1054:../Libraries/STM32F4xx_StdPeriph_Driver/src/stm32f4xx_i2c.c ****                           1. Basic state monitoring                    
1055:../Libraries/STM32F4xx_StdPeriph_Driver/src/stm32f4xx_i2c.c ****  ===============================================================================  
1056:../Libraries/STM32F4xx_StdPeriph_Driver/src/stm32f4xx_i2c.c ****  */
1057:../Libraries/STM32F4xx_StdPeriph_Driver/src/stm32f4xx_i2c.c **** 
1058:../Libraries/STM32F4xx_StdPeriph_Driver/src/stm32f4xx_i2c.c **** /**
1059:../Libraries/STM32F4xx_StdPeriph_Driver/src/stm32f4xx_i2c.c ****   * @brief  Checks whether the last I2Cx Event is equal to the one passed
1060:../Libraries/STM32F4xx_StdPeriph_Driver/src/stm32f4xx_i2c.c ****   *         as parameter.
1061:../Libraries/STM32F4xx_StdPeriph_Driver/src/stm32f4xx_i2c.c ****   * @param  I2Cx: where x can be 1, 2 or 3 to select the I2C peripheral.
1062:../Libraries/STM32F4xx_StdPeriph_Driver/src/stm32f4xx_i2c.c ****   * @param  I2C_EVENT: specifies the event to be checked. 
1063:../Libraries/STM32F4xx_StdPeriph_Driver/src/stm32f4xx_i2c.c ****   *          This parameter can be one of the following values:
1064:../Libraries/STM32F4xx_StdPeriph_Driver/src/stm32f4xx_i2c.c ****   *            @arg I2C_EVENT_SLAVE_TRANSMITTER_ADDRESS_MATCHED: EV1
1065:../Libraries/STM32F4xx_StdPeriph_Driver/src/stm32f4xx_i2c.c ****   *            @arg I2C_EVENT_SLAVE_RECEIVER_ADDRESS_MATCHED: EV1
1066:../Libraries/STM32F4xx_StdPeriph_Driver/src/stm32f4xx_i2c.c ****   *            @arg I2C_EVENT_SLAVE_TRANSMITTER_SECONDADDRESS_MATCHED: EV1
1067:../Libraries/STM32F4xx_StdPeriph_Driver/src/stm32f4xx_i2c.c ****   *            @arg I2C_EVENT_SLAVE_RECEIVER_SECONDADDRESS_MATCHED: EV1
1068:../Libraries/STM32F4xx_StdPeriph_Driver/src/stm32f4xx_i2c.c ****   *            @arg I2C_EVENT_SLAVE_GENERALCALLADDRESS_MATCHED: EV1
1069:../Libraries/STM32F4xx_StdPeriph_Driver/src/stm32f4xx_i2c.c ****   *            @arg I2C_EVENT_SLAVE_BYTE_RECEIVED: EV2
1070:../Libraries/STM32F4xx_StdPeriph_Driver/src/stm32f4xx_i2c.c ****   *            @arg (I2C_EVENT_SLAVE_BYTE_RECEIVED | I2C_FLAG_DUALF): EV2
1071:../Libraries/STM32F4xx_StdPeriph_Driver/src/stm32f4xx_i2c.c ****   *            @arg (I2C_EVENT_SLAVE_BYTE_RECEIVED | I2C_FLAG_GENCALL): EV2
1072:../Libraries/STM32F4xx_StdPeriph_Driver/src/stm32f4xx_i2c.c ****   *            @arg I2C_EVENT_SLAVE_BYTE_TRANSMITTED: EV3
1073:../Libraries/STM32F4xx_StdPeriph_Driver/src/stm32f4xx_i2c.c ****   *            @arg (I2C_EVENT_SLAVE_BYTE_TRANSMITTED | I2C_FLAG_DUALF): EV3
1074:../Libraries/STM32F4xx_StdPeriph_Driver/src/stm32f4xx_i2c.c ****   *            @arg (I2C_EVENT_SLAVE_BYTE_TRANSMITTED | I2C_FLAG_GENCALL): EV3
1075:../Libraries/STM32F4xx_StdPeriph_Driver/src/stm32f4xx_i2c.c ****   *            @arg I2C_EVENT_SLAVE_ACK_FAILURE: EV3_2
1076:../Libraries/STM32F4xx_StdPeriph_Driver/src/stm32f4xx_i2c.c ****   *            @arg I2C_EVENT_SLAVE_STOP_DETECTED: EV4
1077:../Libraries/STM32F4xx_StdPeriph_Driver/src/stm32f4xx_i2c.c ****   *            @arg I2C_EVENT_MASTER_MODE_SELECT: EV5
1078:../Libraries/STM32F4xx_StdPeriph_Driver/src/stm32f4xx_i2c.c ****   *            @arg I2C_EVENT_MASTER_TRANSMITTER_MODE_SELECTED: EV6     
1079:../Libraries/STM32F4xx_StdPeriph_Driver/src/stm32f4xx_i2c.c ****   *            @arg I2C_EVENT_MASTER_RECEIVER_MODE_SELECTED: EV6
1080:../Libraries/STM32F4xx_StdPeriph_Driver/src/stm32f4xx_i2c.c ****   *            @arg I2C_EVENT_MASTER_BYTE_RECEIVED: EV7
1081:../Libraries/STM32F4xx_StdPeriph_Driver/src/stm32f4xx_i2c.c ****   *            @arg I2C_EVENT_MASTER_BYTE_TRANSMITTING: EV8
1082:../Libraries/STM32F4xx_StdPeriph_Driver/src/stm32f4xx_i2c.c ****   *            @arg I2C_EVENT_MASTER_BYTE_TRANSMITTED: EV8_2
1083:../Libraries/STM32F4xx_StdPeriph_Driver/src/stm32f4xx_i2c.c ****   *            @arg I2C_EVENT_MASTER_MODE_ADDRESS10: EV9
1084:../Libraries/STM32F4xx_StdPeriph_Driver/src/stm32f4xx_i2c.c ****   *     
1085:../Libraries/STM32F4xx_StdPeriph_Driver/src/stm32f4xx_i2c.c ****   * @note   For detailed description of Events, please refer to section I2C_Events
1086:../Libraries/STM32F4xx_StdPeriph_Driver/src/stm32f4xx_i2c.c ****   *         in stm32f4xx_i2c.h file.
1087:../Libraries/STM32F4xx_StdPeriph_Driver/src/stm32f4xx_i2c.c ****   *    
1088:../Libraries/STM32F4xx_StdPeriph_Driver/src/stm32f4xx_i2c.c ****   * @retval An ErrorStatus enumeration value:
1089:../Libraries/STM32F4xx_StdPeriph_Driver/src/stm32f4xx_i2c.c ****   *           - SUCCESS: Last event is equal to the I2C_EVENT
1090:../Libraries/STM32F4xx_StdPeriph_Driver/src/stm32f4xx_i2c.c ****   *           - ERROR: Last event is different from the I2C_EVENT
1091:../Libraries/STM32F4xx_StdPeriph_Driver/src/stm32f4xx_i2c.c ****   */
1092:../Libraries/STM32F4xx_StdPeriph_Driver/src/stm32f4xx_i2c.c **** ErrorStatus I2C_CheckEvent(I2C_TypeDef* I2Cx, uint32_t I2C_EVENT)
1093:../Libraries/STM32F4xx_StdPeriph_Driver/src/stm32f4xx_i2c.c **** {
ARM GAS  C:\Users\admin\AppData\Local\Temp\ccm61GQJ.s 			page 51


 1658              		.loc 1 1093 1 is_stmt 1 view -0
 1659              		.cfi_startproc
 1660              		@ args = 0, pretend = 0, frame = 0
 1661              		@ frame_needed = 0, uses_anonymous_args = 0
 1662              		@ link register save eliminated.
1094:../Libraries/STM32F4xx_StdPeriph_Driver/src/stm32f4xx_i2c.c ****   uint32_t lastevent = 0;
 1663              		.loc 1 1094 3 view .LVU395
1095:../Libraries/STM32F4xx_StdPeriph_Driver/src/stm32f4xx_i2c.c ****   uint32_t flag1 = 0, flag2 = 0;
 1664              		.loc 1 1095 3 view .LVU396
1096:../Libraries/STM32F4xx_StdPeriph_Driver/src/stm32f4xx_i2c.c ****   ErrorStatus status = ERROR;
 1665              		.loc 1 1096 3 view .LVU397
1097:../Libraries/STM32F4xx_StdPeriph_Driver/src/stm32f4xx_i2c.c **** 
1098:../Libraries/STM32F4xx_StdPeriph_Driver/src/stm32f4xx_i2c.c ****   /* Check the parameters */
1099:../Libraries/STM32F4xx_StdPeriph_Driver/src/stm32f4xx_i2c.c ****   assert_param(IS_I2C_ALL_PERIPH(I2Cx));
 1666              		.loc 1 1099 3 view .LVU398
1100:../Libraries/STM32F4xx_StdPeriph_Driver/src/stm32f4xx_i2c.c ****   assert_param(IS_I2C_EVENT(I2C_EVENT));
 1667              		.loc 1 1100 3 view .LVU399
1101:../Libraries/STM32F4xx_StdPeriph_Driver/src/stm32f4xx_i2c.c **** 
1102:../Libraries/STM32F4xx_StdPeriph_Driver/src/stm32f4xx_i2c.c ****   /* Read the I2Cx status register */
1103:../Libraries/STM32F4xx_StdPeriph_Driver/src/stm32f4xx_i2c.c ****   flag1 = I2Cx->SR1;
 1668              		.loc 1 1103 3 view .LVU400
 1669              	@ ../Libraries/STM32F4xx_StdPeriph_Driver/src/stm32f4xx_i2c.c:1103:   flag1 = I2Cx->SR1;
 1670              		.loc 1 1103 15 is_stmt 0 view .LVU401
 1671 0000 838A     		ldrh	r3, [r0, #20]	@, I2Cx_7(D)->SR1
 1672              	@ ../Libraries/STM32F4xx_StdPeriph_Driver/src/stm32f4xx_i2c.c:1104:   flag2 = I2Cx->SR2;
1104:../Libraries/STM32F4xx_StdPeriph_Driver/src/stm32f4xx_i2c.c ****   flag2 = I2Cx->SR2;
 1673              		.loc 1 1104 15 view .LVU402
 1674 0002 008B     		ldrh	r0, [r0, #24]	@, I2Cx_7(D)->SR2
 1675              	.LVL76:
 1676              	@ ../Libraries/STM32F4xx_StdPeriph_Driver/src/stm32f4xx_i2c.c:1103:   flag1 = I2Cx->SR1;
1103:../Libraries/STM32F4xx_StdPeriph_Driver/src/stm32f4xx_i2c.c ****   flag2 = I2Cx->SR2;
 1677              		.loc 1 1103 15 view .LVU403
 1678 0004 9BB2     		uxth	r3, r3	@ _1, I2Cx_7(D)->SR1
 1679              	.LVL77:
 1680              		.loc 1 1104 3 is_stmt 1 view .LVU404
1105:../Libraries/STM32F4xx_StdPeriph_Driver/src/stm32f4xx_i2c.c ****   flag2 = flag2 << 16;
 1681              		.loc 1 1105 3 view .LVU405
1106:../Libraries/STM32F4xx_StdPeriph_Driver/src/stm32f4xx_i2c.c **** 
1107:../Libraries/STM32F4xx_StdPeriph_Driver/src/stm32f4xx_i2c.c ****   /* Get the last event value from I2C status register */
1108:../Libraries/STM32F4xx_StdPeriph_Driver/src/stm32f4xx_i2c.c ****   lastevent = (flag1 | flag2) & FLAG_MASK;
 1682              		.loc 1 1108 3 view .LVU406
1109:../Libraries/STM32F4xx_StdPeriph_Driver/src/stm32f4xx_i2c.c **** 
1110:../Libraries/STM32F4xx_StdPeriph_Driver/src/stm32f4xx_i2c.c ****   /* Check whether the last event contains the I2C_EVENT */
1111:../Libraries/STM32F4xx_StdPeriph_Driver/src/stm32f4xx_i2c.c ****   if ((lastevent & I2C_EVENT) == I2C_EVENT)
 1683              		.loc 1 1111 3 view .LVU407
1112:../Libraries/STM32F4xx_StdPeriph_Driver/src/stm32f4xx_i2c.c ****   {
1113:../Libraries/STM32F4xx_StdPeriph_Driver/src/stm32f4xx_i2c.c ****     /* SUCCESS: last event is equal to I2C_EVENT */
1114:../Libraries/STM32F4xx_StdPeriph_Driver/src/stm32f4xx_i2c.c ****     status = SUCCESS;
1115:../Libraries/STM32F4xx_StdPeriph_Driver/src/stm32f4xx_i2c.c ****   }
1116:../Libraries/STM32F4xx_StdPeriph_Driver/src/stm32f4xx_i2c.c ****   else
1117:../Libraries/STM32F4xx_StdPeriph_Driver/src/stm32f4xx_i2c.c ****   {
1118:../Libraries/STM32F4xx_StdPeriph_Driver/src/stm32f4xx_i2c.c ****     /* ERROR: last event is different from I2C_EVENT */
1119:../Libraries/STM32F4xx_StdPeriph_Driver/src/stm32f4xx_i2c.c ****     status = ERROR;
1120:../Libraries/STM32F4xx_StdPeriph_Driver/src/stm32f4xx_i2c.c ****   }
1121:../Libraries/STM32F4xx_StdPeriph_Driver/src/stm32f4xx_i2c.c ****   /* Return status */
1122:../Libraries/STM32F4xx_StdPeriph_Driver/src/stm32f4xx_i2c.c ****   return status;
 1684              		.loc 1 1122 3 view .LVU408
ARM GAS  C:\Users\admin\AppData\Local\Temp\ccm61GQJ.s 			page 52


 1685              	@ ../Libraries/STM32F4xx_StdPeriph_Driver/src/stm32f4xx_i2c.c:1108:   lastevent = (flag1 | flag2) &
1108:../Libraries/STM32F4xx_StdPeriph_Driver/src/stm32f4xx_i2c.c **** 
 1686              		.loc 1 1108 22 is_stmt 0 view .LVU409
 1687 0006 43EA0043 		orr	r3, r3, r0, lsl #16	@ tmp131, _1, I2Cx_7(D)->SR2,
 1688              	.LVL78:
 1689              	@ ../Libraries/STM32F4xx_StdPeriph_Driver/src/stm32f4xx_i2c.c:1111:   if ((lastevent & I2C_EVENT) =
1111:../Libraries/STM32F4xx_StdPeriph_Driver/src/stm32f4xx_i2c.c ****   {
 1690              		.loc 1 1111 18 view .LVU410
 1691 000a 0B40     		ands	r3, r3, r1	@, tmp132, tmp131, I2C_EVENT
 1692 000c 23F07F43 		bic	r3, r3, #-16777216	@ tmp133, tmp132,
 1693              	@ ../Libraries/STM32F4xx_StdPeriph_Driver/src/stm32f4xx_i2c.c:1123: }
1123:../Libraries/STM32F4xx_StdPeriph_Driver/src/stm32f4xx_i2c.c **** }
 1694              		.loc 1 1123 1 view .LVU411
 1695 0010 581A     		subs	r0, r3, r1	@, tmp133, I2C_EVENT
 1696              	.LVL79:
 1697              		.loc 1 1123 1 view .LVU412
 1698 0012 B0FA80F0 		clz	r0, r0	@,
 1699 0016 4009     		lsrs	r0, r0, #5	@,,
 1700 0018 7047     		bx	lr	@
 1701              		.cfi_endproc
 1702              	.LFE137:
 1703              		.size	I2C_CheckEvent, .-I2C_CheckEvent
 1704 001a 00BF     		.section	.text.I2C_GetLastEvent,"ax",%progbits
 1705              		.align	1
 1706              		.p2align 2,,3
 1707              		.global	I2C_GetLastEvent
 1708              		.syntax unified
 1709              		.thumb
 1710              		.thumb_func
 1711              		.type	I2C_GetLastEvent, %function
 1712              	I2C_GetLastEvent:
 1713              	.LVL80:
 1714              	.LFB138:
1124:../Libraries/STM32F4xx_StdPeriph_Driver/src/stm32f4xx_i2c.c **** 
1125:../Libraries/STM32F4xx_StdPeriph_Driver/src/stm32f4xx_i2c.c **** /*
1126:../Libraries/STM32F4xx_StdPeriph_Driver/src/stm32f4xx_i2c.c ****  ===============================================================================
1127:../Libraries/STM32F4xx_StdPeriph_Driver/src/stm32f4xx_i2c.c ****                           2. Advanced state monitoring                   
1128:../Libraries/STM32F4xx_StdPeriph_Driver/src/stm32f4xx_i2c.c ****  ===============================================================================  
1129:../Libraries/STM32F4xx_StdPeriph_Driver/src/stm32f4xx_i2c.c ****  */
1130:../Libraries/STM32F4xx_StdPeriph_Driver/src/stm32f4xx_i2c.c **** 
1131:../Libraries/STM32F4xx_StdPeriph_Driver/src/stm32f4xx_i2c.c **** /**
1132:../Libraries/STM32F4xx_StdPeriph_Driver/src/stm32f4xx_i2c.c ****   * @brief  Returns the last I2Cx Event.
1133:../Libraries/STM32F4xx_StdPeriph_Driver/src/stm32f4xx_i2c.c ****   * @param  I2Cx: where x can be 1, 2 or 3 to select the I2C peripheral.
1134:../Libraries/STM32F4xx_StdPeriph_Driver/src/stm32f4xx_i2c.c ****   *     
1135:../Libraries/STM32F4xx_StdPeriph_Driver/src/stm32f4xx_i2c.c ****   * @note   For detailed description of Events, please refer to section I2C_Events
1136:../Libraries/STM32F4xx_StdPeriph_Driver/src/stm32f4xx_i2c.c ****   *         in stm32f4xx_i2c.h file.
1137:../Libraries/STM32F4xx_StdPeriph_Driver/src/stm32f4xx_i2c.c ****   *    
1138:../Libraries/STM32F4xx_StdPeriph_Driver/src/stm32f4xx_i2c.c ****   * @retval The last event
1139:../Libraries/STM32F4xx_StdPeriph_Driver/src/stm32f4xx_i2c.c ****   */
1140:../Libraries/STM32F4xx_StdPeriph_Driver/src/stm32f4xx_i2c.c **** uint32_t I2C_GetLastEvent(I2C_TypeDef* I2Cx)
1141:../Libraries/STM32F4xx_StdPeriph_Driver/src/stm32f4xx_i2c.c **** {
 1715              		.loc 1 1141 1 is_stmt 1 view -0
 1716              		.cfi_startproc
 1717              		@ args = 0, pretend = 0, frame = 0
 1718              		@ frame_needed = 0, uses_anonymous_args = 0
 1719              		@ link register save eliminated.
1142:../Libraries/STM32F4xx_StdPeriph_Driver/src/stm32f4xx_i2c.c ****   uint32_t lastevent = 0;
ARM GAS  C:\Users\admin\AppData\Local\Temp\ccm61GQJ.s 			page 53


 1720              		.loc 1 1142 3 view .LVU414
1143:../Libraries/STM32F4xx_StdPeriph_Driver/src/stm32f4xx_i2c.c ****   uint32_t flag1 = 0, flag2 = 0;
 1721              		.loc 1 1143 3 view .LVU415
1144:../Libraries/STM32F4xx_StdPeriph_Driver/src/stm32f4xx_i2c.c **** 
1145:../Libraries/STM32F4xx_StdPeriph_Driver/src/stm32f4xx_i2c.c ****   /* Check the parameters */
1146:../Libraries/STM32F4xx_StdPeriph_Driver/src/stm32f4xx_i2c.c ****   assert_param(IS_I2C_ALL_PERIPH(I2Cx));
 1722              		.loc 1 1146 3 view .LVU416
1147:../Libraries/STM32F4xx_StdPeriph_Driver/src/stm32f4xx_i2c.c **** 
1148:../Libraries/STM32F4xx_StdPeriph_Driver/src/stm32f4xx_i2c.c ****   /* Read the I2Cx status register */
1149:../Libraries/STM32F4xx_StdPeriph_Driver/src/stm32f4xx_i2c.c ****   flag1 = I2Cx->SR1;
 1723              		.loc 1 1149 3 view .LVU417
 1724              	@ ../Libraries/STM32F4xx_StdPeriph_Driver/src/stm32f4xx_i2c.c:1149:   flag1 = I2Cx->SR1;
 1725              		.loc 1 1149 15 is_stmt 0 view .LVU418
 1726 0000 838A     		ldrh	r3, [r0, #20]	@, I2Cx_5(D)->SR1
 1727              	@ ../Libraries/STM32F4xx_StdPeriph_Driver/src/stm32f4xx_i2c.c:1150:   flag2 = I2Cx->SR2;
1150:../Libraries/STM32F4xx_StdPeriph_Driver/src/stm32f4xx_i2c.c ****   flag2 = I2Cx->SR2;
 1728              		.loc 1 1150 15 view .LVU419
 1729 0002 028B     		ldrh	r2, [r0, #24]	@, I2Cx_5(D)->SR2
 1730              	@ ../Libraries/STM32F4xx_StdPeriph_Driver/src/stm32f4xx_i2c.c:1149:   flag1 = I2Cx->SR1;
1149:../Libraries/STM32F4xx_StdPeriph_Driver/src/stm32f4xx_i2c.c ****   flag2 = I2Cx->SR2;
 1731              		.loc 1 1149 15 view .LVU420
 1732 0004 98B2     		uxth	r0, r3	@ _1, I2Cx_5(D)->SR1
 1733              	.LVL81:
 1734              		.loc 1 1150 3 is_stmt 1 view .LVU421
1151:../Libraries/STM32F4xx_StdPeriph_Driver/src/stm32f4xx_i2c.c ****   flag2 = flag2 << 16;
 1735              		.loc 1 1151 3 view .LVU422
1152:../Libraries/STM32F4xx_StdPeriph_Driver/src/stm32f4xx_i2c.c **** 
1153:../Libraries/STM32F4xx_StdPeriph_Driver/src/stm32f4xx_i2c.c ****   /* Get the last event value from I2C status register */
1154:../Libraries/STM32F4xx_StdPeriph_Driver/src/stm32f4xx_i2c.c ****   lastevent = (flag1 | flag2) & FLAG_MASK;
 1736              		.loc 1 1154 3 view .LVU423
1155:../Libraries/STM32F4xx_StdPeriph_Driver/src/stm32f4xx_i2c.c **** 
1156:../Libraries/STM32F4xx_StdPeriph_Driver/src/stm32f4xx_i2c.c ****   /* Return status */
1157:../Libraries/STM32F4xx_StdPeriph_Driver/src/stm32f4xx_i2c.c ****   return lastevent;
 1737              		.loc 1 1157 3 view .LVU424
 1738              	@ ../Libraries/STM32F4xx_StdPeriph_Driver/src/stm32f4xx_i2c.c:1154:   lastevent = (flag1 | flag2) &
1154:../Libraries/STM32F4xx_StdPeriph_Driver/src/stm32f4xx_i2c.c **** 
 1739              		.loc 1 1154 22 is_stmt 0 view .LVU425
 1740 0006 40EA0240 		orr	r0, r0, r2, lsl #16	@ tmp127, _1, I2Cx_5(D)->SR2,
 1741              	.LVL82:
 1742              	@ ../Libraries/STM32F4xx_StdPeriph_Driver/src/stm32f4xx_i2c.c:1158: }
1158:../Libraries/STM32F4xx_StdPeriph_Driver/src/stm32f4xx_i2c.c **** }
 1743              		.loc 1 1158 1 view .LVU426
 1744 000a 20F07F40 		bic	r0, r0, #-16777216	@, tmp127,
 1745 000e 7047     		bx	lr	@
 1746              		.cfi_endproc
 1747              	.LFE138:
 1748              		.size	I2C_GetLastEvent, .-I2C_GetLastEvent
 1749              		.section	.text.I2C_GetFlagStatus,"ax",%progbits
 1750              		.align	1
 1751              		.p2align 2,,3
 1752              		.global	I2C_GetFlagStatus
 1753              		.syntax unified
 1754              		.thumb
 1755              		.thumb_func
 1756              		.type	I2C_GetFlagStatus, %function
 1757              	I2C_GetFlagStatus:
 1758              	.LVL83:
ARM GAS  C:\Users\admin\AppData\Local\Temp\ccm61GQJ.s 			page 54


 1759              	.LFB139:
1159:../Libraries/STM32F4xx_StdPeriph_Driver/src/stm32f4xx_i2c.c **** 
1160:../Libraries/STM32F4xx_StdPeriph_Driver/src/stm32f4xx_i2c.c **** /*
1161:../Libraries/STM32F4xx_StdPeriph_Driver/src/stm32f4xx_i2c.c ****  ===============================================================================
1162:../Libraries/STM32F4xx_StdPeriph_Driver/src/stm32f4xx_i2c.c ****                           3. Flag-based state monitoring                   
1163:../Libraries/STM32F4xx_StdPeriph_Driver/src/stm32f4xx_i2c.c ****  ===============================================================================  
1164:../Libraries/STM32F4xx_StdPeriph_Driver/src/stm32f4xx_i2c.c ****  */
1165:../Libraries/STM32F4xx_StdPeriph_Driver/src/stm32f4xx_i2c.c **** 
1166:../Libraries/STM32F4xx_StdPeriph_Driver/src/stm32f4xx_i2c.c **** /**
1167:../Libraries/STM32F4xx_StdPeriph_Driver/src/stm32f4xx_i2c.c ****   * @brief  Checks whether the specified I2C flag is set or not.
1168:../Libraries/STM32F4xx_StdPeriph_Driver/src/stm32f4xx_i2c.c ****   * @param  I2Cx: where x can be 1, 2 or 3 to select the I2C peripheral.
1169:../Libraries/STM32F4xx_StdPeriph_Driver/src/stm32f4xx_i2c.c ****   * @param  I2C_FLAG: specifies the flag to check. 
1170:../Libraries/STM32F4xx_StdPeriph_Driver/src/stm32f4xx_i2c.c ****   *          This parameter can be one of the following values:
1171:../Libraries/STM32F4xx_StdPeriph_Driver/src/stm32f4xx_i2c.c ****   *            @arg I2C_FLAG_DUALF: Dual flag (Slave mode)
1172:../Libraries/STM32F4xx_StdPeriph_Driver/src/stm32f4xx_i2c.c ****   *            @arg I2C_FLAG_SMBHOST: SMBus host header (Slave mode)
1173:../Libraries/STM32F4xx_StdPeriph_Driver/src/stm32f4xx_i2c.c ****   *            @arg I2C_FLAG_SMBDEFAULT: SMBus default header (Slave mode)
1174:../Libraries/STM32F4xx_StdPeriph_Driver/src/stm32f4xx_i2c.c ****   *            @arg I2C_FLAG_GENCALL: General call header flag (Slave mode)
1175:../Libraries/STM32F4xx_StdPeriph_Driver/src/stm32f4xx_i2c.c ****   *            @arg I2C_FLAG_TRA: Transmitter/Receiver flag
1176:../Libraries/STM32F4xx_StdPeriph_Driver/src/stm32f4xx_i2c.c ****   *            @arg I2C_FLAG_BUSY: Bus busy flag
1177:../Libraries/STM32F4xx_StdPeriph_Driver/src/stm32f4xx_i2c.c ****   *            @arg I2C_FLAG_MSL: Master/Slave flag
1178:../Libraries/STM32F4xx_StdPeriph_Driver/src/stm32f4xx_i2c.c ****   *            @arg I2C_FLAG_SMBALERT: SMBus Alert flag
1179:../Libraries/STM32F4xx_StdPeriph_Driver/src/stm32f4xx_i2c.c ****   *            @arg I2C_FLAG_TIMEOUT: Timeout or Tlow error flag
1180:../Libraries/STM32F4xx_StdPeriph_Driver/src/stm32f4xx_i2c.c ****   *            @arg I2C_FLAG_PECERR: PEC error in reception flag
1181:../Libraries/STM32F4xx_StdPeriph_Driver/src/stm32f4xx_i2c.c ****   *            @arg I2C_FLAG_OVR: Overrun/Underrun flag (Slave mode)
1182:../Libraries/STM32F4xx_StdPeriph_Driver/src/stm32f4xx_i2c.c ****   *            @arg I2C_FLAG_AF: Acknowledge failure flag
1183:../Libraries/STM32F4xx_StdPeriph_Driver/src/stm32f4xx_i2c.c ****   *            @arg I2C_FLAG_ARLO: Arbitration lost flag (Master mode)
1184:../Libraries/STM32F4xx_StdPeriph_Driver/src/stm32f4xx_i2c.c ****   *            @arg I2C_FLAG_BERR: Bus error flag
1185:../Libraries/STM32F4xx_StdPeriph_Driver/src/stm32f4xx_i2c.c ****   *            @arg I2C_FLAG_TXE: Data register empty flag (Transmitter)
1186:../Libraries/STM32F4xx_StdPeriph_Driver/src/stm32f4xx_i2c.c ****   *            @arg I2C_FLAG_RXNE: Data register not empty (Receiver) flag
1187:../Libraries/STM32F4xx_StdPeriph_Driver/src/stm32f4xx_i2c.c ****   *            @arg I2C_FLAG_STOPF: Stop detection flag (Slave mode)
1188:../Libraries/STM32F4xx_StdPeriph_Driver/src/stm32f4xx_i2c.c ****   *            @arg I2C_FLAG_ADD10: 10-bit header sent flag (Master mode)
1189:../Libraries/STM32F4xx_StdPeriph_Driver/src/stm32f4xx_i2c.c ****   *            @arg I2C_FLAG_BTF: Byte transfer finished flag
1190:../Libraries/STM32F4xx_StdPeriph_Driver/src/stm32f4xx_i2c.c ****   *            @arg I2C_FLAG_ADDR: Address sent flag (Master mode) "ADSL"
1191:../Libraries/STM32F4xx_StdPeriph_Driver/src/stm32f4xx_i2c.c ****   *                                Address matched flag (Slave mode)"ENDAD"
1192:../Libraries/STM32F4xx_StdPeriph_Driver/src/stm32f4xx_i2c.c ****   *            @arg I2C_FLAG_SB: Start bit flag (Master mode)
1193:../Libraries/STM32F4xx_StdPeriph_Driver/src/stm32f4xx_i2c.c ****   * @retval The new state of I2C_FLAG (SET or RESET).
1194:../Libraries/STM32F4xx_StdPeriph_Driver/src/stm32f4xx_i2c.c ****   */
1195:../Libraries/STM32F4xx_StdPeriph_Driver/src/stm32f4xx_i2c.c **** FlagStatus I2C_GetFlagStatus(I2C_TypeDef* I2Cx, uint32_t I2C_FLAG)
1196:../Libraries/STM32F4xx_StdPeriph_Driver/src/stm32f4xx_i2c.c **** {
 1760              		.loc 1 1196 1 is_stmt 1 view -0
 1761              		.cfi_startproc
 1762              		@ args = 0, pretend = 0, frame = 8
 1763              		@ frame_needed = 0, uses_anonymous_args = 0
 1764              		@ link register save eliminated.
1197:../Libraries/STM32F4xx_StdPeriph_Driver/src/stm32f4xx_i2c.c ****   FlagStatus bitstatus = RESET;
 1765              		.loc 1 1197 3 view .LVU428
1198:../Libraries/STM32F4xx_StdPeriph_Driver/src/stm32f4xx_i2c.c ****   __IO uint32_t i2creg = 0, i2cxbase = 0;
 1766              		.loc 1 1198 3 view .LVU429
 1767              	@ ../Libraries/STM32F4xx_StdPeriph_Driver/src/stm32f4xx_i2c.c:1196: {
1196:../Libraries/STM32F4xx_StdPeriph_Driver/src/stm32f4xx_i2c.c ****   FlagStatus bitstatus = RESET;
 1768              		.loc 1 1196 1 is_stmt 0 view .LVU430
 1769 0000 82B0     		sub	sp, sp, #8	@,,
 1770              		.cfi_def_cfa_offset 8
 1771              	@ ../Libraries/STM32F4xx_StdPeriph_Driver/src/stm32f4xx_i2c.c:1198:   __IO uint32_t i2creg = 0, i2c
 1772              		.loc 1 1198 17 view .LVU431
 1773 0002 0023     		movs	r3, #0	@ tmp129,
 1774              	@ ../Libraries/STM32F4xx_StdPeriph_Driver/src/stm32f4xx_i2c.c:1208:   i2creg = I2C_FLAG >> 28;
ARM GAS  C:\Users\admin\AppData\Local\Temp\ccm61GQJ.s 			page 55


1199:../Libraries/STM32F4xx_StdPeriph_Driver/src/stm32f4xx_i2c.c **** 
1200:../Libraries/STM32F4xx_StdPeriph_Driver/src/stm32f4xx_i2c.c ****   /* Check the parameters */
1201:../Libraries/STM32F4xx_StdPeriph_Driver/src/stm32f4xx_i2c.c ****   assert_param(IS_I2C_ALL_PERIPH(I2Cx));
1202:../Libraries/STM32F4xx_StdPeriph_Driver/src/stm32f4xx_i2c.c ****   assert_param(IS_I2C_GET_FLAG(I2C_FLAG));
1203:../Libraries/STM32F4xx_StdPeriph_Driver/src/stm32f4xx_i2c.c **** 
1204:../Libraries/STM32F4xx_StdPeriph_Driver/src/stm32f4xx_i2c.c ****   /* Get the I2Cx peripheral base address */
1205:../Libraries/STM32F4xx_StdPeriph_Driver/src/stm32f4xx_i2c.c ****   i2cxbase = (uint32_t)I2Cx;
1206:../Libraries/STM32F4xx_StdPeriph_Driver/src/stm32f4xx_i2c.c ****   
1207:../Libraries/STM32F4xx_StdPeriph_Driver/src/stm32f4xx_i2c.c ****   /* Read flag register index */
1208:../Libraries/STM32F4xx_StdPeriph_Driver/src/stm32f4xx_i2c.c ****   i2creg = I2C_FLAG >> 28;
 1775              		.loc 1 1208 21 view .LVU432
 1776 0004 0A0F     		lsrs	r2, r1, #28	@ _2, I2C_FLAG,
 1777              	@ ../Libraries/STM32F4xx_StdPeriph_Driver/src/stm32f4xx_i2c.c:1198:   __IO uint32_t i2creg = 0, i2c
1198:../Libraries/STM32F4xx_StdPeriph_Driver/src/stm32f4xx_i2c.c **** 
 1778              		.loc 1 1198 17 view .LVU433
 1779 0006 0093     		str	r3, [sp]	@ tmp129, i2creg
 1780              	@ ../Libraries/STM32F4xx_StdPeriph_Driver/src/stm32f4xx_i2c.c:1198:   __IO uint32_t i2creg = 0, i2c
1198:../Libraries/STM32F4xx_StdPeriph_Driver/src/stm32f4xx_i2c.c **** 
 1781              		.loc 1 1198 29 view .LVU434
 1782 0008 0193     		str	r3, [sp, #4]	@ tmp129, i2cxbase
1201:../Libraries/STM32F4xx_StdPeriph_Driver/src/stm32f4xx_i2c.c ****   assert_param(IS_I2C_GET_FLAG(I2C_FLAG));
 1783              		.loc 1 1201 3 is_stmt 1 view .LVU435
1202:../Libraries/STM32F4xx_StdPeriph_Driver/src/stm32f4xx_i2c.c **** 
 1784              		.loc 1 1202 3 view .LVU436
1205:../Libraries/STM32F4xx_StdPeriph_Driver/src/stm32f4xx_i2c.c ****   
 1785              		.loc 1 1205 3 view .LVU437
 1786              	@ ../Libraries/STM32F4xx_StdPeriph_Driver/src/stm32f4xx_i2c.c:1205:   i2cxbase = (uint32_t)I2Cx;
1205:../Libraries/STM32F4xx_StdPeriph_Driver/src/stm32f4xx_i2c.c ****   
 1787              		.loc 1 1205 12 is_stmt 0 view .LVU438
 1788 000a 0190     		str	r0, [sp, #4]	@ I2Cx, i2cxbase
 1789              		.loc 1 1208 3 is_stmt 1 view .LVU439
 1790              	@ ../Libraries/STM32F4xx_StdPeriph_Driver/src/stm32f4xx_i2c.c:1208:   i2creg = I2C_FLAG >> 28;
 1791              		.loc 1 1208 10 is_stmt 0 view .LVU440
 1792 000c 0092     		str	r2, [sp]	@ _2, i2creg
1209:../Libraries/STM32F4xx_StdPeriph_Driver/src/stm32f4xx_i2c.c ****   
1210:../Libraries/STM32F4xx_StdPeriph_Driver/src/stm32f4xx_i2c.c ****   /* Get bit[23:0] of the flag */
1211:../Libraries/STM32F4xx_StdPeriph_Driver/src/stm32f4xx_i2c.c ****   I2C_FLAG &= FLAG_MASK;
 1793              		.loc 1 1211 3 is_stmt 1 view .LVU441
 1794              	@ ../Libraries/STM32F4xx_StdPeriph_Driver/src/stm32f4xx_i2c.c:1213:   if(i2creg != 0)
1212:../Libraries/STM32F4xx_StdPeriph_Driver/src/stm32f4xx_i2c.c ****   
1213:../Libraries/STM32F4xx_StdPeriph_Driver/src/stm32f4xx_i2c.c ****   if(i2creg != 0)
 1795              		.loc 1 1213 13 is_stmt 0 view .LVU442
 1796 000e 009B     		ldr	r3, [sp]	@ i2creg.6_3, i2creg
 1797              	@ ../Libraries/STM32F4xx_StdPeriph_Driver/src/stm32f4xx_i2c.c:1211:   I2C_FLAG &= FLAG_MASK;
1211:../Libraries/STM32F4xx_StdPeriph_Driver/src/stm32f4xx_i2c.c ****   
 1798              		.loc 1 1211 12 view .LVU443
 1799 0010 21F07F41 		bic	r1, r1, #-16777216	@ I2C_FLAG, I2C_FLAG,
 1800              	.LVL84:
 1801              		.loc 1 1213 3 is_stmt 1 view .LVU444
 1802              	@ ../Libraries/STM32F4xx_StdPeriph_Driver/src/stm32f4xx_i2c.c:1213:   if(i2creg != 0)
 1803              		.loc 1 1213 5 is_stmt 0 view .LVU445
 1804 0014 53B1     		cbz	r3, .L95	@ i2creg.6_3,
1214:../Libraries/STM32F4xx_StdPeriph_Driver/src/stm32f4xx_i2c.c ****   {
1215:../Libraries/STM32F4xx_StdPeriph_Driver/src/stm32f4xx_i2c.c ****     /* Get the I2Cx SR1 register address */
1216:../Libraries/STM32F4xx_StdPeriph_Driver/src/stm32f4xx_i2c.c ****     i2cxbase += 0x14;
 1805              		.loc 1 1216 5 is_stmt 1 view .LVU446
 1806              	@ ../Libraries/STM32F4xx_StdPeriph_Driver/src/stm32f4xx_i2c.c:1216:     i2cxbase += 0x14;
ARM GAS  C:\Users\admin\AppData\Local\Temp\ccm61GQJ.s 			page 56


 1807              		.loc 1 1216 14 is_stmt 0 view .LVU447
 1808 0016 019B     		ldr	r3, [sp, #4]	@ i2cxbase.7_4, i2cxbase
 1809 0018 1433     		adds	r3, r3, #20	@ _5, i2cxbase.7_4,
 1810 001a 0193     		str	r3, [sp, #4]	@ _5, i2cxbase
 1811              	.L96:
1217:../Libraries/STM32F4xx_StdPeriph_Driver/src/stm32f4xx_i2c.c ****   }
1218:../Libraries/STM32F4xx_StdPeriph_Driver/src/stm32f4xx_i2c.c ****   else
1219:../Libraries/STM32F4xx_StdPeriph_Driver/src/stm32f4xx_i2c.c ****   {
1220:../Libraries/STM32F4xx_StdPeriph_Driver/src/stm32f4xx_i2c.c ****     /* Flag in I2Cx SR2 Register */
1221:../Libraries/STM32F4xx_StdPeriph_Driver/src/stm32f4xx_i2c.c ****     I2C_FLAG = (uint32_t)(I2C_FLAG >> 16);
1222:../Libraries/STM32F4xx_StdPeriph_Driver/src/stm32f4xx_i2c.c ****     /* Get the I2Cx SR2 register address */
1223:../Libraries/STM32F4xx_StdPeriph_Driver/src/stm32f4xx_i2c.c ****     i2cxbase += 0x18;
1224:../Libraries/STM32F4xx_StdPeriph_Driver/src/stm32f4xx_i2c.c ****   }
1225:../Libraries/STM32F4xx_StdPeriph_Driver/src/stm32f4xx_i2c.c ****   
1226:../Libraries/STM32F4xx_StdPeriph_Driver/src/stm32f4xx_i2c.c ****   if(((*(__IO uint32_t *)i2cxbase) & I2C_FLAG) != (uint32_t)RESET)
 1812              		.loc 1 1226 3 is_stmt 1 view .LVU448
 1813              	@ ../Libraries/STM32F4xx_StdPeriph_Driver/src/stm32f4xx_i2c.c:1226:   if(((*(__IO uint32_t *)i2cxba
 1814              		.loc 1 1226 9 is_stmt 0 view .LVU449
 1815 001c 019B     		ldr	r3, [sp, #4]	@ i2cxbase.9_8, i2cxbase
 1816              	@ ../Libraries/STM32F4xx_StdPeriph_Driver/src/stm32f4xx_i2c.c:1226:   if(((*(__IO uint32_t *)i2cxba
 1817              		.loc 1 1226 8 view .LVU450
 1818 001e 1B68     		ldr	r3, [r3]	@ _10, *i2cxbase.10_9
 1819              	.LVL85:
1227:../Libraries/STM32F4xx_StdPeriph_Driver/src/stm32f4xx_i2c.c ****   {
1228:../Libraries/STM32F4xx_StdPeriph_Driver/src/stm32f4xx_i2c.c ****     /* I2C_FLAG is set */
1229:../Libraries/STM32F4xx_StdPeriph_Driver/src/stm32f4xx_i2c.c ****     bitstatus = SET;
1230:../Libraries/STM32F4xx_StdPeriph_Driver/src/stm32f4xx_i2c.c ****   }
1231:../Libraries/STM32F4xx_StdPeriph_Driver/src/stm32f4xx_i2c.c ****   else
1232:../Libraries/STM32F4xx_StdPeriph_Driver/src/stm32f4xx_i2c.c ****   {
1233:../Libraries/STM32F4xx_StdPeriph_Driver/src/stm32f4xx_i2c.c ****     /* I2C_FLAG is reset */
1234:../Libraries/STM32F4xx_StdPeriph_Driver/src/stm32f4xx_i2c.c ****     bitstatus = RESET;
1235:../Libraries/STM32F4xx_StdPeriph_Driver/src/stm32f4xx_i2c.c ****   }
1236:../Libraries/STM32F4xx_StdPeriph_Driver/src/stm32f4xx_i2c.c ****   
1237:../Libraries/STM32F4xx_StdPeriph_Driver/src/stm32f4xx_i2c.c ****   /* Return the I2C_FLAG status */
1238:../Libraries/STM32F4xx_StdPeriph_Driver/src/stm32f4xx_i2c.c ****   return  bitstatus;
 1820              		.loc 1 1238 3 is_stmt 1 view .LVU451
 1821              	@ ../Libraries/STM32F4xx_StdPeriph_Driver/src/stm32f4xx_i2c.c:1226:   if(((*(__IO uint32_t *)i2cxba
1226:../Libraries/STM32F4xx_StdPeriph_Driver/src/stm32f4xx_i2c.c ****   {
 1822              		.loc 1 1226 5 is_stmt 0 view .LVU452
 1823 0020 0B42     		tst	r3, r1	@ _10, I2C_FLAG
 1824              	@ ../Libraries/STM32F4xx_StdPeriph_Driver/src/stm32f4xx_i2c.c:1239: }
1239:../Libraries/STM32F4xx_StdPeriph_Driver/src/stm32f4xx_i2c.c **** }
 1825              		.loc 1 1239 1 view .LVU453
 1826 0022 14BF     		ite	ne
 1827 0024 0120     		movne	r0, #1	@,
 1828              	.LVL86:
 1829              		.loc 1 1239 1 view .LVU454
 1830 0026 0020     		moveq	r0, #0	@,
 1831 0028 02B0     		add	sp, sp, #8	@,,
 1832              		.cfi_remember_state
 1833              		.cfi_def_cfa_offset 0
 1834              		@ sp needed	@
 1835 002a 7047     		bx	lr	@
 1836              	.LVL87:
 1837              	.L95:
 1838              		.cfi_restore_state
1221:../Libraries/STM32F4xx_StdPeriph_Driver/src/stm32f4xx_i2c.c ****     /* Get the I2Cx SR2 register address */
ARM GAS  C:\Users\admin\AppData\Local\Temp\ccm61GQJ.s 			page 57


 1839              		.loc 1 1221 5 is_stmt 1 view .LVU455
 1840              	@ ../Libraries/STM32F4xx_StdPeriph_Driver/src/stm32f4xx_i2c.c:1223:     i2cxbase += 0x18;
1223:../Libraries/STM32F4xx_StdPeriph_Driver/src/stm32f4xx_i2c.c ****   }
 1841              		.loc 1 1223 14 is_stmt 0 view .LVU456
 1842 002c 019B     		ldr	r3, [sp, #4]	@ i2cxbase.8_6, i2cxbase
 1843 002e 1833     		adds	r3, r3, #24	@ _7, i2cxbase.8_6,
 1844              	@ ../Libraries/STM32F4xx_StdPeriph_Driver/src/stm32f4xx_i2c.c:1221:     I2C_FLAG = (uint32_t)(I2C_F
1221:../Libraries/STM32F4xx_StdPeriph_Driver/src/stm32f4xx_i2c.c ****     /* Get the I2Cx SR2 register address */
 1845              		.loc 1 1221 14 view .LVU457
 1846 0030 090C     		lsrs	r1, r1, #16	@ I2C_FLAG, I2C_FLAG,
 1847              	.LVL88:
1223:../Libraries/STM32F4xx_StdPeriph_Driver/src/stm32f4xx_i2c.c ****   }
 1848              		.loc 1 1223 5 is_stmt 1 view .LVU458
 1849              	@ ../Libraries/STM32F4xx_StdPeriph_Driver/src/stm32f4xx_i2c.c:1223:     i2cxbase += 0x18;
1223:../Libraries/STM32F4xx_StdPeriph_Driver/src/stm32f4xx_i2c.c ****   }
 1850              		.loc 1 1223 14 is_stmt 0 view .LVU459
 1851 0032 0193     		str	r3, [sp, #4]	@ _7, i2cxbase
 1852 0034 F2E7     		b	.L96		@
 1853              		.cfi_endproc
 1854              	.LFE139:
 1855              		.size	I2C_GetFlagStatus, .-I2C_GetFlagStatus
 1856 0036 00BF     		.section	.text.I2C_ClearFlag,"ax",%progbits
 1857              		.align	1
 1858              		.p2align 2,,3
 1859              		.global	I2C_ClearFlag
 1860              		.syntax unified
 1861              		.thumb
 1862              		.thumb_func
 1863              		.type	I2C_ClearFlag, %function
 1864              	I2C_ClearFlag:
 1865              	.LVL89:
 1866              	.LFB140:
1240:../Libraries/STM32F4xx_StdPeriph_Driver/src/stm32f4xx_i2c.c **** 
1241:../Libraries/STM32F4xx_StdPeriph_Driver/src/stm32f4xx_i2c.c **** /**
1242:../Libraries/STM32F4xx_StdPeriph_Driver/src/stm32f4xx_i2c.c ****   * @brief  Clears the I2Cx's pending flags.
1243:../Libraries/STM32F4xx_StdPeriph_Driver/src/stm32f4xx_i2c.c ****   * @param  I2Cx: where x can be 1, 2 or 3 to select the I2C peripheral.
1244:../Libraries/STM32F4xx_StdPeriph_Driver/src/stm32f4xx_i2c.c ****   * @param  I2C_FLAG: specifies the flag to clear. 
1245:../Libraries/STM32F4xx_StdPeriph_Driver/src/stm32f4xx_i2c.c ****   *          This parameter can be any combination of the following values:
1246:../Libraries/STM32F4xx_StdPeriph_Driver/src/stm32f4xx_i2c.c ****   *            @arg I2C_FLAG_SMBALERT: SMBus Alert flag
1247:../Libraries/STM32F4xx_StdPeriph_Driver/src/stm32f4xx_i2c.c ****   *            @arg I2C_FLAG_TIMEOUT: Timeout or Tlow error flag
