ARM GAS  C:\Users\admin\AppData\Local\Temp\ccfajY9A.s 			page 1


   1              		.cpu cortex-m4
   2              		.arch armv7e-m
   3              		.fpu fpv4-sp-d16
   4              		.eabi_attribute 27, 1	@ Tag_ABI_HardFP_use
   5              		.eabi_attribute 28, 1	@ Tag_ABI_VFP_args
   6              		.eabi_attribute 23, 1	@ Tag_ABI_FP_number_model
   7              		.eabi_attribute 24, 1	@ Tag_ABI_align8_needed
   8              		.eabi_attribute 25, 1	@ Tag_ABI_align8_preserved
   9              		.eabi_attribute 26, 1	@ Tag_ABI_enum_size
  10              		.eabi_attribute 30, 2	@ Tag_ABI_optimization_goals
  11              		.eabi_attribute 34, 1	@ Tag_CPU_unaligned_access
  12              		.eabi_attribute 18, 4	@ Tag_ABI_PCS_wchar_t
  13              		.file	"stm32f4_discovery_audio_codec.c"
  14              	@ GNU C89 (GNU Arm Embedded Toolchain 10.3-2021.10) version 10.3.1 20210824 (release) (arm-none-eab
  15              	@	compiled by GNU C version 7.3-win32 20180312, GMP version 6.1.0, MPFR version 3.1.4, MPC version 
  16              	
  17              	@ GGC heuristics: --param ggc-min-expand=100 --param ggc-min-heapsize=131072
  18              	@ options passed:  -I . -I . -I ../Utilities/STM32F4-Discovery/
  19              	@ -I ../Libraries/STM32_USB_Device_Library/Class/audio/inc/
  20              	@ -I ../Libraries/STM32_USB_Device_Library/Core/inc/
  21              	@ -I ../Libraries/STM32_USB_OTG_Driver/inc/
  22              	@ -I ../Utilities/STM32F4-Discovery/
  23              	@ -I ../Libraries/STM32F4xx_StdPeriph_Driver/inc/
  24              	@ -I ../Utilities/STM32F4-Discovery/
  25              	@ -I ../Libraries/CMSIS/ST/STM32F4xx/Include/
  26              	@ -I ../Libraries/CMSIS/Include/ -imultilib thumb/v7e-m+fp/hard
  27              	@ -iprefix c:\program files (x86)\gnu arm embedded toolchain\10 2021.10\bin\../lib/gcc/arm-none-eab
  28              	@ -isysroot c:\program files (x86)\gnu arm embedded toolchain\10 2021.10\bin\../arm-none-eabi
  29              	@ -MD out/stm32f4_discovery_audio_codec.d
  30              	@ -MF out/stm32f4_discovery_audio_codec.d -MP
  31              	@ -MQ out/stm32f4_discovery_audio_codec.o -D__USES_INITFINI__ -D STM32F4XX
  32              	@ -D __VFP_FP__ -D USE_USB_OTG_FS
  33              	@ ../Utilities/STM32F4-Discovery/stm32f4_discovery_audio_codec.c
  34              	@ -mcpu=cortex-m4 -mthumb -mfloat-abi=hard -mfpu=fpv4-sp-d16
  35              	@ -mlibarch=armv7e-m+fp -march=armv7e-m+fp
  36              	@ -auxbase-strip out/stm32f4_discovery_audio_codec.o -g -ggdb3 -O3 -Wall
  37              	@ -Wstrict-prototypes -Wextra -std=gnu90 -ffast-math -ffunction-sections
  38              	@ -fdata-sections -fverbose-asm
  39              	@ options enabled:  -faggressive-loop-optimizations -falign-functions
  40              	@ -falign-jumps -falign-labels -falign-loops -fallocation-dce
  41              	@ -fassociative-math -fauto-inc-dec -fbranch-count-reg -fcaller-saves
  42              	@ -fcombine-stack-adjustments -fcompare-elim -fcprop-registers
  43              	@ -fcrossjumping -fcse-follow-jumps -fcx-limited-range -fdata-sections
  44              	@ -fdefer-pop -fdelete-null-pointer-checks -fdevirtualize
  45              	@ -fdevirtualize-speculatively -fdwarf2-cfi-asm -fearly-inlining
  46              	@ -feliminate-unused-debug-symbols -feliminate-unused-debug-types
  47              	@ -fexpensive-optimizations -ffinite-math-only -fforward-propagate
  48              	@ -ffp-int-builtin-inexact -ffunction-cse -ffunction-sections -fgcse
  49              	@ -fgcse-after-reload -fgcse-lm -fgnu-unique -fguess-branch-probability
  50              	@ -fhoist-adjacent-loads -fident -fif-conversion -fif-conversion2
  51              	@ -findirect-inlining -finline -finline-atomics -finline-functions
  52              	@ -finline-functions-called-once -finline-small-functions -fipa-bit-cp
  53              	@ -fipa-cp -fipa-cp-clone -fipa-icf -fipa-icf-functions -fipa-icf-variables
  54              	@ -fipa-profile -fipa-pure-const -fipa-ra -fipa-reference
  55              	@ -fipa-reference-addressable -fipa-sra -fipa-stack-alignment -fipa-vrp
  56              	@ -fira-hoist-pressure -fira-share-save-slots -fira-share-spill-slots
  57              	@ -fisolate-erroneous-paths-dereference -fivopts -fkeep-static-consts
ARM GAS  C:\Users\admin\AppData\Local\Temp\ccfajY9A.s 			page 2


  58              	@ -fleading-underscore -flifetime-dse -floop-interchange
  59              	@ -floop-unroll-and-jam -flra-remat -fmerge-constants -fmerge-debug-strings
  60              	@ -fmove-loop-invariants -fomit-frame-pointer -foptimize-sibling-calls
  61              	@ -foptimize-strlen -fpartial-inlining -fpeel-loops -fpeephole -fpeephole2
  62              	@ -fplt -fpredictive-commoning -fprefetch-loop-arrays -freciprocal-math
  63              	@ -freg-struct-return -freorder-blocks -freorder-functions
  64              	@ -frerun-cse-after-loop -fsched-critical-path-heuristic
  65              	@ -fsched-dep-count-heuristic -fsched-group-heuristic -fsched-interblock
  66              	@ -fsched-last-insn-heuristic -fsched-pressure -fsched-rank-heuristic
  67              	@ -fsched-spec -fsched-spec-insn-heuristic -fsched-stalled-insns-dep
  68              	@ -fschedule-insns -fschedule-insns2 -fsection-anchors
  69              	@ -fsemantic-interposition -fshow-column -fshrink-wrap
  70              	@ -fshrink-wrap-separate -fsplit-ivs-in-unroller -fsplit-loops
  71              	@ -fsplit-paths -fsplit-wide-types -fssa-backprop -fssa-phiopt -fstdarg-opt
  72              	@ -fstore-merging -fstrict-aliasing -fstrict-volatile-bitfields
  73              	@ -fsync-libcalls -fthread-jumps -ftoplevel-reorder -ftree-bit-ccp
  74              	@ -ftree-builtin-call-dce -ftree-ccp -ftree-ch -ftree-coalesce-vars
  75              	@ -ftree-copy-prop -ftree-cselim -ftree-dce -ftree-dominator-opts
  76              	@ -ftree-dse -ftree-forwprop -ftree-fre -ftree-loop-distribute-patterns
  77              	@ -ftree-loop-distribution -ftree-loop-if-convert -ftree-loop-im
  78              	@ -ftree-loop-ivcanon -ftree-loop-optimize -ftree-loop-vectorize
  79              	@ -ftree-parallelize-loops= -ftree-partial-pre -ftree-phiprop -ftree-pre
  80              	@ -ftree-pta -ftree-reassoc -ftree-scev-cprop -ftree-sink
  81              	@ -ftree-slp-vectorize -ftree-slsr -ftree-sra -ftree-switch-conversion
  82              	@ -ftree-tail-merge -ftree-ter -ftree-vrp -funit-at-a-time
  83              	@ -funsafe-math-optimizations -funswitch-loops -fvar-tracking
  84              	@ -fvar-tracking-assignments -fverbose-asm -fversion-loops-for-strides
  85              	@ -fzero-initialized-in-bss -masm-syntax-unified -mbe32 -mlittle-endian
  86              	@ -mpic-data-is-text-relative -msched-prolog -mthumb -munaligned-access
  87              	@ -mvectorize-with-neon-quad
  88              	
  89              		.text
  90              	.Ltext0:
  91              		.cfi_sections	.debug_frame
  92              		.section	.text.Audio_MAL_IRQHandler.part.0,"ax",%progbits
  93              		.align	1
  94              		.p2align 2,,3
  95              		.syntax unified
  96              		.thumb
  97              		.thumb_func
  98              		.type	Audio_MAL_IRQHandler.part.0, %function
  99              	Audio_MAL_IRQHandler.part.0:
 100              	.LFB148:
 101              		.file 1 "../Utilities/STM32F4-Discovery/stm32f4_discovery_audio_codec.c"
   1:../Utilities/STM32F4-Discovery/stm32f4_discovery_audio_codec.c **** /**
   2:../Utilities/STM32F4-Discovery/stm32f4_discovery_audio_codec.c ****   ******************************************************************************
   3:../Utilities/STM32F4-Discovery/stm32f4_discovery_audio_codec.c ****   * @file    stm32f4_discovery_audio_codec.c
   4:../Utilities/STM32F4-Discovery/stm32f4_discovery_audio_codec.c ****   * @author  MCD Application Team
   5:../Utilities/STM32F4-Discovery/stm32f4_discovery_audio_codec.c ****   * @version V1.1.0
   6:../Utilities/STM32F4-Discovery/stm32f4_discovery_audio_codec.c ****   * @date    28-October-2011
   7:../Utilities/STM32F4-Discovery/stm32f4_discovery_audio_codec.c ****   * @brief   This file includes the low layer driver for CS43L22 Audio Codec
   8:../Utilities/STM32F4-Discovery/stm32f4_discovery_audio_codec.c ****   *          available on STM32F4-Discovery Kit.  
   9:../Utilities/STM32F4-Discovery/stm32f4_discovery_audio_codec.c ****   ******************************************************************************
  10:../Utilities/STM32F4-Discovery/stm32f4_discovery_audio_codec.c ****   * @attention
  11:../Utilities/STM32F4-Discovery/stm32f4_discovery_audio_codec.c ****   *
  12:../Utilities/STM32F4-Discovery/stm32f4_discovery_audio_codec.c ****   * THE PRESENT FIRMWARE WHICH IS FOR GUIDANCE ONLY AIMS AT PROVIDING CUSTOMERS
  13:../Utilities/STM32F4-Discovery/stm32f4_discovery_audio_codec.c ****   * WITH CODING INFORMATION REGARDING THEIR PRODUCTS IN ORDER FOR THEM TO SAVE
ARM GAS  C:\Users\admin\AppData\Local\Temp\ccfajY9A.s 			page 3


  14:../Utilities/STM32F4-Discovery/stm32f4_discovery_audio_codec.c ****   * TIME. AS A RESULT, STMICROELECTRONICS SHALL NOT BE HELD LIABLE FOR ANY
  15:../Utilities/STM32F4-Discovery/stm32f4_discovery_audio_codec.c ****   * DIRECT, INDIRECT OR CONSEQUENTIAL DAMAGES WITH RESPECT TO ANY CLAIMS ARISING
  16:../Utilities/STM32F4-Discovery/stm32f4_discovery_audio_codec.c ****   * FROM THE CONTENT OF SUCH FIRMWARE AND/OR THE USE MADE BY CUSTOMERS OF THE
  17:../Utilities/STM32F4-Discovery/stm32f4_discovery_audio_codec.c ****   * CODING INFORMATION CONTAINED HEREIN IN CONNECTION WITH THEIR PRODUCTS.
  18:../Utilities/STM32F4-Discovery/stm32f4_discovery_audio_codec.c ****   *
  19:../Utilities/STM32F4-Discovery/stm32f4_discovery_audio_codec.c ****   * <h2><center>&copy; COPYRIGHT 2011 STMicroelectronics</center></h2>
  20:../Utilities/STM32F4-Discovery/stm32f4_discovery_audio_codec.c ****   ******************************************************************************  
  21:../Utilities/STM32F4-Discovery/stm32f4_discovery_audio_codec.c ****   */
  22:../Utilities/STM32F4-Discovery/stm32f4_discovery_audio_codec.c **** 
  23:../Utilities/STM32F4-Discovery/stm32f4_discovery_audio_codec.c **** /*=================================================================================================
  24:../Utilities/STM32F4-Discovery/stm32f4_discovery_audio_codec.c ****                                              User NOTES
  25:../Utilities/STM32F4-Discovery/stm32f4_discovery_audio_codec.c **** 1. How To use this driver:
  26:../Utilities/STM32F4-Discovery/stm32f4_discovery_audio_codec.c **** --------------------------
  27:../Utilities/STM32F4-Discovery/stm32f4_discovery_audio_codec.c ****    - This driver supports STM32F4xx devices on STM32F4-Discovery Kit.
  28:../Utilities/STM32F4-Discovery/stm32f4_discovery_audio_codec.c **** 
  29:../Utilities/STM32F4-Discovery/stm32f4_discovery_audio_codec.c ****    - Configure the options in file stm32f4_discovery_audio_codec.h in the section CONFIGURATION.
  30:../Utilities/STM32F4-Discovery/stm32f4_discovery_audio_codec.c ****       Refer to the sections 2 and 3 to have more details on the possible configurations.
  31:../Utilities/STM32F4-Discovery/stm32f4_discovery_audio_codec.c **** 
  32:../Utilities/STM32F4-Discovery/stm32f4_discovery_audio_codec.c ****    - Call the function EVAL_AUDIO_Init(
  33:../Utilities/STM32F4-Discovery/stm32f4_discovery_audio_codec.c ****                                     OutputDevice: physical output mode (OUTPUT_DEVICE_SPEAKER, 
  34:../Utilities/STM32F4-Discovery/stm32f4_discovery_audio_codec.c ****                                                  OUTPUT_DEVICE_HEADPHONE, OUTPUT_DEVICE_AUTO or 
  35:../Utilities/STM32F4-Discovery/stm32f4_discovery_audio_codec.c ****                                                  OUTPUT_DEVICE_BOTH)
  36:../Utilities/STM32F4-Discovery/stm32f4_discovery_audio_codec.c ****                                     Volume: initial volume to be set (0 is min (mute), 100 is max (
  37:../Utilities/STM32F4-Discovery/stm32f4_discovery_audio_codec.c ****                                     AudioFreq: Audio frequency in Hz (8000, 16000, 22500, 32000 ...
  38:../Utilities/STM32F4-Discovery/stm32f4_discovery_audio_codec.c ****                                     this parameter is relative to the audio file/stream type.
  39:../Utilities/STM32F4-Discovery/stm32f4_discovery_audio_codec.c ****                                    )
  40:../Utilities/STM32F4-Discovery/stm32f4_discovery_audio_codec.c ****       This function configures all the hardware required for the audio application (codec, I2C, I2S
  41:../Utilities/STM32F4-Discovery/stm32f4_discovery_audio_codec.c ****       GPIOs, DMA and interrupt if needed). This function returns 0 if configuration is OK.
  42:../Utilities/STM32F4-Discovery/stm32f4_discovery_audio_codec.c ****       if the returned value is different from 0 or the function is stuck then the communication wit
  43:../Utilities/STM32F4-Discovery/stm32f4_discovery_audio_codec.c ****       the codec (try to un-plug the power or reset device in this case).
  44:../Utilities/STM32F4-Discovery/stm32f4_discovery_audio_codec.c ****       + OUTPUT_DEVICE_SPEAKER: only speaker will be set as output for the audio stream.
  45:../Utilities/STM32F4-Discovery/stm32f4_discovery_audio_codec.c ****       + OUTPUT_DEVICE_HEADPHONE: only headphones will be set as output for the audio stream.
  46:../Utilities/STM32F4-Discovery/stm32f4_discovery_audio_codec.c ****       + OUTPUT_DEVICE_AUTO: Selection of output device is made through external switch (implemented
  47:../Utilities/STM32F4-Discovery/stm32f4_discovery_audio_codec.c ****          into the audio jack on the evaluation board). When the Headphone is connected it is used
  48:../Utilities/STM32F4-Discovery/stm32f4_discovery_audio_codec.c ****          as output. When the headphone is disconnected from the audio jack, the output is
  49:../Utilities/STM32F4-Discovery/stm32f4_discovery_audio_codec.c ****          automatically switched to Speaker.
  50:../Utilities/STM32F4-Discovery/stm32f4_discovery_audio_codec.c ****       + OUTPUT_DEVICE_BOTH: both Speaker and Headphone are used as outputs for the audio stream
  51:../Utilities/STM32F4-Discovery/stm32f4_discovery_audio_codec.c ****          at the same time.
  52:../Utilities/STM32F4-Discovery/stm32f4_discovery_audio_codec.c **** 
  53:../Utilities/STM32F4-Discovery/stm32f4_discovery_audio_codec.c ****    - Call the function EVAL_AUDIO_Play(
  54:../Utilities/STM32F4-Discovery/stm32f4_discovery_audio_codec.c ****                                   pBuffer: pointer to the audio data file address
  55:../Utilities/STM32F4-Discovery/stm32f4_discovery_audio_codec.c ****                                   Size: size of the buffer to be sent in Bytes
  56:../Utilities/STM32F4-Discovery/stm32f4_discovery_audio_codec.c ****                                  )
  57:../Utilities/STM32F4-Discovery/stm32f4_discovery_audio_codec.c ****       to start playing (for the first time) from the audio file/stream.
  58:../Utilities/STM32F4-Discovery/stm32f4_discovery_audio_codec.c **** 
  59:../Utilities/STM32F4-Discovery/stm32f4_discovery_audio_codec.c ****    - Call the function EVAL_AUDIO_PauseResume(
  60:../Utilities/STM32F4-Discovery/stm32f4_discovery_audio_codec.c ****                                          Cmd: AUDIO_PAUSE (or 0) to pause playing or AUDIO_RESUME (
  61:../Utilities/STM32F4-Discovery/stm32f4_discovery_audio_codec.c ****                                                any value different from 0) to resume playing.
  62:../Utilities/STM32F4-Discovery/stm32f4_discovery_audio_codec.c ****                                          )
  63:../Utilities/STM32F4-Discovery/stm32f4_discovery_audio_codec.c ****        Note. After calling EVAL_AUDIO_PauseResume() function for pause, only EVAL_AUDIO_PauseResume
  64:../Utilities/STM32F4-Discovery/stm32f4_discovery_audio_codec.c ****           for resume (it is not allowed to call EVAL_AUDIO_Play() in this case).
  65:../Utilities/STM32F4-Discovery/stm32f4_discovery_audio_codec.c ****        Note. This function should be called only when the audio file is played or paused (not stopp
  66:../Utilities/STM32F4-Discovery/stm32f4_discovery_audio_codec.c **** 
  67:../Utilities/STM32F4-Discovery/stm32f4_discovery_audio_codec.c ****    - For each mode, you may need to implement the relative callback functions into your code.
  68:../Utilities/STM32F4-Discovery/stm32f4_discovery_audio_codec.c ****       The Callback functions are named EVAL_AUDIO_XXX_CallBack() and only their prototypes are decl
  69:../Utilities/STM32F4-Discovery/stm32f4_discovery_audio_codec.c ****       the stm32f4_discovery_audio_codec.h file. (refer to the example for more details on the callb
  70:../Utilities/STM32F4-Discovery/stm32f4_discovery_audio_codec.c **** 
ARM GAS  C:\Users\admin\AppData\Local\Temp\ccfajY9A.s 			page 4


  71:../Utilities/STM32F4-Discovery/stm32f4_discovery_audio_codec.c ****    - To Stop playing, to modify the volume level or to mute, use the functions
  72:../Utilities/STM32F4-Discovery/stm32f4_discovery_audio_codec.c ****        EVAL_AUDIO_Stop(), EVAL_AUDIO_VolumeCtl() and EVAL_AUDIO_Mute().
  73:../Utilities/STM32F4-Discovery/stm32f4_discovery_audio_codec.c **** 
  74:../Utilities/STM32F4-Discovery/stm32f4_discovery_audio_codec.c ****    - The driver API and the callback functions are at the end of the stm32f4_discovery_audio_codec.
  75:../Utilities/STM32F4-Discovery/stm32f4_discovery_audio_codec.c ****  
  76:../Utilities/STM32F4-Discovery/stm32f4_discovery_audio_codec.c **** 
  77:../Utilities/STM32F4-Discovery/stm32f4_discovery_audio_codec.c ****  Driver architecture:
  78:../Utilities/STM32F4-Discovery/stm32f4_discovery_audio_codec.c ****  --------------------
  79:../Utilities/STM32F4-Discovery/stm32f4_discovery_audio_codec.c ****  This driver is composed of three main layers:
  80:../Utilities/STM32F4-Discovery/stm32f4_discovery_audio_codec.c ****    o High Audio Layer: consists of the function API exported in the stm32f4_discovery_audio_codec.h
  81:../Utilities/STM32F4-Discovery/stm32f4_discovery_audio_codec.c ****      (EVAL_AUDIO_Init(), EVAL_AUDIO_Play() ...)
  82:../Utilities/STM32F4-Discovery/stm32f4_discovery_audio_codec.c ****    o Codec Control layer: consists of the functions API controlling the audio codec (CS43L22) and 
  83:../Utilities/STM32F4-Discovery/stm32f4_discovery_audio_codec.c ****      included as local functions in file stm32f4_discovery_audio_codec.c (Codec_Init(), Codec_Play(
  84:../Utilities/STM32F4-Discovery/stm32f4_discovery_audio_codec.c ****    o Media Access Layer (MAL): which consists of functions allowing to access the media containing/
  85:../Utilities/STM32F4-Discovery/stm32f4_discovery_audio_codec.c ****      providing the audio file/stream. These functions are also included as local functions into
  86:../Utilities/STM32F4-Discovery/stm32f4_discovery_audio_codec.c ****      the stm32f4_discovery_audio_codec.c file (Audio_MAL_Init(), Audio_MAL_Play() ...)
  87:../Utilities/STM32F4-Discovery/stm32f4_discovery_audio_codec.c ****   Each set of functions (layer) may be implemented independently of the others and customized when 
  88:../Utilities/STM32F4-Discovery/stm32f4_discovery_audio_codec.c ****   needed.    
  89:../Utilities/STM32F4-Discovery/stm32f4_discovery_audio_codec.c **** 
  90:../Utilities/STM32F4-Discovery/stm32f4_discovery_audio_codec.c **** 2. Modes description:
  91:../Utilities/STM32F4-Discovery/stm32f4_discovery_audio_codec.c **** ---------------------
  92:../Utilities/STM32F4-Discovery/stm32f4_discovery_audio_codec.c ****      + AUDIO_MAL_MODE_NORMAL : is suitable when the audio file is in a memory location.
  93:../Utilities/STM32F4-Discovery/stm32f4_discovery_audio_codec.c ****      + AUDIO_MAL_MODE_CIRCULAR: is suitable when the audio data are read either from a 
  94:../Utilities/STM32F4-Discovery/stm32f4_discovery_audio_codec.c ****         memory location or from a device at real time (double buffer could be used).
  95:../Utilities/STM32F4-Discovery/stm32f4_discovery_audio_codec.c **** 
  96:../Utilities/STM32F4-Discovery/stm32f4_discovery_audio_codec.c **** 3. DMA interrupts description:
  97:../Utilities/STM32F4-Discovery/stm32f4_discovery_audio_codec.c **** ------------------------------
  98:../Utilities/STM32F4-Discovery/stm32f4_discovery_audio_codec.c ****      + EVAL_AUDIO_IT_TC_ENABLE: Enable this define to use the DMA end of transfer interrupt.
  99:../Utilities/STM32F4-Discovery/stm32f4_discovery_audio_codec.c ****         then, a callback should be implemented by user to perform specific actions
 100:../Utilities/STM32F4-Discovery/stm32f4_discovery_audio_codec.c ****         when the DMA has finished the transfer.
 101:../Utilities/STM32F4-Discovery/stm32f4_discovery_audio_codec.c ****      + EVAL_AUDIO_IT_HT_ENABLE: Enable this define to use the DMA end of half transfer interrupt.
 102:../Utilities/STM32F4-Discovery/stm32f4_discovery_audio_codec.c ****         then, a callback should be implemented by user to perform specific actions
 103:../Utilities/STM32F4-Discovery/stm32f4_discovery_audio_codec.c ****         when the DMA has reached the half of the buffer transfer (generally, it is useful 
 104:../Utilities/STM32F4-Discovery/stm32f4_discovery_audio_codec.c ****         to load the first half of buffer while DMA is loading from the second half).
 105:../Utilities/STM32F4-Discovery/stm32f4_discovery_audio_codec.c ****      + EVAL_AUDIO_IT_ER_ENABLE: Enable this define to manage the cases of error on DMA transfer.
 106:../Utilities/STM32F4-Discovery/stm32f4_discovery_audio_codec.c **** 
 107:../Utilities/STM32F4-Discovery/stm32f4_discovery_audio_codec.c **** 4. Known Limitations:
 108:../Utilities/STM32F4-Discovery/stm32f4_discovery_audio_codec.c **** ---------------------
 109:../Utilities/STM32F4-Discovery/stm32f4_discovery_audio_codec.c ****    1- When using the Speaker, if the audio file quality is not high enough, the speaker output
 110:../Utilities/STM32F4-Discovery/stm32f4_discovery_audio_codec.c ****       may produce high and uncomfortable noise level. To avoid this issue, to use speaker
 111:../Utilities/STM32F4-Discovery/stm32f4_discovery_audio_codec.c ****       output properly, try to increase audio file sampling rate (typically higher than 48KHz).
 112:../Utilities/STM32F4-Discovery/stm32f4_discovery_audio_codec.c ****       This operation will lead to larger file size.
 113:../Utilities/STM32F4-Discovery/stm32f4_discovery_audio_codec.c ****    2- Communication with the audio codec (through I2C) may be corrupted if it is interrupted by som
 114:../Utilities/STM32F4-Discovery/stm32f4_discovery_audio_codec.c ****       user interrupt routines (in this case, interrupts could be disabled just before the start of 
 115:../Utilities/STM32F4-Discovery/stm32f4_discovery_audio_codec.c ****       communication then re-enabled when it is over). Note that this communication is only done at
 116:../Utilities/STM32F4-Discovery/stm32f4_discovery_audio_codec.c ****       the configuration phase (EVAL_AUDIO_Init() or EVAL_AUDIO_Stop()) and when Volume control modi
 117:../Utilities/STM32F4-Discovery/stm32f4_discovery_audio_codec.c ****       performed (EVAL_AUDIO_VolumeCtl() or EVAL_AUDIO_Mute()). When the audio data is played, no co
 118:../Utilities/STM32F4-Discovery/stm32f4_discovery_audio_codec.c ****       required with the audio codec.
 119:../Utilities/STM32F4-Discovery/stm32f4_discovery_audio_codec.c ****   3- Parsing of audio file is not implemented (in order to determine audio file properties: Mono/St
 120:../Utilities/STM32F4-Discovery/stm32f4_discovery_audio_codec.c ****      File size, Audio Frequency, Audio Data header size ...). The configuration is fixed for the gi
 121:../Utilities/STM32F4-Discovery/stm32f4_discovery_audio_codec.c ****   4- Mono audio streaming is not supported (in order to play mono audio streams, each data should b
 122:../Utilities/STM32F4-Discovery/stm32f4_discovery_audio_codec.c ****      on the I2S or should be duplicated on the source buffer. Or convert the stream in stereo befor
 123:../Utilities/STM32F4-Discovery/stm32f4_discovery_audio_codec.c ****   5- Supports only 16-bit audio data size.
 124:../Utilities/STM32F4-Discovery/stm32f4_discovery_audio_codec.c **** ===================================================================================================
 125:../Utilities/STM32F4-Discovery/stm32f4_discovery_audio_codec.c ****  
 126:../Utilities/STM32F4-Discovery/stm32f4_discovery_audio_codec.c **** 
 127:../Utilities/STM32F4-Discovery/stm32f4_discovery_audio_codec.c **** /* 
ARM GAS  C:\Users\admin\AppData\Local\Temp\ccfajY9A.s 			page 5


 128:../Utilities/STM32F4-Discovery/stm32f4_discovery_audio_codec.c ****   Normal mode description:
 129:../Utilities/STM32F4-Discovery/stm32f4_discovery_audio_codec.c ****   Start playing the audio file (using DMA stream) .
 130:../Utilities/STM32F4-Discovery/stm32f4_discovery_audio_codec.c ****   Using this mode, the application can run other tasks in parallel since 
 131:../Utilities/STM32F4-Discovery/stm32f4_discovery_audio_codec.c ****   the DMA is handling the Audio Transfer instead of the CPU.
 132:../Utilities/STM32F4-Discovery/stm32f4_discovery_audio_codec.c ****   The only task remaining for the CPU will be the management of the DMA 
 133:../Utilities/STM32F4-Discovery/stm32f4_discovery_audio_codec.c ****   Transfer Complete interrupt or the Half Transfer Complete interrupt in 
 134:../Utilities/STM32F4-Discovery/stm32f4_discovery_audio_codec.c ****   order to load again the buffer and to calculate the remaining data.  
 135:../Utilities/STM32F4-Discovery/stm32f4_discovery_audio_codec.c **** 
 136:../Utilities/STM32F4-Discovery/stm32f4_discovery_audio_codec.c ****   Circular mode description:
 137:../Utilities/STM32F4-Discovery/stm32f4_discovery_audio_codec.c ****   Start playing the file from a circular buffer, once the DMA is enabled it 
 138:../Utilities/STM32F4-Discovery/stm32f4_discovery_audio_codec.c ****   always run. User has to fill periodically the buffer with the audio data 
 139:../Utilities/STM32F4-Discovery/stm32f4_discovery_audio_codec.c ****   using Transfer complete and/or half transfer complete interrupts callbacks 
 140:../Utilities/STM32F4-Discovery/stm32f4_discovery_audio_codec.c ****   (EVAL_AUDIO_TransferComplete_CallBack() or EVAL_AUDIO_HalfTransfer_CallBack()...
 141:../Utilities/STM32F4-Discovery/stm32f4_discovery_audio_codec.c ****   In this case the audio data file is smaller than the DMA max buffer 
 142:../Utilities/STM32F4-Discovery/stm32f4_discovery_audio_codec.c ****   size 65535 so there is no need to load buffer continuously or manage the 
 143:../Utilities/STM32F4-Discovery/stm32f4_discovery_audio_codec.c ****   transfer complete or Half transfer interrupts callbacks. */  
 144:../Utilities/STM32F4-Discovery/stm32f4_discovery_audio_codec.c **** 
 145:../Utilities/STM32F4-Discovery/stm32f4_discovery_audio_codec.c **** /* Includes ------------------------------------------------------------------*/
 146:../Utilities/STM32F4-Discovery/stm32f4_discovery_audio_codec.c **** #include "stm32f4_discovery_audio_codec.h"
 147:../Utilities/STM32F4-Discovery/stm32f4_discovery_audio_codec.c **** #include "stm32f4_discovery.h"
 148:../Utilities/STM32F4-Discovery/stm32f4_discovery_audio_codec.c **** #include <stm32f4xx_dac.h>
 149:../Utilities/STM32F4-Discovery/stm32f4_discovery_audio_codec.c **** #include <stm32f4xx_spi.h>
 150:../Utilities/STM32F4-Discovery/stm32f4_discovery_audio_codec.c **** #include <stm32f4xx_i2c.h>
 151:../Utilities/STM32F4-Discovery/stm32f4_discovery_audio_codec.c **** #include <stm32f4xx_dma.h>
 152:../Utilities/STM32F4-Discovery/stm32f4_discovery_audio_codec.c **** /** @addtogroup Utilities
 153:../Utilities/STM32F4-Discovery/stm32f4_discovery_audio_codec.c ****   * @{
 154:../Utilities/STM32F4-Discovery/stm32f4_discovery_audio_codec.c ****   */
 155:../Utilities/STM32F4-Discovery/stm32f4_discovery_audio_codec.c ****   
 156:../Utilities/STM32F4-Discovery/stm32f4_discovery_audio_codec.c **** /** @addtogroup STM32F4_DISCOVERY
 157:../Utilities/STM32F4-Discovery/stm32f4_discovery_audio_codec.c ****   * @{
 158:../Utilities/STM32F4-Discovery/stm32f4_discovery_audio_codec.c ****   */
 159:../Utilities/STM32F4-Discovery/stm32f4_discovery_audio_codec.c **** 
 160:../Utilities/STM32F4-Discovery/stm32f4_discovery_audio_codec.c **** /** @addtogroup STM32F4_DISCOVERY_AUDIO_CODEC
 161:../Utilities/STM32F4-Discovery/stm32f4_discovery_audio_codec.c ****   * @brief       This file includes the low layer driver for CS43L22 Audio Codec
 162:../Utilities/STM32F4-Discovery/stm32f4_discovery_audio_codec.c ****   *              available on STM32F4-Discovery Kit.
 163:../Utilities/STM32F4-Discovery/stm32f4_discovery_audio_codec.c ****   * @{
 164:../Utilities/STM32F4-Discovery/stm32f4_discovery_audio_codec.c ****   */ 
 165:../Utilities/STM32F4-Discovery/stm32f4_discovery_audio_codec.c **** 
 166:../Utilities/STM32F4-Discovery/stm32f4_discovery_audio_codec.c **** /** @defgroup STM32F4_DISCOVERY_AUDIO_CODEC_Private_Types
 167:../Utilities/STM32F4-Discovery/stm32f4_discovery_audio_codec.c ****   * @{
 168:../Utilities/STM32F4-Discovery/stm32f4_discovery_audio_codec.c ****   */ 
 169:../Utilities/STM32F4-Discovery/stm32f4_discovery_audio_codec.c **** /**
 170:../Utilities/STM32F4-Discovery/stm32f4_discovery_audio_codec.c ****   * @}
 171:../Utilities/STM32F4-Discovery/stm32f4_discovery_audio_codec.c ****   */ 
 172:../Utilities/STM32F4-Discovery/stm32f4_discovery_audio_codec.c ****   
 173:../Utilities/STM32F4-Discovery/stm32f4_discovery_audio_codec.c **** /** @defgroup STM32F4_DISCOVERY_AUDIO_CODEC_Private_Defines
 174:../Utilities/STM32F4-Discovery/stm32f4_discovery_audio_codec.c ****   * @{
 175:../Utilities/STM32F4-Discovery/stm32f4_discovery_audio_codec.c ****   */ 
 176:../Utilities/STM32F4-Discovery/stm32f4_discovery_audio_codec.c **** 
 177:../Utilities/STM32F4-Discovery/stm32f4_discovery_audio_codec.c **** /* Mask for the bit EN of the I2S CFGR register */
 178:../Utilities/STM32F4-Discovery/stm32f4_discovery_audio_codec.c **** #define I2S_ENABLE_MASK                 0x0400
 179:../Utilities/STM32F4-Discovery/stm32f4_discovery_audio_codec.c **** 
 180:../Utilities/STM32F4-Discovery/stm32f4_discovery_audio_codec.c **** /* Delay for the Codec to be correctly reset */
 181:../Utilities/STM32F4-Discovery/stm32f4_discovery_audio_codec.c **** #define CODEC_RESET_DELAY               0x4FFF
 182:../Utilities/STM32F4-Discovery/stm32f4_discovery_audio_codec.c **** 
 183:../Utilities/STM32F4-Discovery/stm32f4_discovery_audio_codec.c **** /* Codec audio Standards */
 184:../Utilities/STM32F4-Discovery/stm32f4_discovery_audio_codec.c **** #ifdef I2S_STANDARD_PHILLIPS
ARM GAS  C:\Users\admin\AppData\Local\Temp\ccfajY9A.s 			page 6


 185:../Utilities/STM32F4-Discovery/stm32f4_discovery_audio_codec.c ****  #define  CODEC_STANDARD                0x04
 186:../Utilities/STM32F4-Discovery/stm32f4_discovery_audio_codec.c ****  #define I2S_STANDARD                   I2S_Standard_Phillips         
 187:../Utilities/STM32F4-Discovery/stm32f4_discovery_audio_codec.c **** #elif defined(I2S_STANDARD_MSB)
 188:../Utilities/STM32F4-Discovery/stm32f4_discovery_audio_codec.c ****  #define  CODEC_STANDARD                0x00
 189:../Utilities/STM32F4-Discovery/stm32f4_discovery_audio_codec.c ****  #define I2S_STANDARD                   I2S_Standard_MSB    
 190:../Utilities/STM32F4-Discovery/stm32f4_discovery_audio_codec.c **** #elif defined(I2S_STANDARD_LSB)
 191:../Utilities/STM32F4-Discovery/stm32f4_discovery_audio_codec.c ****  #define  CODEC_STANDARD                0x08
 192:../Utilities/STM32F4-Discovery/stm32f4_discovery_audio_codec.c ****  #define I2S_STANDARD                   I2S_Standard_LSB    
 193:../Utilities/STM32F4-Discovery/stm32f4_discovery_audio_codec.c **** #else 
 194:../Utilities/STM32F4-Discovery/stm32f4_discovery_audio_codec.c ****  #error "Error: No audio communication standard selected !"
 195:../Utilities/STM32F4-Discovery/stm32f4_discovery_audio_codec.c **** #endif /* I2S_STANDARD */
 196:../Utilities/STM32F4-Discovery/stm32f4_discovery_audio_codec.c **** 
 197:../Utilities/STM32F4-Discovery/stm32f4_discovery_audio_codec.c **** /* The 7 bits Codec address (sent through I2C interface) */
 198:../Utilities/STM32F4-Discovery/stm32f4_discovery_audio_codec.c **** #define CODEC_ADDRESS                   0x94  /* b00100111 */
 199:../Utilities/STM32F4-Discovery/stm32f4_discovery_audio_codec.c **** /**
 200:../Utilities/STM32F4-Discovery/stm32f4_discovery_audio_codec.c ****   * @}
 201:../Utilities/STM32F4-Discovery/stm32f4_discovery_audio_codec.c ****   */ 
 202:../Utilities/STM32F4-Discovery/stm32f4_discovery_audio_codec.c **** 
 203:../Utilities/STM32F4-Discovery/stm32f4_discovery_audio_codec.c **** /** @defgroup STM32F4_DISCOVERY_AUDIO_CODEC_Private_Macros
 204:../Utilities/STM32F4-Discovery/stm32f4_discovery_audio_codec.c ****   * @{
 205:../Utilities/STM32F4-Discovery/stm32f4_discovery_audio_codec.c ****   */
 206:../Utilities/STM32F4-Discovery/stm32f4_discovery_audio_codec.c **** /**
 207:../Utilities/STM32F4-Discovery/stm32f4_discovery_audio_codec.c ****   * @}
 208:../Utilities/STM32F4-Discovery/stm32f4_discovery_audio_codec.c ****   */ 
 209:../Utilities/STM32F4-Discovery/stm32f4_discovery_audio_codec.c ****   
 210:../Utilities/STM32F4-Discovery/stm32f4_discovery_audio_codec.c **** /** @defgroup STM32F4_DISCOVERY_AUDIO_CODEC_Private_Variables
 211:../Utilities/STM32F4-Discovery/stm32f4_discovery_audio_codec.c ****   * @{
 212:../Utilities/STM32F4-Discovery/stm32f4_discovery_audio_codec.c ****   */
 213:../Utilities/STM32F4-Discovery/stm32f4_discovery_audio_codec.c **** /* This structure is declared global because it is handled by two different functions */
 214:../Utilities/STM32F4-Discovery/stm32f4_discovery_audio_codec.c **** DMA_InitTypeDef DMA_InitStructure; 
 215:../Utilities/STM32F4-Discovery/stm32f4_discovery_audio_codec.c **** DMA_InitTypeDef AUDIO_MAL_DMA_InitStructure;
 216:../Utilities/STM32F4-Discovery/stm32f4_discovery_audio_codec.c **** 
 217:../Utilities/STM32F4-Discovery/stm32f4_discovery_audio_codec.c **** 
 218:../Utilities/STM32F4-Discovery/stm32f4_discovery_audio_codec.c **** uint32_t AudioTotalSize = 0xFFFF; /* This variable holds the total size of the audio file */
 219:../Utilities/STM32F4-Discovery/stm32f4_discovery_audio_codec.c **** uint32_t AudioRemSize   = 0; /* This variable holds the remaining data in audio file */
 220:../Utilities/STM32F4-Discovery/stm32f4_discovery_audio_codec.c **** uint16_t *CurrentPos ;             /* This variable holds the current position of audio pointer */
 221:../Utilities/STM32F4-Discovery/stm32f4_discovery_audio_codec.c **** 
 222:../Utilities/STM32F4-Discovery/stm32f4_discovery_audio_codec.c **** uint16_t *dac_play_ptr;
 223:../Utilities/STM32F4-Discovery/stm32f4_discovery_audio_codec.c **** uint16_t dac_play_size;
 224:../Utilities/STM32F4-Discovery/stm32f4_discovery_audio_codec.c **** uint16_t dac_play_cnt;
 225:../Utilities/STM32F4-Discovery/stm32f4_discovery_audio_codec.c **** 
 226:../Utilities/STM32F4-Discovery/stm32f4_discovery_audio_codec.c **** __IO uint32_t  CODECTimeout = CODEC_LONG_TIMEOUT;   
 227:../Utilities/STM32F4-Discovery/stm32f4_discovery_audio_codec.c **** __IO uint8_t OutputDev = 0;
 228:../Utilities/STM32F4-Discovery/stm32f4_discovery_audio_codec.c **** 
 229:../Utilities/STM32F4-Discovery/stm32f4_discovery_audio_codec.c **** 
 230:../Utilities/STM32F4-Discovery/stm32f4_discovery_audio_codec.c **** 
 231:../Utilities/STM32F4-Discovery/stm32f4_discovery_audio_codec.c **** 
 232:../Utilities/STM32F4-Discovery/stm32f4_discovery_audio_codec.c **** #ifdef USE_DAC
 233:../Utilities/STM32F4-Discovery/stm32f4_discovery_audio_codec.c **** __IO uint32_t CurrAudioInterface = AUDIO_INTERFACE_DAC;
 234:../Utilities/STM32F4-Discovery/stm32f4_discovery_audio_codec.c **** #endif
 235:../Utilities/STM32F4-Discovery/stm32f4_discovery_audio_codec.c **** 
 236:../Utilities/STM32F4-Discovery/stm32f4_discovery_audio_codec.c **** #ifndef USE_DAC
 237:../Utilities/STM32F4-Discovery/stm32f4_discovery_audio_codec.c **** __IO uint32_t CurrAudioInterface = AUDIO_INTERFACE_I2S;
 238:../Utilities/STM32F4-Discovery/stm32f4_discovery_audio_codec.c **** #endif
 239:../Utilities/STM32F4-Discovery/stm32f4_discovery_audio_codec.c **** 
 240:../Utilities/STM32F4-Discovery/stm32f4_discovery_audio_codec.c **** //
 241:../Utilities/STM32F4-Discovery/stm32f4_discovery_audio_codec.c **** /**
ARM GAS  C:\Users\admin\AppData\Local\Temp\ccfajY9A.s 			page 7


 242:../Utilities/STM32F4-Discovery/stm32f4_discovery_audio_codec.c ****   * @}
 243:../Utilities/STM32F4-Discovery/stm32f4_discovery_audio_codec.c ****   */ 
 244:../Utilities/STM32F4-Discovery/stm32f4_discovery_audio_codec.c **** 
 245:../Utilities/STM32F4-Discovery/stm32f4_discovery_audio_codec.c **** /** @defgroup STM32F4_DISCOVERY_AUDIO_CODEC_Private_Function_Prototypes
 246:../Utilities/STM32F4-Discovery/stm32f4_discovery_audio_codec.c ****   * @{
 247:../Utilities/STM32F4-Discovery/stm32f4_discovery_audio_codec.c ****   */ 
 248:../Utilities/STM32F4-Discovery/stm32f4_discovery_audio_codec.c **** /**
 249:../Utilities/STM32F4-Discovery/stm32f4_discovery_audio_codec.c ****   * @}
 250:../Utilities/STM32F4-Discovery/stm32f4_discovery_audio_codec.c ****   */ 
 251:../Utilities/STM32F4-Discovery/stm32f4_discovery_audio_codec.c **** 
 252:../Utilities/STM32F4-Discovery/stm32f4_discovery_audio_codec.c **** /** @defgroup STM32F4_DISCOVERY_AUDIO_CODEC_Private_Functions
 253:../Utilities/STM32F4-Discovery/stm32f4_discovery_audio_codec.c ****   * @{
 254:../Utilities/STM32F4-Discovery/stm32f4_discovery_audio_codec.c ****   */ 
 255:../Utilities/STM32F4-Discovery/stm32f4_discovery_audio_codec.c **** static void Audio_MAL_IRQHandler(void);
 256:../Utilities/STM32F4-Discovery/stm32f4_discovery_audio_codec.c **** /*-----------------------------------
 257:../Utilities/STM32F4-Discovery/stm32f4_discovery_audio_codec.c ****                            Audio Codec functions 
 258:../Utilities/STM32F4-Discovery/stm32f4_discovery_audio_codec.c ****                                     ------------------------------------------*/
 259:../Utilities/STM32F4-Discovery/stm32f4_discovery_audio_codec.c **** /* High Layer codec functions */
 260:../Utilities/STM32F4-Discovery/stm32f4_discovery_audio_codec.c **** static uint32_t Codec_DeInit(void);
 261:../Utilities/STM32F4-Discovery/stm32f4_discovery_audio_codec.c **** static uint32_t Codec_Play(void);
 262:../Utilities/STM32F4-Discovery/stm32f4_discovery_audio_codec.c **** static uint32_t Codec_PauseResume(uint32_t Cmd);
 263:../Utilities/STM32F4-Discovery/stm32f4_discovery_audio_codec.c **** static uint32_t Codec_Stop(uint32_t Cmd);
 264:../Utilities/STM32F4-Discovery/stm32f4_discovery_audio_codec.c **** static uint32_t Codec_VolumeCtrl(uint8_t Volume);
 265:../Utilities/STM32F4-Discovery/stm32f4_discovery_audio_codec.c **** static uint32_t Codec_Mute(uint32_t Cmd);
 266:../Utilities/STM32F4-Discovery/stm32f4_discovery_audio_codec.c **** /* Low layer codec functions */
 267:../Utilities/STM32F4-Discovery/stm32f4_discovery_audio_codec.c **** static void     Codec_CtrlInterface_Init(void);
 268:../Utilities/STM32F4-Discovery/stm32f4_discovery_audio_codec.c **** static void     Codec_CtrlInterface_DeInit(void);
 269:../Utilities/STM32F4-Discovery/stm32f4_discovery_audio_codec.c **** static void     Codec_AudioInterface_Init(uint32_t AudioFreq);
 270:../Utilities/STM32F4-Discovery/stm32f4_discovery_audio_codec.c **** static void     Codec_AudioInterface_DeInit(void);
 271:../Utilities/STM32F4-Discovery/stm32f4_discovery_audio_codec.c **** static void     Codec_Reset(void);
 272:../Utilities/STM32F4-Discovery/stm32f4_discovery_audio_codec.c **** static uint32_t Codec_WriteRegister(uint8_t RegisterAddr, uint8_t RegisterValue);
 273:../Utilities/STM32F4-Discovery/stm32f4_discovery_audio_codec.c **** static uint32_t Codec_ReadRegister(uint8_t RegisterAddr);
 274:../Utilities/STM32F4-Discovery/stm32f4_discovery_audio_codec.c **** static void     Codec_GPIO_Init(void);
 275:../Utilities/STM32F4-Discovery/stm32f4_discovery_audio_codec.c **** static void     Codec_GPIO_DeInit(void);
 276:../Utilities/STM32F4-Discovery/stm32f4_discovery_audio_codec.c **** static void     Delay(__IO uint32_t nCount);
 277:../Utilities/STM32F4-Discovery/stm32f4_discovery_audio_codec.c **** /*----------------------------------------------------------------------------*/
 278:../Utilities/STM32F4-Discovery/stm32f4_discovery_audio_codec.c **** 
 279:../Utilities/STM32F4-Discovery/stm32f4_discovery_audio_codec.c **** /*-----------------------------------
 280:../Utilities/STM32F4-Discovery/stm32f4_discovery_audio_codec.c ****                    MAL (Media Access Layer) functions 
 281:../Utilities/STM32F4-Discovery/stm32f4_discovery_audio_codec.c ****                                     ------------------------------------------*/
 282:../Utilities/STM32F4-Discovery/stm32f4_discovery_audio_codec.c **** /* Peripherals configuration functions */
 283:../Utilities/STM32F4-Discovery/stm32f4_discovery_audio_codec.c **** static void     Audio_MAL_Init(void);
 284:../Utilities/STM32F4-Discovery/stm32f4_discovery_audio_codec.c **** static void     Audio_MAL_DeInit(void);
 285:../Utilities/STM32F4-Discovery/stm32f4_discovery_audio_codec.c **** static void     Audio_MAL_PauseResume(uint32_t Cmd, uint32_t Addr);
 286:../Utilities/STM32F4-Discovery/stm32f4_discovery_audio_codec.c **** static void     Audio_MAL_Stop(void);
 287:../Utilities/STM32F4-Discovery/stm32f4_discovery_audio_codec.c **** /*----------------------------------------------------------------------------*/
 288:../Utilities/STM32F4-Discovery/stm32f4_discovery_audio_codec.c **** 
 289:../Utilities/STM32F4-Discovery/stm32f4_discovery_audio_codec.c ****  /* DMA Stream definitions */
 290:../Utilities/STM32F4-Discovery/stm32f4_discovery_audio_codec.c ****  uint32_t AUDIO_MAL_DMA_CLOCK    = AUDIO_I2S_DMA_CLOCK;
 291:../Utilities/STM32F4-Discovery/stm32f4_discovery_audio_codec.c ****  DMA_Stream_TypeDef * AUDIO_MAL_DMA_STREAM   = AUDIO_I2S_DMA_STREAM ;       
 292:../Utilities/STM32F4-Discovery/stm32f4_discovery_audio_codec.c ****  uint32_t AUDIO_MAL_DMA_DREG     = AUDIO_I2S_DMA_DREG;
 293:../Utilities/STM32F4-Discovery/stm32f4_discovery_audio_codec.c ****  uint32_t AUDIO_MAL_DMA_CHANNEL  = AUDIO_I2S_DMA_CHANNEL;
 294:../Utilities/STM32F4-Discovery/stm32f4_discovery_audio_codec.c ****  uint32_t AUDIO_MAL_DMA_IRQ      = AUDIO_I2S_DMA_IRQ  ;
 295:../Utilities/STM32F4-Discovery/stm32f4_discovery_audio_codec.c ****  uint32_t AUDIO_MAL_DMA_FLAG_TC  = AUDIO_I2S_DMA_FLAG_TC;
 296:../Utilities/STM32F4-Discovery/stm32f4_discovery_audio_codec.c ****  uint32_t AUDIO_MAL_DMA_FLAG_HT  = AUDIO_I2S_DMA_FLAG_HT;
 297:../Utilities/STM32F4-Discovery/stm32f4_discovery_audio_codec.c ****  uint32_t AUDIO_MAL_DMA_FLAG_FE  = AUDIO_I2S_DMA_FLAG_FE;
 298:../Utilities/STM32F4-Discovery/stm32f4_discovery_audio_codec.c ****  uint32_t AUDIO_MAL_DMA_FLAG_TE  = AUDIO_I2S_DMA_FLAG_TE;
ARM GAS  C:\Users\admin\AppData\Local\Temp\ccfajY9A.s 			page 8


 299:../Utilities/STM32F4-Discovery/stm32f4_discovery_audio_codec.c ****  uint32_t AUDIO_MAL_DMA_FLAG_DME = AUDIO_I2S_DMA_FLAG_DME;
 300:../Utilities/STM32F4-Discovery/stm32f4_discovery_audio_codec.c **** 
 301:../Utilities/STM32F4-Discovery/stm32f4_discovery_audio_codec.c **** /**
 302:../Utilities/STM32F4-Discovery/stm32f4_discovery_audio_codec.c ****   * @brief  Set the current audio interface (I2S or DAC).
 303:../Utilities/STM32F4-Discovery/stm32f4_discovery_audio_codec.c ****   * @param  Interface: AUDIO_INTERFACE_I2S or AUDIO_INTERFACE_DAC
 304:../Utilities/STM32F4-Discovery/stm32f4_discovery_audio_codec.c ****   * @retval None
 305:../Utilities/STM32F4-Discovery/stm32f4_discovery_audio_codec.c ****   */
 306:../Utilities/STM32F4-Discovery/stm32f4_discovery_audio_codec.c **** void EVAL_AUDIO_SetAudioInterface(uint32_t Interface)
 307:../Utilities/STM32F4-Discovery/stm32f4_discovery_audio_codec.c **** {    
 308:../Utilities/STM32F4-Discovery/stm32f4_discovery_audio_codec.c ****   CurrAudioInterface = Interface;
 309:../Utilities/STM32F4-Discovery/stm32f4_discovery_audio_codec.c ****   
 310:../Utilities/STM32F4-Discovery/stm32f4_discovery_audio_codec.c ****   if (CurrAudioInterface == AUDIO_INTERFACE_I2S)
 311:../Utilities/STM32F4-Discovery/stm32f4_discovery_audio_codec.c ****   {
 312:../Utilities/STM32F4-Discovery/stm32f4_discovery_audio_codec.c ****     /* DMA Stream definitions */
 313:../Utilities/STM32F4-Discovery/stm32f4_discovery_audio_codec.c ****     AUDIO_MAL_DMA_CLOCK    = AUDIO_I2S_DMA_CLOCK;
 314:../Utilities/STM32F4-Discovery/stm32f4_discovery_audio_codec.c ****     AUDIO_MAL_DMA_STREAM   = AUDIO_I2S_DMA_STREAM;        
 315:../Utilities/STM32F4-Discovery/stm32f4_discovery_audio_codec.c ****     AUDIO_MAL_DMA_DREG     = AUDIO_I2S_DMA_DREG;
 316:../Utilities/STM32F4-Discovery/stm32f4_discovery_audio_codec.c ****     AUDIO_MAL_DMA_CHANNEL  = AUDIO_I2S_DMA_CHANNEL;
 317:../Utilities/STM32F4-Discovery/stm32f4_discovery_audio_codec.c ****     AUDIO_MAL_DMA_IRQ      = AUDIO_I2S_DMA_IRQ  ;
 318:../Utilities/STM32F4-Discovery/stm32f4_discovery_audio_codec.c ****     AUDIO_MAL_DMA_FLAG_TC  = AUDIO_I2S_DMA_FLAG_TC;
 319:../Utilities/STM32F4-Discovery/stm32f4_discovery_audio_codec.c ****     AUDIO_MAL_DMA_FLAG_HT  = AUDIO_I2S_DMA_FLAG_HT;
 320:../Utilities/STM32F4-Discovery/stm32f4_discovery_audio_codec.c ****     AUDIO_MAL_DMA_FLAG_FE  = AUDIO_I2S_DMA_FLAG_FE;
 321:../Utilities/STM32F4-Discovery/stm32f4_discovery_audio_codec.c ****     AUDIO_MAL_DMA_FLAG_TE  = AUDIO_I2S_DMA_FLAG_TE;
 322:../Utilities/STM32F4-Discovery/stm32f4_discovery_audio_codec.c ****     AUDIO_MAL_DMA_FLAG_DME = AUDIO_I2S_DMA_FLAG_DME;
 323:../Utilities/STM32F4-Discovery/stm32f4_discovery_audio_codec.c ****   }
 324:../Utilities/STM32F4-Discovery/stm32f4_discovery_audio_codec.c ****   else if (Interface == AUDIO_INTERFACE_DAC)
 325:../Utilities/STM32F4-Discovery/stm32f4_discovery_audio_codec.c ****   {
 326:../Utilities/STM32F4-Discovery/stm32f4_discovery_audio_codec.c ****     /* DMA Stream definitions */
 327:../Utilities/STM32F4-Discovery/stm32f4_discovery_audio_codec.c ****     AUDIO_MAL_DMA_CLOCK    = AUDIO_DAC_DMA_CLOCK;
 328:../Utilities/STM32F4-Discovery/stm32f4_discovery_audio_codec.c ****     AUDIO_MAL_DMA_STREAM   = AUDIO_DAC_DMA_STREAM;        
 329:../Utilities/STM32F4-Discovery/stm32f4_discovery_audio_codec.c ****     AUDIO_MAL_DMA_DREG     = AUDIO_DAC_DMA_DREG;
 330:../Utilities/STM32F4-Discovery/stm32f4_discovery_audio_codec.c ****     AUDIO_MAL_DMA_CHANNEL  = AUDIO_DAC_DMA_CHANNEL;
 331:../Utilities/STM32F4-Discovery/stm32f4_discovery_audio_codec.c ****     AUDIO_MAL_DMA_IRQ      = AUDIO_DAC_DMA_IRQ  ;
 332:../Utilities/STM32F4-Discovery/stm32f4_discovery_audio_codec.c ****     AUDIO_MAL_DMA_FLAG_TC  = AUDIO_DAC_DMA_FLAG_TC;
 333:../Utilities/STM32F4-Discovery/stm32f4_discovery_audio_codec.c ****     AUDIO_MAL_DMA_FLAG_HT  = AUDIO_DAC_DMA_FLAG_HT;
 334:../Utilities/STM32F4-Discovery/stm32f4_discovery_audio_codec.c ****     AUDIO_MAL_DMA_FLAG_FE  = AUDIO_DAC_DMA_FLAG_FE;
 335:../Utilities/STM32F4-Discovery/stm32f4_discovery_audio_codec.c ****     AUDIO_MAL_DMA_FLAG_TE  = AUDIO_DAC_DMA_FLAG_TE;
 336:../Utilities/STM32F4-Discovery/stm32f4_discovery_audio_codec.c ****     AUDIO_MAL_DMA_FLAG_DME = AUDIO_DAC_DMA_FLAG_DME;    
 337:../Utilities/STM32F4-Discovery/stm32f4_discovery_audio_codec.c ****   }
 338:../Utilities/STM32F4-Discovery/stm32f4_discovery_audio_codec.c **** }
 339:../Utilities/STM32F4-Discovery/stm32f4_discovery_audio_codec.c **** 
 340:../Utilities/STM32F4-Discovery/stm32f4_discovery_audio_codec.c **** /**
 341:../Utilities/STM32F4-Discovery/stm32f4_discovery_audio_codec.c ****   * @brief  Configure the audio peripherals.
 342:../Utilities/STM32F4-Discovery/stm32f4_discovery_audio_codec.c ****   * @param  OutputDevice: OUTPUT_DEVICE_SPEAKER, OUTPUT_DEVICE_HEADPHONE,
 343:../Utilities/STM32F4-Discovery/stm32f4_discovery_audio_codec.c ****   *                       OUTPUT_DEVICE_BOTH or OUTPUT_DEVICE_AUTO .
 344:../Utilities/STM32F4-Discovery/stm32f4_discovery_audio_codec.c ****   * @param  Volume: Initial volume level (from 0 (Mute) to 100 (Max))
 345:../Utilities/STM32F4-Discovery/stm32f4_discovery_audio_codec.c ****   * @param  AudioFreq: Audio frequency used to play the audio stream.
 346:../Utilities/STM32F4-Discovery/stm32f4_discovery_audio_codec.c ****   * @retval 0 if correct communication, else wrong communication
 347:../Utilities/STM32F4-Discovery/stm32f4_discovery_audio_codec.c ****   */
 348:../Utilities/STM32F4-Discovery/stm32f4_discovery_audio_codec.c **** uint32_t EVAL_AUDIO_Init(uint16_t OutputDevice, uint8_t Volume, uint32_t AudioFreq)
 349:../Utilities/STM32F4-Discovery/stm32f4_discovery_audio_codec.c **** {    
 350:../Utilities/STM32F4-Discovery/stm32f4_discovery_audio_codec.c ****   /* Perform low layer Codec initialization */
 351:../Utilities/STM32F4-Discovery/stm32f4_discovery_audio_codec.c ****   SET_I2S_PLL(AudioFreq);//configures I2S PLL module
 352:../Utilities/STM32F4-Discovery/stm32f4_discovery_audio_codec.c ****   
 353:../Utilities/STM32F4-Discovery/stm32f4_discovery_audio_codec.c ****   if (Codec_Init(OutputDevice, VOLUME_CONVERT(Volume), AudioFreq) != 0)
 354:../Utilities/STM32F4-Discovery/stm32f4_discovery_audio_codec.c ****   {
 355:../Utilities/STM32F4-Discovery/stm32f4_discovery_audio_codec.c ****     return 1;                
ARM GAS  C:\Users\admin\AppData\Local\Temp\ccfajY9A.s 			page 9


 356:../Utilities/STM32F4-Discovery/stm32f4_discovery_audio_codec.c ****   }
 357:../Utilities/STM32F4-Discovery/stm32f4_discovery_audio_codec.c ****   else
 358:../Utilities/STM32F4-Discovery/stm32f4_discovery_audio_codec.c ****   {    
 359:../Utilities/STM32F4-Discovery/stm32f4_discovery_audio_codec.c ****     /* I2S data transfer preparation:
 360:../Utilities/STM32F4-Discovery/stm32f4_discovery_audio_codec.c ****     Prepare the Media to be used for the audio transfer from memory to I2S peripheral */
 361:../Utilities/STM32F4-Discovery/stm32f4_discovery_audio_codec.c ****     Audio_MAL_Init();
 362:../Utilities/STM32F4-Discovery/stm32f4_discovery_audio_codec.c ****     
 363:../Utilities/STM32F4-Discovery/stm32f4_discovery_audio_codec.c ****     /* Return 0 when all operations are OK */
 364:../Utilities/STM32F4-Discovery/stm32f4_discovery_audio_codec.c ****     return 0;
 365:../Utilities/STM32F4-Discovery/stm32f4_discovery_audio_codec.c ****   }
 366:../Utilities/STM32F4-Discovery/stm32f4_discovery_audio_codec.c **** }
 367:../Utilities/STM32F4-Discovery/stm32f4_discovery_audio_codec.c **** 
 368:../Utilities/STM32F4-Discovery/stm32f4_discovery_audio_codec.c **** /**
 369:../Utilities/STM32F4-Discovery/stm32f4_discovery_audio_codec.c ****   * @brief  Deinitializes all the resources used by the codec (those initialized
 370:../Utilities/STM32F4-Discovery/stm32f4_discovery_audio_codec.c ****   *         by EVAL_AUDIO_Init() function). 
 371:../Utilities/STM32F4-Discovery/stm32f4_discovery_audio_codec.c ****   * @param  None
 372:../Utilities/STM32F4-Discovery/stm32f4_discovery_audio_codec.c ****   * @retval 0 if correct communication, else wrong communication
 373:../Utilities/STM32F4-Discovery/stm32f4_discovery_audio_codec.c ****   */
 374:../Utilities/STM32F4-Discovery/stm32f4_discovery_audio_codec.c **** uint32_t EVAL_AUDIO_DeInit(void)
 375:../Utilities/STM32F4-Discovery/stm32f4_discovery_audio_codec.c **** { 
 376:../Utilities/STM32F4-Discovery/stm32f4_discovery_audio_codec.c ****   /* DeInitialize the Media layer */
 377:../Utilities/STM32F4-Discovery/stm32f4_discovery_audio_codec.c ****   Audio_MAL_DeInit();
 378:../Utilities/STM32F4-Discovery/stm32f4_discovery_audio_codec.c ****   
 379:../Utilities/STM32F4-Discovery/stm32f4_discovery_audio_codec.c ****   /* DeInitialize Codec */  
 380:../Utilities/STM32F4-Discovery/stm32f4_discovery_audio_codec.c ****   Codec_DeInit();  
 381:../Utilities/STM32F4-Discovery/stm32f4_discovery_audio_codec.c ****   
 382:../Utilities/STM32F4-Discovery/stm32f4_discovery_audio_codec.c ****   return 0;
 383:../Utilities/STM32F4-Discovery/stm32f4_discovery_audio_codec.c **** }
 384:../Utilities/STM32F4-Discovery/stm32f4_discovery_audio_codec.c **** 
 385:../Utilities/STM32F4-Discovery/stm32f4_discovery_audio_codec.c **** /**
 386:../Utilities/STM32F4-Discovery/stm32f4_discovery_audio_codec.c ****   * @brief  Starts playing audio stream from a data buffer for a determined size. 
 387:../Utilities/STM32F4-Discovery/stm32f4_discovery_audio_codec.c ****   * @param  pBuffer: Pointer to the buffer 
 388:../Utilities/STM32F4-Discovery/stm32f4_discovery_audio_codec.c ****   * @param  Size: Number of audio data BYTES.
 389:../Utilities/STM32F4-Discovery/stm32f4_discovery_audio_codec.c ****   * @retval 0 if correct communication, else wrong communication
 390:../Utilities/STM32F4-Discovery/stm32f4_discovery_audio_codec.c ****   */
 391:../Utilities/STM32F4-Discovery/stm32f4_discovery_audio_codec.c **** uint32_t EVAL_AUDIO_Play(uint16_t* pBuffer, uint32_t Size)
 392:../Utilities/STM32F4-Discovery/stm32f4_discovery_audio_codec.c **** {
 393:../Utilities/STM32F4-Discovery/stm32f4_discovery_audio_codec.c ****   
 394:../Utilities/STM32F4-Discovery/stm32f4_discovery_audio_codec.c ****   
 395:../Utilities/STM32F4-Discovery/stm32f4_discovery_audio_codec.c ****   /* Set the total number of data to be played (count in 16-bit) */
 396:../Utilities/STM32F4-Discovery/stm32f4_discovery_audio_codec.c ****   AudioTotalSize = Size/2;
 397:../Utilities/STM32F4-Discovery/stm32f4_discovery_audio_codec.c **** 
 398:../Utilities/STM32F4-Discovery/stm32f4_discovery_audio_codec.c ****   /* Call the audio Codec Play function */
 399:../Utilities/STM32F4-Discovery/stm32f4_discovery_audio_codec.c ****   Codec_Play();
 400:../Utilities/STM32F4-Discovery/stm32f4_discovery_audio_codec.c ****   
 401:../Utilities/STM32F4-Discovery/stm32f4_discovery_audio_codec.c ****   /* Update the Media layer and enable it for play */  
 402:../Utilities/STM32F4-Discovery/stm32f4_discovery_audio_codec.c ****   Audio_MAL_Play((uint32_t)pBuffer, (uint32_t)(DMA_MAX(AudioTotalSize / 2)));
 403:../Utilities/STM32F4-Discovery/stm32f4_discovery_audio_codec.c ****   
 404:../Utilities/STM32F4-Discovery/stm32f4_discovery_audio_codec.c ****   /* Update the remaining number of data to be played */
 405:../Utilities/STM32F4-Discovery/stm32f4_discovery_audio_codec.c ****   AudioRemSize = (Size/2) - DMA_MAX(AudioTotalSize);//  16-bit
 406:../Utilities/STM32F4-Discovery/stm32f4_discovery_audio_codec.c ****   
 407:../Utilities/STM32F4-Discovery/stm32f4_discovery_audio_codec.c ****   /* Update the current audio pointer position */
 408:../Utilities/STM32F4-Discovery/stm32f4_discovery_audio_codec.c ****   CurrentPos = pBuffer + DMA_MAX(AudioTotalSize);//  16-bit
 409:../Utilities/STM32F4-Discovery/stm32f4_discovery_audio_codec.c ****   
 410:../Utilities/STM32F4-Discovery/stm32f4_discovery_audio_codec.c ****   return 0;
 411:../Utilities/STM32F4-Discovery/stm32f4_discovery_audio_codec.c **** }
 412:../Utilities/STM32F4-Discovery/stm32f4_discovery_audio_codec.c **** 
ARM GAS  C:\Users\admin\AppData\Local\Temp\ccfajY9A.s 			page 10


 413:../Utilities/STM32F4-Discovery/stm32f4_discovery_audio_codec.c **** /**
 414:../Utilities/STM32F4-Discovery/stm32f4_discovery_audio_codec.c ****   * @brief  This function Pauses or Resumes the audio file stream. In case
 415:../Utilities/STM32F4-Discovery/stm32f4_discovery_audio_codec.c ****   *         of using DMA, the DMA Pause feature is used. In all cases the I2S 
 416:../Utilities/STM32F4-Discovery/stm32f4_discovery_audio_codec.c ****   *         peripheral is disabled. 
 417:../Utilities/STM32F4-Discovery/stm32f4_discovery_audio_codec.c ****   * 
 418:../Utilities/STM32F4-Discovery/stm32f4_discovery_audio_codec.c ****   * @WARNING When calling EVAL_AUDIO_PauseResume() function for pause, only
 419:../Utilities/STM32F4-Discovery/stm32f4_discovery_audio_codec.c ****   *          this function should be called for resume (use of EVAL_AUDIO_Play() 
 420:../Utilities/STM32F4-Discovery/stm32f4_discovery_audio_codec.c ****   *          function for resume could lead to unexpected behavior).
 421:../Utilities/STM32F4-Discovery/stm32f4_discovery_audio_codec.c ****   * 
 422:../Utilities/STM32F4-Discovery/stm32f4_discovery_audio_codec.c ****   * @param  Cmd: AUDIO_PAUSE (or 0) to pause, AUDIO_RESUME (or any value different
 423:../Utilities/STM32F4-Discovery/stm32f4_discovery_audio_codec.c ****   *         from 0) to resume. 
 424:../Utilities/STM32F4-Discovery/stm32f4_discovery_audio_codec.c ****   * @retval 0 if correct communication, else wrong communication
 425:../Utilities/STM32F4-Discovery/stm32f4_discovery_audio_codec.c ****   */
 426:../Utilities/STM32F4-Discovery/stm32f4_discovery_audio_codec.c **** uint32_t EVAL_AUDIO_PauseResume(uint32_t Cmd)
 427:../Utilities/STM32F4-Discovery/stm32f4_discovery_audio_codec.c **** {    
 428:../Utilities/STM32F4-Discovery/stm32f4_discovery_audio_codec.c ****   /* Call the Audio Codec Pause/Resume function */
 429:../Utilities/STM32F4-Discovery/stm32f4_discovery_audio_codec.c ****   
 430:../Utilities/STM32F4-Discovery/stm32f4_discovery_audio_codec.c ****   if (Codec_PauseResume(Cmd) != 0)
 431:../Utilities/STM32F4-Discovery/stm32f4_discovery_audio_codec.c ****   {
 432:../Utilities/STM32F4-Discovery/stm32f4_discovery_audio_codec.c ****     return 1;
 433:../Utilities/STM32F4-Discovery/stm32f4_discovery_audio_codec.c ****   }
 434:../Utilities/STM32F4-Discovery/stm32f4_discovery_audio_codec.c ****   else
 435:../Utilities/STM32F4-Discovery/stm32f4_discovery_audio_codec.c ****   {
 436:../Utilities/STM32F4-Discovery/stm32f4_discovery_audio_codec.c ****     // Call the Media layer pause/resume function 
 437:../Utilities/STM32F4-Discovery/stm32f4_discovery_audio_codec.c ****     Audio_MAL_PauseResume(Cmd, 0);
 438:../Utilities/STM32F4-Discovery/stm32f4_discovery_audio_codec.c ****     
 439:../Utilities/STM32F4-Discovery/stm32f4_discovery_audio_codec.c ****     // Return 0 if all operations are OK 
 440:../Utilities/STM32F4-Discovery/stm32f4_discovery_audio_codec.c ****     return 0;
 441:../Utilities/STM32F4-Discovery/stm32f4_discovery_audio_codec.c ****   }
 442:../Utilities/STM32F4-Discovery/stm32f4_discovery_audio_codec.c **** 
 443:../Utilities/STM32F4-Discovery/stm32f4_discovery_audio_codec.c **** }
 444:../Utilities/STM32F4-Discovery/stm32f4_discovery_audio_codec.c **** 
 445:../Utilities/STM32F4-Discovery/stm32f4_discovery_audio_codec.c **** /**
 446:../Utilities/STM32F4-Discovery/stm32f4_discovery_audio_codec.c ****   * @brief  Stops audio playing and Power down the Audio Codec. 
 447:../Utilities/STM32F4-Discovery/stm32f4_discovery_audio_codec.c ****   * @param  Option: could be one of the following parameters 
 448:../Utilities/STM32F4-Discovery/stm32f4_discovery_audio_codec.c ****   *           - CODEC_PDWN_SW: for software power off (by writing registers). 
 449:../Utilities/STM32F4-Discovery/stm32f4_discovery_audio_codec.c ****   *                            Then no need to reconfigure the Codec after power on.
 450:../Utilities/STM32F4-Discovery/stm32f4_discovery_audio_codec.c ****   *           - CODEC_PDWN_HW: completely shut down the codec (physically). 
 451:../Utilities/STM32F4-Discovery/stm32f4_discovery_audio_codec.c ****   *                            Then need to reconfigure the Codec after power on.  
 452:../Utilities/STM32F4-Discovery/stm32f4_discovery_audio_codec.c ****   * @retval 0 if correct communication, else wrong communication
 453:../Utilities/STM32F4-Discovery/stm32f4_discovery_audio_codec.c ****   */
 454:../Utilities/STM32F4-Discovery/stm32f4_discovery_audio_codec.c **** uint32_t EVAL_AUDIO_Stop(uint32_t Option)
 455:../Utilities/STM32F4-Discovery/stm32f4_discovery_audio_codec.c **** {
 456:../Utilities/STM32F4-Discovery/stm32f4_discovery_audio_codec.c ****   /* Call Audio Codec Stop function */
 457:../Utilities/STM32F4-Discovery/stm32f4_discovery_audio_codec.c ****   if (Codec_Stop(Option) != 0)
 458:../Utilities/STM32F4-Discovery/stm32f4_discovery_audio_codec.c ****   {
 459:../Utilities/STM32F4-Discovery/stm32f4_discovery_audio_codec.c ****     return 1;
 460:../Utilities/STM32F4-Discovery/stm32f4_discovery_audio_codec.c ****   }
 461:../Utilities/STM32F4-Discovery/stm32f4_discovery_audio_codec.c ****   else
 462:../Utilities/STM32F4-Discovery/stm32f4_discovery_audio_codec.c ****   {
 463:../Utilities/STM32F4-Discovery/stm32f4_discovery_audio_codec.c ****     /* Call Media layer Stop function */
 464:../Utilities/STM32F4-Discovery/stm32f4_discovery_audio_codec.c ****     Audio_MAL_Stop();
 465:../Utilities/STM32F4-Discovery/stm32f4_discovery_audio_codec.c ****     
 466:../Utilities/STM32F4-Discovery/stm32f4_discovery_audio_codec.c ****     /* Update the remaining data number */
 467:../Utilities/STM32F4-Discovery/stm32f4_discovery_audio_codec.c ****     AudioRemSize = AudioTotalSize;    
 468:../Utilities/STM32F4-Discovery/stm32f4_discovery_audio_codec.c ****     
 469:../Utilities/STM32F4-Discovery/stm32f4_discovery_audio_codec.c ****     /* Return 0 when all operations are correctly done */
ARM GAS  C:\Users\admin\AppData\Local\Temp\ccfajY9A.s 			page 11


 470:../Utilities/STM32F4-Discovery/stm32f4_discovery_audio_codec.c ****     return 0;
 471:../Utilities/STM32F4-Discovery/stm32f4_discovery_audio_codec.c ****   }
 472:../Utilities/STM32F4-Discovery/stm32f4_discovery_audio_codec.c **** }
 473:../Utilities/STM32F4-Discovery/stm32f4_discovery_audio_codec.c **** 
 474:../Utilities/STM32F4-Discovery/stm32f4_discovery_audio_codec.c **** /**
 475:../Utilities/STM32F4-Discovery/stm32f4_discovery_audio_codec.c ****   * @brief  Controls the current audio volume level. 
 476:../Utilities/STM32F4-Discovery/stm32f4_discovery_audio_codec.c ****   * @param  Volume: Volume level to be set in percentage from 0% to 100% (0 for 
 477:../Utilities/STM32F4-Discovery/stm32f4_discovery_audio_codec.c ****   *         Mute and 100 for Max volume level).
 478:../Utilities/STM32F4-Discovery/stm32f4_discovery_audio_codec.c ****   * @retval 0 if correct communication, else wrong communication
 479:../Utilities/STM32F4-Discovery/stm32f4_discovery_audio_codec.c ****   */
 480:../Utilities/STM32F4-Discovery/stm32f4_discovery_audio_codec.c **** uint32_t EVAL_AUDIO_VolumeCtl(uint8_t Volume)
 481:../Utilities/STM32F4-Discovery/stm32f4_discovery_audio_codec.c **** {
 482:../Utilities/STM32F4-Discovery/stm32f4_discovery_audio_codec.c ****   /* Call the codec volume control function with converted volume value */
 483:../Utilities/STM32F4-Discovery/stm32f4_discovery_audio_codec.c ****   return (Codec_VolumeCtrl(VOLUME_CONVERT(Volume)));
 484:../Utilities/STM32F4-Discovery/stm32f4_discovery_audio_codec.c **** }
 485:../Utilities/STM32F4-Discovery/stm32f4_discovery_audio_codec.c **** 
 486:../Utilities/STM32F4-Discovery/stm32f4_discovery_audio_codec.c **** /**
 487:../Utilities/STM32F4-Discovery/stm32f4_discovery_audio_codec.c ****   * @brief  Enables or disables the MUTE mode by software 
 488:../Utilities/STM32F4-Discovery/stm32f4_discovery_audio_codec.c ****   * @param  Command: could be AUDIO_MUTE_ON to mute sound or AUDIO_MUTE_OFF to 
 489:../Utilities/STM32F4-Discovery/stm32f4_discovery_audio_codec.c ****   *         unmute the codec and restore previous volume level.
 490:../Utilities/STM32F4-Discovery/stm32f4_discovery_audio_codec.c ****   * @retval 0 if correct communication, else wrong communication
 491:../Utilities/STM32F4-Discovery/stm32f4_discovery_audio_codec.c ****   */
 492:../Utilities/STM32F4-Discovery/stm32f4_discovery_audio_codec.c **** uint32_t EVAL_AUDIO_Mute(uint32_t Cmd)
 493:../Utilities/STM32F4-Discovery/stm32f4_discovery_audio_codec.c **** { 
 494:../Utilities/STM32F4-Discovery/stm32f4_discovery_audio_codec.c ****   /* Call the Codec Mute function */
 495:../Utilities/STM32F4-Discovery/stm32f4_discovery_audio_codec.c ****   return (Codec_Mute(Cmd));
 496:../Utilities/STM32F4-Discovery/stm32f4_discovery_audio_codec.c **** }
 497:../Utilities/STM32F4-Discovery/stm32f4_discovery_audio_codec.c **** 
 498:../Utilities/STM32F4-Discovery/stm32f4_discovery_audio_codec.c **** /**
 499:../Utilities/STM32F4-Discovery/stm32f4_discovery_audio_codec.c ****   * @brief  This function handles main Media layer interrupt. 
 500:../Utilities/STM32F4-Discovery/stm32f4_discovery_audio_codec.c ****   * @param  None
 501:../Utilities/STM32F4-Discovery/stm32f4_discovery_audio_codec.c ****   * @retval 0 if correct communication, else wrong communication
 502:../Utilities/STM32F4-Discovery/stm32f4_discovery_audio_codec.c ****   */
 503:../Utilities/STM32F4-Discovery/stm32f4_discovery_audio_codec.c **** static void Audio_MAL_IRQHandler(void)
 102              		.loc 1 503 13 view -0
 103              		.cfi_startproc
 104              		@ args = 0, pretend = 0, frame = 0
 105              		@ frame_needed = 0, uses_anonymous_args = 0
 106 0000 70B5     		push	{r4, r5, r6, lr}	@
 107              		.cfi_def_cfa_offset 16
 108              		.cfi_offset 4, -16
 109              		.cfi_offset 5, -12
 110              		.cfi_offset 6, -8
 111              		.cfi_offset 14, -4
 112 0002 1A4C     		ldr	r4, .L8	@ tmp162,
 113              	.L2:
 504:../Utilities/STM32F4-Discovery/stm32f4_discovery_audio_codec.c **** {    
 505:../Utilities/STM32F4-Discovery/stm32f4_discovery_audio_codec.c ****   
 506:../Utilities/STM32F4-Discovery/stm32f4_discovery_audio_codec.c ****   //DMA_ClearFlag(AUDIO_MAL_DMA_STREAM, AUDIO_MAL_DMA_FLAG_TC); 
 507:../Utilities/STM32F4-Discovery/stm32f4_discovery_audio_codec.c ****   //STM_EVAL_LEDOff(LED6);
 508:../Utilities/STM32F4-Discovery/stm32f4_discovery_audio_codec.c ****   
 509:../Utilities/STM32F4-Discovery/stm32f4_discovery_audio_codec.c **** #ifndef AUDIO_MAL_MODE_NORMAL
 510:../Utilities/STM32F4-Discovery/stm32f4_discovery_audio_codec.c ****   
 511:../Utilities/STM32F4-Discovery/stm32f4_discovery_audio_codec.c ****     uint16_t *pAddr = (uint16_t *)CurrentPos;
 512:../Utilities/STM32F4-Discovery/stm32f4_discovery_audio_codec.c ****   uint32_t Size = AudioRemSize;
 513:../Utilities/STM32F4-Discovery/stm32f4_discovery_audio_codec.c **** #endif /* AUDIO_MAL_MODE_NORMAL */
 514:../Utilities/STM32F4-Discovery/stm32f4_discovery_audio_codec.c ****   
ARM GAS  C:\Users\admin\AppData\Local\Temp\ccfajY9A.s 			page 12


 515:../Utilities/STM32F4-Discovery/stm32f4_discovery_audio_codec.c **** #ifdef AUDIO_MAL_DMA_IT_TC_EN
 516:../Utilities/STM32F4-Discovery/stm32f4_discovery_audio_codec.c ****   /* Transfer complete interrupt */
 517:../Utilities/STM32F4-Discovery/stm32f4_discovery_audio_codec.c ****   if (DMA_GetFlagStatus(AUDIO_MAL_DMA_STREAM, AUDIO_MAL_DMA_FLAG_TC) != RESET)
 518:../Utilities/STM32F4-Discovery/stm32f4_discovery_audio_codec.c ****   {         
 519:../Utilities/STM32F4-Discovery/stm32f4_discovery_audio_codec.c ****  #ifdef AUDIO_MAL_MODE_NORMAL
 520:../Utilities/STM32F4-Discovery/stm32f4_discovery_audio_codec.c ****     /* Check if the end of file has been reached */
 521:../Utilities/STM32F4-Discovery/stm32f4_discovery_audio_codec.c ****     if (AudioRemSize > 0)
 522:../Utilities/STM32F4-Discovery/stm32f4_discovery_audio_codec.c ****     {      
 523:../Utilities/STM32F4-Discovery/stm32f4_discovery_audio_codec.c ****       /* Wait the DMA Stream to be effectively disabled */
 524:../Utilities/STM32F4-Discovery/stm32f4_discovery_audio_codec.c ****       while (DMA_GetCmdStatus(AUDIO_MAL_DMA_STREAM) != DISABLE)
 525:../Utilities/STM32F4-Discovery/stm32f4_discovery_audio_codec.c ****       {}
 114              		.loc 1 525 8 view .LVU1
 524:../Utilities/STM32F4-Discovery/stm32f4_discovery_audio_codec.c ****       {}
 115              		.loc 1 524 13 view .LVU2
 116              	@ ../Utilities/STM32F4-Discovery/stm32f4_discovery_audio_codec.c:524:       while (DMA_GetCmdStatus
 524:../Utilities/STM32F4-Discovery/stm32f4_discovery_audio_codec.c ****       {}
 117              		.loc 1 524 14 is_stmt 0 view .LVU3
 118 0004 2068     		ldr	r0, [r4]	@, AUDIO_MAL_DMA_STREAM
 119 0006 FFF7FEFF 		bl	DMA_GetCmdStatus		@
 120              	.LVL0:
 121              	@ ../Utilities/STM32F4-Discovery/stm32f4_discovery_audio_codec.c:524:       while (DMA_GetCmdStatus
 524:../Utilities/STM32F4-Discovery/stm32f4_discovery_audio_codec.c ****       {}
 122              		.loc 1 524 13 view .LVU4
 123 000a 0028     		cmp	r0, #0	@ tmp163
 124 000c FAD1     		bne	.L2	@
 526:../Utilities/STM32F4-Discovery/stm32f4_discovery_audio_codec.c ****       
 527:../Utilities/STM32F4-Discovery/stm32f4_discovery_audio_codec.c ****       /* Clear the Interrupt flag */
 528:../Utilities/STM32F4-Discovery/stm32f4_discovery_audio_codec.c ****       DMA_ClearFlag(AUDIO_MAL_DMA_STREAM, AUDIO_MAL_DMA_FLAG_TC); 
 125              		.loc 1 528 7 is_stmt 1 view .LVU5
 126 000e 184B     		ldr	r3, .L8+4	@ tmp133,
 127              	@ ../Utilities/STM32F4-Discovery/stm32f4_discovery_audio_codec.c:531:       DMA_InitStructure.DMA_M
 529:../Utilities/STM32F4-Discovery/stm32f4_discovery_audio_codec.c ****            
 530:../Utilities/STM32F4-Discovery/stm32f4_discovery_audio_codec.c ****       /* Re-Configure the buffer address and size */
 531:../Utilities/STM32F4-Discovery/stm32f4_discovery_audio_codec.c ****       DMA_InitStructure.DMA_Memory0BaseAddr = (uint32_t) CurrentPos;
 128              		.loc 1 531 47 is_stmt 0 view .LVU6
 129 0010 184E     		ldr	r6, .L8+8	@ tmp160,
 130              	@ ../Utilities/STM32F4-Discovery/stm32f4_discovery_audio_codec.c:528:       DMA_ClearFlag(AUDIO_MAL
 528:../Utilities/STM32F4-Discovery/stm32f4_discovery_audio_codec.c ****            
 131              		.loc 1 528 7 view .LVU7
 132 0012 1968     		ldr	r1, [r3]	@, AUDIO_MAL_DMA_FLAG_TC
 133 0014 2068     		ldr	r0, [r4]	@, AUDIO_MAL_DMA_STREAM
 134              	@ ../Utilities/STM32F4-Discovery/stm32f4_discovery_audio_codec.c:532:       DMA_InitStructure.DMA_B
 532:../Utilities/STM32F4-Discovery/stm32f4_discovery_audio_codec.c ****       DMA_InitStructure.DMA_BufferSize = (uint32_t) (DMA_MAX(AudioRemSize));
 135              		.loc 1 532 42 view .LVU8
 136 0016 184D     		ldr	r5, .L8+12	@ tmp161,
 137              	@ ../Utilities/STM32F4-Discovery/stm32f4_discovery_audio_codec.c:528:       DMA_ClearFlag(AUDIO_MAL
 528:../Utilities/STM32F4-Discovery/stm32f4_discovery_audio_codec.c ****            
 138              		.loc 1 528 7 view .LVU9
 139 0018 FFF7FEFF 		bl	DMA_ClearFlag		@
 140              	.LVL1:
 531:../Utilities/STM32F4-Discovery/stm32f4_discovery_audio_codec.c ****       DMA_InitStructure.DMA_BufferSize = (uint32_t) (DMA_MAX(AudioRemSize));
 141              		.loc 1 531 7 is_stmt 1 view .LVU10
 142              	@ ../Utilities/STM32F4-Discovery/stm32f4_discovery_audio_codec.c:531:       DMA_InitStructure.DMA_M
 531:../Utilities/STM32F4-Discovery/stm32f4_discovery_audio_codec.c ****       DMA_InitStructure.DMA_BufferSize = (uint32_t) (DMA_MAX(AudioRemSize));
 143              		.loc 1 531 45 is_stmt 0 view .LVU11
 144 001c 1749     		ldr	r1, .L8+16	@ tmp137,
 145 001e 3368     		ldr	r3, [r6]	@ CurrentPos, CurrentPos
ARM GAS  C:\Users\admin\AppData\Local\Temp\ccfajY9A.s 			page 13


 146 0020 8B60     		str	r3, [r1, #8]	@ CurrentPos, DMA_InitStructure.DMA_Memory0BaseAddr
 147              		.loc 1 532 7 is_stmt 1 view .LVU12
 148              	@ ../Utilities/STM32F4-Discovery/stm32f4_discovery_audio_codec.c:532:       DMA_InitStructure.DMA_B
 149              		.loc 1 532 42 is_stmt 0 view .LVU13
 150 0022 2B68     		ldr	r3, [r5]	@ AudioRemSize, AudioRemSize
 151              	@ ../Utilities/STM32F4-Discovery/stm32f4_discovery_audio_codec.c:535:       DMA_Init(AUDIO_MAL_DMA_
 533:../Utilities/STM32F4-Discovery/stm32f4_discovery_audio_codec.c ****             
 534:../Utilities/STM32F4-Discovery/stm32f4_discovery_audio_codec.c ****       /* Configure the DMA Stream with the new parameters */
 535:../Utilities/STM32F4-Discovery/stm32f4_discovery_audio_codec.c ****       DMA_Init(AUDIO_MAL_DMA_STREAM, &DMA_InitStructure);
 152              		.loc 1 535 7 view .LVU14
 153 0024 2068     		ldr	r0, [r4]	@, AUDIO_MAL_DMA_STREAM
 154              	@ ../Utilities/STM32F4-Discovery/stm32f4_discovery_audio_codec.c:532:       DMA_InitStructure.DMA_B
 532:../Utilities/STM32F4-Discovery/stm32f4_discovery_audio_codec.c ****             
 155              		.loc 1 532 42 view .LVU15
 156 0026 4FF6FF72 		movw	r2, #65535	@ tmp144,
 157 002a 9342     		cmp	r3, r2	@ AudioRemSize, tmp144
 158 002c 28BF     		it	cs
 159 002e 1346     		movcs	r3, r2	@ tmp142, tmp144
 160              	@ ../Utilities/STM32F4-Discovery/stm32f4_discovery_audio_codec.c:532:       DMA_InitStructure.DMA_B
 532:../Utilities/STM32F4-Discovery/stm32f4_discovery_audio_codec.c ****             
 161              		.loc 1 532 40 view .LVU16
 162 0030 0B61     		str	r3, [r1, #16]	@ tmp142, DMA_InitStructure.DMA_BufferSize
 163              		.loc 1 535 7 is_stmt 1 view .LVU17
 164 0032 FFF7FEFF 		bl	DMA_Init		@
 165              	.LVL2:
 536:../Utilities/STM32F4-Discovery/stm32f4_discovery_audio_codec.c ****       
 537:../Utilities/STM32F4-Discovery/stm32f4_discovery_audio_codec.c ****       /* Enable the I2S DMA Stream*/
 538:../Utilities/STM32F4-Discovery/stm32f4_discovery_audio_codec.c ****       DMA_Cmd(AUDIO_MAL_DMA_STREAM, ENABLE);    
 166              		.loc 1 538 7 view .LVU18
 167 0036 0121     		movs	r1, #1	@,
 168 0038 2068     		ldr	r0, [r4]	@, AUDIO_MAL_DMA_STREAM
 169 003a FFF7FEFF 		bl	DMA_Cmd		@
 170              	.LVL3:
 539:../Utilities/STM32F4-Discovery/stm32f4_discovery_audio_codec.c ****       
 540:../Utilities/STM32F4-Discovery/stm32f4_discovery_audio_codec.c ****       /* Update the current pointer position */
 541:../Utilities/STM32F4-Discovery/stm32f4_discovery_audio_codec.c ****       CurrentPos += DMA_MAX(AudioRemSize);        
 171              		.loc 1 541 7 view .LVU19
 172              	@ ../Utilities/STM32F4-Discovery/stm32f4_discovery_audio_codec.c:541:       CurrentPos += DMA_MAX(A
 173              		.loc 1 541 21 is_stmt 0 view .LVU20
 174 003e 2B68     		ldr	r3, [r5]	@ AudioRemSize.77_12, AudioRemSize
 175              	@ ../Utilities/STM32F4-Discovery/stm32f4_discovery_audio_codec.c:541:       CurrentPos += DMA_MAX(A
 176              		.loc 1 541 18 view .LVU21
 177 0040 3268     		ldr	r2, [r6]	@ CurrentPos.75_11, CurrentPos
 178              	@ ../Utilities/STM32F4-Discovery/stm32f4_discovery_audio_codec.c:546:       DMA_Cmd(AUDIO_MAL_DMA_S
 542:../Utilities/STM32F4-Discovery/stm32f4_discovery_audio_codec.c ****       
 543:../Utilities/STM32F4-Discovery/stm32f4_discovery_audio_codec.c ****       /* Update the remaining number of data to be played */
 544:../Utilities/STM32F4-Discovery/stm32f4_discovery_audio_codec.c ****       AudioRemSize -= DMA_MAX(AudioRemSize);   
 545:../Utilities/STM32F4-Discovery/stm32f4_discovery_audio_codec.c ****         /* Enable the I2S DMA Stream*/
 546:../Utilities/STM32F4-Discovery/stm32f4_discovery_audio_codec.c ****       DMA_Cmd(AUDIO_MAL_DMA_STREAM, ENABLE); 
 179              		.loc 1 546 7 view .LVU22
 180 0042 2068     		ldr	r0, [r4]	@, AUDIO_MAL_DMA_STREAM
 181              	@ ../Utilities/STM32F4-Discovery/stm32f4_discovery_audio_codec.c:541:       CurrentPos += DMA_MAX(A
 541:../Utilities/STM32F4-Discovery/stm32f4_discovery_audio_codec.c ****       
 182              		.loc 1 541 18 view .LVU23
 183 0044 B3F5803F 		cmp	r3, #65536	@ AudioRemSize.77_12,
 184 0048 2CBF     		ite	cs
 185 004a 0D49     		ldrcs	r1, .L8+20	@ iftmp.76_13,
ARM GAS  C:\Users\admin\AppData\Local\Temp\ccfajY9A.s 			page 14


 186 004c 5900     		lslcc	r1, r3, #1	@ iftmp.76_13, AudioRemSize.77_12,
 187 004e 0A44     		add	r2, r2, r1	@ tmp153, iftmp.76_13
 188 0050 3260     		str	r2, [r6]	@ tmp153, CurrentPos
 544:../Utilities/STM32F4-Discovery/stm32f4_discovery_audio_codec.c ****         /* Enable the I2S DMA Stream*/
 189              		.loc 1 544 7 is_stmt 1 view .LVU24
 190              	@ ../Utilities/STM32F4-Discovery/stm32f4_discovery_audio_codec.c:544:       AudioRemSize -= DMA_MAX
 544:../Utilities/STM32F4-Discovery/stm32f4_discovery_audio_codec.c ****         /* Enable the I2S DMA Stream*/
 191              		.loc 1 544 23 is_stmt 0 view .LVU25
 192 0052 4FF6FF72 		movw	r2, #65535	@ tmp156,
 193              	@ ../Utilities/STM32F4-Discovery/stm32f4_discovery_audio_codec.c:544:       AudioRemSize -= DMA_MAX
 544:../Utilities/STM32F4-Discovery/stm32f4_discovery_audio_codec.c ****         /* Enable the I2S DMA Stream*/
 194              		.loc 1 544 20 view .LVU26
 195 0056 9342     		cmp	r3, r2	@ AudioRemSize.77_12, tmp156
 196 0058 94BF     		ite	ls
 197 005a DB1A     		subls	r3, r3, r3	@ tmp157, AudioRemSize.77_12, AudioRemSize.77_12
 198 005c 9B1A     		subhi	r3, r3, r2	@ tmp157, AudioRemSize.77_12, tmp156
 199 005e 2B60     		str	r3, [r5]	@ tmp157, AudioRemSize
 200              		.loc 1 546 7 is_stmt 1 view .LVU27
 201 0060 0121     		movs	r1, #1	@,
 202              	@ ../Utilities/STM32F4-Discovery/stm32f4_discovery_audio_codec.c:601: }
 547:../Utilities/STM32F4-Discovery/stm32f4_discovery_audio_codec.c ****     }
 548:../Utilities/STM32F4-Discovery/stm32f4_discovery_audio_codec.c ****     else //AudioRemSize <= 0 
 549:../Utilities/STM32F4-Discovery/stm32f4_discovery_audio_codec.c ****     {
 550:../Utilities/STM32F4-Discovery/stm32f4_discovery_audio_codec.c ****       /* Disable the I2S DMA Stream*/
 551:../Utilities/STM32F4-Discovery/stm32f4_discovery_audio_codec.c ****       DMA_Cmd(AUDIO_MAL_DMA_STREAM, DISABLE);   
 552:../Utilities/STM32F4-Discovery/stm32f4_discovery_audio_codec.c ****       
 553:../Utilities/STM32F4-Discovery/stm32f4_discovery_audio_codec.c ****       /* Clear the Interrupt flag */
 554:../Utilities/STM32F4-Discovery/stm32f4_discovery_audio_codec.c ****       DMA_ClearFlag(AUDIO_MAL_DMA_STREAM, AUDIO_MAL_DMA_FLAG_TC);       
 555:../Utilities/STM32F4-Discovery/stm32f4_discovery_audio_codec.c ****       
 556:../Utilities/STM32F4-Discovery/stm32f4_discovery_audio_codec.c ****       /* Manage the remaining file size and new address offset: This function 
 557:../Utilities/STM32F4-Discovery/stm32f4_discovery_audio_codec.c ****       should be coded by user (its prototype is already declared in stm32f4_discovery_audio_codec.h
 558:../Utilities/STM32F4-Discovery/stm32f4_discovery_audio_codec.c ****       EVAL_AUDIO_TransferComplete_CallBack((uint32_t*)CurrentPos, 0);       
 559:../Utilities/STM32F4-Discovery/stm32f4_discovery_audio_codec.c ****     }
 560:../Utilities/STM32F4-Discovery/stm32f4_discovery_audio_codec.c ****     
 561:../Utilities/STM32F4-Discovery/stm32f4_discovery_audio_codec.c ****  #elif defined(AUDIO_MAL_MODE_CIRCULAR)
 562:../Utilities/STM32F4-Discovery/stm32f4_discovery_audio_codec.c ****     /* Manage the remaining file size and new address offset: This function 
 563:../Utilities/STM32F4-Discovery/stm32f4_discovery_audio_codec.c ****        should be coded by user (its prototype is already declared in stm32f4_discovery_audio_codec.
 564:../Utilities/STM32F4-Discovery/stm32f4_discovery_audio_codec.c ****     EVAL_AUDIO_TransferComplete_CallBack((uint32_t*)pAddr, Size);    
 565:../Utilities/STM32F4-Discovery/stm32f4_discovery_audio_codec.c ****     
 566:../Utilities/STM32F4-Discovery/stm32f4_discovery_audio_codec.c ****     /* Clear the Interrupt flag */
 567:../Utilities/STM32F4-Discovery/stm32f4_discovery_audio_codec.c ****     DMA_ClearFlag(AUDIO_MAL_DMA_STREAM, AUDIO_MAL_DMA_FLAG_TC);
 568:../Utilities/STM32F4-Discovery/stm32f4_discovery_audio_codec.c ****  #endif /* AUDIO_MAL_MODE_NORMAL */  
 569:../Utilities/STM32F4-Discovery/stm32f4_discovery_audio_codec.c ****   }
 570:../Utilities/STM32F4-Discovery/stm32f4_discovery_audio_codec.c **** #endif /* AUDIO_MAL_DMA_IT_TC_EN */
 571:../Utilities/STM32F4-Discovery/stm32f4_discovery_audio_codec.c **** 
 572:../Utilities/STM32F4-Discovery/stm32f4_discovery_audio_codec.c **** #ifdef AUDIO_MAL_DMA_IT_HT_EN  
 573:../Utilities/STM32F4-Discovery/stm32f4_discovery_audio_codec.c ****   /* Half Transfer complete interrupt */
 574:../Utilities/STM32F4-Discovery/stm32f4_discovery_audio_codec.c ****   if (DMA_GetFlagStatus(AUDIO_MAL_DMA_STREAM, AUDIO_MAL_DMA_FLAG_HT) != RESET)
 575:../Utilities/STM32F4-Discovery/stm32f4_discovery_audio_codec.c ****   {
 576:../Utilities/STM32F4-Discovery/stm32f4_discovery_audio_codec.c ****     /* Manage the remaining file size and new address offset: This function 
 577:../Utilities/STM32F4-Discovery/stm32f4_discovery_audio_codec.c ****        should be coded by user (its prototype is already declared in stm32f4_discovery_audio_codec.
 578:../Utilities/STM32F4-Discovery/stm32f4_discovery_audio_codec.c ****     EVAL_AUDIO_HalfTransfer_CallBack((uint32_t)pAddr, Size);    
 579:../Utilities/STM32F4-Discovery/stm32f4_discovery_audio_codec.c ****    
 580:../Utilities/STM32F4-Discovery/stm32f4_discovery_audio_codec.c ****     /* Clear the Interrupt flag */
 581:../Utilities/STM32F4-Discovery/stm32f4_discovery_audio_codec.c ****     DMA_ClearFlag(AUDIO_MAL_DMA_STREAM, AUDIO_MAL_DMA_FLAG_HT);    
 582:../Utilities/STM32F4-Discovery/stm32f4_discovery_audio_codec.c ****   }
 583:../Utilities/STM32F4-Discovery/stm32f4_discovery_audio_codec.c **** #endif /* AUDIO_MAL_DMA_IT_HT_EN */
ARM GAS  C:\Users\admin\AppData\Local\Temp\ccfajY9A.s 			page 15


 584:../Utilities/STM32F4-Discovery/stm32f4_discovery_audio_codec.c ****   
 585:../Utilities/STM32F4-Discovery/stm32f4_discovery_audio_codec.c **** #ifdef AUDIO_MAL_DMA_IT_TE_EN  
 586:../Utilities/STM32F4-Discovery/stm32f4_discovery_audio_codec.c ****   /* FIFO Error interrupt */
 587:../Utilities/STM32F4-Discovery/stm32f4_discovery_audio_codec.c ****   if ((DMA_GetFlagStatus(AUDIO_MAL_DMA_STREAM, AUDIO_MAL_DMA_FLAG_TE) != RESET) || \
 588:../Utilities/STM32F4-Discovery/stm32f4_discovery_audio_codec.c ****      (DMA_GetFlagStatus(AUDIO_MAL_DMA_STREAM, AUDIO_MAL_DMA_FLAG_FE) != RESET) || \
 589:../Utilities/STM32F4-Discovery/stm32f4_discovery_audio_codec.c ****      (DMA_GetFlagStatus(AUDIO_MAL_DMA_STREAM, AUDIO_MAL_DMA_FLAG_DME) != RESET))
 590:../Utilities/STM32F4-Discovery/stm32f4_discovery_audio_codec.c ****     
 591:../Utilities/STM32F4-Discovery/stm32f4_discovery_audio_codec.c ****   {
 592:../Utilities/STM32F4-Discovery/stm32f4_discovery_audio_codec.c ****     /* Manage the error generated on DMA FIFO: This function 
 593:../Utilities/STM32F4-Discovery/stm32f4_discovery_audio_codec.c ****        should be coded by user (its prototype is already declared in stm32f4_discovery_audio_codec.
 594:../Utilities/STM32F4-Discovery/stm32f4_discovery_audio_codec.c ****     EVAL_AUDIO_Error_CallBack((uint32_t*)&pAddr);    
 595:../Utilities/STM32F4-Discovery/stm32f4_discovery_audio_codec.c ****     
 596:../Utilities/STM32F4-Discovery/stm32f4_discovery_audio_codec.c ****     /* Clear the Interrupt flag */
 597:../Utilities/STM32F4-Discovery/stm32f4_discovery_audio_codec.c ****     DMA_ClearFlag(AUDIO_MAL_DMA_STREAM, AUDIO_MAL_DMA_FLAG_TE | AUDIO_MAL_DMA_FLAG_FE | \
 598:../Utilities/STM32F4-Discovery/stm32f4_discovery_audio_codec.c ****                                         AUDIO_MAL_DMA_FLAG_DME);
 599:../Utilities/STM32F4-Discovery/stm32f4_discovery_audio_codec.c ****   }  
 600:../Utilities/STM32F4-Discovery/stm32f4_discovery_audio_codec.c **** #endif /* AUDIO_MAL_DMA_IT_TE_EN */
 601:../Utilities/STM32F4-Discovery/stm32f4_discovery_audio_codec.c **** }
 203              		.loc 1 601 1 is_stmt 0 view .LVU28
 204 0062 BDE87040 		pop	{r4, r5, r6, lr}	@
 205              		.cfi_restore 14
 206              		.cfi_restore 6
 207              		.cfi_restore 5
 208              		.cfi_restore 4
 209              		.cfi_def_cfa_offset 0
 210              	@ ../Utilities/STM32F4-Discovery/stm32f4_discovery_audio_codec.c:546:       DMA_Cmd(AUDIO_MAL_DMA_S
 546:../Utilities/STM32F4-Discovery/stm32f4_discovery_audio_codec.c ****     }
 211              		.loc 1 546 7 view .LVU29
 212 0066 FFF7FEBF 		b	DMA_Cmd		@
 213              	.LVL4:
 214              	.L9:
 215 006a 00BF     		.align	2
 216              	.L8:
 217 006c 00000000 		.word	.LANCHOR0
 218 0070 00000000 		.word	.LANCHOR1
 219 0074 00000000 		.word	.LANCHOR3
 220 0078 00000000 		.word	.LANCHOR4
 221 007c 00000000 		.word	.LANCHOR2
 222 0080 FEFF0100 		.word	131070
 223              		.cfi_endproc
 224              	.LFE148:
 225              		.size	Audio_MAL_IRQHandler.part.0, .-Audio_MAL_IRQHandler.part.0
 226              		.section	.text.Codec_WriteRegister,"ax",%progbits
 227              		.align	1
 228              		.p2align 2,,3
 229              		.syntax unified
 230              		.thumb
 231              		.thumb_func
 232              		.type	Codec_WriteRegister, %function
 233              	Codec_WriteRegister:
 234              	.LVL5:
 235              	.LFB130:
 602:../Utilities/STM32F4-Discovery/stm32f4_discovery_audio_codec.c **** 
 603:../Utilities/STM32F4-Discovery/stm32f4_discovery_audio_codec.c **** /**
 604:../Utilities/STM32F4-Discovery/stm32f4_discovery_audio_codec.c ****   * @brief  This function handles main I2S interrupt. 
 605:../Utilities/STM32F4-Discovery/stm32f4_discovery_audio_codec.c ****   * @param  None
 606:../Utilities/STM32F4-Discovery/stm32f4_discovery_audio_codec.c ****   * @retval 0 if correct communication, else wrong communication
ARM GAS  C:\Users\admin\AppData\Local\Temp\ccfajY9A.s 			page 16


 607:../Utilities/STM32F4-Discovery/stm32f4_discovery_audio_codec.c ****   */
 608:../Utilities/STM32F4-Discovery/stm32f4_discovery_audio_codec.c **** void Audio_MAL_I2S_IRQHandler(void)
 609:../Utilities/STM32F4-Discovery/stm32f4_discovery_audio_codec.c **** { 
 610:../Utilities/STM32F4-Discovery/stm32f4_discovery_audio_codec.c ****   Audio_MAL_IRQHandler();
 611:../Utilities/STM32F4-Discovery/stm32f4_discovery_audio_codec.c **** }
 612:../Utilities/STM32F4-Discovery/stm32f4_discovery_audio_codec.c **** 
 613:../Utilities/STM32F4-Discovery/stm32f4_discovery_audio_codec.c **** /**
 614:../Utilities/STM32F4-Discovery/stm32f4_discovery_audio_codec.c ****   * @brief  This function handles main DAC interrupt. 
 615:../Utilities/STM32F4-Discovery/stm32f4_discovery_audio_codec.c ****   * @param  None
 616:../Utilities/STM32F4-Discovery/stm32f4_discovery_audio_codec.c ****   * @retval 0 if correct communication, else wrong communication
 617:../Utilities/STM32F4-Discovery/stm32f4_discovery_audio_codec.c ****   */
 618:../Utilities/STM32F4-Discovery/stm32f4_discovery_audio_codec.c **** void Audio_MAL_DAC_IRQHandler(void)
 619:../Utilities/STM32F4-Discovery/stm32f4_discovery_audio_codec.c **** { 
 620:../Utilities/STM32F4-Discovery/stm32f4_discovery_audio_codec.c ****   Audio_MAL_IRQHandler();
 621:../Utilities/STM32F4-Discovery/stm32f4_discovery_audio_codec.c **** }
 622:../Utilities/STM32F4-Discovery/stm32f4_discovery_audio_codec.c **** 
 623:../Utilities/STM32F4-Discovery/stm32f4_discovery_audio_codec.c **** /**
 624:../Utilities/STM32F4-Discovery/stm32f4_discovery_audio_codec.c ****   * @brief  I2S interrupt management
 625:../Utilities/STM32F4-Discovery/stm32f4_discovery_audio_codec.c ****   * @param  None
 626:../Utilities/STM32F4-Discovery/stm32f4_discovery_audio_codec.c ****   * @retval None
 627:../Utilities/STM32F4-Discovery/stm32f4_discovery_audio_codec.c ****   *        (48 -> 96 )
 628:../Utilities/STM32F4-Discovery/stm32f4_discovery_audio_codec.c ****   */
 629:../Utilities/STM32F4-Discovery/stm32f4_discovery_audio_codec.c **** void Audio_I2S_IRQHandler(void)
 630:../Utilities/STM32F4-Discovery/stm32f4_discovery_audio_codec.c **** {
 631:../Utilities/STM32F4-Discovery/stm32f4_discovery_audio_codec.c ****   /* Check on the I2S TXE flag */  
 632:../Utilities/STM32F4-Discovery/stm32f4_discovery_audio_codec.c ****   if (SPI_I2S_GetFlagStatus(SPI3, SPI_I2S_FLAG_TXE) != RESET)
 633:../Utilities/STM32F4-Discovery/stm32f4_discovery_audio_codec.c ****   { 
 634:../Utilities/STM32F4-Discovery/stm32f4_discovery_audio_codec.c ****     if (CurrAudioInterface == AUDIO_INTERFACE_DAC)
 635:../Utilities/STM32F4-Discovery/stm32f4_discovery_audio_codec.c ****     {
 636:../Utilities/STM32F4-Discovery/stm32f4_discovery_audio_codec.c ****       /* Wirte data to the DAC interface */
 637:../Utilities/STM32F4-Discovery/stm32f4_discovery_audio_codec.c ****       DAC_SetChannel1Data(DAC_Align_12b_L, EVAL_AUDIO_GetSampleCallBack()); 
 638:../Utilities/STM32F4-Discovery/stm32f4_discovery_audio_codec.c ****       SPI_I2S_SendData(CODEC_I2S, 0); 
 639:../Utilities/STM32F4-Discovery/stm32f4_discovery_audio_codec.c ****     }
 640:../Utilities/STM32F4-Discovery/stm32f4_discovery_audio_codec.c ****     else
 641:../Utilities/STM32F4-Discovery/stm32f4_discovery_audio_codec.c ****     {
 642:../Utilities/STM32F4-Discovery/stm32f4_discovery_audio_codec.c ****        /* Send dummy data on I2S to avoid the underrun condition */
 643:../Utilities/STM32F4-Discovery/stm32f4_discovery_audio_codec.c ****        SPI_I2S_SendData(CODEC_I2S, EVAL_AUDIO_GetSampleCallBack()); 
 644:../Utilities/STM32F4-Discovery/stm32f4_discovery_audio_codec.c ****     }
 645:../Utilities/STM32F4-Discovery/stm32f4_discovery_audio_codec.c ****     
 646:../Utilities/STM32F4-Discovery/stm32f4_discovery_audio_codec.c **** 
 647:../Utilities/STM32F4-Discovery/stm32f4_discovery_audio_codec.c ****   }
 648:../Utilities/STM32F4-Discovery/stm32f4_discovery_audio_codec.c **** }
 649:../Utilities/STM32F4-Discovery/stm32f4_discovery_audio_codec.c **** /*========================
 650:../Utilities/STM32F4-Discovery/stm32f4_discovery_audio_codec.c **** 
 651:../Utilities/STM32F4-Discovery/stm32f4_discovery_audio_codec.c ****                 CS43L22 Audio Codec Control Functions
 652:../Utilities/STM32F4-Discovery/stm32f4_discovery_audio_codec.c ****                                                 ==============================*/
 653:../Utilities/STM32F4-Discovery/stm32f4_discovery_audio_codec.c **** /**
 654:../Utilities/STM32F4-Discovery/stm32f4_discovery_audio_codec.c ****   * @brief  Initializes the audio codec and all related interfaces (control 
 655:../Utilities/STM32F4-Discovery/stm32f4_discovery_audio_codec.c ****   *         interface: I2C and audio interface: I2S)
 656:../Utilities/STM32F4-Discovery/stm32f4_discovery_audio_codec.c ****   * @param  OutputDevice: can be OUTPUT_DEVICE_SPEAKER, OUTPUT_DEVICE_HEADPHONE,
 657:../Utilities/STM32F4-Discovery/stm32f4_discovery_audio_codec.c ****   *                       OUTPUT_DEVICE_BOTH or OUTPUT_DEVICE_AUTO .
 658:../Utilities/STM32F4-Discovery/stm32f4_discovery_audio_codec.c ****   * @param  Volume: Initial volume level (from 0 (Mute) to 100 (Max))
 659:../Utilities/STM32F4-Discovery/stm32f4_discovery_audio_codec.c ****   * @param  AudioFreq: Audio frequency used to play the audio stream.
 660:../Utilities/STM32F4-Discovery/stm32f4_discovery_audio_codec.c ****   * @retval 0 if correct communication, else wrong communication
 661:../Utilities/STM32F4-Discovery/stm32f4_discovery_audio_codec.c ****   */
 662:../Utilities/STM32F4-Discovery/stm32f4_discovery_audio_codec.c **** uint32_t Codec_Init(uint16_t OutputDevice, uint8_t Volume, uint32_t AudioFreq)
 663:../Utilities/STM32F4-Discovery/stm32f4_discovery_audio_codec.c **** {
ARM GAS  C:\Users\admin\AppData\Local\Temp\ccfajY9A.s 			page 17


 664:../Utilities/STM32F4-Discovery/stm32f4_discovery_audio_codec.c ****   uint32_t counter = 0; 
 665:../Utilities/STM32F4-Discovery/stm32f4_discovery_audio_codec.c **** 
 666:../Utilities/STM32F4-Discovery/stm32f4_discovery_audio_codec.c ****   /* Configure the Codec related IOs */
 667:../Utilities/STM32F4-Discovery/stm32f4_discovery_audio_codec.c ****   Codec_GPIO_Init();   
 668:../Utilities/STM32F4-Discovery/stm32f4_discovery_audio_codec.c ****   
 669:../Utilities/STM32F4-Discovery/stm32f4_discovery_audio_codec.c ****   /* Reset the Codec Registers */
 670:../Utilities/STM32F4-Discovery/stm32f4_discovery_audio_codec.c ****   Codec_Reset();
 671:../Utilities/STM32F4-Discovery/stm32f4_discovery_audio_codec.c **** 
 672:../Utilities/STM32F4-Discovery/stm32f4_discovery_audio_codec.c ****   /* Initialize the Control interface of the Audio Codec */
 673:../Utilities/STM32F4-Discovery/stm32f4_discovery_audio_codec.c ****   Codec_CtrlInterface_Init();     
 674:../Utilities/STM32F4-Discovery/stm32f4_discovery_audio_codec.c ****   
 675:../Utilities/STM32F4-Discovery/stm32f4_discovery_audio_codec.c ****   /* Keep Codec powered OFF */
 676:../Utilities/STM32F4-Discovery/stm32f4_discovery_audio_codec.c ****   counter += Codec_WriteRegister(0x02, 0x01);  
 677:../Utilities/STM32F4-Discovery/stm32f4_discovery_audio_codec.c ****       
 678:../Utilities/STM32F4-Discovery/stm32f4_discovery_audio_codec.c ****   counter += Codec_WriteRegister(0x04, 0xAF); /* SPK always OFF & HP always ON */
 679:../Utilities/STM32F4-Discovery/stm32f4_discovery_audio_codec.c ****   OutputDev = 0xAF;
 680:../Utilities/STM32F4-Discovery/stm32f4_discovery_audio_codec.c ****   
 681:../Utilities/STM32F4-Discovery/stm32f4_discovery_audio_codec.c ****   /* Clock configuration: Auto detection */  
 682:../Utilities/STM32F4-Discovery/stm32f4_discovery_audio_codec.c ****   counter += Codec_WriteRegister(0x05, 0x81);
 683:../Utilities/STM32F4-Discovery/stm32f4_discovery_audio_codec.c ****   
 684:../Utilities/STM32F4-Discovery/stm32f4_discovery_audio_codec.c ****   /* Set the Slave Mode and the audio Standard */  
 685:../Utilities/STM32F4-Discovery/stm32f4_discovery_audio_codec.c ****   counter += Codec_WriteRegister(0x06, CODEC_STANDARD);
 686:../Utilities/STM32F4-Discovery/stm32f4_discovery_audio_codec.c ****       
 687:../Utilities/STM32F4-Discovery/stm32f4_discovery_audio_codec.c ****   /* Set the Master volume */
 688:../Utilities/STM32F4-Discovery/stm32f4_discovery_audio_codec.c ****   Codec_VolumeCtrl(Volume);
 689:../Utilities/STM32F4-Discovery/stm32f4_discovery_audio_codec.c ****   
 690:../Utilities/STM32F4-Discovery/stm32f4_discovery_audio_codec.c ****   if (CurrAudioInterface == AUDIO_INTERFACE_DAC)
 691:../Utilities/STM32F4-Discovery/stm32f4_discovery_audio_codec.c ****   {
 692:../Utilities/STM32F4-Discovery/stm32f4_discovery_audio_codec.c ****     /* Enable the PassThrough on AIN1A and AIN1B */
 693:../Utilities/STM32F4-Discovery/stm32f4_discovery_audio_codec.c ****     counter += Codec_WriteRegister(0x08, 0x01);
 694:../Utilities/STM32F4-Discovery/stm32f4_discovery_audio_codec.c ****     counter += Codec_WriteRegister(0x09, 0x01);
 695:../Utilities/STM32F4-Discovery/stm32f4_discovery_audio_codec.c ****     
 696:../Utilities/STM32F4-Discovery/stm32f4_discovery_audio_codec.c ****     /* Route the analog input to the HP line */
 697:../Utilities/STM32F4-Discovery/stm32f4_discovery_audio_codec.c ****     counter += Codec_WriteRegister(0x0E, 0xC0);
 698:../Utilities/STM32F4-Discovery/stm32f4_discovery_audio_codec.c ****     
 699:../Utilities/STM32F4-Discovery/stm32f4_discovery_audio_codec.c ****     /* Set the Passthough volume */
 700:../Utilities/STM32F4-Discovery/stm32f4_discovery_audio_codec.c ****     counter += Codec_WriteRegister(0x14, 0x00);
 701:../Utilities/STM32F4-Discovery/stm32f4_discovery_audio_codec.c ****     counter += Codec_WriteRegister(0x15, 0x00);
 702:../Utilities/STM32F4-Discovery/stm32f4_discovery_audio_codec.c ****   }
 703:../Utilities/STM32F4-Discovery/stm32f4_discovery_audio_codec.c **** 
 704:../Utilities/STM32F4-Discovery/stm32f4_discovery_audio_codec.c ****   /* Power on the Codec */
 705:../Utilities/STM32F4-Discovery/stm32f4_discovery_audio_codec.c ****   counter += Codec_WriteRegister(0x02, 0x9E);  
 706:../Utilities/STM32F4-Discovery/stm32f4_discovery_audio_codec.c ****   
 707:../Utilities/STM32F4-Discovery/stm32f4_discovery_audio_codec.c ****   /* Additional configuration for the CODEC. These configurations are done to reduce
 708:../Utilities/STM32F4-Discovery/stm32f4_discovery_audio_codec.c ****       the time needed for the Codec to power off. If these configurations are removed, 
 709:../Utilities/STM32F4-Discovery/stm32f4_discovery_audio_codec.c ****       then a long delay should be added between powering off the Codec and switching 
 710:../Utilities/STM32F4-Discovery/stm32f4_discovery_audio_codec.c ****       off the I2S peripheral MCLK clock (which is the operating clock for Codec).
 711:../Utilities/STM32F4-Discovery/stm32f4_discovery_audio_codec.c ****       If this delay is not inserted, then the codec will not shut down properly and
 712:../Utilities/STM32F4-Discovery/stm32f4_discovery_audio_codec.c ****       it results in high noise after shut down. */
 713:../Utilities/STM32F4-Discovery/stm32f4_discovery_audio_codec.c ****   
 714:../Utilities/STM32F4-Discovery/stm32f4_discovery_audio_codec.c ****   /* Disable the analog soft ramp */
 715:../Utilities/STM32F4-Discovery/stm32f4_discovery_audio_codec.c ****   counter += Codec_WriteRegister(0x0A, 0x00);
 716:../Utilities/STM32F4-Discovery/stm32f4_discovery_audio_codec.c ****   if (CurrAudioInterface != AUDIO_INTERFACE_DAC)
 717:../Utilities/STM32F4-Discovery/stm32f4_discovery_audio_codec.c ****   {  
 718:../Utilities/STM32F4-Discovery/stm32f4_discovery_audio_codec.c ****     /* Disable the digital soft ramp */
 719:../Utilities/STM32F4-Discovery/stm32f4_discovery_audio_codec.c ****     counter += Codec_WriteRegister(0x0E, 0x04);
 720:../Utilities/STM32F4-Discovery/stm32f4_discovery_audio_codec.c ****   }
ARM GAS  C:\Users\admin\AppData\Local\Temp\ccfajY9A.s 			page 18


 721:../Utilities/STM32F4-Discovery/stm32f4_discovery_audio_codec.c ****   /* Disable the limiter attack level */
 722:../Utilities/STM32F4-Discovery/stm32f4_discovery_audio_codec.c ****   counter += Codec_WriteRegister(0x27, 0x00);
 723:../Utilities/STM32F4-Discovery/stm32f4_discovery_audio_codec.c ****   /* Adjust Bass and Treble levels */
 724:../Utilities/STM32F4-Discovery/stm32f4_discovery_audio_codec.c ****   counter += Codec_WriteRegister(0x1F, 0x0F);
 725:../Utilities/STM32F4-Discovery/stm32f4_discovery_audio_codec.c ****   /* Adjust PCM volume level */
 726:../Utilities/STM32F4-Discovery/stm32f4_discovery_audio_codec.c ****   counter += Codec_WriteRegister(0x1A, 0x0A);
 727:../Utilities/STM32F4-Discovery/stm32f4_discovery_audio_codec.c ****   counter += Codec_WriteRegister(0x1B, 0x0A);
 728:../Utilities/STM32F4-Discovery/stm32f4_discovery_audio_codec.c **** 
 729:../Utilities/STM32F4-Discovery/stm32f4_discovery_audio_codec.c ****   /* Configure the I2S peripheral */
 730:../Utilities/STM32F4-Discovery/stm32f4_discovery_audio_codec.c ****   Codec_AudioInterface_Init(AudioFreq);  
 731:../Utilities/STM32F4-Discovery/stm32f4_discovery_audio_codec.c ****   
 732:../Utilities/STM32F4-Discovery/stm32f4_discovery_audio_codec.c ****   /* Return communication control value */
 733:../Utilities/STM32F4-Discovery/stm32f4_discovery_audio_codec.c ****   return counter;  
 734:../Utilities/STM32F4-Discovery/stm32f4_discovery_audio_codec.c **** }
 735:../Utilities/STM32F4-Discovery/stm32f4_discovery_audio_codec.c **** 
 736:../Utilities/STM32F4-Discovery/stm32f4_discovery_audio_codec.c **** /**
 737:../Utilities/STM32F4-Discovery/stm32f4_discovery_audio_codec.c ****   * @brief  Restore the audio codec state to default state and free all used 
 738:../Utilities/STM32F4-Discovery/stm32f4_discovery_audio_codec.c ****   *         resources.
 739:../Utilities/STM32F4-Discovery/stm32f4_discovery_audio_codec.c ****   * @param  None
 740:../Utilities/STM32F4-Discovery/stm32f4_discovery_audio_codec.c ****   * @retval 0 if correct communication, else wrong communication
 741:../Utilities/STM32F4-Discovery/stm32f4_discovery_audio_codec.c ****   */
 742:../Utilities/STM32F4-Discovery/stm32f4_discovery_audio_codec.c **** static uint32_t Codec_DeInit(void)
 743:../Utilities/STM32F4-Discovery/stm32f4_discovery_audio_codec.c **** {
 744:../Utilities/STM32F4-Discovery/stm32f4_discovery_audio_codec.c ****   uint32_t counter = 0; 
 745:../Utilities/STM32F4-Discovery/stm32f4_discovery_audio_codec.c **** 
 746:../Utilities/STM32F4-Discovery/stm32f4_discovery_audio_codec.c ****   /* Reset the Codec Registers */
 747:../Utilities/STM32F4-Discovery/stm32f4_discovery_audio_codec.c ****   Codec_Reset();  
 748:../Utilities/STM32F4-Discovery/stm32f4_discovery_audio_codec.c ****   
 749:../Utilities/STM32F4-Discovery/stm32f4_discovery_audio_codec.c ****   /* Keep Codec powered OFF */
 750:../Utilities/STM32F4-Discovery/stm32f4_discovery_audio_codec.c ****   counter += Codec_WriteRegister(0x02, 0x01);    
 751:../Utilities/STM32F4-Discovery/stm32f4_discovery_audio_codec.c ****   
 752:../Utilities/STM32F4-Discovery/stm32f4_discovery_audio_codec.c ****   /* Deinitialize all use GPIOs */
 753:../Utilities/STM32F4-Discovery/stm32f4_discovery_audio_codec.c ****   Codec_GPIO_DeInit();
 754:../Utilities/STM32F4-Discovery/stm32f4_discovery_audio_codec.c **** 
 755:../Utilities/STM32F4-Discovery/stm32f4_discovery_audio_codec.c ****   /* Disable the Codec control interface */
 756:../Utilities/STM32F4-Discovery/stm32f4_discovery_audio_codec.c ****   Codec_CtrlInterface_DeInit();
 757:../Utilities/STM32F4-Discovery/stm32f4_discovery_audio_codec.c ****   
 758:../Utilities/STM32F4-Discovery/stm32f4_discovery_audio_codec.c ****   /* Deinitialize the Codec audio interface (I2S) */
 759:../Utilities/STM32F4-Discovery/stm32f4_discovery_audio_codec.c ****   Codec_AudioInterface_DeInit(); 
 760:../Utilities/STM32F4-Discovery/stm32f4_discovery_audio_codec.c ****   
 761:../Utilities/STM32F4-Discovery/stm32f4_discovery_audio_codec.c ****   /* Return communication control value */
 762:../Utilities/STM32F4-Discovery/stm32f4_discovery_audio_codec.c ****   return counter;  
 763:../Utilities/STM32F4-Discovery/stm32f4_discovery_audio_codec.c **** }
 764:../Utilities/STM32F4-Discovery/stm32f4_discovery_audio_codec.c **** 
 765:../Utilities/STM32F4-Discovery/stm32f4_discovery_audio_codec.c **** /**
 766:../Utilities/STM32F4-Discovery/stm32f4_discovery_audio_codec.c ****   * @brief  Start the audio Codec play feature.
 767:../Utilities/STM32F4-Discovery/stm32f4_discovery_audio_codec.c ****   * @note   For this codec no Play options are required.
 768:../Utilities/STM32F4-Discovery/stm32f4_discovery_audio_codec.c ****   * @param  None
 769:../Utilities/STM32F4-Discovery/stm32f4_discovery_audio_codec.c ****   * @retval 0 if correct communication, else wrong communication
 770:../Utilities/STM32F4-Discovery/stm32f4_discovery_audio_codec.c ****   */
 771:../Utilities/STM32F4-Discovery/stm32f4_discovery_audio_codec.c **** static uint32_t Codec_Play(void)
 772:../Utilities/STM32F4-Discovery/stm32f4_discovery_audio_codec.c **** {
 773:../Utilities/STM32F4-Discovery/stm32f4_discovery_audio_codec.c ****   /* 
 774:../Utilities/STM32F4-Discovery/stm32f4_discovery_audio_codec.c ****      No actions required on Codec level for play command
 775:../Utilities/STM32F4-Discovery/stm32f4_discovery_audio_codec.c ****      */  
 776:../Utilities/STM32F4-Discovery/stm32f4_discovery_audio_codec.c **** 
 777:../Utilities/STM32F4-Discovery/stm32f4_discovery_audio_codec.c ****   /* Return communication control value */
ARM GAS  C:\Users\admin\AppData\Local\Temp\ccfajY9A.s 			page 19


 778:../Utilities/STM32F4-Discovery/stm32f4_discovery_audio_codec.c ****   return 0;  
 779:../Utilities/STM32F4-Discovery/stm32f4_discovery_audio_codec.c **** }
 780:../Utilities/STM32F4-Discovery/stm32f4_discovery_audio_codec.c **** 
 781:../Utilities/STM32F4-Discovery/stm32f4_discovery_audio_codec.c **** /**
 782:../Utilities/STM32F4-Discovery/stm32f4_discovery_audio_codec.c ****   * @brief  Pauses and resumes playing on the audio codec.
 783:../Utilities/STM32F4-Discovery/stm32f4_discovery_audio_codec.c ****   * @param  Cmd: AUDIO_PAUSE (or 0) to pause, AUDIO_RESUME (or any value different
 784:../Utilities/STM32F4-Discovery/stm32f4_discovery_audio_codec.c ****   *         from 0) to resume. 
 785:../Utilities/STM32F4-Discovery/stm32f4_discovery_audio_codec.c ****   * @retval 0 if correct communication, else wrong communication
 786:../Utilities/STM32F4-Discovery/stm32f4_discovery_audio_codec.c ****   */
 787:../Utilities/STM32F4-Discovery/stm32f4_discovery_audio_codec.c **** static uint32_t Codec_PauseResume(uint32_t Cmd)
 788:../Utilities/STM32F4-Discovery/stm32f4_discovery_audio_codec.c **** {
 789:../Utilities/STM32F4-Discovery/stm32f4_discovery_audio_codec.c ****   uint32_t counter = 0;   
 790:../Utilities/STM32F4-Discovery/stm32f4_discovery_audio_codec.c ****   
 791:../Utilities/STM32F4-Discovery/stm32f4_discovery_audio_codec.c ****   /* Pause the audio file playing */
 792:../Utilities/STM32F4-Discovery/stm32f4_discovery_audio_codec.c ****   if (Cmd == AUDIO_PAUSE)
 793:../Utilities/STM32F4-Discovery/stm32f4_discovery_audio_codec.c ****   { 
 794:../Utilities/STM32F4-Discovery/stm32f4_discovery_audio_codec.c ****     /* Mute the output first */
 795:../Utilities/STM32F4-Discovery/stm32f4_discovery_audio_codec.c ****     counter += Codec_Mute(AUDIO_MUTE_ON);
 796:../Utilities/STM32F4-Discovery/stm32f4_discovery_audio_codec.c **** 
 797:../Utilities/STM32F4-Discovery/stm32f4_discovery_audio_codec.c ****     /* Put the Codec in Power save mode */    
 798:../Utilities/STM32F4-Discovery/stm32f4_discovery_audio_codec.c ****     counter += Codec_WriteRegister(0x02, 0x01);    
 799:../Utilities/STM32F4-Discovery/stm32f4_discovery_audio_codec.c ****   }
 800:../Utilities/STM32F4-Discovery/stm32f4_discovery_audio_codec.c ****   else /* AUDIO_RESUME */
 801:../Utilities/STM32F4-Discovery/stm32f4_discovery_audio_codec.c ****   {
 802:../Utilities/STM32F4-Discovery/stm32f4_discovery_audio_codec.c ****     /* Unmute the output first */
 803:../Utilities/STM32F4-Discovery/stm32f4_discovery_audio_codec.c ****     counter += Codec_Mute(AUDIO_MUTE_OFF);
 804:../Utilities/STM32F4-Discovery/stm32f4_discovery_audio_codec.c ****     
 805:../Utilities/STM32F4-Discovery/stm32f4_discovery_audio_codec.c ****     counter += Codec_WriteRegister(0x04, OutputDev);
 806:../Utilities/STM32F4-Discovery/stm32f4_discovery_audio_codec.c ****     
 807:../Utilities/STM32F4-Discovery/stm32f4_discovery_audio_codec.c ****     /* Exit the Power save mode */
 808:../Utilities/STM32F4-Discovery/stm32f4_discovery_audio_codec.c ****     counter += Codec_WriteRegister(0x02, 0x9E); 
 809:../Utilities/STM32F4-Discovery/stm32f4_discovery_audio_codec.c ****   }
 810:../Utilities/STM32F4-Discovery/stm32f4_discovery_audio_codec.c **** 
 811:../Utilities/STM32F4-Discovery/stm32f4_discovery_audio_codec.c ****   return counter;
 812:../Utilities/STM32F4-Discovery/stm32f4_discovery_audio_codec.c **** }
 813:../Utilities/STM32F4-Discovery/stm32f4_discovery_audio_codec.c **** 
 814:../Utilities/STM32F4-Discovery/stm32f4_discovery_audio_codec.c **** /**
 815:../Utilities/STM32F4-Discovery/stm32f4_discovery_audio_codec.c ****   * @brief  Stops audio Codec playing. It powers down the codec.
 816:../Utilities/STM32F4-Discovery/stm32f4_discovery_audio_codec.c ****   * @param  CodecPdwnMode: selects the  power down mode.
 817:../Utilities/STM32F4-Discovery/stm32f4_discovery_audio_codec.c ****   *          - CODEC_PDWN_SW: only mutes the audio codec. When resuming from this 
 818:../Utilities/STM32F4-Discovery/stm32f4_discovery_audio_codec.c ****   *                           mode the codec keeps the previous initialization
 819:../Utilities/STM32F4-Discovery/stm32f4_discovery_audio_codec.c ****   *                           (no need to re-Initialize the codec registers).
 820:../Utilities/STM32F4-Discovery/stm32f4_discovery_audio_codec.c ****   *          - CODEC_PDWN_HW: Physically power down the codec. When resuming from this
 821:../Utilities/STM32F4-Discovery/stm32f4_discovery_audio_codec.c ****   *                           mode, the codec is set to default configuration 
 822:../Utilities/STM32F4-Discovery/stm32f4_discovery_audio_codec.c ****   *                           (user should re-Initialize the codec in order to 
 823:../Utilities/STM32F4-Discovery/stm32f4_discovery_audio_codec.c ****   *                            play again the audio stream).
 824:../Utilities/STM32F4-Discovery/stm32f4_discovery_audio_codec.c ****   * @retval 0 if correct communication, else wrong communication
 825:../Utilities/STM32F4-Discovery/stm32f4_discovery_audio_codec.c ****   */
 826:../Utilities/STM32F4-Discovery/stm32f4_discovery_audio_codec.c **** static uint32_t Codec_Stop(uint32_t CodecPdwnMode)
 827:../Utilities/STM32F4-Discovery/stm32f4_discovery_audio_codec.c **** {
 828:../Utilities/STM32F4-Discovery/stm32f4_discovery_audio_codec.c ****   uint32_t counter = 0;   
 829:../Utilities/STM32F4-Discovery/stm32f4_discovery_audio_codec.c **** 
 830:../Utilities/STM32F4-Discovery/stm32f4_discovery_audio_codec.c ****   /* Mute the output first */
 831:../Utilities/STM32F4-Discovery/stm32f4_discovery_audio_codec.c ****   Codec_Mute(AUDIO_MUTE_ON);
 832:../Utilities/STM32F4-Discovery/stm32f4_discovery_audio_codec.c ****   
 833:../Utilities/STM32F4-Discovery/stm32f4_discovery_audio_codec.c ****   if (CodecPdwnMode == CODEC_PDWN_SW)
 834:../Utilities/STM32F4-Discovery/stm32f4_discovery_audio_codec.c ****   {    
ARM GAS  C:\Users\admin\AppData\Local\Temp\ccfajY9A.s 			page 20


 835:../Utilities/STM32F4-Discovery/stm32f4_discovery_audio_codec.c ****     /* Power down the DAC and the speaker (PMDAC and PMSPK bits)*/
 836:../Utilities/STM32F4-Discovery/stm32f4_discovery_audio_codec.c ****     counter += Codec_WriteRegister(0x02, 0x9F);
 837:../Utilities/STM32F4-Discovery/stm32f4_discovery_audio_codec.c ****   }
 838:../Utilities/STM32F4-Discovery/stm32f4_discovery_audio_codec.c ****   else /* CODEC_PDWN_HW */
 839:../Utilities/STM32F4-Discovery/stm32f4_discovery_audio_codec.c ****   { 
 840:../Utilities/STM32F4-Discovery/stm32f4_discovery_audio_codec.c ****     /* Power down the DAC components */
 841:../Utilities/STM32F4-Discovery/stm32f4_discovery_audio_codec.c ****     counter += Codec_WriteRegister(0x02, 0x9F);
 842:../Utilities/STM32F4-Discovery/stm32f4_discovery_audio_codec.c ****     
 843:../Utilities/STM32F4-Discovery/stm32f4_discovery_audio_codec.c ****     /* Wait at least 100us */
 844:../Utilities/STM32F4-Discovery/stm32f4_discovery_audio_codec.c ****     Delay(0xFFF);
 845:../Utilities/STM32F4-Discovery/stm32f4_discovery_audio_codec.c ****     
 846:../Utilities/STM32F4-Discovery/stm32f4_discovery_audio_codec.c ****     /* Reset The pin */
 847:../Utilities/STM32F4-Discovery/stm32f4_discovery_audio_codec.c ****     GPIO_WriteBit(AUDIO_RESET_GPIO, AUDIO_RESET_PIN, Bit_RESET);
 848:../Utilities/STM32F4-Discovery/stm32f4_discovery_audio_codec.c ****   }
 849:../Utilities/STM32F4-Discovery/stm32f4_discovery_audio_codec.c ****   
 850:../Utilities/STM32F4-Discovery/stm32f4_discovery_audio_codec.c ****   return counter;    
 851:../Utilities/STM32F4-Discovery/stm32f4_discovery_audio_codec.c **** }
 852:../Utilities/STM32F4-Discovery/stm32f4_discovery_audio_codec.c **** 
 853:../Utilities/STM32F4-Discovery/stm32f4_discovery_audio_codec.c **** /**
 854:../Utilities/STM32F4-Discovery/stm32f4_discovery_audio_codec.c ****   * @brief  Sets higher or lower the codec volume level.
 855:../Utilities/STM32F4-Discovery/stm32f4_discovery_audio_codec.c ****   * @param  Volume: a byte value from 0 to 255 (refer to codec registers 
 856:../Utilities/STM32F4-Discovery/stm32f4_discovery_audio_codec.c ****   *         description for more details).
 857:../Utilities/STM32F4-Discovery/stm32f4_discovery_audio_codec.c ****   * @retval 0 if correct communication, else wrong communication
 858:../Utilities/STM32F4-Discovery/stm32f4_discovery_audio_codec.c ****   */
 859:../Utilities/STM32F4-Discovery/stm32f4_discovery_audio_codec.c **** static uint32_t Codec_VolumeCtrl(uint8_t Volume)
 860:../Utilities/STM32F4-Discovery/stm32f4_discovery_audio_codec.c **** {
 861:../Utilities/STM32F4-Discovery/stm32f4_discovery_audio_codec.c ****   uint32_t counter = 0;
 862:../Utilities/STM32F4-Discovery/stm32f4_discovery_audio_codec.c ****   
 863:../Utilities/STM32F4-Discovery/stm32f4_discovery_audio_codec.c ****   if (Volume > 0xE6)
 864:../Utilities/STM32F4-Discovery/stm32f4_discovery_audio_codec.c ****   {
 865:../Utilities/STM32F4-Discovery/stm32f4_discovery_audio_codec.c ****     /* Set the Master volume */
 866:../Utilities/STM32F4-Discovery/stm32f4_discovery_audio_codec.c ****     counter += Codec_WriteRegister(0x20, Volume - 0xE7); 
 867:../Utilities/STM32F4-Discovery/stm32f4_discovery_audio_codec.c ****     counter += Codec_WriteRegister(0x21, Volume - 0xE7);     
 868:../Utilities/STM32F4-Discovery/stm32f4_discovery_audio_codec.c ****   }
 869:../Utilities/STM32F4-Discovery/stm32f4_discovery_audio_codec.c ****   else
 870:../Utilities/STM32F4-Discovery/stm32f4_discovery_audio_codec.c ****   {
 871:../Utilities/STM32F4-Discovery/stm32f4_discovery_audio_codec.c ****     /* Set the Master volume */
 872:../Utilities/STM32F4-Discovery/stm32f4_discovery_audio_codec.c ****     counter += Codec_WriteRegister(0x20, Volume + 0x19); 
 873:../Utilities/STM32F4-Discovery/stm32f4_discovery_audio_codec.c ****     counter += Codec_WriteRegister(0x21, Volume + 0x19); 
 874:../Utilities/STM32F4-Discovery/stm32f4_discovery_audio_codec.c ****   }
 875:../Utilities/STM32F4-Discovery/stm32f4_discovery_audio_codec.c **** 
 876:../Utilities/STM32F4-Discovery/stm32f4_discovery_audio_codec.c ****   return counter;  
 877:../Utilities/STM32F4-Discovery/stm32f4_discovery_audio_codec.c **** }
 878:../Utilities/STM32F4-Discovery/stm32f4_discovery_audio_codec.c **** 
 879:../Utilities/STM32F4-Discovery/stm32f4_discovery_audio_codec.c **** /**
 880:../Utilities/STM32F4-Discovery/stm32f4_discovery_audio_codec.c ****   * @brief  Enables or disables the mute feature on the audio codec.
 881:../Utilities/STM32F4-Discovery/stm32f4_discovery_audio_codec.c ****   * @param  Cmd: AUDIO_MUTE_ON to enable the mute or AUDIO_MUTE_OFF to disable the
 882:../Utilities/STM32F4-Discovery/stm32f4_discovery_audio_codec.c ****   *             mute mode.
 883:../Utilities/STM32F4-Discovery/stm32f4_discovery_audio_codec.c ****   * @retval 0 if correct communication, else wrong communication
 884:../Utilities/STM32F4-Discovery/stm32f4_discovery_audio_codec.c ****   */
 885:../Utilities/STM32F4-Discovery/stm32f4_discovery_audio_codec.c **** static uint32_t Codec_Mute(uint32_t Cmd)
 886:../Utilities/STM32F4-Discovery/stm32f4_discovery_audio_codec.c **** {
 887:../Utilities/STM32F4-Discovery/stm32f4_discovery_audio_codec.c ****   uint32_t counter = 0;  
 888:../Utilities/STM32F4-Discovery/stm32f4_discovery_audio_codec.c ****   
 889:../Utilities/STM32F4-Discovery/stm32f4_discovery_audio_codec.c ****   /* Set the Mute mode */
 890:../Utilities/STM32F4-Discovery/stm32f4_discovery_audio_codec.c ****   if (Cmd == AUDIO_MUTE_ON)
 891:../Utilities/STM32F4-Discovery/stm32f4_discovery_audio_codec.c ****   {
ARM GAS  C:\Users\admin\AppData\Local\Temp\ccfajY9A.s 			page 21


 892:../Utilities/STM32F4-Discovery/stm32f4_discovery_audio_codec.c ****     counter += Codec_WriteRegister(0x04, 0xFF);
 893:../Utilities/STM32F4-Discovery/stm32f4_discovery_audio_codec.c ****   }
 894:../Utilities/STM32F4-Discovery/stm32f4_discovery_audio_codec.c ****   else /* AUDIO_MUTE_OFF Disable the Mute */
 895:../Utilities/STM32F4-Discovery/stm32f4_discovery_audio_codec.c ****   {
 896:../Utilities/STM32F4-Discovery/stm32f4_discovery_audio_codec.c ****     counter += Codec_WriteRegister(0x04, OutputDev);
 897:../Utilities/STM32F4-Discovery/stm32f4_discovery_audio_codec.c ****   }
 898:../Utilities/STM32F4-Discovery/stm32f4_discovery_audio_codec.c ****   
 899:../Utilities/STM32F4-Discovery/stm32f4_discovery_audio_codec.c ****   return counter; 
 900:../Utilities/STM32F4-Discovery/stm32f4_discovery_audio_codec.c **** }
 901:../Utilities/STM32F4-Discovery/stm32f4_discovery_audio_codec.c **** 
 902:../Utilities/STM32F4-Discovery/stm32f4_discovery_audio_codec.c **** /**
 903:../Utilities/STM32F4-Discovery/stm32f4_discovery_audio_codec.c ****   * @brief  Resets the audio codec. It restores the default configuration of the 
 904:../Utilities/STM32F4-Discovery/stm32f4_discovery_audio_codec.c ****   *         codec (this function shall be called before initializing the codec).
 905:../Utilities/STM32F4-Discovery/stm32f4_discovery_audio_codec.c ****   * @note   This function calls an external driver function: The IO Expander driver.
 906:../Utilities/STM32F4-Discovery/stm32f4_discovery_audio_codec.c ****   * @param  None
 907:../Utilities/STM32F4-Discovery/stm32f4_discovery_audio_codec.c ****   * @retval None
 908:../Utilities/STM32F4-Discovery/stm32f4_discovery_audio_codec.c ****   */
 909:../Utilities/STM32F4-Discovery/stm32f4_discovery_audio_codec.c **** static void Codec_Reset(void)
 910:../Utilities/STM32F4-Discovery/stm32f4_discovery_audio_codec.c **** {
 911:../Utilities/STM32F4-Discovery/stm32f4_discovery_audio_codec.c ****   /* Power Down the codec */
 912:../Utilities/STM32F4-Discovery/stm32f4_discovery_audio_codec.c ****   GPIO_WriteBit(AUDIO_RESET_GPIO, AUDIO_RESET_PIN, Bit_RESET);
 913:../Utilities/STM32F4-Discovery/stm32f4_discovery_audio_codec.c **** 
 914:../Utilities/STM32F4-Discovery/stm32f4_discovery_audio_codec.c ****   /* wait for a delay to insure registers erasing */
 915:../Utilities/STM32F4-Discovery/stm32f4_discovery_audio_codec.c ****   Delay(CODEC_RESET_DELAY); 
 916:../Utilities/STM32F4-Discovery/stm32f4_discovery_audio_codec.c ****   
 917:../Utilities/STM32F4-Discovery/stm32f4_discovery_audio_codec.c ****   /* Power on the codec */
 918:../Utilities/STM32F4-Discovery/stm32f4_discovery_audio_codec.c ****   GPIO_WriteBit(AUDIO_RESET_GPIO, AUDIO_RESET_PIN, Bit_SET);
 919:../Utilities/STM32F4-Discovery/stm32f4_discovery_audio_codec.c **** }
 920:../Utilities/STM32F4-Discovery/stm32f4_discovery_audio_codec.c **** 
 921:../Utilities/STM32F4-Discovery/stm32f4_discovery_audio_codec.c **** /**
 922:../Utilities/STM32F4-Discovery/stm32f4_discovery_audio_codec.c ****   * @brief  Writes a Byte to a given register into the audio codec through the 
 923:../Utilities/STM32F4-Discovery/stm32f4_discovery_audio_codec.c ****             control interface (I2C)
 924:../Utilities/STM32F4-Discovery/stm32f4_discovery_audio_codec.c ****   * @param  RegisterAddr: The address (location) of the register to be written.
 925:../Utilities/STM32F4-Discovery/stm32f4_discovery_audio_codec.c ****   * @param  RegisterValue: the Byte value to be written into destination register.
 926:../Utilities/STM32F4-Discovery/stm32f4_discovery_audio_codec.c ****   * @retval 0 if correct communication, else wrong communication
 927:../Utilities/STM32F4-Discovery/stm32f4_discovery_audio_codec.c ****   */
 928:../Utilities/STM32F4-Discovery/stm32f4_discovery_audio_codec.c **** static uint32_t Codec_WriteRegister(uint8_t RegisterAddr, uint8_t RegisterValue)
 929:../Utilities/STM32F4-Discovery/stm32f4_discovery_audio_codec.c **** {
 236              		.loc 1 929 1 is_stmt 1 view -0
 237              		.cfi_startproc
 238              		@ args = 0, pretend = 0, frame = 0
 239              		@ frame_needed = 0, uses_anonymous_args = 0
 930:../Utilities/STM32F4-Discovery/stm32f4_discovery_audio_codec.c ****   uint32_t result = 0;
 240              		.loc 1 930 3 view .LVU31
 931:../Utilities/STM32F4-Discovery/stm32f4_discovery_audio_codec.c **** 
 932:../Utilities/STM32F4-Discovery/stm32f4_discovery_audio_codec.c ****   /*!< While the bus is busy */
 933:../Utilities/STM32F4-Discovery/stm32f4_discovery_audio_codec.c ****   CODECTimeout = CODEC_LONG_TIMEOUT;
 241              		.loc 1 933 3 view .LVU32
 242              	@ ../Utilities/STM32F4-Discovery/stm32f4_discovery_audio_codec.c:929: {
 929:../Utilities/STM32F4-Discovery/stm32f4_discovery_audio_codec.c ****   uint32_t result = 0;
 243              		.loc 1 929 1 is_stmt 0 view .LVU33
 244 0000 2DE9F041 		push	{r4, r5, r6, r7, r8, lr}	@
 245              		.cfi_def_cfa_offset 24
 246              		.cfi_offset 4, -24
 247              		.cfi_offset 5, -20
 248              		.cfi_offset 6, -16
 249              		.cfi_offset 7, -12
ARM GAS  C:\Users\admin\AppData\Local\Temp\ccfajY9A.s 			page 22


 250              		.cfi_offset 8, -8
 251              		.cfi_offset 14, -4
 252              	@ ../Utilities/STM32F4-Discovery/stm32f4_discovery_audio_codec.c:933:   CODECTimeout = CODEC_LONG_T
 253              		.loc 1 933 16 view .LVU34
 254 0004 9C4C     		ldr	r4, .L64	@ tmp273,
 255              	@ ../Utilities/STM32F4-Discovery/stm32f4_discovery_audio_codec.c:934:   while(I2C_GetFlagStatus(COD
 934:../Utilities/STM32F4-Discovery/stm32f4_discovery_audio_codec.c ****   while(I2C_GetFlagStatus(CODEC_I2C, I2C_FLAG_BUSY))
 256              		.loc 1 934 9 view .LVU35
 257 0006 9D4D     		ldr	r5, .L64+4	@ tmp296,
 258              	@ ../Utilities/STM32F4-Discovery/stm32f4_discovery_audio_codec.c:933:   CODECTimeout = CODEC_LONG_T
 933:../Utilities/STM32F4-Discovery/stm32f4_discovery_audio_codec.c ****   while(I2C_GetFlagStatus(CODEC_I2C, I2C_FLAG_BUSY))
 259              		.loc 1 933 16 view .LVU36
 260 0008 4FF49613 		mov	r3, #1228800	@ tmp160,
 261              	@ ../Utilities/STM32F4-Discovery/stm32f4_discovery_audio_codec.c:929: {
 929:../Utilities/STM32F4-Discovery/stm32f4_discovery_audio_codec.c ****   uint32_t result = 0;
 262              		.loc 1 929 1 view .LVU37
 263 000c 0646     		mov	r6, r0	@ RegisterAddr, tmp297
 264 000e 0F46     		mov	r7, r1	@ RegisterValue, tmp298
 265              	@ ../Utilities/STM32F4-Discovery/stm32f4_discovery_audio_codec.c:933:   CODECTimeout = CODEC_LONG_T
 933:../Utilities/STM32F4-Discovery/stm32f4_discovery_audio_codec.c ****   while(I2C_GetFlagStatus(CODEC_I2C, I2C_FLAG_BUSY))
 266              		.loc 1 933 16 view .LVU38
 267 0010 2360     		str	r3, [r4]	@ tmp160, CODECTimeout
 268              		.loc 1 934 3 is_stmt 1 view .LVU39
 269              	@ ../Utilities/STM32F4-Discovery/stm32f4_discovery_audio_codec.c:934:   while(I2C_GetFlagStatus(COD
 270              		.loc 1 934 8 is_stmt 0 view .LVU40
 271 0012 05E0     		b	.L11		@
 272              	.LVL6:
 273              	.L13:
 274              	@ ../Utilities/STM32F4-Discovery/stm32f4_discovery_audio_codec.c:936:     if((CODECTimeout--) == 0)
 935:../Utilities/STM32F4-Discovery/stm32f4_discovery_audio_codec.c ****   {
 936:../Utilities/STM32F4-Discovery/stm32f4_discovery_audio_codec.c ****     if((CODECTimeout--) == 0) return Codec_TIMEOUT_UserCallback();
 275              		.loc 1 936 21 view .LVU41
 276 0014 2368     		ldr	r3, [r4]	@ CODECTimeout.17_1, CODECTimeout
 277 0016 5A1E     		subs	r2, r3, #1	@ _2, CODECTimeout.17_1,
 278 0018 2260     		str	r2, [r4]	@ _2, CODECTimeout
 279              	@ ../Utilities/STM32F4-Discovery/stm32f4_discovery_audio_codec.c:936:     if((CODECTimeout--) == 0)
 280              		.loc 1 936 7 view .LVU42
 281 001a 002B     		cmp	r3, #0	@ CODECTimeout.17_1
 282 001c 00F01F81 		beq	.L12	@
 283              	.L11:
 934:../Utilities/STM32F4-Discovery/stm32f4_discovery_audio_codec.c ****   {
 284              		.loc 1 934 8 is_stmt 1 view .LVU43
 285              	@ ../Utilities/STM32F4-Discovery/stm32f4_discovery_audio_codec.c:934:   while(I2C_GetFlagStatus(COD
 934:../Utilities/STM32F4-Discovery/stm32f4_discovery_audio_codec.c ****   {
 286              		.loc 1 934 9 is_stmt 0 view .LVU44
 287 0020 4FF40031 		mov	r1, #131072	@,
 288 0024 2846     		mov	r0, r5	@, tmp296
 289 0026 FFF7FEFF 		bl	I2C_GetFlagStatus		@
 290              	.LVL7:
 291              		.loc 1 936 5 is_stmt 1 view .LVU45
 292              	@ ../Utilities/STM32F4-Discovery/stm32f4_discovery_audio_codec.c:934:   while(I2C_GetFlagStatus(COD
 934:../Utilities/STM32F4-Discovery/stm32f4_discovery_audio_codec.c ****   {
 293              		.loc 1 934 8 is_stmt 0 view .LVU46
 294 002a 0028     		cmp	r0, #0	@ tmp299
 295 002c F2D1     		bne	.L13	@
 937:../Utilities/STM32F4-Discovery/stm32f4_discovery_audio_codec.c ****   }
 938:../Utilities/STM32F4-Discovery/stm32f4_discovery_audio_codec.c ****   
ARM GAS  C:\Users\admin\AppData\Local\Temp\ccfajY9A.s 			page 23


 939:../Utilities/STM32F4-Discovery/stm32f4_discovery_audio_codec.c ****   /* Start the config sequence */
 940:../Utilities/STM32F4-Discovery/stm32f4_discovery_audio_codec.c ****   I2C_GenerateSTART(CODEC_I2C, ENABLE);
 296              		.loc 1 940 3 is_stmt 1 view .LVU47
 297 002e 9348     		ldr	r0, .L64+4	@,
 298              	@ ../Utilities/STM32F4-Discovery/stm32f4_discovery_audio_codec.c:944:   while (!I2C_CheckEvent(CODE
 941:../Utilities/STM32F4-Discovery/stm32f4_discovery_audio_codec.c **** 
 942:../Utilities/STM32F4-Discovery/stm32f4_discovery_audio_codec.c ****   /* Test on EV5 and clear it */
 943:../Utilities/STM32F4-Discovery/stm32f4_discovery_audio_codec.c ****   CODECTimeout = CODEC_FLAG_TIMEOUT;
 944:../Utilities/STM32F4-Discovery/stm32f4_discovery_audio_codec.c ****   while (!I2C_CheckEvent(CODEC_I2C, I2C_EVENT_MASTER_MODE_SELECT))
 299              		.loc 1 944 11 is_stmt 0 view .LVU48
 300 0030 DFF85082 		ldr	r8, .L64+12	@ tmp293,
 301 0034 914D     		ldr	r5, .L64+4	@ tmp294,
 302              	@ ../Utilities/STM32F4-Discovery/stm32f4_discovery_audio_codec.c:940:   I2C_GenerateSTART(CODEC_I2C
 940:../Utilities/STM32F4-Discovery/stm32f4_discovery_audio_codec.c **** 
 303              		.loc 1 940 3 view .LVU49
 304 0036 0121     		movs	r1, #1	@,
 305 0038 FFF7FEFF 		bl	I2C_GenerateSTART		@
 306              	.LVL8:
 943:../Utilities/STM32F4-Discovery/stm32f4_discovery_audio_codec.c ****   while (!I2C_CheckEvent(CODEC_I2C, I2C_EVENT_MASTER_MODE_SELECT))
 307              		.loc 1 943 3 is_stmt 1 view .LVU50
 308              	@ ../Utilities/STM32F4-Discovery/stm32f4_discovery_audio_codec.c:943:   CODECTimeout = CODEC_FLAG_T
 943:../Utilities/STM32F4-Discovery/stm32f4_discovery_audio_codec.c ****   while (!I2C_CheckEvent(CODEC_I2C, I2C_EVENT_MASTER_MODE_SELECT))
 309              		.loc 1 943 16 is_stmt 0 view .LVU51
 310 003c 4FF48053 		mov	r3, #4096	@ tmp167,
 311 0040 2360     		str	r3, [r4]	@ tmp167, CODECTimeout
 312              		.loc 1 944 3 is_stmt 1 view .LVU52
 313              	@ ../Utilities/STM32F4-Discovery/stm32f4_discovery_audio_codec.c:944:   while (!I2C_CheckEvent(CODE
 314              		.loc 1 944 9 is_stmt 0 view .LVU53
 315 0042 05E0     		b	.L14		@
 316              	.L16:
 317              	@ ../Utilities/STM32F4-Discovery/stm32f4_discovery_audio_codec.c:946:     if((CODECTimeout--) == 0)
 945:../Utilities/STM32F4-Discovery/stm32f4_discovery_audio_codec.c ****   {
 946:../Utilities/STM32F4-Discovery/stm32f4_discovery_audio_codec.c ****     if((CODECTimeout--) == 0) return Codec_TIMEOUT_UserCallback();
 318              		.loc 1 946 21 view .LVU54
 319 0044 2368     		ldr	r3, [r4]	@ CODECTimeout.19_4, CODECTimeout
 320 0046 5A1E     		subs	r2, r3, #1	@ _5, CODECTimeout.19_4,
 321 0048 2260     		str	r2, [r4]	@ _5, CODECTimeout
 322              	@ ../Utilities/STM32F4-Discovery/stm32f4_discovery_audio_codec.c:946:     if((CODECTimeout--) == 0)
 323              		.loc 1 946 7 view .LVU55
 324 004a 002B     		cmp	r3, #0	@ CODECTimeout.19_4
 325 004c 00F00881 		beq	.L15	@
 326              	.L14:
 944:../Utilities/STM32F4-Discovery/stm32f4_discovery_audio_codec.c ****   {
 327              		.loc 1 944 9 is_stmt 1 view .LVU56
 328              	@ ../Utilities/STM32F4-Discovery/stm32f4_discovery_audio_codec.c:944:   while (!I2C_CheckEvent(CODE
 944:../Utilities/STM32F4-Discovery/stm32f4_discovery_audio_codec.c ****   {
 329              		.loc 1 944 11 is_stmt 0 view .LVU57
 330 0050 4146     		mov	r1, r8	@, tmp293
 331 0052 2846     		mov	r0, r5	@, tmp294
 332 0054 FFF7FEFF 		bl	I2C_CheckEvent		@
 333              	.LVL9:
 334              		.loc 1 946 5 is_stmt 1 view .LVU58
 335              	@ ../Utilities/STM32F4-Discovery/stm32f4_discovery_audio_codec.c:944:   while (!I2C_CheckEvent(CODE
 944:../Utilities/STM32F4-Discovery/stm32f4_discovery_audio_codec.c ****   {
 336              		.loc 1 944 9 is_stmt 0 view .LVU59
 337 0058 0028     		cmp	r0, #0	@ tmp300
 338 005a F3D0     		beq	.L16	@
ARM GAS  C:\Users\admin\AppData\Local\Temp\ccfajY9A.s 			page 24


 339              	.LVL10:
 340              	.LBB46:
 341              	.LBI46:
 928:../Utilities/STM32F4-Discovery/stm32f4_discovery_audio_codec.c **** {
 342              		.loc 1 928 17 is_stmt 1 view .LVU60
 343              	.LBB47:
 947:../Utilities/STM32F4-Discovery/stm32f4_discovery_audio_codec.c ****   }
 948:../Utilities/STM32F4-Discovery/stm32f4_discovery_audio_codec.c ****   
 949:../Utilities/STM32F4-Discovery/stm32f4_discovery_audio_codec.c ****   /* Transmit the slave address and enable writing operation */
 950:../Utilities/STM32F4-Discovery/stm32f4_discovery_audio_codec.c ****   I2C_Send7bitAddress(CODEC_I2C, CODEC_ADDRESS, I2C_Direction_Transmitter);
 344              		.loc 1 950 3 view .LVU61
 345 005c 8748     		ldr	r0, .L64+4	@,
 346              	@ ../Utilities/STM32F4-Discovery/stm32f4_discovery_audio_codec.c:954:   while (!I2C_CheckEvent(CODE
 951:../Utilities/STM32F4-Discovery/stm32f4_discovery_audio_codec.c **** 
 952:../Utilities/STM32F4-Discovery/stm32f4_discovery_audio_codec.c ****   /* Test on EV6 and clear it */
 953:../Utilities/STM32F4-Discovery/stm32f4_discovery_audio_codec.c ****   CODECTimeout = CODEC_FLAG_TIMEOUT;
 954:../Utilities/STM32F4-Discovery/stm32f4_discovery_audio_codec.c ****   while (!I2C_CheckEvent(CODEC_I2C, I2C_EVENT_MASTER_TRANSMITTER_MODE_SELECTED))
 347              		.loc 1 954 11 is_stmt 0 view .LVU62
 348 005e DFF83482 		ldr	r8, .L64+28	@ tmp291,
 349 0062 864D     		ldr	r5, .L64+4	@ tmp292,
 350              	@ ../Utilities/STM32F4-Discovery/stm32f4_discovery_audio_codec.c:950:   I2C_Send7bitAddress(CODEC_I
 950:../Utilities/STM32F4-Discovery/stm32f4_discovery_audio_codec.c **** 
 351              		.loc 1 950 3 view .LVU63
 352 0064 0022     		movs	r2, #0	@,
 353 0066 9421     		movs	r1, #148	@,
 354 0068 FFF7FEFF 		bl	I2C_Send7bitAddress		@
 355              	.LVL11:
 953:../Utilities/STM32F4-Discovery/stm32f4_discovery_audio_codec.c ****   while (!I2C_CheckEvent(CODEC_I2C, I2C_EVENT_MASTER_TRANSMITTER_MODE_SELECTED))
 356              		.loc 1 953 3 is_stmt 1 view .LVU64
 357              	@ ../Utilities/STM32F4-Discovery/stm32f4_discovery_audio_codec.c:953:   CODECTimeout = CODEC_FLAG_T
 953:../Utilities/STM32F4-Discovery/stm32f4_discovery_audio_codec.c ****   while (!I2C_CheckEvent(CODEC_I2C, I2C_EVENT_MASTER_TRANSMITTER_MODE_SELECTED))
 358              		.loc 1 953 16 is_stmt 0 view .LVU65
 359 006c 4FF48053 		mov	r3, #4096	@ tmp175,
 360 0070 2360     		str	r3, [r4]	@ tmp175, CODECTimeout
 361              		.loc 1 954 3 is_stmt 1 view .LVU66
 362              	@ ../Utilities/STM32F4-Discovery/stm32f4_discovery_audio_codec.c:954:   while (!I2C_CheckEvent(CODE
 363              		.loc 1 954 9 is_stmt 0 view .LVU67
 364 0072 05E0     		b	.L17		@
 365              	.L19:
 366              	@ ../Utilities/STM32F4-Discovery/stm32f4_discovery_audio_codec.c:956:     if((CODECTimeout--) == 0)
 955:../Utilities/STM32F4-Discovery/stm32f4_discovery_audio_codec.c ****   {
 956:../Utilities/STM32F4-Discovery/stm32f4_discovery_audio_codec.c ****     if((CODECTimeout--) == 0) return Codec_TIMEOUT_UserCallback();
 367              		.loc 1 956 21 view .LVU68
 368 0074 2368     		ldr	r3, [r4]	@ CODECTimeout.21_21, CODECTimeout
 369 0076 5A1E     		subs	r2, r3, #1	@ _22, CODECTimeout.21_21,
 370 0078 2260     		str	r2, [r4]	@ _22, CODECTimeout
 371              	@ ../Utilities/STM32F4-Discovery/stm32f4_discovery_audio_codec.c:956:     if((CODECTimeout--) == 0)
 372              		.loc 1 956 7 view .LVU69
 373 007a 002B     		cmp	r3, #0	@ CODECTimeout.21_21
 374 007c 00F0F180 		beq	.L18	@
 375              	.L17:
 954:../Utilities/STM32F4-Discovery/stm32f4_discovery_audio_codec.c ****   {
 376              		.loc 1 954 9 is_stmt 1 view .LVU70
 377              	@ ../Utilities/STM32F4-Discovery/stm32f4_discovery_audio_codec.c:954:   while (!I2C_CheckEvent(CODE
 954:../Utilities/STM32F4-Discovery/stm32f4_discovery_audio_codec.c ****   {
 378              		.loc 1 954 11 is_stmt 0 view .LVU71
 379 0080 4146     		mov	r1, r8	@, tmp291
ARM GAS  C:\Users\admin\AppData\Local\Temp\ccfajY9A.s 			page 25


 380 0082 2846     		mov	r0, r5	@, tmp292
 381 0084 FFF7FEFF 		bl	I2C_CheckEvent		@
 382              	.LVL12:
 383              		.loc 1 956 5 is_stmt 1 view .LVU72
 384              	@ ../Utilities/STM32F4-Discovery/stm32f4_discovery_audio_codec.c:954:   while (!I2C_CheckEvent(CODE
 954:../Utilities/STM32F4-Discovery/stm32f4_discovery_audio_codec.c ****   {
 385              		.loc 1 954 9 is_stmt 0 view .LVU73
 386 0088 0028     		cmp	r0, #0	@ tmp301
 387 008a F3D0     		beq	.L19	@
 957:../Utilities/STM32F4-Discovery/stm32f4_discovery_audio_codec.c ****   }
 958:../Utilities/STM32F4-Discovery/stm32f4_discovery_audio_codec.c **** 
 959:../Utilities/STM32F4-Discovery/stm32f4_discovery_audio_codec.c ****   /* Transmit the first address for write operation */
 960:../Utilities/STM32F4-Discovery/stm32f4_discovery_audio_codec.c ****   I2C_SendData(CODEC_I2C, RegisterAddr);
 388              		.loc 1 960 3 is_stmt 1 view .LVU74
 389 008c 7B48     		ldr	r0, .L64+4	@,
 390              	@ ../Utilities/STM32F4-Discovery/stm32f4_discovery_audio_codec.c:964:   while (!I2C_CheckEvent(CODE
 961:../Utilities/STM32F4-Discovery/stm32f4_discovery_audio_codec.c **** 
 962:../Utilities/STM32F4-Discovery/stm32f4_discovery_audio_codec.c ****   /* Test on EV8 and clear it */
 963:../Utilities/STM32F4-Discovery/stm32f4_discovery_audio_codec.c ****   CODECTimeout = CODEC_FLAG_TIMEOUT;
 964:../Utilities/STM32F4-Discovery/stm32f4_discovery_audio_codec.c ****   while (!I2C_CheckEvent(CODEC_I2C, I2C_EVENT_MASTER_BYTE_TRANSMITTING))
 391              		.loc 1 964 11 is_stmt 0 view .LVU75
 392 008e DFF80882 		ldr	r8, .L64+32	@ tmp289,
 393 0092 7A4D     		ldr	r5, .L64+4	@ tmp290,
 394              	@ ../Utilities/STM32F4-Discovery/stm32f4_discovery_audio_codec.c:960:   I2C_SendData(CODEC_I2C, Reg
 960:../Utilities/STM32F4-Discovery/stm32f4_discovery_audio_codec.c **** 
 395              		.loc 1 960 3 view .LVU76
 396 0094 3146     		mov	r1, r6	@, RegisterAddr
 397 0096 FFF7FEFF 		bl	I2C_SendData		@
 398              	.LVL13:
 963:../Utilities/STM32F4-Discovery/stm32f4_discovery_audio_codec.c ****   while (!I2C_CheckEvent(CODEC_I2C, I2C_EVENT_MASTER_BYTE_TRANSMITTING))
 399              		.loc 1 963 3 is_stmt 1 view .LVU77
 400              	@ ../Utilities/STM32F4-Discovery/stm32f4_discovery_audio_codec.c:963:   CODECTimeout = CODEC_FLAG_T
 963:../Utilities/STM32F4-Discovery/stm32f4_discovery_audio_codec.c ****   while (!I2C_CheckEvent(CODEC_I2C, I2C_EVENT_MASTER_BYTE_TRANSMITTING))
 401              		.loc 1 963 16 is_stmt 0 view .LVU78
 402 009a 4FF48053 		mov	r3, #4096	@ tmp183,
 403 009e 2360     		str	r3, [r4]	@ tmp183, CODECTimeout
 404              		.loc 1 964 3 is_stmt 1 view .LVU79
 405              	@ ../Utilities/STM32F4-Discovery/stm32f4_discovery_audio_codec.c:964:   while (!I2C_CheckEvent(CODE
 406              		.loc 1 964 9 is_stmt 0 view .LVU80
 407 00a0 05E0     		b	.L20		@
 408              	.L22:
 409              	@ ../Utilities/STM32F4-Discovery/stm32f4_discovery_audio_codec.c:966:     if((CODECTimeout--) == 0)
 965:../Utilities/STM32F4-Discovery/stm32f4_discovery_audio_codec.c ****   {
 966:../Utilities/STM32F4-Discovery/stm32f4_discovery_audio_codec.c ****     if((CODECTimeout--) == 0) return Codec_TIMEOUT_UserCallback();
 410              		.loc 1 966 21 view .LVU81
 411 00a2 2368     		ldr	r3, [r4]	@ CODECTimeout.23_24, CODECTimeout
 412 00a4 5A1E     		subs	r2, r3, #1	@ _25, CODECTimeout.23_24,
 413 00a6 2260     		str	r2, [r4]	@ _25, CODECTimeout
 414              	@ ../Utilities/STM32F4-Discovery/stm32f4_discovery_audio_codec.c:966:     if((CODECTimeout--) == 0)
 415              		.loc 1 966 7 view .LVU82
 416 00a8 002B     		cmp	r3, #0	@ CODECTimeout.23_24
 417 00aa 00F0DB80 		beq	.L21	@
 418              	.L20:
 964:../Utilities/STM32F4-Discovery/stm32f4_discovery_audio_codec.c ****   {
 419              		.loc 1 964 9 is_stmt 1 view .LVU83
 420              	@ ../Utilities/STM32F4-Discovery/stm32f4_discovery_audio_codec.c:964:   while (!I2C_CheckEvent(CODE
 964:../Utilities/STM32F4-Discovery/stm32f4_discovery_audio_codec.c ****   {
ARM GAS  C:\Users\admin\AppData\Local\Temp\ccfajY9A.s 			page 26


 421              		.loc 1 964 11 is_stmt 0 view .LVU84
 422 00ae 4146     		mov	r1, r8	@, tmp289
 423 00b0 2846     		mov	r0, r5	@, tmp290
 424 00b2 FFF7FEFF 		bl	I2C_CheckEvent		@
 425              	.LVL14:
 426              		.loc 1 966 5 is_stmt 1 view .LVU85
 427              	@ ../Utilities/STM32F4-Discovery/stm32f4_discovery_audio_codec.c:964:   while (!I2C_CheckEvent(CODE
 964:../Utilities/STM32F4-Discovery/stm32f4_discovery_audio_codec.c ****   {
 428              		.loc 1 964 9 is_stmt 0 view .LVU86
 429 00b6 0028     		cmp	r0, #0	@ tmp302
 430 00b8 F3D0     		beq	.L22	@
 967:../Utilities/STM32F4-Discovery/stm32f4_discovery_audio_codec.c ****   }
 968:../Utilities/STM32F4-Discovery/stm32f4_discovery_audio_codec.c ****   
 969:../Utilities/STM32F4-Discovery/stm32f4_discovery_audio_codec.c ****   /* Prepare the register value to be sent */
 970:../Utilities/STM32F4-Discovery/stm32f4_discovery_audio_codec.c ****   I2C_SendData(CODEC_I2C, RegisterValue);
 431              		.loc 1 970 3 is_stmt 1 view .LVU87
 432 00ba 7048     		ldr	r0, .L64+4	@,
 433              	@ ../Utilities/STM32F4-Discovery/stm32f4_discovery_audio_codec.c:974:   while(!I2C_GetFlagStatus(CO
 971:../Utilities/STM32F4-Discovery/stm32f4_discovery_audio_codec.c ****   
 972:../Utilities/STM32F4-Discovery/stm32f4_discovery_audio_codec.c ****   /*!< Wait till all data have been physically transferred on the bus */
 973:../Utilities/STM32F4-Discovery/stm32f4_discovery_audio_codec.c ****   CODECTimeout = CODEC_LONG_TIMEOUT;
 974:../Utilities/STM32F4-Discovery/stm32f4_discovery_audio_codec.c ****   while(!I2C_GetFlagStatus(CODEC_I2C, I2C_FLAG_BTF))
 434              		.loc 1 974 10 is_stmt 0 view .LVU88
 435 00bc DFF8C081 		ldr	r8, .L64+8	@ tmp287,
 436 00c0 6E4D     		ldr	r5, .L64+4	@ tmp288,
 437              	@ ../Utilities/STM32F4-Discovery/stm32f4_discovery_audio_codec.c:970:   I2C_SendData(CODEC_I2C, Reg
 970:../Utilities/STM32F4-Discovery/stm32f4_discovery_audio_codec.c ****   
 438              		.loc 1 970 3 view .LVU89
 439 00c2 3946     		mov	r1, r7	@, RegisterValue
 440 00c4 FFF7FEFF 		bl	I2C_SendData		@
 441              	.LVL15:
 973:../Utilities/STM32F4-Discovery/stm32f4_discovery_audio_codec.c ****   while(!I2C_GetFlagStatus(CODEC_I2C, I2C_FLAG_BTF))
 442              		.loc 1 973 3 is_stmt 1 view .LVU90
 443              	@ ../Utilities/STM32F4-Discovery/stm32f4_discovery_audio_codec.c:973:   CODECTimeout = CODEC_LONG_T
 973:../Utilities/STM32F4-Discovery/stm32f4_discovery_audio_codec.c ****   while(!I2C_GetFlagStatus(CODEC_I2C, I2C_FLAG_BTF))
 444              		.loc 1 973 16 is_stmt 0 view .LVU91
 445 00c8 4FF49613 		mov	r3, #1228800	@ tmp191,
 446 00cc 2360     		str	r3, [r4]	@ tmp191, CODECTimeout
 447              		.loc 1 974 3 is_stmt 1 view .LVU92
 448              	@ ../Utilities/STM32F4-Discovery/stm32f4_discovery_audio_codec.c:974:   while(!I2C_GetFlagStatus(CO
 449              		.loc 1 974 8 is_stmt 0 view .LVU93
 450 00ce 05E0     		b	.L23		@
 451              	.L25:
 452              	@ ../Utilities/STM32F4-Discovery/stm32f4_discovery_audio_codec.c:976:     if((CODECTimeout--) == 0)
 975:../Utilities/STM32F4-Discovery/stm32f4_discovery_audio_codec.c ****   {
 976:../Utilities/STM32F4-Discovery/stm32f4_discovery_audio_codec.c ****     if((CODECTimeout--) == 0) Codec_TIMEOUT_UserCallback();
 453              		.loc 1 976 21 view .LVU94
 454 00d0 2368     		ldr	r3, [r4]	@ CODECTimeout.25_27, CODECTimeout
 455 00d2 5A1E     		subs	r2, r3, #1	@ _28, CODECTimeout.25_27,
 456 00d4 2260     		str	r2, [r4]	@ _28, CODECTimeout
 457              	@ ../Utilities/STM32F4-Discovery/stm32f4_discovery_audio_codec.c:976:     if((CODECTimeout--) == 0)
 458              		.loc 1 976 7 view .LVU95
 459 00d6 002B     		cmp	r3, #0	@ CODECTimeout.25_27
 460 00d8 00F0C580 		beq	.L24	@
 461              	.L23:
 974:../Utilities/STM32F4-Discovery/stm32f4_discovery_audio_codec.c ****   {
 462              		.loc 1 974 8 is_stmt 1 view .LVU96
ARM GAS  C:\Users\admin\AppData\Local\Temp\ccfajY9A.s 			page 27


 463              	@ ../Utilities/STM32F4-Discovery/stm32f4_discovery_audio_codec.c:974:   while(!I2C_GetFlagStatus(CO
 974:../Utilities/STM32F4-Discovery/stm32f4_discovery_audio_codec.c ****   {
 464              		.loc 1 974 10 is_stmt 0 view .LVU97
 465 00dc 4146     		mov	r1, r8	@, tmp287
 466 00de 2846     		mov	r0, r5	@, tmp288
 467 00e0 FFF7FEFF 		bl	I2C_GetFlagStatus		@
 468              	.LVL16:
 469              		.loc 1 976 5 is_stmt 1 view .LVU98
 470              	@ ../Utilities/STM32F4-Discovery/stm32f4_discovery_audio_codec.c:974:   while(!I2C_GetFlagStatus(CO
 974:../Utilities/STM32F4-Discovery/stm32f4_discovery_audio_codec.c ****   {
 471              		.loc 1 974 8 is_stmt 0 view .LVU99
 472 00e4 0028     		cmp	r0, #0	@ tmp303
 473 00e6 F3D0     		beq	.L25	@
 977:../Utilities/STM32F4-Discovery/stm32f4_discovery_audio_codec.c ****   }
 978:../Utilities/STM32F4-Discovery/stm32f4_discovery_audio_codec.c ****   
 979:../Utilities/STM32F4-Discovery/stm32f4_discovery_audio_codec.c ****   /* End the configuration sequence */
 980:../Utilities/STM32F4-Discovery/stm32f4_discovery_audio_codec.c ****   I2C_GenerateSTOP(CODEC_I2C, ENABLE);  
 474              		.loc 1 980 3 is_stmt 1 view .LVU100
 475 00e8 6448     		ldr	r0, .L64+4	@,
 476              	.LBB48:
 477              	.LBB49:
 478              	@ ../Utilities/STM32F4-Discovery/stm32f4_discovery_audio_codec.c:1004:   while(I2C_GetFlagStatus(CO
 981:../Utilities/STM32F4-Discovery/stm32f4_discovery_audio_codec.c ****   
 982:../Utilities/STM32F4-Discovery/stm32f4_discovery_audio_codec.c **** #ifdef VERIFY_WRITTENDATA
 983:../Utilities/STM32F4-Discovery/stm32f4_discovery_audio_codec.c ****   /* Verify that the data has been correctly written */  
 984:../Utilities/STM32F4-Discovery/stm32f4_discovery_audio_codec.c ****   result = (Codec_ReadRegister(RegisterAddr) == RegisterValue)? 0:1;
 985:../Utilities/STM32F4-Discovery/stm32f4_discovery_audio_codec.c **** #endif /* VERIFY_WRITTENDATA */
 986:../Utilities/STM32F4-Discovery/stm32f4_discovery_audio_codec.c **** 
 987:../Utilities/STM32F4-Discovery/stm32f4_discovery_audio_codec.c ****   /* Return the verifying value: 0 (Passed) or 1 (Failed) */
 988:../Utilities/STM32F4-Discovery/stm32f4_discovery_audio_codec.c ****   return result;  
 989:../Utilities/STM32F4-Discovery/stm32f4_discovery_audio_codec.c **** }
 990:../Utilities/STM32F4-Discovery/stm32f4_discovery_audio_codec.c **** 
 991:../Utilities/STM32F4-Discovery/stm32f4_discovery_audio_codec.c **** /**
 992:../Utilities/STM32F4-Discovery/stm32f4_discovery_audio_codec.c ****   * @brief  Reads and returns the value of an audio codec register through the
 993:../Utilities/STM32F4-Discovery/stm32f4_discovery_audio_codec.c ****   *         control interface (I2C).
 994:../Utilities/STM32F4-Discovery/stm32f4_discovery_audio_codec.c ****   * @param  RegisterAddr: Address of the register to be read.
 995:../Utilities/STM32F4-Discovery/stm32f4_discovery_audio_codec.c ****   * @retval Value of the register to be read or dummy value if the communication
 996:../Utilities/STM32F4-Discovery/stm32f4_discovery_audio_codec.c ****   *         fails.
 997:../Utilities/STM32F4-Discovery/stm32f4_discovery_audio_codec.c ****   */
 998:../Utilities/STM32F4-Discovery/stm32f4_discovery_audio_codec.c **** static uint32_t Codec_ReadRegister(uint8_t RegisterAddr)
 999:../Utilities/STM32F4-Discovery/stm32f4_discovery_audio_codec.c **** {
1000:../Utilities/STM32F4-Discovery/stm32f4_discovery_audio_codec.c ****   uint32_t result = 0;
1001:../Utilities/STM32F4-Discovery/stm32f4_discovery_audio_codec.c **** 
1002:../Utilities/STM32F4-Discovery/stm32f4_discovery_audio_codec.c ****   /*!< While the bus is busy */
1003:../Utilities/STM32F4-Discovery/stm32f4_discovery_audio_codec.c ****   CODECTimeout = CODEC_LONG_TIMEOUT;
1004:../Utilities/STM32F4-Discovery/stm32f4_discovery_audio_codec.c ****   while(I2C_GetFlagStatus(CODEC_I2C, I2C_FLAG_BUSY))
 479              		.loc 1 1004 9 is_stmt 0 view .LVU101
 480 00ea 644D     		ldr	r5, .L64+4	@ tmp286,
 481              	.LBE49:
 482              	.LBE48:
 483              	@ ../Utilities/STM32F4-Discovery/stm32f4_discovery_audio_codec.c:980:   I2C_GenerateSTOP(CODEC_I2C,
 980:../Utilities/STM32F4-Discovery/stm32f4_discovery_audio_codec.c ****   
 484              		.loc 1 980 3 view .LVU102
 485 00ec 0121     		movs	r1, #1	@,
 486 00ee FFF7FEFF 		bl	I2C_GenerateSTOP		@
 487              	.LVL17:
 984:../Utilities/STM32F4-Discovery/stm32f4_discovery_audio_codec.c **** #endif /* VERIFY_WRITTENDATA */
ARM GAS  C:\Users\admin\AppData\Local\Temp\ccfajY9A.s 			page 28


 488              		.loc 1 984 3 is_stmt 1 view .LVU103
 489              	.LBB51:
 490              	.LBI48:
 998:../Utilities/STM32F4-Discovery/stm32f4_discovery_audio_codec.c **** {
 491              		.loc 1 998 17 view .LVU104
 492              	.LBB50:
1000:../Utilities/STM32F4-Discovery/stm32f4_discovery_audio_codec.c **** 
 493              		.loc 1 1000 3 view .LVU105
1003:../Utilities/STM32F4-Discovery/stm32f4_discovery_audio_codec.c ****   while(I2C_GetFlagStatus(CODEC_I2C, I2C_FLAG_BUSY))
 494              		.loc 1 1003 3 view .LVU106
 495              	@ ../Utilities/STM32F4-Discovery/stm32f4_discovery_audio_codec.c:1003:   CODECTimeout = CODEC_LONG_
1003:../Utilities/STM32F4-Discovery/stm32f4_discovery_audio_codec.c ****   while(I2C_GetFlagStatus(CODEC_I2C, I2C_FLAG_BUSY))
 496              		.loc 1 1003 16 is_stmt 0 view .LVU107
 497 00f2 4FF49613 		mov	r3, #1228800	@ tmp199,
 498 00f6 2360     		str	r3, [r4]	@ tmp199, CODECTimeout
 499              		.loc 1 1004 3 is_stmt 1 view .LVU108
 500              	@ ../Utilities/STM32F4-Discovery/stm32f4_discovery_audio_codec.c:1004:   while(I2C_GetFlagStatus(CO
 501              		.loc 1 1004 8 is_stmt 0 view .LVU109
 502 00f8 05E0     		b	.L26		@
 503              	.L28:
 504              	@ ../Utilities/STM32F4-Discovery/stm32f4_discovery_audio_codec.c:1006:     if((CODECTimeout--) == 0
1005:../Utilities/STM32F4-Discovery/stm32f4_discovery_audio_codec.c ****   {
1006:../Utilities/STM32F4-Discovery/stm32f4_discovery_audio_codec.c ****     if((CODECTimeout--) == 0) return Codec_TIMEOUT_UserCallback();
 505              		.loc 1 1006 21 view .LVU110
 506 00fa 2368     		ldr	r3, [r4]	@ CODECTimeout.27_34, CODECTimeout
 507 00fc 5A1E     		subs	r2, r3, #1	@ _35, CODECTimeout.27_34,
 508 00fe 2260     		str	r2, [r4]	@ _35, CODECTimeout
 509              	@ ../Utilities/STM32F4-Discovery/stm32f4_discovery_audio_codec.c:1006:     if((CODECTimeout--) == 0
 510              		.loc 1 1006 7 view .LVU111
 511 0100 002B     		cmp	r3, #0	@ CODECTimeout.27_34
 512 0102 00F0B180 		beq	.L27	@
 513              	.L26:
1004:../Utilities/STM32F4-Discovery/stm32f4_discovery_audio_codec.c ****   {
 514              		.loc 1 1004 8 is_stmt 1 view .LVU112
 515              	@ ../Utilities/STM32F4-Discovery/stm32f4_discovery_audio_codec.c:1004:   while(I2C_GetFlagStatus(CO
1004:../Utilities/STM32F4-Discovery/stm32f4_discovery_audio_codec.c ****   {
 516              		.loc 1 1004 9 is_stmt 0 view .LVU113
 517 0106 4FF40031 		mov	r1, #131072	@,
 518 010a 2846     		mov	r0, r5	@, tmp286
 519 010c FFF7FEFF 		bl	I2C_GetFlagStatus		@
 520              	.LVL18:
 521              		.loc 1 1006 5 is_stmt 1 view .LVU114
 522              	@ ../Utilities/STM32F4-Discovery/stm32f4_discovery_audio_codec.c:1004:   while(I2C_GetFlagStatus(CO
1004:../Utilities/STM32F4-Discovery/stm32f4_discovery_audio_codec.c ****   {
 523              		.loc 1 1004 8 is_stmt 0 view .LVU115
 524 0110 0028     		cmp	r0, #0	@ tmp304
 525 0112 F2D1     		bne	.L28	@
1007:../Utilities/STM32F4-Discovery/stm32f4_discovery_audio_codec.c ****   }
1008:../Utilities/STM32F4-Discovery/stm32f4_discovery_audio_codec.c ****   
1009:../Utilities/STM32F4-Discovery/stm32f4_discovery_audio_codec.c ****   /* Start the config sequence */
1010:../Utilities/STM32F4-Discovery/stm32f4_discovery_audio_codec.c ****   I2C_GenerateSTART(CODEC_I2C, ENABLE);
 526              		.loc 1 1010 3 is_stmt 1 view .LVU116
 527 0114 5948     		ldr	r0, .L64+4	@,
 528              	@ ../Utilities/STM32F4-Discovery/stm32f4_discovery_audio_codec.c:1014:   while (!I2C_CheckEvent(COD
1011:../Utilities/STM32F4-Discovery/stm32f4_discovery_audio_codec.c **** 
1012:../Utilities/STM32F4-Discovery/stm32f4_discovery_audio_codec.c ****   /* Test on EV5 and clear it */
1013:../Utilities/STM32F4-Discovery/stm32f4_discovery_audio_codec.c ****   CODECTimeout = CODEC_FLAG_TIMEOUT;
ARM GAS  C:\Users\admin\AppData\Local\Temp\ccfajY9A.s 			page 29


1014:../Utilities/STM32F4-Discovery/stm32f4_discovery_audio_codec.c ****   while (!I2C_CheckEvent(CODEC_I2C, I2C_EVENT_MASTER_MODE_SELECT))
 529              		.loc 1 1014 11 is_stmt 0 view .LVU117
 530 0116 DFF86C81 		ldr	r8, .L64+12	@ tmp283,
 531 011a 584D     		ldr	r5, .L64+4	@ tmp284,
 532              	@ ../Utilities/STM32F4-Discovery/stm32f4_discovery_audio_codec.c:1010:   I2C_GenerateSTART(CODEC_I2
1010:../Utilities/STM32F4-Discovery/stm32f4_discovery_audio_codec.c **** 
 533              		.loc 1 1010 3 view .LVU118
 534 011c 0121     		movs	r1, #1	@,
 535 011e FFF7FEFF 		bl	I2C_GenerateSTART		@
 536              	.LVL19:
1013:../Utilities/STM32F4-Discovery/stm32f4_discovery_audio_codec.c ****   while (!I2C_CheckEvent(CODEC_I2C, I2C_EVENT_MASTER_MODE_SELECT))
 537              		.loc 1 1013 3 is_stmt 1 view .LVU119
 538              	@ ../Utilities/STM32F4-Discovery/stm32f4_discovery_audio_codec.c:1013:   CODECTimeout = CODEC_FLAG_
1013:../Utilities/STM32F4-Discovery/stm32f4_discovery_audio_codec.c ****   while (!I2C_CheckEvent(CODEC_I2C, I2C_EVENT_MASTER_MODE_SELECT))
 539              		.loc 1 1013 16 is_stmt 0 view .LVU120
 540 0122 4FF48053 		mov	r3, #4096	@ tmp206,
 541 0126 2360     		str	r3, [r4]	@ tmp206, CODECTimeout
 542              		.loc 1 1014 3 is_stmt 1 view .LVU121
 543              	@ ../Utilities/STM32F4-Discovery/stm32f4_discovery_audio_codec.c:1014:   while (!I2C_CheckEvent(COD
 544              		.loc 1 1014 9 is_stmt 0 view .LVU122
 545 0128 05E0     		b	.L29		@
 546              	.L31:
 547              	@ ../Utilities/STM32F4-Discovery/stm32f4_discovery_audio_codec.c:1016:     if((CODECTimeout--) == 0
1015:../Utilities/STM32F4-Discovery/stm32f4_discovery_audio_codec.c ****   {
1016:../Utilities/STM32F4-Discovery/stm32f4_discovery_audio_codec.c ****     if((CODECTimeout--) == 0) return Codec_TIMEOUT_UserCallback();
 548              		.loc 1 1016 21 view .LVU123
 549 012a 2368     		ldr	r3, [r4]	@ CODECTimeout.29_37, CODECTimeout
 550 012c 5A1E     		subs	r2, r3, #1	@ _38, CODECTimeout.29_37,
 551 012e 2260     		str	r2, [r4]	@ _38, CODECTimeout
 552              	@ ../Utilities/STM32F4-Discovery/stm32f4_discovery_audio_codec.c:1016:     if((CODECTimeout--) == 0
 553              		.loc 1 1016 7 view .LVU124
 554 0130 002B     		cmp	r3, #0	@ CODECTimeout.29_37
 555 0132 00F09A80 		beq	.L30	@
 556              	.L29:
1014:../Utilities/STM32F4-Discovery/stm32f4_discovery_audio_codec.c ****   {
 557              		.loc 1 1014 9 is_stmt 1 view .LVU125
 558              	@ ../Utilities/STM32F4-Discovery/stm32f4_discovery_audio_codec.c:1014:   while (!I2C_CheckEvent(COD
1014:../Utilities/STM32F4-Discovery/stm32f4_discovery_audio_codec.c ****   {
 559              		.loc 1 1014 11 is_stmt 0 view .LVU126
 560 0136 4146     		mov	r1, r8	@, tmp283
 561 0138 2846     		mov	r0, r5	@, tmp284
 562 013a FFF7FEFF 		bl	I2C_CheckEvent		@
 563              	.LVL20:
 564              		.loc 1 1016 5 is_stmt 1 view .LVU127
 565              	@ ../Utilities/STM32F4-Discovery/stm32f4_discovery_audio_codec.c:1014:   while (!I2C_CheckEvent(COD
1014:../Utilities/STM32F4-Discovery/stm32f4_discovery_audio_codec.c ****   {
 566              		.loc 1 1014 9 is_stmt 0 view .LVU128
 567 013e 0028     		cmp	r0, #0	@ tmp305
 568 0140 F3D0     		beq	.L31	@
1017:../Utilities/STM32F4-Discovery/stm32f4_discovery_audio_codec.c ****   }
1018:../Utilities/STM32F4-Discovery/stm32f4_discovery_audio_codec.c ****   
1019:../Utilities/STM32F4-Discovery/stm32f4_discovery_audio_codec.c ****   /* Transmit the slave address and enable writing operation */
1020:../Utilities/STM32F4-Discovery/stm32f4_discovery_audio_codec.c ****   I2C_Send7bitAddress(CODEC_I2C, CODEC_ADDRESS, I2C_Direction_Transmitter);
 569              		.loc 1 1020 3 is_stmt 1 view .LVU129
 570 0142 4E48     		ldr	r0, .L64+4	@,
 571              	@ ../Utilities/STM32F4-Discovery/stm32f4_discovery_audio_codec.c:1024:   while (!I2C_CheckEvent(COD
1021:../Utilities/STM32F4-Discovery/stm32f4_discovery_audio_codec.c **** 
ARM GAS  C:\Users\admin\AppData\Local\Temp\ccfajY9A.s 			page 30


1022:../Utilities/STM32F4-Discovery/stm32f4_discovery_audio_codec.c ****   /* Test on EV6 and clear it */
1023:../Utilities/STM32F4-Discovery/stm32f4_discovery_audio_codec.c ****   CODECTimeout = CODEC_FLAG_TIMEOUT;
1024:../Utilities/STM32F4-Discovery/stm32f4_discovery_audio_codec.c ****   while (!I2C_CheckEvent(CODEC_I2C, I2C_EVENT_MASTER_TRANSMITTER_MODE_SELECTED))
 572              		.loc 1 1024 11 is_stmt 0 view .LVU130
 573 0144 DFF84C81 		ldr	r8, .L64+28	@ tmp281,
 574 0148 4C4D     		ldr	r5, .L64+4	@ tmp282,
 575              	@ ../Utilities/STM32F4-Discovery/stm32f4_discovery_audio_codec.c:1020:   I2C_Send7bitAddress(CODEC_
1020:../Utilities/STM32F4-Discovery/stm32f4_discovery_audio_codec.c **** 
 576              		.loc 1 1020 3 view .LVU131
 577 014a 0022     		movs	r2, #0	@,
 578 014c 9421     		movs	r1, #148	@,
 579 014e FFF7FEFF 		bl	I2C_Send7bitAddress		@
 580              	.LVL21:
1023:../Utilities/STM32F4-Discovery/stm32f4_discovery_audio_codec.c ****   while (!I2C_CheckEvent(CODEC_I2C, I2C_EVENT_MASTER_TRANSMITTER_MODE_SELECTED))
 581              		.loc 1 1023 3 is_stmt 1 view .LVU132
 582              	@ ../Utilities/STM32F4-Discovery/stm32f4_discovery_audio_codec.c:1023:   CODECTimeout = CODEC_FLAG_
1023:../Utilities/STM32F4-Discovery/stm32f4_discovery_audio_codec.c ****   while (!I2C_CheckEvent(CODEC_I2C, I2C_EVENT_MASTER_TRANSMITTER_MODE_SELECTED))
 583              		.loc 1 1023 16 is_stmt 0 view .LVU133
 584 0152 4FF48053 		mov	r3, #4096	@ tmp214,
 585 0156 2360     		str	r3, [r4]	@ tmp214, CODECTimeout
 586              		.loc 1 1024 3 is_stmt 1 view .LVU134
 587              	@ ../Utilities/STM32F4-Discovery/stm32f4_discovery_audio_codec.c:1024:   while (!I2C_CheckEvent(COD
 588              		.loc 1 1024 9 is_stmt 0 view .LVU135
 589 0158 05E0     		b	.L32		@
 590              	.L34:
 591              	@ ../Utilities/STM32F4-Discovery/stm32f4_discovery_audio_codec.c:1026:     if((CODECTimeout--) == 0
1025:../Utilities/STM32F4-Discovery/stm32f4_discovery_audio_codec.c ****   {
1026:../Utilities/STM32F4-Discovery/stm32f4_discovery_audio_codec.c ****     if((CODECTimeout--) == 0) return Codec_TIMEOUT_UserCallback();
 592              		.loc 1 1026 21 view .LVU136
 593 015a 2368     		ldr	r3, [r4]	@ CODECTimeout.31_40, CODECTimeout
 594 015c 5A1E     		subs	r2, r3, #1	@ _41, CODECTimeout.31_40,
 595 015e 2260     		str	r2, [r4]	@ _41, CODECTimeout
 596              	@ ../Utilities/STM32F4-Discovery/stm32f4_discovery_audio_codec.c:1026:     if((CODECTimeout--) == 0
 597              		.loc 1 1026 7 view .LVU137
 598 0160 002B     		cmp	r3, #0	@ CODECTimeout.31_40
 599 0162 00F08380 		beq	.L33	@
 600              	.L32:
1024:../Utilities/STM32F4-Discovery/stm32f4_discovery_audio_codec.c ****   {
 601              		.loc 1 1024 9 is_stmt 1 view .LVU138
 602              	@ ../Utilities/STM32F4-Discovery/stm32f4_discovery_audio_codec.c:1024:   while (!I2C_CheckEvent(COD
1024:../Utilities/STM32F4-Discovery/stm32f4_discovery_audio_codec.c ****   {
 603              		.loc 1 1024 11 is_stmt 0 view .LVU139
 604 0166 4146     		mov	r1, r8	@, tmp281
 605 0168 2846     		mov	r0, r5	@, tmp282
 606 016a FFF7FEFF 		bl	I2C_CheckEvent		@
 607              	.LVL22:
 608              		.loc 1 1026 5 is_stmt 1 view .LVU140
 609              	@ ../Utilities/STM32F4-Discovery/stm32f4_discovery_audio_codec.c:1024:   while (!I2C_CheckEvent(COD
1024:../Utilities/STM32F4-Discovery/stm32f4_discovery_audio_codec.c ****   {
 610              		.loc 1 1024 9 is_stmt 0 view .LVU141
 611 016e 0028     		cmp	r0, #0	@ tmp306
 612 0170 F3D0     		beq	.L34	@
1027:../Utilities/STM32F4-Discovery/stm32f4_discovery_audio_codec.c ****   }
1028:../Utilities/STM32F4-Discovery/stm32f4_discovery_audio_codec.c **** 
1029:../Utilities/STM32F4-Discovery/stm32f4_discovery_audio_codec.c ****   /* Transmit the register address to be read */
1030:../Utilities/STM32F4-Discovery/stm32f4_discovery_audio_codec.c ****   I2C_SendData(CODEC_I2C, RegisterAddr);
 613              		.loc 1 1030 3 is_stmt 1 view .LVU142
ARM GAS  C:\Users\admin\AppData\Local\Temp\ccfajY9A.s 			page 31


 614 0172 3146     		mov	r1, r6	@, RegisterAddr
 615 0174 4148     		ldr	r0, .L64+4	@,
 616              	@ ../Utilities/STM32F4-Discovery/stm32f4_discovery_audio_codec.c:1034:   while (I2C_GetFlagStatus(C
1031:../Utilities/STM32F4-Discovery/stm32f4_discovery_audio_codec.c **** 
1032:../Utilities/STM32F4-Discovery/stm32f4_discovery_audio_codec.c ****   /* Test on EV8 and clear it */
1033:../Utilities/STM32F4-Discovery/stm32f4_discovery_audio_codec.c ****   CODECTimeout = CODEC_FLAG_TIMEOUT;
1034:../Utilities/STM32F4-Discovery/stm32f4_discovery_audio_codec.c ****   while (I2C_GetFlagStatus(CODEC_I2C, I2C_FLAG_BTF) == RESET)
 617              		.loc 1 1034 10 is_stmt 0 view .LVU143
 618 0176 424E     		ldr	r6, .L64+8	@ tmp279,
 619              	.LVL23:
 620              		.loc 1 1034 10 view .LVU144
 621 0178 404D     		ldr	r5, .L64+4	@ tmp280,
 622              	@ ../Utilities/STM32F4-Discovery/stm32f4_discovery_audio_codec.c:1030:   I2C_SendData(CODEC_I2C, Re
1030:../Utilities/STM32F4-Discovery/stm32f4_discovery_audio_codec.c **** 
 623              		.loc 1 1030 3 view .LVU145
 624 017a FFF7FEFF 		bl	I2C_SendData		@
 625              	.LVL24:
1033:../Utilities/STM32F4-Discovery/stm32f4_discovery_audio_codec.c ****   while (I2C_GetFlagStatus(CODEC_I2C, I2C_FLAG_BTF) == RESET)
 626              		.loc 1 1033 3 is_stmt 1 view .LVU146
 627              	@ ../Utilities/STM32F4-Discovery/stm32f4_discovery_audio_codec.c:1033:   CODECTimeout = CODEC_FLAG_
1033:../Utilities/STM32F4-Discovery/stm32f4_discovery_audio_codec.c ****   while (I2C_GetFlagStatus(CODEC_I2C, I2C_FLAG_BTF) == RESET)
 628              		.loc 1 1033 16 is_stmt 0 view .LVU147
 629 017e 4FF48053 		mov	r3, #4096	@ tmp222,
 630 0182 2360     		str	r3, [r4]	@ tmp222, CODECTimeout
 631              		.loc 1 1034 3 is_stmt 1 view .LVU148
 632              	@ ../Utilities/STM32F4-Discovery/stm32f4_discovery_audio_codec.c:1034:   while (I2C_GetFlagStatus(C
 633              		.loc 1 1034 9 is_stmt 0 view .LVU149
 634 0184 04E0     		b	.L35		@
 635              	.L37:
 636              	@ ../Utilities/STM32F4-Discovery/stm32f4_discovery_audio_codec.c:1036:     if((CODECTimeout--) == 0
1035:../Utilities/STM32F4-Discovery/stm32f4_discovery_audio_codec.c ****   {
1036:../Utilities/STM32F4-Discovery/stm32f4_discovery_audio_codec.c ****     if((CODECTimeout--) == 0) return Codec_TIMEOUT_UserCallback();
 637              		.loc 1 1036 21 view .LVU150
 638 0186 2368     		ldr	r3, [r4]	@ CODECTimeout.33_43, CODECTimeout
 639 0188 5A1E     		subs	r2, r3, #1	@ _44, CODECTimeout.33_43,
 640 018a 2260     		str	r2, [r4]	@ _44, CODECTimeout
 641              	@ ../Utilities/STM32F4-Discovery/stm32f4_discovery_audio_codec.c:1036:     if((CODECTimeout--) == 0
 642              		.loc 1 1036 7 view .LVU151
 643 018c 002B     		cmp	r3, #0	@ CODECTimeout.33_43
 644 018e 6ED0     		beq	.L36	@
 645              	.L35:
1034:../Utilities/STM32F4-Discovery/stm32f4_discovery_audio_codec.c ****   {
 646              		.loc 1 1034 9 is_stmt 1 view .LVU152
 647              	@ ../Utilities/STM32F4-Discovery/stm32f4_discovery_audio_codec.c:1034:   while (I2C_GetFlagStatus(C
1034:../Utilities/STM32F4-Discovery/stm32f4_discovery_audio_codec.c ****   {
 648              		.loc 1 1034 10 is_stmt 0 view .LVU153
 649 0190 3146     		mov	r1, r6	@, tmp279
 650 0192 2846     		mov	r0, r5	@, tmp280
 651 0194 FFF7FEFF 		bl	I2C_GetFlagStatus		@
 652              	.LVL25:
 653              		.loc 1 1036 5 is_stmt 1 view .LVU154
 654              	@ ../Utilities/STM32F4-Discovery/stm32f4_discovery_audio_codec.c:1034:   while (I2C_GetFlagStatus(C
1034:../Utilities/STM32F4-Discovery/stm32f4_discovery_audio_codec.c ****   {
 655              		.loc 1 1034 9 is_stmt 0 view .LVU155
 656 0198 0028     		cmp	r0, #0	@ tmp307
 657 019a F4D0     		beq	.L37	@
1037:../Utilities/STM32F4-Discovery/stm32f4_discovery_audio_codec.c ****   }
ARM GAS  C:\Users\admin\AppData\Local\Temp\ccfajY9A.s 			page 32


1038:../Utilities/STM32F4-Discovery/stm32f4_discovery_audio_codec.c ****   
1039:../Utilities/STM32F4-Discovery/stm32f4_discovery_audio_codec.c ****   /*!< Send START condition a second time */  
1040:../Utilities/STM32F4-Discovery/stm32f4_discovery_audio_codec.c ****   I2C_GenerateSTART(CODEC_I2C, ENABLE);
 658              		.loc 1 1040 3 is_stmt 1 view .LVU156
 659 019c 3748     		ldr	r0, .L64+4	@,
 660              	@ ../Utilities/STM32F4-Discovery/stm32f4_discovery_audio_codec.c:1044:   while(!I2C_CheckEvent(CODE
1041:../Utilities/STM32F4-Discovery/stm32f4_discovery_audio_codec.c ****   
1042:../Utilities/STM32F4-Discovery/stm32f4_discovery_audio_codec.c ****   /*!< Test on EV5 and clear it (cleared by reading SR1 then writing to DR) */
1043:../Utilities/STM32F4-Discovery/stm32f4_discovery_audio_codec.c ****   CODECTimeout = CODEC_FLAG_TIMEOUT;
1044:../Utilities/STM32F4-Discovery/stm32f4_discovery_audio_codec.c ****   while(!I2C_CheckEvent(CODEC_I2C, I2C_EVENT_MASTER_MODE_SELECT))
 661              		.loc 1 1044 10 is_stmt 0 view .LVU157
 662 019e 394E     		ldr	r6, .L64+12	@ tmp277,
 663 01a0 364D     		ldr	r5, .L64+4	@ tmp278,
 664              	@ ../Utilities/STM32F4-Discovery/stm32f4_discovery_audio_codec.c:1040:   I2C_GenerateSTART(CODEC_I2
1040:../Utilities/STM32F4-Discovery/stm32f4_discovery_audio_codec.c ****   
 665              		.loc 1 1040 3 view .LVU158
 666 01a2 0121     		movs	r1, #1	@,
 667 01a4 FFF7FEFF 		bl	I2C_GenerateSTART		@
 668              	.LVL26:
1043:../Utilities/STM32F4-Discovery/stm32f4_discovery_audio_codec.c ****   while(!I2C_CheckEvent(CODEC_I2C, I2C_EVENT_MASTER_MODE_SELECT))
 669              		.loc 1 1043 3 is_stmt 1 view .LVU159
 670              	@ ../Utilities/STM32F4-Discovery/stm32f4_discovery_audio_codec.c:1043:   CODECTimeout = CODEC_FLAG_
1043:../Utilities/STM32F4-Discovery/stm32f4_discovery_audio_codec.c ****   while(!I2C_CheckEvent(CODEC_I2C, I2C_EVENT_MASTER_MODE_SELECT))
 671              		.loc 1 1043 16 is_stmt 0 view .LVU160
 672 01a8 4FF48053 		mov	r3, #4096	@ tmp230,
 673 01ac 2360     		str	r3, [r4]	@ tmp230, CODECTimeout
 674              		.loc 1 1044 3 is_stmt 1 view .LVU161
 675              	@ ../Utilities/STM32F4-Discovery/stm32f4_discovery_audio_codec.c:1044:   while(!I2C_CheckEvent(CODE
 676              		.loc 1 1044 8 is_stmt 0 view .LVU162
 677 01ae 04E0     		b	.L38		@
 678              	.L40:
 679              	@ ../Utilities/STM32F4-Discovery/stm32f4_discovery_audio_codec.c:1046:     if((CODECTimeout--) == 0
1045:../Utilities/STM32F4-Discovery/stm32f4_discovery_audio_codec.c ****   {
1046:../Utilities/STM32F4-Discovery/stm32f4_discovery_audio_codec.c ****     if((CODECTimeout--) == 0) return Codec_TIMEOUT_UserCallback();
 680              		.loc 1 1046 21 view .LVU163
 681 01b0 2368     		ldr	r3, [r4]	@ CODECTimeout.35_46, CODECTimeout
 682 01b2 5A1E     		subs	r2, r3, #1	@ _47, CODECTimeout.35_46,
 683 01b4 2260     		str	r2, [r4]	@ _47, CODECTimeout
 684              	@ ../Utilities/STM32F4-Discovery/stm32f4_discovery_audio_codec.c:1046:     if((CODECTimeout--) == 0
 685              		.loc 1 1046 7 view .LVU164
 686 01b6 002B     		cmp	r3, #0	@ CODECTimeout.35_46
 687 01b8 5AD0     		beq	.L39	@
 688              	.L38:
1044:../Utilities/STM32F4-Discovery/stm32f4_discovery_audio_codec.c ****   {
 689              		.loc 1 1044 8 is_stmt 1 view .LVU165
 690              	@ ../Utilities/STM32F4-Discovery/stm32f4_discovery_audio_codec.c:1044:   while(!I2C_CheckEvent(CODE
1044:../Utilities/STM32F4-Discovery/stm32f4_discovery_audio_codec.c ****   {
 691              		.loc 1 1044 10 is_stmt 0 view .LVU166
 692 01ba 3146     		mov	r1, r6	@, tmp277
 693 01bc 2846     		mov	r0, r5	@, tmp278
 694 01be FFF7FEFF 		bl	I2C_CheckEvent		@
 695              	.LVL27:
 696              		.loc 1 1046 5 is_stmt 1 view .LVU167
 697              	@ ../Utilities/STM32F4-Discovery/stm32f4_discovery_audio_codec.c:1044:   while(!I2C_CheckEvent(CODE
1044:../Utilities/STM32F4-Discovery/stm32f4_discovery_audio_codec.c ****   {
 698              		.loc 1 1044 8 is_stmt 0 view .LVU168
 699 01c2 0028     		cmp	r0, #0	@ tmp308
ARM GAS  C:\Users\admin\AppData\Local\Temp\ccfajY9A.s 			page 33


 700 01c4 F4D0     		beq	.L40	@
1047:../Utilities/STM32F4-Discovery/stm32f4_discovery_audio_codec.c ****   } 
1048:../Utilities/STM32F4-Discovery/stm32f4_discovery_audio_codec.c ****   
1049:../Utilities/STM32F4-Discovery/stm32f4_discovery_audio_codec.c ****   /*!< Send Codec address for read */
1050:../Utilities/STM32F4-Discovery/stm32f4_discovery_audio_codec.c ****   I2C_Send7bitAddress(CODEC_I2C, CODEC_ADDRESS, I2C_Direction_Receiver);  
 701              		.loc 1 1050 3 is_stmt 1 view .LVU169
 702 01c6 2D48     		ldr	r0, .L64+4	@,
 703              	@ ../Utilities/STM32F4-Discovery/stm32f4_discovery_audio_codec.c:1054:   while(I2C_GetFlagStatus(CO
1051:../Utilities/STM32F4-Discovery/stm32f4_discovery_audio_codec.c ****   
1052:../Utilities/STM32F4-Discovery/stm32f4_discovery_audio_codec.c ****   /* Wait on ADDR flag to be set (ADDR is still not cleared at this level */
1053:../Utilities/STM32F4-Discovery/stm32f4_discovery_audio_codec.c ****   CODECTimeout = CODEC_FLAG_TIMEOUT;
1054:../Utilities/STM32F4-Discovery/stm32f4_discovery_audio_codec.c ****   while(I2C_GetFlagStatus(CODEC_I2C, I2C_FLAG_ADDR) == RESET)
 704              		.loc 1 1054 9 is_stmt 0 view .LVU170
 705 01c8 2C4D     		ldr	r5, .L64+4	@ tmp242,
 706 01ca 2F4E     		ldr	r6, .L64+16	@ tmp276,
 707              	@ ../Utilities/STM32F4-Discovery/stm32f4_discovery_audio_codec.c:1050:   I2C_Send7bitAddress(CODEC_
1050:../Utilities/STM32F4-Discovery/stm32f4_discovery_audio_codec.c ****   
 708              		.loc 1 1050 3 view .LVU171
 709 01cc 0122     		movs	r2, #1	@,
 710 01ce 9421     		movs	r1, #148	@,
 711 01d0 FFF7FEFF 		bl	I2C_Send7bitAddress		@
 712              	.LVL28:
1053:../Utilities/STM32F4-Discovery/stm32f4_discovery_audio_codec.c ****   while(I2C_GetFlagStatus(CODEC_I2C, I2C_FLAG_ADDR) == RESET)
 713              		.loc 1 1053 3 is_stmt 1 view .LVU172
 714              	@ ../Utilities/STM32F4-Discovery/stm32f4_discovery_audio_codec.c:1053:   CODECTimeout = CODEC_FLAG_
1053:../Utilities/STM32F4-Discovery/stm32f4_discovery_audio_codec.c ****   while(I2C_GetFlagStatus(CODEC_I2C, I2C_FLAG_ADDR) == RESET)
 715              		.loc 1 1053 16 is_stmt 0 view .LVU173
 716 01d4 4FF48053 		mov	r3, #4096	@ tmp238,
 717 01d8 2360     		str	r3, [r4]	@ tmp238, CODECTimeout
 718              		.loc 1 1054 3 is_stmt 1 view .LVU174
 719              	@ ../Utilities/STM32F4-Discovery/stm32f4_discovery_audio_codec.c:1054:   while(I2C_GetFlagStatus(CO
 720              		.loc 1 1054 8 is_stmt 0 view .LVU175
 721 01da 04E0     		b	.L41		@
 722              	.L43:
 723              	@ ../Utilities/STM32F4-Discovery/stm32f4_discovery_audio_codec.c:1056:     if((CODECTimeout--) == 0
1055:../Utilities/STM32F4-Discovery/stm32f4_discovery_audio_codec.c ****   {
1056:../Utilities/STM32F4-Discovery/stm32f4_discovery_audio_codec.c ****     if((CODECTimeout--) == 0) return Codec_TIMEOUT_UserCallback();
 724              		.loc 1 1056 21 view .LVU176
 725 01dc 2368     		ldr	r3, [r4]	@ CODECTimeout.37_49, CODECTimeout
 726 01de 5A1E     		subs	r2, r3, #1	@ _50, CODECTimeout.37_49,
 727 01e0 2260     		str	r2, [r4]	@ _50, CODECTimeout
 728              	@ ../Utilities/STM32F4-Discovery/stm32f4_discovery_audio_codec.c:1056:     if((CODECTimeout--) == 0
 729              		.loc 1 1056 7 view .LVU177
 730 01e2 002B     		cmp	r3, #0	@ CODECTimeout.37_49
 731 01e4 45D0     		beq	.L42	@
 732              	.L41:
1054:../Utilities/STM32F4-Discovery/stm32f4_discovery_audio_codec.c ****   {
 733              		.loc 1 1054 8 is_stmt 1 view .LVU178
 734              	@ ../Utilities/STM32F4-Discovery/stm32f4_discovery_audio_codec.c:1054:   while(I2C_GetFlagStatus(CO
1054:../Utilities/STM32F4-Discovery/stm32f4_discovery_audio_codec.c ****   {
 735              		.loc 1 1054 9 is_stmt 0 view .LVU179
 736 01e6 2548     		ldr	r0, .L64+4	@,
 737 01e8 3146     		mov	r1, r6	@, tmp276
 738 01ea FFF7FEFF 		bl	I2C_GetFlagStatus		@
 739              	.LVL29:
 740              		.loc 1 1056 5 is_stmt 1 view .LVU180
 741              	@ ../Utilities/STM32F4-Discovery/stm32f4_discovery_audio_codec.c:1054:   while(I2C_GetFlagStatus(CO
ARM GAS  C:\Users\admin\AppData\Local\Temp\ccfajY9A.s 			page 34


1054:../Utilities/STM32F4-Discovery/stm32f4_discovery_audio_codec.c ****   {
 742              		.loc 1 1054 8 is_stmt 0 view .LVU181
 743 01ee 0028     		cmp	r0, #0	@ tmp309
 744 01f0 F4D0     		beq	.L43	@
1057:../Utilities/STM32F4-Discovery/stm32f4_discovery_audio_codec.c ****   }     
1058:../Utilities/STM32F4-Discovery/stm32f4_discovery_audio_codec.c ****   
1059:../Utilities/STM32F4-Discovery/stm32f4_discovery_audio_codec.c ****   /*!< Disable Acknowledgment */
1060:../Utilities/STM32F4-Discovery/stm32f4_discovery_audio_codec.c ****   I2C_AcknowledgeConfig(CODEC_I2C, DISABLE);   
 745              		.loc 1 1060 3 is_stmt 1 view .LVU182
 746 01f2 2248     		ldr	r0, .L64+4	@,
 747              	@ ../Utilities/STM32F4-Discovery/stm32f4_discovery_audio_codec.c:1070:   while(I2C_GetFlagStatus(CO
1061:../Utilities/STM32F4-Discovery/stm32f4_discovery_audio_codec.c ****   
1062:../Utilities/STM32F4-Discovery/stm32f4_discovery_audio_codec.c ****   /* Clear ADDR register by reading SR1 then SR2 register (SR1 has already been read) */
1063:../Utilities/STM32F4-Discovery/stm32f4_discovery_audio_codec.c ****   (void)CODEC_I2C->SR2;
1064:../Utilities/STM32F4-Discovery/stm32f4_discovery_audio_codec.c ****   
1065:../Utilities/STM32F4-Discovery/stm32f4_discovery_audio_codec.c ****   /*!< Send STOP Condition */
1066:../Utilities/STM32F4-Discovery/stm32f4_discovery_audio_codec.c ****   I2C_GenerateSTOP(CODEC_I2C, ENABLE);
1067:../Utilities/STM32F4-Discovery/stm32f4_discovery_audio_codec.c ****   
1068:../Utilities/STM32F4-Discovery/stm32f4_discovery_audio_codec.c ****   /* Wait for the byte to be received */
1069:../Utilities/STM32F4-Discovery/stm32f4_discovery_audio_codec.c ****   CODECTimeout = CODEC_FLAG_TIMEOUT;
1070:../Utilities/STM32F4-Discovery/stm32f4_discovery_audio_codec.c ****   while(I2C_GetFlagStatus(CODEC_I2C, I2C_FLAG_RXNE) == RESET)
 748              		.loc 1 1070 9 is_stmt 0 view .LVU183
 749 01f4 254E     		ldr	r6, .L64+20	@ tmp274,
 750              	@ ../Utilities/STM32F4-Discovery/stm32f4_discovery_audio_codec.c:1060:   I2C_AcknowledgeConfig(CODE
1060:../Utilities/STM32F4-Discovery/stm32f4_discovery_audio_codec.c ****   
 751              		.loc 1 1060 3 view .LVU184
 752 01f6 0021     		movs	r1, #0	@,
 753 01f8 FFF7FEFF 		bl	I2C_AcknowledgeConfig		@
 754              	.LVL30:
1063:../Utilities/STM32F4-Discovery/stm32f4_discovery_audio_codec.c ****   
 755              		.loc 1 1063 3 is_stmt 1 view .LVU185
 756              	@ ../Utilities/STM32F4-Discovery/stm32f4_discovery_audio_codec.c:1066:   I2C_GenerateSTOP(CODEC_I2C
1066:../Utilities/STM32F4-Discovery/stm32f4_discovery_audio_codec.c ****   
 757              		.loc 1 1066 3 is_stmt 0 view .LVU186
 758 01fc 1F48     		ldr	r0, .L64+4	@,
 759              	@ ../Utilities/STM32F4-Discovery/stm32f4_discovery_audio_codec.c:1063:   (void)CODEC_I2C->SR2;
1063:../Utilities/STM32F4-Discovery/stm32f4_discovery_audio_codec.c ****   
 760              		.loc 1 1063 3 view .LVU187
 761 01fe 2B8B     		ldrh	r3, [r5, #24]	@, MEM[(struct I2C_TypeDef *)1073763328B].SR2
1066:../Utilities/STM32F4-Discovery/stm32f4_discovery_audio_codec.c ****   
 762              		.loc 1 1066 3 is_stmt 1 view .LVU188
 763              	@ ../Utilities/STM32F4-Discovery/stm32f4_discovery_audio_codec.c:1070:   while(I2C_GetFlagStatus(CO
 764              		.loc 1 1070 9 is_stmt 0 view .LVU189
 765 0200 1E4D     		ldr	r5, .L64+4	@ tmp275,
 766              	@ ../Utilities/STM32F4-Discovery/stm32f4_discovery_audio_codec.c:1066:   I2C_GenerateSTOP(CODEC_I2C
1066:../Utilities/STM32F4-Discovery/stm32f4_discovery_audio_codec.c ****   
 767              		.loc 1 1066 3 view .LVU190
 768 0202 0121     		movs	r1, #1	@,
 769 0204 FFF7FEFF 		bl	I2C_GenerateSTOP		@
 770              	.LVL31:
1069:../Utilities/STM32F4-Discovery/stm32f4_discovery_audio_codec.c ****   while(I2C_GetFlagStatus(CODEC_I2C, I2C_FLAG_RXNE) == RESET)
 771              		.loc 1 1069 3 is_stmt 1 view .LVU191
 772              	@ ../Utilities/STM32F4-Discovery/stm32f4_discovery_audio_codec.c:1069:   CODECTimeout = CODEC_FLAG_
1069:../Utilities/STM32F4-Discovery/stm32f4_discovery_audio_codec.c ****   while(I2C_GetFlagStatus(CODEC_I2C, I2C_FLAG_RXNE) == RESET)
 773              		.loc 1 1069 16 is_stmt 0 view .LVU192
 774 0208 4FF48053 		mov	r3, #4096	@ tmp250,
 775 020c 2360     		str	r3, [r4]	@ tmp250, CODECTimeout
ARM GAS  C:\Users\admin\AppData\Local\Temp\ccfajY9A.s 			page 35


 776              		.loc 1 1070 3 is_stmt 1 view .LVU193
 777              	@ ../Utilities/STM32F4-Discovery/stm32f4_discovery_audio_codec.c:1070:   while(I2C_GetFlagStatus(CO
 778              		.loc 1 1070 8 is_stmt 0 view .LVU194
 779 020e 03E0     		b	.L44		@
 780              	.L46:
 781              	@ ../Utilities/STM32F4-Discovery/stm32f4_discovery_audio_codec.c:1072:     if((CODECTimeout--) == 0
1071:../Utilities/STM32F4-Discovery/stm32f4_discovery_audio_codec.c ****   {
1072:../Utilities/STM32F4-Discovery/stm32f4_discovery_audio_codec.c ****     if((CODECTimeout--) == 0) return Codec_TIMEOUT_UserCallback();
 782              		.loc 1 1072 21 view .LVU195
 783 0210 2368     		ldr	r3, [r4]	@ CODECTimeout.40_53, CODECTimeout
 784 0212 5A1E     		subs	r2, r3, #1	@ _54, CODECTimeout.40_53,
 785 0214 2260     		str	r2, [r4]	@ _54, CODECTimeout
 786              	@ ../Utilities/STM32F4-Discovery/stm32f4_discovery_audio_codec.c:1072:     if((CODECTimeout--) == 0
 787              		.loc 1 1072 7 view .LVU196
 788 0216 6BB3     		cbz	r3, .L45	@ CODECTimeout.40_53,
 789              	.L44:
1070:../Utilities/STM32F4-Discovery/stm32f4_discovery_audio_codec.c ****   {
 790              		.loc 1 1070 8 is_stmt 1 view .LVU197
 791              	@ ../Utilities/STM32F4-Discovery/stm32f4_discovery_audio_codec.c:1070:   while(I2C_GetFlagStatus(CO
1070:../Utilities/STM32F4-Discovery/stm32f4_discovery_audio_codec.c ****   {
 792              		.loc 1 1070 9 is_stmt 0 view .LVU198
 793 0218 3146     		mov	r1, r6	@, tmp274
 794 021a 2846     		mov	r0, r5	@, tmp275
 795 021c FFF7FEFF 		bl	I2C_GetFlagStatus		@
 796              	.LVL32:
 797              		.loc 1 1072 5 is_stmt 1 view .LVU199
 798              	@ ../Utilities/STM32F4-Discovery/stm32f4_discovery_audio_codec.c:1070:   while(I2C_GetFlagStatus(CO
1070:../Utilities/STM32F4-Discovery/stm32f4_discovery_audio_codec.c ****   {
 799              		.loc 1 1070 8 is_stmt 0 view .LVU200
 800 0220 0028     		cmp	r0, #0	@ tmp310
 801 0222 F5D0     		beq	.L46	@
1073:../Utilities/STM32F4-Discovery/stm32f4_discovery_audio_codec.c ****   }
1074:../Utilities/STM32F4-Discovery/stm32f4_discovery_audio_codec.c ****   
1075:../Utilities/STM32F4-Discovery/stm32f4_discovery_audio_codec.c ****   /*!< Read the byte received from the Codec */
1076:../Utilities/STM32F4-Discovery/stm32f4_discovery_audio_codec.c ****   result = I2C_ReceiveData(CODEC_I2C);
 802              		.loc 1 1076 3 is_stmt 1 view .LVU201
 803              	@ ../Utilities/STM32F4-Discovery/stm32f4_discovery_audio_codec.c:1076:   result = I2C_ReceiveData(C
 804              		.loc 1 1076 12 is_stmt 0 view .LVU202
 805 0224 1548     		ldr	r0, .L64+4	@,
 806 0226 FFF7FEFF 		bl	I2C_ReceiveData		@
 807              	.LVL33:
 808              	@ ../Utilities/STM32F4-Discovery/stm32f4_discovery_audio_codec.c:1079:   CODECTimeout = CODEC_FLAG_
1077:../Utilities/STM32F4-Discovery/stm32f4_discovery_audio_codec.c ****   
1078:../Utilities/STM32F4-Discovery/stm32f4_discovery_audio_codec.c ****   /* Wait to make sure that STOP flag has been cleared */
1079:../Utilities/STM32F4-Discovery/stm32f4_discovery_audio_codec.c ****   CODECTimeout = CODEC_FLAG_TIMEOUT;
 809              		.loc 1 1079 16 view .LVU203
 810 022a 4FF48053 		mov	r3, #4096	@ tmp259,
 811              	@ ../Utilities/STM32F4-Discovery/stm32f4_discovery_audio_codec.c:1080:   while(CODEC_I2C->CR1 & I2C
1080:../Utilities/STM32F4-Discovery/stm32f4_discovery_audio_codec.c ****   while(CODEC_I2C->CR1 & I2C_CR1_STOP)
 812              		.loc 1 1080 18 view .LVU204
 813 022e 134A     		ldr	r2, .L64+4	@ tmp262,
 814              	@ ../Utilities/STM32F4-Discovery/stm32f4_discovery_audio_codec.c:1079:   CODECTimeout = CODEC_FLAG_
1079:../Utilities/STM32F4-Discovery/stm32f4_discovery_audio_codec.c ****   while(CODEC_I2C->CR1 & I2C_CR1_STOP)
 815              		.loc 1 1079 16 view .LVU205
 816 0230 2360     		str	r3, [r4]	@ tmp259, CODECTimeout
 817              	@ ../Utilities/STM32F4-Discovery/stm32f4_discovery_audio_codec.c:1076:   result = I2C_ReceiveData(C
1076:../Utilities/STM32F4-Discovery/stm32f4_discovery_audio_codec.c ****   
ARM GAS  C:\Users\admin\AppData\Local\Temp\ccfajY9A.s 			page 36


 818              		.loc 1 1076 12 view .LVU206
 819 0232 0546     		mov	r5, r0	@ _56, tmp311
 820              	.LVL34:
1079:../Utilities/STM32F4-Discovery/stm32f4_discovery_audio_codec.c ****   while(CODEC_I2C->CR1 & I2C_CR1_STOP)
 821              		.loc 1 1079 3 is_stmt 1 view .LVU207
 822              		.loc 1 1080 3 view .LVU208
 823              	@ ../Utilities/STM32F4-Discovery/stm32f4_discovery_audio_codec.c:1080:   while(CODEC_I2C->CR1 & I2C
 824              		.loc 1 1080 8 is_stmt 0 view .LVU209
 825 0234 03E0     		b	.L47		@
 826              	.L49:
 827              	@ ../Utilities/STM32F4-Discovery/stm32f4_discovery_audio_codec.c:1082:     if((CODECTimeout--) == 0
1081:../Utilities/STM32F4-Discovery/stm32f4_discovery_audio_codec.c ****   {
1082:../Utilities/STM32F4-Discovery/stm32f4_discovery_audio_codec.c ****     if((CODECTimeout--) == 0) return Codec_TIMEOUT_UserCallback();
 828              		.loc 1 1082 21 view .LVU210
 829 0236 2368     		ldr	r3, [r4]	@ CODECTimeout.42_58, CODECTimeout
 830 0238 591E     		subs	r1, r3, #1	@ _59, CODECTimeout.42_58,
 831 023a 2160     		str	r1, [r4]	@ _59, CODECTimeout
 832              	@ ../Utilities/STM32F4-Discovery/stm32f4_discovery_audio_codec.c:1082:     if((CODECTimeout--) == 0
 833              		.loc 1 1082 7 view .LVU211
 834 023c DBB1     		cbz	r3, .L48	@ CODECTimeout.42_58,
 835              	.L47:
 836              		.loc 1 1082 5 is_stmt 1 view .LVU212
1080:../Utilities/STM32F4-Discovery/stm32f4_discovery_audio_codec.c ****   {
 837              		.loc 1 1080 8 view .LVU213
 838              	@ ../Utilities/STM32F4-Discovery/stm32f4_discovery_audio_codec.c:1080:   while(CODEC_I2C->CR1 & I2C
1080:../Utilities/STM32F4-Discovery/stm32f4_discovery_audio_codec.c ****   {
 839              		.loc 1 1080 18 is_stmt 0 view .LVU214
 840 023e 1388     		ldrh	r3, [r2]	@, MEM[(struct I2C_TypeDef *)1073763328B].CR1
 841              	@ ../Utilities/STM32F4-Discovery/stm32f4_discovery_audio_codec.c:1080:   while(CODEC_I2C->CR1 & I2C
1080:../Utilities/STM32F4-Discovery/stm32f4_discovery_audio_codec.c ****   {
 842              		.loc 1 1080 8 view .LVU215
 843 0240 9B05     		lsls	r3, r3, #22	@, MEM[(struct I2C_TypeDef *)1073763328B].CR1,
 844 0242 F8D4     		bmi	.L49		@,
1083:../Utilities/STM32F4-Discovery/stm32f4_discovery_audio_codec.c ****   }  
1084:../Utilities/STM32F4-Discovery/stm32f4_discovery_audio_codec.c ****   
1085:../Utilities/STM32F4-Discovery/stm32f4_discovery_audio_codec.c ****   /*!< Re-Enable Acknowledgment to be ready for another reception */
1086:../Utilities/STM32F4-Discovery/stm32f4_discovery_audio_codec.c ****   I2C_AcknowledgeConfig(CODEC_I2C, ENABLE);  
 845              		.loc 1 1086 3 is_stmt 1 view .LVU216
 846 0244 0D48     		ldr	r0, .L64+4	@,
 847 0246 0121     		movs	r1, #1	@,
 848 0248 FFF7FEFF 		bl	I2C_AcknowledgeConfig		@
 849              	.LVL35:
1087:../Utilities/STM32F4-Discovery/stm32f4_discovery_audio_codec.c ****   
1088:../Utilities/STM32F4-Discovery/stm32f4_discovery_audio_codec.c ****   /* Clear AF flag for next communication */
1089:../Utilities/STM32F4-Discovery/stm32f4_discovery_audio_codec.c ****   I2C_ClearFlag(CODEC_I2C, I2C_FLAG_AF); 
 850              		.loc 1 1089 3 view .LVU217
 851 024c 0B48     		ldr	r0, .L64+4	@,
 852 024e 1049     		ldr	r1, .L64+24	@,
 853 0250 FFF7FEFF 		bl	I2C_ClearFlag		@
 854              	.LVL36:
1090:../Utilities/STM32F4-Discovery/stm32f4_discovery_audio_codec.c ****   
1091:../Utilities/STM32F4-Discovery/stm32f4_discovery_audio_codec.c ****   /* Return the byte read from Codec */
1092:../Utilities/STM32F4-Discovery/stm32f4_discovery_audio_codec.c ****   return result;
 855              		.loc 1 1092 3 view .LVU218
 856              		.loc 1 1092 3 is_stmt 0 view .LVU219
 857              	.LBE50:
 858              	.LBE51:
ARM GAS  C:\Users\admin\AppData\Local\Temp\ccfajY9A.s 			page 37


 988:../Utilities/STM32F4-Discovery/stm32f4_discovery_audio_codec.c **** }
 859              		.loc 1 988 3 is_stmt 1 view .LVU220
 988:../Utilities/STM32F4-Discovery/stm32f4_discovery_audio_codec.c **** }
 860              		.loc 1 988 3 is_stmt 0 view .LVU221
 861              	.LBE47:
 862              	.LBE46:
 863              	@ ../Utilities/STM32F4-Discovery/stm32f4_discovery_audio_codec.c:989: }
 989:../Utilities/STM32F4-Discovery/stm32f4_discovery_audio_codec.c **** 
 864              		.loc 1 989 1 view .LVU222
 865 0254 781B     		subs	r0, r7, r5	@, RegisterValue, _56
 866 0256 18BF     		it	ne
 867 0258 0120     		movne	r0, #1	@,
 868 025a BDE8F081 		pop	{r4, r5, r6, r7, r8, pc}	@
 869              	.L12:
1093:../Utilities/STM32F4-Discovery/stm32f4_discovery_audio_codec.c **** }
1094:../Utilities/STM32F4-Discovery/stm32f4_discovery_audio_codec.c **** 
1095:../Utilities/STM32F4-Discovery/stm32f4_discovery_audio_codec.c **** /**
1096:../Utilities/STM32F4-Discovery/stm32f4_discovery_audio_codec.c ****   * @brief  Initializes the Audio Codec control interface (I2C).
1097:../Utilities/STM32F4-Discovery/stm32f4_discovery_audio_codec.c ****   * @param  None
1098:../Utilities/STM32F4-Discovery/stm32f4_discovery_audio_codec.c ****   * @retval None
1099:../Utilities/STM32F4-Discovery/stm32f4_discovery_audio_codec.c ****   */
1100:../Utilities/STM32F4-Discovery/stm32f4_discovery_audio_codec.c **** static void Codec_CtrlInterface_Init(void)
1101:../Utilities/STM32F4-Discovery/stm32f4_discovery_audio_codec.c **** {
1102:../Utilities/STM32F4-Discovery/stm32f4_discovery_audio_codec.c ****   I2C_InitTypeDef I2C_InitStructure;
1103:../Utilities/STM32F4-Discovery/stm32f4_discovery_audio_codec.c ****   
1104:../Utilities/STM32F4-Discovery/stm32f4_discovery_audio_codec.c ****   /* Enable the CODEC_I2C peripheral clock */
1105:../Utilities/STM32F4-Discovery/stm32f4_discovery_audio_codec.c ****   RCC_APB1PeriphClockCmd(CODEC_I2C_CLK, ENABLE);
1106:../Utilities/STM32F4-Discovery/stm32f4_discovery_audio_codec.c ****   
1107:../Utilities/STM32F4-Discovery/stm32f4_discovery_audio_codec.c ****   /* CODEC_I2C peripheral configuration */
1108:../Utilities/STM32F4-Discovery/stm32f4_discovery_audio_codec.c ****   I2C_DeInit(CODEC_I2C);
1109:../Utilities/STM32F4-Discovery/stm32f4_discovery_audio_codec.c ****   I2C_InitStructure.I2C_Mode = I2C_Mode_I2C;
1110:../Utilities/STM32F4-Discovery/stm32f4_discovery_audio_codec.c ****   I2C_InitStructure.I2C_DutyCycle = I2C_DutyCycle_2;
1111:../Utilities/STM32F4-Discovery/stm32f4_discovery_audio_codec.c ****   I2C_InitStructure.I2C_OwnAddress1 = 0x33;
1112:../Utilities/STM32F4-Discovery/stm32f4_discovery_audio_codec.c ****   I2C_InitStructure.I2C_Ack = I2C_Ack_Enable;
1113:../Utilities/STM32F4-Discovery/stm32f4_discovery_audio_codec.c ****   I2C_InitStructure.I2C_AcknowledgedAddress = I2C_AcknowledgedAddress_7bit;
1114:../Utilities/STM32F4-Discovery/stm32f4_discovery_audio_codec.c ****   I2C_InitStructure.I2C_ClockSpeed = I2C_SPEED;
1115:../Utilities/STM32F4-Discovery/stm32f4_discovery_audio_codec.c ****   /* Enable the I2C peripheral */
1116:../Utilities/STM32F4-Discovery/stm32f4_discovery_audio_codec.c ****   I2C_Cmd(CODEC_I2C, ENABLE);  
1117:../Utilities/STM32F4-Discovery/stm32f4_discovery_audio_codec.c ****   I2C_Init(CODEC_I2C, &I2C_InitStructure);
1118:../Utilities/STM32F4-Discovery/stm32f4_discovery_audio_codec.c **** }
1119:../Utilities/STM32F4-Discovery/stm32f4_discovery_audio_codec.c **** 
1120:../Utilities/STM32F4-Discovery/stm32f4_discovery_audio_codec.c **** /**
1121:../Utilities/STM32F4-Discovery/stm32f4_discovery_audio_codec.c ****   * @brief  Restore the Audio Codec control interface to its default state.
1122:../Utilities/STM32F4-Discovery/stm32f4_discovery_audio_codec.c ****   *         This function doesn't de-initialize the I2C because the I2C peripheral
1123:../Utilities/STM32F4-Discovery/stm32f4_discovery_audio_codec.c ****   *         may be used by other modules.
1124:../Utilities/STM32F4-Discovery/stm32f4_discovery_audio_codec.c ****   * @param  None
1125:../Utilities/STM32F4-Discovery/stm32f4_discovery_audio_codec.c ****   * @retval None
1126:../Utilities/STM32F4-Discovery/stm32f4_discovery_audio_codec.c ****   */
1127:../Utilities/STM32F4-Discovery/stm32f4_discovery_audio_codec.c **** static void Codec_CtrlInterface_DeInit(void)
1128:../Utilities/STM32F4-Discovery/stm32f4_discovery_audio_codec.c **** {
1129:../Utilities/STM32F4-Discovery/stm32f4_discovery_audio_codec.c ****   /* Disable the I2C peripheral */ /* This step is not done here because 
1130:../Utilities/STM32F4-Discovery/stm32f4_discovery_audio_codec.c ****      the I2C interface can be used by other modules */
1131:../Utilities/STM32F4-Discovery/stm32f4_discovery_audio_codec.c ****   /* I2C_DeInit(CODEC_I2C); */
1132:../Utilities/STM32F4-Discovery/stm32f4_discovery_audio_codec.c **** }
1133:../Utilities/STM32F4-Discovery/stm32f4_discovery_audio_codec.c **** 
1134:../Utilities/STM32F4-Discovery/stm32f4_discovery_audio_codec.c **** /**
1135:../Utilities/STM32F4-Discovery/stm32f4_discovery_audio_codec.c ****   * @brief  Initializes the Audio Codec audio interface (I2S)
ARM GAS  C:\Users\admin\AppData\Local\Temp\ccfajY9A.s 			page 38


1136:../Utilities/STM32F4-Discovery/stm32f4_discovery_audio_codec.c ****   * @note   This function assumes that the I2S input clock (through PLL_R in 
1137:../Utilities/STM32F4-Discovery/stm32f4_discovery_audio_codec.c ****   *         Devices RevA/Z and through dedicated PLLI2S_R in Devices RevB/Y)
1138:../Utilities/STM32F4-Discovery/stm32f4_discovery_audio_codec.c ****   *         is already configured and ready to be used.    
1139:../Utilities/STM32F4-Discovery/stm32f4_discovery_audio_codec.c ****   * @param  AudioFreq: Audio frequency to be configured for the I2S peripheral. 
1140:../Utilities/STM32F4-Discovery/stm32f4_discovery_audio_codec.c ****   * @retval None
1141:../Utilities/STM32F4-Discovery/stm32f4_discovery_audio_codec.c ****   */
1142:../Utilities/STM32F4-Discovery/stm32f4_discovery_audio_codec.c **** static void Codec_AudioInterface_Init(uint32_t AudioFreq)
1143:../Utilities/STM32F4-Discovery/stm32f4_discovery_audio_codec.c **** {
1144:../Utilities/STM32F4-Discovery/stm32f4_discovery_audio_codec.c ****   I2S_InitTypeDef I2S_InitStructure;
1145:../Utilities/STM32F4-Discovery/stm32f4_discovery_audio_codec.c ****   DAC_InitTypeDef  DAC_InitStructure;
1146:../Utilities/STM32F4-Discovery/stm32f4_discovery_audio_codec.c **** 
1147:../Utilities/STM32F4-Discovery/stm32f4_discovery_audio_codec.c ****   /* Enable the CODEC_I2S peripheral clock */
1148:../Utilities/STM32F4-Discovery/stm32f4_discovery_audio_codec.c ****   RCC_APB1PeriphClockCmd(CODEC_I2S_CLK, ENABLE);
1149:../Utilities/STM32F4-Discovery/stm32f4_discovery_audio_codec.c ****   
1150:../Utilities/STM32F4-Discovery/stm32f4_discovery_audio_codec.c ****   /* CODEC_I2S peripheral configuration */
1151:../Utilities/STM32F4-Discovery/stm32f4_discovery_audio_codec.c ****   SPI_I2S_DeInit(CODEC_I2S);
1152:../Utilities/STM32F4-Discovery/stm32f4_discovery_audio_codec.c ****   I2S_InitStructure.I2S_AudioFreq = AudioFreq;
1153:../Utilities/STM32F4-Discovery/stm32f4_discovery_audio_codec.c ****   I2S_InitStructure.I2S_Standard = I2S_STANDARD;
1154:../Utilities/STM32F4-Discovery/stm32f4_discovery_audio_codec.c ****   I2S_InitStructure.I2S_DataFormat = I2S_DataFormat_16b;
1155:../Utilities/STM32F4-Discovery/stm32f4_discovery_audio_codec.c ****   I2S_InitStructure.I2S_CPOL = I2S_CPOL_Low;
1156:../Utilities/STM32F4-Discovery/stm32f4_discovery_audio_codec.c **** #ifdef DAC_USE_I2S_DMA
1157:../Utilities/STM32F4-Discovery/stm32f4_discovery_audio_codec.c ****   if (CurrAudioInterface == AUDIO_INTERFACE_DAC)
1158:../Utilities/STM32F4-Discovery/stm32f4_discovery_audio_codec.c ****   {  
1159:../Utilities/STM32F4-Discovery/stm32f4_discovery_audio_codec.c ****     I2S_InitStructure.I2S_Mode = I2S_Mode_MasterRx;
1160:../Utilities/STM32F4-Discovery/stm32f4_discovery_audio_codec.c ****   }
1161:../Utilities/STM32F4-Discovery/stm32f4_discovery_audio_codec.c ****   else
1162:../Utilities/STM32F4-Discovery/stm32f4_discovery_audio_codec.c ****   {
1163:../Utilities/STM32F4-Discovery/stm32f4_discovery_audio_codec.c **** #else
1164:../Utilities/STM32F4-Discovery/stm32f4_discovery_audio_codec.c ****    I2S_InitStructure.I2S_Mode = I2S_Mode_MasterTx;
1165:../Utilities/STM32F4-Discovery/stm32f4_discovery_audio_codec.c **** #endif
1166:../Utilities/STM32F4-Discovery/stm32f4_discovery_audio_codec.c **** #ifdef DAC_USE_I2S_DMA
1167:../Utilities/STM32F4-Discovery/stm32f4_discovery_audio_codec.c ****   }
1168:../Utilities/STM32F4-Discovery/stm32f4_discovery_audio_codec.c **** #endif /* DAC_USE_I2S_DMA */
1169:../Utilities/STM32F4-Discovery/stm32f4_discovery_audio_codec.c **** #ifdef CODEC_MCLK_ENABLED
1170:../Utilities/STM32F4-Discovery/stm32f4_discovery_audio_codec.c ****   I2S_InitStructure.I2S_MCLKOutput = I2S_MCLKOutput_Enable;
1171:../Utilities/STM32F4-Discovery/stm32f4_discovery_audio_codec.c **** #elif defined(CODEC_MCLK_DISABLED)
1172:../Utilities/STM32F4-Discovery/stm32f4_discovery_audio_codec.c ****   I2S_InitStructure.I2S_MCLKOutput = I2S_MCLKOutput_Disable;
1173:../Utilities/STM32F4-Discovery/stm32f4_discovery_audio_codec.c **** #else
1174:../Utilities/STM32F4-Discovery/stm32f4_discovery_audio_codec.c **** #error "No selection for the MCLK output has been defined !"
1175:../Utilities/STM32F4-Discovery/stm32f4_discovery_audio_codec.c **** #endif /* CODEC_MCLK_ENABLED */
1176:../Utilities/STM32F4-Discovery/stm32f4_discovery_audio_codec.c ****   
1177:../Utilities/STM32F4-Discovery/stm32f4_discovery_audio_codec.c ****   /* Initialize the I2S peripheral with the structure above */
1178:../Utilities/STM32F4-Discovery/stm32f4_discovery_audio_codec.c ****   I2S_Init(CODEC_I2S, &I2S_InitStructure);
1179:../Utilities/STM32F4-Discovery/stm32f4_discovery_audio_codec.c **** 
1180:../Utilities/STM32F4-Discovery/stm32f4_discovery_audio_codec.c **** 
1181:../Utilities/STM32F4-Discovery/stm32f4_discovery_audio_codec.c ****   /* Configure the DAC interface */
1182:../Utilities/STM32F4-Discovery/stm32f4_discovery_audio_codec.c ****   if (CurrAudioInterface == AUDIO_INTERFACE_DAC)
1183:../Utilities/STM32F4-Discovery/stm32f4_discovery_audio_codec.c ****   {    
1184:../Utilities/STM32F4-Discovery/stm32f4_discovery_audio_codec.c ****     /* DAC Periph clock enable */
1185:../Utilities/STM32F4-Discovery/stm32f4_discovery_audio_codec.c ****     RCC_APB1PeriphClockCmd(RCC_APB1Periph_DAC, ENABLE);
1186:../Utilities/STM32F4-Discovery/stm32f4_discovery_audio_codec.c ****     
1187:../Utilities/STM32F4-Discovery/stm32f4_discovery_audio_codec.c ****     /* DAC channel1 Configuration */
1188:../Utilities/STM32F4-Discovery/stm32f4_discovery_audio_codec.c ****     DAC_InitStructure.DAC_Trigger = DAC_Trigger_None;
1189:../Utilities/STM32F4-Discovery/stm32f4_discovery_audio_codec.c ****     DAC_InitStructure.DAC_WaveGeneration = DAC_WaveGeneration_None;
1190:../Utilities/STM32F4-Discovery/stm32f4_discovery_audio_codec.c ****     DAC_InitStructure.DAC_OutputBuffer = DAC_OutputBuffer_Enable;
1191:../Utilities/STM32F4-Discovery/stm32f4_discovery_audio_codec.c ****     DAC_Init(AUDIO_DAC_CHANNEL, &DAC_InitStructure);
1192:../Utilities/STM32F4-Discovery/stm32f4_discovery_audio_codec.c ****     
ARM GAS  C:\Users\admin\AppData\Local\Temp\ccfajY9A.s 			page 39


1193:../Utilities/STM32F4-Discovery/stm32f4_discovery_audio_codec.c ****     /* Enable DAC Channel1 */
1194:../Utilities/STM32F4-Discovery/stm32f4_discovery_audio_codec.c ****     DAC_Cmd(AUDIO_DAC_CHANNEL, ENABLE);  
1195:../Utilities/STM32F4-Discovery/stm32f4_discovery_audio_codec.c ****   }
1196:../Utilities/STM32F4-Discovery/stm32f4_discovery_audio_codec.c ****   
1197:../Utilities/STM32F4-Discovery/stm32f4_discovery_audio_codec.c ****   /* The I2S peripheral will be enabled only in the EVAL_AUDIO_Play() function 
1198:../Utilities/STM32F4-Discovery/stm32f4_discovery_audio_codec.c ****        or by user functions if DMA mode not enabled */  
1199:../Utilities/STM32F4-Discovery/stm32f4_discovery_audio_codec.c **** }
1200:../Utilities/STM32F4-Discovery/stm32f4_discovery_audio_codec.c **** 
1201:../Utilities/STM32F4-Discovery/stm32f4_discovery_audio_codec.c **** /**
1202:../Utilities/STM32F4-Discovery/stm32f4_discovery_audio_codec.c ****   * @brief  Restores the Audio Codec audio interface to its default state.
1203:../Utilities/STM32F4-Discovery/stm32f4_discovery_audio_codec.c ****   * @param  None
1204:../Utilities/STM32F4-Discovery/stm32f4_discovery_audio_codec.c ****   * @retval None
1205:../Utilities/STM32F4-Discovery/stm32f4_discovery_audio_codec.c ****   */
1206:../Utilities/STM32F4-Discovery/stm32f4_discovery_audio_codec.c **** static void Codec_AudioInterface_DeInit(void)
1207:../Utilities/STM32F4-Discovery/stm32f4_discovery_audio_codec.c **** {
1208:../Utilities/STM32F4-Discovery/stm32f4_discovery_audio_codec.c ****   /* Disable the CODEC_I2S peripheral (in case it hasn't already been disabled) */
1209:../Utilities/STM32F4-Discovery/stm32f4_discovery_audio_codec.c ****   I2S_Cmd(CODEC_I2S, DISABLE);
1210:../Utilities/STM32F4-Discovery/stm32f4_discovery_audio_codec.c ****   
1211:../Utilities/STM32F4-Discovery/stm32f4_discovery_audio_codec.c ****   /* Deinitialize the CODEC_I2S peripheral */
1212:../Utilities/STM32F4-Discovery/stm32f4_discovery_audio_codec.c ****   SPI_I2S_DeInit(CODEC_I2S);
1213:../Utilities/STM32F4-Discovery/stm32f4_discovery_audio_codec.c ****   
1214:../Utilities/STM32F4-Discovery/stm32f4_discovery_audio_codec.c ****   /* Disable the CODEC_I2S peripheral clock */
1215:../Utilities/STM32F4-Discovery/stm32f4_discovery_audio_codec.c ****   RCC_APB1PeriphClockCmd(CODEC_I2S_CLK, DISABLE); 
1216:../Utilities/STM32F4-Discovery/stm32f4_discovery_audio_codec.c **** }
1217:../Utilities/STM32F4-Discovery/stm32f4_discovery_audio_codec.c **** 
1218:../Utilities/STM32F4-Discovery/stm32f4_discovery_audio_codec.c **** /**
1219:../Utilities/STM32F4-Discovery/stm32f4_discovery_audio_codec.c ****   * @brief Initializes IOs used by the Audio Codec (on the control and audio 
1220:../Utilities/STM32F4-Discovery/stm32f4_discovery_audio_codec.c ****   *        interfaces).
1221:../Utilities/STM32F4-Discovery/stm32f4_discovery_audio_codec.c ****   * @param  None
1222:../Utilities/STM32F4-Discovery/stm32f4_discovery_audio_codec.c ****   * @retval None
1223:../Utilities/STM32F4-Discovery/stm32f4_discovery_audio_codec.c ****   */
1224:../Utilities/STM32F4-Discovery/stm32f4_discovery_audio_codec.c **** static void Codec_GPIO_Init(void)
1225:../Utilities/STM32F4-Discovery/stm32f4_discovery_audio_codec.c **** {
1226:../Utilities/STM32F4-Discovery/stm32f4_discovery_audio_codec.c ****   GPIO_InitTypeDef GPIO_InitStructure;
1227:../Utilities/STM32F4-Discovery/stm32f4_discovery_audio_codec.c ****   
1228:../Utilities/STM32F4-Discovery/stm32f4_discovery_audio_codec.c ****   /* Enable Reset GPIO Clock */
1229:../Utilities/STM32F4-Discovery/stm32f4_discovery_audio_codec.c ****   RCC_AHB1PeriphClockCmd(AUDIO_RESET_GPIO_CLK,ENABLE);
1230:../Utilities/STM32F4-Discovery/stm32f4_discovery_audio_codec.c ****   
1231:../Utilities/STM32F4-Discovery/stm32f4_discovery_audio_codec.c ****   /* Audio reset pin configuration -------------------------------------------------*/
1232:../Utilities/STM32F4-Discovery/stm32f4_discovery_audio_codec.c ****   GPIO_InitStructure.GPIO_Pin = AUDIO_RESET_PIN; 
1233:../Utilities/STM32F4-Discovery/stm32f4_discovery_audio_codec.c ****   GPIO_InitStructure.GPIO_Mode = GPIO_Mode_OUT;
1234:../Utilities/STM32F4-Discovery/stm32f4_discovery_audio_codec.c ****   //GPIO_InitStructure.GPIO_Speed = GPIO_Speed_50MHz;
1235:../Utilities/STM32F4-Discovery/stm32f4_discovery_audio_codec.c ****   GPIO_InitStructure.GPIO_Speed = GPIO_Speed_25MHz;
1236:../Utilities/STM32F4-Discovery/stm32f4_discovery_audio_codec.c ****   GPIO_InitStructure.GPIO_OType = GPIO_OType_PP;
1237:../Utilities/STM32F4-Discovery/stm32f4_discovery_audio_codec.c ****   GPIO_InitStructure.GPIO_PuPd  = GPIO_PuPd_NOPULL;
1238:../Utilities/STM32F4-Discovery/stm32f4_discovery_audio_codec.c ****   GPIO_Init(AUDIO_RESET_GPIO, &GPIO_InitStructure);    
1239:../Utilities/STM32F4-Discovery/stm32f4_discovery_audio_codec.c ****   
1240:../Utilities/STM32F4-Discovery/stm32f4_discovery_audio_codec.c ****   /* Enable I2S and I2C GPIO clocks */
1241:../Utilities/STM32F4-Discovery/stm32f4_discovery_audio_codec.c ****   RCC_AHB1PeriphClockCmd(CODEC_I2C_GPIO_CLOCK | CODEC_I2S_GPIO_CLOCK, ENABLE);
1242:../Utilities/STM32F4-Discovery/stm32f4_discovery_audio_codec.c **** 
1243:../Utilities/STM32F4-Discovery/stm32f4_discovery_audio_codec.c ****   /* CODEC_I2C SCL and SDA pins configuration -------------------------------------*/
1244:../Utilities/STM32F4-Discovery/stm32f4_discovery_audio_codec.c ****   GPIO_InitStructure.GPIO_Pin = CODEC_I2C_SCL_PIN | CODEC_I2C_SDA_PIN; 
1245:../Utilities/STM32F4-Discovery/stm32f4_discovery_audio_codec.c ****   GPIO_InitStructure.GPIO_Mode = GPIO_Mode_AF;
1246:../Utilities/STM32F4-Discovery/stm32f4_discovery_audio_codec.c ****   GPIO_InitStructure.GPIO_Speed = GPIO_Speed_50MHz;
1247:../Utilities/STM32F4-Discovery/stm32f4_discovery_audio_codec.c ****   GPIO_InitStructure.GPIO_OType = GPIO_OType_OD;
1248:../Utilities/STM32F4-Discovery/stm32f4_discovery_audio_codec.c ****   GPIO_InitStructure.GPIO_PuPd  = GPIO_PuPd_NOPULL;
1249:../Utilities/STM32F4-Discovery/stm32f4_discovery_audio_codec.c ****   GPIO_Init(CODEC_I2C_GPIO, &GPIO_InitStructure);     
ARM GAS  C:\Users\admin\AppData\Local\Temp\ccfajY9A.s 			page 40


1250:../Utilities/STM32F4-Discovery/stm32f4_discovery_audio_codec.c ****   /* Connect pins to I2C peripheral */
1251:../Utilities/STM32F4-Discovery/stm32f4_discovery_audio_codec.c ****   GPIO_PinAFConfig(CODEC_I2C_GPIO, CODEC_I2S_SCL_PINSRC, CODEC_I2C_GPIO_AF);  
1252:../Utilities/STM32F4-Discovery/stm32f4_discovery_audio_codec.c ****   GPIO_PinAFConfig(CODEC_I2C_GPIO, CODEC_I2S_SDA_PINSRC, CODEC_I2C_GPIO_AF);  
1253:../Utilities/STM32F4-Discovery/stm32f4_discovery_audio_codec.c **** 
1254:../Utilities/STM32F4-Discovery/stm32f4_discovery_audio_codec.c ****   /* CODEC_I2S pins configuration: WS, SCK and SD pins -----------------------------*/
1255:../Utilities/STM32F4-Discovery/stm32f4_discovery_audio_codec.c ****   GPIO_InitStructure.GPIO_Pin = CODEC_I2S_SCK_PIN | CODEC_I2S_SD_PIN; 
1256:../Utilities/STM32F4-Discovery/stm32f4_discovery_audio_codec.c ****   GPIO_InitStructure.GPIO_Mode = GPIO_Mode_AF;
1257:../Utilities/STM32F4-Discovery/stm32f4_discovery_audio_codec.c ****   GPIO_InitStructure.GPIO_Speed = GPIO_Speed_50MHz;
1258:../Utilities/STM32F4-Discovery/stm32f4_discovery_audio_codec.c ****   GPIO_InitStructure.GPIO_OType = GPIO_OType_PP;
1259:../Utilities/STM32F4-Discovery/stm32f4_discovery_audio_codec.c ****   GPIO_InitStructure.GPIO_PuPd = GPIO_PuPd_NOPULL;
1260:../Utilities/STM32F4-Discovery/stm32f4_discovery_audio_codec.c ****   GPIO_Init(CODEC_I2S_GPIO, &GPIO_InitStructure);
1261:../Utilities/STM32F4-Discovery/stm32f4_discovery_audio_codec.c ****   
1262:../Utilities/STM32F4-Discovery/stm32f4_discovery_audio_codec.c ****   /* Connect pins to I2S peripheral  */
1263:../Utilities/STM32F4-Discovery/stm32f4_discovery_audio_codec.c ****   GPIO_PinAFConfig(CODEC_I2S_WS_GPIO, CODEC_I2S_WS_PINSRC, CODEC_I2S_GPIO_AF);  
1264:../Utilities/STM32F4-Discovery/stm32f4_discovery_audio_codec.c ****   GPIO_PinAFConfig(CODEC_I2S_GPIO, CODEC_I2S_SCK_PINSRC, CODEC_I2S_GPIO_AF);
1265:../Utilities/STM32F4-Discovery/stm32f4_discovery_audio_codec.c **** 
1266:../Utilities/STM32F4-Discovery/stm32f4_discovery_audio_codec.c ****   if (CurrAudioInterface != AUDIO_INTERFACE_DAC) 
1267:../Utilities/STM32F4-Discovery/stm32f4_discovery_audio_codec.c ****   {
1268:../Utilities/STM32F4-Discovery/stm32f4_discovery_audio_codec.c ****     GPIO_InitStructure.GPIO_Pin = CODEC_I2S_WS_PIN ;
1269:../Utilities/STM32F4-Discovery/stm32f4_discovery_audio_codec.c ****     GPIO_Init(CODEC_I2S_WS_GPIO, &GPIO_InitStructure); 
1270:../Utilities/STM32F4-Discovery/stm32f4_discovery_audio_codec.c ****     GPIO_PinAFConfig(CODEC_I2S_GPIO, CODEC_I2S_SD_PINSRC, CODEC_I2S_GPIO_AF);
1271:../Utilities/STM32F4-Discovery/stm32f4_discovery_audio_codec.c ****   }
1272:../Utilities/STM32F4-Discovery/stm32f4_discovery_audio_codec.c ****   else
1273:../Utilities/STM32F4-Discovery/stm32f4_discovery_audio_codec.c ****   {
1274:../Utilities/STM32F4-Discovery/stm32f4_discovery_audio_codec.c ****     /* GPIOA clock enable (to be used with DAC) */
1275:../Utilities/STM32F4-Discovery/stm32f4_discovery_audio_codec.c ****     RCC_AHB1PeriphClockCmd(RCC_AHB1Periph_GPIOA, ENABLE);
1276:../Utilities/STM32F4-Discovery/stm32f4_discovery_audio_codec.c ****    
1277:../Utilities/STM32F4-Discovery/stm32f4_discovery_audio_codec.c ****     /* DAC channel 1 & 2 (DAC_OUT1 = PA.4) configuration */
1278:../Utilities/STM32F4-Discovery/stm32f4_discovery_audio_codec.c ****     GPIO_InitStructure.GPIO_Pin = GPIO_Pin_4;
1279:../Utilities/STM32F4-Discovery/stm32f4_discovery_audio_codec.c ****     GPIO_InitStructure.GPIO_Mode = GPIO_Mode_AN;
1280:../Utilities/STM32F4-Discovery/stm32f4_discovery_audio_codec.c ****     GPIO_InitStructure.GPIO_PuPd = GPIO_PuPd_NOPULL;
1281:../Utilities/STM32F4-Discovery/stm32f4_discovery_audio_codec.c ****     GPIO_Init(GPIOA, &GPIO_InitStructure);
1282:../Utilities/STM32F4-Discovery/stm32f4_discovery_audio_codec.c ****   }
1283:../Utilities/STM32F4-Discovery/stm32f4_discovery_audio_codec.c **** 
1284:../Utilities/STM32F4-Discovery/stm32f4_discovery_audio_codec.c **** #ifdef CODEC_MCLK_ENABLED
1285:../Utilities/STM32F4-Discovery/stm32f4_discovery_audio_codec.c ****   /* CODEC_I2S pins configuration: MCK pin */
1286:../Utilities/STM32F4-Discovery/stm32f4_discovery_audio_codec.c ****   GPIO_InitStructure.GPIO_Pin = CODEC_I2S_MCK_PIN; 
1287:../Utilities/STM32F4-Discovery/stm32f4_discovery_audio_codec.c ****   GPIO_InitStructure.GPIO_Mode = GPIO_Mode_AF;
1288:../Utilities/STM32F4-Discovery/stm32f4_discovery_audio_codec.c ****   GPIO_InitStructure.GPIO_Speed = GPIO_Speed_50MHz;
1289:../Utilities/STM32F4-Discovery/stm32f4_discovery_audio_codec.c ****   GPIO_InitStructure.GPIO_OType = GPIO_OType_PP;
1290:../Utilities/STM32F4-Discovery/stm32f4_discovery_audio_codec.c ****   GPIO_InitStructure.GPIO_PuPd = GPIO_PuPd_NOPULL;
1291:../Utilities/STM32F4-Discovery/stm32f4_discovery_audio_codec.c ****   GPIO_Init(CODEC_I2S_MCK_GPIO, &GPIO_InitStructure);   
1292:../Utilities/STM32F4-Discovery/stm32f4_discovery_audio_codec.c ****   /* Connect pins to I2S peripheral  */
1293:../Utilities/STM32F4-Discovery/stm32f4_discovery_audio_codec.c ****   GPIO_PinAFConfig(CODEC_I2S_MCK_GPIO, CODEC_I2S_MCK_PINSRC, CODEC_I2S_GPIO_AF); 
1294:../Utilities/STM32F4-Discovery/stm32f4_discovery_audio_codec.c **** #endif /* CODEC_MCLK_ENABLED */ 
1295:../Utilities/STM32F4-Discovery/stm32f4_discovery_audio_codec.c **** }
1296:../Utilities/STM32F4-Discovery/stm32f4_discovery_audio_codec.c **** 
1297:../Utilities/STM32F4-Discovery/stm32f4_discovery_audio_codec.c **** /**
1298:../Utilities/STM32F4-Discovery/stm32f4_discovery_audio_codec.c ****   * @brief  Restores the IOs used by the Audio Codec interface to their default state.
1299:../Utilities/STM32F4-Discovery/stm32f4_discovery_audio_codec.c ****   * @param  None
1300:../Utilities/STM32F4-Discovery/stm32f4_discovery_audio_codec.c ****   * @retval None
1301:../Utilities/STM32F4-Discovery/stm32f4_discovery_audio_codec.c ****   */
1302:../Utilities/STM32F4-Discovery/stm32f4_discovery_audio_codec.c **** static void Codec_GPIO_DeInit(void)
1303:../Utilities/STM32F4-Discovery/stm32f4_discovery_audio_codec.c **** {
1304:../Utilities/STM32F4-Discovery/stm32f4_discovery_audio_codec.c ****   GPIO_InitTypeDef GPIO_InitStructure;
1305:../Utilities/STM32F4-Discovery/stm32f4_discovery_audio_codec.c ****   
1306:../Utilities/STM32F4-Discovery/stm32f4_discovery_audio_codec.c ****   /* Deinitialize all the GPIOs used by the driver */
ARM GAS  C:\Users\admin\AppData\Local\Temp\ccfajY9A.s 			page 41


1307:../Utilities/STM32F4-Discovery/stm32f4_discovery_audio_codec.c ****   GPIO_InitStructure.GPIO_Pin =  CODEC_I2S_SCK_PIN | CODEC_I2S_SD_PIN;
1308:../Utilities/STM32F4-Discovery/stm32f4_discovery_audio_codec.c ****   GPIO_InitStructure.GPIO_Mode = GPIO_Mode_IN;
1309:../Utilities/STM32F4-Discovery/stm32f4_discovery_audio_codec.c ****   GPIO_InitStructure.GPIO_Speed = GPIO_Speed_2MHz;
1310:../Utilities/STM32F4-Discovery/stm32f4_discovery_audio_codec.c ****   GPIO_InitStructure.GPIO_OType = GPIO_OType_PP;
1311:../Utilities/STM32F4-Discovery/stm32f4_discovery_audio_codec.c ****   GPIO_InitStructure.GPIO_PuPd  = GPIO_PuPd_NOPULL;
1312:../Utilities/STM32F4-Discovery/stm32f4_discovery_audio_codec.c ****   GPIO_Init(CODEC_I2S_GPIO, &GPIO_InitStructure);  
1313:../Utilities/STM32F4-Discovery/stm32f4_discovery_audio_codec.c ****   
1314:../Utilities/STM32F4-Discovery/stm32f4_discovery_audio_codec.c ****   GPIO_InitStructure.GPIO_Pin = CODEC_I2S_WS_PIN ;
1315:../Utilities/STM32F4-Discovery/stm32f4_discovery_audio_codec.c ****   GPIO_Init(CODEC_I2S_WS_GPIO, &GPIO_InitStructure); 
1316:../Utilities/STM32F4-Discovery/stm32f4_discovery_audio_codec.c ****      
1317:../Utilities/STM32F4-Discovery/stm32f4_discovery_audio_codec.c ****   /* Disconnect pins from I2S peripheral  */
1318:../Utilities/STM32F4-Discovery/stm32f4_discovery_audio_codec.c ****   GPIO_PinAFConfig(CODEC_I2S_WS_GPIO, CODEC_I2S_WS_PINSRC, 0x00);  
1319:../Utilities/STM32F4-Discovery/stm32f4_discovery_audio_codec.c ****   GPIO_PinAFConfig(CODEC_I2S_GPIO, CODEC_I2S_SCK_PINSRC, 0x00);
1320:../Utilities/STM32F4-Discovery/stm32f4_discovery_audio_codec.c ****   GPIO_PinAFConfig(CODEC_I2S_GPIO, CODEC_I2S_SD_PINSRC, 0x00);  
1321:../Utilities/STM32F4-Discovery/stm32f4_discovery_audio_codec.c ****   
1322:../Utilities/STM32F4-Discovery/stm32f4_discovery_audio_codec.c **** #ifdef CODEC_MCLK_ENABLED
1323:../Utilities/STM32F4-Discovery/stm32f4_discovery_audio_codec.c ****   /* CODEC_I2S pins deinitialization: MCK pin */
1324:../Utilities/STM32F4-Discovery/stm32f4_discovery_audio_codec.c ****   GPIO_InitStructure.GPIO_Pin = CODEC_I2S_MCK_PIN; 
1325:../Utilities/STM32F4-Discovery/stm32f4_discovery_audio_codec.c ****   GPIO_Init(CODEC_I2S_MCK_GPIO, &GPIO_InitStructure);   
1326:../Utilities/STM32F4-Discovery/stm32f4_discovery_audio_codec.c ****   /* Disconnect pins from I2S peripheral  */
1327:../Utilities/STM32F4-Discovery/stm32f4_discovery_audio_codec.c ****   GPIO_PinAFConfig(CODEC_I2S_MCK_GPIO, CODEC_I2S_MCK_PINSRC, CODEC_I2S_GPIO_AF); 
1328:../Utilities/STM32F4-Discovery/stm32f4_discovery_audio_codec.c **** #endif /* CODEC_MCLK_ENABLED */    
1329:../Utilities/STM32F4-Discovery/stm32f4_discovery_audio_codec.c **** }
1330:../Utilities/STM32F4-Discovery/stm32f4_discovery_audio_codec.c **** 
1331:../Utilities/STM32F4-Discovery/stm32f4_discovery_audio_codec.c **** /**
1332:../Utilities/STM32F4-Discovery/stm32f4_discovery_audio_codec.c ****   * @brief  Inserts a delay time (not accurate timing).
1333:../Utilities/STM32F4-Discovery/stm32f4_discovery_audio_codec.c ****   * @param  nCount: specifies the delay time length.
1334:../Utilities/STM32F4-Discovery/stm32f4_discovery_audio_codec.c ****   * @retval None
1335:../Utilities/STM32F4-Discovery/stm32f4_discovery_audio_codec.c ****   */
1336:../Utilities/STM32F4-Discovery/stm32f4_discovery_audio_codec.c **** static void Delay( __IO uint32_t nCount)
1337:../Utilities/STM32F4-Discovery/stm32f4_discovery_audio_codec.c **** {
1338:../Utilities/STM32F4-Discovery/stm32f4_discovery_audio_codec.c ****   for (; nCount != 0; nCount--);
1339:../Utilities/STM32F4-Discovery/stm32f4_discovery_audio_codec.c **** }
1340:../Utilities/STM32F4-Discovery/stm32f4_discovery_audio_codec.c **** 
1341:../Utilities/STM32F4-Discovery/stm32f4_discovery_audio_codec.c **** #ifdef USE_DEFAULT_TIMEOUT_CALLBACK
1342:../Utilities/STM32F4-Discovery/stm32f4_discovery_audio_codec.c **** /**
1343:../Utilities/STM32F4-Discovery/stm32f4_discovery_audio_codec.c ****   * @brief  Basic management of the timeout situation.
1344:../Utilities/STM32F4-Discovery/stm32f4_discovery_audio_codec.c ****   * @param  None
1345:../Utilities/STM32F4-Discovery/stm32f4_discovery_audio_codec.c ****   * @retval None
1346:../Utilities/STM32F4-Discovery/stm32f4_discovery_audio_codec.c ****   */
1347:../Utilities/STM32F4-Discovery/stm32f4_discovery_audio_codec.c **** uint32_t Codec_TIMEOUT_UserCallback(void)
1348:../Utilities/STM32F4-Discovery/stm32f4_discovery_audio_codec.c **** {
1349:../Utilities/STM32F4-Discovery/stm32f4_discovery_audio_codec.c ****   /* Block communication and all processes */
1350:../Utilities/STM32F4-Discovery/stm32f4_discovery_audio_codec.c ****   while (1)
 870              		.loc 1 1350 3 is_stmt 1 view .LVU223
1351:../Utilities/STM32F4-Discovery/stm32f4_discovery_audio_codec.c ****   {   
1352:../Utilities/STM32F4-Discovery/stm32f4_discovery_audio_codec.c ****   }
 871              		.loc 1 1352 3 view .LVU224
1350:../Utilities/STM32F4-Discovery/stm32f4_discovery_audio_codec.c ****   {   
 872              		.loc 1 1350 9 view .LVU225
1350:../Utilities/STM32F4-Discovery/stm32f4_discovery_audio_codec.c ****   {   
 873              		.loc 1 1350 3 view .LVU226
 874              		.loc 1 1352 3 view .LVU227
1350:../Utilities/STM32F4-Discovery/stm32f4_discovery_audio_codec.c ****   {   
 875              		.loc 1 1350 9 view .LVU228
 876 025e FEE7     		b	.L12		@
 877              	.L15:
ARM GAS  C:\Users\admin\AppData\Local\Temp\ccfajY9A.s 			page 42


1350:../Utilities/STM32F4-Discovery/stm32f4_discovery_audio_codec.c ****   {   
 878              		.loc 1 1350 3 view .LVU229
 879              		.loc 1 1352 3 view .LVU230
1350:../Utilities/STM32F4-Discovery/stm32f4_discovery_audio_codec.c ****   {   
 880              		.loc 1 1350 9 view .LVU231
1350:../Utilities/STM32F4-Discovery/stm32f4_discovery_audio_codec.c ****   {   
 881              		.loc 1 1350 3 view .LVU232
 882              		.loc 1 1352 3 view .LVU233
1350:../Utilities/STM32F4-Discovery/stm32f4_discovery_audio_codec.c ****   {   
 883              		.loc 1 1350 9 view .LVU234
 884 0260 FEE7     		b	.L15		@
 885              	.LVL37:
 886              	.L18:
1350:../Utilities/STM32F4-Discovery/stm32f4_discovery_audio_codec.c ****   {   
 887              		.loc 1 1350 3 view .LVU235
 888              		.loc 1 1352 3 view .LVU236
1350:../Utilities/STM32F4-Discovery/stm32f4_discovery_audio_codec.c ****   {   
 889              		.loc 1 1350 9 view .LVU237
1350:../Utilities/STM32F4-Discovery/stm32f4_discovery_audio_codec.c ****   {   
 890              		.loc 1 1350 3 view .LVU238
 891              		.loc 1 1352 3 view .LVU239
1350:../Utilities/STM32F4-Discovery/stm32f4_discovery_audio_codec.c ****   {   
 892              		.loc 1 1350 9 view .LVU240
 893 0262 FEE7     		b	.L18		@
 894              	.L21:
1350:../Utilities/STM32F4-Discovery/stm32f4_discovery_audio_codec.c ****   {   
 895              		.loc 1 1350 3 view .LVU241
 896              		.loc 1 1352 3 view .LVU242
1350:../Utilities/STM32F4-Discovery/stm32f4_discovery_audio_codec.c ****   {   
 897              		.loc 1 1350 9 view .LVU243
1350:../Utilities/STM32F4-Discovery/stm32f4_discovery_audio_codec.c ****   {   
 898              		.loc 1 1350 3 view .LVU244
 899              		.loc 1 1352 3 view .LVU245
1350:../Utilities/STM32F4-Discovery/stm32f4_discovery_audio_codec.c ****   {   
 900              		.loc 1 1350 9 view .LVU246
 901 0264 FEE7     		b	.L21		@
 902              	.L24:
1350:../Utilities/STM32F4-Discovery/stm32f4_discovery_audio_codec.c ****   {   
 903              		.loc 1 1350 3 view .LVU247
 904              		.loc 1 1352 3 view .LVU248
1350:../Utilities/STM32F4-Discovery/stm32f4_discovery_audio_codec.c ****   {   
 905              		.loc 1 1350 9 view .LVU249
1350:../Utilities/STM32F4-Discovery/stm32f4_discovery_audio_codec.c ****   {   
 906              		.loc 1 1350 3 view .LVU250
 907              		.loc 1 1352 3 view .LVU251
1350:../Utilities/STM32F4-Discovery/stm32f4_discovery_audio_codec.c ****   {   
 908              		.loc 1 1350 9 view .LVU252
 909 0266 FEE7     		b	.L24		@
 910              	.LVL38:
 911              	.L27:
1350:../Utilities/STM32F4-Discovery/stm32f4_discovery_audio_codec.c ****   {   
 912              		.loc 1 1350 3 view .LVU253
 913              		.loc 1 1352 3 view .LVU254
1350:../Utilities/STM32F4-Discovery/stm32f4_discovery_audio_codec.c ****   {   
 914              		.loc 1 1350 9 view .LVU255
1350:../Utilities/STM32F4-Discovery/stm32f4_discovery_audio_codec.c ****   {   
 915              		.loc 1 1350 3 view .LVU256
ARM GAS  C:\Users\admin\AppData\Local\Temp\ccfajY9A.s 			page 43


 916              		.loc 1 1352 3 view .LVU257
1350:../Utilities/STM32F4-Discovery/stm32f4_discovery_audio_codec.c ****   {   
 917              		.loc 1 1350 9 view .LVU258
 918 0268 FEE7     		b	.L27		@
 919              	.L30:
1350:../Utilities/STM32F4-Discovery/stm32f4_discovery_audio_codec.c ****   {   
 920              		.loc 1 1350 3 view .LVU259
 921              		.loc 1 1352 3 view .LVU260
1350:../Utilities/STM32F4-Discovery/stm32f4_discovery_audio_codec.c ****   {   
 922              		.loc 1 1350 9 view .LVU261
1350:../Utilities/STM32F4-Discovery/stm32f4_discovery_audio_codec.c ****   {   
 923              		.loc 1 1350 3 view .LVU262
 924              		.loc 1 1352 3 view .LVU263
1350:../Utilities/STM32F4-Discovery/stm32f4_discovery_audio_codec.c ****   {   
 925              		.loc 1 1350 9 view .LVU264
 926 026a FEE7     		b	.L30		@
 927              	.L33:
1350:../Utilities/STM32F4-Discovery/stm32f4_discovery_audio_codec.c ****   {   
 928              		.loc 1 1350 3 view .LVU265
 929              		.loc 1 1352 3 view .LVU266
1350:../Utilities/STM32F4-Discovery/stm32f4_discovery_audio_codec.c ****   {   
 930              		.loc 1 1350 9 view .LVU267
1350:../Utilities/STM32F4-Discovery/stm32f4_discovery_audio_codec.c ****   {   
 931              		.loc 1 1350 3 view .LVU268
 932              		.loc 1 1352 3 view .LVU269
1350:../Utilities/STM32F4-Discovery/stm32f4_discovery_audio_codec.c ****   {   
 933              		.loc 1 1350 9 view .LVU270
 934 026c FEE7     		b	.L33		@
 935              	.LVL39:
 936              	.L36:
1350:../Utilities/STM32F4-Discovery/stm32f4_discovery_audio_codec.c ****   {   
 937              		.loc 1 1350 3 view .LVU271
 938              		.loc 1 1352 3 view .LVU272
1350:../Utilities/STM32F4-Discovery/stm32f4_discovery_audio_codec.c ****   {   
 939              		.loc 1 1350 9 view .LVU273
1350:../Utilities/STM32F4-Discovery/stm32f4_discovery_audio_codec.c ****   {   
 940              		.loc 1 1350 3 view .LVU274
 941              		.loc 1 1352 3 view .LVU275
1350:../Utilities/STM32F4-Discovery/stm32f4_discovery_audio_codec.c ****   {   
 942              		.loc 1 1350 9 view .LVU276
 943 026e FEE7     		b	.L36		@
 944              	.L39:
1350:../Utilities/STM32F4-Discovery/stm32f4_discovery_audio_codec.c ****   {   
 945              		.loc 1 1350 3 view .LVU277
 946              		.loc 1 1352 3 view .LVU278
1350:../Utilities/STM32F4-Discovery/stm32f4_discovery_audio_codec.c ****   {   
 947              		.loc 1 1350 9 view .LVU279
1350:../Utilities/STM32F4-Discovery/stm32f4_discovery_audio_codec.c ****   {   
 948              		.loc 1 1350 3 view .LVU280
 949              		.loc 1 1352 3 view .LVU281
1350:../Utilities/STM32F4-Discovery/stm32f4_discovery_audio_codec.c ****   {   
 950              		.loc 1 1350 9 view .LVU282
 951 0270 FEE7     		b	.L39		@
 952              	.L42:
1350:../Utilities/STM32F4-Discovery/stm32f4_discovery_audio_codec.c ****   {   
 953              		.loc 1 1350 3 view .LVU283
 954              		.loc 1 1352 3 view .LVU284
ARM GAS  C:\Users\admin\AppData\Local\Temp\ccfajY9A.s 			page 44


1350:../Utilities/STM32F4-Discovery/stm32f4_discovery_audio_codec.c ****   {   
 955              		.loc 1 1350 9 view .LVU285
1350:../Utilities/STM32F4-Discovery/stm32f4_discovery_audio_codec.c ****   {   
 956              		.loc 1 1350 3 view .LVU286
 957              		.loc 1 1352 3 view .LVU287
1350:../Utilities/STM32F4-Discovery/stm32f4_discovery_audio_codec.c ****   {   
 958              		.loc 1 1350 9 view .LVU288
 959 0272 FEE7     		b	.L42		@
 960              	.L45:
1350:../Utilities/STM32F4-Discovery/stm32f4_discovery_audio_codec.c ****   {   
 961              		.loc 1 1350 3 view .LVU289
 962              		.loc 1 1352 3 view .LVU290
1350:../Utilities/STM32F4-Discovery/stm32f4_discovery_audio_codec.c ****   {   
 963              		.loc 1 1350 9 view .LVU291
1350:../Utilities/STM32F4-Discovery/stm32f4_discovery_audio_codec.c ****   {   
 964              		.loc 1 1350 3 view .LVU292
 965              		.loc 1 1352 3 view .LVU293
1350:../Utilities/STM32F4-Discovery/stm32f4_discovery_audio_codec.c ****   {   
 966              		.loc 1 1350 9 view .LVU294
 967 0274 FEE7     		b	.L45		@
 968              	.LVL40:
 969              	.L48:
1350:../Utilities/STM32F4-Discovery/stm32f4_discovery_audio_codec.c ****   {   
 970              		.loc 1 1350 3 view .LVU295
 971              		.loc 1 1352 3 view .LVU296
1350:../Utilities/STM32F4-Discovery/stm32f4_discovery_audio_codec.c ****   {   
 972              		.loc 1 1350 9 view .LVU297
1350:../Utilities/STM32F4-Discovery/stm32f4_discovery_audio_codec.c ****   {   
 973              		.loc 1 1350 3 view .LVU298
 974              		.loc 1 1352 3 view .LVU299
1350:../Utilities/STM32F4-Discovery/stm32f4_discovery_audio_codec.c ****   {   
 975              		.loc 1 1350 9 view .LVU300
 976 0276 FEE7     		b	.L48		@
 977              	.L65:
 978              		.align	2
 979              	.L64:
 980 0278 00000000 		.word	.LANCHOR5
 981 027c 00540040 		.word	1073763328
 982 0280 04000010 		.word	268435460
 983 0284 01000300 		.word	196609
 984 0288 02000010 		.word	268435458
 985 028c 40000010 		.word	268435520
 986 0290 00040010 		.word	268436480
 987 0294 82000700 		.word	458882
 988 0298 80000700 		.word	458880
 989              		.cfi_endproc
 990              	.LFE130:
 991              		.size	Codec_WriteRegister, .-Codec_WriteRegister
 992              		.section	.text.EVAL_AUDIO_SetAudioInterface,"ax",%progbits
 993              		.align	1
 994              		.p2align 2,,3
 995              		.global	EVAL_AUDIO_SetAudioInterface
 996              		.syntax unified
 997              		.thumb
 998              		.thumb_func
 999              		.type	EVAL_AUDIO_SetAudioInterface, %function
 1000              	EVAL_AUDIO_SetAudioInterface:
ARM GAS  C:\Users\admin\AppData\Local\Temp\ccfajY9A.s 			page 45


 1001              	.LVL41:
 1002              	.LFB110:
 307:../Utilities/STM32F4-Discovery/stm32f4_discovery_audio_codec.c ****   CurrAudioInterface = Interface;
 1003              		.loc 1 307 1 view -0
 1004              		.cfi_startproc
 1005              		@ args = 0, pretend = 0, frame = 0
 1006              		@ frame_needed = 0, uses_anonymous_args = 0
 1007              		@ link register save eliminated.
 308:../Utilities/STM32F4-Discovery/stm32f4_discovery_audio_codec.c ****   
 1008              		.loc 1 308 3 view .LVU302
 1009              	@ ../Utilities/STM32F4-Discovery/stm32f4_discovery_audio_codec.c:308:   CurrAudioInterface = Interf
 308:../Utilities/STM32F4-Discovery/stm32f4_discovery_audio_codec.c ****   
 1010              		.loc 1 308 22 is_stmt 0 view .LVU303
 1011 0000 284B     		ldr	r3, .L72	@ tmp115,
 1012              	@ ../Utilities/STM32F4-Discovery/stm32f4_discovery_audio_codec.c:307: {    
 307:../Utilities/STM32F4-Discovery/stm32f4_discovery_audio_codec.c ****   CurrAudioInterface = Interface;
 1013              		.loc 1 307 1 view .LVU304
 1014 0002 30B4     		push	{r4, r5}	@
 1015              		.cfi_def_cfa_offset 8
 1016              		.cfi_offset 4, -8
 1017              		.cfi_offset 5, -4
 1018              	@ ../Utilities/STM32F4-Discovery/stm32f4_discovery_audio_codec.c:308:   CurrAudioInterface = Interf
 308:../Utilities/STM32F4-Discovery/stm32f4_discovery_audio_codec.c ****   
 1019              		.loc 1 308 22 view .LVU305
 1020 0004 1860     		str	r0, [r3]	@ Interface, CurrAudioInterface
 310:../Utilities/STM32F4-Discovery/stm32f4_discovery_audio_codec.c ****   {
 1021              		.loc 1 310 3 is_stmt 1 view .LVU306
 1022              	@ ../Utilities/STM32F4-Discovery/stm32f4_discovery_audio_codec.c:310:   if (CurrAudioInterface == A
 310:../Utilities/STM32F4-Discovery/stm32f4_discovery_audio_codec.c ****   {
 1023              		.loc 1 310 26 is_stmt 0 view .LVU307
 1024 0006 1B68     		ldr	r3, [r3]	@ CurrAudioInterface.0_1, CurrAudioInterface
 1025              	@ ../Utilities/STM32F4-Discovery/stm32f4_discovery_audio_codec.c:310:   if (CurrAudioInterface == A
 310:../Utilities/STM32F4-Discovery/stm32f4_discovery_audio_codec.c ****   {
 1026              		.loc 1 310 6 view .LVU308
 1027 0008 012B     		cmp	r3, #1	@ CurrAudioInterface.0_1,
 1028 000a 24D0     		beq	.L70		@,
 324:../Utilities/STM32F4-Discovery/stm32f4_discovery_audio_codec.c ****   {
 1029              		.loc 1 324 8 is_stmt 1 view .LVU309
 1030              	@ ../Utilities/STM32F4-Discovery/stm32f4_discovery_audio_codec.c:324:   else if (Interface == AUDIO
 324:../Utilities/STM32F4-Discovery/stm32f4_discovery_audio_codec.c ****   {
 1031              		.loc 1 324 11 is_stmt 0 view .LVU310
 1032 000c 0228     		cmp	r0, #2	@ Interface,
 1033 000e 01D0     		beq	.L71		@,
 1034              	@ ../Utilities/STM32F4-Discovery/stm32f4_discovery_audio_codec.c:338: }
 338:../Utilities/STM32F4-Discovery/stm32f4_discovery_audio_codec.c **** 
 1035              		.loc 1 338 1 view .LVU311
 1036 0010 30BC     		pop	{r4, r5}	@
 1037              		.cfi_remember_state
 1038              		.cfi_restore 5
 1039              		.cfi_restore 4
 1040              		.cfi_def_cfa_offset 0
 1041 0012 7047     		bx	lr	@
 1042              	.L71:
 1043              		.cfi_restore_state
 327:../Utilities/STM32F4-Discovery/stm32f4_discovery_audio_codec.c ****     AUDIO_MAL_DMA_STREAM   = AUDIO_DAC_DMA_STREAM;        
 1044              		.loc 1 327 5 is_stmt 1 view .LVU312
 1045              	@ ../Utilities/STM32F4-Discovery/stm32f4_discovery_audio_codec.c:328:     AUDIO_MAL_DMA_STREAM   = 
ARM GAS  C:\Users\admin\AppData\Local\Temp\ccfajY9A.s 			page 46


 328:../Utilities/STM32F4-Discovery/stm32f4_discovery_audio_codec.c ****     AUDIO_MAL_DMA_DREG     = AUDIO_DAC_DMA_DREG;
 1046              		.loc 1 328 28 is_stmt 0 view .LVU313
 1047 0014 2448     		ldr	r0, .L72+4	@ tmp139,
 1048              	.LVL42:
 1049              	@ ../Utilities/STM32F4-Discovery/stm32f4_discovery_audio_codec.c:327:     AUDIO_MAL_DMA_CLOCK    = 
 327:../Utilities/STM32F4-Discovery/stm32f4_discovery_audio_codec.c ****     AUDIO_MAL_DMA_STREAM   = AUDIO_DAC_DMA_STREAM;        
 1050              		.loc 1 327 28 view .LVU314
 1051 0016 254C     		ldr	r4, .L72+8	@ tmp137,
 1052              	@ ../Utilities/STM32F4-Discovery/stm32f4_discovery_audio_codec.c:328:     AUDIO_MAL_DMA_STREAM   = 
 328:../Utilities/STM32F4-Discovery/stm32f4_discovery_audio_codec.c ****     AUDIO_MAL_DMA_DREG     = AUDIO_DAC_DMA_DREG;
 1053              		.loc 1 328 28 view .LVU315
 1054 0018 254D     		ldr	r5, .L72+12	@ tmp140,
 1055 001a 0560     		str	r5, [r0]	@ tmp140, AUDIO_MAL_DMA_STREAM
 1056              	@ ../Utilities/STM32F4-Discovery/stm32f4_discovery_audio_codec.c:329:     AUDIO_MAL_DMA_DREG     = 
 329:../Utilities/STM32F4-Discovery/stm32f4_discovery_audio_codec.c ****     AUDIO_MAL_DMA_CHANNEL  = AUDIO_DAC_DMA_CHANNEL;
 1057              		.loc 1 329 28 view .LVU316
 1058 001c 254B     		ldr	r3, .L72+16	@ tmp141,
 1059              	@ ../Utilities/STM32F4-Discovery/stm32f4_discovery_audio_codec.c:330:     AUDIO_MAL_DMA_CHANNEL  = 
 330:../Utilities/STM32F4-Discovery/stm32f4_discovery_audio_codec.c ****     AUDIO_MAL_DMA_IRQ      = AUDIO_DAC_DMA_IRQ  ;
 1060              		.loc 1 330 28 view .LVU317
 1061 001e 2649     		ldr	r1, .L72+20	@ tmp143,
 1062              	@ ../Utilities/STM32F4-Discovery/stm32f4_discovery_audio_codec.c:331:     AUDIO_MAL_DMA_IRQ      = 
 331:../Utilities/STM32F4-Discovery/stm32f4_discovery_audio_codec.c ****     AUDIO_MAL_DMA_FLAG_TC  = AUDIO_DAC_DMA_FLAG_TC;
 1063              		.loc 1 331 28 view .LVU318
 1064 0020 264A     		ldr	r2, .L72+24	@ tmp145,
 1065              	@ ../Utilities/STM32F4-Discovery/stm32f4_discovery_audio_codec.c:329:     AUDIO_MAL_DMA_DREG     = 
 329:../Utilities/STM32F4-Discovery/stm32f4_discovery_audio_codec.c ****     AUDIO_MAL_DMA_CHANNEL  = AUDIO_DAC_DMA_CHANNEL;
 1066              		.loc 1 329 28 view .LVU319
 1067 0022 2748     		ldr	r0, .L72+28	@ tmp142,
 1068 0024 1860     		str	r0, [r3]	@ tmp142, AUDIO_MAL_DMA_DREG
 1069              	@ ../Utilities/STM32F4-Discovery/stm32f4_discovery_audio_codec.c:327:     AUDIO_MAL_DMA_CLOCK    = 
 327:../Utilities/STM32F4-Discovery/stm32f4_discovery_audio_codec.c ****     AUDIO_MAL_DMA_STREAM   = AUDIO_DAC_DMA_STREAM;        
 1070              		.loc 1 327 28 view .LVU320
 1071 0026 4FF40015 		mov	r5, #2097152	@ tmp138,
 1072 002a 2560     		str	r5, [r4]	@ tmp138, AUDIO_MAL_DMA_CLOCK
 328:../Utilities/STM32F4-Discovery/stm32f4_discovery_audio_codec.c ****     AUDIO_MAL_DMA_DREG     = AUDIO_DAC_DMA_DREG;
 1073              		.loc 1 328 5 is_stmt 1 view .LVU321
 329:../Utilities/STM32F4-Discovery/stm32f4_discovery_audio_codec.c ****     AUDIO_MAL_DMA_CHANNEL  = AUDIO_DAC_DMA_CHANNEL;
 1074              		.loc 1 329 5 view .LVU322
 330:../Utilities/STM32F4-Discovery/stm32f4_discovery_audio_codec.c ****     AUDIO_MAL_DMA_IRQ      = AUDIO_DAC_DMA_IRQ  ;
 1075              		.loc 1 330 5 view .LVU323
 1076              	@ ../Utilities/STM32F4-Discovery/stm32f4_discovery_audio_codec.c:330:     AUDIO_MAL_DMA_CHANNEL  = 
 330:../Utilities/STM32F4-Discovery/stm32f4_discovery_audio_codec.c ****     AUDIO_MAL_DMA_IRQ      = AUDIO_DAC_DMA_IRQ  ;
 1077              		.loc 1 330 28 is_stmt 0 view .LVU324
 1078 002c 0025     		movs	r5, #0	@ tmp144,
 1079 002e 0D60     		str	r5, [r1]	@ tmp144, AUDIO_MAL_DMA_CHANNEL
 331:../Utilities/STM32F4-Discovery/stm32f4_discovery_audio_codec.c ****     AUDIO_MAL_DMA_FLAG_TC  = AUDIO_DAC_DMA_FLAG_TC;
 1080              		.loc 1 331 5 is_stmt 1 view .LVU325
 1081              	@ ../Utilities/STM32F4-Discovery/stm32f4_discovery_audio_codec.c:332:     AUDIO_MAL_DMA_FLAG_TC  = 
 332:../Utilities/STM32F4-Discovery/stm32f4_discovery_audio_codec.c ****     AUDIO_MAL_DMA_FLAG_HT  = AUDIO_DAC_DMA_FLAG_HT;
 1082              		.loc 1 332 28 is_stmt 0 view .LVU326
 1083 0030 2448     		ldr	r0, .L72+32	@ tmp147,
 1084              	@ ../Utilities/STM32F4-Discovery/stm32f4_discovery_audio_codec.c:333:     AUDIO_MAL_DMA_FLAG_HT  = 
 333:../Utilities/STM32F4-Discovery/stm32f4_discovery_audio_codec.c ****     AUDIO_MAL_DMA_FLAG_FE  = AUDIO_DAC_DMA_FLAG_FE;
 1085              		.loc 1 333 28 view .LVU327
 1086 0032 254B     		ldr	r3, .L72+36	@ tmp149,
 1087              	@ ../Utilities/STM32F4-Discovery/stm32f4_discovery_audio_codec.c:332:     AUDIO_MAL_DMA_FLAG_TC  = 
ARM GAS  C:\Users\admin\AppData\Local\Temp\ccfajY9A.s 			page 47


 332:../Utilities/STM32F4-Discovery/stm32f4_discovery_audio_codec.c ****     AUDIO_MAL_DMA_FLAG_HT  = AUDIO_DAC_DMA_FLAG_HT;
 1088              		.loc 1 332 28 view .LVU328
 1089 0034 254C     		ldr	r4, .L72+40	@ tmp148,
 1090 0036 0460     		str	r4, [r0]	@ tmp148, AUDIO_MAL_DMA_FLAG_TC
 1091              	@ ../Utilities/STM32F4-Discovery/stm32f4_discovery_audio_codec.c:331:     AUDIO_MAL_DMA_IRQ      = 
 331:../Utilities/STM32F4-Discovery/stm32f4_discovery_audio_codec.c ****     AUDIO_MAL_DMA_FLAG_TC  = AUDIO_DAC_DMA_FLAG_TC;
 1092              		.loc 1 331 28 view .LVU329
 1093 0038 0B21     		movs	r1, #11	@ tmp146,
 1094 003a 1160     		str	r1, [r2]	@ tmp146, AUDIO_MAL_DMA_IRQ
 332:../Utilities/STM32F4-Discovery/stm32f4_discovery_audio_codec.c ****     AUDIO_MAL_DMA_FLAG_HT  = AUDIO_DAC_DMA_FLAG_HT;
 1095              		.loc 1 332 5 is_stmt 1 view .LVU330
 333:../Utilities/STM32F4-Discovery/stm32f4_discovery_audio_codec.c ****     AUDIO_MAL_DMA_FLAG_FE  = AUDIO_DAC_DMA_FLAG_FE;
 1096              		.loc 1 333 5 view .LVU331
 1097              	@ ../Utilities/STM32F4-Discovery/stm32f4_discovery_audio_codec.c:334:     AUDIO_MAL_DMA_FLAG_FE  = 
 334:../Utilities/STM32F4-Discovery/stm32f4_discovery_audio_codec.c ****     AUDIO_MAL_DMA_FLAG_TE  = AUDIO_DAC_DMA_FLAG_TE;
 1098              		.loc 1 334 28 is_stmt 0 view .LVU332
 1099 003c 244A     		ldr	r2, .L72+44	@ tmp151,
 1100              	@ ../Utilities/STM32F4-Discovery/stm32f4_discovery_audio_codec.c:333:     AUDIO_MAL_DMA_FLAG_HT  = 
 333:../Utilities/STM32F4-Discovery/stm32f4_discovery_audio_codec.c ****     AUDIO_MAL_DMA_FLAG_FE  = AUDIO_DAC_DMA_FLAG_FE;
 1101              		.loc 1 333 28 view .LVU333
 1102 003e 2549     		ldr	r1, .L72+48	@ tmp150,
 1103 0040 1960     		str	r1, [r3]	@ tmp150, AUDIO_MAL_DMA_FLAG_HT
 334:../Utilities/STM32F4-Discovery/stm32f4_discovery_audio_codec.c ****     AUDIO_MAL_DMA_FLAG_TE  = AUDIO_DAC_DMA_FLAG_TE;
 1104              		.loc 1 334 5 is_stmt 1 view .LVU334
 1105              	@ ../Utilities/STM32F4-Discovery/stm32f4_discovery_audio_codec.c:334:     AUDIO_MAL_DMA_FLAG_FE  = 
 334:../Utilities/STM32F4-Discovery/stm32f4_discovery_audio_codec.c ****     AUDIO_MAL_DMA_FLAG_TE  = AUDIO_DAC_DMA_FLAG_TE;
 1106              		.loc 1 334 28 is_stmt 0 view .LVU335
 1107 0042 254C     		ldr	r4, .L72+52	@ tmp152,
 1108              	@ ../Utilities/STM32F4-Discovery/stm32f4_discovery_audio_codec.c:335:     AUDIO_MAL_DMA_FLAG_TE  = 
 335:../Utilities/STM32F4-Discovery/stm32f4_discovery_audio_codec.c ****     AUDIO_MAL_DMA_FLAG_DME = AUDIO_DAC_DMA_FLAG_DME;    
 1109              		.loc 1 335 28 view .LVU336
 1110 0044 2549     		ldr	r1, .L72+56	@ tmp153,
 1111              	@ ../Utilities/STM32F4-Discovery/stm32f4_discovery_audio_codec.c:336:     AUDIO_MAL_DMA_FLAG_DME = 
 336:../Utilities/STM32F4-Discovery/stm32f4_discovery_audio_codec.c ****   }
 1112              		.loc 1 336 28 view .LVU337
 1113 0046 264B     		ldr	r3, .L72+60	@ tmp155,
 1114              	@ ../Utilities/STM32F4-Discovery/stm32f4_discovery_audio_codec.c:334:     AUDIO_MAL_DMA_FLAG_FE  = 
 334:../Utilities/STM32F4-Discovery/stm32f4_discovery_audio_codec.c ****     AUDIO_MAL_DMA_FLAG_TE  = AUDIO_DAC_DMA_FLAG_TE;
 1115              		.loc 1 334 28 view .LVU338
 1116 0048 1460     		str	r4, [r2]	@ tmp152, AUDIO_MAL_DMA_FLAG_FE
 335:../Utilities/STM32F4-Discovery/stm32f4_discovery_audio_codec.c ****     AUDIO_MAL_DMA_FLAG_DME = AUDIO_DAC_DMA_FLAG_DME;    
 1117              		.loc 1 335 5 is_stmt 1 view .LVU339
 1118              	@ ../Utilities/STM32F4-Discovery/stm32f4_discovery_audio_codec.c:335:     AUDIO_MAL_DMA_FLAG_TE  = 
 335:../Utilities/STM32F4-Discovery/stm32f4_discovery_audio_codec.c ****     AUDIO_MAL_DMA_FLAG_DME = AUDIO_DAC_DMA_FLAG_DME;    
 1119              		.loc 1 335 28 is_stmt 0 view .LVU340
 1120 004a 2648     		ldr	r0, .L72+64	@ tmp154,
 1121              	@ ../Utilities/STM32F4-Discovery/stm32f4_discovery_audio_codec.c:336:     AUDIO_MAL_DMA_FLAG_DME = 
 336:../Utilities/STM32F4-Discovery/stm32f4_discovery_audio_codec.c ****   }
 1122              		.loc 1 336 28 view .LVU341
 1123 004c 264A     		ldr	r2, .L72+68	@ tmp156,
 1124              	@ ../Utilities/STM32F4-Discovery/stm32f4_discovery_audio_codec.c:335:     AUDIO_MAL_DMA_FLAG_TE  = 
 335:../Utilities/STM32F4-Discovery/stm32f4_discovery_audio_codec.c ****     AUDIO_MAL_DMA_FLAG_DME = AUDIO_DAC_DMA_FLAG_DME;    
 1125              		.loc 1 335 28 view .LVU342
 1126 004e 0860     		str	r0, [r1]	@ tmp154, AUDIO_MAL_DMA_FLAG_TE
 336:../Utilities/STM32F4-Discovery/stm32f4_discovery_audio_codec.c ****   }
 1127              		.loc 1 336 5 is_stmt 1 view .LVU343
 1128              	@ ../Utilities/STM32F4-Discovery/stm32f4_discovery_audio_codec.c:338: }
ARM GAS  C:\Users\admin\AppData\Local\Temp\ccfajY9A.s 			page 48


 338:../Utilities/STM32F4-Discovery/stm32f4_discovery_audio_codec.c **** 
 1129              		.loc 1 338 1 is_stmt 0 view .LVU344
 1130 0050 30BC     		pop	{r4, r5}	@
 1131              		.cfi_remember_state
 1132              		.cfi_restore 5
 1133              		.cfi_restore 4
 1134              		.cfi_def_cfa_offset 0
 1135              	@ ../Utilities/STM32F4-Discovery/stm32f4_discovery_audio_codec.c:336:     AUDIO_MAL_DMA_FLAG_DME = 
 336:../Utilities/STM32F4-Discovery/stm32f4_discovery_audio_codec.c ****   }
 1136              		.loc 1 336 28 view .LVU345
 1137 0052 1A60     		str	r2, [r3]	@ tmp156, AUDIO_MAL_DMA_FLAG_DME
 1138              	@ ../Utilities/STM32F4-Discovery/stm32f4_discovery_audio_codec.c:338: }
 338:../Utilities/STM32F4-Discovery/stm32f4_discovery_audio_codec.c **** 
 1139              		.loc 1 338 1 view .LVU346
 1140 0054 7047     		bx	lr	@
 1141              	.LVL43:
 1142              	.L70:
 1143              		.cfi_restore_state
 313:../Utilities/STM32F4-Discovery/stm32f4_discovery_audio_codec.c ****     AUDIO_MAL_DMA_STREAM   = AUDIO_I2S_DMA_STREAM;        
 1144              		.loc 1 313 5 is_stmt 1 view .LVU347
 1145              	@ ../Utilities/STM32F4-Discovery/stm32f4_discovery_audio_codec.c:314:     AUDIO_MAL_DMA_STREAM   = 
 314:../Utilities/STM32F4-Discovery/stm32f4_discovery_audio_codec.c ****     AUDIO_MAL_DMA_DREG     = AUDIO_I2S_DMA_DREG;
 1146              		.loc 1 314 28 is_stmt 0 view .LVU348
 1147 0056 1449     		ldr	r1, .L72+4	@ tmp119,
 1148              	@ ../Utilities/STM32F4-Discovery/stm32f4_discovery_audio_codec.c:313:     AUDIO_MAL_DMA_CLOCK    = 
 313:../Utilities/STM32F4-Discovery/stm32f4_discovery_audio_codec.c ****     AUDIO_MAL_DMA_STREAM   = AUDIO_I2S_DMA_STREAM;        
 1149              		.loc 1 313 28 view .LVU349
 1150 0058 1448     		ldr	r0, .L72+8	@ tmp117,
 1151              	.LVL44:
 1152              	@ ../Utilities/STM32F4-Discovery/stm32f4_discovery_audio_codec.c:315:     AUDIO_MAL_DMA_DREG     = 
 315:../Utilities/STM32F4-Discovery/stm32f4_discovery_audio_codec.c ****     AUDIO_MAL_DMA_CHANNEL  = AUDIO_I2S_DMA_CHANNEL;
 1153              		.loc 1 315 28 view .LVU350
 1154 005a 164B     		ldr	r3, .L72+16	@ tmp121,
 1155              	@ ../Utilities/STM32F4-Discovery/stm32f4_discovery_audio_codec.c:314:     AUDIO_MAL_DMA_STREAM   = 
 314:../Utilities/STM32F4-Discovery/stm32f4_discovery_audio_codec.c ****     AUDIO_MAL_DMA_DREG     = AUDIO_I2S_DMA_DREG;
 1156              		.loc 1 314 28 view .LVU351
 1157 005c 234D     		ldr	r5, .L72+72	@ tmp120,
 1158 005e 0D60     		str	r5, [r1]	@ tmp120, AUDIO_MAL_DMA_STREAM
 1159              	@ ../Utilities/STM32F4-Discovery/stm32f4_discovery_audio_codec.c:317:     AUDIO_MAL_DMA_IRQ      = 
 317:../Utilities/STM32F4-Discovery/stm32f4_discovery_audio_codec.c ****     AUDIO_MAL_DMA_FLAG_TC  = AUDIO_I2S_DMA_FLAG_TC;
 1160              		.loc 1 317 28 view .LVU352
 1161 0060 164C     		ldr	r4, .L72+24	@ tmp125,
 1162              	@ ../Utilities/STM32F4-Discovery/stm32f4_discovery_audio_codec.c:315:     AUDIO_MAL_DMA_DREG     = 
 315:../Utilities/STM32F4-Discovery/stm32f4_discovery_audio_codec.c ****     AUDIO_MAL_DMA_CHANNEL  = AUDIO_I2S_DMA_CHANNEL;
 1163              		.loc 1 315 28 view .LVU353
 1164 0062 2349     		ldr	r1, .L72+76	@ tmp122,
 1165 0064 1960     		str	r1, [r3]	@ tmp122, AUDIO_MAL_DMA_DREG
 1166              	@ ../Utilities/STM32F4-Discovery/stm32f4_discovery_audio_codec.c:313:     AUDIO_MAL_DMA_CLOCK    = 
 313:../Utilities/STM32F4-Discovery/stm32f4_discovery_audio_codec.c ****     AUDIO_MAL_DMA_STREAM   = AUDIO_I2S_DMA_STREAM;        
 1167              		.loc 1 313 28 view .LVU354
 1168 0066 4FF40015 		mov	r5, #2097152	@ tmp118,
 1169 006a 0560     		str	r5, [r0]	@ tmp118, AUDIO_MAL_DMA_CLOCK
 314:../Utilities/STM32F4-Discovery/stm32f4_discovery_audio_codec.c ****     AUDIO_MAL_DMA_DREG     = AUDIO_I2S_DMA_DREG;
 1170              		.loc 1 314 5 is_stmt 1 view .LVU355
 315:../Utilities/STM32F4-Discovery/stm32f4_discovery_audio_codec.c ****     AUDIO_MAL_DMA_CHANNEL  = AUDIO_I2S_DMA_CHANNEL;
 1171              		.loc 1 315 5 view .LVU356
 316:../Utilities/STM32F4-Discovery/stm32f4_discovery_audio_codec.c ****     AUDIO_MAL_DMA_IRQ      = AUDIO_I2S_DMA_IRQ  ;
ARM GAS  C:\Users\admin\AppData\Local\Temp\ccfajY9A.s 			page 49


 1172              		.loc 1 316 5 view .LVU357
 1173              	@ ../Utilities/STM32F4-Discovery/stm32f4_discovery_audio_codec.c:316:     AUDIO_MAL_DMA_CHANNEL  = 
 316:../Utilities/STM32F4-Discovery/stm32f4_discovery_audio_codec.c ****     AUDIO_MAL_DMA_IRQ      = AUDIO_I2S_DMA_IRQ  ;
 1174              		.loc 1 316 28 is_stmt 0 view .LVU358
 1175 006c 124A     		ldr	r2, .L72+20	@ tmp123,
 1176              	@ ../Utilities/STM32F4-Discovery/stm32f4_discovery_audio_codec.c:318:     AUDIO_MAL_DMA_FLAG_TC  = 
 318:../Utilities/STM32F4-Discovery/stm32f4_discovery_audio_codec.c ****     AUDIO_MAL_DMA_FLAG_HT  = AUDIO_I2S_DMA_FLAG_HT;
 1177              		.loc 1 318 28 view .LVU359
 1178 006e 154B     		ldr	r3, .L72+32	@ tmp127,
 1179              	@ ../Utilities/STM32F4-Discovery/stm32f4_discovery_audio_codec.c:319:     AUDIO_MAL_DMA_FLAG_HT  = 
 319:../Utilities/STM32F4-Discovery/stm32f4_discovery_audio_codec.c ****     AUDIO_MAL_DMA_FLAG_FE  = AUDIO_I2S_DMA_FLAG_FE;
 1180              		.loc 1 319 28 view .LVU360
 1181 0070 1548     		ldr	r0, .L72+36	@ tmp129,
 1182              	@ ../Utilities/STM32F4-Discovery/stm32f4_discovery_audio_codec.c:317:     AUDIO_MAL_DMA_IRQ      = 
 317:../Utilities/STM32F4-Discovery/stm32f4_discovery_audio_codec.c ****     AUDIO_MAL_DMA_FLAG_TC  = AUDIO_I2S_DMA_FLAG_TC;
 1183              		.loc 1 317 28 view .LVU361
 1184 0072 2F25     		movs	r5, #47	@ tmp126,
 1185              	@ ../Utilities/STM32F4-Discovery/stm32f4_discovery_audio_codec.c:316:     AUDIO_MAL_DMA_CHANNEL  = 
 316:../Utilities/STM32F4-Discovery/stm32f4_discovery_audio_codec.c ****     AUDIO_MAL_DMA_IRQ      = AUDIO_I2S_DMA_IRQ  ;
 1186              		.loc 1 316 28 view .LVU362
 1187 0074 0021     		movs	r1, #0	@ tmp124,
 1188              	@ ../Utilities/STM32F4-Discovery/stm32f4_discovery_audio_codec.c:317:     AUDIO_MAL_DMA_IRQ      = 
 317:../Utilities/STM32F4-Discovery/stm32f4_discovery_audio_codec.c ****     AUDIO_MAL_DMA_FLAG_TC  = AUDIO_I2S_DMA_FLAG_TC;
 1189              		.loc 1 317 28 view .LVU363
 1190 0076 2560     		str	r5, [r4]	@ tmp126, AUDIO_MAL_DMA_IRQ
 1191              	@ ../Utilities/STM32F4-Discovery/stm32f4_discovery_audio_codec.c:318:     AUDIO_MAL_DMA_FLAG_TC  = 
 318:../Utilities/STM32F4-Discovery/stm32f4_discovery_audio_codec.c ****     AUDIO_MAL_DMA_FLAG_HT  = AUDIO_I2S_DMA_FLAG_HT;
 1192              		.loc 1 318 28 view .LVU364
 1193 0078 4FF02054 		mov	r4, #671088640	@ tmp128,
 1194              	@ ../Utilities/STM32F4-Discovery/stm32f4_discovery_audio_codec.c:316:     AUDIO_MAL_DMA_CHANNEL  = 
 316:../Utilities/STM32F4-Discovery/stm32f4_discovery_audio_codec.c ****     AUDIO_MAL_DMA_IRQ      = AUDIO_I2S_DMA_IRQ  ;
 1195              		.loc 1 316 28 view .LVU365
 1196 007c 1160     		str	r1, [r2]	@ tmp124, AUDIO_MAL_DMA_CHANNEL
 317:../Utilities/STM32F4-Discovery/stm32f4_discovery_audio_codec.c ****     AUDIO_MAL_DMA_FLAG_TC  = AUDIO_I2S_DMA_FLAG_TC;
 1197              		.loc 1 317 5 is_stmt 1 view .LVU366
 318:../Utilities/STM32F4-Discovery/stm32f4_discovery_audio_codec.c ****     AUDIO_MAL_DMA_FLAG_HT  = AUDIO_I2S_DMA_FLAG_HT;
 1198              		.loc 1 318 5 view .LVU367
 1199              	@ ../Utilities/STM32F4-Discovery/stm32f4_discovery_audio_codec.c:318:     AUDIO_MAL_DMA_FLAG_TC  = 
 318:../Utilities/STM32F4-Discovery/stm32f4_discovery_audio_codec.c ****     AUDIO_MAL_DMA_FLAG_HT  = AUDIO_I2S_DMA_FLAG_HT;
 1200              		.loc 1 318 28 is_stmt 0 view .LVU368
 1201 007e 1C60     		str	r4, [r3]	@ tmp128, AUDIO_MAL_DMA_FLAG_TC
 319:../Utilities/STM32F4-Discovery/stm32f4_discovery_audio_codec.c ****     AUDIO_MAL_DMA_FLAG_FE  = AUDIO_I2S_DMA_FLAG_FE;
 1202              		.loc 1 319 5 is_stmt 1 view .LVU369
 1203              	@ ../Utilities/STM32F4-Discovery/stm32f4_discovery_audio_codec.c:320:     AUDIO_MAL_DMA_FLAG_FE  = 
 320:../Utilities/STM32F4-Discovery/stm32f4_discovery_audio_codec.c ****     AUDIO_MAL_DMA_FLAG_TE  = AUDIO_I2S_DMA_FLAG_TE;
 1204              		.loc 1 320 28 is_stmt 0 view .LVU370
 1205 0080 134A     		ldr	r2, .L72+44	@ tmp131,
 1206              	@ ../Utilities/STM32F4-Discovery/stm32f4_discovery_audio_codec.c:321:     AUDIO_MAL_DMA_FLAG_TE  = 
 321:../Utilities/STM32F4-Discovery/stm32f4_discovery_audio_codec.c ****     AUDIO_MAL_DMA_FLAG_DME = AUDIO_I2S_DMA_FLAG_DME;
 1207              		.loc 1 321 28 view .LVU371
 1208 0082 1649     		ldr	r1, .L72+56	@ tmp133,
 1209              	@ ../Utilities/STM32F4-Discovery/stm32f4_discovery_audio_codec.c:322:     AUDIO_MAL_DMA_FLAG_DME = 
 322:../Utilities/STM32F4-Discovery/stm32f4_discovery_audio_codec.c ****   }
 1210              		.loc 1 322 28 view .LVU372
 1211 0084 164B     		ldr	r3, .L72+60	@ tmp135,
 1212              	@ ../Utilities/STM32F4-Discovery/stm32f4_discovery_audio_codec.c:319:     AUDIO_MAL_DMA_FLAG_HT  = 
 319:../Utilities/STM32F4-Discovery/stm32f4_discovery_audio_codec.c ****     AUDIO_MAL_DMA_FLAG_FE  = AUDIO_I2S_DMA_FLAG_FE;
ARM GAS  C:\Users\admin\AppData\Local\Temp\ccfajY9A.s 			page 50


 1213              		.loc 1 319 28 view .LVU373
 1214 0086 4FF01054 		mov	r4, #603979776	@ tmp130,
 1215 008a 0460     		str	r4, [r0]	@ tmp130, AUDIO_MAL_DMA_FLAG_HT
 320:../Utilities/STM32F4-Discovery/stm32f4_discovery_audio_codec.c ****     AUDIO_MAL_DMA_FLAG_TE  = AUDIO_I2S_DMA_FLAG_TE;
 1216              		.loc 1 320 5 is_stmt 1 view .LVU374
 1217              	@ ../Utilities/STM32F4-Discovery/stm32f4_discovery_audio_codec.c:320:     AUDIO_MAL_DMA_FLAG_FE  = 
 320:../Utilities/STM32F4-Discovery/stm32f4_discovery_audio_codec.c ****     AUDIO_MAL_DMA_FLAG_TE  = AUDIO_I2S_DMA_FLAG_TE;
 1218              		.loc 1 320 28 is_stmt 0 view .LVU375
 1219 008c 4FF00154 		mov	r4, #541065216	@ tmp132,
 1220 0090 1460     		str	r4, [r2]	@ tmp132, AUDIO_MAL_DMA_FLAG_FE
 321:../Utilities/STM32F4-Discovery/stm32f4_discovery_audio_codec.c ****     AUDIO_MAL_DMA_FLAG_DME = AUDIO_I2S_DMA_FLAG_DME;
 1221              		.loc 1 321 5 is_stmt 1 view .LVU376
 1222              	@ ../Utilities/STM32F4-Discovery/stm32f4_discovery_audio_codec.c:321:     AUDIO_MAL_DMA_FLAG_TE  = 
 321:../Utilities/STM32F4-Discovery/stm32f4_discovery_audio_codec.c ****     AUDIO_MAL_DMA_FLAG_DME = AUDIO_I2S_DMA_FLAG_DME;
 1223              		.loc 1 321 28 is_stmt 0 view .LVU377
 1224 0092 4FF00850 		mov	r0, #570425344	@ tmp134,
 1225              	@ ../Utilities/STM32F4-Discovery/stm32f4_discovery_audio_codec.c:322:     AUDIO_MAL_DMA_FLAG_DME = 
 322:../Utilities/STM32F4-Discovery/stm32f4_discovery_audio_codec.c ****   }
 1226              		.loc 1 322 28 view .LVU378
 1227 0096 4FF00452 		mov	r2, #553648128	@ tmp136,
 1228              	@ ../Utilities/STM32F4-Discovery/stm32f4_discovery_audio_codec.c:338: }
 338:../Utilities/STM32F4-Discovery/stm32f4_discovery_audio_codec.c **** 
 1229              		.loc 1 338 1 view .LVU379
 1230 009a 30BC     		pop	{r4, r5}	@
 1231              		.cfi_restore 5
 1232              		.cfi_restore 4
 1233              		.cfi_def_cfa_offset 0
 1234              	@ ../Utilities/STM32F4-Discovery/stm32f4_discovery_audio_codec.c:321:     AUDIO_MAL_DMA_FLAG_TE  = 
 321:../Utilities/STM32F4-Discovery/stm32f4_discovery_audio_codec.c ****     AUDIO_MAL_DMA_FLAG_DME = AUDIO_I2S_DMA_FLAG_DME;
 1235              		.loc 1 321 28 view .LVU380
 1236 009c 0860     		str	r0, [r1]	@ tmp134, AUDIO_MAL_DMA_FLAG_TE
 322:../Utilities/STM32F4-Discovery/stm32f4_discovery_audio_codec.c ****   }
 1237              		.loc 1 322 5 is_stmt 1 view .LVU381
 1238              	@ ../Utilities/STM32F4-Discovery/stm32f4_discovery_audio_codec.c:322:     AUDIO_MAL_DMA_FLAG_DME = 
 322:../Utilities/STM32F4-Discovery/stm32f4_discovery_audio_codec.c ****   }
 1239              		.loc 1 322 28 is_stmt 0 view .LVU382
 1240 009e 1A60     		str	r2, [r3]	@ tmp136, AUDIO_MAL_DMA_FLAG_DME
 1241              	@ ../Utilities/STM32F4-Discovery/stm32f4_discovery_audio_codec.c:338: }
 338:../Utilities/STM32F4-Discovery/stm32f4_discovery_audio_codec.c **** 
 1242              		.loc 1 338 1 view .LVU383
 1243 00a0 7047     		bx	lr	@
 1244              	.L73:
 1245 00a2 00BF     		.align	2
 1246              	.L72:
 1247 00a4 00000000 		.word	.LANCHOR6
 1248 00a8 00000000 		.word	.LANCHOR0
 1249 00ac 00000000 		.word	.LANCHOR7
 1250 00b0 10600240 		.word	1073897488
 1251 00b4 00000000 		.word	.LANCHOR8
 1252 00b8 00000000 		.word	.LANCHOR9
 1253 00bc 00000000 		.word	.LANCHOR10
 1254 00c0 0C740040 		.word	1073771532
 1255 00c4 00000000 		.word	.LANCHOR1
 1256 00c8 00000000 		.word	.LANCHOR11
 1257 00cc 20000010 		.word	268435488
 1258 00d0 00000000 		.word	.LANCHOR12
 1259 00d4 10000010 		.word	268435472
ARM GAS  C:\Users\admin\AppData\Local\Temp\ccfajY9A.s 			page 51


 1260 00d8 01008010 		.word	276824065
 1261 00dc 00000000 		.word	.LANCHOR13
 1262 00e0 00000000 		.word	.LANCHOR14
 1263 00e4 08000010 		.word	268435464
 1264 00e8 04008010 		.word	276824068
 1265 00ec B8600240 		.word	1073897656
 1266 00f0 0C3C0040 		.word	1073757196
 1267              		.cfi_endproc
 1268              	.LFE110:
 1269              		.size	EVAL_AUDIO_SetAudioInterface, .-EVAL_AUDIO_SetAudioInterface
 1270              		.section	.text.EVAL_AUDIO_DeInit,"ax",%progbits
 1271              		.align	1
 1272              		.p2align 2,,3
 1273              		.global	EVAL_AUDIO_DeInit
 1274              		.syntax unified
 1275              		.thumb
 1276              		.thumb_func
 1277              		.type	EVAL_AUDIO_DeInit, %function
 1278              	EVAL_AUDIO_DeInit:
 1279              	.LFB112:
 375:../Utilities/STM32F4-Discovery/stm32f4_discovery_audio_codec.c ****   /* DeInitialize the Media layer */
 1280              		.loc 1 375 1 is_stmt 1 view -0
 1281              		.cfi_startproc
 1282              		@ args = 0, pretend = 0, frame = 8
 1283              		@ frame_needed = 0, uses_anonymous_args = 0
 377:../Utilities/STM32F4-Discovery/stm32f4_discovery_audio_codec.c ****   
 1284              		.loc 1 377 3 view .LVU385
 1285              	.LBB64:
 1286              	.LBI64:
1353:../Utilities/STM32F4-Discovery/stm32f4_discovery_audio_codec.c **** }
1354:../Utilities/STM32F4-Discovery/stm32f4_discovery_audio_codec.c **** #endif /* USE_DEFAULT_TIMEOUT_CALLBACK */
1355:../Utilities/STM32F4-Discovery/stm32f4_discovery_audio_codec.c **** /*========================
1356:../Utilities/STM32F4-Discovery/stm32f4_discovery_audio_codec.c **** 
1357:../Utilities/STM32F4-Discovery/stm32f4_discovery_audio_codec.c ****                 Audio MAL Interface Control Functions
1358:../Utilities/STM32F4-Discovery/stm32f4_discovery_audio_codec.c **** 
