ARM GAS  C:\Users\admin\AppData\Local\Temp\ccu1qHez.s 			page 1


   1              		.cpu cortex-m4
   2              		.arch armv7e-m
   3              		.fpu fpv4-sp-d16
   4              		.eabi_attribute 27, 1	@ Tag_ABI_HardFP_use
   5              		.eabi_attribute 28, 1	@ Tag_ABI_VFP_args
   6              		.eabi_attribute 23, 1	@ Tag_ABI_FP_number_model
   7              		.eabi_attribute 24, 1	@ Tag_ABI_align8_needed
   8              		.eabi_attribute 25, 1	@ Tag_ABI_align8_preserved
   9              		.eabi_attribute 26, 1	@ Tag_ABI_enum_size
  10              		.eabi_attribute 30, 2	@ Tag_ABI_optimization_goals
  11              		.eabi_attribute 34, 1	@ Tag_CPU_unaligned_access
  12              		.eabi_attribute 18, 4	@ Tag_ABI_PCS_wchar_t
  13              		.file	"stm32f4xx_tim.c"
  14              	@ GNU C89 (GNU Arm Embedded Toolchain 10.3-2021.10) version 10.3.1 20210824 (release) (arm-none-eab
  15              	@	compiled by GNU C version 7.3-win32 20180312, GMP version 6.1.0, MPFR version 3.1.4, MPC version 
  16              	
  17              	@ GGC heuristics: --param ggc-min-expand=100 --param ggc-min-heapsize=131072
  18              	@ options passed:  -I . -I . -I ../Utilities/STM32F4-Discovery/
  19              	@ -I ../Libraries/STM32_USB_Device_Library/Class/audio/inc/
  20              	@ -I ../Libraries/STM32_USB_Device_Library/Core/inc/
  21              	@ -I ../Libraries/STM32_USB_OTG_Driver/inc/
  22              	@ -I ../Utilities/STM32F4-Discovery/
  23              	@ -I ../Libraries/STM32F4xx_StdPeriph_Driver/inc/
  24              	@ -I ../Utilities/STM32F4-Discovery/
  25              	@ -I ../Libraries/CMSIS/ST/STM32F4xx/Include/
  26              	@ -I ../Libraries/CMSIS/Include/ -imultilib thumb/v7e-m+fp/hard
  27              	@ -iprefix c:\program files (x86)\gnu arm embedded toolchain\10 2021.10\bin\../lib/gcc/arm-none-eab
  28              	@ -isysroot c:\program files (x86)\gnu arm embedded toolchain\10 2021.10\bin\../arm-none-eabi
  29              	@ -MD out/stm32f4xx_tim.d -MF out/stm32f4xx_tim.d -MP
  30              	@ -MQ out/stm32f4xx_tim.o -D__USES_INITFINI__ -D STM32F4XX -D __VFP_FP__
  31              	@ -D USE_USB_OTG_FS
  32              	@ ../Libraries/STM32F4xx_StdPeriph_Driver/src/stm32f4xx_tim.c
  33              	@ -mcpu=cortex-m4 -mthumb -mfloat-abi=hard -mfpu=fpv4-sp-d16
  34              	@ -mlibarch=armv7e-m+fp -march=armv7e-m+fp
  35              	@ -auxbase-strip out/stm32f4xx_tim.o -g -ggdb3 -O3 -Wall
  36              	@ -Wstrict-prototypes -Wextra -std=gnu90 -ffast-math -ffunction-sections
  37              	@ -fdata-sections -fverbose-asm
  38              	@ options enabled:  -faggressive-loop-optimizations -falign-functions
  39              	@ -falign-jumps -falign-labels -falign-loops -fallocation-dce
  40              	@ -fassociative-math -fauto-inc-dec -fbranch-count-reg -fcaller-saves
  41              	@ -fcombine-stack-adjustments -fcompare-elim -fcprop-registers
  42              	@ -fcrossjumping -fcse-follow-jumps -fcx-limited-range -fdata-sections
  43              	@ -fdefer-pop -fdelete-null-pointer-checks -fdevirtualize
  44              	@ -fdevirtualize-speculatively -fdwarf2-cfi-asm -fearly-inlining
  45              	@ -feliminate-unused-debug-symbols -feliminate-unused-debug-types
  46              	@ -fexpensive-optimizations -ffinite-math-only -fforward-propagate
  47              	@ -ffp-int-builtin-inexact -ffunction-cse -ffunction-sections -fgcse
  48              	@ -fgcse-after-reload -fgcse-lm -fgnu-unique -fguess-branch-probability
  49              	@ -fhoist-adjacent-loads -fident -fif-conversion -fif-conversion2
  50              	@ -findirect-inlining -finline -finline-atomics -finline-functions
  51              	@ -finline-functions-called-once -finline-small-functions -fipa-bit-cp
  52              	@ -fipa-cp -fipa-cp-clone -fipa-icf -fipa-icf-functions -fipa-icf-variables
  53              	@ -fipa-profile -fipa-pure-const -fipa-ra -fipa-reference
  54              	@ -fipa-reference-addressable -fipa-sra -fipa-stack-alignment -fipa-vrp
  55              	@ -fira-hoist-pressure -fira-share-save-slots -fira-share-spill-slots
  56              	@ -fisolate-erroneous-paths-dereference -fivopts -fkeep-static-consts
  57              	@ -fleading-underscore -flifetime-dse -floop-interchange
ARM GAS  C:\Users\admin\AppData\Local\Temp\ccu1qHez.s 			page 2


  58              	@ -floop-unroll-and-jam -flra-remat -fmerge-constants -fmerge-debug-strings
  59              	@ -fmove-loop-invariants -fomit-frame-pointer -foptimize-sibling-calls
  60              	@ -foptimize-strlen -fpartial-inlining -fpeel-loops -fpeephole -fpeephole2
  61              	@ -fplt -fpredictive-commoning -fprefetch-loop-arrays -freciprocal-math
  62              	@ -freg-struct-return -freorder-blocks -freorder-functions
  63              	@ -frerun-cse-after-loop -fsched-critical-path-heuristic
  64              	@ -fsched-dep-count-heuristic -fsched-group-heuristic -fsched-interblock
  65              	@ -fsched-last-insn-heuristic -fsched-pressure -fsched-rank-heuristic
  66              	@ -fsched-spec -fsched-spec-insn-heuristic -fsched-stalled-insns-dep
  67              	@ -fschedule-insns -fschedule-insns2 -fsection-anchors
  68              	@ -fsemantic-interposition -fshow-column -fshrink-wrap
  69              	@ -fshrink-wrap-separate -fsplit-ivs-in-unroller -fsplit-loops
  70              	@ -fsplit-paths -fsplit-wide-types -fssa-backprop -fssa-phiopt -fstdarg-opt
  71              	@ -fstore-merging -fstrict-aliasing -fstrict-volatile-bitfields
  72              	@ -fsync-libcalls -fthread-jumps -ftoplevel-reorder -ftree-bit-ccp
  73              	@ -ftree-builtin-call-dce -ftree-ccp -ftree-ch -ftree-coalesce-vars
  74              	@ -ftree-copy-prop -ftree-cselim -ftree-dce -ftree-dominator-opts
  75              	@ -ftree-dse -ftree-forwprop -ftree-fre -ftree-loop-distribute-patterns
  76              	@ -ftree-loop-distribution -ftree-loop-if-convert -ftree-loop-im
  77              	@ -ftree-loop-ivcanon -ftree-loop-optimize -ftree-loop-vectorize
  78              	@ -ftree-parallelize-loops= -ftree-partial-pre -ftree-phiprop -ftree-pre
  79              	@ -ftree-pta -ftree-reassoc -ftree-scev-cprop -ftree-sink
  80              	@ -ftree-slp-vectorize -ftree-slsr -ftree-sra -ftree-switch-conversion
  81              	@ -ftree-tail-merge -ftree-ter -ftree-vrp -funit-at-a-time
  82              	@ -funsafe-math-optimizations -funswitch-loops -fvar-tracking
  83              	@ -fvar-tracking-assignments -fverbose-asm -fversion-loops-for-strides
  84              	@ -fzero-initialized-in-bss -masm-syntax-unified -mbe32 -mlittle-endian
  85              	@ -mpic-data-is-text-relative -msched-prolog -mthumb -munaligned-access
  86              	@ -mvectorize-with-neon-quad
  87              	
  88              		.text
  89              	.Ltext0:
  90              		.cfi_sections	.debug_frame
  91              		.section	.text.TIM_DeInit,"ax",%progbits
  92              		.align	1
  93              		.p2align 2,,3
  94              		.global	TIM_DeInit
  95              		.syntax unified
  96              		.thumb
  97              		.thumb_func
  98              		.type	TIM_DeInit, %function
  99              	TIM_DeInit:
 100              	.LVL0:
 101              	.LFB110:
 102              		.file 1 "../Libraries/STM32F4xx_StdPeriph_Driver/src/stm32f4xx_tim.c"
   1:../Libraries/STM32F4xx_StdPeriph_Driver/src/stm32f4xx_tim.c **** /**
   2:../Libraries/STM32F4xx_StdPeriph_Driver/src/stm32f4xx_tim.c ****   ******************************************************************************
   3:../Libraries/STM32F4xx_StdPeriph_Driver/src/stm32f4xx_tim.c ****   * @file    stm32f4xx_tim.c
   4:../Libraries/STM32F4xx_StdPeriph_Driver/src/stm32f4xx_tim.c ****   * @author  MCD Application Team
   5:../Libraries/STM32F4xx_StdPeriph_Driver/src/stm32f4xx_tim.c ****   * @version V1.0.0
   6:../Libraries/STM32F4xx_StdPeriph_Driver/src/stm32f4xx_tim.c ****   * @date    30-September-2011
   7:../Libraries/STM32F4xx_StdPeriph_Driver/src/stm32f4xx_tim.c ****   * @brief   This file provides firmware functions to manage the following 
   8:../Libraries/STM32F4xx_StdPeriph_Driver/src/stm32f4xx_tim.c ****   *          functionalities of the TIM peripheral:
   9:../Libraries/STM32F4xx_StdPeriph_Driver/src/stm32f4xx_tim.c ****   *            - TimeBase management
  10:../Libraries/STM32F4xx_StdPeriph_Driver/src/stm32f4xx_tim.c ****   *            - Output Compare management
  11:../Libraries/STM32F4xx_StdPeriph_Driver/src/stm32f4xx_tim.c ****   *            - Input Capture management
  12:../Libraries/STM32F4xx_StdPeriph_Driver/src/stm32f4xx_tim.c ****   *            - Advanced-control timers (TIM1 and TIM8) specific features  
ARM GAS  C:\Users\admin\AppData\Local\Temp\ccu1qHez.s 			page 3


  13:../Libraries/STM32F4xx_StdPeriph_Driver/src/stm32f4xx_tim.c ****   *            - Interrupts, DMA and flags management
  14:../Libraries/STM32F4xx_StdPeriph_Driver/src/stm32f4xx_tim.c ****   *            - Clocks management
  15:../Libraries/STM32F4xx_StdPeriph_Driver/src/stm32f4xx_tim.c ****   *            - Synchronization management
  16:../Libraries/STM32F4xx_StdPeriph_Driver/src/stm32f4xx_tim.c ****   *            - Specific interface management
  17:../Libraries/STM32F4xx_StdPeriph_Driver/src/stm32f4xx_tim.c ****   *            - Specific remapping management      
  18:../Libraries/STM32F4xx_StdPeriph_Driver/src/stm32f4xx_tim.c ****   *              
  19:../Libraries/STM32F4xx_StdPeriph_Driver/src/stm32f4xx_tim.c ****   *  @verbatim
  20:../Libraries/STM32F4xx_StdPeriph_Driver/src/stm32f4xx_tim.c ****   *  
  21:../Libraries/STM32F4xx_StdPeriph_Driver/src/stm32f4xx_tim.c ****   *          ===================================================================
  22:../Libraries/STM32F4xx_StdPeriph_Driver/src/stm32f4xx_tim.c ****   *                                 How to use this driver
  23:../Libraries/STM32F4xx_StdPeriph_Driver/src/stm32f4xx_tim.c ****   *          ===================================================================
  24:../Libraries/STM32F4xx_StdPeriph_Driver/src/stm32f4xx_tim.c ****   *          This driver provides functions to configure and program the TIM 
  25:../Libraries/STM32F4xx_StdPeriph_Driver/src/stm32f4xx_tim.c ****   *          of all STM32F4xx devices.
  26:../Libraries/STM32F4xx_StdPeriph_Driver/src/stm32f4xx_tim.c ****   *          These functions are split in 9 groups: 
  27:../Libraries/STM32F4xx_StdPeriph_Driver/src/stm32f4xx_tim.c ****   *   
  28:../Libraries/STM32F4xx_StdPeriph_Driver/src/stm32f4xx_tim.c ****   *          1. TIM TimeBase management: this group includes all needed functions 
  29:../Libraries/STM32F4xx_StdPeriph_Driver/src/stm32f4xx_tim.c ****   *             to configure the TM Timebase unit:
  30:../Libraries/STM32F4xx_StdPeriph_Driver/src/stm32f4xx_tim.c ****   *                   - Set/Get Prescaler
  31:../Libraries/STM32F4xx_StdPeriph_Driver/src/stm32f4xx_tim.c ****   *                   - Set/Get Autoreload  
  32:../Libraries/STM32F4xx_StdPeriph_Driver/src/stm32f4xx_tim.c ****   *                   - Counter modes configuration
  33:../Libraries/STM32F4xx_StdPeriph_Driver/src/stm32f4xx_tim.c ****   *                   - Set Clock division  
  34:../Libraries/STM32F4xx_StdPeriph_Driver/src/stm32f4xx_tim.c ****   *                   - Select the One Pulse mode
  35:../Libraries/STM32F4xx_StdPeriph_Driver/src/stm32f4xx_tim.c ****   *                   - Update Request Configuration
  36:../Libraries/STM32F4xx_StdPeriph_Driver/src/stm32f4xx_tim.c ****   *                   - Update Disable Configuration
  37:../Libraries/STM32F4xx_StdPeriph_Driver/src/stm32f4xx_tim.c ****   *                   - Auto-Preload Configuration 
  38:../Libraries/STM32F4xx_StdPeriph_Driver/src/stm32f4xx_tim.c ****   *                   - Enable/Disable the counter     
  39:../Libraries/STM32F4xx_StdPeriph_Driver/src/stm32f4xx_tim.c ****   *                 
  40:../Libraries/STM32F4xx_StdPeriph_Driver/src/stm32f4xx_tim.c ****   *          2. TIM Output Compare management: this group includes all needed 
  41:../Libraries/STM32F4xx_StdPeriph_Driver/src/stm32f4xx_tim.c ****   *             functions to configure the Capture/Compare unit used in Output 
  42:../Libraries/STM32F4xx_StdPeriph_Driver/src/stm32f4xx_tim.c ****   *             compare mode: 
  43:../Libraries/STM32F4xx_StdPeriph_Driver/src/stm32f4xx_tim.c ****   *                   - Configure each channel, independently, in Output Compare mode
  44:../Libraries/STM32F4xx_StdPeriph_Driver/src/stm32f4xx_tim.c ****   *                   - Select the output compare modes
  45:../Libraries/STM32F4xx_StdPeriph_Driver/src/stm32f4xx_tim.c ****   *                   - Select the Polarities of each channel
  46:../Libraries/STM32F4xx_StdPeriph_Driver/src/stm32f4xx_tim.c ****   *                   - Set/Get the Capture/Compare register values
  47:../Libraries/STM32F4xx_StdPeriph_Driver/src/stm32f4xx_tim.c ****   *                   - Select the Output Compare Fast mode 
  48:../Libraries/STM32F4xx_StdPeriph_Driver/src/stm32f4xx_tim.c ****   *                   - Select the Output Compare Forced mode  
  49:../Libraries/STM32F4xx_StdPeriph_Driver/src/stm32f4xx_tim.c ****   *                   - Output Compare-Preload Configuration 
  50:../Libraries/STM32F4xx_StdPeriph_Driver/src/stm32f4xx_tim.c ****   *                   - Clear Output Compare Reference
  51:../Libraries/STM32F4xx_StdPeriph_Driver/src/stm32f4xx_tim.c ****   *                   - Select the OCREF Clear signal
  52:../Libraries/STM32F4xx_StdPeriph_Driver/src/stm32f4xx_tim.c ****   *                   - Enable/Disable the Capture/Compare Channels    
  53:../Libraries/STM32F4xx_StdPeriph_Driver/src/stm32f4xx_tim.c ****   *                   
  54:../Libraries/STM32F4xx_StdPeriph_Driver/src/stm32f4xx_tim.c ****   *          3. TIM Input Capture management: this group includes all needed 
  55:../Libraries/STM32F4xx_StdPeriph_Driver/src/stm32f4xx_tim.c ****   *             functions to configure the Capture/Compare unit used in 
  56:../Libraries/STM32F4xx_StdPeriph_Driver/src/stm32f4xx_tim.c ****   *             Input Capture mode:
  57:../Libraries/STM32F4xx_StdPeriph_Driver/src/stm32f4xx_tim.c ****   *                   - Configure each channel in input capture mode
  58:../Libraries/STM32F4xx_StdPeriph_Driver/src/stm32f4xx_tim.c ****   *                   - Configure Channel1/2 in PWM Input mode
  59:../Libraries/STM32F4xx_StdPeriph_Driver/src/stm32f4xx_tim.c ****   *                   - Set the Input Capture Prescaler
  60:../Libraries/STM32F4xx_StdPeriph_Driver/src/stm32f4xx_tim.c ****   *                   - Get the Capture/Compare values      
  61:../Libraries/STM32F4xx_StdPeriph_Driver/src/stm32f4xx_tim.c ****   *                   
  62:../Libraries/STM32F4xx_StdPeriph_Driver/src/stm32f4xx_tim.c ****   *          4. Advanced-control timers (TIM1 and TIM8) specific features
  63:../Libraries/STM32F4xx_StdPeriph_Driver/src/stm32f4xx_tim.c ****   *                   - Configures the Break input, dead time, Lock level, the OSSI,
  64:../Libraries/STM32F4xx_StdPeriph_Driver/src/stm32f4xx_tim.c ****   *                      the OSSR State and the AOE(automatic output enable)
  65:../Libraries/STM32F4xx_StdPeriph_Driver/src/stm32f4xx_tim.c ****   *                   - Enable/Disable the TIM peripheral Main Outputs
  66:../Libraries/STM32F4xx_StdPeriph_Driver/src/stm32f4xx_tim.c ****   *                   - Select the Commutation event
  67:../Libraries/STM32F4xx_StdPeriph_Driver/src/stm32f4xx_tim.c ****   *                   - Set/Reset the Capture Compare Preload Control bit
  68:../Libraries/STM32F4xx_StdPeriph_Driver/src/stm32f4xx_tim.c ****   *                              
  69:../Libraries/STM32F4xx_StdPeriph_Driver/src/stm32f4xx_tim.c ****   *          5. TIM interrupts, DMA and flags management
ARM GAS  C:\Users\admin\AppData\Local\Temp\ccu1qHez.s 			page 4


  70:../Libraries/STM32F4xx_StdPeriph_Driver/src/stm32f4xx_tim.c ****   *                   - Enable/Disable interrupt sources
  71:../Libraries/STM32F4xx_StdPeriph_Driver/src/stm32f4xx_tim.c ****   *                   - Get flags status
  72:../Libraries/STM32F4xx_StdPeriph_Driver/src/stm32f4xx_tim.c ****   *                   - Clear flags/ Pending bits
  73:../Libraries/STM32F4xx_StdPeriph_Driver/src/stm32f4xx_tim.c ****   *                   - Enable/Disable DMA requests 
  74:../Libraries/STM32F4xx_StdPeriph_Driver/src/stm32f4xx_tim.c ****   *                   - Configure DMA burst mode
  75:../Libraries/STM32F4xx_StdPeriph_Driver/src/stm32f4xx_tim.c ****   *                   - Select CaptureCompare DMA request  
  76:../Libraries/STM32F4xx_StdPeriph_Driver/src/stm32f4xx_tim.c ****   *              
  77:../Libraries/STM32F4xx_StdPeriph_Driver/src/stm32f4xx_tim.c ****   *          6. TIM clocks management: this group includes all needed functions 
  78:../Libraries/STM32F4xx_StdPeriph_Driver/src/stm32f4xx_tim.c ****   *             to configure the clock controller unit:
  79:../Libraries/STM32F4xx_StdPeriph_Driver/src/stm32f4xx_tim.c ****   *                   - Select internal/External clock
  80:../Libraries/STM32F4xx_StdPeriph_Driver/src/stm32f4xx_tim.c ****   *                   - Select the external clock mode: ETR(Mode1/Mode2), TIx or ITRx
  81:../Libraries/STM32F4xx_StdPeriph_Driver/src/stm32f4xx_tim.c ****   *         
  82:../Libraries/STM32F4xx_StdPeriph_Driver/src/stm32f4xx_tim.c ****   *          7. TIM synchronization management: this group includes all needed 
  83:../Libraries/STM32F4xx_StdPeriph_Driver/src/stm32f4xx_tim.c ****   *             functions to configure the Synchronization unit:
  84:../Libraries/STM32F4xx_StdPeriph_Driver/src/stm32f4xx_tim.c ****   *                   - Select Input Trigger  
  85:../Libraries/STM32F4xx_StdPeriph_Driver/src/stm32f4xx_tim.c ****   *                   - Select Output Trigger  
  86:../Libraries/STM32F4xx_StdPeriph_Driver/src/stm32f4xx_tim.c ****   *                   - Select Master Slave Mode 
  87:../Libraries/STM32F4xx_StdPeriph_Driver/src/stm32f4xx_tim.c ****   *                   - ETR Configuration when used as external trigger   
  88:../Libraries/STM32F4xx_StdPeriph_Driver/src/stm32f4xx_tim.c ****   *     
  89:../Libraries/STM32F4xx_StdPeriph_Driver/src/stm32f4xx_tim.c ****   *          8. TIM specific interface management, this group includes all 
  90:../Libraries/STM32F4xx_StdPeriph_Driver/src/stm32f4xx_tim.c ****   *             needed functions to use the specific TIM interface:
  91:../Libraries/STM32F4xx_StdPeriph_Driver/src/stm32f4xx_tim.c ****   *                   - Encoder Interface Configuration
  92:../Libraries/STM32F4xx_StdPeriph_Driver/src/stm32f4xx_tim.c ****   *                   - Select Hall Sensor   
  93:../Libraries/STM32F4xx_StdPeriph_Driver/src/stm32f4xx_tim.c ****   *         
  94:../Libraries/STM32F4xx_StdPeriph_Driver/src/stm32f4xx_tim.c ****   *          9. TIM specific remapping management includes the Remapping 
  95:../Libraries/STM32F4xx_StdPeriph_Driver/src/stm32f4xx_tim.c ****   *             configuration of specific timers               
  96:../Libraries/STM32F4xx_StdPeriph_Driver/src/stm32f4xx_tim.c ****   *   
  97:../Libraries/STM32F4xx_StdPeriph_Driver/src/stm32f4xx_tim.c ****   *  @endverbatim
  98:../Libraries/STM32F4xx_StdPeriph_Driver/src/stm32f4xx_tim.c ****   *    
  99:../Libraries/STM32F4xx_StdPeriph_Driver/src/stm32f4xx_tim.c ****   ******************************************************************************
 100:../Libraries/STM32F4xx_StdPeriph_Driver/src/stm32f4xx_tim.c ****   * @attention
 101:../Libraries/STM32F4xx_StdPeriph_Driver/src/stm32f4xx_tim.c ****   *
 102:../Libraries/STM32F4xx_StdPeriph_Driver/src/stm32f4xx_tim.c ****   * THE PRESENT FIRMWARE WHICH IS FOR GUIDANCE ONLY AIMS AT PROVIDING CUSTOMERS
 103:../Libraries/STM32F4xx_StdPeriph_Driver/src/stm32f4xx_tim.c ****   * WITH CODING INFORMATION REGARDING THEIR PRODUCTS IN ORDER FOR THEM TO SAVE
 104:../Libraries/STM32F4xx_StdPeriph_Driver/src/stm32f4xx_tim.c ****   * TIME. AS A RESULT, STMICROELECTRONICS SHALL NOT BE HELD LIABLE FOR ANY
 105:../Libraries/STM32F4xx_StdPeriph_Driver/src/stm32f4xx_tim.c ****   * DIRECT, INDIRECT OR CONSEQUENTIAL DAMAGES WITH RESPECT TO ANY CLAIMS ARISING
 106:../Libraries/STM32F4xx_StdPeriph_Driver/src/stm32f4xx_tim.c ****   * FROM THE CONTENT OF SUCH FIRMWARE AND/OR THE USE MADE BY CUSTOMERS OF THE
 107:../Libraries/STM32F4xx_StdPeriph_Driver/src/stm32f4xx_tim.c ****   * CODING INFORMATION CONTAINED HEREIN IN CONNECTION WITH THEIR PRODUCTS.
 108:../Libraries/STM32F4xx_StdPeriph_Driver/src/stm32f4xx_tim.c ****   *
 109:../Libraries/STM32F4xx_StdPeriph_Driver/src/stm32f4xx_tim.c ****   * <h2><center>&copy; COPYRIGHT 2011 STMicroelectronics</center></h2>
 110:../Libraries/STM32F4xx_StdPeriph_Driver/src/stm32f4xx_tim.c ****   ******************************************************************************
 111:../Libraries/STM32F4xx_StdPeriph_Driver/src/stm32f4xx_tim.c ****   */
 112:../Libraries/STM32F4xx_StdPeriph_Driver/src/stm32f4xx_tim.c **** 
 113:../Libraries/STM32F4xx_StdPeriph_Driver/src/stm32f4xx_tim.c **** /* Includes ------------------------------------------------------------------*/
 114:../Libraries/STM32F4xx_StdPeriph_Driver/src/stm32f4xx_tim.c **** #include "stm32f4xx_tim.h"
 115:../Libraries/STM32F4xx_StdPeriph_Driver/src/stm32f4xx_tim.c **** #include "stm32f4xx_rcc.h"
 116:../Libraries/STM32F4xx_StdPeriph_Driver/src/stm32f4xx_tim.c **** 
 117:../Libraries/STM32F4xx_StdPeriph_Driver/src/stm32f4xx_tim.c **** /** @addtogroup STM32F4xx_StdPeriph_Driver
 118:../Libraries/STM32F4xx_StdPeriph_Driver/src/stm32f4xx_tim.c ****   * @{
 119:../Libraries/STM32F4xx_StdPeriph_Driver/src/stm32f4xx_tim.c ****   */
 120:../Libraries/STM32F4xx_StdPeriph_Driver/src/stm32f4xx_tim.c **** 
 121:../Libraries/STM32F4xx_StdPeriph_Driver/src/stm32f4xx_tim.c **** /** @defgroup TIM 
 122:../Libraries/STM32F4xx_StdPeriph_Driver/src/stm32f4xx_tim.c ****   * @brief TIM driver modules
 123:../Libraries/STM32F4xx_StdPeriph_Driver/src/stm32f4xx_tim.c ****   * @{
 124:../Libraries/STM32F4xx_StdPeriph_Driver/src/stm32f4xx_tim.c ****   */
 125:../Libraries/STM32F4xx_StdPeriph_Driver/src/stm32f4xx_tim.c **** 
 126:../Libraries/STM32F4xx_StdPeriph_Driver/src/stm32f4xx_tim.c **** /* Private typedef -----------------------------------------------------------*/
ARM GAS  C:\Users\admin\AppData\Local\Temp\ccu1qHez.s 			page 5


 127:../Libraries/STM32F4xx_StdPeriph_Driver/src/stm32f4xx_tim.c **** /* Private define ------------------------------------------------------------*/
 128:../Libraries/STM32F4xx_StdPeriph_Driver/src/stm32f4xx_tim.c **** 
 129:../Libraries/STM32F4xx_StdPeriph_Driver/src/stm32f4xx_tim.c **** /* ---------------------- TIM registers bit mask ------------------------ */
 130:../Libraries/STM32F4xx_StdPeriph_Driver/src/stm32f4xx_tim.c **** #define SMCR_ETR_MASK      ((uint16_t)0x00FF) 
 131:../Libraries/STM32F4xx_StdPeriph_Driver/src/stm32f4xx_tim.c **** #define CCMR_OFFSET        ((uint16_t)0x0018)
 132:../Libraries/STM32F4xx_StdPeriph_Driver/src/stm32f4xx_tim.c **** #define CCER_CCE_SET       ((uint16_t)0x0001)  
 133:../Libraries/STM32F4xx_StdPeriph_Driver/src/stm32f4xx_tim.c **** #define	CCER_CCNE_SET      ((uint16_t)0x0004) 
 134:../Libraries/STM32F4xx_StdPeriph_Driver/src/stm32f4xx_tim.c **** #define CCMR_OC13M_MASK    ((uint16_t)0xFF8F)
 135:../Libraries/STM32F4xx_StdPeriph_Driver/src/stm32f4xx_tim.c **** #define CCMR_OC24M_MASK    ((uint16_t)0x8FFF) 
 136:../Libraries/STM32F4xx_StdPeriph_Driver/src/stm32f4xx_tim.c **** 
 137:../Libraries/STM32F4xx_StdPeriph_Driver/src/stm32f4xx_tim.c **** /* Private macro -------------------------------------------------------------*/
 138:../Libraries/STM32F4xx_StdPeriph_Driver/src/stm32f4xx_tim.c **** /* Private variables ---------------------------------------------------------*/
 139:../Libraries/STM32F4xx_StdPeriph_Driver/src/stm32f4xx_tim.c **** /* Private function prototypes -----------------------------------------------*/
 140:../Libraries/STM32F4xx_StdPeriph_Driver/src/stm32f4xx_tim.c **** static void TI1_Config(TIM_TypeDef* TIMx, uint16_t TIM_ICPolarity, uint16_t TIM_ICSelection,
 141:../Libraries/STM32F4xx_StdPeriph_Driver/src/stm32f4xx_tim.c ****                        uint16_t TIM_ICFilter);
 142:../Libraries/STM32F4xx_StdPeriph_Driver/src/stm32f4xx_tim.c **** static void TI2_Config(TIM_TypeDef* TIMx, uint16_t TIM_ICPolarity, uint16_t TIM_ICSelection,
 143:../Libraries/STM32F4xx_StdPeriph_Driver/src/stm32f4xx_tim.c ****                        uint16_t TIM_ICFilter);
 144:../Libraries/STM32F4xx_StdPeriph_Driver/src/stm32f4xx_tim.c **** static void TI3_Config(TIM_TypeDef* TIMx, uint16_t TIM_ICPolarity, uint16_t TIM_ICSelection,
 145:../Libraries/STM32F4xx_StdPeriph_Driver/src/stm32f4xx_tim.c ****                        uint16_t TIM_ICFilter);
 146:../Libraries/STM32F4xx_StdPeriph_Driver/src/stm32f4xx_tim.c **** static void TI4_Config(TIM_TypeDef* TIMx, uint16_t TIM_ICPolarity, uint16_t TIM_ICSelection,
 147:../Libraries/STM32F4xx_StdPeriph_Driver/src/stm32f4xx_tim.c ****                        uint16_t TIM_ICFilter);
 148:../Libraries/STM32F4xx_StdPeriph_Driver/src/stm32f4xx_tim.c **** 
 149:../Libraries/STM32F4xx_StdPeriph_Driver/src/stm32f4xx_tim.c **** /* Private functions ---------------------------------------------------------*/
 150:../Libraries/STM32F4xx_StdPeriph_Driver/src/stm32f4xx_tim.c **** 
 151:../Libraries/STM32F4xx_StdPeriph_Driver/src/stm32f4xx_tim.c **** /** @defgroup TIM_Private_Functions
 152:../Libraries/STM32F4xx_StdPeriph_Driver/src/stm32f4xx_tim.c ****   * @{
 153:../Libraries/STM32F4xx_StdPeriph_Driver/src/stm32f4xx_tim.c ****   */
 154:../Libraries/STM32F4xx_StdPeriph_Driver/src/stm32f4xx_tim.c **** 
 155:../Libraries/STM32F4xx_StdPeriph_Driver/src/stm32f4xx_tim.c **** /** @defgroup TIM_Group1 TimeBase management functions
 156:../Libraries/STM32F4xx_StdPeriph_Driver/src/stm32f4xx_tim.c ****  *  @brief   TimeBase management functions 
 157:../Libraries/STM32F4xx_StdPeriph_Driver/src/stm32f4xx_tim.c ****  *
 158:../Libraries/STM32F4xx_StdPeriph_Driver/src/stm32f4xx_tim.c **** @verbatim   
 159:../Libraries/STM32F4xx_StdPeriph_Driver/src/stm32f4xx_tim.c ****  ===============================================================================
 160:../Libraries/STM32F4xx_StdPeriph_Driver/src/stm32f4xx_tim.c ****                        TimeBase management functions
 161:../Libraries/STM32F4xx_StdPeriph_Driver/src/stm32f4xx_tim.c ****  ===============================================================================  
 162:../Libraries/STM32F4xx_StdPeriph_Driver/src/stm32f4xx_tim.c ****   
 163:../Libraries/STM32F4xx_StdPeriph_Driver/src/stm32f4xx_tim.c ****        ===================================================================      
 164:../Libraries/STM32F4xx_StdPeriph_Driver/src/stm32f4xx_tim.c ****               TIM Driver: how to use it in Timing(Time base) Mode
 165:../Libraries/STM32F4xx_StdPeriph_Driver/src/stm32f4xx_tim.c ****        =================================================================== 
 166:../Libraries/STM32F4xx_StdPeriph_Driver/src/stm32f4xx_tim.c ****        To use the Timer in Timing(Time base) mode, the following steps are mandatory:
 167:../Libraries/STM32F4xx_StdPeriph_Driver/src/stm32f4xx_tim.c ****        
 168:../Libraries/STM32F4xx_StdPeriph_Driver/src/stm32f4xx_tim.c ****        1. Enable TIM clock using RCC_APBxPeriphClockCmd(RCC_APBxPeriph_TIMx, ENABLE) function
 169:../Libraries/STM32F4xx_StdPeriph_Driver/src/stm32f4xx_tim.c ****                     
 170:../Libraries/STM32F4xx_StdPeriph_Driver/src/stm32f4xx_tim.c ****        2. Fill the TIM_TimeBaseInitStruct with the desired parameters.
 171:../Libraries/STM32F4xx_StdPeriph_Driver/src/stm32f4xx_tim.c ****        
 172:../Libraries/STM32F4xx_StdPeriph_Driver/src/stm32f4xx_tim.c ****        3. Call TIM_TimeBaseInit(TIMx, &TIM_TimeBaseInitStruct) to configure the Time Base unit
 173:../Libraries/STM32F4xx_StdPeriph_Driver/src/stm32f4xx_tim.c ****           with the corresponding configuration
 174:../Libraries/STM32F4xx_StdPeriph_Driver/src/stm32f4xx_tim.c ****           
 175:../Libraries/STM32F4xx_StdPeriph_Driver/src/stm32f4xx_tim.c ****        4. Enable the NVIC if you need to generate the update interrupt. 
 176:../Libraries/STM32F4xx_StdPeriph_Driver/src/stm32f4xx_tim.c ****           
 177:../Libraries/STM32F4xx_StdPeriph_Driver/src/stm32f4xx_tim.c ****        5. Enable the corresponding interrupt using the function TIM_ITConfig(TIMx, TIM_IT_Update) 
 178:../Libraries/STM32F4xx_StdPeriph_Driver/src/stm32f4xx_tim.c ****        
 179:../Libraries/STM32F4xx_StdPeriph_Driver/src/stm32f4xx_tim.c ****        6. Call the TIM_Cmd(ENABLE) function to enable the TIM counter.
 180:../Libraries/STM32F4xx_StdPeriph_Driver/src/stm32f4xx_tim.c ****              
 181:../Libraries/STM32F4xx_StdPeriph_Driver/src/stm32f4xx_tim.c ****        Note1: All other functions can be used separately to modify, if needed,
 182:../Libraries/STM32F4xx_StdPeriph_Driver/src/stm32f4xx_tim.c ****           a specific feature of the Timer. 
 183:../Libraries/STM32F4xx_StdPeriph_Driver/src/stm32f4xx_tim.c **** 
ARM GAS  C:\Users\admin\AppData\Local\Temp\ccu1qHez.s 			page 6


 184:../Libraries/STM32F4xx_StdPeriph_Driver/src/stm32f4xx_tim.c **** @endverbatim
 185:../Libraries/STM32F4xx_StdPeriph_Driver/src/stm32f4xx_tim.c ****   * @{
 186:../Libraries/STM32F4xx_StdPeriph_Driver/src/stm32f4xx_tim.c ****   */
 187:../Libraries/STM32F4xx_StdPeriph_Driver/src/stm32f4xx_tim.c ****   
 188:../Libraries/STM32F4xx_StdPeriph_Driver/src/stm32f4xx_tim.c **** /**
 189:../Libraries/STM32F4xx_StdPeriph_Driver/src/stm32f4xx_tim.c ****   * @brief  Deinitializes the TIMx peripheral registers to their default reset values.
 190:../Libraries/STM32F4xx_StdPeriph_Driver/src/stm32f4xx_tim.c ****   * @param  TIMx: where x can be 1 to 14 to select the TIM peripheral.
 191:../Libraries/STM32F4xx_StdPeriph_Driver/src/stm32f4xx_tim.c ****   * @retval None
 192:../Libraries/STM32F4xx_StdPeriph_Driver/src/stm32f4xx_tim.c **** 
 193:../Libraries/STM32F4xx_StdPeriph_Driver/src/stm32f4xx_tim.c ****   */
 194:../Libraries/STM32F4xx_StdPeriph_Driver/src/stm32f4xx_tim.c **** void TIM_DeInit(TIM_TypeDef* TIMx)
 195:../Libraries/STM32F4xx_StdPeriph_Driver/src/stm32f4xx_tim.c **** {
 103              		.loc 1 195 1 view -0
 104              		.cfi_startproc
 105              		@ args = 0, pretend = 0, frame = 0
 106              		@ frame_needed = 0, uses_anonymous_args = 0
 196:../Libraries/STM32F4xx_StdPeriph_Driver/src/stm32f4xx_tim.c ****   /* Check the parameters */
 197:../Libraries/STM32F4xx_StdPeriph_Driver/src/stm32f4xx_tim.c ****   assert_param(IS_TIM_ALL_PERIPH(TIMx)); 
 107              		.loc 1 197 3 view .LVU1
 108              	@ ../Libraries/STM32F4xx_StdPeriph_Driver/src/stm32f4xx_tim.c:195: {
 195:../Libraries/STM32F4xx_StdPeriph_Driver/src/stm32f4xx_tim.c ****   /* Check the parameters */
 109              		.loc 1 195 1 is_stmt 0 view .LVU2
 110 0000 38B5     		push	{r3, r4, r5, lr}	@
 111              		.cfi_def_cfa_offset 16
 112              		.cfi_offset 3, -16
 113              		.cfi_offset 4, -12
 114              		.cfi_offset 5, -8
 115              		.cfi_offset 14, -4
 116              	@ ../Libraries/STM32F4xx_StdPeriph_Driver/src/stm32f4xx_tim.c:197:   assert_param(IS_TIM_ALL_PERIPH
 117              		.loc 1 197 3 view .LVU3
 118 0002 7F4B     		ldr	r3, .L19	@ tmp116,
 119 0004 9842     		cmp	r0, r3	@ TIMx, tmp116
 120 0006 59D0     		beq	.L2		@,
 121              	@ ../Libraries/STM32F4xx_StdPeriph_Driver/src/stm32f4xx_tim.c:197:   assert_param(IS_TIM_ALL_PERIPH
 122              		.loc 1 197 16 discriminator 2 view .LVU4
 123 0008 B0F1804F 		cmp	r0, #1073741824	@ TIMx,
 124 000c 0446     		mov	r4, r0	@ TIMx, tmp132
 125 000e 3BD0     		beq	.L3		@,
 126              	@ ../Libraries/STM32F4xx_StdPeriph_Driver/src/stm32f4xx_tim.c:197:   assert_param(IS_TIM_ALL_PERIPH
 127              		.loc 1 197 16 discriminator 4 view .LVU5
 128 0010 A3F57C43 		sub	r3, r3, #64512	@ tmp117, tmp117,
 129 0014 9842     		cmp	r0, r3	@ TIMx, tmp117
 130 0016 5ED0     		beq	.L4		@,
 131              	@ ../Libraries/STM32F4xx_StdPeriph_Driver/src/stm32f4xx_tim.c:197:   assert_param(IS_TIM_ALL_PERIPH
 132              		.loc 1 197 16 discriminator 6 view .LVU6
 133 0018 03F58063 		add	r3, r3, #1024	@ tmp118, tmp118,
 134 001c 9842     		cmp	r0, r3	@ TIMx, tmp118
 135 001e 67D0     		beq	.L5		@,
 136              	@ ../Libraries/STM32F4xx_StdPeriph_Driver/src/stm32f4xx_tim.c:197:   assert_param(IS_TIM_ALL_PERIPH
 137              		.loc 1 197 16 discriminator 8 view .LVU7
 138 0020 03F58063 		add	r3, r3, #1024	@ tmp119, tmp119,
 139 0024 9842     		cmp	r0, r3	@ TIMx, tmp119
 140 0026 3CD0     		beq	.L6		@,
 141              	@ ../Libraries/STM32F4xx_StdPeriph_Driver/src/stm32f4xx_tim.c:197:   assert_param(IS_TIM_ALL_PERIPH
 142              		.loc 1 197 16 discriminator 10 view .LVU8
 143 0028 03F58063 		add	r3, r3, #1024	@ tmp120, tmp120,
 144 002c 9842     		cmp	r0, r3	@ TIMx, tmp120
ARM GAS  C:\Users\admin\AppData\Local\Temp\ccu1qHez.s 			page 7


 145 002e 6CD0     		beq	.L7		@,
 146              	@ ../Libraries/STM32F4xx_StdPeriph_Driver/src/stm32f4xx_tim.c:197:   assert_param(IS_TIM_ALL_PERIPH
 147              		.loc 1 197 16 discriminator 12 view .LVU9
 148 0030 03F58063 		add	r3, r3, #1024	@ tmp121, tmp121,
 149 0034 9842     		cmp	r0, r3	@ TIMx, tmp121
 150 0036 75D0     		beq	.L8		@,
 151              	@ ../Libraries/STM32F4xx_StdPeriph_Driver/src/stm32f4xx_tim.c:197:   assert_param(IS_TIM_ALL_PERIPH
 152              		.loc 1 197 16 discriminator 14 view .LVU10
 153 0038 03F57043 		add	r3, r3, #61440	@ tmp122, tmp122,
 154 003c 9842     		cmp	r0, r3	@ TIMx, tmp122
 155 003e 00F08D80 		beq	.L9		@,
 156              	@ ../Libraries/STM32F4xx_StdPeriph_Driver/src/stm32f4xx_tim.c:197:   assert_param(IS_TIM_ALL_PERIPH
 157              		.loc 1 197 16 discriminator 16 view .LVU11
 158 0042 03F57053 		add	r3, r3, #15360	@ tmp123, tmp123,
 159 0046 9842     		cmp	r0, r3	@ TIMx, tmp123
 160 0048 79D0     		beq	.L10		@,
 161              	@ ../Libraries/STM32F4xx_StdPeriph_Driver/src/stm32f4xx_tim.c:197:   assert_param(IS_TIM_ALL_PERIPH
 162              		.loc 1 197 16 discriminator 18 view .LVU12
 163 004a 03F58063 		add	r3, r3, #1024	@ tmp124, tmp124,
 164 004e 9842     		cmp	r0, r3	@ TIMx, tmp124
 165 0050 00F09180 		beq	.L11		@,
 166              	@ ../Libraries/STM32F4xx_StdPeriph_Driver/src/stm32f4xx_tim.c:197:   assert_param(IS_TIM_ALL_PERIPH
 167              		.loc 1 197 16 discriminator 20 view .LVU13
 168 0054 03F58063 		add	r3, r3, #1024	@ tmp125, tmp125,
 169 0058 9842     		cmp	r0, r3	@ TIMx, tmp125
 170 005a 00F09B80 		beq	.L12		@,
 171              	@ ../Libraries/STM32F4xx_StdPeriph_Driver/src/stm32f4xx_tim.c:197:   assert_param(IS_TIM_ALL_PERIPH
 172              		.loc 1 197 16 discriminator 22 view .LVU14
 173 005e A3F59833 		sub	r3, r3, #77824	@ tmp126, tmp126,
 174 0062 9842     		cmp	r0, r3	@ TIMx, tmp126
 175 0064 00F0A580 		beq	.L13		@,
 176              	@ ../Libraries/STM32F4xx_StdPeriph_Driver/src/stm32f4xx_tim.c:197:   assert_param(IS_TIM_ALL_PERIPH
 177              		.loc 1 197 3 discriminator 24 view .LVU15
 178 0068 03F58063 		add	r3, r3, #1024	@ tmp127, tmp127,
 179 006c 9842     		cmp	r0, r3	@ TIMx, tmp127
 180 006e 00F0AD80 		beq	.L14		@,
 181              	@ ../Libraries/STM32F4xx_StdPeriph_Driver/src/stm32f4xx_tim.c:197:   assert_param(IS_TIM_ALL_PERIPH
 182              		.loc 1 197 16 discriminator 26 view .LVU16
 183 0072 644D     		ldr	r5, .L19+4	@ tmp130,
 184              	@ ../Libraries/STM32F4xx_StdPeriph_Driver/src/stm32f4xx_tim.c:197:   assert_param(IS_TIM_ALL_PERIPH
 185              		.loc 1 197 3 discriminator 26 view .LVU17
 186 0074 401B     		subs	r0, r0, r5	@, TIMx, tmp130
 187              	.LVL1:
 188              		.loc 1 197 3 discriminator 26 view .LVU18
 189 0076 B0FA80F0 		clz	r0, r0	@,
 190 007a 4009     		lsrs	r0, r0, #5	@,,
 191 007c FFF7FEFF 		bl	assert_param		@
 192              	.LVL2:
 198:../Libraries/STM32F4xx_StdPeriph_Driver/src/stm32f4xx_tim.c ****  
 199:../Libraries/STM32F4xx_StdPeriph_Driver/src/stm32f4xx_tim.c ****   if (TIMx == TIM1)
 193              		.loc 1 199 3 is_stmt 1 discriminator 26 view .LVU19
 200:../Libraries/STM32F4xx_StdPeriph_Driver/src/stm32f4xx_tim.c ****   {
 201:../Libraries/STM32F4xx_StdPeriph_Driver/src/stm32f4xx_tim.c ****     RCC_APB2PeriphResetCmd(RCC_APB2Periph_TIM1, ENABLE);
 202:../Libraries/STM32F4xx_StdPeriph_Driver/src/stm32f4xx_tim.c ****     RCC_APB2PeriphResetCmd(RCC_APB2Periph_TIM1, DISABLE);  
 203:../Libraries/STM32F4xx_StdPeriph_Driver/src/stm32f4xx_tim.c ****   } 
 204:../Libraries/STM32F4xx_StdPeriph_Driver/src/stm32f4xx_tim.c ****   else if (TIMx == TIM2) 
 194              		.loc 1 204 8 discriminator 26 view .LVU20
ARM GAS  C:\Users\admin\AppData\Local\Temp\ccu1qHez.s 			page 8


 205:../Libraries/STM32F4xx_StdPeriph_Driver/src/stm32f4xx_tim.c ****   {     
 206:../Libraries/STM32F4xx_StdPeriph_Driver/src/stm32f4xx_tim.c ****     RCC_APB1PeriphResetCmd(RCC_APB1Periph_TIM2, ENABLE);
 207:../Libraries/STM32F4xx_StdPeriph_Driver/src/stm32f4xx_tim.c ****     RCC_APB1PeriphResetCmd(RCC_APB1Periph_TIM2, DISABLE);
 208:../Libraries/STM32F4xx_StdPeriph_Driver/src/stm32f4xx_tim.c ****   }  
 209:../Libraries/STM32F4xx_StdPeriph_Driver/src/stm32f4xx_tim.c ****   else if (TIMx == TIM3)
 195              		.loc 1 209 8 discriminator 26 view .LVU21
 210:../Libraries/STM32F4xx_StdPeriph_Driver/src/stm32f4xx_tim.c ****   { 
 211:../Libraries/STM32F4xx_StdPeriph_Driver/src/stm32f4xx_tim.c ****     RCC_APB1PeriphResetCmd(RCC_APB1Periph_TIM3, ENABLE);
 212:../Libraries/STM32F4xx_StdPeriph_Driver/src/stm32f4xx_tim.c ****     RCC_APB1PeriphResetCmd(RCC_APB1Periph_TIM3, DISABLE);
 213:../Libraries/STM32F4xx_StdPeriph_Driver/src/stm32f4xx_tim.c ****   }  
 214:../Libraries/STM32F4xx_StdPeriph_Driver/src/stm32f4xx_tim.c ****   else if (TIMx == TIM4)
 196              		.loc 1 214 8 discriminator 26 view .LVU22
 215:../Libraries/STM32F4xx_StdPeriph_Driver/src/stm32f4xx_tim.c ****   { 
 216:../Libraries/STM32F4xx_StdPeriph_Driver/src/stm32f4xx_tim.c ****     RCC_APB1PeriphResetCmd(RCC_APB1Periph_TIM4, ENABLE);
 217:../Libraries/STM32F4xx_StdPeriph_Driver/src/stm32f4xx_tim.c ****     RCC_APB1PeriphResetCmd(RCC_APB1Periph_TIM4, DISABLE);
 218:../Libraries/STM32F4xx_StdPeriph_Driver/src/stm32f4xx_tim.c ****   }  
 219:../Libraries/STM32F4xx_StdPeriph_Driver/src/stm32f4xx_tim.c ****   else if (TIMx == TIM5)
 197              		.loc 1 219 8 discriminator 26 view .LVU23
 220:../Libraries/STM32F4xx_StdPeriph_Driver/src/stm32f4xx_tim.c ****   {      
 221:../Libraries/STM32F4xx_StdPeriph_Driver/src/stm32f4xx_tim.c ****     RCC_APB1PeriphResetCmd(RCC_APB1Periph_TIM5, ENABLE);
 222:../Libraries/STM32F4xx_StdPeriph_Driver/src/stm32f4xx_tim.c ****     RCC_APB1PeriphResetCmd(RCC_APB1Periph_TIM5, DISABLE);
 223:../Libraries/STM32F4xx_StdPeriph_Driver/src/stm32f4xx_tim.c ****   }  
 224:../Libraries/STM32F4xx_StdPeriph_Driver/src/stm32f4xx_tim.c ****   else if (TIMx == TIM6)  
 198              		.loc 1 224 8 discriminator 26 view .LVU24
 225:../Libraries/STM32F4xx_StdPeriph_Driver/src/stm32f4xx_tim.c ****   {    
 226:../Libraries/STM32F4xx_StdPeriph_Driver/src/stm32f4xx_tim.c ****     RCC_APB1PeriphResetCmd(RCC_APB1Periph_TIM6, ENABLE);
 227:../Libraries/STM32F4xx_StdPeriph_Driver/src/stm32f4xx_tim.c ****     RCC_APB1PeriphResetCmd(RCC_APB1Periph_TIM6, DISABLE);
 228:../Libraries/STM32F4xx_StdPeriph_Driver/src/stm32f4xx_tim.c ****   }  
 229:../Libraries/STM32F4xx_StdPeriph_Driver/src/stm32f4xx_tim.c ****   else if (TIMx == TIM7)
 199              		.loc 1 229 8 discriminator 26 view .LVU25
 230:../Libraries/STM32F4xx_StdPeriph_Driver/src/stm32f4xx_tim.c ****   {      
 231:../Libraries/STM32F4xx_StdPeriph_Driver/src/stm32f4xx_tim.c ****     RCC_APB1PeriphResetCmd(RCC_APB1Periph_TIM7, ENABLE);
 232:../Libraries/STM32F4xx_StdPeriph_Driver/src/stm32f4xx_tim.c ****     RCC_APB1PeriphResetCmd(RCC_APB1Periph_TIM7, DISABLE);
 233:../Libraries/STM32F4xx_StdPeriph_Driver/src/stm32f4xx_tim.c ****   }  
 234:../Libraries/STM32F4xx_StdPeriph_Driver/src/stm32f4xx_tim.c ****   else if (TIMx == TIM8)
 200              		.loc 1 234 8 discriminator 26 view .LVU26
 235:../Libraries/STM32F4xx_StdPeriph_Driver/src/stm32f4xx_tim.c ****   {      
 236:../Libraries/STM32F4xx_StdPeriph_Driver/src/stm32f4xx_tim.c ****     RCC_APB2PeriphResetCmd(RCC_APB2Periph_TIM8, ENABLE);
 237:../Libraries/STM32F4xx_StdPeriph_Driver/src/stm32f4xx_tim.c ****     RCC_APB2PeriphResetCmd(RCC_APB2Periph_TIM8, DISABLE);  
 238:../Libraries/STM32F4xx_StdPeriph_Driver/src/stm32f4xx_tim.c ****   }  
 239:../Libraries/STM32F4xx_StdPeriph_Driver/src/stm32f4xx_tim.c ****   else if (TIMx == TIM9)
 201              		.loc 1 239 8 discriminator 26 view .LVU27
 240:../Libraries/STM32F4xx_StdPeriph_Driver/src/stm32f4xx_tim.c ****   {      
 241:../Libraries/STM32F4xx_StdPeriph_Driver/src/stm32f4xx_tim.c ****     RCC_APB2PeriphResetCmd(RCC_APB2Periph_TIM9, ENABLE);
 242:../Libraries/STM32F4xx_StdPeriph_Driver/src/stm32f4xx_tim.c ****     RCC_APB2PeriphResetCmd(RCC_APB2Periph_TIM9, DISABLE);  
 243:../Libraries/STM32F4xx_StdPeriph_Driver/src/stm32f4xx_tim.c ****    }  
 244:../Libraries/STM32F4xx_StdPeriph_Driver/src/stm32f4xx_tim.c ****   else if (TIMx == TIM10)
 202              		.loc 1 244 8 discriminator 26 view .LVU28
 245:../Libraries/STM32F4xx_StdPeriph_Driver/src/stm32f4xx_tim.c ****   {      
 246:../Libraries/STM32F4xx_StdPeriph_Driver/src/stm32f4xx_tim.c ****     RCC_APB2PeriphResetCmd(RCC_APB2Periph_TIM10, ENABLE);
 247:../Libraries/STM32F4xx_StdPeriph_Driver/src/stm32f4xx_tim.c ****     RCC_APB2PeriphResetCmd(RCC_APB2Periph_TIM10, DISABLE);  
 248:../Libraries/STM32F4xx_StdPeriph_Driver/src/stm32f4xx_tim.c ****   }  
 249:../Libraries/STM32F4xx_StdPeriph_Driver/src/stm32f4xx_tim.c ****   else if (TIMx == TIM11) 
 203              		.loc 1 249 8 discriminator 26 view .LVU29
 250:../Libraries/STM32F4xx_StdPeriph_Driver/src/stm32f4xx_tim.c ****   {     
 251:../Libraries/STM32F4xx_StdPeriph_Driver/src/stm32f4xx_tim.c ****     RCC_APB2PeriphResetCmd(RCC_APB2Periph_TIM11, ENABLE);
 252:../Libraries/STM32F4xx_StdPeriph_Driver/src/stm32f4xx_tim.c ****     RCC_APB2PeriphResetCmd(RCC_APB2Periph_TIM11, DISABLE);  
ARM GAS  C:\Users\admin\AppData\Local\Temp\ccu1qHez.s 			page 9


 253:../Libraries/STM32F4xx_StdPeriph_Driver/src/stm32f4xx_tim.c ****   }  
 254:../Libraries/STM32F4xx_StdPeriph_Driver/src/stm32f4xx_tim.c ****   else if (TIMx == TIM12)
 204              		.loc 1 254 8 discriminator 26 view .LVU30
 255:../Libraries/STM32F4xx_StdPeriph_Driver/src/stm32f4xx_tim.c ****   {      
 256:../Libraries/STM32F4xx_StdPeriph_Driver/src/stm32f4xx_tim.c ****     RCC_APB1PeriphResetCmd(RCC_APB1Periph_TIM12, ENABLE);
 257:../Libraries/STM32F4xx_StdPeriph_Driver/src/stm32f4xx_tim.c ****     RCC_APB1PeriphResetCmd(RCC_APB1Periph_TIM12, DISABLE);  
 258:../Libraries/STM32F4xx_StdPeriph_Driver/src/stm32f4xx_tim.c ****   }  
 259:../Libraries/STM32F4xx_StdPeriph_Driver/src/stm32f4xx_tim.c ****   else if (TIMx == TIM13) 
 205              		.loc 1 259 8 discriminator 26 view .LVU31
 260:../Libraries/STM32F4xx_StdPeriph_Driver/src/stm32f4xx_tim.c ****   {       
 261:../Libraries/STM32F4xx_StdPeriph_Driver/src/stm32f4xx_tim.c ****     RCC_APB1PeriphResetCmd(RCC_APB1Periph_TIM13, ENABLE);
 262:../Libraries/STM32F4xx_StdPeriph_Driver/src/stm32f4xx_tim.c ****     RCC_APB1PeriphResetCmd(RCC_APB1Periph_TIM13, DISABLE);  
 263:../Libraries/STM32F4xx_StdPeriph_Driver/src/stm32f4xx_tim.c ****   }  
 264:../Libraries/STM32F4xx_StdPeriph_Driver/src/stm32f4xx_tim.c ****   else
 265:../Libraries/STM32F4xx_StdPeriph_Driver/src/stm32f4xx_tim.c ****   { 
 266:../Libraries/STM32F4xx_StdPeriph_Driver/src/stm32f4xx_tim.c ****     if (TIMx == TIM14) 
 206              		.loc 1 266 5 discriminator 26 view .LVU32
 207              	@ ../Libraries/STM32F4xx_StdPeriph_Driver/src/stm32f4xx_tim.c:266:     if (TIMx == TIM14) 
 208              		.loc 1 266 8 is_stmt 0 discriminator 26 view .LVU33
 209 0080 AC42     		cmp	r4, r5	@ TIMx, tmp130
 210 0082 00F0B080 		beq	.L18		@,
 211              	@ ../Libraries/STM32F4xx_StdPeriph_Driver/src/stm32f4xx_tim.c:272: }
 267:../Libraries/STM32F4xx_StdPeriph_Driver/src/stm32f4xx_tim.c ****     {     
 268:../Libraries/STM32F4xx_StdPeriph_Driver/src/stm32f4xx_tim.c ****       RCC_APB1PeriphResetCmd(RCC_APB1Periph_TIM14, ENABLE);
 269:../Libraries/STM32F4xx_StdPeriph_Driver/src/stm32f4xx_tim.c ****       RCC_APB1PeriphResetCmd(RCC_APB1Periph_TIM14, DISABLE); 
 270:../Libraries/STM32F4xx_StdPeriph_Driver/src/stm32f4xx_tim.c ****     }   
 271:../Libraries/STM32F4xx_StdPeriph_Driver/src/stm32f4xx_tim.c ****   }
 272:../Libraries/STM32F4xx_StdPeriph_Driver/src/stm32f4xx_tim.c **** }
 212              		.loc 1 272 1 view .LVU34
 213 0086 38BD     		pop	{r3, r4, r5, pc}	@
 214              	.LVL3:
 215              	.L3:
 216              	@ ../Libraries/STM32F4xx_StdPeriph_Driver/src/stm32f4xx_tim.c:197:   assert_param(IS_TIM_ALL_PERIPH
 197:../Libraries/STM32F4xx_StdPeriph_Driver/src/stm32f4xx_tim.c ****  
 217              		.loc 1 197 3 view .LVU35
 218 0088 0120     		movs	r0, #1	@,
 219              	.LVL4:
 197:../Libraries/STM32F4xx_StdPeriph_Driver/src/stm32f4xx_tim.c ****  
 220              		.loc 1 197 3 view .LVU36
 221 008a FFF7FEFF 		bl	assert_param		@
 222              	.LVL5:
 199:../Libraries/STM32F4xx_StdPeriph_Driver/src/stm32f4xx_tim.c ****   {
 223              		.loc 1 199 3 is_stmt 1 view .LVU37
 204:../Libraries/STM32F4xx_StdPeriph_Driver/src/stm32f4xx_tim.c ****   {     
 224              		.loc 1 204 8 view .LVU38
 206:../Libraries/STM32F4xx_StdPeriph_Driver/src/stm32f4xx_tim.c ****     RCC_APB1PeriphResetCmd(RCC_APB1Periph_TIM2, DISABLE);
 225              		.loc 1 206 5 view .LVU39
 226 008e 0121     		movs	r1, #1	@,
 227 0090 0846     		mov	r0, r1	@,
 228 0092 FFF7FEFF 		bl	RCC_APB1PeriphResetCmd		@
 229              	.LVL6:
 207:../Libraries/STM32F4xx_StdPeriph_Driver/src/stm32f4xx_tim.c ****   }  
 230              		.loc 1 207 5 view .LVU40
 231              	@ ../Libraries/STM32F4xx_StdPeriph_Driver/src/stm32f4xx_tim.c:272: }
 232              		.loc 1 272 1 is_stmt 0 view .LVU41
 233 0096 BDE83840 		pop	{r3, r4, r5, lr}	@
 234              		.cfi_remember_state
ARM GAS  C:\Users\admin\AppData\Local\Temp\ccu1qHez.s 			page 10


 235              		.cfi_restore 14
 236              		.cfi_restore 5
 237              		.cfi_restore 4
 238              		.cfi_restore 3
 239              		.cfi_def_cfa_offset 0
 240              	.LVL7:
 241              	@ ../Libraries/STM32F4xx_StdPeriph_Driver/src/stm32f4xx_tim.c:207:     RCC_APB1PeriphResetCmd(RCC_A
 207:../Libraries/STM32F4xx_StdPeriph_Driver/src/stm32f4xx_tim.c ****   }  
 242              		.loc 1 207 5 view .LVU42
 243 009a 0021     		movs	r1, #0	@,
 244 009c 0120     		movs	r0, #1	@,
 245 009e FFF7FEBF 		b	RCC_APB1PeriphResetCmd		@
 246              	.LVL8:
 247              	.L6:
 248              		.cfi_restore_state
 249              	@ ../Libraries/STM32F4xx_StdPeriph_Driver/src/stm32f4xx_tim.c:197:   assert_param(IS_TIM_ALL_PERIPH
 197:../Libraries/STM32F4xx_StdPeriph_Driver/src/stm32f4xx_tim.c ****  
 250              		.loc 1 197 3 view .LVU43
 251 00a2 0120     		movs	r0, #1	@,
 252              	.LVL9:
 197:../Libraries/STM32F4xx_StdPeriph_Driver/src/stm32f4xx_tim.c ****  
 253              		.loc 1 197 3 view .LVU44
 254 00a4 FFF7FEFF 		bl	assert_param		@
 255              	.LVL10:
 199:../Libraries/STM32F4xx_StdPeriph_Driver/src/stm32f4xx_tim.c ****   {
 256              		.loc 1 199 3 is_stmt 1 view .LVU45
 204:../Libraries/STM32F4xx_StdPeriph_Driver/src/stm32f4xx_tim.c ****   {     
 257              		.loc 1 204 8 view .LVU46
 209:../Libraries/STM32F4xx_StdPeriph_Driver/src/stm32f4xx_tim.c ****   { 
 258              		.loc 1 209 8 view .LVU47
 214:../Libraries/STM32F4xx_StdPeriph_Driver/src/stm32f4xx_tim.c ****   { 
 259              		.loc 1 214 8 view .LVU48
 219:../Libraries/STM32F4xx_StdPeriph_Driver/src/stm32f4xx_tim.c ****   {      
 260              		.loc 1 219 8 view .LVU49
 221:../Libraries/STM32F4xx_StdPeriph_Driver/src/stm32f4xx_tim.c ****     RCC_APB1PeriphResetCmd(RCC_APB1Periph_TIM5, DISABLE);
 261              		.loc 1 221 5 view .LVU50
 262 00a8 0121     		movs	r1, #1	@,
 263 00aa 0820     		movs	r0, #8	@,
 264 00ac FFF7FEFF 		bl	RCC_APB1PeriphResetCmd		@
 265              	.LVL11:
 222:../Libraries/STM32F4xx_StdPeriph_Driver/src/stm32f4xx_tim.c ****   }  
 266              		.loc 1 222 5 view .LVU51
 267              	@ ../Libraries/STM32F4xx_StdPeriph_Driver/src/stm32f4xx_tim.c:272: }
 268              		.loc 1 272 1 is_stmt 0 view .LVU52
 269 00b0 BDE83840 		pop	{r3, r4, r5, lr}	@
 270              		.cfi_remember_state
 271              		.cfi_restore 14
 272              		.cfi_restore 5
 273              		.cfi_restore 4
 274              		.cfi_restore 3
 275              		.cfi_def_cfa_offset 0
 276              	.LVL12:
 277              	@ ../Libraries/STM32F4xx_StdPeriph_Driver/src/stm32f4xx_tim.c:222:     RCC_APB1PeriphResetCmd(RCC_A
 222:../Libraries/STM32F4xx_StdPeriph_Driver/src/stm32f4xx_tim.c ****   }  
 278              		.loc 1 222 5 view .LVU53
 279 00b4 0021     		movs	r1, #0	@,
 280 00b6 0820     		movs	r0, #8	@,
ARM GAS  C:\Users\admin\AppData\Local\Temp\ccu1qHez.s 			page 11


 281 00b8 FFF7FEBF 		b	RCC_APB1PeriphResetCmd		@
 282              	.LVL13:
 283              	.L2:
 284              		.cfi_restore_state
 285              	@ ../Libraries/STM32F4xx_StdPeriph_Driver/src/stm32f4xx_tim.c:197:   assert_param(IS_TIM_ALL_PERIPH
 197:../Libraries/STM32F4xx_StdPeriph_Driver/src/stm32f4xx_tim.c ****  
 286              		.loc 1 197 3 view .LVU54
 287 00bc 0120     		movs	r0, #1	@,
 288              	.LVL14:
 197:../Libraries/STM32F4xx_StdPeriph_Driver/src/stm32f4xx_tim.c ****  
 289              		.loc 1 197 3 view .LVU55
 290 00be FFF7FEFF 		bl	assert_param		@
 291              	.LVL15:
 199:../Libraries/STM32F4xx_StdPeriph_Driver/src/stm32f4xx_tim.c ****   {
 292              		.loc 1 199 3 is_stmt 1 view .LVU56
 201:../Libraries/STM32F4xx_StdPeriph_Driver/src/stm32f4xx_tim.c ****     RCC_APB2PeriphResetCmd(RCC_APB2Periph_TIM1, DISABLE);  
 293              		.loc 1 201 5 view .LVU57
 294 00c2 0121     		movs	r1, #1	@,
 295 00c4 0846     		mov	r0, r1	@,
 296 00c6 FFF7FEFF 		bl	RCC_APB2PeriphResetCmd		@
 297              	.LVL16:
 202:../Libraries/STM32F4xx_StdPeriph_Driver/src/stm32f4xx_tim.c ****   } 
 298              		.loc 1 202 5 view .LVU58
 299              	@ ../Libraries/STM32F4xx_StdPeriph_Driver/src/stm32f4xx_tim.c:272: }
 300              		.loc 1 272 1 is_stmt 0 view .LVU59
 301 00ca BDE83840 		pop	{r3, r4, r5, lr}	@
 302              		.cfi_remember_state
 303              		.cfi_restore 14
 304              		.cfi_restore 5
 305              		.cfi_restore 4
 306              		.cfi_restore 3
 307              		.cfi_def_cfa_offset 0
 308              	@ ../Libraries/STM32F4xx_StdPeriph_Driver/src/stm32f4xx_tim.c:202:     RCC_APB2PeriphResetCmd(RCC_A
 202:../Libraries/STM32F4xx_StdPeriph_Driver/src/stm32f4xx_tim.c ****   } 
 309              		.loc 1 202 5 view .LVU60
 310 00ce 0021     		movs	r1, #0	@,
 311 00d0 0120     		movs	r0, #1	@,
 312 00d2 FFF7FEBF 		b	RCC_APB2PeriphResetCmd		@
 313              	.LVL17:
 314              	.L4:
 315              		.cfi_restore_state
 316              	@ ../Libraries/STM32F4xx_StdPeriph_Driver/src/stm32f4xx_tim.c:197:   assert_param(IS_TIM_ALL_PERIPH
 197:../Libraries/STM32F4xx_StdPeriph_Driver/src/stm32f4xx_tim.c ****  
 317              		.loc 1 197 3 view .LVU61
 318 00d6 0120     		movs	r0, #1	@,
 319              	.LVL18:
 197:../Libraries/STM32F4xx_StdPeriph_Driver/src/stm32f4xx_tim.c ****  
 320              		.loc 1 197 3 view .LVU62
 321 00d8 FFF7FEFF 		bl	assert_param		@
 322              	.LVL19:
 199:../Libraries/STM32F4xx_StdPeriph_Driver/src/stm32f4xx_tim.c ****   {
 323              		.loc 1 199 3 is_stmt 1 view .LVU63
 204:../Libraries/STM32F4xx_StdPeriph_Driver/src/stm32f4xx_tim.c ****   {     
 324              		.loc 1 204 8 view .LVU64
 209:../Libraries/STM32F4xx_StdPeriph_Driver/src/stm32f4xx_tim.c ****   { 
 325              		.loc 1 209 8 view .LVU65
 211:../Libraries/STM32F4xx_StdPeriph_Driver/src/stm32f4xx_tim.c ****     RCC_APB1PeriphResetCmd(RCC_APB1Periph_TIM3, DISABLE);
ARM GAS  C:\Users\admin\AppData\Local\Temp\ccu1qHez.s 			page 12


 326              		.loc 1 211 5 view .LVU66
 327 00dc 0121     		movs	r1, #1	@,
 328 00de 0220     		movs	r0, #2	@,
 329 00e0 FFF7FEFF 		bl	RCC_APB1PeriphResetCmd		@
 330              	.LVL20:
 212:../Libraries/STM32F4xx_StdPeriph_Driver/src/stm32f4xx_tim.c ****   }  
 331              		.loc 1 212 5 view .LVU67
 332              	@ ../Libraries/STM32F4xx_StdPeriph_Driver/src/stm32f4xx_tim.c:272: }
 333              		.loc 1 272 1 is_stmt 0 view .LVU68
 334 00e4 BDE83840 		pop	{r3, r4, r5, lr}	@
 335              		.cfi_remember_state
 336              		.cfi_restore 14
 337              		.cfi_restore 5
 338              		.cfi_restore 4
 339              		.cfi_restore 3
 340              		.cfi_def_cfa_offset 0
 341              	.LVL21:
 342              	@ ../Libraries/STM32F4xx_StdPeriph_Driver/src/stm32f4xx_tim.c:212:     RCC_APB1PeriphResetCmd(RCC_A
 212:../Libraries/STM32F4xx_StdPeriph_Driver/src/stm32f4xx_tim.c ****   }  
 343              		.loc 1 212 5 view .LVU69
 344 00e8 0021     		movs	r1, #0	@,
 345 00ea 0220     		movs	r0, #2	@,
 346 00ec FFF7FEBF 		b	RCC_APB1PeriphResetCmd		@
 347              	.LVL22:
 348              	.L5:
 349              		.cfi_restore_state
 350              	@ ../Libraries/STM32F4xx_StdPeriph_Driver/src/stm32f4xx_tim.c:197:   assert_param(IS_TIM_ALL_PERIPH
 197:../Libraries/STM32F4xx_StdPeriph_Driver/src/stm32f4xx_tim.c ****  
 351              		.loc 1 197 3 view .LVU70
 352 00f0 0120     		movs	r0, #1	@,
 353              	.LVL23:
 197:../Libraries/STM32F4xx_StdPeriph_Driver/src/stm32f4xx_tim.c ****  
 354              		.loc 1 197 3 view .LVU71
 355 00f2 FFF7FEFF 		bl	assert_param		@
 356              	.LVL24:
 199:../Libraries/STM32F4xx_StdPeriph_Driver/src/stm32f4xx_tim.c ****   {
 357              		.loc 1 199 3 is_stmt 1 view .LVU72
 204:../Libraries/STM32F4xx_StdPeriph_Driver/src/stm32f4xx_tim.c ****   {     
 358              		.loc 1 204 8 view .LVU73
 209:../Libraries/STM32F4xx_StdPeriph_Driver/src/stm32f4xx_tim.c ****   { 
 359              		.loc 1 209 8 view .LVU74
 214:../Libraries/STM32F4xx_StdPeriph_Driver/src/stm32f4xx_tim.c ****   { 
 360              		.loc 1 214 8 view .LVU75
 216:../Libraries/STM32F4xx_StdPeriph_Driver/src/stm32f4xx_tim.c ****     RCC_APB1PeriphResetCmd(RCC_APB1Periph_TIM4, DISABLE);
 361              		.loc 1 216 5 view .LVU76
 362 00f6 0121     		movs	r1, #1	@,
 363 00f8 0420     		movs	r0, #4	@,
 364 00fa FFF7FEFF 		bl	RCC_APB1PeriphResetCmd		@
 365              	.LVL25:
 217:../Libraries/STM32F4xx_StdPeriph_Driver/src/stm32f4xx_tim.c ****   }  
 366              		.loc 1 217 5 view .LVU77
 367              	@ ../Libraries/STM32F4xx_StdPeriph_Driver/src/stm32f4xx_tim.c:272: }
 368              		.loc 1 272 1 is_stmt 0 view .LVU78
 369 00fe BDE83840 		pop	{r3, r4, r5, lr}	@
 370              		.cfi_remember_state
 371              		.cfi_restore 14
 372              		.cfi_restore 5
ARM GAS  C:\Users\admin\AppData\Local\Temp\ccu1qHez.s 			page 13


 373              		.cfi_restore 4
 374              		.cfi_restore 3
 375              		.cfi_def_cfa_offset 0
 376              	.LVL26:
 377              	@ ../Libraries/STM32F4xx_StdPeriph_Driver/src/stm32f4xx_tim.c:217:     RCC_APB1PeriphResetCmd(RCC_A
 217:../Libraries/STM32F4xx_StdPeriph_Driver/src/stm32f4xx_tim.c ****   }  
 378              		.loc 1 217 5 view .LVU79
 379 0102 0021     		movs	r1, #0	@,
 380 0104 0420     		movs	r0, #4	@,
 381 0106 FFF7FEBF 		b	RCC_APB1PeriphResetCmd		@
 382              	.LVL27:
 383              	.L7:
 384              		.cfi_restore_state
 385              	@ ../Libraries/STM32F4xx_StdPeriph_Driver/src/stm32f4xx_tim.c:197:   assert_param(IS_TIM_ALL_PERIPH
 197:../Libraries/STM32F4xx_StdPeriph_Driver/src/stm32f4xx_tim.c ****  
 386              		.loc 1 197 3 view .LVU80
 387 010a 0120     		movs	r0, #1	@,
 388              	.LVL28:
 197:../Libraries/STM32F4xx_StdPeriph_Driver/src/stm32f4xx_tim.c ****  
 389              		.loc 1 197 3 view .LVU81
 390 010c FFF7FEFF 		bl	assert_param		@
 391              	.LVL29:
 199:../Libraries/STM32F4xx_StdPeriph_Driver/src/stm32f4xx_tim.c ****   {
 392              		.loc 1 199 3 is_stmt 1 view .LVU82
 204:../Libraries/STM32F4xx_StdPeriph_Driver/src/stm32f4xx_tim.c ****   {     
 393              		.loc 1 204 8 view .LVU83
 209:../Libraries/STM32F4xx_StdPeriph_Driver/src/stm32f4xx_tim.c ****   { 
 394              		.loc 1 209 8 view .LVU84
 214:../Libraries/STM32F4xx_StdPeriph_Driver/src/stm32f4xx_tim.c ****   { 
 395              		.loc 1 214 8 view .LVU85
 219:../Libraries/STM32F4xx_StdPeriph_Driver/src/stm32f4xx_tim.c ****   {      
 396              		.loc 1 219 8 view .LVU86
 224:../Libraries/STM32F4xx_StdPeriph_Driver/src/stm32f4xx_tim.c ****   {    
 397              		.loc 1 224 8 view .LVU87
 226:../Libraries/STM32F4xx_StdPeriph_Driver/src/stm32f4xx_tim.c ****     RCC_APB1PeriphResetCmd(RCC_APB1Periph_TIM6, DISABLE);
 398              		.loc 1 226 5 view .LVU88
 399 0110 0121     		movs	r1, #1	@,
 400 0112 1020     		movs	r0, #16	@,
 401 0114 FFF7FEFF 		bl	RCC_APB1PeriphResetCmd		@
 402              	.LVL30:
 227:../Libraries/STM32F4xx_StdPeriph_Driver/src/stm32f4xx_tim.c ****   }  
 403              		.loc 1 227 5 view .LVU89
 404              	@ ../Libraries/STM32F4xx_StdPeriph_Driver/src/stm32f4xx_tim.c:272: }
 405              		.loc 1 272 1 is_stmt 0 view .LVU90
 406 0118 BDE83840 		pop	{r3, r4, r5, lr}	@
 407              		.cfi_remember_state
 408              		.cfi_restore 14
 409              		.cfi_restore 5
 410              		.cfi_restore 4
 411              		.cfi_restore 3
 412              		.cfi_def_cfa_offset 0
 413              	.LVL31:
 414              	@ ../Libraries/STM32F4xx_StdPeriph_Driver/src/stm32f4xx_tim.c:227:     RCC_APB1PeriphResetCmd(RCC_A
 227:../Libraries/STM32F4xx_StdPeriph_Driver/src/stm32f4xx_tim.c ****   }  
 415              		.loc 1 227 5 view .LVU91
 416 011c 0021     		movs	r1, #0	@,
 417 011e 1020     		movs	r0, #16	@,
ARM GAS  C:\Users\admin\AppData\Local\Temp\ccu1qHez.s 			page 14


 418 0120 FFF7FEBF 		b	RCC_APB1PeriphResetCmd		@
 419              	.LVL32:
 420              	.L8:
 421              		.cfi_restore_state
 422              	@ ../Libraries/STM32F4xx_StdPeriph_Driver/src/stm32f4xx_tim.c:197:   assert_param(IS_TIM_ALL_PERIPH
 197:../Libraries/STM32F4xx_StdPeriph_Driver/src/stm32f4xx_tim.c ****  
 423              		.loc 1 197 3 view .LVU92
 424 0124 0120     		movs	r0, #1	@,
 425              	.LVL33:
 197:../Libraries/STM32F4xx_StdPeriph_Driver/src/stm32f4xx_tim.c ****  
 426              		.loc 1 197 3 view .LVU93
 427 0126 FFF7FEFF 		bl	assert_param		@
 428              	.LVL34:
 199:../Libraries/STM32F4xx_StdPeriph_Driver/src/stm32f4xx_tim.c ****   {
 429              		.loc 1 199 3 is_stmt 1 view .LVU94
 204:../Libraries/STM32F4xx_StdPeriph_Driver/src/stm32f4xx_tim.c ****   {     
 430              		.loc 1 204 8 view .LVU95
 209:../Libraries/STM32F4xx_StdPeriph_Driver/src/stm32f4xx_tim.c ****   { 
 431              		.loc 1 209 8 view .LVU96
 214:../Libraries/STM32F4xx_StdPeriph_Driver/src/stm32f4xx_tim.c ****   { 
 432              		.loc 1 214 8 view .LVU97
 219:../Libraries/STM32F4xx_StdPeriph_Driver/src/stm32f4xx_tim.c ****   {      
 433              		.loc 1 219 8 view .LVU98
 224:../Libraries/STM32F4xx_StdPeriph_Driver/src/stm32f4xx_tim.c ****   {    
 434              		.loc 1 224 8 view .LVU99
 229:../Libraries/STM32F4xx_StdPeriph_Driver/src/stm32f4xx_tim.c ****   {      
 435              		.loc 1 229 8 view .LVU100
 231:../Libraries/STM32F4xx_StdPeriph_Driver/src/stm32f4xx_tim.c ****     RCC_APB1PeriphResetCmd(RCC_APB1Periph_TIM7, DISABLE);
 436              		.loc 1 231 5 view .LVU101
 437 012a 0121     		movs	r1, #1	@,
 438 012c 2020     		movs	r0, #32	@,
 439 012e FFF7FEFF 		bl	RCC_APB1PeriphResetCmd		@
 440              	.LVL35:
 232:../Libraries/STM32F4xx_StdPeriph_Driver/src/stm32f4xx_tim.c ****   }  
 441              		.loc 1 232 5 view .LVU102
 442              	@ ../Libraries/STM32F4xx_StdPeriph_Driver/src/stm32f4xx_tim.c:272: }
 443              		.loc 1 272 1 is_stmt 0 view .LVU103
 444 0132 BDE83840 		pop	{r3, r4, r5, lr}	@
 445              		.cfi_remember_state
 446              		.cfi_restore 14
 447              		.cfi_restore 5
 448              		.cfi_restore 4
 449              		.cfi_restore 3
 450              		.cfi_def_cfa_offset 0
 451              	.LVL36:
 452              	@ ../Libraries/STM32F4xx_StdPeriph_Driver/src/stm32f4xx_tim.c:232:     RCC_APB1PeriphResetCmd(RCC_A
 232:../Libraries/STM32F4xx_StdPeriph_Driver/src/stm32f4xx_tim.c ****   }  
 453              		.loc 1 232 5 view .LVU104
 454 0136 0021     		movs	r1, #0	@,
 455 0138 2020     		movs	r0, #32	@,
 456 013a FFF7FEBF 		b	RCC_APB1PeriphResetCmd		@
 457              	.LVL37:
 458              	.L10:
 459              		.cfi_restore_state
 460              	@ ../Libraries/STM32F4xx_StdPeriph_Driver/src/stm32f4xx_tim.c:197:   assert_param(IS_TIM_ALL_PERIPH
 197:../Libraries/STM32F4xx_StdPeriph_Driver/src/stm32f4xx_tim.c ****  
 461              		.loc 1 197 3 view .LVU105
ARM GAS  C:\Users\admin\AppData\Local\Temp\ccu1qHez.s 			page 15


 462 013e 0120     		movs	r0, #1	@,
 463              	.LVL38:
 197:../Libraries/STM32F4xx_StdPeriph_Driver/src/stm32f4xx_tim.c ****  
 464              		.loc 1 197 3 view .LVU106
 465 0140 FFF7FEFF 		bl	assert_param		@
 466              	.LVL39:
 199:../Libraries/STM32F4xx_StdPeriph_Driver/src/stm32f4xx_tim.c ****   {
 467              		.loc 1 199 3 is_stmt 1 view .LVU107
 204:../Libraries/STM32F4xx_StdPeriph_Driver/src/stm32f4xx_tim.c ****   {     
 468              		.loc 1 204 8 view .LVU108
 209:../Libraries/STM32F4xx_StdPeriph_Driver/src/stm32f4xx_tim.c ****   { 
 469              		.loc 1 209 8 view .LVU109
 214:../Libraries/STM32F4xx_StdPeriph_Driver/src/stm32f4xx_tim.c ****   { 
 470              		.loc 1 214 8 view .LVU110
 219:../Libraries/STM32F4xx_StdPeriph_Driver/src/stm32f4xx_tim.c ****   {      
 471              		.loc 1 219 8 view .LVU111
 224:../Libraries/STM32F4xx_StdPeriph_Driver/src/stm32f4xx_tim.c ****   {    
 472              		.loc 1 224 8 view .LVU112
 229:../Libraries/STM32F4xx_StdPeriph_Driver/src/stm32f4xx_tim.c ****   {      
 473              		.loc 1 229 8 view .LVU113
 234:../Libraries/STM32F4xx_StdPeriph_Driver/src/stm32f4xx_tim.c ****   {      
 474              		.loc 1 234 8 view .LVU114
 239:../Libraries/STM32F4xx_StdPeriph_Driver/src/stm32f4xx_tim.c ****   {      
 475              		.loc 1 239 8 view .LVU115
 241:../Libraries/STM32F4xx_StdPeriph_Driver/src/stm32f4xx_tim.c ****     RCC_APB2PeriphResetCmd(RCC_APB2Periph_TIM9, DISABLE);  
 476              		.loc 1 241 5 view .LVU116
 477 0144 0121     		movs	r1, #1	@,
 478 0146 4FF48030 		mov	r0, #65536	@,
 479 014a FFF7FEFF 		bl	RCC_APB2PeriphResetCmd		@
 480              	.LVL40:
 242:../Libraries/STM32F4xx_StdPeriph_Driver/src/stm32f4xx_tim.c ****    }  
 481              		.loc 1 242 5 view .LVU117
 482              	@ ../Libraries/STM32F4xx_StdPeriph_Driver/src/stm32f4xx_tim.c:272: }
 483              		.loc 1 272 1 is_stmt 0 view .LVU118
 484 014e BDE83840 		pop	{r3, r4, r5, lr}	@
 485              		.cfi_remember_state
 486              		.cfi_restore 14
 487              		.cfi_restore 5
 488              		.cfi_restore 4
 489              		.cfi_restore 3
 490              		.cfi_def_cfa_offset 0
 491              	.LVL41:
 492              	@ ../Libraries/STM32F4xx_StdPeriph_Driver/src/stm32f4xx_tim.c:242:     RCC_APB2PeriphResetCmd(RCC_A
 242:../Libraries/STM32F4xx_StdPeriph_Driver/src/stm32f4xx_tim.c ****    }  
 493              		.loc 1 242 5 view .LVU119
 494 0152 0021     		movs	r1, #0	@,
 495 0154 4FF48030 		mov	r0, #65536	@,
 496 0158 FFF7FEBF 		b	RCC_APB2PeriphResetCmd		@
 497              	.LVL42:
 498              	.L9:
 499              		.cfi_restore_state
 500              	@ ../Libraries/STM32F4xx_StdPeriph_Driver/src/stm32f4xx_tim.c:197:   assert_param(IS_TIM_ALL_PERIPH
 197:../Libraries/STM32F4xx_StdPeriph_Driver/src/stm32f4xx_tim.c ****  
 501              		.loc 1 197 3 view .LVU120
 502 015c 0120     		movs	r0, #1	@,
 503              	.LVL43:
 197:../Libraries/STM32F4xx_StdPeriph_Driver/src/stm32f4xx_tim.c ****  
ARM GAS  C:\Users\admin\AppData\Local\Temp\ccu1qHez.s 			page 16


 504              		.loc 1 197 3 view .LVU121
 505 015e FFF7FEFF 		bl	assert_param		@
 506              	.LVL44:
 199:../Libraries/STM32F4xx_StdPeriph_Driver/src/stm32f4xx_tim.c ****   {
 507              		.loc 1 199 3 is_stmt 1 view .LVU122
 204:../Libraries/STM32F4xx_StdPeriph_Driver/src/stm32f4xx_tim.c ****   {     
 508              		.loc 1 204 8 view .LVU123
 209:../Libraries/STM32F4xx_StdPeriph_Driver/src/stm32f4xx_tim.c ****   { 
 509              		.loc 1 209 8 view .LVU124
 214:../Libraries/STM32F4xx_StdPeriph_Driver/src/stm32f4xx_tim.c ****   { 
 510              		.loc 1 214 8 view .LVU125
 219:../Libraries/STM32F4xx_StdPeriph_Driver/src/stm32f4xx_tim.c ****   {      
 511              		.loc 1 219 8 view .LVU126
 224:../Libraries/STM32F4xx_StdPeriph_Driver/src/stm32f4xx_tim.c ****   {    
 512              		.loc 1 224 8 view .LVU127
 229:../Libraries/STM32F4xx_StdPeriph_Driver/src/stm32f4xx_tim.c ****   {      
 513              		.loc 1 229 8 view .LVU128
 234:../Libraries/STM32F4xx_StdPeriph_Driver/src/stm32f4xx_tim.c ****   {      
 514              		.loc 1 234 8 view .LVU129
 236:../Libraries/STM32F4xx_StdPeriph_Driver/src/stm32f4xx_tim.c ****     RCC_APB2PeriphResetCmd(RCC_APB2Periph_TIM8, DISABLE);  
 515              		.loc 1 236 5 view .LVU130
 516 0162 0121     		movs	r1, #1	@,
 517 0164 0220     		movs	r0, #2	@,
 518 0166 FFF7FEFF 		bl	RCC_APB2PeriphResetCmd		@
 519              	.LVL45:
 237:../Libraries/STM32F4xx_StdPeriph_Driver/src/stm32f4xx_tim.c ****   }  
 520              		.loc 1 237 5 view .LVU131
 521              	@ ../Libraries/STM32F4xx_StdPeriph_Driver/src/stm32f4xx_tim.c:272: }
 522              		.loc 1 272 1 is_stmt 0 view .LVU132
 523 016a BDE83840 		pop	{r3, r4, r5, lr}	@
 524              		.cfi_remember_state
 525              		.cfi_restore 14
 526              		.cfi_restore 5
 527              		.cfi_restore 4
 528              		.cfi_restore 3
 529              		.cfi_def_cfa_offset 0
 530              	.LVL46:
 531              	@ ../Libraries/STM32F4xx_StdPeriph_Driver/src/stm32f4xx_tim.c:237:     RCC_APB2PeriphResetCmd(RCC_A
 237:../Libraries/STM32F4xx_StdPeriph_Driver/src/stm32f4xx_tim.c ****   }  
 532              		.loc 1 237 5 view .LVU133
 533 016e 0021     		movs	r1, #0	@,
 534 0170 0220     		movs	r0, #2	@,
 535 0172 FFF7FEBF 		b	RCC_APB2PeriphResetCmd		@
 536              	.LVL47:
 537              	.L11:
 538              		.cfi_restore_state
 539              	@ ../Libraries/STM32F4xx_StdPeriph_Driver/src/stm32f4xx_tim.c:197:   assert_param(IS_TIM_ALL_PERIPH
 197:../Libraries/STM32F4xx_StdPeriph_Driver/src/stm32f4xx_tim.c ****  
 540              		.loc 1 197 3 view .LVU134
 541 0176 0120     		movs	r0, #1	@,
 542              	.LVL48:
 197:../Libraries/STM32F4xx_StdPeriph_Driver/src/stm32f4xx_tim.c ****  
 543              		.loc 1 197 3 view .LVU135
 544 0178 FFF7FEFF 		bl	assert_param		@
 545              	.LVL49:
 199:../Libraries/STM32F4xx_StdPeriph_Driver/src/stm32f4xx_tim.c ****   {
 546              		.loc 1 199 3 is_stmt 1 view .LVU136
ARM GAS  C:\Users\admin\AppData\Local\Temp\ccu1qHez.s 			page 17


 204:../Libraries/STM32F4xx_StdPeriph_Driver/src/stm32f4xx_tim.c ****   {     
 547              		.loc 1 204 8 view .LVU137
 246:../Libraries/STM32F4xx_StdPeriph_Driver/src/stm32f4xx_tim.c ****     RCC_APB2PeriphResetCmd(RCC_APB2Periph_TIM10, DISABLE);  
 548              		.loc 1 246 5 view .LVU138
 549 017c 0121     		movs	r1, #1	@,
 550 017e 4FF40030 		mov	r0, #131072	@,
 551 0182 FFF7FEFF 		bl	RCC_APB2PeriphResetCmd		@
 552              	.LVL50:
 247:../Libraries/STM32F4xx_StdPeriph_Driver/src/stm32f4xx_tim.c ****   }  
 553              		.loc 1 247 5 view .LVU139
 554              	@ ../Libraries/STM32F4xx_StdPeriph_Driver/src/stm32f4xx_tim.c:272: }
 555              		.loc 1 272 1 is_stmt 0 view .LVU140
 556 0186 BDE83840 		pop	{r3, r4, r5, lr}	@
 557              		.cfi_remember_state
 558              		.cfi_restore 14
 559              		.cfi_restore 5
 560              		.cfi_restore 4
 561              		.cfi_restore 3
 562              		.cfi_def_cfa_offset 0
 563              	.LVL51:
 564              	@ ../Libraries/STM32F4xx_StdPeriph_Driver/src/stm32f4xx_tim.c:247:     RCC_APB2PeriphResetCmd(RCC_A
 247:../Libraries/STM32F4xx_StdPeriph_Driver/src/stm32f4xx_tim.c ****   }  
 565              		.loc 1 247 5 view .LVU141
 566 018a 0021     		movs	r1, #0	@,
 567 018c 4FF40030 		mov	r0, #131072	@,
 568 0190 FFF7FEBF 		b	RCC_APB2PeriphResetCmd		@
 569              	.LVL52:
 570              	.L12:
 571              		.cfi_restore_state
 572              	@ ../Libraries/STM32F4xx_StdPeriph_Driver/src/stm32f4xx_tim.c:197:   assert_param(IS_TIM_ALL_PERIPH
 197:../Libraries/STM32F4xx_StdPeriph_Driver/src/stm32f4xx_tim.c ****  
 573              		.loc 1 197 3 view .LVU142
 574 0194 0120     		movs	r0, #1	@,
 575              	.LVL53:
 197:../Libraries/STM32F4xx_StdPeriph_Driver/src/stm32f4xx_tim.c ****  
 576              		.loc 1 197 3 view .LVU143
 577 0196 FFF7FEFF 		bl	assert_param		@
 578              	.LVL54:
 199:../Libraries/STM32F4xx_StdPeriph_Driver/src/stm32f4xx_tim.c ****   {
 579              		.loc 1 199 3 is_stmt 1 view .LVU144
 204:../Libraries/STM32F4xx_StdPeriph_Driver/src/stm32f4xx_tim.c ****   {     
 580              		.loc 1 204 8 view .LVU145
 209:../Libraries/STM32F4xx_StdPeriph_Driver/src/stm32f4xx_tim.c ****   { 
 581              		.loc 1 209 8 view .LVU146
 214:../Libraries/STM32F4xx_StdPeriph_Driver/src/stm32f4xx_tim.c ****   { 
 582              		.loc 1 214 8 view .LVU147
 219:../Libraries/STM32F4xx_StdPeriph_Driver/src/stm32f4xx_tim.c ****   {      
 583              		.loc 1 219 8 view .LVU148
 224:../Libraries/STM32F4xx_StdPeriph_Driver/src/stm32f4xx_tim.c ****   {    
 584              		.loc 1 224 8 view .LVU149
 229:../Libraries/STM32F4xx_StdPeriph_Driver/src/stm32f4xx_tim.c ****   {      
 585              		.loc 1 229 8 view .LVU150
 234:../Libraries/STM32F4xx_StdPeriph_Driver/src/stm32f4xx_tim.c ****   {      
 586              		.loc 1 234 8 view .LVU151
 239:../Libraries/STM32F4xx_StdPeriph_Driver/src/stm32f4xx_tim.c ****   {      
 587              		.loc 1 239 8 view .LVU152
 244:../Libraries/STM32F4xx_StdPeriph_Driver/src/stm32f4xx_tim.c ****   {      
ARM GAS  C:\Users\admin\AppData\Local\Temp\ccu1qHez.s 			page 18


 588              		.loc 1 244 8 view .LVU153
 249:../Libraries/STM32F4xx_StdPeriph_Driver/src/stm32f4xx_tim.c ****   {     
 589              		.loc 1 249 8 view .LVU154
 251:../Libraries/STM32F4xx_StdPeriph_Driver/src/stm32f4xx_tim.c ****     RCC_APB2PeriphResetCmd(RCC_APB2Periph_TIM11, DISABLE);  
 590              		.loc 1 251 5 view .LVU155
 591 019a 0121     		movs	r1, #1	@,
 592 019c 4FF48020 		mov	r0, #262144	@,
 593 01a0 FFF7FEFF 		bl	RCC_APB2PeriphResetCmd		@
 594              	.LVL55:
 252:../Libraries/STM32F4xx_StdPeriph_Driver/src/stm32f4xx_tim.c ****   }  
 595              		.loc 1 252 5 view .LVU156
 596              	@ ../Libraries/STM32F4xx_StdPeriph_Driver/src/stm32f4xx_tim.c:272: }
 597              		.loc 1 272 1 is_stmt 0 view .LVU157
 598 01a4 BDE83840 		pop	{r3, r4, r5, lr}	@
 599              		.cfi_remember_state
 600              		.cfi_restore 14
 601              		.cfi_restore 5
 602              		.cfi_restore 4
 603              		.cfi_restore 3
 604              		.cfi_def_cfa_offset 0
 605              	.LVL56:
 606              	@ ../Libraries/STM32F4xx_StdPeriph_Driver/src/stm32f4xx_tim.c:252:     RCC_APB2PeriphResetCmd(RCC_A
 252:../Libraries/STM32F4xx_StdPeriph_Driver/src/stm32f4xx_tim.c ****   }  
 607              		.loc 1 252 5 view .LVU158
 608 01a8 0021     		movs	r1, #0	@,
 609 01aa 4FF48020 		mov	r0, #262144	@,
 610 01ae FFF7FEBF 		b	RCC_APB2PeriphResetCmd		@
 611              	.LVL57:
 612              	.L13:
 613              		.cfi_restore_state
 614              	@ ../Libraries/STM32F4xx_StdPeriph_Driver/src/stm32f4xx_tim.c:197:   assert_param(IS_TIM_ALL_PERIPH
 197:../Libraries/STM32F4xx_StdPeriph_Driver/src/stm32f4xx_tim.c ****  
 615              		.loc 1 197 3 view .LVU159
 616 01b2 0120     		movs	r0, #1	@,
 617              	.LVL58:
 197:../Libraries/STM32F4xx_StdPeriph_Driver/src/stm32f4xx_tim.c ****  
 618              		.loc 1 197 3 view .LVU160
 619 01b4 FFF7FEFF 		bl	assert_param		@
 620              	.LVL59:
 199:../Libraries/STM32F4xx_StdPeriph_Driver/src/stm32f4xx_tim.c ****   {
 621              		.loc 1 199 3 is_stmt 1 view .LVU161
 204:../Libraries/STM32F4xx_StdPeriph_Driver/src/stm32f4xx_tim.c ****   {     
 622              		.loc 1 204 8 view .LVU162
 209:../Libraries/STM32F4xx_StdPeriph_Driver/src/stm32f4xx_tim.c ****   { 
 623              		.loc 1 209 8 view .LVU163
 214:../Libraries/STM32F4xx_StdPeriph_Driver/src/stm32f4xx_tim.c ****   { 
 624              		.loc 1 214 8 view .LVU164
 219:../Libraries/STM32F4xx_StdPeriph_Driver/src/stm32f4xx_tim.c ****   {      
 625              		.loc 1 219 8 view .LVU165
 224:../Libraries/STM32F4xx_StdPeriph_Driver/src/stm32f4xx_tim.c ****   {    
 626              		.loc 1 224 8 view .LVU166
 229:../Libraries/STM32F4xx_StdPeriph_Driver/src/stm32f4xx_tim.c ****   {      
 627              		.loc 1 229 8 view .LVU167
 234:../Libraries/STM32F4xx_StdPeriph_Driver/src/stm32f4xx_tim.c ****   {      
 628              		.loc 1 234 8 view .LVU168
 239:../Libraries/STM32F4xx_StdPeriph_Driver/src/stm32f4xx_tim.c ****   {      
 629              		.loc 1 239 8 view .LVU169
ARM GAS  C:\Users\admin\AppData\Local\Temp\ccu1qHez.s 			page 19


 244:../Libraries/STM32F4xx_StdPeriph_Driver/src/stm32f4xx_tim.c ****   {      
 630              		.loc 1 244 8 view .LVU170
 249:../Libraries/STM32F4xx_StdPeriph_Driver/src/stm32f4xx_tim.c ****   {     
 631              		.loc 1 249 8 view .LVU171
 254:../Libraries/STM32F4xx_StdPeriph_Driver/src/stm32f4xx_tim.c ****   {      
 632              		.loc 1 254 8 view .LVU172
 256:../Libraries/STM32F4xx_StdPeriph_Driver/src/stm32f4xx_tim.c ****     RCC_APB1PeriphResetCmd(RCC_APB1Periph_TIM12, DISABLE);  
 633              		.loc 1 256 5 view .LVU173
 634 01b8 0121     		movs	r1, #1	@,
 635 01ba 4020     		movs	r0, #64	@,
 636 01bc FFF7FEFF 		bl	RCC_APB1PeriphResetCmd		@
 637              	.LVL60:
 257:../Libraries/STM32F4xx_StdPeriph_Driver/src/stm32f4xx_tim.c ****   }  
 638              		.loc 1 257 5 view .LVU174
 639              	@ ../Libraries/STM32F4xx_StdPeriph_Driver/src/stm32f4xx_tim.c:272: }
 640              		.loc 1 272 1 is_stmt 0 view .LVU175
 641 01c0 BDE83840 		pop	{r3, r4, r5, lr}	@
 642              		.cfi_remember_state
 643              		.cfi_restore 14
 644              		.cfi_restore 5
 645              		.cfi_restore 4
 646              		.cfi_restore 3
 647              		.cfi_def_cfa_offset 0
 648              	.LVL61:
 649              	@ ../Libraries/STM32F4xx_StdPeriph_Driver/src/stm32f4xx_tim.c:257:     RCC_APB1PeriphResetCmd(RCC_A
 257:../Libraries/STM32F4xx_StdPeriph_Driver/src/stm32f4xx_tim.c ****   }  
 650              		.loc 1 257 5 view .LVU176
 651 01c4 0021     		movs	r1, #0	@,
 652 01c6 4020     		movs	r0, #64	@,
 653 01c8 FFF7FEBF 		b	RCC_APB1PeriphResetCmd		@
 654              	.LVL62:
 655              	.L14:
 656              		.cfi_restore_state
 657              	@ ../Libraries/STM32F4xx_StdPeriph_Driver/src/stm32f4xx_tim.c:197:   assert_param(IS_TIM_ALL_PERIPH
 197:../Libraries/STM32F4xx_StdPeriph_Driver/src/stm32f4xx_tim.c ****  
 658              		.loc 1 197 3 view .LVU177
 659 01cc 0120     		movs	r0, #1	@,
 660              	.LVL63:
 197:../Libraries/STM32F4xx_StdPeriph_Driver/src/stm32f4xx_tim.c ****  
 661              		.loc 1 197 3 view .LVU178
 662 01ce FFF7FEFF 		bl	assert_param		@
 663              	.LVL64:
 199:../Libraries/STM32F4xx_StdPeriph_Driver/src/stm32f4xx_tim.c ****   {
 664              		.loc 1 199 3 is_stmt 1 view .LVU179
 204:../Libraries/STM32F4xx_StdPeriph_Driver/src/stm32f4xx_tim.c ****   {     
 665              		.loc 1 204 8 view .LVU180
 209:../Libraries/STM32F4xx_StdPeriph_Driver/src/stm32f4xx_tim.c ****   { 
 666              		.loc 1 209 8 view .LVU181
 214:../Libraries/STM32F4xx_StdPeriph_Driver/src/stm32f4xx_tim.c ****   { 
 667              		.loc 1 214 8 view .LVU182
 219:../Libraries/STM32F4xx_StdPeriph_Driver/src/stm32f4xx_tim.c ****   {      
 668              		.loc 1 219 8 view .LVU183
 224:../Libraries/STM32F4xx_StdPeriph_Driver/src/stm32f4xx_tim.c ****   {    
 669              		.loc 1 224 8 view .LVU184
 229:../Libraries/STM32F4xx_StdPeriph_Driver/src/stm32f4xx_tim.c ****   {      
 670              		.loc 1 229 8 view .LVU185
 234:../Libraries/STM32F4xx_StdPeriph_Driver/src/stm32f4xx_tim.c ****   {      
ARM GAS  C:\Users\admin\AppData\Local\Temp\ccu1qHez.s 			page 20


 671              		.loc 1 234 8 view .LVU186
 239:../Libraries/STM32F4xx_StdPeriph_Driver/src/stm32f4xx_tim.c ****   {      
 672              		.loc 1 239 8 view .LVU187
 244:../Libraries/STM32F4xx_StdPeriph_Driver/src/stm32f4xx_tim.c ****   {      
 673              		.loc 1 244 8 view .LVU188
 249:../Libraries/STM32F4xx_StdPeriph_Driver/src/stm32f4xx_tim.c ****   {     
 674              		.loc 1 249 8 view .LVU189
 254:../Libraries/STM32F4xx_StdPeriph_Driver/src/stm32f4xx_tim.c ****   {      
 675              		.loc 1 254 8 view .LVU190
 259:../Libraries/STM32F4xx_StdPeriph_Driver/src/stm32f4xx_tim.c ****   {       
 676              		.loc 1 259 8 view .LVU191
 261:../Libraries/STM32F4xx_StdPeriph_Driver/src/stm32f4xx_tim.c ****     RCC_APB1PeriphResetCmd(RCC_APB1Periph_TIM13, DISABLE);  
 677              		.loc 1 261 5 view .LVU192
 678 01d2 0121     		movs	r1, #1	@,
 679 01d4 8020     		movs	r0, #128	@,
 680 01d6 FFF7FEFF 		bl	RCC_APB1PeriphResetCmd		@
 681              	.LVL65:
 262:../Libraries/STM32F4xx_StdPeriph_Driver/src/stm32f4xx_tim.c ****   }  
 682              		.loc 1 262 5 view .LVU193
 683              	@ ../Libraries/STM32F4xx_StdPeriph_Driver/src/stm32f4xx_tim.c:272: }
 684              		.loc 1 272 1 is_stmt 0 view .LVU194
 685 01da BDE83840 		pop	{r3, r4, r5, lr}	@
 686              		.cfi_remember_state
 687              		.cfi_restore 14
 688              		.cfi_restore 5
 689              		.cfi_restore 4
 690              		.cfi_restore 3
 691              		.cfi_def_cfa_offset 0
 692              	.LVL66:
 693              	@ ../Libraries/STM32F4xx_StdPeriph_Driver/src/stm32f4xx_tim.c:262:     RCC_APB1PeriphResetCmd(RCC_A
 262:../Libraries/STM32F4xx_StdPeriph_Driver/src/stm32f4xx_tim.c ****   }  
 694              		.loc 1 262 5 view .LVU195
 695 01de 0021     		movs	r1, #0	@,
 696 01e0 8020     		movs	r0, #128	@,
 697 01e2 FFF7FEBF 		b	RCC_APB1PeriphResetCmd		@
 698              	.LVL67:
 699              	.L18:
 700              		.cfi_restore_state
 268:../Libraries/STM32F4xx_StdPeriph_Driver/src/stm32f4xx_tim.c ****       RCC_APB1PeriphResetCmd(RCC_APB1Periph_TIM14, DISABLE); 
 701              		.loc 1 268 7 is_stmt 1 view .LVU196
 702 01e6 0121     		movs	r1, #1	@,
 703 01e8 4FF48070 		mov	r0, #256	@,
 704 01ec FFF7FEFF 		bl	RCC_APB1PeriphResetCmd		@
 705              	.LVL68:
 269:../Libraries/STM32F4xx_StdPeriph_Driver/src/stm32f4xx_tim.c ****     }   
 706              		.loc 1 269 7 view .LVU197
 707              	@ ../Libraries/STM32F4xx_StdPeriph_Driver/src/stm32f4xx_tim.c:272: }
 708              		.loc 1 272 1 is_stmt 0 view .LVU198
 709 01f0 BDE83840 		pop	{r3, r4, r5, lr}	@
 710              		.cfi_restore 14
 711              		.cfi_restore 5
 712              		.cfi_restore 4
 713              		.cfi_restore 3
 714              		.cfi_def_cfa_offset 0
 715              	.LVL69:
 716              	@ ../Libraries/STM32F4xx_StdPeriph_Driver/src/stm32f4xx_tim.c:269:       RCC_APB1PeriphResetCmd(RCC
 269:../Libraries/STM32F4xx_StdPeriph_Driver/src/stm32f4xx_tim.c ****     }   
ARM GAS  C:\Users\admin\AppData\Local\Temp\ccu1qHez.s 			page 21


 717              		.loc 1 269 7 view .LVU199
 718 01f4 0021     		movs	r1, #0	@,
 719 01f6 4FF48070 		mov	r0, #256	@,
 720 01fa FFF7FEBF 		b	RCC_APB1PeriphResetCmd		@
 721              	.LVL70:
 722              	.L20:
 723 01fe 00BF     		.align	2
 724              	.L19:
 725 0200 00000140 		.word	1073807360
 726 0204 00200040 		.word	1073750016
 727              		.cfi_endproc
 728              	.LFE110:
 729              		.size	TIM_DeInit, .-TIM_DeInit
 730              		.section	.text.TIM_TimeBaseInit,"ax",%progbits
 731              		.align	1
 732              		.p2align 2,,3
 733              		.global	TIM_TimeBaseInit
 734              		.syntax unified
 735              		.thumb
 736              		.thumb_func
 737              		.type	TIM_TimeBaseInit, %function
 738              	TIM_TimeBaseInit:
 739              	.LVL71:
 740              	.LFB111:
 273:../Libraries/STM32F4xx_StdPeriph_Driver/src/stm32f4xx_tim.c **** 
 274:../Libraries/STM32F4xx_StdPeriph_Driver/src/stm32f4xx_tim.c **** /**
 275:../Libraries/STM32F4xx_StdPeriph_Driver/src/stm32f4xx_tim.c ****   * @brief  Initializes the TIMx Time Base Unit peripheral according to 
 276:../Libraries/STM32F4xx_StdPeriph_Driver/src/stm32f4xx_tim.c ****   *         the specified parameters in the TIM_TimeBaseInitStruct.
 277:../Libraries/STM32F4xx_StdPeriph_Driver/src/stm32f4xx_tim.c ****   * @param  TIMx: where x can be  1 to 14 to select the TIM peripheral.
 278:../Libraries/STM32F4xx_StdPeriph_Driver/src/stm32f4xx_tim.c ****   * @param  TIM_TimeBaseInitStruct: pointer to a TIM_TimeBaseInitTypeDef structure
 279:../Libraries/STM32F4xx_StdPeriph_Driver/src/stm32f4xx_tim.c ****   *         that contains the configuration information for the specified TIM peripheral.
 280:../Libraries/STM32F4xx_StdPeriph_Driver/src/stm32f4xx_tim.c ****   * @retval None
 281:../Libraries/STM32F4xx_StdPeriph_Driver/src/stm32f4xx_tim.c ****   */
 282:../Libraries/STM32F4xx_StdPeriph_Driver/src/stm32f4xx_tim.c **** void TIM_TimeBaseInit(TIM_TypeDef* TIMx, TIM_TimeBaseInitTypeDef* TIM_TimeBaseInitStruct)
 283:../Libraries/STM32F4xx_StdPeriph_Driver/src/stm32f4xx_tim.c **** {
 741              		.loc 1 283 1 is_stmt 1 view -0
 742              		.cfi_startproc
 743              		@ args = 0, pretend = 0, frame = 0
 744              		@ frame_needed = 0, uses_anonymous_args = 0
 284:../Libraries/STM32F4xx_StdPeriph_Driver/src/stm32f4xx_tim.c ****   uint16_t tmpcr1 = 0;
 745              		.loc 1 284 3 view .LVU201
 285:../Libraries/STM32F4xx_StdPeriph_Driver/src/stm32f4xx_tim.c **** 
 286:../Libraries/STM32F4xx_StdPeriph_Driver/src/stm32f4xx_tim.c ****   /* Check the parameters */
 287:../Libraries/STM32F4xx_StdPeriph_Driver/src/stm32f4xx_tim.c ****   assert_param(IS_TIM_ALL_PERIPH(TIMx)); 
 746              		.loc 1 287 3 view .LVU202
 747              	@ ../Libraries/STM32F4xx_StdPeriph_Driver/src/stm32f4xx_tim.c:283: {
 283:../Libraries/STM32F4xx_StdPeriph_Driver/src/stm32f4xx_tim.c ****   uint16_t tmpcr1 = 0;
 748              		.loc 1 283 1 is_stmt 0 view .LVU203
 749 0000 38B5     		push	{r3, r4, r5, lr}	@
 750              		.cfi_def_cfa_offset 16
 751              		.cfi_offset 3, -16
 752              		.cfi_offset 4, -12
 753              		.cfi_offset 5, -8
 754              		.cfi_offset 14, -4
 755              	@ ../Libraries/STM32F4xx_StdPeriph_Driver/src/stm32f4xx_tim.c:287:   assert_param(IS_TIM_ALL_PERIPH
 756              		.loc 1 287 3 view .LVU204
 757 0002 524B     		ldr	r3, .L54	@ tmp140,
ARM GAS  C:\Users\admin\AppData\Local\Temp\ccu1qHez.s 			page 22


 758 0004 9842     		cmp	r0, r3	@ TIMx, tmp140
 759              	@ ../Libraries/STM32F4xx_StdPeriph_Driver/src/stm32f4xx_tim.c:283: {
 283:../Libraries/STM32F4xx_StdPeriph_Driver/src/stm32f4xx_tim.c ****   uint16_t tmpcr1 = 0;
 760              		.loc 1 283 1 view .LVU205
 761 0006 0446     		mov	r4, r0	@ TIMx, tmp200
 762 0008 0D46     		mov	r5, r1	@ TIM_TimeBaseInitStruct, tmp201
 763              	@ ../Libraries/STM32F4xx_StdPeriph_Driver/src/stm32f4xx_tim.c:287:   assert_param(IS_TIM_ALL_PERIPH
 764              		.loc 1 287 3 view .LVU206
 765 000a 34D0     		beq	.L44		@,
 766              	@ ../Libraries/STM32F4xx_StdPeriph_Driver/src/stm32f4xx_tim.c:287:   assert_param(IS_TIM_ALL_PERIPH
 767              		.loc 1 287 16 discriminator 2 view .LVU207
 768 000c B0F1804F 		cmp	r0, #1073741824	@ TIMx,
 769 0010 31D0     		beq	.L44		@,
 770              	@ ../Libraries/STM32F4xx_StdPeriph_Driver/src/stm32f4xx_tim.c:287:   assert_param(IS_TIM_ALL_PERIPH
 771              		.loc 1 287 16 discriminator 4 view .LVU208
 772 0012 A3F57C43 		sub	r3, r3, #64512	@ tmp141, tmp141,
 773 0016 9842     		cmp	r0, r3	@ TIMx, tmp141
 774 0018 2DD0     		beq	.L44		@,
 775              	@ ../Libraries/STM32F4xx_StdPeriph_Driver/src/stm32f4xx_tim.c:287:   assert_param(IS_TIM_ALL_PERIPH
 776              		.loc 1 287 16 discriminator 6 view .LVU209
 777 001a 03F58063 		add	r3, r3, #1024	@ tmp142, tmp142,
 778 001e 9842     		cmp	r0, r3	@ TIMx, tmp142
 779 0020 29D0     		beq	.L44		@,
 780              	@ ../Libraries/STM32F4xx_StdPeriph_Driver/src/stm32f4xx_tim.c:287:   assert_param(IS_TIM_ALL_PERIPH
 781              		.loc 1 287 16 discriminator 8 view .LVU210
 782 0022 03F58063 		add	r3, r3, #1024	@ tmp143, tmp143,
 783 0026 9842     		cmp	r0, r3	@ TIMx, tmp143
 784 0028 25D0     		beq	.L44		@,
 785              	@ ../Libraries/STM32F4xx_StdPeriph_Driver/src/stm32f4xx_tim.c:287:   assert_param(IS_TIM_ALL_PERIPH
 786              		.loc 1 287 16 discriminator 10 view .LVU211
 787 002a 03F58063 		add	r3, r3, #1024	@ tmp144, tmp144,
 788 002e 9842     		cmp	r0, r3	@ TIMx, tmp144
 789 0030 21D0     		beq	.L44		@,
 790              	@ ../Libraries/STM32F4xx_StdPeriph_Driver/src/stm32f4xx_tim.c:287:   assert_param(IS_TIM_ALL_PERIPH
 791              		.loc 1 287 16 discriminator 12 view .LVU212
 792 0032 03F58063 		add	r3, r3, #1024	@ tmp145, tmp145,
 793 0036 9842     		cmp	r0, r3	@ TIMx, tmp145
 794 0038 1DD0     		beq	.L44		@,
 795              	@ ../Libraries/STM32F4xx_StdPeriph_Driver/src/stm32f4xx_tim.c:287:   assert_param(IS_TIM_ALL_PERIPH
 796              		.loc 1 287 16 discriminator 14 view .LVU213
 797 003a 03F57043 		add	r3, r3, #61440	@ tmp146, tmp146,
 798 003e 9842     		cmp	r0, r3	@ TIMx, tmp146
 799 0040 19D0     		beq	.L44		@,
 800              	@ ../Libraries/STM32F4xx_StdPeriph_Driver/src/stm32f4xx_tim.c:287:   assert_param(IS_TIM_ALL_PERIPH
 801              		.loc 1 287 16 discriminator 16 view .LVU214
 802 0042 03F57053 		add	r3, r3, #15360	@ tmp147, tmp147,
 803 0046 9842     		cmp	r0, r3	@ TIMx, tmp147
 804 0048 15D0     		beq	.L44		@,
 805              	@ ../Libraries/STM32F4xx_StdPeriph_Driver/src/stm32f4xx_tim.c:287:   assert_param(IS_TIM_ALL_PERIPH
 806              		.loc 1 287 16 discriminator 18 view .LVU215
 807 004a 03F58063 		add	r3, r3, #1024	@ tmp148, tmp148,
 808 004e 9842     		cmp	r0, r3	@ TIMx, tmp148
 809 0050 11D0     		beq	.L44		@,
 810              	@ ../Libraries/STM32F4xx_StdPeriph_Driver/src/stm32f4xx_tim.c:287:   assert_param(IS_TIM_ALL_PERIPH
 811              		.loc 1 287 16 discriminator 20 view .LVU216
 812 0052 03F58063 		add	r3, r3, #1024	@ tmp149, tmp149,
 813 0056 9842     		cmp	r0, r3	@ TIMx, tmp149
ARM GAS  C:\Users\admin\AppData\Local\Temp\ccu1qHez.s 			page 23


 814 0058 0DD0     		beq	.L44		@,
 815              	@ ../Libraries/STM32F4xx_StdPeriph_Driver/src/stm32f4xx_tim.c:287:   assert_param(IS_TIM_ALL_PERIPH
 816              		.loc 1 287 16 discriminator 22 view .LVU217
 817 005a A3F59833 		sub	r3, r3, #77824	@ tmp150, tmp150,
 818 005e 9842     		cmp	r0, r3	@ TIMx, tmp150
 819 0060 09D0     		beq	.L44		@,
 820              	@ ../Libraries/STM32F4xx_StdPeriph_Driver/src/stm32f4xx_tim.c:287:   assert_param(IS_TIM_ALL_PERIPH
 821              		.loc 1 287 3 discriminator 24 view .LVU218
 822 0062 03F58063 		add	r3, r3, #1024	@ tmp151, tmp151,
 823 0066 9842     		cmp	r0, r3	@ TIMx, tmp151
 824 0068 05D0     		beq	.L44		@,
 825              	@ ../Libraries/STM32F4xx_StdPeriph_Driver/src/stm32f4xx_tim.c:287:   assert_param(IS_TIM_ALL_PERIPH
 826              		.loc 1 287 16 discriminator 26 view .LVU219
 827 006a 3948     		ldr	r0, .L54+4	@ tmp154,
 828              	.LVL72:
 829              		.loc 1 287 16 discriminator 26 view .LVU220
 830 006c 201A     		subs	r0, r4, r0	@ iftmp.1_11, TIMx, tmp154
 831 006e B0FA80F0 		clz	r0, r0	@ iftmp.1_11, iftmp.1_11
 832 0072 4009     		lsrs	r0, r0, #5	@ iftmp.1_11, iftmp.1_11,
 833 0074 00E0     		b	.L22		@
 834              	.LVL73:
 835              	.L44:
 836              	@ ../Libraries/STM32F4xx_StdPeriph_Driver/src/stm32f4xx_tim.c:287:   assert_param(IS_TIM_ALL_PERIPH
 837              		.loc 1 287 3 view .LVU221
 838 0076 0120     		movs	r0, #1	@ iftmp.1_11,
 839              	.LVL74:
 840              	.L22:
 841              	@ ../Libraries/STM32F4xx_StdPeriph_Driver/src/stm32f4xx_tim.c:287:   assert_param(IS_TIM_ALL_PERIPH
 842              		.loc 1 287 3 discriminator 30 view .LVU222
 843 0078 FFF7FEFF 		bl	assert_param		@
 844              	.LVL75:
 288:../Libraries/STM32F4xx_StdPeriph_Driver/src/stm32f4xx_tim.c ****   assert_param(IS_TIM_COUNTER_MODE(TIM_TimeBaseInitStruct->TIM_CounterMode));
 845              		.loc 1 288 3 is_stmt 1 discriminator 30 view .LVU223
 846              	@ ../Libraries/STM32F4xx_StdPeriph_Driver/src/stm32f4xx_tim.c:288:   assert_param(IS_TIM_COUNTER_MO
 847              		.loc 1 288 16 is_stmt 0 discriminator 30 view .LVU224
 848 007c 6888     		ldrh	r0, [r5, #2]	@ _1, TIM_TimeBaseInitStruct_18(D)->TIM_CounterMode
 849              	@ ../Libraries/STM32F4xx_StdPeriph_Driver/src/stm32f4xx_tim.c:288:   assert_param(IS_TIM_COUNTER_MO
 850              		.loc 1 288 3 discriminator 30 view .LVU225
 851 007e 20F01003 		bic	r3, r0, #16	@ tmp155, _1,
 852 0082 002B     		cmp	r3, #0	@ tmp155
 853 0084 48D0     		beq	.L46	@
 854              	@ ../Libraries/STM32F4xx_StdPeriph_Driver/src/stm32f4xx_tim.c:288:   assert_param(IS_TIM_COUNTER_MO
 855              		.loc 1 288 16 discriminator 4 view .LVU226
 856 0086 20F04003 		bic	r3, r0, #64	@ tmp158, _1,
 857 008a 202B     		cmp	r3, #32	@ tmp158,
 858 008c 44D0     		beq	.L46		@,
 859              	@ ../Libraries/STM32F4xx_StdPeriph_Driver/src/stm32f4xx_tim.c:288:   assert_param(IS_TIM_COUNTER_MO
 860              		.loc 1 288 16 discriminator 6 view .LVU227
 861 008e A0F14000 		sub	r0, #64	@ iftmp.2_12,
 862 0092 B0FA80F0 		clz	r0, r0	@ iftmp.2_12, iftmp.2_12
 863 0096 4009     		lsrs	r0, r0, #5	@ iftmp.2_12, iftmp.2_12,
 864              	@ ../Libraries/STM32F4xx_StdPeriph_Driver/src/stm32f4xx_tim.c:288:   assert_param(IS_TIM_COUNTER_MO
 865              		.loc 1 288 3 discriminator 6 view .LVU228
 866 0098 FFF7FEFF 		bl	assert_param		@
 867              	.LVL76:
 289:../Libraries/STM32F4xx_StdPeriph_Driver/src/stm32f4xx_tim.c ****   assert_param(IS_TIM_CKD_DIV(TIM_TimeBaseInitStruct->TIM_ClockDivision));
 868              		.loc 1 289 3 is_stmt 1 discriminator 6 view .LVU229
ARM GAS  C:\Users\admin\AppData\Local\Temp\ccu1qHez.s 			page 24


 869              	@ ../Libraries/STM32F4xx_StdPeriph_Driver/src/stm32f4xx_tim.c:289:   assert_param(IS_TIM_CKD_DIV(TI
 870              		.loc 1 289 16 is_stmt 0 discriminator 6 view .LVU230
 871 009c 2889     		ldrh	r0, [r5, #8]	@ _2, TIM_TimeBaseInitStruct_18(D)->TIM_ClockDivision
 872              	@ ../Libraries/STM32F4xx_StdPeriph_Driver/src/stm32f4xx_tim.c:289:   assert_param(IS_TIM_CKD_DIV(TI
 873              		.loc 1 289 3 discriminator 6 view .LVU231
 874 009e 20F48073 		bic	r3, r0, #256	@ tmp162, _2,
 875 00a2 002B     		cmp	r3, #0	@ tmp162
 876 00a4 40D1     		bne	.L53	@
 877              	.L47:
 878              	@ ../Libraries/STM32F4xx_StdPeriph_Driver/src/stm32f4xx_tim.c:289:   assert_param(IS_TIM_CKD_DIV(TI
 879              		.loc 1 289 3 view .LVU232
 880 00a6 0120     		movs	r0, #1	@ iftmp.3_13,
 881              	.L24:
 882              	@ ../Libraries/STM32F4xx_StdPeriph_Driver/src/stm32f4xx_tim.c:289:   assert_param(IS_TIM_CKD_DIV(TI
 883              		.loc 1 289 3 discriminator 8 view .LVU233
 884 00a8 FFF7FEFF 		bl	assert_param		@
 885              	.LVL77:
 290:../Libraries/STM32F4xx_StdPeriph_Driver/src/stm32f4xx_tim.c **** 
 291:../Libraries/STM32F4xx_StdPeriph_Driver/src/stm32f4xx_tim.c ****   tmpcr1 = TIMx->CR1;  
 886              		.loc 1 291 3 is_stmt 1 discriminator 8 view .LVU234
 887              	@ ../Libraries/STM32F4xx_StdPeriph_Driver/src/stm32f4xx_tim.c:293:   if((TIMx == TIM1) || (TIMx == 
 292:../Libraries/STM32F4xx_StdPeriph_Driver/src/stm32f4xx_tim.c **** 
 293:../Libraries/STM32F4xx_StdPeriph_Driver/src/stm32f4xx_tim.c ****   if((TIMx == TIM1) || (TIMx == TIM8)||
 888              		.loc 1 293 5 is_stmt 0 discriminator 8 view .LVU235
 889 00ac 274A     		ldr	r2, .L54	@ tmp168,
 890              	@ ../Libraries/STM32F4xx_StdPeriph_Driver/src/stm32f4xx_tim.c:291:   tmpcr1 = TIMx->CR1;  
 291:../Libraries/STM32F4xx_StdPeriph_Driver/src/stm32f4xx_tim.c **** 
 891              		.loc 1 291 10 discriminator 8 view .LVU236
 892 00ae 2388     		ldrh	r3, [r4]	@, TIMx_15(D)->CR1
 893              	@ ../Libraries/STM32F4xx_StdPeriph_Driver/src/stm32f4xx_tim.c:293:   if((TIMx == TIM1) || (TIMx == 
 894              		.loc 1 293 5 discriminator 8 view .LVU237
 895 00b0 9442     		cmp	r4, r2	@ TIMx, tmp168
 896              	@ ../Libraries/STM32F4xx_StdPeriph_Driver/src/stm32f4xx_tim.c:291:   tmpcr1 = TIMx->CR1;  
 291:../Libraries/STM32F4xx_StdPeriph_Driver/src/stm32f4xx_tim.c **** 
 897              		.loc 1 291 10 discriminator 8 view .LVU238
 898 00b2 9BB2     		uxth	r3, r3	@ tmpcr1, TIMx_15(D)->CR1
 899              	.LVL78:
 900              		.loc 1 293 3 is_stmt 1 discriminator 8 view .LVU239
 901              	@ ../Libraries/STM32F4xx_StdPeriph_Driver/src/stm32f4xx_tim.c:293:   if((TIMx == TIM1) || (TIMx == 
 902              		.loc 1 293 5 is_stmt 0 discriminator 8 view .LVU240
 903 00b4 12D0     		beq	.L25		@,
 904              	@ ../Libraries/STM32F4xx_StdPeriph_Driver/src/stm32f4xx_tim.c:293:   if((TIMx == TIM1) || (TIMx == 
 905              		.loc 1 293 21 discriminator 1 view .LVU241
 906 00b6 02F58062 		add	r2, r2, #1024	@ tmp169, tmp169,
 907 00ba 9442     		cmp	r4, r2	@ TIMx, tmp169
 908 00bc 0ED0     		beq	.L25		@,
 909              	@ ../Libraries/STM32F4xx_StdPeriph_Driver/src/stm32f4xx_tim.c:293:   if((TIMx == TIM1) || (TIMx == 
 910              		.loc 1 293 38 discriminator 2 view .LVU242
 911 00be B4F1804F 		cmp	r4, #1073741824	@ TIMx,
 912 00c2 0BD0     		beq	.L25		@,
 913              	@ ../Libraries/STM32F4xx_StdPeriph_Driver/src/stm32f4xx_tim.c:294:      (TIMx == TIM2) || (TIMx == 
 294:../Libraries/STM32F4xx_StdPeriph_Driver/src/stm32f4xx_tim.c ****      (TIMx == TIM2) || (TIMx == TIM3)||
 914              		.loc 1 294 21 view .LVU243
 915 00c4 A2F58032 		sub	r2, r2, #65536	@ tmp170, tmp170,
 916 00c8 9442     		cmp	r4, r2	@ TIMx, tmp170
 917 00ca 07D0     		beq	.L25		@,
 918              	@ ../Libraries/STM32F4xx_StdPeriph_Driver/src/stm32f4xx_tim.c:294:      (TIMx == TIM2) || (TIMx == 
ARM GAS  C:\Users\admin\AppData\Local\Temp\ccu1qHez.s 			page 25


 919              		.loc 1 294 38 discriminator 1 view .LVU244
 920 00cc 02F58062 		add	r2, r2, #1024	@ tmp171, tmp171,
 921 00d0 9442     		cmp	r4, r2	@ TIMx, tmp171
 922 00d2 03D0     		beq	.L25		@,
 923              	@ ../Libraries/STM32F4xx_StdPeriph_Driver/src/stm32f4xx_tim.c:295:      (TIMx == TIM4) || (TIMx == 
 295:../Libraries/STM32F4xx_StdPeriph_Driver/src/stm32f4xx_tim.c ****      (TIMx == TIM4) || (TIMx == TIM5)) 
 924              		.loc 1 295 21 view .LVU245
 925 00d4 02F58062 		add	r2, r2, #1024	@ tmp172, tmp172,
 926 00d8 9442     		cmp	r4, r2	@ TIMx, tmp172
 927 00da 03D1     		bne	.L26		@,
 928              	.L25:
 296:../Libraries/STM32F4xx_StdPeriph_Driver/src/stm32f4xx_tim.c ****   {
 297:../Libraries/STM32F4xx_StdPeriph_Driver/src/stm32f4xx_tim.c ****     /* Select the Counter Mode */
 298:../Libraries/STM32F4xx_StdPeriph_Driver/src/stm32f4xx_tim.c ****     tmpcr1 &= (uint16_t)(~(TIM_CR1_DIR | TIM_CR1_CMS));
 929              		.loc 1 298 5 is_stmt 1 view .LVU246
 930              	@ ../Libraries/STM32F4xx_StdPeriph_Driver/src/stm32f4xx_tim.c:299:     tmpcr1 |= (uint32_t)TIM_Time
 299:../Libraries/STM32F4xx_StdPeriph_Driver/src/stm32f4xx_tim.c ****     tmpcr1 |= (uint32_t)TIM_TimeBaseInitStruct->TIM_CounterMode;
 931              		.loc 1 299 12 is_stmt 0 view .LVU247
 932 00dc 6A88     		ldrh	r2, [r5, #2]	@ tmp175, TIM_TimeBaseInitStruct_18(D)->TIM_CounterMode
 933              	@ ../Libraries/STM32F4xx_StdPeriph_Driver/src/stm32f4xx_tim.c:298:     tmpcr1 &= (uint16_t)(~(TIM_C
 298:../Libraries/STM32F4xx_StdPeriph_Driver/src/stm32f4xx_tim.c ****     tmpcr1 |= (uint32_t)TIM_TimeBaseInitStruct->TIM_CounterMode;
 934              		.loc 1 298 12 view .LVU248
 935 00de 23F07003 		bic	r3, r3, #112	@ tmp173, tmpcr1,
 936              	.LVL79:
 937              		.loc 1 299 5 is_stmt 1 view .LVU249
 938              	@ ../Libraries/STM32F4xx_StdPeriph_Driver/src/stm32f4xx_tim.c:299:     tmpcr1 |= (uint32_t)TIM_Time
 939              		.loc 1 299 12 is_stmt 0 view .LVU250
 940 00e2 1343     		orrs	r3, r3, r2	@, tmpcr1, tmp173, tmp175
 941              	.LVL80:
 942              	.L26:
 300:../Libraries/STM32F4xx_StdPeriph_Driver/src/stm32f4xx_tim.c ****   }
 301:../Libraries/STM32F4xx_StdPeriph_Driver/src/stm32f4xx_tim.c ****  
 302:../Libraries/STM32F4xx_StdPeriph_Driver/src/stm32f4xx_tim.c ****   if((TIMx != TIM6) && (TIMx != TIM7))
 943              		.loc 1 302 3 is_stmt 1 view .LVU251
 944              	@ ../Libraries/STM32F4xx_StdPeriph_Driver/src/stm32f4xx_tim.c:302:   if((TIMx != TIM6) && (TIMx != 
 945              		.loc 1 302 5 is_stmt 0 view .LVU252
 946 00e4 1B4A     		ldr	r2, .L54+8	@ tmp176,
 947 00e6 9442     		cmp	r4, r2	@ TIMx, tmp176
 948 00e8 24D0     		beq	.L28		@,
 949              	@ ../Libraries/STM32F4xx_StdPeriph_Driver/src/stm32f4xx_tim.c:302:   if((TIMx != TIM6) && (TIMx != 
 950              		.loc 1 302 21 discriminator 1 view .LVU253
 951 00ea 02F58062 		add	r2, r2, #1024	@ tmp177, tmp177,
 952 00ee 9442     		cmp	r4, r2	@ TIMx, tmp177
 953 00f0 20D0     		beq	.L28		@,
 303:../Libraries/STM32F4xx_StdPeriph_Driver/src/stm32f4xx_tim.c ****   {
 304:../Libraries/STM32F4xx_StdPeriph_Driver/src/stm32f4xx_tim.c ****     /* Set the clock division */
 305:../Libraries/STM32F4xx_StdPeriph_Driver/src/stm32f4xx_tim.c ****     tmpcr1 &=  (uint16_t)(~TIM_CR1_CKD);
 954              		.loc 1 305 5 is_stmt 1 view .LVU254
 955              	@ ../Libraries/STM32F4xx_StdPeriph_Driver/src/stm32f4xx_tim.c:306:     tmpcr1 |= (uint32_t)TIM_Time
 306:../Libraries/STM32F4xx_StdPeriph_Driver/src/stm32f4xx_tim.c ****     tmpcr1 |= (uint32_t)TIM_TimeBaseInitStruct->TIM_ClockDivision;
 956              		.loc 1 306 12 is_stmt 0 view .LVU255
 957 00f2 2889     		ldrh	r0, [r5, #8]	@ tmp180, TIM_TimeBaseInitStruct_18(D)->TIM_ClockDivision
 958              	@ ../Libraries/STM32F4xx_StdPeriph_Driver/src/stm32f4xx_tim.c:312:   TIMx->ARR = TIM_TimeBaseInitSt
 307:../Libraries/STM32F4xx_StdPeriph_Driver/src/stm32f4xx_tim.c ****   }
 308:../Libraries/STM32F4xx_StdPeriph_Driver/src/stm32f4xx_tim.c **** 
 309:../Libraries/STM32F4xx_StdPeriph_Driver/src/stm32f4xx_tim.c ****   TIMx->CR1 = tmpcr1;
 310:../Libraries/STM32F4xx_StdPeriph_Driver/src/stm32f4xx_tim.c **** 
ARM GAS  C:\Users\admin\AppData\Local\Temp\ccu1qHez.s 			page 26


 311:../Libraries/STM32F4xx_StdPeriph_Driver/src/stm32f4xx_tim.c ****   /* Set the Autoreload value */
 312:../Libraries/STM32F4xx_StdPeriph_Driver/src/stm32f4xx_tim.c ****   TIMx->ARR = TIM_TimeBaseInitStruct->TIM_Period ;
 959              		.loc 1 312 37 view .LVU256
 960 00f4 6968     		ldr	r1, [r5, #4]	@ _5, TIM_TimeBaseInitStruct_18(D)->TIM_Period
 961              	@ ../Libraries/STM32F4xx_StdPeriph_Driver/src/stm32f4xx_tim.c:305:     tmpcr1 &=  (uint16_t)(~TIM_C
 305:../Libraries/STM32F4xx_StdPeriph_Driver/src/stm32f4xx_tim.c ****     tmpcr1 |= (uint32_t)TIM_TimeBaseInitStruct->TIM_ClockDivision;
 962              		.loc 1 305 12 view .LVU257
 963 00f6 23F44073 		bic	r3, r3, #768	@ tmp178, tmpcr1,
 964              	.LVL81:
 305:../Libraries/STM32F4xx_StdPeriph_Driver/src/stm32f4xx_tim.c ****     tmpcr1 |= (uint32_t)TIM_TimeBaseInitStruct->TIM_ClockDivision;
 965              		.loc 1 305 12 view .LVU258
 966 00fa 9BB2     		uxth	r3, r3	@ tmpcr1, tmp178
 967              	.LVL82:
 306:../Libraries/STM32F4xx_StdPeriph_Driver/src/stm32f4xx_tim.c ****     tmpcr1 |= (uint32_t)TIM_TimeBaseInitStruct->TIM_ClockDivision;
 968              		.loc 1 306 5 is_stmt 1 view .LVU259
 969              	@ ../Libraries/STM32F4xx_StdPeriph_Driver/src/stm32f4xx_tim.c:306:     tmpcr1 |= (uint32_t)TIM_Time
 306:../Libraries/STM32F4xx_StdPeriph_Driver/src/stm32f4xx_tim.c ****     tmpcr1 |= (uint32_t)TIM_TimeBaseInitStruct->TIM_ClockDivision;
 970              		.loc 1 306 12 is_stmt 0 view .LVU260
 971 00fc 0343     		orrs	r3, r3, r0	@, tmpcr1, tmpcr1, tmp180
 972              	.LVL83:
 309:../Libraries/STM32F4xx_StdPeriph_Driver/src/stm32f4xx_tim.c **** 
 973              		.loc 1 309 3 is_stmt 1 view .LVU261
 974              	@ ../Libraries/STM32F4xx_StdPeriph_Driver/src/stm32f4xx_tim.c:317:   if ((TIMx == TIM1) || (TIMx ==
 313:../Libraries/STM32F4xx_StdPeriph_Driver/src/stm32f4xx_tim.c ****  
 314:../Libraries/STM32F4xx_StdPeriph_Driver/src/stm32f4xx_tim.c ****   /* Set the Prescaler value */
 315:../Libraries/STM32F4xx_StdPeriph_Driver/src/stm32f4xx_tim.c ****   TIMx->PSC = TIM_TimeBaseInitStruct->TIM_Prescaler;
 316:../Libraries/STM32F4xx_StdPeriph_Driver/src/stm32f4xx_tim.c ****     
 317:../Libraries/STM32F4xx_StdPeriph_Driver/src/stm32f4xx_tim.c ****   if ((TIMx == TIM1) || (TIMx == TIM8))  
 975              		.loc 1 317 6 is_stmt 0 view .LVU262
 976 00fe 02F56C42 		add	r2, r2, #60416	@ tmp183, tmp183,
 977              	@ ../Libraries/STM32F4xx_StdPeriph_Driver/src/stm32f4xx_tim.c:309:   TIMx->CR1 = tmpcr1;
 309:../Libraries/STM32F4xx_StdPeriph_Driver/src/stm32f4xx_tim.c **** 
 978              		.loc 1 309 13 view .LVU263
 979 0102 2380     		strh	r3, [r4]	@ movhi	@ tmpcr1, TIMx_15(D)->CR1
 312:../Libraries/STM32F4xx_StdPeriph_Driver/src/stm32f4xx_tim.c ****  
 980              		.loc 1 312 3 is_stmt 1 view .LVU264
 981              	@ ../Libraries/STM32F4xx_StdPeriph_Driver/src/stm32f4xx_tim.c:317:   if ((TIMx == TIM1) || (TIMx ==
 982              		.loc 1 317 6 is_stmt 0 view .LVU265
 983 0104 9442     		cmp	r4, r2	@ TIMx, tmp183
 984              	@ ../Libraries/STM32F4xx_StdPeriph_Driver/src/stm32f4xx_tim.c:315:   TIMx->PSC = TIM_TimeBaseInitSt
 315:../Libraries/STM32F4xx_StdPeriph_Driver/src/stm32f4xx_tim.c ****     
 985              		.loc 1 315 37 view .LVU266
 986 0106 2B88     		ldrh	r3, [r5]	@ _6, TIM_TimeBaseInitStruct_18(D)->TIM_Prescaler
 987              	.LVL84:
 988              	@ ../Libraries/STM32F4xx_StdPeriph_Driver/src/stm32f4xx_tim.c:312:   TIMx->ARR = TIM_TimeBaseInitSt
 312:../Libraries/STM32F4xx_StdPeriph_Driver/src/stm32f4xx_tim.c ****  
 989              		.loc 1 312 13 view .LVU267
 990 0108 E162     		str	r1, [r4, #44]	@ _5, TIMx_15(D)->ARR
 991              	.LVL85:
 315:../Libraries/STM32F4xx_StdPeriph_Driver/src/stm32f4xx_tim.c ****     
 992              		.loc 1 315 3 is_stmt 1 view .LVU268
 993              	@ ../Libraries/STM32F4xx_StdPeriph_Driver/src/stm32f4xx_tim.c:315:   TIMx->PSC = TIM_TimeBaseInitSt
 315:../Libraries/STM32F4xx_StdPeriph_Driver/src/stm32f4xx_tim.c ****     
 994              		.loc 1 315 13 is_stmt 0 view .LVU269
 995 010a 2385     		strh	r3, [r4, #40]	@ movhi	@ _6, TIMx_15(D)->PSC
 996              		.loc 1 317 3 is_stmt 1 view .LVU270
 997              	@ ../Libraries/STM32F4xx_StdPeriph_Driver/src/stm32f4xx_tim.c:317:   if ((TIMx == TIM1) || (TIMx ==
ARM GAS  C:\Users\admin\AppData\Local\Temp\ccu1qHez.s 			page 27


 998              		.loc 1 317 6 is_stmt 0 view .LVU271
 999 010c 1AD1     		bne	.L29		@,
 1000              	.L31:
 318:../Libraries/STM32F4xx_StdPeriph_Driver/src/stm32f4xx_tim.c ****   {
 319:../Libraries/STM32F4xx_StdPeriph_Driver/src/stm32f4xx_tim.c ****     /* Set the Repetition Counter value */
 320:../Libraries/STM32F4xx_StdPeriph_Driver/src/stm32f4xx_tim.c ****     TIMx->RCR = TIM_TimeBaseInitStruct->TIM_RepetitionCounter;
 1001              		.loc 1 320 5 is_stmt 1 view .LVU272
 1002              	@ ../Libraries/STM32F4xx_StdPeriph_Driver/src/stm32f4xx_tim.c:320:     TIMx->RCR = TIM_TimeBaseInit
 1003              		.loc 1 320 39 is_stmt 0 view .LVU273
 1004 010e AB7A     		ldrb	r3, [r5, #10]	@ zero_extendqisi2	@ _8, TIM_TimeBaseInitStruct_18(D)->TIM_RepetitionCounter
 1005              	@ ../Libraries/STM32F4xx_StdPeriph_Driver/src/stm32f4xx_tim.c:320:     TIMx->RCR = TIM_TimeBaseInit
 1006              		.loc 1 320 15 view .LVU274
 1007 0110 2386     		strh	r3, [r4, #48]	@ movhi	@ _8, TIMx_15(D)->RCR
 321:../Libraries/STM32F4xx_StdPeriph_Driver/src/stm32f4xx_tim.c ****   }
 322:../Libraries/STM32F4xx_StdPeriph_Driver/src/stm32f4xx_tim.c **** 
 323:../Libraries/STM32F4xx_StdPeriph_Driver/src/stm32f4xx_tim.c ****   /* Generate an update event to reload the Prescaler 
 324:../Libraries/STM32F4xx_StdPeriph_Driver/src/stm32f4xx_tim.c ****      and the repetition counter(only for TIM1 and TIM8) value immediatly */
 325:../Libraries/STM32F4xx_StdPeriph_Driver/src/stm32f4xx_tim.c ****   TIMx->EGR = TIM_PSCReloadMode_Immediate;          
 1008              		.loc 1 325 3 is_stmt 1 view .LVU275
 1009              	@ ../Libraries/STM32F4xx_StdPeriph_Driver/src/stm32f4xx_tim.c:325:   TIMx->EGR = TIM_PSCReloadMode_
 1010              		.loc 1 325 13 is_stmt 0 view .LVU276
 1011 0112 0123     		movs	r3, #1	@ tmp189,
 1012 0114 A382     		strh	r3, [r4, #20]	@ movhi	@ tmp189, TIMx_15(D)->EGR
 1013              	@ ../Libraries/STM32F4xx_StdPeriph_Driver/src/stm32f4xx_tim.c:326: }
 326:../Libraries/STM32F4xx_StdPeriph_Driver/src/stm32f4xx_tim.c **** }
 1014              		.loc 1 326 1 view .LVU277
 1015 0116 38BD     		pop	{r3, r4, r5, pc}	@
 1016              	.LVL86:
 1017              	.L46:
 1018              	@ ../Libraries/STM32F4xx_StdPeriph_Driver/src/stm32f4xx_tim.c:288:   assert_param(IS_TIM_COUNTER_MO
 288:../Libraries/STM32F4xx_StdPeriph_Driver/src/stm32f4xx_tim.c ****   assert_param(IS_TIM_CKD_DIV(TIM_TimeBaseInitStruct->TIM_ClockDivision));
 1019              		.loc 1 288 3 view .LVU278
 1020 0118 0120     		movs	r0, #1	@ iftmp.2_12,
 1021 011a FFF7FEFF 		bl	assert_param		@
 1022              	.LVL87:
 289:../Libraries/STM32F4xx_StdPeriph_Driver/src/stm32f4xx_tim.c **** 
 1023              		.loc 1 289 3 is_stmt 1 view .LVU279
 1024              	@ ../Libraries/STM32F4xx_StdPeriph_Driver/src/stm32f4xx_tim.c:289:   assert_param(IS_TIM_CKD_DIV(TI
 289:../Libraries/STM32F4xx_StdPeriph_Driver/src/stm32f4xx_tim.c **** 
 1025              		.loc 1 289 16 is_stmt 0 view .LVU280
 1026 011e 2889     		ldrh	r0, [r5, #8]	@ _2, TIM_TimeBaseInitStruct_18(D)->TIM_ClockDivision
 1027              	@ ../Libraries/STM32F4xx_StdPeriph_Driver/src/stm32f4xx_tim.c:289:   assert_param(IS_TIM_CKD_DIV(TI
 289:../Libraries/STM32F4xx_StdPeriph_Driver/src/stm32f4xx_tim.c **** 
 1028              		.loc 1 289 3 view .LVU281
 1029 0120 20F48073 		bic	r3, r0, #256	@ tmp162, _2,
 1030 0124 002B     		cmp	r3, #0	@ tmp162
 1031 0126 BED0     		beq	.L47	@
 1032              	.L53:
 1033              	@ ../Libraries/STM32F4xx_StdPeriph_Driver/src/stm32f4xx_tim.c:289:   assert_param(IS_TIM_CKD_DIV(TI
 289:../Libraries/STM32F4xx_StdPeriph_Driver/src/stm32f4xx_tim.c **** 
 1034              		.loc 1 289 3 discriminator 4 view .LVU282
 1035 0128 A0F50070 		sub	r0, r0, #512	@ iftmp.3_13, _2,
 1036 012c B0FA80F0 		clz	r0, r0	@ iftmp.3_13, iftmp.3_13
 1037 0130 4009     		lsrs	r0, r0, #5	@ iftmp.3_13, iftmp.3_13,
 1038 0132 B9E7     		b	.L24		@
 1039              	.LVL88:
 1040              	.L28:
ARM GAS  C:\Users\admin\AppData\Local\Temp\ccu1qHez.s 			page 28


 309:../Libraries/STM32F4xx_StdPeriph_Driver/src/stm32f4xx_tim.c **** 
 1041              		.loc 1 309 3 is_stmt 1 view .LVU283
 1042              	@ ../Libraries/STM32F4xx_StdPeriph_Driver/src/stm32f4xx_tim.c:309:   TIMx->CR1 = tmpcr1;
 309:../Libraries/STM32F4xx_StdPeriph_Driver/src/stm32f4xx_tim.c **** 
 1043              		.loc 1 309 13 is_stmt 0 view .LVU284
 1044 0134 2380     		strh	r3, [r4]	@ movhi	@ tmpcr1,* TIMx
 312:../Libraries/STM32F4xx_StdPeriph_Driver/src/stm32f4xx_tim.c ****  
 1045              		.loc 1 312 3 is_stmt 1 view .LVU285
 1046              	@ ../Libraries/STM32F4xx_StdPeriph_Driver/src/stm32f4xx_tim.c:312:   TIMx->ARR = TIM_TimeBaseInitSt
 312:../Libraries/STM32F4xx_StdPeriph_Driver/src/stm32f4xx_tim.c ****  
 1047              		.loc 1 312 37 is_stmt 0 view .LVU286
 1048 0136 6A68     		ldr	r2, [r5, #4]	@ _79, TIM_TimeBaseInitStruct_18(D)->TIM_Period
 1049              	@ ../Libraries/STM32F4xx_StdPeriph_Driver/src/stm32f4xx_tim.c:315:   TIMx->PSC = TIM_TimeBaseInitSt
 315:../Libraries/STM32F4xx_StdPeriph_Driver/src/stm32f4xx_tim.c ****     
 1050              		.loc 1 315 37 view .LVU287
 1051 0138 2B88     		ldrh	r3, [r5]	@ _75, TIM_TimeBaseInitStruct_18(D)->TIM_Prescaler
 1052              	.LVL89:
 1053              	@ ../Libraries/STM32F4xx_StdPeriph_Driver/src/stm32f4xx_tim.c:312:   TIMx->ARR = TIM_TimeBaseInitSt
 312:../Libraries/STM32F4xx_StdPeriph_Driver/src/stm32f4xx_tim.c ****  
 1054              		.loc 1 312 13 view .LVU288
 1055 013a E262     		str	r2, [r4, #44]	@ _79,
 1056              	.LVL90:
 315:../Libraries/STM32F4xx_StdPeriph_Driver/src/stm32f4xx_tim.c ****     
 1057              		.loc 1 315 3 is_stmt 1 view .LVU289
 1058              	@ ../Libraries/STM32F4xx_StdPeriph_Driver/src/stm32f4xx_tim.c:315:   TIMx->PSC = TIM_TimeBaseInitSt
 315:../Libraries/STM32F4xx_StdPeriph_Driver/src/stm32f4xx_tim.c ****     
 1059              		.loc 1 315 13 is_stmt 0 view .LVU290
 1060 013c 2385     		strh	r3, [r4, #40]	@ movhi	@ _75,
 317:../Libraries/STM32F4xx_StdPeriph_Driver/src/stm32f4xx_tim.c ****   {
 1061              		.loc 1 317 3 is_stmt 1 view .LVU291
 1062              	.L30:
 325:../Libraries/STM32F4xx_StdPeriph_Driver/src/stm32f4xx_tim.c **** }
 1063              		.loc 1 325 3 view .LVU292
 1064              	@ ../Libraries/STM32F4xx_StdPeriph_Driver/src/stm32f4xx_tim.c:325:   TIMx->EGR = TIM_PSCReloadMode_
 325:../Libraries/STM32F4xx_StdPeriph_Driver/src/stm32f4xx_tim.c **** }
 1065              		.loc 1 325 13 is_stmt 0 view .LVU293
 1066 013e 0123     		movs	r3, #1	@ tmp189,
 1067 0140 A382     		strh	r3, [r4, #20]	@ movhi	@ tmp189, TIMx_15(D)->EGR
 1068              	@ ../Libraries/STM32F4xx_StdPeriph_Driver/src/stm32f4xx_tim.c:326: }
 1069              		.loc 1 326 1 view .LVU294
 1070 0142 38BD     		pop	{r3, r4, r5, pc}	@
 1071              	.LVL91:
 1072              	.L29:
 1073              	@ ../Libraries/STM32F4xx_StdPeriph_Driver/src/stm32f4xx_tim.c:317:   if ((TIMx == TIM1) || (TIMx ==
 317:../Libraries/STM32F4xx_StdPeriph_Driver/src/stm32f4xx_tim.c ****   {
 1074              		.loc 1 317 22 discriminator 1 view .LVU295
 1075 0144 044B     		ldr	r3, .L54+12	@ tmp187,
 1076 0146 9C42     		cmp	r4, r3	@ TIMx, tmp187
 1077 0148 E1D0     		beq	.L31		@,
 1078 014a F8E7     		b	.L30		@
 1079              	.L55:
 1080              		.align	2
 1081              	.L54:
 1082 014c 00000140 		.word	1073807360
 1083 0150 00200040 		.word	1073750016
 1084 0154 00100040 		.word	1073745920
 1085 0158 00040140 		.word	1073808384
ARM GAS  C:\Users\admin\AppData\Local\Temp\ccu1qHez.s 			page 29


 1086              		.cfi_endproc
 1087              	.LFE111:
 1088              		.size	TIM_TimeBaseInit, .-TIM_TimeBaseInit
 1089              		.section	.text.TIM_TimeBaseStructInit,"ax",%progbits
 1090              		.align	1
 1091              		.p2align 2,,3
 1092              		.global	TIM_TimeBaseStructInit
 1093              		.syntax unified
 1094              		.thumb
 1095              		.thumb_func
 1096              		.type	TIM_TimeBaseStructInit, %function
 1097              	TIM_TimeBaseStructInit:
 1098              	.LVL92:
 1099              	.LFB112:
 327:../Libraries/STM32F4xx_StdPeriph_Driver/src/stm32f4xx_tim.c **** 
 328:../Libraries/STM32F4xx_StdPeriph_Driver/src/stm32f4xx_tim.c **** /**
 329:../Libraries/STM32F4xx_StdPeriph_Driver/src/stm32f4xx_tim.c ****   * @brief  Fills each TIM_TimeBaseInitStruct member with its default value.
 330:../Libraries/STM32F4xx_StdPeriph_Driver/src/stm32f4xx_tim.c ****   * @param  TIM_TimeBaseInitStruct : pointer to a TIM_TimeBaseInitTypeDef
 331:../Libraries/STM32F4xx_StdPeriph_Driver/src/stm32f4xx_tim.c ****   *         structure which will be initialized.
 332:../Libraries/STM32F4xx_StdPeriph_Driver/src/stm32f4xx_tim.c ****   * @retval None
 333:../Libraries/STM32F4xx_StdPeriph_Driver/src/stm32f4xx_tim.c ****   */
 334:../Libraries/STM32F4xx_StdPeriph_Driver/src/stm32f4xx_tim.c **** void TIM_TimeBaseStructInit(TIM_TimeBaseInitTypeDef* TIM_TimeBaseInitStruct)
 335:../Libraries/STM32F4xx_StdPeriph_Driver/src/stm32f4xx_tim.c **** {
 1100              		.loc 1 335 1 is_stmt 1 view -0
 1101              		.cfi_startproc
 1102              		@ args = 0, pretend = 0, frame = 0
 1103              		@ frame_needed = 0, uses_anonymous_args = 0
 1104              		@ link register save eliminated.
 336:../Libraries/STM32F4xx_StdPeriph_Driver/src/stm32f4xx_tim.c ****   /* Set the default configuration */
 337:../Libraries/STM32F4xx_StdPeriph_Driver/src/stm32f4xx_tim.c ****   TIM_TimeBaseInitStruct->TIM_Period = 0xFFFFFFFF;
 1105              		.loc 1 337 3 view .LVU297
 1106              	@ ../Libraries/STM32F4xx_StdPeriph_Driver/src/stm32f4xx_tim.c:339:   TIM_TimeBaseInitStruct->TIM_Cl
 338:../Libraries/STM32F4xx_StdPeriph_Driver/src/stm32f4xx_tim.c ****   TIM_TimeBaseInitStruct->TIM_Prescaler = 0x0000;
 339:../Libraries/STM32F4xx_StdPeriph_Driver/src/stm32f4xx_tim.c ****   TIM_TimeBaseInitStruct->TIM_ClockDivision = TIM_CKD_DIV1;
 1107              		.loc 1 339 45 is_stmt 0 view .LVU298
 1108 0000 0023     		movs	r3, #0	@ tmp116,
 1109              	@ ../Libraries/STM32F4xx_StdPeriph_Driver/src/stm32f4xx_tim.c:337:   TIM_TimeBaseInitStruct->TIM_Pe
 337:../Libraries/STM32F4xx_StdPeriph_Driver/src/stm32f4xx_tim.c ****   TIM_TimeBaseInitStruct->TIM_Prescaler = 0x0000;
 1110              		.loc 1 337 38 view .LVU299
 1111 0002 4FF0FF32 		mov	r2, #-1	@ tmp114,
 1112 0006 4260     		str	r2, [r0, #4]	@ tmp114, TIM_TimeBaseInitStruct_2(D)->TIM_Period
 338:../Libraries/STM32F4xx_StdPeriph_Driver/src/stm32f4xx_tim.c ****   TIM_TimeBaseInitStruct->TIM_Prescaler = 0x0000;
 1113              		.loc 1 338 3 is_stmt 1 view .LVU300
 1114              		.loc 1 339 3 view .LVU301
 1115              	@ ../Libraries/STM32F4xx_StdPeriph_Driver/src/stm32f4xx_tim.c:339:   TIM_TimeBaseInitStruct->TIM_Cl
 1116              		.loc 1 339 45 is_stmt 0 view .LVU302
 1117 0008 0381     		strh	r3, [r0, #8]	@ movhi	@ tmp116, TIM_TimeBaseInitStruct_2(D)->TIM_ClockDivision
 340:../Libraries/STM32F4xx_StdPeriph_Driver/src/stm32f4xx_tim.c ****   TIM_TimeBaseInitStruct->TIM_CounterMode = TIM_CounterMode_Up;
 1118              		.loc 1 340 3 is_stmt 1 view .LVU303
 1119              	@ ../Libraries/STM32F4xx_StdPeriph_Driver/src/stm32f4xx_tim.c:338:   TIM_TimeBaseInitStruct->TIM_Pr
 338:../Libraries/STM32F4xx_StdPeriph_Driver/src/stm32f4xx_tim.c ****   TIM_TimeBaseInitStruct->TIM_Prescaler = 0x0000;
 1120              		.loc 1 338 41 is_stmt 0 view .LVU304
 1121 000a 0360     		str	r3, [r0]	@ tmp116, MEM <vector(2) short unsigned int> [(short unsigned int *)TIM_TimeBaseInitS
 341:../Libraries/STM32F4xx_StdPeriph_Driver/src/stm32f4xx_tim.c ****   TIM_TimeBaseInitStruct->TIM_RepetitionCounter = 0x0000;
 1122              		.loc 1 341 3 is_stmt 1 view .LVU305
 1123              	@ ../Libraries/STM32F4xx_StdPeriph_Driver/src/stm32f4xx_tim.c:341:   TIM_TimeBaseInitStruct->TIM_Re
 1124              		.loc 1 341 49 is_stmt 0 view .LVU306
ARM GAS  C:\Users\admin\AppData\Local\Temp\ccu1qHez.s 			page 30


 1125 000c 8372     		strb	r3, [r0, #10]	@ tmp116, TIM_TimeBaseInitStruct_2(D)->TIM_RepetitionCounter
 1126              	@ ../Libraries/STM32F4xx_StdPeriph_Driver/src/stm32f4xx_tim.c:342: }
 342:../Libraries/STM32F4xx_StdPeriph_Driver/src/stm32f4xx_tim.c **** }
 1127              		.loc 1 342 1 view .LVU307
 1128 000e 7047     		bx	lr	@
 1129              		.cfi_endproc
 1130              	.LFE112:
 1131              		.size	TIM_TimeBaseStructInit, .-TIM_TimeBaseStructInit
 1132              		.section	.text.TIM_PrescalerConfig,"ax",%progbits
 1133              		.align	1
 1134              		.p2align 2,,3
 1135              		.global	TIM_PrescalerConfig
 1136              		.syntax unified
 1137              		.thumb
 1138              		.thumb_func
 1139              		.type	TIM_PrescalerConfig, %function
 1140              	TIM_PrescalerConfig:
 1141              	.LVL93:
 1142              	.LFB113:
 343:../Libraries/STM32F4xx_StdPeriph_Driver/src/stm32f4xx_tim.c **** 
 344:../Libraries/STM32F4xx_StdPeriph_Driver/src/stm32f4xx_tim.c **** /**
 345:../Libraries/STM32F4xx_StdPeriph_Driver/src/stm32f4xx_tim.c ****   * @brief  Configures the TIMx Prescaler.
 346:../Libraries/STM32F4xx_StdPeriph_Driver/src/stm32f4xx_tim.c ****   * @param  TIMx: where x can be  1 to 14 to select the TIM peripheral.
 347:../Libraries/STM32F4xx_StdPeriph_Driver/src/stm32f4xx_tim.c ****   * @param  Prescaler: specifies the Prescaler Register value
 348:../Libraries/STM32F4xx_StdPeriph_Driver/src/stm32f4xx_tim.c ****   * @param  TIM_PSCReloadMode: specifies the TIM Prescaler Reload mode
 349:../Libraries/STM32F4xx_StdPeriph_Driver/src/stm32f4xx_tim.c ****   *          This parameter can be one of the following values:
 350:../Libraries/STM32F4xx_StdPeriph_Driver/src/stm32f4xx_tim.c ****   *            @arg TIM_PSCReloadMode_Update: The Prescaler is loaded at the update event.
 351:../Libraries/STM32F4xx_StdPeriph_Driver/src/stm32f4xx_tim.c ****   *            @arg TIM_PSCReloadMode_Immediate: The Prescaler is loaded immediatly.
 352:../Libraries/STM32F4xx_StdPeriph_Driver/src/stm32f4xx_tim.c ****   * @retval None
 353:../Libraries/STM32F4xx_StdPeriph_Driver/src/stm32f4xx_tim.c ****   */
 354:../Libraries/STM32F4xx_StdPeriph_Driver/src/stm32f4xx_tim.c **** void TIM_PrescalerConfig(TIM_TypeDef* TIMx, uint16_t Prescaler, uint16_t TIM_PSCReloadMode)
 355:../Libraries/STM32F4xx_StdPeriph_Driver/src/stm32f4xx_tim.c **** {
 1143              		.loc 1 355 1 is_stmt 1 view -0
 1144              		.cfi_startproc
 1145              		@ args = 0, pretend = 0, frame = 0
 1146              		@ frame_needed = 0, uses_anonymous_args = 0
 356:../Libraries/STM32F4xx_StdPeriph_Driver/src/stm32f4xx_tim.c ****   /* Check the parameters */
 357:../Libraries/STM32F4xx_StdPeriph_Driver/src/stm32f4xx_tim.c ****   assert_param(IS_TIM_ALL_PERIPH(TIMx));
 1147              		.loc 1 357 3 view .LVU309
 1148 0000 234B     		ldr	r3, .L73	@ tmp120,
 1149 0002 9842     		cmp	r0, r3	@ TIMx, tmp120
 1150              	@ ../Libraries/STM32F4xx_StdPeriph_Driver/src/stm32f4xx_tim.c:355: {
 355:../Libraries/STM32F4xx_StdPeriph_Driver/src/stm32f4xx_tim.c ****   /* Check the parameters */
 1151              		.loc 1 355 1 is_stmt 0 view .LVU310
 1152 0004 70B5     		push	{r4, r5, r6, lr}	@
 1153              		.cfi_def_cfa_offset 16
 1154              		.cfi_offset 4, -16
 1155              		.cfi_offset 5, -12
 1156              		.cfi_offset 6, -8
 1157              		.cfi_offset 14, -4
 1158              	@ ../Libraries/STM32F4xx_StdPeriph_Driver/src/stm32f4xx_tim.c:355: {
 355:../Libraries/STM32F4xx_StdPeriph_Driver/src/stm32f4xx_tim.c ****   /* Check the parameters */
 1159              		.loc 1 355 1 view .LVU311
 1160 0006 0446     		mov	r4, r0	@ TIMx, tmp141
 1161 0008 0D46     		mov	r5, r1	@ Prescaler, tmp142
 1162 000a 1646     		mov	r6, r2	@ TIM_PSCReloadMode, tmp143
 1163              	@ ../Libraries/STM32F4xx_StdPeriph_Driver/src/stm32f4xx_tim.c:357:   assert_param(IS_TIM_ALL_PERIPH
ARM GAS  C:\Users\admin\AppData\Local\Temp\ccu1qHez.s 			page 31


 1164              		.loc 1 357 3 view .LVU312
 1165 000c 34D0     		beq	.L71		@,
 1166              	@ ../Libraries/STM32F4xx_StdPeriph_Driver/src/stm32f4xx_tim.c:357:   assert_param(IS_TIM_ALL_PERIPH
 1167              		.loc 1 357 16 discriminator 2 view .LVU313
 1168 000e B0F1804F 		cmp	r0, #1073741824	@ TIMx,
 1169 0012 31D0     		beq	.L71		@,
 1170              	@ ../Libraries/STM32F4xx_StdPeriph_Driver/src/stm32f4xx_tim.c:357:   assert_param(IS_TIM_ALL_PERIPH
 1171              		.loc 1 357 16 discriminator 4 view .LVU314
 1172 0014 A3F57C43 		sub	r3, r3, #64512	@ tmp121, tmp121,
 1173 0018 9842     		cmp	r0, r3	@ TIMx, tmp121
 1174 001a 2DD0     		beq	.L71		@,
 1175              	@ ../Libraries/STM32F4xx_StdPeriph_Driver/src/stm32f4xx_tim.c:357:   assert_param(IS_TIM_ALL_PERIPH
 1176              		.loc 1 357 16 discriminator 6 view .LVU315
 1177 001c 03F58063 		add	r3, r3, #1024	@ tmp122, tmp122,
 1178 0020 9842     		cmp	r0, r3	@ TIMx, tmp122
 1179 0022 29D0     		beq	.L71		@,
 1180              	@ ../Libraries/STM32F4xx_StdPeriph_Driver/src/stm32f4xx_tim.c:357:   assert_param(IS_TIM_ALL_PERIPH
 1181              		.loc 1 357 16 discriminator 8 view .LVU316
 1182 0024 03F58063 		add	r3, r3, #1024	@ tmp123, tmp123,
 1183 0028 9842     		cmp	r0, r3	@ TIMx, tmp123
 1184 002a 25D0     		beq	.L71		@,
 1185              	@ ../Libraries/STM32F4xx_StdPeriph_Driver/src/stm32f4xx_tim.c:357:   assert_param(IS_TIM_ALL_PERIPH
 1186              		.loc 1 357 16 discriminator 10 view .LVU317
 1187 002c 03F58063 		add	r3, r3, #1024	@ tmp124, tmp124,
 1188 0030 9842     		cmp	r0, r3	@ TIMx, tmp124
 1189 0032 21D0     		beq	.L71		@,
 1190              	@ ../Libraries/STM32F4xx_StdPeriph_Driver/src/stm32f4xx_tim.c:357:   assert_param(IS_TIM_ALL_PERIPH
 1191              		.loc 1 357 16 discriminator 12 view .LVU318
 1192 0034 03F58063 		add	r3, r3, #1024	@ tmp125, tmp125,
 1193 0038 9842     		cmp	r0, r3	@ TIMx, tmp125
 1194 003a 1DD0     		beq	.L71		@,
 1195              	@ ../Libraries/STM32F4xx_StdPeriph_Driver/src/stm32f4xx_tim.c:357:   assert_param(IS_TIM_ALL_PERIPH
 1196              		.loc 1 357 16 discriminator 14 view .LVU319
 1197 003c 03F57043 		add	r3, r3, #61440	@ tmp126, tmp126,
 1198 0040 9842     		cmp	r0, r3	@ TIMx, tmp126
 1199 0042 19D0     		beq	.L71		@,
 1200              	@ ../Libraries/STM32F4xx_StdPeriph_Driver/src/stm32f4xx_tim.c:357:   assert_param(IS_TIM_ALL_PERIPH
 1201              		.loc 1 357 16 discriminator 16 view .LVU320
 1202 0044 03F57053 		add	r3, r3, #15360	@ tmp127, tmp127,
 1203 0048 9842     		cmp	r0, r3	@ TIMx, tmp127
 1204 004a 15D0     		beq	.L71		@,
 1205              	@ ../Libraries/STM32F4xx_StdPeriph_Driver/src/stm32f4xx_tim.c:357:   assert_param(IS_TIM_ALL_PERIPH
 1206              		.loc 1 357 16 discriminator 18 view .LVU321
 1207 004c 03F58063 		add	r3, r3, #1024	@ tmp128, tmp128,
 1208 0050 9842     		cmp	r0, r3	@ TIMx, tmp128
 1209 0052 11D0     		beq	.L71		@,
 1210              	@ ../Libraries/STM32F4xx_StdPeriph_Driver/src/stm32f4xx_tim.c:357:   assert_param(IS_TIM_ALL_PERIPH
 1211              		.loc 1 357 16 discriminator 20 view .LVU322
 1212 0054 03F58063 		add	r3, r3, #1024	@ tmp129, tmp129,
 1213 0058 9842     		cmp	r0, r3	@ TIMx, tmp129
 1214 005a 0DD0     		beq	.L71		@,
 1215              	@ ../Libraries/STM32F4xx_StdPeriph_Driver/src/stm32f4xx_tim.c:357:   assert_param(IS_TIM_ALL_PERIPH
 1216              		.loc 1 357 16 discriminator 22 view .LVU323
 1217 005c A3F59833 		sub	r3, r3, #77824	@ tmp130, tmp130,
 1218 0060 9842     		cmp	r0, r3	@ TIMx, tmp130
 1219 0062 09D0     		beq	.L71		@,
 1220              	@ ../Libraries/STM32F4xx_StdPeriph_Driver/src/stm32f4xx_tim.c:357:   assert_param(IS_TIM_ALL_PERIPH
ARM GAS  C:\Users\admin\AppData\Local\Temp\ccu1qHez.s 			page 32


 1221              		.loc 1 357 3 discriminator 24 view .LVU324
 1222 0064 03F58063 		add	r3, r3, #1024	@ tmp131, tmp131,
 1223 0068 9842     		cmp	r0, r3	@ TIMx, tmp131
 1224 006a 05D0     		beq	.L71		@,
 1225              	@ ../Libraries/STM32F4xx_StdPeriph_Driver/src/stm32f4xx_tim.c:357:   assert_param(IS_TIM_ALL_PERIPH
 1226              		.loc 1 357 16 discriminator 26 view .LVU325
 1227 006c 0948     		ldr	r0, .L73+4	@ tmp134,
 1228              	.LVL94:
 1229              		.loc 1 357 16 discriminator 26 view .LVU326
 1230 006e 201A     		subs	r0, r4, r0	@ iftmp.4_3, TIMx, tmp134
 1231 0070 B0FA80F0 		clz	r0, r0	@ iftmp.4_3, iftmp.4_3
 1232 0074 4009     		lsrs	r0, r0, #5	@ iftmp.4_3, iftmp.4_3,
 1233 0076 00E0     		b	.L58		@
 1234              	.LVL95:
 1235              	.L71:
 1236              	@ ../Libraries/STM32F4xx_StdPeriph_Driver/src/stm32f4xx_tim.c:357:   assert_param(IS_TIM_ALL_PERIPH
 1237              		.loc 1 357 3 view .LVU327
 1238 0078 0120     		movs	r0, #1	@ iftmp.4_3,
 1239              	.LVL96:
 1240              	.L58:
 1241              	@ ../Libraries/STM32F4xx_StdPeriph_Driver/src/stm32f4xx_tim.c:357:   assert_param(IS_TIM_ALL_PERIPH
 1242              		.loc 1 357 3 discriminator 30 view .LVU328
 1243 007a FFF7FEFF 		bl	assert_param		@
 1244              	.LVL97:
 358:../Libraries/STM32F4xx_StdPeriph_Driver/src/stm32f4xx_tim.c ****   assert_param(IS_TIM_PRESCALER_RELOAD(TIM_PSCReloadMode));
 1245              		.loc 1 358 3 is_stmt 1 discriminator 30 view .LVU329
 1246 007e 012E     		cmp	r6, #1	@ TIM_PSCReloadMode,
 1247 0080 8CBF     		ite	hi
 1248 0082 0020     		movhi	r0, #0	@,
 1249 0084 0120     		movls	r0, #1	@,
 1250 0086 FFF7FEFF 		bl	assert_param		@
 1251              	.LVL98:
 359:../Libraries/STM32F4xx_StdPeriph_Driver/src/stm32f4xx_tim.c ****   /* Set the Prescaler value */
 360:../Libraries/STM32F4xx_StdPeriph_Driver/src/stm32f4xx_tim.c ****   TIMx->PSC = Prescaler;
 1252              		.loc 1 360 3 discriminator 30 view .LVU330
 1253              	@ ../Libraries/STM32F4xx_StdPeriph_Driver/src/stm32f4xx_tim.c:360:   TIMx->PSC = Prescaler;
 1254              		.loc 1 360 13 is_stmt 0 discriminator 30 view .LVU331
 1255 008a 2585     		strh	r5, [r4, #40]	@ movhi	@ Prescaler, TIMx_4(D)->PSC
 361:../Libraries/STM32F4xx_StdPeriph_Driver/src/stm32f4xx_tim.c ****   /* Set or reset the UG Bit */
 362:../Libraries/STM32F4xx_StdPeriph_Driver/src/stm32f4xx_tim.c ****   TIMx->EGR = TIM_PSCReloadMode;
 1256              		.loc 1 362 3 is_stmt 1 discriminator 30 view .LVU332
 1257              	@ ../Libraries/STM32F4xx_StdPeriph_Driver/src/stm32f4xx_tim.c:362:   TIMx->EGR = TIM_PSCReloadMode;
 1258              		.loc 1 362 13 is_stmt 0 discriminator 30 view .LVU333
 1259 008c A682     		strh	r6, [r4, #20]	@ movhi	@ TIM_PSCReloadMode, TIMx_4(D)->EGR
 1260              	@ ../Libraries/STM32F4xx_StdPeriph_Driver/src/stm32f4xx_tim.c:363: }
 363:../Libraries/STM32F4xx_StdPeriph_Driver/src/stm32f4xx_tim.c **** }
 1261              		.loc 1 363 1 discriminator 30 view .LVU334
 1262 008e 70BD     		pop	{r4, r5, r6, pc}	@
 1263              	.LVL99:
 1264              	.L74:
 1265              		.loc 1 363 1 discriminator 30 view .LVU335
 1266              		.align	2
 1267              	.L73:
 1268 0090 00000140 		.word	1073807360
 1269 0094 00200040 		.word	1073750016
 1270              		.cfi_endproc
 1271              	.LFE113:
ARM GAS  C:\Users\admin\AppData\Local\Temp\ccu1qHez.s 			page 33


 1272              		.size	TIM_PrescalerConfig, .-TIM_PrescalerConfig
 1273              		.section	.text.TIM_CounterModeConfig,"ax",%progbits
 1274              		.align	1
 1275              		.p2align 2,,3
 1276              		.global	TIM_CounterModeConfig
 1277              		.syntax unified
 1278              		.thumb
 1279              		.thumb_func
 1280              		.type	TIM_CounterModeConfig, %function
 1281              	TIM_CounterModeConfig:
 1282              	.LVL100:
 1283              	.LFB114:
 364:../Libraries/STM32F4xx_StdPeriph_Driver/src/stm32f4xx_tim.c **** 
 365:../Libraries/STM32F4xx_StdPeriph_Driver/src/stm32f4xx_tim.c **** /**
 366:../Libraries/STM32F4xx_StdPeriph_Driver/src/stm32f4xx_tim.c ****   * @brief  Specifies the TIMx Counter Mode to be used.
 367:../Libraries/STM32F4xx_StdPeriph_Driver/src/stm32f4xx_tim.c ****   * @param  TIMx: where x can be  1, 2, 3, 4, 5 or 8 to select the TIM peripheral.
 368:../Libraries/STM32F4xx_StdPeriph_Driver/src/stm32f4xx_tim.c ****   * @param  TIM_CounterMode: specifies the Counter Mode to be used
 369:../Libraries/STM32F4xx_StdPeriph_Driver/src/stm32f4xx_tim.c ****   *          This parameter can be one of the following values:
 370:../Libraries/STM32F4xx_StdPeriph_Driver/src/stm32f4xx_tim.c ****   *            @arg TIM_CounterMode_Up: TIM Up Counting Mode
 371:../Libraries/STM32F4xx_StdPeriph_Driver/src/stm32f4xx_tim.c ****   *            @arg TIM_CounterMode_Down: TIM Down Counting Mode
 372:../Libraries/STM32F4xx_StdPeriph_Driver/src/stm32f4xx_tim.c ****   *            @arg TIM_CounterMode_CenterAligned1: TIM Center Aligned Mode1
 373:../Libraries/STM32F4xx_StdPeriph_Driver/src/stm32f4xx_tim.c ****   *            @arg TIM_CounterMode_CenterAligned2: TIM Center Aligned Mode2
 374:../Libraries/STM32F4xx_StdPeriph_Driver/src/stm32f4xx_tim.c ****   *            @arg TIM_CounterMode_CenterAligned3: TIM Center Aligned Mode3
 375:../Libraries/STM32F4xx_StdPeriph_Driver/src/stm32f4xx_tim.c ****   * @retval None
 376:../Libraries/STM32F4xx_StdPeriph_Driver/src/stm32f4xx_tim.c ****   */
 377:../Libraries/STM32F4xx_StdPeriph_Driver/src/stm32f4xx_tim.c **** void TIM_CounterModeConfig(TIM_TypeDef* TIMx, uint16_t TIM_CounterMode)
 378:../Libraries/STM32F4xx_StdPeriph_Driver/src/stm32f4xx_tim.c **** {
 1284              		.loc 1 378 1 is_stmt 1 view -0
 1285              		.cfi_startproc
 1286              		@ args = 0, pretend = 0, frame = 0
 1287              		@ frame_needed = 0, uses_anonymous_args = 0
 379:../Libraries/STM32F4xx_StdPeriph_Driver/src/stm32f4xx_tim.c ****   uint16_t tmpcr1 = 0;
 1288              		.loc 1 379 3 view .LVU337
 380:../Libraries/STM32F4xx_StdPeriph_Driver/src/stm32f4xx_tim.c **** 
 381:../Libraries/STM32F4xx_StdPeriph_Driver/src/stm32f4xx_tim.c ****   /* Check the parameters */
 382:../Libraries/STM32F4xx_StdPeriph_Driver/src/stm32f4xx_tim.c ****   assert_param(IS_TIM_LIST3_PERIPH(TIMx));
 1289              		.loc 1 382 3 view .LVU338
 1290 0000 1C4A     		ldr	r2, .L87	@ tmp124,
 1291 0002 9042     		cmp	r0, r2	@ TIMx, tmp124
 1292              	@ ../Libraries/STM32F4xx_StdPeriph_Driver/src/stm32f4xx_tim.c:378: {
 378:../Libraries/STM32F4xx_StdPeriph_Driver/src/stm32f4xx_tim.c ****   uint16_t tmpcr1 = 0;
 1293              		.loc 1 378 1 is_stmt 0 view .LVU339
 1294 0004 38B5     		push	{r3, r4, r5, lr}	@
 1295              		.cfi_def_cfa_offset 16
 1296              		.cfi_offset 3, -16
 1297              		.cfi_offset 4, -12
 1298              		.cfi_offset 5, -8
 1299              		.cfi_offset 14, -4
 1300              	@ ../Libraries/STM32F4xx_StdPeriph_Driver/src/stm32f4xx_tim.c:378: {
 378:../Libraries/STM32F4xx_StdPeriph_Driver/src/stm32f4xx_tim.c ****   uint16_t tmpcr1 = 0;
 1301              		.loc 1 378 1 view .LVU340
 1302 0006 0446     		mov	r4, r0	@ TIMx, tmp142
 1303 0008 0D46     		mov	r5, r1	@ TIM_CounterMode, tmp143
 1304              	@ ../Libraries/STM32F4xx_StdPeriph_Driver/src/stm32f4xx_tim.c:382:   assert_param(IS_TIM_LIST3_PERI
 1305              		.loc 1 382 3 view .LVU341
 1306 000a 22D0     		beq	.L82		@,
 1307              	@ ../Libraries/STM32F4xx_StdPeriph_Driver/src/stm32f4xx_tim.c:382:   assert_param(IS_TIM_LIST3_PERI
ARM GAS  C:\Users\admin\AppData\Local\Temp\ccu1qHez.s 			page 34


 1308              		.loc 1 382 16 discriminator 2 view .LVU342
 1309 000c B0F1804F 		cmp	r0, #1073741824	@ TIMx,
 1310 0010 1FD0     		beq	.L82		@,
 1311              	@ ../Libraries/STM32F4xx_StdPeriph_Driver/src/stm32f4xx_tim.c:382:   assert_param(IS_TIM_LIST3_PERI
 1312              		.loc 1 382 16 discriminator 4 view .LVU343
 1313 0012 194B     		ldr	r3, .L87+4	@ tmp125,
 1314 0014 9842     		cmp	r0, r3	@ TIMx, tmp125
 1315 0016 1CD0     		beq	.L82		@,
 1316              	@ ../Libraries/STM32F4xx_StdPeriph_Driver/src/stm32f4xx_tim.c:382:   assert_param(IS_TIM_LIST3_PERI
 1317              		.loc 1 382 16 discriminator 6 view .LVU344
 1318 0018 03F58063 		add	r3, r3, #1024	@ tmp126, tmp126,
 1319 001c 9842     		cmp	r0, r3	@ TIMx, tmp126
 1320 001e 18D0     		beq	.L82		@,
 1321              	@ ../Libraries/STM32F4xx_StdPeriph_Driver/src/stm32f4xx_tim.c:382:   assert_param(IS_TIM_LIST3_PERI
 1322              		.loc 1 382 16 discriminator 8 view .LVU345
 1323 0020 03F58063 		add	r3, r3, #1024	@ tmp127, tmp127,
 1324 0024 9842     		cmp	r0, r3	@ TIMx, tmp127
 1325 0026 14D0     		beq	.L82		@,
 1326              	@ ../Libraries/STM32F4xx_StdPeriph_Driver/src/stm32f4xx_tim.c:382:   assert_param(IS_TIM_LIST3_PERI
 1327              		.loc 1 382 3 discriminator 10 view .LVU346
 1328 0028 1448     		ldr	r0, .L87+8	@ tmp130,
 1329              	.LVL101:
 1330              		.loc 1 382 3 discriminator 10 view .LVU347
 1331 002a 201A     		subs	r0, r4, r0	@ iftmp.5_1, TIMx, tmp130
 1332 002c B0FA80F0 		clz	r0, r0	@ iftmp.5_1, iftmp.5_1
 1333 0030 4009     		lsrs	r0, r0, #5	@ iftmp.5_1, iftmp.5_1,
 1334 0032 FFF7FEFF 		bl	assert_param		@
 1335              	.LVL102:
 383:../Libraries/STM32F4xx_StdPeriph_Driver/src/stm32f4xx_tim.c ****   assert_param(IS_TIM_COUNTER_MODE(TIM_CounterMode));
 1336              		.loc 1 383 3 is_stmt 1 discriminator 10 view .LVU348
 1337 0036 25F01002 		bic	r2, r5, #16	@ tmp131, TIM_CounterMode,
 1338 003a 8AB9     		cbnz	r2, .L86	@ tmp131,
 1339              	.L84:
 1340              	@ ../Libraries/STM32F4xx_StdPeriph_Driver/src/stm32f4xx_tim.c:383:   assert_param(IS_TIM_COUNTER_MO
 1341              		.loc 1 383 3 is_stmt 0 view .LVU349
 1342 003c 0120     		movs	r0, #1	@ iftmp.6_2,
 1343              	.L77:
 1344              	@ ../Libraries/STM32F4xx_StdPeriph_Driver/src/stm32f4xx_tim.c:383:   assert_param(IS_TIM_COUNTER_MO
 1345              		.loc 1 383 3 discriminator 12 view .LVU350
 1346 003e FFF7FEFF 		bl	assert_param		@
 1347              	.LVL103:
 384:../Libraries/STM32F4xx_StdPeriph_Driver/src/stm32f4xx_tim.c **** 
 385:../Libraries/STM32F4xx_StdPeriph_Driver/src/stm32f4xx_tim.c ****   tmpcr1 = TIMx->CR1;
 1348              		.loc 1 385 3 is_stmt 1 discriminator 12 view .LVU351
 1349              	@ ../Libraries/STM32F4xx_StdPeriph_Driver/src/stm32f4xx_tim.c:385:   tmpcr1 = TIMx->CR1;
 1350              		.loc 1 385 10 is_stmt 0 discriminator 12 view .LVU352
 1351 0042 2388     		ldrh	r3, [r4]	@, TIMx_3(D)->CR1
 1352              	.LVL104:
 386:../Libraries/STM32F4xx_StdPeriph_Driver/src/stm32f4xx_tim.c **** 
 387:../Libraries/STM32F4xx_StdPeriph_Driver/src/stm32f4xx_tim.c ****   /* Reset the CMS and DIR Bits */
 388:../Libraries/STM32F4xx_StdPeriph_Driver/src/stm32f4xx_tim.c ****   tmpcr1 &= (uint16_t)~(TIM_CR1_DIR | TIM_CR1_CMS);
 1353              		.loc 1 388 3 is_stmt 1 discriminator 12 view .LVU353
 1354              	@ ../Libraries/STM32F4xx_StdPeriph_Driver/src/stm32f4xx_tim.c:388:   tmpcr1 &= (uint16_t)~(TIM_CR1_
 1355              		.loc 1 388 10 is_stmt 0 discriminator 12 view .LVU354
 1356 0044 23F07003 		bic	r3, r3, #112	@ tmpcr1, TIMx_3(D)->CR1,
 1357              	.LVL105:
 1358              		.loc 1 388 10 discriminator 12 view .LVU355
ARM GAS  C:\Users\admin\AppData\Local\Temp\ccu1qHez.s 			page 35


 1359 0048 1B04     		lsls	r3, r3, #16	@ tmpcr1, tmpcr1,
 1360 004a 1B0C     		lsrs	r3, r3, #16	@ tmpcr1, tmpcr1,
 1361              	.LVL106:
 389:../Libraries/STM32F4xx_StdPeriph_Driver/src/stm32f4xx_tim.c **** 
 390:../Libraries/STM32F4xx_StdPeriph_Driver/src/stm32f4xx_tim.c ****   /* Set the Counter Mode */
 391:../Libraries/STM32F4xx_StdPeriph_Driver/src/stm32f4xx_tim.c ****   tmpcr1 |= TIM_CounterMode;
 1362              		.loc 1 391 3 is_stmt 1 discriminator 12 view .LVU356
 1363              	@ ../Libraries/STM32F4xx_StdPeriph_Driver/src/stm32f4xx_tim.c:391:   tmpcr1 |= TIM_CounterMode;
 1364              		.loc 1 391 10 is_stmt 0 discriminator 12 view .LVU357
 1365 004c 2B43     		orrs	r3, r3, r5	@, tmpcr1, tmpcr1, TIM_CounterMode
 1366              	.LVL107:
 392:../Libraries/STM32F4xx_StdPeriph_Driver/src/stm32f4xx_tim.c **** 
 393:../Libraries/STM32F4xx_StdPeriph_Driver/src/stm32f4xx_tim.c ****   /* Write to TIMx CR1 register */
 394:../Libraries/STM32F4xx_StdPeriph_Driver/src/stm32f4xx_tim.c ****   TIMx->CR1 = tmpcr1;
 1367              		.loc 1 394 3 is_stmt 1 discriminator 12 view .LVU358
 1368              	@ ../Libraries/STM32F4xx_StdPeriph_Driver/src/stm32f4xx_tim.c:394:   TIMx->CR1 = tmpcr1;
 1369              		.loc 1 394 13 is_stmt 0 discriminator 12 view .LVU359
 1370 004e 2380     		strh	r3, [r4]	@ movhi	@ tmpcr1, TIMx_3(D)->CR1
 1371              	@ ../Libraries/STM32F4xx_StdPeriph_Driver/src/stm32f4xx_tim.c:395: }
 395:../Libraries/STM32F4xx_StdPeriph_Driver/src/stm32f4xx_tim.c **** }
 1372              		.loc 1 395 1 discriminator 12 view .LVU360
 1373 0050 38BD     		pop	{r3, r4, r5, pc}	@
 1374              	.LVL108:
 1375              	.L82:
 1376              	@ ../Libraries/STM32F4xx_StdPeriph_Driver/src/stm32f4xx_tim.c:382:   assert_param(IS_TIM_LIST3_PERI
 382:../Libraries/STM32F4xx_StdPeriph_Driver/src/stm32f4xx_tim.c ****   assert_param(IS_TIM_COUNTER_MODE(TIM_CounterMode));
 1377              		.loc 1 382 3 view .LVU361
 1378 0052 0120     		movs	r0, #1	@ iftmp.5_1,
 1379              	.LVL109:
 382:../Libraries/STM32F4xx_StdPeriph_Driver/src/stm32f4xx_tim.c ****   assert_param(IS_TIM_COUNTER_MODE(TIM_CounterMode));
 1380              		.loc 1 382 3 view .LVU362
 1381 0054 FFF7FEFF 		bl	assert_param		@
 1382              	.LVL110:
 383:../Libraries/STM32F4xx_StdPeriph_Driver/src/stm32f4xx_tim.c **** 
 1383              		.loc 1 383 3 is_stmt 1 view .LVU363
 1384 0058 25F01002 		bic	r2, r5, #16	@ tmp131, TIM_CounterMode,
 1385 005c 002A     		cmp	r2, #0	@ tmp131
 1386 005e EDD0     		beq	.L84	@
 1387              	.L86:
 1388              	@ ../Libraries/STM32F4xx_StdPeriph_Driver/src/stm32f4xx_tim.c:383:   assert_param(IS_TIM_COUNTER_MO
 383:../Libraries/STM32F4xx_StdPeriph_Driver/src/stm32f4xx_tim.c **** 
 1389              		.loc 1 383 16 is_stmt 0 discriminator 4 view .LVU364
 1390 0060 25F04003 		bic	r3, r5, #64	@ tmp134, TIM_CounterMode,
 1391 0064 202B     		cmp	r3, #32	@ tmp134,
 1392 0066 E9D0     		beq	.L84		@,
 1393              	@ ../Libraries/STM32F4xx_StdPeriph_Driver/src/stm32f4xx_tim.c:383:   assert_param(IS_TIM_COUNTER_MO
 383:../Libraries/STM32F4xx_StdPeriph_Driver/src/stm32f4xx_tim.c **** 
 1394              		.loc 1 383 16 discriminator 6 view .LVU365
 1395 0068 A5F14000 		sub	r0, r5, #64	@ iftmp.6_2, TIM_CounterMode,
 1396 006c B0FA80F0 		clz	r0, r0	@ iftmp.6_2, iftmp.6_2
 1397 0070 4009     		lsrs	r0, r0, #5	@ iftmp.6_2, iftmp.6_2,
 1398 0072 E4E7     		b	.L77		@
 1399              	.L88:
 1400              		.align	2
 1401              	.L87:
 1402 0074 00000140 		.word	1073807360
 1403 0078 00040040 		.word	1073742848
ARM GAS  C:\Users\admin\AppData\Local\Temp\ccu1qHez.s 			page 36


 1404 007c 00040140 		.word	1073808384
 1405              		.cfi_endproc
 1406              	.LFE114:
 1407              		.size	TIM_CounterModeConfig, .-TIM_CounterModeConfig
 1408              		.section	.text.TIM_SetCounter,"ax",%progbits
 1409              		.align	1
 1410              		.p2align 2,,3
 1411              		.global	TIM_SetCounter
 1412              		.syntax unified
 1413              		.thumb
 1414              		.thumb_func
 1415              		.type	TIM_SetCounter, %function
 1416              	TIM_SetCounter:
 1417              	.LVL111:
 1418              	.LFB115:
 396:../Libraries/STM32F4xx_StdPeriph_Driver/src/stm32f4xx_tim.c **** 
 397:../Libraries/STM32F4xx_StdPeriph_Driver/src/stm32f4xx_tim.c **** /**
 398:../Libraries/STM32F4xx_StdPeriph_Driver/src/stm32f4xx_tim.c ****   * @brief  Sets the TIMx Counter Register value
 399:../Libraries/STM32F4xx_StdPeriph_Driver/src/stm32f4xx_tim.c ****   * @param  TIMx: where x can be 1 to 14 to select the TIM peripheral.
 400:../Libraries/STM32F4xx_StdPeriph_Driver/src/stm32f4xx_tim.c ****   * @param  Counter: specifies the Counter register new value.
 401:../Libraries/STM32F4xx_StdPeriph_Driver/src/stm32f4xx_tim.c ****   * @retval None
 402:../Libraries/STM32F4xx_StdPeriph_Driver/src/stm32f4xx_tim.c ****   */
 403:../Libraries/STM32F4xx_StdPeriph_Driver/src/stm32f4xx_tim.c **** void TIM_SetCounter(TIM_TypeDef* TIMx, uint32_t Counter)
 404:../Libraries/STM32F4xx_StdPeriph_Driver/src/stm32f4xx_tim.c **** {
 1419              		.loc 1 404 1 is_stmt 1 view -0
 1420              		.cfi_startproc
 1421              		@ args = 0, pretend = 0, frame = 0
 1422              		@ frame_needed = 0, uses_anonymous_args = 0
 405:../Libraries/STM32F4xx_StdPeriph_Driver/src/stm32f4xx_tim.c ****   /* Check the parameters */
 406:../Libraries/STM32F4xx_StdPeriph_Driver/src/stm32f4xx_tim.c ****    assert_param(IS_TIM_ALL_PERIPH(TIMx));
 1423              		.loc 1 406 4 view .LVU367
 1424              	@ ../Libraries/STM32F4xx_StdPeriph_Driver/src/stm32f4xx_tim.c:404: {
 404:../Libraries/STM32F4xx_StdPeriph_Driver/src/stm32f4xx_tim.c ****   /* Check the parameters */
 1425              		.loc 1 404 1 is_stmt 0 view .LVU368
 1426 0000 38B5     		push	{r3, r4, r5, lr}	@
 1427              		.cfi_def_cfa_offset 16
 1428              		.cfi_offset 3, -16
 1429              		.cfi_offset 4, -12
 1430              		.cfi_offset 5, -8
 1431              		.cfi_offset 14, -4
 1432              	@ ../Libraries/STM32F4xx_StdPeriph_Driver/src/stm32f4xx_tim.c:406:    assert_param(IS_TIM_ALL_PERIP
 1433              		.loc 1 406 4 view .LVU369
 1434 0002 1F4B     		ldr	r3, .L105	@ tmp117,
 1435 0004 9842     		cmp	r0, r3	@ TIMx, tmp117
 1436              	@ ../Libraries/STM32F4xx_StdPeriph_Driver/src/stm32f4xx_tim.c:404: {
 404:../Libraries/STM32F4xx_StdPeriph_Driver/src/stm32f4xx_tim.c ****   /* Check the parameters */
 1437              		.loc 1 404 1 view .LVU370
 1438 0006 0446     		mov	r4, r0	@ TIMx, tmp132
 1439 0008 0D46     		mov	r5, r1	@ Counter, tmp133
 1440              	@ ../Libraries/STM32F4xx_StdPeriph_Driver/src/stm32f4xx_tim.c:406:    assert_param(IS_TIM_ALL_PERIP
 1441              		.loc 1 406 4 view .LVU371
 1442 000a 34D0     		beq	.L103		@,
 1443              	@ ../Libraries/STM32F4xx_StdPeriph_Driver/src/stm32f4xx_tim.c:406:    assert_param(IS_TIM_ALL_PERIP
 1444              		.loc 1 406 17 discriminator 2 view .LVU372
 1445 000c B0F1804F 		cmp	r0, #1073741824	@ TIMx,
 1446 0010 31D0     		beq	.L103		@,
 1447              	@ ../Libraries/STM32F4xx_StdPeriph_Driver/src/stm32f4xx_tim.c:406:    assert_param(IS_TIM_ALL_PERIP
ARM GAS  C:\Users\admin\AppData\Local\Temp\ccu1qHez.s 			page 37


 1448              		.loc 1 406 17 discriminator 4 view .LVU373
 1449 0012 A3F57C43 		sub	r3, r3, #64512	@ tmp118, tmp118,
 1450 0016 9842     		cmp	r0, r3	@ TIMx, tmp118
 1451 0018 2DD0     		beq	.L103		@,
 1452              	@ ../Libraries/STM32F4xx_StdPeriph_Driver/src/stm32f4xx_tim.c:406:    assert_param(IS_TIM_ALL_PERIP
 1453              		.loc 1 406 17 discriminator 6 view .LVU374
 1454 001a 03F58063 		add	r3, r3, #1024	@ tmp119, tmp119,
 1455 001e 9842     		cmp	r0, r3	@ TIMx, tmp119
 1456 0020 29D0     		beq	.L103		@,
 1457              	@ ../Libraries/STM32F4xx_StdPeriph_Driver/src/stm32f4xx_tim.c:406:    assert_param(IS_TIM_ALL_PERIP
 1458              		.loc 1 406 17 discriminator 8 view .LVU375
 1459 0022 03F58063 		add	r3, r3, #1024	@ tmp120, tmp120,
 1460 0026 9842     		cmp	r0, r3	@ TIMx, tmp120
 1461 0028 25D0     		beq	.L103		@,
 1462              	@ ../Libraries/STM32F4xx_StdPeriph_Driver/src/stm32f4xx_tim.c:406:    assert_param(IS_TIM_ALL_PERIP
 1463              		.loc 1 406 17 discriminator 10 view .LVU376
 1464 002a 03F58063 		add	r3, r3, #1024	@ tmp121, tmp121,
 1465 002e 9842     		cmp	r0, r3	@ TIMx, tmp121
 1466 0030 21D0     		beq	.L103		@,
 1467              	@ ../Libraries/STM32F4xx_StdPeriph_Driver/src/stm32f4xx_tim.c:406:    assert_param(IS_TIM_ALL_PERIP
 1468              		.loc 1 406 17 discriminator 12 view .LVU377
 1469 0032 03F58063 		add	r3, r3, #1024	@ tmp122, tmp122,
 1470 0036 9842     		cmp	r0, r3	@ TIMx, tmp122
 1471 0038 1DD0     		beq	.L103		@,
 1472              	@ ../Libraries/STM32F4xx_StdPeriph_Driver/src/stm32f4xx_tim.c:406:    assert_param(IS_TIM_ALL_PERIP
 1473              		.loc 1 406 17 discriminator 14 view .LVU378
 1474 003a 03F57043 		add	r3, r3, #61440	@ tmp123, tmp123,
 1475 003e 9842     		cmp	r0, r3	@ TIMx, tmp123
 1476 0040 19D0     		beq	.L103		@,
 1477              	@ ../Libraries/STM32F4xx_StdPeriph_Driver/src/stm32f4xx_tim.c:406:    assert_param(IS_TIM_ALL_PERIP
 1478              		.loc 1 406 17 discriminator 16 view .LVU379
 1479 0042 03F57053 		add	r3, r3, #15360	@ tmp124, tmp124,
 1480 0046 9842     		cmp	r0, r3	@ TIMx, tmp124
 1481 0048 15D0     		beq	.L103		@,
 1482              	@ ../Libraries/STM32F4xx_StdPeriph_Driver/src/stm32f4xx_tim.c:406:    assert_param(IS_TIM_ALL_PERIP
 1483              		.loc 1 406 17 discriminator 18 view .LVU380
 1484 004a 03F58063 		add	r3, r3, #1024	@ tmp125, tmp125,
 1485 004e 9842     		cmp	r0, r3	@ TIMx, tmp125
 1486 0050 11D0     		beq	.L103		@,
 1487              	@ ../Libraries/STM32F4xx_StdPeriph_Driver/src/stm32f4xx_tim.c:406:    assert_param(IS_TIM_ALL_PERIP
 1488              		.loc 1 406 17 discriminator 20 view .LVU381
 1489 0052 03F58063 		add	r3, r3, #1024	@ tmp126, tmp126,
 1490 0056 9842     		cmp	r0, r3	@ TIMx, tmp126
 1491 0058 0DD0     		beq	.L103		@,
 1492              	@ ../Libraries/STM32F4xx_StdPeriph_Driver/src/stm32f4xx_tim.c:406:    assert_param(IS_TIM_ALL_PERIP
 1493              		.loc 1 406 17 discriminator 22 view .LVU382
 1494 005a A3F59833 		sub	r3, r3, #77824	@ tmp127, tmp127,
 1495 005e 9842     		cmp	r0, r3	@ TIMx, tmp127
 1496 0060 09D0     		beq	.L103		@,
 1497              	@ ../Libraries/STM32F4xx_StdPeriph_Driver/src/stm32f4xx_tim.c:406:    assert_param(IS_TIM_ALL_PERIP
 1498              		.loc 1 406 4 discriminator 24 view .LVU383
 1499 0062 03F58063 		add	r3, r3, #1024	@ tmp128, tmp128,
 1500 0066 9842     		cmp	r0, r3	@ TIMx, tmp128
 1501 0068 05D0     		beq	.L103		@,
 1502              	@ ../Libraries/STM32F4xx_StdPeriph_Driver/src/stm32f4xx_tim.c:406:    assert_param(IS_TIM_ALL_PERIP
 1503              		.loc 1 406 17 discriminator 26 view .LVU384
 1504 006a 0648     		ldr	r0, .L105+4	@ tmp131,
ARM GAS  C:\Users\admin\AppData\Local\Temp\ccu1qHez.s 			page 38


 1505              	.LVL112:
 1506              		.loc 1 406 17 discriminator 26 view .LVU385
 1507 006c 201A     		subs	r0, r4, r0	@ iftmp.7_1, TIMx, tmp131
 1508 006e B0FA80F0 		clz	r0, r0	@ iftmp.7_1, iftmp.7_1
 1509 0072 4009     		lsrs	r0, r0, #5	@ iftmp.7_1, iftmp.7_1,
 1510 0074 00E0     		b	.L90		@
 1511              	.LVL113:
 1512              	.L103:
 1513              	@ ../Libraries/STM32F4xx_StdPeriph_Driver/src/stm32f4xx_tim.c:406:    assert_param(IS_TIM_ALL_PERIP
 1514              		.loc 1 406 4 view .LVU386
 1515 0076 0120     		movs	r0, #1	@ iftmp.7_1,
 1516              	.LVL114:
 1517              	.L90:
 1518              	@ ../Libraries/STM32F4xx_StdPeriph_Driver/src/stm32f4xx_tim.c:406:    assert_param(IS_TIM_ALL_PERIP
 1519              		.loc 1 406 4 discriminator 30 view .LVU387
 1520 0078 FFF7FEFF 		bl	assert_param		@
 1521              	.LVL115:
 407:../Libraries/STM32F4xx_StdPeriph_Driver/src/stm32f4xx_tim.c **** 
 408:../Libraries/STM32F4xx_StdPeriph_Driver/src/stm32f4xx_tim.c ****   /* Set the Counter Register value */
 409:../Libraries/STM32F4xx_StdPeriph_Driver/src/stm32f4xx_tim.c ****   TIMx->CNT = Counter;
 1522              		.loc 1 409 3 is_stmt 1 discriminator 30 view .LVU388
 1523              	@ ../Libraries/STM32F4xx_StdPeriph_Driver/src/stm32f4xx_tim.c:409:   TIMx->CNT = Counter;
 1524              		.loc 1 409 13 is_stmt 0 discriminator 30 view .LVU389
 1525 007c 6562     		str	r5, [r4, #36]	@ Counter, TIMx_2(D)->CNT
 1526              	@ ../Libraries/STM32F4xx_StdPeriph_Driver/src/stm32f4xx_tim.c:410: }
 410:../Libraries/STM32F4xx_StdPeriph_Driver/src/stm32f4xx_tim.c **** }
 1527              		.loc 1 410 1 discriminator 30 view .LVU390
 1528 007e 38BD     		pop	{r3, r4, r5, pc}	@
 1529              	.LVL116:
 1530              	.L106:
 1531              		.loc 1 410 1 discriminator 30 view .LVU391
 1532              		.align	2
 1533              	.L105:
 1534 0080 00000140 		.word	1073807360
 1535 0084 00200040 		.word	1073750016
 1536              		.cfi_endproc
 1537              	.LFE115:
 1538              		.size	TIM_SetCounter, .-TIM_SetCounter
 1539              		.section	.text.TIM_SetAutoreload,"ax",%progbits
 1540              		.align	1
 1541              		.p2align 2,,3
 1542              		.global	TIM_SetAutoreload
 1543              		.syntax unified
 1544              		.thumb
 1545              		.thumb_func
 1546              		.type	TIM_SetAutoreload, %function
 1547              	TIM_SetAutoreload:
 1548              	.LVL117:
 1549              	.LFB116:
 411:../Libraries/STM32F4xx_StdPeriph_Driver/src/stm32f4xx_tim.c **** 
 412:../Libraries/STM32F4xx_StdPeriph_Driver/src/stm32f4xx_tim.c **** /**
 413:../Libraries/STM32F4xx_StdPeriph_Driver/src/stm32f4xx_tim.c ****   * @brief  Sets the TIMx Autoreload Register value
 414:../Libraries/STM32F4xx_StdPeriph_Driver/src/stm32f4xx_tim.c ****   * @param  TIMx: where x can be 1 to 14 to select the TIM peripheral.
 415:../Libraries/STM32F4xx_StdPeriph_Driver/src/stm32f4xx_tim.c ****   * @param  Autoreload: specifies the Autoreload register new value.
 416:../Libraries/STM32F4xx_StdPeriph_Driver/src/stm32f4xx_tim.c ****   * @retval None
 417:../Libraries/STM32F4xx_StdPeriph_Driver/src/stm32f4xx_tim.c ****   */
 418:../Libraries/STM32F4xx_StdPeriph_Driver/src/stm32f4xx_tim.c **** void TIM_SetAutoreload(TIM_TypeDef* TIMx, uint32_t Autoreload)
ARM GAS  C:\Users\admin\AppData\Local\Temp\ccu1qHez.s 			page 39


 419:../Libraries/STM32F4xx_StdPeriph_Driver/src/stm32f4xx_tim.c **** {
 1550              		.loc 1 419 1 is_stmt 1 view -0
 1551              		.cfi_startproc
 1552              		@ args = 0, pretend = 0, frame = 0
 1553              		@ frame_needed = 0, uses_anonymous_args = 0
 420:../Libraries/STM32F4xx_StdPeriph_Driver/src/stm32f4xx_tim.c ****   /* Check the parameters */
 421:../Libraries/STM32F4xx_StdPeriph_Driver/src/stm32f4xx_tim.c ****   assert_param(IS_TIM_ALL_PERIPH(TIMx));
 1554              		.loc 1 421 3 view .LVU393
 1555              	@ ../Libraries/STM32F4xx_StdPeriph_Driver/src/stm32f4xx_tim.c:419: {
 419:../Libraries/STM32F4xx_StdPeriph_Driver/src/stm32f4xx_tim.c ****   /* Check the parameters */
 1556              		.loc 1 419 1 is_stmt 0 view .LVU394
 1557 0000 38B5     		push	{r3, r4, r5, lr}	@
 1558              		.cfi_def_cfa_offset 16
 1559              		.cfi_offset 3, -16
 1560              		.cfi_offset 4, -12
 1561              		.cfi_offset 5, -8
 1562              		.cfi_offset 14, -4
 1563              	@ ../Libraries/STM32F4xx_StdPeriph_Driver/src/stm32f4xx_tim.c:421:   assert_param(IS_TIM_ALL_PERIPH
 1564              		.loc 1 421 3 view .LVU395
 1565 0002 1F4B     		ldr	r3, .L123	@ tmp117,
 1566 0004 9842     		cmp	r0, r3	@ TIMx, tmp117
 1567              	@ ../Libraries/STM32F4xx_StdPeriph_Driver/src/stm32f4xx_tim.c:419: {
 419:../Libraries/STM32F4xx_StdPeriph_Driver/src/stm32f4xx_tim.c ****   /* Check the parameters */
 1568              		.loc 1 419 1 view .LVU396
 1569 0006 0446     		mov	r4, r0	@ TIMx, tmp132
 1570 0008 0D46     		mov	r5, r1	@ Autoreload, tmp133
 1571              	@ ../Libraries/STM32F4xx_StdPeriph_Driver/src/stm32f4xx_tim.c:421:   assert_param(IS_TIM_ALL_PERIPH
 1572              		.loc 1 421 3 view .LVU397
 1573 000a 34D0     		beq	.L121		@,
 1574              	@ ../Libraries/STM32F4xx_StdPeriph_Driver/src/stm32f4xx_tim.c:421:   assert_param(IS_TIM_ALL_PERIPH
 1575              		.loc 1 421 16 discriminator 2 view .LVU398
 1576 000c B0F1804F 		cmp	r0, #1073741824	@ TIMx,
 1577 0010 31D0     		beq	.L121		@,
 1578              	@ ../Libraries/STM32F4xx_StdPeriph_Driver/src/stm32f4xx_tim.c:421:   assert_param(IS_TIM_ALL_PERIPH
 1579              		.loc 1 421 16 discriminator 4 view .LVU399
 1580 0012 A3F57C43 		sub	r3, r3, #64512	@ tmp118, tmp118,
 1581 0016 9842     		cmp	r0, r3	@ TIMx, tmp118
 1582 0018 2DD0     		beq	.L121		@,
 1583              	@ ../Libraries/STM32F4xx_StdPeriph_Driver/src/stm32f4xx_tim.c:421:   assert_param(IS_TIM_ALL_PERIPH
 1584              		.loc 1 421 16 discriminator 6 view .LVU400
 1585 001a 03F58063 		add	r3, r3, #1024	@ tmp119, tmp119,
 1586 001e 9842     		cmp	r0, r3	@ TIMx, tmp119
 1587 0020 29D0     		beq	.L121		@,
 1588              	@ ../Libraries/STM32F4xx_StdPeriph_Driver/src/stm32f4xx_tim.c:421:   assert_param(IS_TIM_ALL_PERIPH
 1589              		.loc 1 421 16 discriminator 8 view .LVU401
 1590 0022 03F58063 		add	r3, r3, #1024	@ tmp120, tmp120,
 1591 0026 9842     		cmp	r0, r3	@ TIMx, tmp120
 1592 0028 25D0     		beq	.L121		@,
 1593              	@ ../Libraries/STM32F4xx_StdPeriph_Driver/src/stm32f4xx_tim.c:421:   assert_param(IS_TIM_ALL_PERIPH
 1594              		.loc 1 421 16 discriminator 10 view .LVU402
 1595 002a 03F58063 		add	r3, r3, #1024	@ tmp121, tmp121,
 1596 002e 9842     		cmp	r0, r3	@ TIMx, tmp121
 1597 0030 21D0     		beq	.L121		@,
 1598              	@ ../Libraries/STM32F4xx_StdPeriph_Driver/src/stm32f4xx_tim.c:421:   assert_param(IS_TIM_ALL_PERIPH
 1599              		.loc 1 421 16 discriminator 12 view .LVU403
 1600 0032 03F58063 		add	r3, r3, #1024	@ tmp122, tmp122,
 1601 0036 9842     		cmp	r0, r3	@ TIMx, tmp122
ARM GAS  C:\Users\admin\AppData\Local\Temp\ccu1qHez.s 			page 40


 1602 0038 1DD0     		beq	.L121		@,
 1603              	@ ../Libraries/STM32F4xx_StdPeriph_Driver/src/stm32f4xx_tim.c:421:   assert_param(IS_TIM_ALL_PERIPH
 1604              		.loc 1 421 16 discriminator 14 view .LVU404
 1605 003a 03F57043 		add	r3, r3, #61440	@ tmp123, tmp123,
 1606 003e 9842     		cmp	r0, r3	@ TIMx, tmp123
 1607 0040 19D0     		beq	.L121		@,
 1608              	@ ../Libraries/STM32F4xx_StdPeriph_Driver/src/stm32f4xx_tim.c:421:   assert_param(IS_TIM_ALL_PERIPH
 1609              		.loc 1 421 16 discriminator 16 view .LVU405
 1610 0042 03F57053 		add	r3, r3, #15360	@ tmp124, tmp124,
 1611 0046 9842     		cmp	r0, r3	@ TIMx, tmp124
 1612 0048 15D0     		beq	.L121		@,
 1613              	@ ../Libraries/STM32F4xx_StdPeriph_Driver/src/stm32f4xx_tim.c:421:   assert_param(IS_TIM_ALL_PERIPH
 1614              		.loc 1 421 16 discriminator 18 view .LVU406
 1615 004a 03F58063 		add	r3, r3, #1024	@ tmp125, tmp125,
 1616 004e 9842     		cmp	r0, r3	@ TIMx, tmp125
 1617 0050 11D0     		beq	.L121		@,
 1618              	@ ../Libraries/STM32F4xx_StdPeriph_Driver/src/stm32f4xx_tim.c:421:   assert_param(IS_TIM_ALL_PERIPH
 1619              		.loc 1 421 16 discriminator 20 view .LVU407
 1620 0052 03F58063 		add	r3, r3, #1024	@ tmp126, tmp126,
 1621 0056 9842     		cmp	r0, r3	@ TIMx, tmp126
 1622 0058 0DD0     		beq	.L121		@,
 1623              	@ ../Libraries/STM32F4xx_StdPeriph_Driver/src/stm32f4xx_tim.c:421:   assert_param(IS_TIM_ALL_PERIPH
 1624              		.loc 1 421 16 discriminator 22 view .LVU408
 1625 005a A3F59833 		sub	r3, r3, #77824	@ tmp127, tmp127,
 1626 005e 9842     		cmp	r0, r3	@ TIMx, tmp127
 1627 0060 09D0     		beq	.L121		@,
 1628              	@ ../Libraries/STM32F4xx_StdPeriph_Driver/src/stm32f4xx_tim.c:421:   assert_param(IS_TIM_ALL_PERIPH
 1629              		.loc 1 421 3 discriminator 24 view .LVU409
 1630 0062 03F58063 		add	r3, r3, #1024	@ tmp128, tmp128,
 1631 0066 9842     		cmp	r0, r3	@ TIMx, tmp128
 1632 0068 05D0     		beq	.L121		@,
 1633              	@ ../Libraries/STM32F4xx_StdPeriph_Driver/src/stm32f4xx_tim.c:421:   assert_param(IS_TIM_ALL_PERIPH
 1634              		.loc 1 421 16 discriminator 26 view .LVU410
 1635 006a 0648     		ldr	r0, .L123+4	@ tmp131,
 1636              	.LVL118:
 1637              		.loc 1 421 16 discriminator 26 view .LVU411
 1638 006c 201A     		subs	r0, r4, r0	@ iftmp.8_1, TIMx, tmp131
 1639 006e B0FA80F0 		clz	r0, r0	@ iftmp.8_1, iftmp.8_1
 1640 0072 4009     		lsrs	r0, r0, #5	@ iftmp.8_1, iftmp.8_1,
 1641 0074 00E0     		b	.L108		@
 1642              	.LVL119:
 1643              	.L121:
 1644              	@ ../Libraries/STM32F4xx_StdPeriph_Driver/src/stm32f4xx_tim.c:421:   assert_param(IS_TIM_ALL_PERIPH
 1645              		.loc 1 421 3 view .LVU412
 1646 0076 0120     		movs	r0, #1	@ iftmp.8_1,
 1647              	.LVL120:
 1648              	.L108:
 1649              	@ ../Libraries/STM32F4xx_StdPeriph_Driver/src/stm32f4xx_tim.c:421:   assert_param(IS_TIM_ALL_PERIPH
 1650              		.loc 1 421 3 discriminator 30 view .LVU413
 1651 0078 FFF7FEFF 		bl	assert_param		@
 1652              	.LVL121:
 422:../Libraries/STM32F4xx_StdPeriph_Driver/src/stm32f4xx_tim.c ****   
 423:../Libraries/STM32F4xx_StdPeriph_Driver/src/stm32f4xx_tim.c ****   /* Set the Autoreload Register value */
 424:../Libraries/STM32F4xx_StdPeriph_Driver/src/stm32f4xx_tim.c ****   TIMx->ARR = Autoreload;
 1653              		.loc 1 424 3 is_stmt 1 discriminator 30 view .LVU414
 1654              	@ ../Libraries/STM32F4xx_StdPeriph_Driver/src/stm32f4xx_tim.c:424:   TIMx->ARR = Autoreload;
 1655              		.loc 1 424 13 is_stmt 0 discriminator 30 view .LVU415
ARM GAS  C:\Users\admin\AppData\Local\Temp\ccu1qHez.s 			page 41


 1656 007c E562     		str	r5, [r4, #44]	@ Autoreload, TIMx_2(D)->ARR
 1657              	@ ../Libraries/STM32F4xx_StdPeriph_Driver/src/stm32f4xx_tim.c:425: }
 425:../Libraries/STM32F4xx_StdPeriph_Driver/src/stm32f4xx_tim.c **** }
 1658              		.loc 1 425 1 discriminator 30 view .LVU416
 1659 007e 38BD     		pop	{r3, r4, r5, pc}	@
 1660              	.LVL122:
 1661              	.L124:
 1662              		.loc 1 425 1 discriminator 30 view .LVU417
 1663              		.align	2
 1664              	.L123:
 1665 0080 00000140 		.word	1073807360
 1666 0084 00200040 		.word	1073750016
 1667              		.cfi_endproc
 1668              	.LFE116:
 1669              		.size	TIM_SetAutoreload, .-TIM_SetAutoreload
 1670              		.section	.text.TIM_GetCounter,"ax",%progbits
 1671              		.align	1
 1672              		.p2align 2,,3
 1673              		.global	TIM_GetCounter
 1674              		.syntax unified
 1675              		.thumb
 1676              		.thumb_func
 1677              		.type	TIM_GetCounter, %function
 1678              	TIM_GetCounter:
 1679              	.LVL123:
 1680              	.LFB117:
 426:../Libraries/STM32F4xx_StdPeriph_Driver/src/stm32f4xx_tim.c **** 
 427:../Libraries/STM32F4xx_StdPeriph_Driver/src/stm32f4xx_tim.c **** /**
 428:../Libraries/STM32F4xx_StdPeriph_Driver/src/stm32f4xx_tim.c ****   * @brief  Gets the TIMx Counter value.
 429:../Libraries/STM32F4xx_StdPeriph_Driver/src/stm32f4xx_tim.c ****   * @param  TIMx: where x can be 1 to 14 to select the TIM peripheral.
 430:../Libraries/STM32F4xx_StdPeriph_Driver/src/stm32f4xx_tim.c ****   * @retval Counter Register value
 431:../Libraries/STM32F4xx_StdPeriph_Driver/src/stm32f4xx_tim.c ****   */
 432:../Libraries/STM32F4xx_StdPeriph_Driver/src/stm32f4xx_tim.c **** uint32_t TIM_GetCounter(TIM_TypeDef* TIMx)
 433:../Libraries/STM32F4xx_StdPeriph_Driver/src/stm32f4xx_tim.c **** {
 1681              		.loc 1 433 1 is_stmt 1 view -0
 1682              		.cfi_startproc
 1683              		@ args = 0, pretend = 0, frame = 0
 1684              		@ frame_needed = 0, uses_anonymous_args = 0
 434:../Libraries/STM32F4xx_StdPeriph_Driver/src/stm32f4xx_tim.c ****   /* Check the parameters */
 435:../Libraries/STM32F4xx_StdPeriph_Driver/src/stm32f4xx_tim.c ****   assert_param(IS_TIM_ALL_PERIPH(TIMx));
 1685              		.loc 1 435 3 view .LVU419
 1686 0000 1F4B     		ldr	r3, .L141	@ tmp117,
 1687 0002 9842     		cmp	r0, r3	@ TIMx, tmp117
 1688              	@ ../Libraries/STM32F4xx_StdPeriph_Driver/src/stm32f4xx_tim.c:433: {
 433:../Libraries/STM32F4xx_StdPeriph_Driver/src/stm32f4xx_tim.c ****   /* Check the parameters */
 1689              		.loc 1 433 1 is_stmt 0 view .LVU420
 1690 0004 10B5     		push	{r4, lr}	@
 1691              		.cfi_def_cfa_offset 8
 1692              		.cfi_offset 4, -8
 1693              		.cfi_offset 14, -4
 1694              	@ ../Libraries/STM32F4xx_StdPeriph_Driver/src/stm32f4xx_tim.c:433: {
 433:../Libraries/STM32F4xx_StdPeriph_Driver/src/stm32f4xx_tim.c ****   /* Check the parameters */
 1695              		.loc 1 433 1 view .LVU421
 1696 0006 0446     		mov	r4, r0	@ TIMx, tmp133
 1697              	@ ../Libraries/STM32F4xx_StdPeriph_Driver/src/stm32f4xx_tim.c:435:   assert_param(IS_TIM_ALL_PERIPH
 1698              		.loc 1 435 3 view .LVU422
 1699 0008 34D0     		beq	.L139		@,
ARM GAS  C:\Users\admin\AppData\Local\Temp\ccu1qHez.s 			page 42


 1700              	@ ../Libraries/STM32F4xx_StdPeriph_Driver/src/stm32f4xx_tim.c:435:   assert_param(IS_TIM_ALL_PERIPH
 1701              		.loc 1 435 16 discriminator 2 view .LVU423
 1702 000a B0F1804F 		cmp	r0, #1073741824	@ TIMx,
 1703 000e 31D0     		beq	.L139		@,
 1704              	@ ../Libraries/STM32F4xx_StdPeriph_Driver/src/stm32f4xx_tim.c:435:   assert_param(IS_TIM_ALL_PERIPH
 1705              		.loc 1 435 16 discriminator 4 view .LVU424
 1706 0010 A3F57C43 		sub	r3, r3, #64512	@ tmp118, tmp118,
 1707 0014 9842     		cmp	r0, r3	@ TIMx, tmp118
 1708 0016 2DD0     		beq	.L139		@,
 1709              	@ ../Libraries/STM32F4xx_StdPeriph_Driver/src/stm32f4xx_tim.c:435:   assert_param(IS_TIM_ALL_PERIPH
 1710              		.loc 1 435 16 discriminator 6 view .LVU425
 1711 0018 03F58063 		add	r3, r3, #1024	@ tmp119, tmp119,
 1712 001c 9842     		cmp	r0, r3	@ TIMx, tmp119
 1713 001e 29D0     		beq	.L139		@,
 1714              	@ ../Libraries/STM32F4xx_StdPeriph_Driver/src/stm32f4xx_tim.c:435:   assert_param(IS_TIM_ALL_PERIPH
 1715              		.loc 1 435 16 discriminator 8 view .LVU426
 1716 0020 03F58063 		add	r3, r3, #1024	@ tmp120, tmp120,
 1717 0024 9842     		cmp	r0, r3	@ TIMx, tmp120
 1718 0026 25D0     		beq	.L139		@,
 1719              	@ ../Libraries/STM32F4xx_StdPeriph_Driver/src/stm32f4xx_tim.c:435:   assert_param(IS_TIM_ALL_PERIPH
 1720              		.loc 1 435 16 discriminator 10 view .LVU427
 1721 0028 03F58063 		add	r3, r3, #1024	@ tmp121, tmp121,
 1722 002c 9842     		cmp	r0, r3	@ TIMx, tmp121
 1723 002e 21D0     		beq	.L139		@,
 1724              	@ ../Libraries/STM32F4xx_StdPeriph_Driver/src/stm32f4xx_tim.c:435:   assert_param(IS_TIM_ALL_PERIPH
 1725              		.loc 1 435 16 discriminator 12 view .LVU428
 1726 0030 03F58063 		add	r3, r3, #1024	@ tmp122, tmp122,
 1727 0034 9842     		cmp	r0, r3	@ TIMx, tmp122
 1728 0036 1DD0     		beq	.L139		@,
 1729              	@ ../Libraries/STM32F4xx_StdPeriph_Driver/src/stm32f4xx_tim.c:435:   assert_param(IS_TIM_ALL_PERIPH
 1730              		.loc 1 435 16 discriminator 14 view .LVU429
 1731 0038 03F57043 		add	r3, r3, #61440	@ tmp123, tmp123,
 1732 003c 9842     		cmp	r0, r3	@ TIMx, tmp123
 1733 003e 19D0     		beq	.L139		@,
 1734              	@ ../Libraries/STM32F4xx_StdPeriph_Driver/src/stm32f4xx_tim.c:435:   assert_param(IS_TIM_ALL_PERIPH
 1735              		.loc 1 435 16 discriminator 16 view .LVU430
 1736 0040 03F57053 		add	r3, r3, #15360	@ tmp124, tmp124,
 1737 0044 9842     		cmp	r0, r3	@ TIMx, tmp124
 1738 0046 15D0     		beq	.L139		@,
 1739              	@ ../Libraries/STM32F4xx_StdPeriph_Driver/src/stm32f4xx_tim.c:435:   assert_param(IS_TIM_ALL_PERIPH
 1740              		.loc 1 435 16 discriminator 18 view .LVU431
 1741 0048 03F58063 		add	r3, r3, #1024	@ tmp125, tmp125,
 1742 004c 9842     		cmp	r0, r3	@ TIMx, tmp125
 1743 004e 11D0     		beq	.L139		@,
 1744              	@ ../Libraries/STM32F4xx_StdPeriph_Driver/src/stm32f4xx_tim.c:435:   assert_param(IS_TIM_ALL_PERIPH
 1745              		.loc 1 435 16 discriminator 20 view .LVU432
 1746 0050 03F58063 		add	r3, r3, #1024	@ tmp126, tmp126,
 1747 0054 9842     		cmp	r0, r3	@ TIMx, tmp126
 1748 0056 0DD0     		beq	.L139		@,
 1749              	@ ../Libraries/STM32F4xx_StdPeriph_Driver/src/stm32f4xx_tim.c:435:   assert_param(IS_TIM_ALL_PERIPH
 1750              		.loc 1 435 16 discriminator 22 view .LVU433
 1751 0058 A3F59833 		sub	r3, r3, #77824	@ tmp127, tmp127,
 1752 005c 9842     		cmp	r0, r3	@ TIMx, tmp127
 1753 005e 09D0     		beq	.L139		@,
 1754              	@ ../Libraries/STM32F4xx_StdPeriph_Driver/src/stm32f4xx_tim.c:435:   assert_param(IS_TIM_ALL_PERIPH
 1755              		.loc 1 435 3 discriminator 24 view .LVU434
 1756 0060 03F58063 		add	r3, r3, #1024	@ tmp128, tmp128,
ARM GAS  C:\Users\admin\AppData\Local\Temp\ccu1qHez.s 			page 43


 1757 0064 9842     		cmp	r0, r3	@ TIMx, tmp128
 1758 0066 05D0     		beq	.L139		@,
 1759              	@ ../Libraries/STM32F4xx_StdPeriph_Driver/src/stm32f4xx_tim.c:435:   assert_param(IS_TIM_ALL_PERIPH
 1760              		.loc 1 435 16 discriminator 26 view .LVU435
 1761 0068 0648     		ldr	r0, .L141+4	@ tmp131,
 1762              	.LVL124:
 1763              		.loc 1 435 16 discriminator 26 view .LVU436
 1764 006a 201A     		subs	r0, r4, r0	@ iftmp.9_1, TIMx, tmp131
 1765 006c B0FA80F0 		clz	r0, r0	@ iftmp.9_1, iftmp.9_1
 1766 0070 4009     		lsrs	r0, r0, #5	@ iftmp.9_1, iftmp.9_1,
 1767 0072 00E0     		b	.L126		@
 1768              	.LVL125:
 1769              	.L139:
 1770              	@ ../Libraries/STM32F4xx_StdPeriph_Driver/src/stm32f4xx_tim.c:435:   assert_param(IS_TIM_ALL_PERIPH
 1771              		.loc 1 435 3 view .LVU437
 1772 0074 0120     		movs	r0, #1	@ iftmp.9_1,
 1773              	.LVL126:
 1774              	.L126:
 1775              	@ ../Libraries/STM32F4xx_StdPeriph_Driver/src/stm32f4xx_tim.c:435:   assert_param(IS_TIM_ALL_PERIPH
 1776              		.loc 1 435 3 discriminator 30 view .LVU438
 1777 0076 FFF7FEFF 		bl	assert_param		@
 1778              	.LVL127:
 436:../Libraries/STM32F4xx_StdPeriph_Driver/src/stm32f4xx_tim.c **** 
 437:../Libraries/STM32F4xx_StdPeriph_Driver/src/stm32f4xx_tim.c ****   /* Get the Counter Register value */
 438:../Libraries/STM32F4xx_StdPeriph_Driver/src/stm32f4xx_tim.c ****   return TIMx->CNT;
 1779              		.loc 1 438 3 is_stmt 1 discriminator 30 view .LVU439
 1780              	@ ../Libraries/STM32F4xx_StdPeriph_Driver/src/stm32f4xx_tim.c:438:   return TIMx->CNT;
 1781              		.loc 1 438 14 is_stmt 0 discriminator 30 view .LVU440
 1782 007a 606A     		ldr	r0, [r4, #36]	@ <retval>, TIMx_2(D)->CNT
 1783              	@ ../Libraries/STM32F4xx_StdPeriph_Driver/src/stm32f4xx_tim.c:439: }
 439:../Libraries/STM32F4xx_StdPeriph_Driver/src/stm32f4xx_tim.c **** }
 1784              		.loc 1 439 1 discriminator 30 view .LVU441
 1785 007c 10BD     		pop	{r4, pc}	@
 1786              	.LVL128:
 1787              	.L142:
 1788              		.loc 1 439 1 discriminator 30 view .LVU442
 1789 007e 00BF     		.align	2
 1790              	.L141:
 1791 0080 00000140 		.word	1073807360
 1792 0084 00200040 		.word	1073750016
 1793              		.cfi_endproc
 1794              	.LFE117:
 1795              		.size	TIM_GetCounter, .-TIM_GetCounter
 1796              		.section	.text.TIM_GetPrescaler,"ax",%progbits
 1797              		.align	1
 1798              		.p2align 2,,3
 1799              		.global	TIM_GetPrescaler
 1800              		.syntax unified
 1801              		.thumb
 1802              		.thumb_func
 1803              		.type	TIM_GetPrescaler, %function
 1804              	TIM_GetPrescaler:
 1805              	.LVL129:
 1806              	.LFB118:
 440:../Libraries/STM32F4xx_StdPeriph_Driver/src/stm32f4xx_tim.c **** 
 441:../Libraries/STM32F4xx_StdPeriph_Driver/src/stm32f4xx_tim.c **** /**
 442:../Libraries/STM32F4xx_StdPeriph_Driver/src/stm32f4xx_tim.c ****   * @brief  Gets the TIMx Prescaler value.
ARM GAS  C:\Users\admin\AppData\Local\Temp\ccu1qHez.s 			page 44


 443:../Libraries/STM32F4xx_StdPeriph_Driver/src/stm32f4xx_tim.c ****   * @param  TIMx: where x can be 1 to 14 to select the TIM peripheral.
 444:../Libraries/STM32F4xx_StdPeriph_Driver/src/stm32f4xx_tim.c ****   * @retval Prescaler Register value.
 445:../Libraries/STM32F4xx_StdPeriph_Driver/src/stm32f4xx_tim.c ****   */
 446:../Libraries/STM32F4xx_StdPeriph_Driver/src/stm32f4xx_tim.c **** uint16_t TIM_GetPrescaler(TIM_TypeDef* TIMx)
 447:../Libraries/STM32F4xx_StdPeriph_Driver/src/stm32f4xx_tim.c **** {
 1807              		.loc 1 447 1 is_stmt 1 view -0
 1808              		.cfi_startproc
 1809              		@ args = 0, pretend = 0, frame = 0
 1810              		@ frame_needed = 0, uses_anonymous_args = 0
 448:../Libraries/STM32F4xx_StdPeriph_Driver/src/stm32f4xx_tim.c ****   /* Check the parameters */
 449:../Libraries/STM32F4xx_StdPeriph_Driver/src/stm32f4xx_tim.c ****   assert_param(IS_TIM_ALL_PERIPH(TIMx));
 1811              		.loc 1 449 3 view .LVU444
 1812 0000 1F4B     		ldr	r3, .L159	@ tmp117,
 1813 0002 9842     		cmp	r0, r3	@ TIMx, tmp117
 1814              	@ ../Libraries/STM32F4xx_StdPeriph_Driver/src/stm32f4xx_tim.c:447: {
 447:../Libraries/STM32F4xx_StdPeriph_Driver/src/stm32f4xx_tim.c ****   /* Check the parameters */
 1815              		.loc 1 447 1 is_stmt 0 view .LVU445
 1816 0004 10B5     		push	{r4, lr}	@
 1817              		.cfi_def_cfa_offset 8
 1818              		.cfi_offset 4, -8
 1819              		.cfi_offset 14, -4
 1820              	@ ../Libraries/STM32F4xx_StdPeriph_Driver/src/stm32f4xx_tim.c:447: {
 447:../Libraries/STM32F4xx_StdPeriph_Driver/src/stm32f4xx_tim.c ****   /* Check the parameters */
 1821              		.loc 1 447 1 view .LVU446
 1822 0006 0446     		mov	r4, r0	@ TIMx, tmp135
 1823              	@ ../Libraries/STM32F4xx_StdPeriph_Driver/src/stm32f4xx_tim.c:449:   assert_param(IS_TIM_ALL_PERIPH
 1824              		.loc 1 449 3 view .LVU447
 1825 0008 34D0     		beq	.L157		@,
 1826              	@ ../Libraries/STM32F4xx_StdPeriph_Driver/src/stm32f4xx_tim.c:449:   assert_param(IS_TIM_ALL_PERIPH
 1827              		.loc 1 449 16 discriminator 2 view .LVU448
 1828 000a B0F1804F 		cmp	r0, #1073741824	@ TIMx,
 1829 000e 31D0     		beq	.L157		@,
 1830              	@ ../Libraries/STM32F4xx_StdPeriph_Driver/src/stm32f4xx_tim.c:449:   assert_param(IS_TIM_ALL_PERIPH
 1831              		.loc 1 449 16 discriminator 4 view .LVU449
 1832 0010 A3F57C43 		sub	r3, r3, #64512	@ tmp118, tmp118,
 1833 0014 9842     		cmp	r0, r3	@ TIMx, tmp118
 1834 0016 2DD0     		beq	.L157		@,
 1835              	@ ../Libraries/STM32F4xx_StdPeriph_Driver/src/stm32f4xx_tim.c:449:   assert_param(IS_TIM_ALL_PERIPH
 1836              		.loc 1 449 16 discriminator 6 view .LVU450
 1837 0018 03F58063 		add	r3, r3, #1024	@ tmp119, tmp119,
 1838 001c 9842     		cmp	r0, r3	@ TIMx, tmp119
 1839 001e 29D0     		beq	.L157		@,
 1840              	@ ../Libraries/STM32F4xx_StdPeriph_Driver/src/stm32f4xx_tim.c:449:   assert_param(IS_TIM_ALL_PERIPH
 1841              		.loc 1 449 16 discriminator 8 view .LVU451
 1842 0020 03F58063 		add	r3, r3, #1024	@ tmp120, tmp120,
 1843 0024 9842     		cmp	r0, r3	@ TIMx, tmp120
 1844 0026 25D0     		beq	.L157		@,
 1845              	@ ../Libraries/STM32F4xx_StdPeriph_Driver/src/stm32f4xx_tim.c:449:   assert_param(IS_TIM_ALL_PERIPH
 1846              		.loc 1 449 16 discriminator 10 view .LVU452
 1847 0028 03F58063 		add	r3, r3, #1024	@ tmp121, tmp121,
 1848 002c 9842     		cmp	r0, r3	@ TIMx, tmp121
 1849 002e 21D0     		beq	.L157		@,
 1850              	@ ../Libraries/STM32F4xx_StdPeriph_Driver/src/stm32f4xx_tim.c:449:   assert_param(IS_TIM_ALL_PERIPH
 1851              		.loc 1 449 16 discriminator 12 view .LVU453
 1852 0030 03F58063 		add	r3, r3, #1024	@ tmp122, tmp122,
 1853 0034 9842     		cmp	r0, r3	@ TIMx, tmp122
 1854 0036 1DD0     		beq	.L157		@,
ARM GAS  C:\Users\admin\AppData\Local\Temp\ccu1qHez.s 			page 45


 1855              	@ ../Libraries/STM32F4xx_StdPeriph_Driver/src/stm32f4xx_tim.c:449:   assert_param(IS_TIM_ALL_PERIPH
 1856              		.loc 1 449 16 discriminator 14 view .LVU454
 1857 0038 03F57043 		add	r3, r3, #61440	@ tmp123, tmp123,
 1858 003c 9842     		cmp	r0, r3	@ TIMx, tmp123
 1859 003e 19D0     		beq	.L157		@,
 1860              	@ ../Libraries/STM32F4xx_StdPeriph_Driver/src/stm32f4xx_tim.c:449:   assert_param(IS_TIM_ALL_PERIPH
 1861              		.loc 1 449 16 discriminator 16 view .LVU455
 1862 0040 03F57053 		add	r3, r3, #15360	@ tmp124, tmp124,
 1863 0044 9842     		cmp	r0, r3	@ TIMx, tmp124
 1864 0046 15D0     		beq	.L157		@,
 1865              	@ ../Libraries/STM32F4xx_StdPeriph_Driver/src/stm32f4xx_tim.c:449:   assert_param(IS_TIM_ALL_PERIPH
 1866              		.loc 1 449 16 discriminator 18 view .LVU456
 1867 0048 03F58063 		add	r3, r3, #1024	@ tmp125, tmp125,
 1868 004c 9842     		cmp	r0, r3	@ TIMx, tmp125
 1869 004e 11D0     		beq	.L157		@,
 1870              	@ ../Libraries/STM32F4xx_StdPeriph_Driver/src/stm32f4xx_tim.c:449:   assert_param(IS_TIM_ALL_PERIPH
 1871              		.loc 1 449 16 discriminator 20 view .LVU457
 1872 0050 03F58063 		add	r3, r3, #1024	@ tmp126, tmp126,
 1873 0054 9842     		cmp	r0, r3	@ TIMx, tmp126
 1874 0056 0DD0     		beq	.L157		@,
 1875              	@ ../Libraries/STM32F4xx_StdPeriph_Driver/src/stm32f4xx_tim.c:449:   assert_param(IS_TIM_ALL_PERIPH
 1876              		.loc 1 449 16 discriminator 22 view .LVU458
 1877 0058 A3F59833 		sub	r3, r3, #77824	@ tmp127, tmp127,
 1878 005c 9842     		cmp	r0, r3	@ TIMx, tmp127
 1879 005e 09D0     		beq	.L157		@,
 1880              	@ ../Libraries/STM32F4xx_StdPeriph_Driver/src/stm32f4xx_tim.c:449:   assert_param(IS_TIM_ALL_PERIPH
 1881              		.loc 1 449 3 discriminator 24 view .LVU459
 1882 0060 03F58063 		add	r3, r3, #1024	@ tmp128, tmp128,
 1883 0064 9842     		cmp	r0, r3	@ TIMx, tmp128
 1884 0066 05D0     		beq	.L157		@,
 1885              	@ ../Libraries/STM32F4xx_StdPeriph_Driver/src/stm32f4xx_tim.c:449:   assert_param(IS_TIM_ALL_PERIPH
 1886              		.loc 1 449 16 discriminator 26 view .LVU460
 1887 0068 0648     		ldr	r0, .L159+4	@ tmp131,
 1888              	.LVL130:
 1889              		.loc 1 449 16 discriminator 26 view .LVU461
 1890 006a 201A     		subs	r0, r4, r0	@ iftmp.10_1, TIMx, tmp131
 1891 006c B0FA80F0 		clz	r0, r0	@ iftmp.10_1, iftmp.10_1
 1892 0070 4009     		lsrs	r0, r0, #5	@ iftmp.10_1, iftmp.10_1,
 1893 0072 00E0     		b	.L144		@
 1894              	.LVL131:
 1895              	.L157:
 1896              	@ ../Libraries/STM32F4xx_StdPeriph_Driver/src/stm32f4xx_tim.c:449:   assert_param(IS_TIM_ALL_PERIPH
 1897              		.loc 1 449 3 view .LVU462
 1898 0074 0120     		movs	r0, #1	@ iftmp.10_1,
 1899              	.LVL132:
 1900              	.L144:
 1901              	@ ../Libraries/STM32F4xx_StdPeriph_Driver/src/stm32f4xx_tim.c:449:   assert_param(IS_TIM_ALL_PERIPH
 1902              		.loc 1 449 3 discriminator 30 view .LVU463
 1903 0076 FFF7FEFF 		bl	assert_param		@
 1904              	.LVL133:
 450:../Libraries/STM32F4xx_StdPeriph_Driver/src/stm32f4xx_tim.c **** 
 451:../Libraries/STM32F4xx_StdPeriph_Driver/src/stm32f4xx_tim.c ****   /* Get the Prescaler Register value */
 452:../Libraries/STM32F4xx_StdPeriph_Driver/src/stm32f4xx_tim.c ****   return TIMx->PSC;
 1905              		.loc 1 452 3 is_stmt 1 discriminator 30 view .LVU464
 1906              	@ ../Libraries/STM32F4xx_StdPeriph_Driver/src/stm32f4xx_tim.c:452:   return TIMx->PSC;
 1907              		.loc 1 452 14 is_stmt 0 discriminator 30 view .LVU465
 1908 007a 208D     		ldrh	r0, [r4, #40]	@, TIMx_2(D)->PSC
ARM GAS  C:\Users\admin\AppData\Local\Temp\ccu1qHez.s 			page 46


 1909              	@ ../Libraries/STM32F4xx_StdPeriph_Driver/src/stm32f4xx_tim.c:453: }
 453:../Libraries/STM32F4xx_StdPeriph_Driver/src/stm32f4xx_tim.c **** }
 1910              		.loc 1 453 1 discriminator 30 view .LVU466
 1911 007c 80B2     		uxth	r0, r0	@, TIMx_2(D)->PSC
 1912 007e 10BD     		pop	{r4, pc}	@
 1913              	.LVL134:
 1914              	.L160:
 1915              		.loc 1 453 1 discriminator 30 view .LVU467
 1916              		.align	2
 1917              	.L159:
 1918 0080 00000140 		.word	1073807360
 1919 0084 00200040 		.word	1073750016
 1920              		.cfi_endproc
 1921              	.LFE118:
 1922              		.size	TIM_GetPrescaler, .-TIM_GetPrescaler
 1923              		.section	.text.TIM_UpdateDisableConfig,"ax",%progbits
 1924              		.align	1
 1925              		.p2align 2,,3
 1926              		.global	TIM_UpdateDisableConfig
 1927              		.syntax unified
 1928              		.thumb
 1929              		.thumb_func
 1930              		.type	TIM_UpdateDisableConfig, %function
 1931              	TIM_UpdateDisableConfig:
 1932              	.LVL135:
 1933              	.LFB119:
 454:../Libraries/STM32F4xx_StdPeriph_Driver/src/stm32f4xx_tim.c **** 
 455:../Libraries/STM32F4xx_StdPeriph_Driver/src/stm32f4xx_tim.c **** /**
 456:../Libraries/STM32F4xx_StdPeriph_Driver/src/stm32f4xx_tim.c ****   * @brief  Enables or Disables the TIMx Update event.
 457:../Libraries/STM32F4xx_StdPeriph_Driver/src/stm32f4xx_tim.c ****   * @param  TIMx: where x can be 1 to 14 to select the TIM peripheral.
 458:../Libraries/STM32F4xx_StdPeriph_Driver/src/stm32f4xx_tim.c ****   * @param  NewState: new state of the TIMx UDIS bit
 459:../Libraries/STM32F4xx_StdPeriph_Driver/src/stm32f4xx_tim.c ****   *          This parameter can be: ENABLE or DISABLE.
 460:../Libraries/STM32F4xx_StdPeriph_Driver/src/stm32f4xx_tim.c ****   * @retval None
 461:../Libraries/STM32F4xx_StdPeriph_Driver/src/stm32f4xx_tim.c ****   */
 462:../Libraries/STM32F4xx_StdPeriph_Driver/src/stm32f4xx_tim.c **** void TIM_UpdateDisableConfig(TIM_TypeDef* TIMx, FunctionalState NewState)
 463:../Libraries/STM32F4xx_StdPeriph_Driver/src/stm32f4xx_tim.c **** {
 1934              		.loc 1 463 1 is_stmt 1 view -0
 1935              		.cfi_startproc
 1936              		@ args = 0, pretend = 0, frame = 0
 1937              		@ frame_needed = 0, uses_anonymous_args = 0
 464:../Libraries/STM32F4xx_StdPeriph_Driver/src/stm32f4xx_tim.c ****   /* Check the parameters */
 465:../Libraries/STM32F4xx_StdPeriph_Driver/src/stm32f4xx_tim.c ****   assert_param(IS_TIM_ALL_PERIPH(TIMx));
 1938              		.loc 1 465 3 view .LVU469
 1939              	@ ../Libraries/STM32F4xx_StdPeriph_Driver/src/stm32f4xx_tim.c:463: {
 463:../Libraries/STM32F4xx_StdPeriph_Driver/src/stm32f4xx_tim.c ****   /* Check the parameters */
 1940              		.loc 1 463 1 is_stmt 0 view .LVU470
 1941 0000 38B5     		push	{r3, r4, r5, lr}	@
 1942              		.cfi_def_cfa_offset 16
 1943              		.cfi_offset 3, -16
 1944              		.cfi_offset 4, -12
 1945              		.cfi_offset 5, -8
 1946              		.cfi_offset 14, -4
 1947              	@ ../Libraries/STM32F4xx_StdPeriph_Driver/src/stm32f4xx_tim.c:465:   assert_param(IS_TIM_ALL_PERIPH
 1948              		.loc 1 465 3 view .LVU471
 1949 0002 284B     		ldr	r3, .L179	@ tmp123,
 1950 0004 9842     		cmp	r0, r3	@ TIMx, tmp123
 1951              	@ ../Libraries/STM32F4xx_StdPeriph_Driver/src/stm32f4xx_tim.c:463: {
ARM GAS  C:\Users\admin\AppData\Local\Temp\ccu1qHez.s 			page 47


 463:../Libraries/STM32F4xx_StdPeriph_Driver/src/stm32f4xx_tim.c ****   /* Check the parameters */
 1952              		.loc 1 463 1 view .LVU472
 1953 0006 0446     		mov	r4, r0	@ TIMx, tmp148
 1954 0008 0D46     		mov	r5, r1	@ NewState, tmp149
 1955              	@ ../Libraries/STM32F4xx_StdPeriph_Driver/src/stm32f4xx_tim.c:465:   assert_param(IS_TIM_ALL_PERIPH
 1956              		.loc 1 465 3 view .LVU473
 1957 000a 34D0     		beq	.L177		@,
 1958              	@ ../Libraries/STM32F4xx_StdPeriph_Driver/src/stm32f4xx_tim.c:465:   assert_param(IS_TIM_ALL_PERIPH
 1959              		.loc 1 465 16 discriminator 2 view .LVU474
 1960 000c B0F1804F 		cmp	r0, #1073741824	@ TIMx,
 1961 0010 31D0     		beq	.L177		@,
 1962              	@ ../Libraries/STM32F4xx_StdPeriph_Driver/src/stm32f4xx_tim.c:465:   assert_param(IS_TIM_ALL_PERIPH
 1963              		.loc 1 465 16 discriminator 4 view .LVU475
 1964 0012 A3F57C43 		sub	r3, r3, #64512	@ tmp124, tmp124,
 1965 0016 9842     		cmp	r0, r3	@ TIMx, tmp124
 1966 0018 2DD0     		beq	.L177		@,
 1967              	@ ../Libraries/STM32F4xx_StdPeriph_Driver/src/stm32f4xx_tim.c:465:   assert_param(IS_TIM_ALL_PERIPH
 1968              		.loc 1 465 16 discriminator 6 view .LVU476
 1969 001a 03F58063 		add	r3, r3, #1024	@ tmp125, tmp125,
 1970 001e 9842     		cmp	r0, r3	@ TIMx, tmp125
 1971 0020 29D0     		beq	.L177		@,
 1972              	@ ../Libraries/STM32F4xx_StdPeriph_Driver/src/stm32f4xx_tim.c:465:   assert_param(IS_TIM_ALL_PERIPH
 1973              		.loc 1 465 16 discriminator 8 view .LVU477
 1974 0022 03F58063 		add	r3, r3, #1024	@ tmp126, tmp126,
 1975 0026 9842     		cmp	r0, r3	@ TIMx, tmp126
 1976 0028 25D0     		beq	.L177		@,
 1977              	@ ../Libraries/STM32F4xx_StdPeriph_Driver/src/stm32f4xx_tim.c:465:   assert_param(IS_TIM_ALL_PERIPH
 1978              		.loc 1 465 16 discriminator 10 view .LVU478
 1979 002a 03F58063 		add	r3, r3, #1024	@ tmp127, tmp127,
 1980 002e 9842     		cmp	r0, r3	@ TIMx, tmp127
 1981 0030 21D0     		beq	.L177		@,
 1982              	@ ../Libraries/STM32F4xx_StdPeriph_Driver/src/stm32f4xx_tim.c:465:   assert_param(IS_TIM_ALL_PERIPH
 1983              		.loc 1 465 16 discriminator 12 view .LVU479
 1984 0032 03F58063 		add	r3, r3, #1024	@ tmp128, tmp128,
 1985 0036 9842     		cmp	r0, r3	@ TIMx, tmp128
 1986 0038 1DD0     		beq	.L177		@,
 1987              	@ ../Libraries/STM32F4xx_StdPeriph_Driver/src/stm32f4xx_tim.c:465:   assert_param(IS_TIM_ALL_PERIPH
 1988              		.loc 1 465 16 discriminator 14 view .LVU480
 1989 003a 03F57043 		add	r3, r3, #61440	@ tmp129, tmp129,
 1990 003e 9842     		cmp	r0, r3	@ TIMx, tmp129
 1991 0040 19D0     		beq	.L177		@,
 1992              	@ ../Libraries/STM32F4xx_StdPeriph_Driver/src/stm32f4xx_tim.c:465:   assert_param(IS_TIM_ALL_PERIPH
 1993              		.loc 1 465 16 discriminator 16 view .LVU481
 1994 0042 03F57053 		add	r3, r3, #15360	@ tmp130, tmp130,
 1995 0046 9842     		cmp	r0, r3	@ TIMx, tmp130
 1996 0048 15D0     		beq	.L177		@,
 1997              	@ ../Libraries/STM32F4xx_StdPeriph_Driver/src/stm32f4xx_tim.c:465:   assert_param(IS_TIM_ALL_PERIPH
 1998              		.loc 1 465 16 discriminator 18 view .LVU482
 1999 004a 03F58063 		add	r3, r3, #1024	@ tmp131, tmp131,
 2000 004e 9842     		cmp	r0, r3	@ TIMx, tmp131
 2001 0050 11D0     		beq	.L177		@,
 2002              	@ ../Libraries/STM32F4xx_StdPeriph_Driver/src/stm32f4xx_tim.c:465:   assert_param(IS_TIM_ALL_PERIPH
 2003              		.loc 1 465 16 discriminator 20 view .LVU483
 2004 0052 03F58063 		add	r3, r3, #1024	@ tmp132, tmp132,
 2005 0056 9842     		cmp	r0, r3	@ TIMx, tmp132
 2006 0058 0DD0     		beq	.L177		@,
 2007              	@ ../Libraries/STM32F4xx_StdPeriph_Driver/src/stm32f4xx_tim.c:465:   assert_param(IS_TIM_ALL_PERIPH
ARM GAS  C:\Users\admin\AppData\Local\Temp\ccu1qHez.s 			page 48


 2008              		.loc 1 465 16 discriminator 22 view .LVU484
 2009 005a A3F59833 		sub	r3, r3, #77824	@ tmp133, tmp133,
 2010 005e 9842     		cmp	r0, r3	@ TIMx, tmp133
 2011 0060 09D0     		beq	.L177		@,
 2012              	@ ../Libraries/STM32F4xx_StdPeriph_Driver/src/stm32f4xx_tim.c:465:   assert_param(IS_TIM_ALL_PERIPH
 2013              		.loc 1 465 3 discriminator 24 view .LVU485
 2014 0062 03F58063 		add	r3, r3, #1024	@ tmp134, tmp134,
 2015 0066 9842     		cmp	r0, r3	@ TIMx, tmp134
 2016 0068 05D0     		beq	.L177		@,
 2017              	@ ../Libraries/STM32F4xx_StdPeriph_Driver/src/stm32f4xx_tim.c:465:   assert_param(IS_TIM_ALL_PERIPH
 2018              		.loc 1 465 16 discriminator 26 view .LVU486
 2019 006a 0F48     		ldr	r0, .L179+4	@ tmp137,
 2020              	.LVL136:
 2021              		.loc 1 465 16 discriminator 26 view .LVU487
 2022 006c 201A     		subs	r0, r4, r0	@ iftmp.11_7, TIMx, tmp137
 2023 006e B0FA80F0 		clz	r0, r0	@ iftmp.11_7, iftmp.11_7
 2024 0072 4009     		lsrs	r0, r0, #5	@ iftmp.11_7, iftmp.11_7,
 2025 0074 00E0     		b	.L162		@
 2026              	.LVL137:
 2027              	.L177:
 2028              	@ ../Libraries/STM32F4xx_StdPeriph_Driver/src/stm32f4xx_tim.c:465:   assert_param(IS_TIM_ALL_PERIPH
 2029              		.loc 1 465 3 view .LVU488
 2030 0076 0120     		movs	r0, #1	@ iftmp.11_7,
 2031              	.LVL138:
 2032              	.L162:
 2033              	@ ../Libraries/STM32F4xx_StdPeriph_Driver/src/stm32f4xx_tim.c:465:   assert_param(IS_TIM_ALL_PERIPH
 2034              		.loc 1 465 3 discriminator 30 view .LVU489
 2035 0078 FFF7FEFF 		bl	assert_param		@
 2036              	.LVL139:
 466:../Libraries/STM32F4xx_StdPeriph_Driver/src/stm32f4xx_tim.c ****   assert_param(IS_FUNCTIONAL_STATE(NewState));
 2037              		.loc 1 466 3 is_stmt 1 discriminator 30 view .LVU490
 2038 007c 012D     		cmp	r5, #1	@ NewState,
 2039 007e 8CBF     		ite	hi
 2040 0080 0020     		movhi	r0, #0	@,
 2041 0082 0120     		movls	r0, #1	@,
 2042 0084 FFF7FEFF 		bl	assert_param		@
 2043              	.LVL140:
 467:../Libraries/STM32F4xx_StdPeriph_Driver/src/stm32f4xx_tim.c **** 
 468:../Libraries/STM32F4xx_StdPeriph_Driver/src/stm32f4xx_tim.c ****   if (NewState != DISABLE)
 2044              		.loc 1 468 3 discriminator 30 view .LVU491
 2045              	@ ../Libraries/STM32F4xx_StdPeriph_Driver/src/stm32f4xx_tim.c:471:     TIMx->CR1 |= TIM_CR1_UDIS;
 469:../Libraries/STM32F4xx_StdPeriph_Driver/src/stm32f4xx_tim.c ****   {
 470:../Libraries/STM32F4xx_StdPeriph_Driver/src/stm32f4xx_tim.c ****     /* Set the Update Disable Bit */
 471:../Libraries/STM32F4xx_StdPeriph_Driver/src/stm32f4xx_tim.c ****     TIMx->CR1 |= TIM_CR1_UDIS;
 2046              		.loc 1 471 15 is_stmt 0 discriminator 30 view .LVU492
 2047 0088 2388     		ldrh	r3, [r4]	@,* TIMx
 2048              	@ ../Libraries/STM32F4xx_StdPeriph_Driver/src/stm32f4xx_tim.c:468:   if (NewState != DISABLE)
 468:../Libraries/STM32F4xx_StdPeriph_Driver/src/stm32f4xx_tim.c ****   {
 2049              		.loc 1 468 6 discriminator 30 view .LVU493
 2050 008a 25B1     		cbz	r5, .L163	@ NewState,
 2051              		.loc 1 471 5 is_stmt 1 view .LVU494
 2052              	@ ../Libraries/STM32F4xx_StdPeriph_Driver/src/stm32f4xx_tim.c:471:     TIMx->CR1 |= TIM_CR1_UDIS;
 2053              		.loc 1 471 15 is_stmt 0 view .LVU495
 2054 008c 9BB2     		uxth	r3, r3	@ _3, TIMx_9(D)->CR1
 2055 008e 43F00203 		orr	r3, r3, #2	@ _4, _3,
 2056 0092 2380     		strh	r3, [r4]	@ movhi	@ _4,* TIMx
 2057              	@ ../Libraries/STM32F4xx_StdPeriph_Driver/src/stm32f4xx_tim.c:478: }
ARM GAS  C:\Users\admin\AppData\Local\Temp\ccu1qHez.s 			page 49


 472:../Libraries/STM32F4xx_StdPeriph_Driver/src/stm32f4xx_tim.c ****   }
 473:../Libraries/STM32F4xx_StdPeriph_Driver/src/stm32f4xx_tim.c ****   else
 474:../Libraries/STM32F4xx_StdPeriph_Driver/src/stm32f4xx_tim.c ****   {
 475:../Libraries/STM32F4xx_StdPeriph_Driver/src/stm32f4xx_tim.c ****     /* Reset the Update Disable Bit */
 476:../Libraries/STM32F4xx_StdPeriph_Driver/src/stm32f4xx_tim.c ****     TIMx->CR1 &= (uint16_t)~TIM_CR1_UDIS;
 477:../Libraries/STM32F4xx_StdPeriph_Driver/src/stm32f4xx_tim.c ****   }
 478:../Libraries/STM32F4xx_StdPeriph_Driver/src/stm32f4xx_tim.c **** }
 2058              		.loc 1 478 1 view .LVU496
 2059 0094 38BD     		pop	{r3, r4, r5, pc}	@
 2060              	.LVL141:
 2061              	.L163:
 476:../Libraries/STM32F4xx_StdPeriph_Driver/src/stm32f4xx_tim.c ****   }
 2062              		.loc 1 476 5 is_stmt 1 view .LVU497
 2063              	@ ../Libraries/STM32F4xx_StdPeriph_Driver/src/stm32f4xx_tim.c:476:     TIMx->CR1 &= (uint16_t)~TIM_
 476:../Libraries/STM32F4xx_StdPeriph_Driver/src/stm32f4xx_tim.c ****   }
 2064              		.loc 1 476 15 is_stmt 0 view .LVU498
 2065 0096 23F00203 		bic	r3, r3, #2	@ _6, TIMx_9(D)->CR1,
 2066 009a 1B04     		lsls	r3, r3, #16	@ _6, _6,
 2067 009c 1B0C     		lsrs	r3, r3, #16	@ _6, _6,
 2068 009e 2380     		strh	r3, [r4]	@ movhi	@ _6,* TIMx
 2069              	@ ../Libraries/STM32F4xx_StdPeriph_Driver/src/stm32f4xx_tim.c:478: }
 2070              		.loc 1 478 1 view .LVU499
 2071 00a0 38BD     		pop	{r3, r4, r5, pc}	@
 2072              	.LVL142:
 2073              	.L180:
 2074              		.loc 1 478 1 view .LVU500
 2075 00a2 00BF     		.align	2
 2076              	.L179:
 2077 00a4 00000140 		.word	1073807360
 2078 00a8 00200040 		.word	1073750016
 2079              		.cfi_endproc
 2080              	.LFE119:
 2081              		.size	TIM_UpdateDisableConfig, .-TIM_UpdateDisableConfig
 2082              		.section	.text.TIM_UpdateRequestConfig,"ax",%progbits
 2083              		.align	1
 2084              		.p2align 2,,3
 2085              		.global	TIM_UpdateRequestConfig
 2086              		.syntax unified
 2087              		.thumb
 2088              		.thumb_func
 2089              		.type	TIM_UpdateRequestConfig, %function
 2090              	TIM_UpdateRequestConfig:
 2091              	.LVL143:
 2092              	.LFB120:
 479:../Libraries/STM32F4xx_StdPeriph_Driver/src/stm32f4xx_tim.c **** 
 480:../Libraries/STM32F4xx_StdPeriph_Driver/src/stm32f4xx_tim.c **** /**
 481:../Libraries/STM32F4xx_StdPeriph_Driver/src/stm32f4xx_tim.c ****   * @brief  Configures the TIMx Update Request Interrupt source.
 482:../Libraries/STM32F4xx_StdPeriph_Driver/src/stm32f4xx_tim.c ****   * @param  TIMx: where x can be 1 to 14 to select the TIM peripheral.
 483:../Libraries/STM32F4xx_StdPeriph_Driver/src/stm32f4xx_tim.c ****   * @param  TIM_UpdateSource: specifies the Update source.
 484:../Libraries/STM32F4xx_StdPeriph_Driver/src/stm32f4xx_tim.c ****   *          This parameter can be one of the following values:
 485:../Libraries/STM32F4xx_StdPeriph_Driver/src/stm32f4xx_tim.c ****   *            @arg TIM_UpdateSource_Global: Source of update is the counter
 486:../Libraries/STM32F4xx_StdPeriph_Driver/src/stm32f4xx_tim.c ****   *                 overflow/underflow or the setting of UG bit, or an update
 487:../Libraries/STM32F4xx_StdPeriph_Driver/src/stm32f4xx_tim.c ****   *                 generation through the slave mode controller.
 488:../Libraries/STM32F4xx_StdPeriph_Driver/src/stm32f4xx_tim.c ****   *            @arg TIM_UpdateSource_Regular: Source of update is counter overflow/underflow.
 489:../Libraries/STM32F4xx_StdPeriph_Driver/src/stm32f4xx_tim.c ****   * @retval None
 490:../Libraries/STM32F4xx_StdPeriph_Driver/src/stm32f4xx_tim.c ****   */
 491:../Libraries/STM32F4xx_StdPeriph_Driver/src/stm32f4xx_tim.c **** void TIM_UpdateRequestConfig(TIM_TypeDef* TIMx, uint16_t TIM_UpdateSource)
ARM GAS  C:\Users\admin\AppData\Local\Temp\ccu1qHez.s 			page 50


 492:../Libraries/STM32F4xx_StdPeriph_Driver/src/stm32f4xx_tim.c **** {
 2093              		.loc 1 492 1 is_stmt 1 view -0
 2094              		.cfi_startproc
 2095              		@ args = 0, pretend = 0, frame = 0
 2096              		@ frame_needed = 0, uses_anonymous_args = 0
 493:../Libraries/STM32F4xx_StdPeriph_Driver/src/stm32f4xx_tim.c ****   /* Check the parameters */
 494:../Libraries/STM32F4xx_StdPeriph_Driver/src/stm32f4xx_tim.c ****   assert_param(IS_TIM_ALL_PERIPH(TIMx));
 2097              		.loc 1 494 3 view .LVU502
 2098              	@ ../Libraries/STM32F4xx_StdPeriph_Driver/src/stm32f4xx_tim.c:492: {
 492:../Libraries/STM32F4xx_StdPeriph_Driver/src/stm32f4xx_tim.c ****   /* Check the parameters */
 2099              		.loc 1 492 1 is_stmt 0 view .LVU503
 2100 0000 38B5     		push	{r3, r4, r5, lr}	@
 2101              		.cfi_def_cfa_offset 16
 2102              		.cfi_offset 3, -16
 2103              		.cfi_offset 4, -12
 2104              		.cfi_offset 5, -8
 2105              		.cfi_offset 14, -4
 2106              	@ ../Libraries/STM32F4xx_StdPeriph_Driver/src/stm32f4xx_tim.c:494:   assert_param(IS_TIM_ALL_PERIPH
 2107              		.loc 1 494 3 view .LVU504
 2108 0002 284B     		ldr	r3, .L199	@ tmp123,
 2109 0004 9842     		cmp	r0, r3	@ TIMx, tmp123
 2110              	@ ../Libraries/STM32F4xx_StdPeriph_Driver/src/stm32f4xx_tim.c:492: {
 492:../Libraries/STM32F4xx_StdPeriph_Driver/src/stm32f4xx_tim.c ****   /* Check the parameters */
 2111              		.loc 1 492 1 view .LVU505
 2112 0006 0446     		mov	r4, r0	@ TIMx, tmp148
 2113 0008 0D46     		mov	r5, r1	@ TIM_UpdateSource, tmp149
 2114              	@ ../Libraries/STM32F4xx_StdPeriph_Driver/src/stm32f4xx_tim.c:494:   assert_param(IS_TIM_ALL_PERIPH
 2115              		.loc 1 494 3 view .LVU506
 2116 000a 34D0     		beq	.L197		@,
 2117              	@ ../Libraries/STM32F4xx_StdPeriph_Driver/src/stm32f4xx_tim.c:494:   assert_param(IS_TIM_ALL_PERIPH
 2118              		.loc 1 494 16 discriminator 2 view .LVU507
 2119 000c B0F1804F 		cmp	r0, #1073741824	@ TIMx,
 2120 0010 31D0     		beq	.L197		@,
 2121              	@ ../Libraries/STM32F4xx_StdPeriph_Driver/src/stm32f4xx_tim.c:494:   assert_param(IS_TIM_ALL_PERIPH
 2122              		.loc 1 494 16 discriminator 4 view .LVU508
 2123 0012 A3F57C43 		sub	r3, r3, #64512	@ tmp124, tmp124,
 2124 0016 9842     		cmp	r0, r3	@ TIMx, tmp124
 2125 0018 2DD0     		beq	.L197		@,
 2126              	@ ../Libraries/STM32F4xx_StdPeriph_Driver/src/stm32f4xx_tim.c:494:   assert_param(IS_TIM_ALL_PERIPH
 2127              		.loc 1 494 16 discriminator 6 view .LVU509
 2128 001a 03F58063 		add	r3, r3, #1024	@ tmp125, tmp125,
 2129 001e 9842     		cmp	r0, r3	@ TIMx, tmp125
 2130 0020 29D0     		beq	.L197		@,
 2131              	@ ../Libraries/STM32F4xx_StdPeriph_Driver/src/stm32f4xx_tim.c:494:   assert_param(IS_TIM_ALL_PERIPH
 2132              		.loc 1 494 16 discriminator 8 view .LVU510
 2133 0022 03F58063 		add	r3, r3, #1024	@ tmp126, tmp126,
 2134 0026 9842     		cmp	r0, r3	@ TIMx, tmp126
 2135 0028 25D0     		beq	.L197		@,
 2136              	@ ../Libraries/STM32F4xx_StdPeriph_Driver/src/stm32f4xx_tim.c:494:   assert_param(IS_TIM_ALL_PERIPH
 2137              		.loc 1 494 16 discriminator 10 view .LVU511
 2138 002a 03F58063 		add	r3, r3, #1024	@ tmp127, tmp127,
 2139 002e 9842     		cmp	r0, r3	@ TIMx, tmp127
 2140 0030 21D0     		beq	.L197		@,
 2141              	@ ../Libraries/STM32F4xx_StdPeriph_Driver/src/stm32f4xx_tim.c:494:   assert_param(IS_TIM_ALL_PERIPH
 2142              		.loc 1 494 16 discriminator 12 view .LVU512
 2143 0032 03F58063 		add	r3, r3, #1024	@ tmp128, tmp128,
 2144 0036 9842     		cmp	r0, r3	@ TIMx, tmp128
ARM GAS  C:\Users\admin\AppData\Local\Temp\ccu1qHez.s 			page 51


 2145 0038 1DD0     		beq	.L197		@,
 2146              	@ ../Libraries/STM32F4xx_StdPeriph_Driver/src/stm32f4xx_tim.c:494:   assert_param(IS_TIM_ALL_PERIPH
 2147              		.loc 1 494 16 discriminator 14 view .LVU513
 2148 003a 03F57043 		add	r3, r3, #61440	@ tmp129, tmp129,
 2149 003e 9842     		cmp	r0, r3	@ TIMx, tmp129
 2150 0040 19D0     		beq	.L197		@,
 2151              	@ ../Libraries/STM32F4xx_StdPeriph_Driver/src/stm32f4xx_tim.c:494:   assert_param(IS_TIM_ALL_PERIPH
 2152              		.loc 1 494 16 discriminator 16 view .LVU514
 2153 0042 03F57053 		add	r3, r3, #15360	@ tmp130, tmp130,
 2154 0046 9842     		cmp	r0, r3	@ TIMx, tmp130
 2155 0048 15D0     		beq	.L197		@,
 2156              	@ ../Libraries/STM32F4xx_StdPeriph_Driver/src/stm32f4xx_tim.c:494:   assert_param(IS_TIM_ALL_PERIPH
 2157              		.loc 1 494 16 discriminator 18 view .LVU515
 2158 004a 03F58063 		add	r3, r3, #1024	@ tmp131, tmp131,
 2159 004e 9842     		cmp	r0, r3	@ TIMx, tmp131
 2160 0050 11D0     		beq	.L197		@,
 2161              	@ ../Libraries/STM32F4xx_StdPeriph_Driver/src/stm32f4xx_tim.c:494:   assert_param(IS_TIM_ALL_PERIPH
 2162              		.loc 1 494 16 discriminator 20 view .LVU516
 2163 0052 03F58063 		add	r3, r3, #1024	@ tmp132, tmp132,
 2164 0056 9842     		cmp	r0, r3	@ TIMx, tmp132
 2165 0058 0DD0     		beq	.L197		@,
 2166              	@ ../Libraries/STM32F4xx_StdPeriph_Driver/src/stm32f4xx_tim.c:494:   assert_param(IS_TIM_ALL_PERIPH
 2167              		.loc 1 494 16 discriminator 22 view .LVU517
 2168 005a A3F59833 		sub	r3, r3, #77824	@ tmp133, tmp133,
 2169 005e 9842     		cmp	r0, r3	@ TIMx, tmp133
 2170 0060 09D0     		beq	.L197		@,
 2171              	@ ../Libraries/STM32F4xx_StdPeriph_Driver/src/stm32f4xx_tim.c:494:   assert_param(IS_TIM_ALL_PERIPH
 2172              		.loc 1 494 3 discriminator 24 view .LVU518
 2173 0062 03F58063 		add	r3, r3, #1024	@ tmp134, tmp134,
 2174 0066 9842     		cmp	r0, r3	@ TIMx, tmp134
 2175 0068 05D0     		beq	.L197		@,
 2176              	@ ../Libraries/STM32F4xx_StdPeriph_Driver/src/stm32f4xx_tim.c:494:   assert_param(IS_TIM_ALL_PERIPH
 2177              		.loc 1 494 16 discriminator 26 view .LVU519
 2178 006a 0F48     		ldr	r0, .L199+4	@ tmp137,
 2179              	.LVL144:
 2180              		.loc 1 494 16 discriminator 26 view .LVU520
 2181 006c 201A     		subs	r0, r4, r0	@ iftmp.12_7, TIMx, tmp137
 2182 006e B0FA80F0 		clz	r0, r0	@ iftmp.12_7, iftmp.12_7
 2183 0072 4009     		lsrs	r0, r0, #5	@ iftmp.12_7, iftmp.12_7,
 2184 0074 00E0     		b	.L182		@
 2185              	.LVL145:
 2186              	.L197:
 2187              	@ ../Libraries/STM32F4xx_StdPeriph_Driver/src/stm32f4xx_tim.c:494:   assert_param(IS_TIM_ALL_PERIPH
 2188              		.loc 1 494 3 view .LVU521
 2189 0076 0120     		movs	r0, #1	@ iftmp.12_7,
 2190              	.LVL146:
 2191              	.L182:
 2192              	@ ../Libraries/STM32F4xx_StdPeriph_Driver/src/stm32f4xx_tim.c:494:   assert_param(IS_TIM_ALL_PERIPH
 2193              		.loc 1 494 3 discriminator 30 view .LVU522
 2194 0078 FFF7FEFF 		bl	assert_param		@
 2195              	.LVL147:
 495:../Libraries/STM32F4xx_StdPeriph_Driver/src/stm32f4xx_tim.c ****   assert_param(IS_TIM_UPDATE_SOURCE(TIM_UpdateSource));
 2196              		.loc 1 495 3 is_stmt 1 discriminator 30 view .LVU523
 2197 007c 012D     		cmp	r5, #1	@ TIM_UpdateSource,
 2198 007e 8CBF     		ite	hi
 2199 0080 0020     		movhi	r0, #0	@,
 2200 0082 0120     		movls	r0, #1	@,
ARM GAS  C:\Users\admin\AppData\Local\Temp\ccu1qHez.s 			page 52


 2201 0084 FFF7FEFF 		bl	assert_param		@
 2202              	.LVL148:
 496:../Libraries/STM32F4xx_StdPeriph_Driver/src/stm32f4xx_tim.c **** 
 497:../Libraries/STM32F4xx_StdPeriph_Driver/src/stm32f4xx_tim.c ****   if (TIM_UpdateSource != TIM_UpdateSource_Global)
 2203              		.loc 1 497 3 discriminator 30 view .LVU524
 2204              	@ ../Libraries/STM32F4xx_StdPeriph_Driver/src/stm32f4xx_tim.c:500:     TIMx->CR1 |= TIM_CR1_URS;
 498:../Libraries/STM32F4xx_StdPeriph_Driver/src/stm32f4xx_tim.c ****   {
 499:../Libraries/STM32F4xx_StdPeriph_Driver/src/stm32f4xx_tim.c ****     /* Set the URS Bit */
 500:../Libraries/STM32F4xx_StdPeriph_Driver/src/stm32f4xx_tim.c ****     TIMx->CR1 |= TIM_CR1_URS;
 2205              		.loc 1 500 15 is_stmt 0 discriminator 30 view .LVU525
 2206 0088 2388     		ldrh	r3, [r4]	@,* TIMx
 2207              	@ ../Libraries/STM32F4xx_StdPeriph_Driver/src/stm32f4xx_tim.c:497:   if (TIM_UpdateSource != TIM_Up
 497:../Libraries/STM32F4xx_StdPeriph_Driver/src/stm32f4xx_tim.c ****   {
 2208              		.loc 1 497 6 discriminator 30 view .LVU526
 2209 008a 25B1     		cbz	r5, .L183	@ TIM_UpdateSource,
 2210              		.loc 1 500 5 is_stmt 1 view .LVU527
 2211              	@ ../Libraries/STM32F4xx_StdPeriph_Driver/src/stm32f4xx_tim.c:500:     TIMx->CR1 |= TIM_CR1_URS;
 2212              		.loc 1 500 15 is_stmt 0 view .LVU528
 2213 008c 9BB2     		uxth	r3, r3	@ _3, TIMx_9(D)->CR1
 2214 008e 43F00403 		orr	r3, r3, #4	@ _4, _3,
 2215 0092 2380     		strh	r3, [r4]	@ movhi	@ _4,* TIMx
 2216              	@ ../Libraries/STM32F4xx_StdPeriph_Driver/src/stm32f4xx_tim.c:507: }
 501:../Libraries/STM32F4xx_StdPeriph_Driver/src/stm32f4xx_tim.c ****   }
 502:../Libraries/STM32F4xx_StdPeriph_Driver/src/stm32f4xx_tim.c ****   else
 503:../Libraries/STM32F4xx_StdPeriph_Driver/src/stm32f4xx_tim.c ****   {
 504:../Libraries/STM32F4xx_StdPeriph_Driver/src/stm32f4xx_tim.c ****     /* Reset the URS Bit */
 505:../Libraries/STM32F4xx_StdPeriph_Driver/src/stm32f4xx_tim.c ****     TIMx->CR1 &= (uint16_t)~TIM_CR1_URS;
 506:../Libraries/STM32F4xx_StdPeriph_Driver/src/stm32f4xx_tim.c ****   }
 507:../Libraries/STM32F4xx_StdPeriph_Driver/src/stm32f4xx_tim.c **** }
 2217              		.loc 1 507 1 view .LVU529
 2218 0094 38BD     		pop	{r3, r4, r5, pc}	@
 2219              	.LVL149:
 2220              	.L183:
 505:../Libraries/STM32F4xx_StdPeriph_Driver/src/stm32f4xx_tim.c ****   }
 2221              		.loc 1 505 5 is_stmt 1 view .LVU530
 2222              	@ ../Libraries/STM32F4xx_StdPeriph_Driver/src/stm32f4xx_tim.c:505:     TIMx->CR1 &= (uint16_t)~TIM_
 505:../Libraries/STM32F4xx_StdPeriph_Driver/src/stm32f4xx_tim.c ****   }
 2223              		.loc 1 505 15 is_stmt 0 view .LVU531
 2224 0096 23F00403 		bic	r3, r3, #4	@ _6, TIMx_9(D)->CR1,
 2225 009a 1B04     		lsls	r3, r3, #16	@ _6, _6,
 2226 009c 1B0C     		lsrs	r3, r3, #16	@ _6, _6,
 2227 009e 2380     		strh	r3, [r4]	@ movhi	@ _6,* TIMx
 2228              	@ ../Libraries/STM32F4xx_StdPeriph_Driver/src/stm32f4xx_tim.c:507: }
 2229              		.loc 1 507 1 view .LVU532
 2230 00a0 38BD     		pop	{r3, r4, r5, pc}	@
 2231              	.LVL150:
 2232              	.L200:
 2233              		.loc 1 507 1 view .LVU533
 2234 00a2 00BF     		.align	2
 2235              	.L199:
 2236 00a4 00000140 		.word	1073807360
 2237 00a8 00200040 		.word	1073750016
 2238              		.cfi_endproc
 2239              	.LFE120:
 2240              		.size	TIM_UpdateRequestConfig, .-TIM_UpdateRequestConfig
 2241              		.section	.text.TIM_ARRPreloadConfig,"ax",%progbits
 2242              		.align	1
ARM GAS  C:\Users\admin\AppData\Local\Temp\ccu1qHez.s 			page 53


 2243              		.p2align 2,,3
 2244              		.global	TIM_ARRPreloadConfig
 2245              		.syntax unified
 2246              		.thumb
 2247              		.thumb_func
 2248              		.type	TIM_ARRPreloadConfig, %function
 2249              	TIM_ARRPreloadConfig:
 2250              	.LVL151:
 2251              	.LFB121:
 508:../Libraries/STM32F4xx_StdPeriph_Driver/src/stm32f4xx_tim.c **** 
 509:../Libraries/STM32F4xx_StdPeriph_Driver/src/stm32f4xx_tim.c **** /**
 510:../Libraries/STM32F4xx_StdPeriph_Driver/src/stm32f4xx_tim.c ****   * @brief  Enables or disables TIMx peripheral Preload register on ARR.
 511:../Libraries/STM32F4xx_StdPeriph_Driver/src/stm32f4xx_tim.c ****   * @param  TIMx: where x can be 1 to 14 to select the TIM peripheral.
 512:../Libraries/STM32F4xx_StdPeriph_Driver/src/stm32f4xx_tim.c ****   * @param  NewState: new state of the TIMx peripheral Preload register
 513:../Libraries/STM32F4xx_StdPeriph_Driver/src/stm32f4xx_tim.c ****   *          This parameter can be: ENABLE or DISABLE.
 514:../Libraries/STM32F4xx_StdPeriph_Driver/src/stm32f4xx_tim.c ****   * @retval None
 515:../Libraries/STM32F4xx_StdPeriph_Driver/src/stm32f4xx_tim.c ****   */
 516:../Libraries/STM32F4xx_StdPeriph_Driver/src/stm32f4xx_tim.c **** void TIM_ARRPreloadConfig(TIM_TypeDef* TIMx, FunctionalState NewState)
 517:../Libraries/STM32F4xx_StdPeriph_Driver/src/stm32f4xx_tim.c **** {
 2252              		.loc 1 517 1 is_stmt 1 view -0
 2253              		.cfi_startproc
 2254              		@ args = 0, pretend = 0, frame = 0
 2255              		@ frame_needed = 0, uses_anonymous_args = 0
 518:../Libraries/STM32F4xx_StdPeriph_Driver/src/stm32f4xx_tim.c ****   /* Check the parameters */
 519:../Libraries/STM32F4xx_StdPeriph_Driver/src/stm32f4xx_tim.c ****   assert_param(IS_TIM_ALL_PERIPH(TIMx));
 2256              		.loc 1 519 3 view .LVU535
 2257              	@ ../Libraries/STM32F4xx_StdPeriph_Driver/src/stm32f4xx_tim.c:517: {
 517:../Libraries/STM32F4xx_StdPeriph_Driver/src/stm32f4xx_tim.c ****   /* Check the parameters */
 2258              		.loc 1 517 1 is_stmt 0 view .LVU536
 2259 0000 38B5     		push	{r3, r4, r5, lr}	@
 2260              		.cfi_def_cfa_offset 16
 2261              		.cfi_offset 3, -16
 2262              		.cfi_offset 4, -12
 2263              		.cfi_offset 5, -8
 2264              		.cfi_offset 14, -4
 2265              	@ ../Libraries/STM32F4xx_StdPeriph_Driver/src/stm32f4xx_tim.c:519:   assert_param(IS_TIM_ALL_PERIPH
 2266              		.loc 1 519 3 view .LVU537
 2267 0002 284B     		ldr	r3, .L219	@ tmp123,
 2268 0004 9842     		cmp	r0, r3	@ TIMx, tmp123
 2269              	@ ../Libraries/STM32F4xx_StdPeriph_Driver/src/stm32f4xx_tim.c:517: {
 517:../Libraries/STM32F4xx_StdPeriph_Driver/src/stm32f4xx_tim.c ****   /* Check the parameters */
 2270              		.loc 1 517 1 view .LVU538
 2271 0006 0446     		mov	r4, r0	@ TIMx, tmp148
 2272 0008 0D46     		mov	r5, r1	@ NewState, tmp149
 2273              	@ ../Libraries/STM32F4xx_StdPeriph_Driver/src/stm32f4xx_tim.c:519:   assert_param(IS_TIM_ALL_PERIPH
 2274              		.loc 1 519 3 view .LVU539
 2275 000a 34D0     		beq	.L217		@,
 2276              	@ ../Libraries/STM32F4xx_StdPeriph_Driver/src/stm32f4xx_tim.c:519:   assert_param(IS_TIM_ALL_PERIPH
 2277              		.loc 1 519 16 discriminator 2 view .LVU540
 2278 000c B0F1804F 		cmp	r0, #1073741824	@ TIMx,
 2279 0010 31D0     		beq	.L217		@,
 2280              	@ ../Libraries/STM32F4xx_StdPeriph_Driver/src/stm32f4xx_tim.c:519:   assert_param(IS_TIM_ALL_PERIPH
 2281              		.loc 1 519 16 discriminator 4 view .LVU541
 2282 0012 A3F57C43 		sub	r3, r3, #64512	@ tmp124, tmp124,
 2283 0016 9842     		cmp	r0, r3	@ TIMx, tmp124
 2284 0018 2DD0     		beq	.L217		@,
 2285              	@ ../Libraries/STM32F4xx_StdPeriph_Driver/src/stm32f4xx_tim.c:519:   assert_param(IS_TIM_ALL_PERIPH
ARM GAS  C:\Users\admin\AppData\Local\Temp\ccu1qHez.s 			page 54


 2286              		.loc 1 519 16 discriminator 6 view .LVU542
 2287 001a 03F58063 		add	r3, r3, #1024	@ tmp125, tmp125,
 2288 001e 9842     		cmp	r0, r3	@ TIMx, tmp125
 2289 0020 29D0     		beq	.L217		@,
 2290              	@ ../Libraries/STM32F4xx_StdPeriph_Driver/src/stm32f4xx_tim.c:519:   assert_param(IS_TIM_ALL_PERIPH
 2291              		.loc 1 519 16 discriminator 8 view .LVU543
 2292 0022 03F58063 		add	r3, r3, #1024	@ tmp126, tmp126,
 2293 0026 9842     		cmp	r0, r3	@ TIMx, tmp126
 2294 0028 25D0     		beq	.L217		@,
 2295              	@ ../Libraries/STM32F4xx_StdPeriph_Driver/src/stm32f4xx_tim.c:519:   assert_param(IS_TIM_ALL_PERIPH
 2296              		.loc 1 519 16 discriminator 10 view .LVU544
 2297 002a 03F58063 		add	r3, r3, #1024	@ tmp127, tmp127,
 2298 002e 9842     		cmp	r0, r3	@ TIMx, tmp127
 2299 0030 21D0     		beq	.L217		@,
 2300              	@ ../Libraries/STM32F4xx_StdPeriph_Driver/src/stm32f4xx_tim.c:519:   assert_param(IS_TIM_ALL_PERIPH
 2301              		.loc 1 519 16 discriminator 12 view .LVU545
 2302 0032 03F58063 		add	r3, r3, #1024	@ tmp128, tmp128,
 2303 0036 9842     		cmp	r0, r3	@ TIMx, tmp128
 2304 0038 1DD0     		beq	.L217		@,
 2305              	@ ../Libraries/STM32F4xx_StdPeriph_Driver/src/stm32f4xx_tim.c:519:   assert_param(IS_TIM_ALL_PERIPH
 2306              		.loc 1 519 16 discriminator 14 view .LVU546
 2307 003a 03F57043 		add	r3, r3, #61440	@ tmp129, tmp129,
 2308 003e 9842     		cmp	r0, r3	@ TIMx, tmp129
 2309 0040 19D0     		beq	.L217		@,
 2310              	@ ../Libraries/STM32F4xx_StdPeriph_Driver/src/stm32f4xx_tim.c:519:   assert_param(IS_TIM_ALL_PERIPH
 2311              		.loc 1 519 16 discriminator 16 view .LVU547
 2312 0042 03F57053 		add	r3, r3, #15360	@ tmp130, tmp130,
 2313 0046 9842     		cmp	r0, r3	@ TIMx, tmp130
 2314 0048 15D0     		beq	.L217		@,
 2315              	@ ../Libraries/STM32F4xx_StdPeriph_Driver/src/stm32f4xx_tim.c:519:   assert_param(IS_TIM_ALL_PERIPH
 2316              		.loc 1 519 16 discriminator 18 view .LVU548
 2317 004a 03F58063 		add	r3, r3, #1024	@ tmp131, tmp131,
 2318 004e 9842     		cmp	r0, r3	@ TIMx, tmp131
 2319 0050 11D0     		beq	.L217		@,
 2320              	@ ../Libraries/STM32F4xx_StdPeriph_Driver/src/stm32f4xx_tim.c:519:   assert_param(IS_TIM_ALL_PERIPH
 2321              		.loc 1 519 16 discriminator 20 view .LVU549
 2322 0052 03F58063 		add	r3, r3, #1024	@ tmp132, tmp132,
 2323 0056 9842     		cmp	r0, r3	@ TIMx, tmp132
 2324 0058 0DD0     		beq	.L217		@,
 2325              	@ ../Libraries/STM32F4xx_StdPeriph_Driver/src/stm32f4xx_tim.c:519:   assert_param(IS_TIM_ALL_PERIPH
 2326              		.loc 1 519 16 discriminator 22 view .LVU550
 2327 005a A3F59833 		sub	r3, r3, #77824	@ tmp133, tmp133,
 2328 005e 9842     		cmp	r0, r3	@ TIMx, tmp133
 2329 0060 09D0     		beq	.L217		@,
 2330              	@ ../Libraries/STM32F4xx_StdPeriph_Driver/src/stm32f4xx_tim.c:519:   assert_param(IS_TIM_ALL_PERIPH
 2331              		.loc 1 519 3 discriminator 24 view .LVU551
 2332 0062 03F58063 		add	r3, r3, #1024	@ tmp134, tmp134,
 2333 0066 9842     		cmp	r0, r3	@ TIMx, tmp134
 2334 0068 05D0     		beq	.L217		@,
 2335              	@ ../Libraries/STM32F4xx_StdPeriph_Driver/src/stm32f4xx_tim.c:519:   assert_param(IS_TIM_ALL_PERIPH
 2336              		.loc 1 519 16 discriminator 26 view .LVU552
 2337 006a 0F48     		ldr	r0, .L219+4	@ tmp137,
 2338              	.LVL152:
 2339              		.loc 1 519 16 discriminator 26 view .LVU553
 2340 006c 201A     		subs	r0, r4, r0	@ iftmp.13_7, TIMx, tmp137
 2341 006e B0FA80F0 		clz	r0, r0	@ iftmp.13_7, iftmp.13_7
 2342 0072 4009     		lsrs	r0, r0, #5	@ iftmp.13_7, iftmp.13_7,
ARM GAS  C:\Users\admin\AppData\Local\Temp\ccu1qHez.s 			page 55


 2343 0074 00E0     		b	.L202		@
 2344              	.LVL153:
 2345              	.L217:
 2346              	@ ../Libraries/STM32F4xx_StdPeriph_Driver/src/stm32f4xx_tim.c:519:   assert_param(IS_TIM_ALL_PERIPH
 2347              		.loc 1 519 3 view .LVU554
 2348 0076 0120     		movs	r0, #1	@ iftmp.13_7,
 2349              	.LVL154:
 2350              	.L202:
 2351              	@ ../Libraries/STM32F4xx_StdPeriph_Driver/src/stm32f4xx_tim.c:519:   assert_param(IS_TIM_ALL_PERIPH
 2352              		.loc 1 519 3 discriminator 30 view .LVU555
 2353 0078 FFF7FEFF 		bl	assert_param		@
 2354              	.LVL155:
 520:../Libraries/STM32F4xx_StdPeriph_Driver/src/stm32f4xx_tim.c ****   assert_param(IS_FUNCTIONAL_STATE(NewState));
 2355              		.loc 1 520 3 is_stmt 1 discriminator 30 view .LVU556
 2356 007c 012D     		cmp	r5, #1	@ NewState,
 2357 007e 8CBF     		ite	hi
 2358 0080 0020     		movhi	r0, #0	@,
 2359 0082 0120     		movls	r0, #1	@,
 2360 0084 FFF7FEFF 		bl	assert_param		@
 2361              	.LVL156:
 521:../Libraries/STM32F4xx_StdPeriph_Driver/src/stm32f4xx_tim.c **** 
 522:../Libraries/STM32F4xx_StdPeriph_Driver/src/stm32f4xx_tim.c ****   if (NewState != DISABLE)
 2362              		.loc 1 522 3 discriminator 30 view .LVU557
 2363              	@ ../Libraries/STM32F4xx_StdPeriph_Driver/src/stm32f4xx_tim.c:525:     TIMx->CR1 |= TIM_CR1_ARPE;
 523:../Libraries/STM32F4xx_StdPeriph_Driver/src/stm32f4xx_tim.c ****   {
 524:../Libraries/STM32F4xx_StdPeriph_Driver/src/stm32f4xx_tim.c ****     /* Set the ARR Preload Bit */
 525:../Libraries/STM32F4xx_StdPeriph_Driver/src/stm32f4xx_tim.c ****     TIMx->CR1 |= TIM_CR1_ARPE;
 2364              		.loc 1 525 15 is_stmt 0 discriminator 30 view .LVU558
 2365 0088 2388     		ldrh	r3, [r4]	@,* TIMx
 2366              	@ ../Libraries/STM32F4xx_StdPeriph_Driver/src/stm32f4xx_tim.c:522:   if (NewState != DISABLE)
 522:../Libraries/STM32F4xx_StdPeriph_Driver/src/stm32f4xx_tim.c ****   {
 2367              		.loc 1 522 6 discriminator 30 view .LVU559
 2368 008a 25B1     		cbz	r5, .L203	@ NewState,
 2369              		.loc 1 525 5 is_stmt 1 view .LVU560
 2370              	@ ../Libraries/STM32F4xx_StdPeriph_Driver/src/stm32f4xx_tim.c:525:     TIMx->CR1 |= TIM_CR1_ARPE;
 2371              		.loc 1 525 15 is_stmt 0 view .LVU561
 2372 008c 9BB2     		uxth	r3, r3	@ _3, TIMx_9(D)->CR1
 2373 008e 43F08003 		orr	r3, r3, #128	@ _4, _3,
 2374 0092 2380     		strh	r3, [r4]	@ movhi	@ _4,* TIMx
 2375              	@ ../Libraries/STM32F4xx_StdPeriph_Driver/src/stm32f4xx_tim.c:532: }
 526:../Libraries/STM32F4xx_StdPeriph_Driver/src/stm32f4xx_tim.c ****   }
 527:../Libraries/STM32F4xx_StdPeriph_Driver/src/stm32f4xx_tim.c ****   else
 528:../Libraries/STM32F4xx_StdPeriph_Driver/src/stm32f4xx_tim.c ****   {
 529:../Libraries/STM32F4xx_StdPeriph_Driver/src/stm32f4xx_tim.c ****     /* Reset the ARR Preload Bit */
 530:../Libraries/STM32F4xx_StdPeriph_Driver/src/stm32f4xx_tim.c ****     TIMx->CR1 &= (uint16_t)~TIM_CR1_ARPE;
 531:../Libraries/STM32F4xx_StdPeriph_Driver/src/stm32f4xx_tim.c ****   }
 532:../Libraries/STM32F4xx_StdPeriph_Driver/src/stm32f4xx_tim.c **** }
 2376              		.loc 1 532 1 view .LVU562
 2377 0094 38BD     		pop	{r3, r4, r5, pc}	@
 2378              	.LVL157:
 2379              	.L203:
 530:../Libraries/STM32F4xx_StdPeriph_Driver/src/stm32f4xx_tim.c ****   }
 2380              		.loc 1 530 5 is_stmt 1 view .LVU563
 2381              	@ ../Libraries/STM32F4xx_StdPeriph_Driver/src/stm32f4xx_tim.c:530:     TIMx->CR1 &= (uint16_t)~TIM_
 530:../Libraries/STM32F4xx_StdPeriph_Driver/src/stm32f4xx_tim.c ****   }
 2382              		.loc 1 530 15 is_stmt 0 view .LVU564
 2383 0096 23F08003 		bic	r3, r3, #128	@ _6, TIMx_9(D)->CR1,
ARM GAS  C:\Users\admin\AppData\Local\Temp\ccu1qHez.s 			page 56


 2384 009a 1B04     		lsls	r3, r3, #16	@ _6, _6,
 2385 009c 1B0C     		lsrs	r3, r3, #16	@ _6, _6,
 2386 009e 2380     		strh	r3, [r4]	@ movhi	@ _6,* TIMx
 2387              	@ ../Libraries/STM32F4xx_StdPeriph_Driver/src/stm32f4xx_tim.c:532: }
 2388              		.loc 1 532 1 view .LVU565
 2389 00a0 38BD     		pop	{r3, r4, r5, pc}	@
 2390              	.LVL158:
 2391              	.L220:
 2392              		.loc 1 532 1 view .LVU566
 2393 00a2 00BF     		.align	2
 2394              	.L219:
 2395 00a4 00000140 		.word	1073807360
 2396 00a8 00200040 		.word	1073750016
 2397              		.cfi_endproc
 2398              	.LFE121:
 2399              		.size	TIM_ARRPreloadConfig, .-TIM_ARRPreloadConfig
 2400              		.section	.text.TIM_SelectOnePulseMode,"ax",%progbits
 2401              		.align	1
 2402              		.p2align 2,,3
 2403              		.global	TIM_SelectOnePulseMode
 2404              		.syntax unified
 2405              		.thumb
 2406              		.thumb_func
 2407              		.type	TIM_SelectOnePulseMode, %function
 2408              	TIM_SelectOnePulseMode:
 2409              	.LVL159:
 2410              	.LFB122:
 533:../Libraries/STM32F4xx_StdPeriph_Driver/src/stm32f4xx_tim.c **** 
 534:../Libraries/STM32F4xx_StdPeriph_Driver/src/stm32f4xx_tim.c **** /**
 535:../Libraries/STM32F4xx_StdPeriph_Driver/src/stm32f4xx_tim.c ****   * @brief  Selects the TIMx's One Pulse Mode.
 536:../Libraries/STM32F4xx_StdPeriph_Driver/src/stm32f4xx_tim.c ****   * @param  TIMx: where x can be 1 to 14 to select the TIM peripheral.
 537:../Libraries/STM32F4xx_StdPeriph_Driver/src/stm32f4xx_tim.c ****   * @param  TIM_OPMode: specifies the OPM Mode to be used.
 538:../Libraries/STM32F4xx_StdPeriph_Driver/src/stm32f4xx_tim.c ****   *          This parameter can be one of the following values:
 539:../Libraries/STM32F4xx_StdPeriph_Driver/src/stm32f4xx_tim.c ****   *            @arg TIM_OPMode_Single
 540:../Libraries/STM32F4xx_StdPeriph_Driver/src/stm32f4xx_tim.c ****   *            @arg TIM_OPMode_Repetitive
 541:../Libraries/STM32F4xx_StdPeriph_Driver/src/stm32f4xx_tim.c ****   * @retval None
 542:../Libraries/STM32F4xx_StdPeriph_Driver/src/stm32f4xx_tim.c ****   */
 543:../Libraries/STM32F4xx_StdPeriph_Driver/src/stm32f4xx_tim.c **** void TIM_SelectOnePulseMode(TIM_TypeDef* TIMx, uint16_t TIM_OPMode)
 544:../Libraries/STM32F4xx_StdPeriph_Driver/src/stm32f4xx_tim.c **** {
 2411              		.loc 1 544 1 is_stmt 1 view -0
 2412              		.cfi_startproc
 2413              		@ args = 0, pretend = 0, frame = 0
 2414              		@ frame_needed = 0, uses_anonymous_args = 0
 545:../Libraries/STM32F4xx_StdPeriph_Driver/src/stm32f4xx_tim.c ****   /* Check the parameters */
 546:../Libraries/STM32F4xx_StdPeriph_Driver/src/stm32f4xx_tim.c ****   assert_param(IS_TIM_ALL_PERIPH(TIMx));
 2415              		.loc 1 546 3 view .LVU568
 2416              	@ ../Libraries/STM32F4xx_StdPeriph_Driver/src/stm32f4xx_tim.c:544: {
 544:../Libraries/STM32F4xx_StdPeriph_Driver/src/stm32f4xx_tim.c ****   /* Check the parameters */
 2417              		.loc 1 544 1 is_stmt 0 view .LVU569
 2418 0000 38B5     		push	{r3, r4, r5, lr}	@
 2419              		.cfi_def_cfa_offset 16
 2420              		.cfi_offset 3, -16
 2421              		.cfi_offset 4, -12
 2422              		.cfi_offset 5, -8
 2423              		.cfi_offset 14, -4
 2424              	@ ../Libraries/STM32F4xx_StdPeriph_Driver/src/stm32f4xx_tim.c:546:   assert_param(IS_TIM_ALL_PERIPH
 2425              		.loc 1 546 3 view .LVU570
ARM GAS  C:\Users\admin\AppData\Local\Temp\ccu1qHez.s 			page 57


 2426 0002 284B     		ldr	r3, .L237	@ tmp124,
 2427 0004 9842     		cmp	r0, r3	@ TIMx, tmp124
 2428              	@ ../Libraries/STM32F4xx_StdPeriph_Driver/src/stm32f4xx_tim.c:544: {
 544:../Libraries/STM32F4xx_StdPeriph_Driver/src/stm32f4xx_tim.c ****   /* Check the parameters */
 2429              		.loc 1 544 1 view .LVU571
 2430 0006 0446     		mov	r4, r0	@ TIMx, tmp149
 2431 0008 0D46     		mov	r5, r1	@ TIM_OPMode, tmp150
 2432              	@ ../Libraries/STM32F4xx_StdPeriph_Driver/src/stm32f4xx_tim.c:546:   assert_param(IS_TIM_ALL_PERIPH
 2433              		.loc 1 546 3 view .LVU572
 2434 000a 34D0     		beq	.L235		@,
 2435              	@ ../Libraries/STM32F4xx_StdPeriph_Driver/src/stm32f4xx_tim.c:546:   assert_param(IS_TIM_ALL_PERIPH
 2436              		.loc 1 546 16 discriminator 2 view .LVU573
 2437 000c B0F1804F 		cmp	r0, #1073741824	@ TIMx,
 2438 0010 31D0     		beq	.L235		@,
 2439              	@ ../Libraries/STM32F4xx_StdPeriph_Driver/src/stm32f4xx_tim.c:546:   assert_param(IS_TIM_ALL_PERIPH
 2440              		.loc 1 546 16 discriminator 4 view .LVU574
 2441 0012 A3F57C43 		sub	r3, r3, #64512	@ tmp125, tmp125,
 2442 0016 9842     		cmp	r0, r3	@ TIMx, tmp125
 2443 0018 2DD0     		beq	.L235		@,
 2444              	@ ../Libraries/STM32F4xx_StdPeriph_Driver/src/stm32f4xx_tim.c:546:   assert_param(IS_TIM_ALL_PERIPH
 2445              		.loc 1 546 16 discriminator 6 view .LVU575
 2446 001a 03F58063 		add	r3, r3, #1024	@ tmp126, tmp126,
 2447 001e 9842     		cmp	r0, r3	@ TIMx, tmp126
 2448 0020 29D0     		beq	.L235		@,
 2449              	@ ../Libraries/STM32F4xx_StdPeriph_Driver/src/stm32f4xx_tim.c:546:   assert_param(IS_TIM_ALL_PERIPH
 2450              		.loc 1 546 16 discriminator 8 view .LVU576
 2451 0022 03F58063 		add	r3, r3, #1024	@ tmp127, tmp127,
 2452 0026 9842     		cmp	r0, r3	@ TIMx, tmp127
 2453 0028 25D0     		beq	.L235		@,
 2454              	@ ../Libraries/STM32F4xx_StdPeriph_Driver/src/stm32f4xx_tim.c:546:   assert_param(IS_TIM_ALL_PERIPH
 2455              		.loc 1 546 16 discriminator 10 view .LVU577
 2456 002a 03F58063 		add	r3, r3, #1024	@ tmp128, tmp128,
 2457 002e 9842     		cmp	r0, r3	@ TIMx, tmp128
 2458 0030 21D0     		beq	.L235		@,
 2459              	@ ../Libraries/STM32F4xx_StdPeriph_Driver/src/stm32f4xx_tim.c:546:   assert_param(IS_TIM_ALL_PERIPH
 2460              		.loc 1 546 16 discriminator 12 view .LVU578
 2461 0032 03F58063 		add	r3, r3, #1024	@ tmp129, tmp129,
 2462 0036 9842     		cmp	r0, r3	@ TIMx, tmp129
 2463 0038 1DD0     		beq	.L235		@,
 2464              	@ ../Libraries/STM32F4xx_StdPeriph_Driver/src/stm32f4xx_tim.c:546:   assert_param(IS_TIM_ALL_PERIPH
 2465              		.loc 1 546 16 discriminator 14 view .LVU579
 2466 003a 03F57043 		add	r3, r3, #61440	@ tmp130, tmp130,
 2467 003e 9842     		cmp	r0, r3	@ TIMx, tmp130
 2468 0040 19D0     		beq	.L235		@,
 2469              	@ ../Libraries/STM32F4xx_StdPeriph_Driver/src/stm32f4xx_tim.c:546:   assert_param(IS_TIM_ALL_PERIPH
 2470              		.loc 1 546 16 discriminator 16 view .LVU580
 2471 0042 03F57053 		add	r3, r3, #15360	@ tmp131, tmp131,
 2472 0046 9842     		cmp	r0, r3	@ TIMx, tmp131
 2473 0048 15D0     		beq	.L235		@,
 2474              	@ ../Libraries/STM32F4xx_StdPeriph_Driver/src/stm32f4xx_tim.c:546:   assert_param(IS_TIM_ALL_PERIPH
 2475              		.loc 1 546 16 discriminator 18 view .LVU581
 2476 004a 03F58063 		add	r3, r3, #1024	@ tmp132, tmp132,
 2477 004e 9842     		cmp	r0, r3	@ TIMx, tmp132
 2478 0050 11D0     		beq	.L235		@,
 2479              	@ ../Libraries/STM32F4xx_StdPeriph_Driver/src/stm32f4xx_tim.c:546:   assert_param(IS_TIM_ALL_PERIPH
 2480              		.loc 1 546 16 discriminator 20 view .LVU582
 2481 0052 03F58063 		add	r3, r3, #1024	@ tmp133, tmp133,
ARM GAS  C:\Users\admin\AppData\Local\Temp\ccu1qHez.s 			page 58


 2482 0056 9842     		cmp	r0, r3	@ TIMx, tmp133
 2483 0058 0DD0     		beq	.L235		@,
 2484              	@ ../Libraries/STM32F4xx_StdPeriph_Driver/src/stm32f4xx_tim.c:546:   assert_param(IS_TIM_ALL_PERIPH
 2485              		.loc 1 546 16 discriminator 22 view .LVU583
 2486 005a A3F59833 		sub	r3, r3, #77824	@ tmp134, tmp134,
 2487 005e 9842     		cmp	r0, r3	@ TIMx, tmp134
 2488 0060 09D0     		beq	.L235		@,
 2489              	@ ../Libraries/STM32F4xx_StdPeriph_Driver/src/stm32f4xx_tim.c:546:   assert_param(IS_TIM_ALL_PERIPH
 2490              		.loc 1 546 3 discriminator 24 view .LVU584
 2491 0062 03F58063 		add	r3, r3, #1024	@ tmp135, tmp135,
 2492 0066 9842     		cmp	r0, r3	@ TIMx, tmp135
 2493 0068 05D0     		beq	.L235		@,
 2494              	@ ../Libraries/STM32F4xx_StdPeriph_Driver/src/stm32f4xx_tim.c:546:   assert_param(IS_TIM_ALL_PERIPH
 2495              		.loc 1 546 16 discriminator 26 view .LVU585
 2496 006a 0F48     		ldr	r0, .L237+4	@ tmp138,
 2497              	.LVL160:
 2498              		.loc 1 546 16 discriminator 26 view .LVU586
 2499 006c 201A     		subs	r0, r4, r0	@ iftmp.14_5, TIMx, tmp138
 2500 006e B0FA80F0 		clz	r0, r0	@ iftmp.14_5, iftmp.14_5
 2501 0072 4009     		lsrs	r0, r0, #5	@ iftmp.14_5, iftmp.14_5,
 2502 0074 00E0     		b	.L222		@
 2503              	.LVL161:
 2504              	.L235:
 2505              	@ ../Libraries/STM32F4xx_StdPeriph_Driver/src/stm32f4xx_tim.c:546:   assert_param(IS_TIM_ALL_PERIPH
 2506              		.loc 1 546 3 view .LVU587
 2507 0076 0120     		movs	r0, #1	@ iftmp.14_5,
 2508              	.LVL162:
 2509              	.L222:
 2510              	@ ../Libraries/STM32F4xx_StdPeriph_Driver/src/stm32f4xx_tim.c:546:   assert_param(IS_TIM_ALL_PERIPH
 2511              		.loc 1 546 3 discriminator 30 view .LVU588
 2512 0078 FFF7FEFF 		bl	assert_param		@
 2513              	.LVL163:
 547:../Libraries/STM32F4xx_StdPeriph_Driver/src/stm32f4xx_tim.c ****   assert_param(IS_TIM_OPM_MODE(TIM_OPMode));
 2514              		.loc 1 547 3 is_stmt 1 discriminator 30 view .LVU589
 2515 007c 25F00800 		bic	r0, r5, #8	@ tmp139, TIM_OPMode,
 2516 0080 B0FA80F0 		clz	r0, r0	@, tmp139
 2517 0084 4009     		lsrs	r0, r0, #5	@,,
 2518 0086 FFF7FEFF 		bl	assert_param		@
 2519              	.LVL164:
 548:../Libraries/STM32F4xx_StdPeriph_Driver/src/stm32f4xx_tim.c **** 
 549:../Libraries/STM32F4xx_StdPeriph_Driver/src/stm32f4xx_tim.c ****   /* Reset the OPM Bit */
 550:../Libraries/STM32F4xx_StdPeriph_Driver/src/stm32f4xx_tim.c ****   TIMx->CR1 &= (uint16_t)~TIM_CR1_OPM;
 2520              		.loc 1 550 3 discriminator 30 view .LVU590
 2521              	@ ../Libraries/STM32F4xx_StdPeriph_Driver/src/stm32f4xx_tim.c:550:   TIMx->CR1 &= (uint16_t)~TIM_CR
 2522              		.loc 1 550 13 is_stmt 0 discriminator 30 view .LVU591
 2523 008a 2388     		ldrh	r3, [r4]	@, TIMx_7(D)->CR1
 2524 008c 23F00803 		bic	r3, r3, #8	@ _2, TIMx_7(D)->CR1,
 2525 0090 1B04     		lsls	r3, r3, #16	@ _2, _2,
 2526 0092 1B0C     		lsrs	r3, r3, #16	@ _2, _2,
 2527 0094 2380     		strh	r3, [r4]	@ movhi	@ _2, TIMx_7(D)->CR1
 551:../Libraries/STM32F4xx_StdPeriph_Driver/src/stm32f4xx_tim.c **** 
 552:../Libraries/STM32F4xx_StdPeriph_Driver/src/stm32f4xx_tim.c ****   /* Configure the OPM Mode */
 553:../Libraries/STM32F4xx_StdPeriph_Driver/src/stm32f4xx_tim.c ****   TIMx->CR1 |= TIM_OPMode;
 2528              		.loc 1 553 3 is_stmt 1 discriminator 30 view .LVU592
 2529              	@ ../Libraries/STM32F4xx_StdPeriph_Driver/src/stm32f4xx_tim.c:553:   TIMx->CR1 |= TIM_OPMode;
 2530              		.loc 1 553 13 is_stmt 0 discriminator 30 view .LVU593
 2531 0096 2388     		ldrh	r3, [r4]	@, TIMx_7(D)->CR1
ARM GAS  C:\Users\admin\AppData\Local\Temp\ccu1qHez.s 			page 59


 2532 0098 9BB2     		uxth	r3, r3	@ _3, TIMx_7(D)->CR1
 2533 009a 43EA0501 		orr	r1, r3, r5	@ _4, _3, TIM_OPMode
 2534 009e 2180     		strh	r1, [r4]	@ movhi	@ _4, TIMx_7(D)->CR1
 2535              	@ ../Libraries/STM32F4xx_StdPeriph_Driver/src/stm32f4xx_tim.c:554: }
 554:../Libraries/STM32F4xx_StdPeriph_Driver/src/stm32f4xx_tim.c **** }
 2536              		.loc 1 554 1 discriminator 30 view .LVU594
 2537 00a0 38BD     		pop	{r3, r4, r5, pc}	@
 2538              	.LVL165:
 2539              	.L238:
 2540              		.loc 1 554 1 discriminator 30 view .LVU595
 2541 00a2 00BF     		.align	2
 2542              	.L237:
 2543 00a4 00000140 		.word	1073807360
 2544 00a8 00200040 		.word	1073750016
 2545              		.cfi_endproc
 2546              	.LFE122:
 2547              		.size	TIM_SelectOnePulseMode, .-TIM_SelectOnePulseMode
 2548              		.section	.text.TIM_SetClockDivision,"ax",%progbits
 2549              		.align	1
 2550              		.p2align 2,,3
 2551              		.global	TIM_SetClockDivision
 2552              		.syntax unified
 2553              		.thumb
 2554              		.thumb_func
 2555              		.type	TIM_SetClockDivision, %function
 2556              	TIM_SetClockDivision:
 2557              	.LVL166:
 2558              	.LFB123:
 555:../Libraries/STM32F4xx_StdPeriph_Driver/src/stm32f4xx_tim.c **** 
 556:../Libraries/STM32F4xx_StdPeriph_Driver/src/stm32f4xx_tim.c **** /**
 557:../Libraries/STM32F4xx_StdPeriph_Driver/src/stm32f4xx_tim.c ****   * @brief  Sets the TIMx Clock Division value.
 558:../Libraries/STM32F4xx_StdPeriph_Driver/src/stm32f4xx_tim.c ****   * @param  TIMx: where x can be 1 to 14 except 6 and 7, to select the TIM peripheral.
 559:../Libraries/STM32F4xx_StdPeriph_Driver/src/stm32f4xx_tim.c ****   * @param  TIM_CKD: specifies the clock division value.
 560:../Libraries/STM32F4xx_StdPeriph_Driver/src/stm32f4xx_tim.c ****   *          This parameter can be one of the following value:
 561:../Libraries/STM32F4xx_StdPeriph_Driver/src/stm32f4xx_tim.c ****   *            @arg TIM_CKD_DIV1: TDTS = Tck_tim
 562:../Libraries/STM32F4xx_StdPeriph_Driver/src/stm32f4xx_tim.c ****   *            @arg TIM_CKD_DIV2: TDTS = 2*Tck_tim
 563:../Libraries/STM32F4xx_StdPeriph_Driver/src/stm32f4xx_tim.c ****   *            @arg TIM_CKD_DIV4: TDTS = 4*Tck_tim
 564:../Libraries/STM32F4xx_StdPeriph_Driver/src/stm32f4xx_tim.c ****   * @retval None
 565:../Libraries/STM32F4xx_StdPeriph_Driver/src/stm32f4xx_tim.c ****   */
 566:../Libraries/STM32F4xx_StdPeriph_Driver/src/stm32f4xx_tim.c **** void TIM_SetClockDivision(TIM_TypeDef* TIMx, uint16_t TIM_CKD)
 567:../Libraries/STM32F4xx_StdPeriph_Driver/src/stm32f4xx_tim.c **** {
 2559              		.loc 1 567 1 is_stmt 1 view -0
 2560              		.cfi_startproc
 2561              		@ args = 0, pretend = 0, frame = 0
 2562              		@ frame_needed = 0, uses_anonymous_args = 0
 568:../Libraries/STM32F4xx_StdPeriph_Driver/src/stm32f4xx_tim.c ****   /* Check the parameters */
 569:../Libraries/STM32F4xx_StdPeriph_Driver/src/stm32f4xx_tim.c ****   assert_param(IS_TIM_LIST1_PERIPH(TIMx));
 2563              		.loc 1 569 3 view .LVU597
 2564              	@ ../Libraries/STM32F4xx_StdPeriph_Driver/src/stm32f4xx_tim.c:567: {
 567:../Libraries/STM32F4xx_StdPeriph_Driver/src/stm32f4xx_tim.c ****   /* Check the parameters */
 2565              		.loc 1 567 1 is_stmt 0 view .LVU598
 2566 0000 38B5     		push	{r3, r4, r5, lr}	@
 2567              		.cfi_def_cfa_offset 16
 2568              		.cfi_offset 3, -16
 2569              		.cfi_offset 4, -12
 2570              		.cfi_offset 5, -8
 2571              		.cfi_offset 14, -4
ARM GAS  C:\Users\admin\AppData\Local\Temp\ccu1qHez.s 			page 60


 2572              	@ ../Libraries/STM32F4xx_StdPeriph_Driver/src/stm32f4xx_tim.c:569:   assert_param(IS_TIM_LIST1_PERI
 2573              		.loc 1 569 3 view .LVU599
 2574 0002 264B     		ldr	r3, .L255	@ tmp124,
 2575 0004 9842     		cmp	r0, r3	@ TIMx, tmp124
 2576              	@ ../Libraries/STM32F4xx_StdPeriph_Driver/src/stm32f4xx_tim.c:567: {
 567:../Libraries/STM32F4xx_StdPeriph_Driver/src/stm32f4xx_tim.c ****   /* Check the parameters */
 2577              		.loc 1 567 1 view .LVU600
 2578 0006 0446     		mov	r4, r0	@ TIMx, tmp148
 2579 0008 0D46     		mov	r5, r1	@ TIM_CKD, tmp149
 2580              	@ ../Libraries/STM32F4xx_StdPeriph_Driver/src/stm32f4xx_tim.c:569:   assert_param(IS_TIM_LIST1_PERI
 2581              		.loc 1 569 3 view .LVU601
 2582 000a 2CD0     		beq	.L252		@,
 2583              	@ ../Libraries/STM32F4xx_StdPeriph_Driver/src/stm32f4xx_tim.c:569:   assert_param(IS_TIM_LIST1_PERI
 2584              		.loc 1 569 16 discriminator 2 view .LVU602
 2585 000c B0F1804F 		cmp	r0, #1073741824	@ TIMx,
 2586 0010 29D0     		beq	.L252		@,
 2587              	@ ../Libraries/STM32F4xx_StdPeriph_Driver/src/stm32f4xx_tim.c:569:   assert_param(IS_TIM_LIST1_PERI
 2588              		.loc 1 569 16 discriminator 4 view .LVU603
 2589 0012 A3F57C43 		sub	r3, r3, #64512	@ tmp125, tmp125,
 2590 0016 9842     		cmp	r0, r3	@ TIMx, tmp125
 2591 0018 25D0     		beq	.L252		@,
 2592              	@ ../Libraries/STM32F4xx_StdPeriph_Driver/src/stm32f4xx_tim.c:569:   assert_param(IS_TIM_LIST1_PERI
 2593              		.loc 1 569 16 discriminator 6 view .LVU604
 2594 001a 03F58063 		add	r3, r3, #1024	@ tmp126, tmp126,
 2595 001e 9842     		cmp	r0, r3	@ TIMx, tmp126
 2596 0020 21D0     		beq	.L252		@,
 2597              	@ ../Libraries/STM32F4xx_StdPeriph_Driver/src/stm32f4xx_tim.c:569:   assert_param(IS_TIM_LIST1_PERI
 2598              		.loc 1 569 16 discriminator 8 view .LVU605
 2599 0022 03F58063 		add	r3, r3, #1024	@ tmp127, tmp127,
 2600 0026 9842     		cmp	r0, r3	@ TIMx, tmp127
 2601 0028 1DD0     		beq	.L252		@,
 2602              	@ ../Libraries/STM32F4xx_StdPeriph_Driver/src/stm32f4xx_tim.c:569:   assert_param(IS_TIM_LIST1_PERI
 2603              		.loc 1 569 16 discriminator 10 view .LVU606
 2604 002a 03F57843 		add	r3, r3, #63488	@ tmp128, tmp128,
 2605 002e 9842     		cmp	r0, r3	@ TIMx, tmp128
 2606 0030 19D0     		beq	.L252		@,
 2607              	@ ../Libraries/STM32F4xx_StdPeriph_Driver/src/stm32f4xx_tim.c:569:   assert_param(IS_TIM_LIST1_PERI
 2608              		.loc 1 569 16 discriminator 12 view .LVU607
 2609 0032 03F57053 		add	r3, r3, #15360	@ tmp129, tmp129,
 2610 0036 9842     		cmp	r0, r3	@ TIMx, tmp129
 2611 0038 15D0     		beq	.L252		@,
 2612              	@ ../Libraries/STM32F4xx_StdPeriph_Driver/src/stm32f4xx_tim.c:569:   assert_param(IS_TIM_LIST1_PERI
 2613              		.loc 1 569 16 discriminator 14 view .LVU608
 2614 003a 03F58063 		add	r3, r3, #1024	@ tmp130, tmp130,
 2615 003e 9842     		cmp	r0, r3	@ TIMx, tmp130
 2616 0040 11D0     		beq	.L252		@,
 2617              	@ ../Libraries/STM32F4xx_StdPeriph_Driver/src/stm32f4xx_tim.c:569:   assert_param(IS_TIM_LIST1_PERI
 2618              		.loc 1 569 16 discriminator 16 view .LVU609
 2619 0042 03F58063 		add	r3, r3, #1024	@ tmp131, tmp131,
 2620 0046 9842     		cmp	r0, r3	@ TIMx, tmp131
 2621 0048 0DD0     		beq	.L252		@,
 2622              	@ ../Libraries/STM32F4xx_StdPeriph_Driver/src/stm32f4xx_tim.c:569:   assert_param(IS_TIM_LIST1_PERI
 2623              		.loc 1 569 16 discriminator 18 view .LVU610
 2624 004a A3F59833 		sub	r3, r3, #77824	@ tmp132, tmp132,
 2625 004e 9842     		cmp	r0, r3	@ TIMx, tmp132
 2626 0050 09D0     		beq	.L252		@,
 2627              	@ ../Libraries/STM32F4xx_StdPeriph_Driver/src/stm32f4xx_tim.c:569:   assert_param(IS_TIM_LIST1_PERI
ARM GAS  C:\Users\admin\AppData\Local\Temp\ccu1qHez.s 			page 61


 2628              		.loc 1 569 16 discriminator 20 view .LVU611
 2629 0052 03F58063 		add	r3, r3, #1024	@ tmp133, tmp133,
 2630 0056 9842     		cmp	r0, r3	@ TIMx, tmp133
 2631 0058 05D0     		beq	.L252		@,
 2632              	@ ../Libraries/STM32F4xx_StdPeriph_Driver/src/stm32f4xx_tim.c:569:   assert_param(IS_TIM_LIST1_PERI
 2633              		.loc 1 569 3 discriminator 22 view .LVU612
 2634 005a 1148     		ldr	r0, .L255+4	@ tmp136,
 2635              	.LVL167:
 2636              		.loc 1 569 3 discriminator 22 view .LVU613
 2637 005c 201A     		subs	r0, r4, r0	@ iftmp.16_5, TIMx, tmp136
 2638 005e B0FA80F0 		clz	r0, r0	@ iftmp.16_5, iftmp.16_5
 2639 0062 4009     		lsrs	r0, r0, #5	@ iftmp.16_5, iftmp.16_5,
 2640 0064 00E0     		b	.L240		@
 2641              	.LVL168:
 2642              	.L252:
 2643              	@ ../Libraries/STM32F4xx_StdPeriph_Driver/src/stm32f4xx_tim.c:569:   assert_param(IS_TIM_LIST1_PERI
 2644              		.loc 1 569 3 view .LVU614
 2645 0066 0120     		movs	r0, #1	@ iftmp.16_5,
 2646              	.LVL169:
 2647              	.L240:
 2648              	@ ../Libraries/STM32F4xx_StdPeriph_Driver/src/stm32f4xx_tim.c:569:   assert_param(IS_TIM_LIST1_PERI
 2649              		.loc 1 569 3 discriminator 26 view .LVU615
 2650 0068 FFF7FEFF 		bl	assert_param		@
 2651              	.LVL170:
 570:../Libraries/STM32F4xx_StdPeriph_Driver/src/stm32f4xx_tim.c ****   assert_param(IS_TIM_CKD_DIV(TIM_CKD));
 2652              		.loc 1 570 3 is_stmt 1 discriminator 26 view .LVU616
 2653 006c 25F48073 		bic	r3, r5, #256	@ tmp137, TIM_CKD,
 2654 0070 93B1     		cbz	r3, .L253	@ tmp137,
 2655              	@ ../Libraries/STM32F4xx_StdPeriph_Driver/src/stm32f4xx_tim.c:570:   assert_param(IS_TIM_CKD_DIV(TI
 2656              		.loc 1 570 3 is_stmt 0 discriminator 4 view .LVU617
 2657 0072 A5F50070 		sub	r0, r5, #512	@ iftmp.17_6, TIM_CKD,
 2658 0076 B0FA80F0 		clz	r0, r0	@ iftmp.17_6, iftmp.17_6
 2659 007a 4009     		lsrs	r0, r0, #5	@ iftmp.17_6, iftmp.17_6,
 2660              	.L241:
 2661              	@ ../Libraries/STM32F4xx_StdPeriph_Driver/src/stm32f4xx_tim.c:570:   assert_param(IS_TIM_CKD_DIV(TI
 2662              		.loc 1 570 3 discriminator 8 view .LVU618
 2663 007c FFF7FEFF 		bl	assert_param		@
 2664              	.LVL171:
 571:../Libraries/STM32F4xx_StdPeriph_Driver/src/stm32f4xx_tim.c **** 
 572:../Libraries/STM32F4xx_StdPeriph_Driver/src/stm32f4xx_tim.c ****   /* Reset the CKD Bits */
 573:../Libraries/STM32F4xx_StdPeriph_Driver/src/stm32f4xx_tim.c ****   TIMx->CR1 &= (uint16_t)(~TIM_CR1_CKD);
 2665              		.loc 1 573 3 is_stmt 1 discriminator 8 view .LVU619
 2666              	@ ../Libraries/STM32F4xx_StdPeriph_Driver/src/stm32f4xx_tim.c:573:   TIMx->CR1 &= (uint16_t)(~TIM_C
 2667              		.loc 1 573 13 is_stmt 0 discriminator 8 view .LVU620
 2668 0080 2388     		ldrh	r3, [r4]	@, TIMx_7(D)->CR1
 2669 0082 23F44073 		bic	r3, r3, #768	@ _2, TIMx_7(D)->CR1,
 2670 0086 1B04     		lsls	r3, r3, #16	@ _2, _2,
 2671 0088 1B0C     		lsrs	r3, r3, #16	@ _2, _2,
 2672 008a 2380     		strh	r3, [r4]	@ movhi	@ _2, TIMx_7(D)->CR1
 574:../Libraries/STM32F4xx_StdPeriph_Driver/src/stm32f4xx_tim.c **** 
 575:../Libraries/STM32F4xx_StdPeriph_Driver/src/stm32f4xx_tim.c ****   /* Set the CKD value */
 576:../Libraries/STM32F4xx_StdPeriph_Driver/src/stm32f4xx_tim.c ****   TIMx->CR1 |= TIM_CKD;
 2673              		.loc 1 576 3 is_stmt 1 discriminator 8 view .LVU621
 2674              	@ ../Libraries/STM32F4xx_StdPeriph_Driver/src/stm32f4xx_tim.c:576:   TIMx->CR1 |= TIM_CKD;
 2675              		.loc 1 576 13 is_stmt 0 discriminator 8 view .LVU622
 2676 008c 2388     		ldrh	r3, [r4]	@, TIMx_7(D)->CR1
 2677 008e 9BB2     		uxth	r3, r3	@ _3, TIMx_7(D)->CR1
ARM GAS  C:\Users\admin\AppData\Local\Temp\ccu1qHez.s 			page 62


 2678 0090 43EA0501 		orr	r1, r3, r5	@ _4, _3, TIM_CKD
 2679 0094 2180     		strh	r1, [r4]	@ movhi	@ _4, TIMx_7(D)->CR1
 2680              	@ ../Libraries/STM32F4xx_StdPeriph_Driver/src/stm32f4xx_tim.c:577: }
 577:../Libraries/STM32F4xx_StdPeriph_Driver/src/stm32f4xx_tim.c **** }
 2681              		.loc 1 577 1 discriminator 8 view .LVU623
 2682 0096 38BD     		pop	{r3, r4, r5, pc}	@
 2683              	.LVL172:
 2684              	.L253:
 2685              	@ ../Libraries/STM32F4xx_StdPeriph_Driver/src/stm32f4xx_tim.c:570:   assert_param(IS_TIM_CKD_DIV(TI
 570:../Libraries/STM32F4xx_StdPeriph_Driver/src/stm32f4xx_tim.c **** 
 2686              		.loc 1 570 3 view .LVU624
 2687 0098 0120     		movs	r0, #1	@ iftmp.17_6,
 2688 009a EFE7     		b	.L241		@
 2689              	.L256:
 2690              		.align	2
 2691              	.L255:
 2692 009c 00000140 		.word	1073807360
 2693 00a0 00200040 		.word	1073750016
 2694              		.cfi_endproc
 2695              	.LFE123:
 2696              		.size	TIM_SetClockDivision, .-TIM_SetClockDivision
 2697              		.section	.text.TIM_Cmd,"ax",%progbits
 2698              		.align	1
 2699              		.p2align 2,,3
 2700              		.global	TIM_Cmd
 2701              		.syntax unified
 2702              		.thumb
 2703              		.thumb_func
 2704              		.type	TIM_Cmd, %function
 2705              	TIM_Cmd:
 2706              	.LVL173:
 2707              	.LFB124:
 578:../Libraries/STM32F4xx_StdPeriph_Driver/src/stm32f4xx_tim.c **** 
 579:../Libraries/STM32F4xx_StdPeriph_Driver/src/stm32f4xx_tim.c **** /**
 580:../Libraries/STM32F4xx_StdPeriph_Driver/src/stm32f4xx_tim.c ****   * @brief  Enables or disables the specified TIM peripheral.
 581:../Libraries/STM32F4xx_StdPeriph_Driver/src/stm32f4xx_tim.c ****   * @param  TIMx: where x can be 1 to 14 to select the TIMx peripheral.
 582:../Libraries/STM32F4xx_StdPeriph_Driver/src/stm32f4xx_tim.c ****   * @param  NewState: new state of the TIMx peripheral.
 583:../Libraries/STM32F4xx_StdPeriph_Driver/src/stm32f4xx_tim.c ****   *          This parameter can be: ENABLE or DISABLE.
 584:../Libraries/STM32F4xx_StdPeriph_Driver/src/stm32f4xx_tim.c ****   * @retval None
 585:../Libraries/STM32F4xx_StdPeriph_Driver/src/stm32f4xx_tim.c ****   */
 586:../Libraries/STM32F4xx_StdPeriph_Driver/src/stm32f4xx_tim.c **** void TIM_Cmd(TIM_TypeDef* TIMx, FunctionalState NewState)
 587:../Libraries/STM32F4xx_StdPeriph_Driver/src/stm32f4xx_tim.c **** {
 2708              		.loc 1 587 1 is_stmt 1 view -0
 2709              		.cfi_startproc
 2710              		@ args = 0, pretend = 0, frame = 0
 2711              		@ frame_needed = 0, uses_anonymous_args = 0
 588:../Libraries/STM32F4xx_StdPeriph_Driver/src/stm32f4xx_tim.c ****   /* Check the parameters */
 589:../Libraries/STM32F4xx_StdPeriph_Driver/src/stm32f4xx_tim.c ****   assert_param(IS_TIM_ALL_PERIPH(TIMx)); 
 2712              		.loc 1 589 3 view .LVU626
 2713              	@ ../Libraries/STM32F4xx_StdPeriph_Driver/src/stm32f4xx_tim.c:587: {
 587:../Libraries/STM32F4xx_StdPeriph_Driver/src/stm32f4xx_tim.c ****   /* Check the parameters */
 2714              		.loc 1 587 1 is_stmt 0 view .LVU627
 2715 0000 38B5     		push	{r3, r4, r5, lr}	@
 2716              		.cfi_def_cfa_offset 16
 2717              		.cfi_offset 3, -16
 2718              		.cfi_offset 4, -12
 2719              		.cfi_offset 5, -8
ARM GAS  C:\Users\admin\AppData\Local\Temp\ccu1qHez.s 			page 63


 2720              		.cfi_offset 14, -4
 2721              	@ ../Libraries/STM32F4xx_StdPeriph_Driver/src/stm32f4xx_tim.c:589:   assert_param(IS_TIM_ALL_PERIPH
 2722              		.loc 1 589 3 view .LVU628
 2723 0002 284B     		ldr	r3, .L275	@ tmp123,
 2724 0004 9842     		cmp	r0, r3	@ TIMx, tmp123
 2725              	@ ../Libraries/STM32F4xx_StdPeriph_Driver/src/stm32f4xx_tim.c:587: {
 587:../Libraries/STM32F4xx_StdPeriph_Driver/src/stm32f4xx_tim.c ****   /* Check the parameters */
 2726              		.loc 1 587 1 view .LVU629
 2727 0006 0446     		mov	r4, r0	@ TIMx, tmp148
 2728 0008 0D46     		mov	r5, r1	@ NewState, tmp149
 2729              	@ ../Libraries/STM32F4xx_StdPeriph_Driver/src/stm32f4xx_tim.c:589:   assert_param(IS_TIM_ALL_PERIPH
 2730              		.loc 1 589 3 view .LVU630
 2731 000a 34D0     		beq	.L273		@,
 2732              	@ ../Libraries/STM32F4xx_StdPeriph_Driver/src/stm32f4xx_tim.c:589:   assert_param(IS_TIM_ALL_PERIPH
 2733              		.loc 1 589 16 discriminator 2 view .LVU631
 2734 000c B0F1804F 		cmp	r0, #1073741824	@ TIMx,
 2735 0010 31D0     		beq	.L273		@,
 2736              	@ ../Libraries/STM32F4xx_StdPeriph_Driver/src/stm32f4xx_tim.c:589:   assert_param(IS_TIM_ALL_PERIPH
 2737              		.loc 1 589 16 discriminator 4 view .LVU632
 2738 0012 A3F57C43 		sub	r3, r3, #64512	@ tmp124, tmp124,
 2739 0016 9842     		cmp	r0, r3	@ TIMx, tmp124
 2740 0018 2DD0     		beq	.L273		@,
 2741              	@ ../Libraries/STM32F4xx_StdPeriph_Driver/src/stm32f4xx_tim.c:589:   assert_param(IS_TIM_ALL_PERIPH
 2742              		.loc 1 589 16 discriminator 6 view .LVU633
 2743 001a 03F58063 		add	r3, r3, #1024	@ tmp125, tmp125,
 2744 001e 9842     		cmp	r0, r3	@ TIMx, tmp125
 2745 0020 29D0     		beq	.L273		@,
 2746              	@ ../Libraries/STM32F4xx_StdPeriph_Driver/src/stm32f4xx_tim.c:589:   assert_param(IS_TIM_ALL_PERIPH
 2747              		.loc 1 589 16 discriminator 8 view .LVU634
 2748 0022 03F58063 		add	r3, r3, #1024	@ tmp126, tmp126,
 2749 0026 9842     		cmp	r0, r3	@ TIMx, tmp126
 2750 0028 25D0     		beq	.L273		@,
 2751              	@ ../Libraries/STM32F4xx_StdPeriph_Driver/src/stm32f4xx_tim.c:589:   assert_param(IS_TIM_ALL_PERIPH
 2752              		.loc 1 589 16 discriminator 10 view .LVU635
 2753 002a 03F58063 		add	r3, r3, #1024	@ tmp127, tmp127,
 2754 002e 9842     		cmp	r0, r3	@ TIMx, tmp127
 2755 0030 21D0     		beq	.L273		@,
 2756              	@ ../Libraries/STM32F4xx_StdPeriph_Driver/src/stm32f4xx_tim.c:589:   assert_param(IS_TIM_ALL_PERIPH
 2757              		.loc 1 589 16 discriminator 12 view .LVU636
 2758 0032 03F58063 		add	r3, r3, #1024	@ tmp128, tmp128,
 2759 0036 9842     		cmp	r0, r3	@ TIMx, tmp128
 2760 0038 1DD0     		beq	.L273		@,
 2761              	@ ../Libraries/STM32F4xx_StdPeriph_Driver/src/stm32f4xx_tim.c:589:   assert_param(IS_TIM_ALL_PERIPH
 2762              		.loc 1 589 16 discriminator 14 view .LVU637
 2763 003a 03F57043 		add	r3, r3, #61440	@ tmp129, tmp129,
 2764 003e 9842     		cmp	r0, r3	@ TIMx, tmp129
 2765 0040 19D0     		beq	.L273		@,
 2766              	@ ../Libraries/STM32F4xx_StdPeriph_Driver/src/stm32f4xx_tim.c:589:   assert_param(IS_TIM_ALL_PERIPH
 2767              		.loc 1 589 16 discriminator 16 view .LVU638
 2768 0042 03F57053 		add	r3, r3, #15360	@ tmp130, tmp130,
 2769 0046 9842     		cmp	r0, r3	@ TIMx, tmp130
 2770 0048 15D0     		beq	.L273		@,
 2771              	@ ../Libraries/STM32F4xx_StdPeriph_Driver/src/stm32f4xx_tim.c:589:   assert_param(IS_TIM_ALL_PERIPH
 2772              		.loc 1 589 16 discriminator 18 view .LVU639
 2773 004a 03F58063 		add	r3, r3, #1024	@ tmp131, tmp131,
 2774 004e 9842     		cmp	r0, r3	@ TIMx, tmp131
 2775 0050 11D0     		beq	.L273		@,
ARM GAS  C:\Users\admin\AppData\Local\Temp\ccu1qHez.s 			page 64


 2776              	@ ../Libraries/STM32F4xx_StdPeriph_Driver/src/stm32f4xx_tim.c:589:   assert_param(IS_TIM_ALL_PERIPH
 2777              		.loc 1 589 16 discriminator 20 view .LVU640
 2778 0052 03F58063 		add	r3, r3, #1024	@ tmp132, tmp132,
 2779 0056 9842     		cmp	r0, r3	@ TIMx, tmp132
 2780 0058 0DD0     		beq	.L273		@,
 2781              	@ ../Libraries/STM32F4xx_StdPeriph_Driver/src/stm32f4xx_tim.c:589:   assert_param(IS_TIM_ALL_PERIPH
 2782              		.loc 1 589 16 discriminator 22 view .LVU641
 2783 005a A3F59833 		sub	r3, r3, #77824	@ tmp133, tmp133,
 2784 005e 9842     		cmp	r0, r3	@ TIMx, tmp133
 2785 0060 09D0     		beq	.L273		@,
 2786              	@ ../Libraries/STM32F4xx_StdPeriph_Driver/src/stm32f4xx_tim.c:589:   assert_param(IS_TIM_ALL_PERIPH
 2787              		.loc 1 589 3 discriminator 24 view .LVU642
 2788 0062 03F58063 		add	r3, r3, #1024	@ tmp134, tmp134,
 2789 0066 9842     		cmp	r0, r3	@ TIMx, tmp134
 2790 0068 05D0     		beq	.L273		@,
 2791              	@ ../Libraries/STM32F4xx_StdPeriph_Driver/src/stm32f4xx_tim.c:589:   assert_param(IS_TIM_ALL_PERIPH
 2792              		.loc 1 589 16 discriminator 26 view .LVU643
 2793 006a 0F48     		ldr	r0, .L275+4	@ tmp137,
 2794              	.LVL174:
 2795              		.loc 1 589 16 discriminator 26 view .LVU644
 2796 006c 201A     		subs	r0, r4, r0	@ iftmp.18_7, TIMx, tmp137
 2797 006e B0FA80F0 		clz	r0, r0	@ iftmp.18_7, iftmp.18_7
 2798 0072 4009     		lsrs	r0, r0, #5	@ iftmp.18_7, iftmp.18_7,
 2799 0074 00E0     		b	.L258		@
 2800              	.LVL175:
 2801              	.L273:
 2802              	@ ../Libraries/STM32F4xx_StdPeriph_Driver/src/stm32f4xx_tim.c:589:   assert_param(IS_TIM_ALL_PERIPH
 2803              		.loc 1 589 3 view .LVU645
 2804 0076 0120     		movs	r0, #1	@ iftmp.18_7,
 2805              	.LVL176:
 2806              	.L258:
 2807              	@ ../Libraries/STM32F4xx_StdPeriph_Driver/src/stm32f4xx_tim.c:589:   assert_param(IS_TIM_ALL_PERIPH
 2808              		.loc 1 589 3 discriminator 30 view .LVU646
 2809 0078 FFF7FEFF 		bl	assert_param		@
 2810              	.LVL177:
 590:../Libraries/STM32F4xx_StdPeriph_Driver/src/stm32f4xx_tim.c ****   assert_param(IS_FUNCTIONAL_STATE(NewState));
 2811              		.loc 1 590 3 is_stmt 1 discriminator 30 view .LVU647
 2812 007c 012D     		cmp	r5, #1	@ NewState,
 2813 007e 8CBF     		ite	hi
 2814 0080 0020     		movhi	r0, #0	@,
 2815 0082 0120     		movls	r0, #1	@,
 2816 0084 FFF7FEFF 		bl	assert_param		@
 2817              	.LVL178:
 591:../Libraries/STM32F4xx_StdPeriph_Driver/src/stm32f4xx_tim.c ****   
 592:../Libraries/STM32F4xx_StdPeriph_Driver/src/stm32f4xx_tim.c ****   if (NewState != DISABLE)
 2818              		.loc 1 592 3 discriminator 30 view .LVU648
 2819              	@ ../Libraries/STM32F4xx_StdPeriph_Driver/src/stm32f4xx_tim.c:595:     TIMx->CR1 |= TIM_CR1_CEN;
 593:../Libraries/STM32F4xx_StdPeriph_Driver/src/stm32f4xx_tim.c ****   {
 594:../Libraries/STM32F4xx_StdPeriph_Driver/src/stm32f4xx_tim.c ****     /* Enable the TIM Counter */
 595:../Libraries/STM32F4xx_StdPeriph_Driver/src/stm32f4xx_tim.c ****     TIMx->CR1 |= TIM_CR1_CEN;
 2820              		.loc 1 595 15 is_stmt 0 discriminator 30 view .LVU649
 2821 0088 2388     		ldrh	r3, [r4]	@,* TIMx
 2822              	@ ../Libraries/STM32F4xx_StdPeriph_Driver/src/stm32f4xx_tim.c:592:   if (NewState != DISABLE)
 592:../Libraries/STM32F4xx_StdPeriph_Driver/src/stm32f4xx_tim.c ****   {
 2823              		.loc 1 592 6 discriminator 30 view .LVU650
 2824 008a 25B1     		cbz	r5, .L259	@ NewState,
 2825              		.loc 1 595 5 is_stmt 1 view .LVU651
ARM GAS  C:\Users\admin\AppData\Local\Temp\ccu1qHez.s 			page 65


 2826              	@ ../Libraries/STM32F4xx_StdPeriph_Driver/src/stm32f4xx_tim.c:595:     TIMx->CR1 |= TIM_CR1_CEN;
 2827              		.loc 1 595 15 is_stmt 0 view .LVU652
 2828 008c 9BB2     		uxth	r3, r3	@ _3, TIMx_9(D)->CR1
 2829 008e 43F00103 		orr	r3, r3, #1	@ _4, _3,
 2830 0092 2380     		strh	r3, [r4]	@ movhi	@ _4,* TIMx
 2831              	@ ../Libraries/STM32F4xx_StdPeriph_Driver/src/stm32f4xx_tim.c:602: }
 596:../Libraries/STM32F4xx_StdPeriph_Driver/src/stm32f4xx_tim.c ****   }
 597:../Libraries/STM32F4xx_StdPeriph_Driver/src/stm32f4xx_tim.c ****   else
 598:../Libraries/STM32F4xx_StdPeriph_Driver/src/stm32f4xx_tim.c ****   {
 599:../Libraries/STM32F4xx_StdPeriph_Driver/src/stm32f4xx_tim.c ****     /* Disable the TIM Counter */
 600:../Libraries/STM32F4xx_StdPeriph_Driver/src/stm32f4xx_tim.c ****     TIMx->CR1 &= (uint16_t)~TIM_CR1_CEN;
 601:../Libraries/STM32F4xx_StdPeriph_Driver/src/stm32f4xx_tim.c ****   }
 602:../Libraries/STM32F4xx_StdPeriph_Driver/src/stm32f4xx_tim.c **** }
 2832              		.loc 1 602 1 view .LVU653
 2833 0094 38BD     		pop	{r3, r4, r5, pc}	@
 2834              	.LVL179:
 2835              	.L259:
 600:../Libraries/STM32F4xx_StdPeriph_Driver/src/stm32f4xx_tim.c ****   }
 2836              		.loc 1 600 5 is_stmt 1 view .LVU654
 2837              	@ ../Libraries/STM32F4xx_StdPeriph_Driver/src/stm32f4xx_tim.c:600:     TIMx->CR1 &= (uint16_t)~TIM_
 600:../Libraries/STM32F4xx_StdPeriph_Driver/src/stm32f4xx_tim.c ****   }
 2838              		.loc 1 600 15 is_stmt 0 view .LVU655
 2839 0096 23F00103 		bic	r3, r3, #1	@ _6, TIMx_9(D)->CR1,
