ARM GAS  C:\Users\admin\AppData\Local\Temp\ccRLZzIJ.s 			page 1


   1              		.cpu cortex-m4
   2              		.arch armv7e-m
   3              		.fpu fpv4-sp-d16
   4              		.eabi_attribute 27, 1	@ Tag_ABI_HardFP_use
   5              		.eabi_attribute 28, 1	@ Tag_ABI_VFP_args
   6              		.eabi_attribute 23, 1	@ Tag_ABI_FP_number_model
   7              		.eabi_attribute 24, 1	@ Tag_ABI_align8_needed
   8              		.eabi_attribute 25, 1	@ Tag_ABI_align8_preserved
   9              		.eabi_attribute 26, 1	@ Tag_ABI_enum_size
  10              		.eabi_attribute 30, 2	@ Tag_ABI_optimization_goals
  11              		.eabi_attribute 34, 1	@ Tag_CPU_unaligned_access
  12              		.eabi_attribute 18, 4	@ Tag_ABI_PCS_wchar_t
  13              		.file	"stm32f4xx_crc.c"
  14              	@ GNU C89 (GNU Arm Embedded Toolchain 10.3-2021.10) version 10.3.1 20210824 (release) (arm-none-eab
  15              	@	compiled by GNU C version 7.3-win32 20180312, GMP version 6.1.0, MPFR version 3.1.4, MPC version 
  16              	
  17              	@ GGC heuristics: --param ggc-min-expand=100 --param ggc-min-heapsize=131072
  18              	@ options passed:  -I . -I . -I ../Utilities/STM32F4-Discovery/
  19              	@ -I ../Libraries/STM32_USB_Device_Library/Class/audio/inc/
  20              	@ -I ../Libraries/STM32_USB_Device_Library/Core/inc/
  21              	@ -I ../Libraries/STM32_USB_OTG_Driver/inc/
  22              	@ -I ../Utilities/STM32F4-Discovery/
  23              	@ -I ../Libraries/STM32F4xx_StdPeriph_Driver/inc/
  24              	@ -I ../Utilities/STM32F4-Discovery/
  25              	@ -I ../Libraries/CMSIS/ST/STM32F4xx/Include/
  26              	@ -I ../Libraries/CMSIS/Include/ -imultilib thumb/v7e-m+fp/hard
  27              	@ -iprefix c:\program files (x86)\gnu arm embedded toolchain\10 2021.10\bin\../lib/gcc/arm-none-eab
  28              	@ -isysroot c:\program files (x86)\gnu arm embedded toolchain\10 2021.10\bin\../arm-none-eabi
  29              	@ -MD out/stm32f4xx_crc.d -MF out/stm32f4xx_crc.d -MP
  30              	@ -MQ out/stm32f4xx_crc.o -D__USES_INITFINI__ -D STM32F4XX -D __VFP_FP__
  31              	@ -D USE_USB_OTG_FS
  32              	@ ../Libraries/STM32F4xx_StdPeriph_Driver/src/stm32f4xx_crc.c
  33              	@ -mcpu=cortex-m4 -mthumb -mfloat-abi=hard -mfpu=fpv4-sp-d16
  34              	@ -mlibarch=armv7e-m+fp -march=armv7e-m+fp
  35              	@ -auxbase-strip out/stm32f4xx_crc.o -g -ggdb3 -O3 -Wall
  36              	@ -Wstrict-prototypes -Wextra -std=gnu90 -ffast-math -ffunction-sections
  37              	@ -fdata-sections -fverbose-asm
  38              	@ options enabled:  -faggressive-loop-optimizations -falign-functions
  39              	@ -falign-jumps -falign-labels -falign-loops -fallocation-dce
  40              	@ -fassociative-math -fauto-inc-dec -fbranch-count-reg -fcaller-saves
  41              	@ -fcombine-stack-adjustments -fcompare-elim -fcprop-registers
  42              	@ -fcrossjumping -fcse-follow-jumps -fcx-limited-range -fdata-sections
  43              	@ -fdefer-pop -fdelete-null-pointer-checks -fdevirtualize
  44              	@ -fdevirtualize-speculatively -fdwarf2-cfi-asm -fearly-inlining
  45              	@ -feliminate-unused-debug-symbols -feliminate-unused-debug-types
  46              	@ -fexpensive-optimizations -ffinite-math-only -fforward-propagate
  47              	@ -ffp-int-builtin-inexact -ffunction-cse -ffunction-sections -fgcse
  48              	@ -fgcse-after-reload -fgcse-lm -fgnu-unique -fguess-branch-probability
  49              	@ -fhoist-adjacent-loads -fident -fif-conversion -fif-conversion2
  50              	@ -findirect-inlining -finline -finline-atomics -finline-functions
  51              	@ -finline-functions-called-once -finline-small-functions -fipa-bit-cp
  52              	@ -fipa-cp -fipa-cp-clone -fipa-icf -fipa-icf-functions -fipa-icf-variables
  53              	@ -fipa-profile -fipa-pure-const -fipa-ra -fipa-reference
  54              	@ -fipa-reference-addressable -fipa-sra -fipa-stack-alignment -fipa-vrp
  55              	@ -fira-hoist-pressure -fira-share-save-slots -fira-share-spill-slots
  56              	@ -fisolate-erroneous-paths-dereference -fivopts -fkeep-static-consts
  57              	@ -fleading-underscore -flifetime-dse -floop-interchange
ARM GAS  C:\Users\admin\AppData\Local\Temp\ccRLZzIJ.s 			page 2


  58              	@ -floop-unroll-and-jam -flra-remat -fmerge-constants -fmerge-debug-strings
  59              	@ -fmove-loop-invariants -fomit-frame-pointer -foptimize-sibling-calls
  60              	@ -foptimize-strlen -fpartial-inlining -fpeel-loops -fpeephole -fpeephole2
  61              	@ -fplt -fpredictive-commoning -fprefetch-loop-arrays -freciprocal-math
  62              	@ -freg-struct-return -freorder-blocks -freorder-functions
  63              	@ -frerun-cse-after-loop -fsched-critical-path-heuristic
  64              	@ -fsched-dep-count-heuristic -fsched-group-heuristic -fsched-interblock
  65              	@ -fsched-last-insn-heuristic -fsched-pressure -fsched-rank-heuristic
  66              	@ -fsched-spec -fsched-spec-insn-heuristic -fsched-stalled-insns-dep
  67              	@ -fschedule-insns -fschedule-insns2 -fsection-anchors
  68              	@ -fsemantic-interposition -fshow-column -fshrink-wrap
  69              	@ -fshrink-wrap-separate -fsplit-ivs-in-unroller -fsplit-loops
  70              	@ -fsplit-paths -fsplit-wide-types -fssa-backprop -fssa-phiopt -fstdarg-opt
  71              	@ -fstore-merging -fstrict-aliasing -fstrict-volatile-bitfields
  72              	@ -fsync-libcalls -fthread-jumps -ftoplevel-reorder -ftree-bit-ccp
  73              	@ -ftree-builtin-call-dce -ftree-ccp -ftree-ch -ftree-coalesce-vars
  74              	@ -ftree-copy-prop -ftree-cselim -ftree-dce -ftree-dominator-opts
  75              	@ -ftree-dse -ftree-forwprop -ftree-fre -ftree-loop-distribute-patterns
  76              	@ -ftree-loop-distribution -ftree-loop-if-convert -ftree-loop-im
  77              	@ -ftree-loop-ivcanon -ftree-loop-optimize -ftree-loop-vectorize
  78              	@ -ftree-parallelize-loops= -ftree-partial-pre -ftree-phiprop -ftree-pre
  79              	@ -ftree-pta -ftree-reassoc -ftree-scev-cprop -ftree-sink
  80              	@ -ftree-slp-vectorize -ftree-slsr -ftree-sra -ftree-switch-conversion
  81              	@ -ftree-tail-merge -ftree-ter -ftree-vrp -funit-at-a-time
  82              	@ -funsafe-math-optimizations -funswitch-loops -fvar-tracking
  83              	@ -fvar-tracking-assignments -fverbose-asm -fversion-loops-for-strides
  84              	@ -fzero-initialized-in-bss -masm-syntax-unified -mbe32 -mlittle-endian
  85              	@ -mpic-data-is-text-relative -msched-prolog -mthumb -munaligned-access
  86              	@ -mvectorize-with-neon-quad
  87              	
  88              		.text
  89              	.Ltext0:
  90              		.cfi_sections	.debug_frame
  91              		.section	.text.CRC_ResetDR,"ax",%progbits
  92              		.align	1
  93              		.p2align 2,,3
  94              		.global	CRC_ResetDR
  95              		.syntax unified
  96              		.thumb
  97              		.thumb_func
  98              		.type	CRC_ResetDR, %function
  99              	CRC_ResetDR:
 100              	.LFB110:
 101              		.file 1 "../Libraries/STM32F4xx_StdPeriph_Driver/src/stm32f4xx_crc.c"
   1:../Libraries/STM32F4xx_StdPeriph_Driver/src/stm32f4xx_crc.c **** /**
   2:../Libraries/STM32F4xx_StdPeriph_Driver/src/stm32f4xx_crc.c ****   ******************************************************************************
   3:../Libraries/STM32F4xx_StdPeriph_Driver/src/stm32f4xx_crc.c ****   * @file    stm32f4xx_crc.c
   4:../Libraries/STM32F4xx_StdPeriph_Driver/src/stm32f4xx_crc.c ****   * @author  MCD Application Team
   5:../Libraries/STM32F4xx_StdPeriph_Driver/src/stm32f4xx_crc.c ****   * @version V1.0.0
   6:../Libraries/STM32F4xx_StdPeriph_Driver/src/stm32f4xx_crc.c ****   * @date    30-September-2011
   7:../Libraries/STM32F4xx_StdPeriph_Driver/src/stm32f4xx_crc.c ****   * @brief   This file provides all the CRC firmware functions.
   8:../Libraries/STM32F4xx_StdPeriph_Driver/src/stm32f4xx_crc.c ****   ******************************************************************************
   9:../Libraries/STM32F4xx_StdPeriph_Driver/src/stm32f4xx_crc.c ****   * @attention
  10:../Libraries/STM32F4xx_StdPeriph_Driver/src/stm32f4xx_crc.c ****   *
  11:../Libraries/STM32F4xx_StdPeriph_Driver/src/stm32f4xx_crc.c ****   * THE PRESENT FIRMWARE WHICH IS FOR GUIDANCE ONLY AIMS AT PROVIDING CUSTOMERS
  12:../Libraries/STM32F4xx_StdPeriph_Driver/src/stm32f4xx_crc.c ****   * WITH CODING INFORMATION REGARDING THEIR PRODUCTS IN ORDER FOR THEM TO SAVE
  13:../Libraries/STM32F4xx_StdPeriph_Driver/src/stm32f4xx_crc.c ****   * TIME. AS A RESULT, STMICROELECTRONICS SHALL NOT BE HELD LIABLE FOR ANY
ARM GAS  C:\Users\admin\AppData\Local\Temp\ccRLZzIJ.s 			page 3


  14:../Libraries/STM32F4xx_StdPeriph_Driver/src/stm32f4xx_crc.c ****   * DIRECT, INDIRECT OR CONSEQUENTIAL DAMAGES WITH RESPECT TO ANY CLAIMS ARISING
  15:../Libraries/STM32F4xx_StdPeriph_Driver/src/stm32f4xx_crc.c ****   * FROM THE CONTENT OF SUCH FIRMWARE AND/OR THE USE MADE BY CUSTOMERS OF THE
  16:../Libraries/STM32F4xx_StdPeriph_Driver/src/stm32f4xx_crc.c ****   * CODING INFORMATION CONTAINED HEREIN IN CONNECTION WITH THEIR PRODUCTS.
  17:../Libraries/STM32F4xx_StdPeriph_Driver/src/stm32f4xx_crc.c ****   *
  18:../Libraries/STM32F4xx_StdPeriph_Driver/src/stm32f4xx_crc.c ****   * <h2><center>&copy; COPYRIGHT 2011 STMicroelectronics</center></h2>
  19:../Libraries/STM32F4xx_StdPeriph_Driver/src/stm32f4xx_crc.c ****   ******************************************************************************
  20:../Libraries/STM32F4xx_StdPeriph_Driver/src/stm32f4xx_crc.c ****   */
  21:../Libraries/STM32F4xx_StdPeriph_Driver/src/stm32f4xx_crc.c **** 
  22:../Libraries/STM32F4xx_StdPeriph_Driver/src/stm32f4xx_crc.c **** /* Includes ------------------------------------------------------------------*/
  23:../Libraries/STM32F4xx_StdPeriph_Driver/src/stm32f4xx_crc.c **** #include "stm32f4xx_crc.h"
  24:../Libraries/STM32F4xx_StdPeriph_Driver/src/stm32f4xx_crc.c **** 
  25:../Libraries/STM32F4xx_StdPeriph_Driver/src/stm32f4xx_crc.c **** /** @addtogroup STM32F4xx_StdPeriph_Driver
  26:../Libraries/STM32F4xx_StdPeriph_Driver/src/stm32f4xx_crc.c ****   * @{
  27:../Libraries/STM32F4xx_StdPeriph_Driver/src/stm32f4xx_crc.c ****   */
  28:../Libraries/STM32F4xx_StdPeriph_Driver/src/stm32f4xx_crc.c **** 
  29:../Libraries/STM32F4xx_StdPeriph_Driver/src/stm32f4xx_crc.c **** /** @defgroup CRC 
  30:../Libraries/STM32F4xx_StdPeriph_Driver/src/stm32f4xx_crc.c ****   * @brief CRC driver modules
  31:../Libraries/STM32F4xx_StdPeriph_Driver/src/stm32f4xx_crc.c ****   * @{
  32:../Libraries/STM32F4xx_StdPeriph_Driver/src/stm32f4xx_crc.c ****   */
  33:../Libraries/STM32F4xx_StdPeriph_Driver/src/stm32f4xx_crc.c **** 
  34:../Libraries/STM32F4xx_StdPeriph_Driver/src/stm32f4xx_crc.c **** /* Private typedef -----------------------------------------------------------*/
  35:../Libraries/STM32F4xx_StdPeriph_Driver/src/stm32f4xx_crc.c **** /* Private define ------------------------------------------------------------*/
  36:../Libraries/STM32F4xx_StdPeriph_Driver/src/stm32f4xx_crc.c **** /* Private macro -------------------------------------------------------------*/
  37:../Libraries/STM32F4xx_StdPeriph_Driver/src/stm32f4xx_crc.c **** /* Private variables ---------------------------------------------------------*/
  38:../Libraries/STM32F4xx_StdPeriph_Driver/src/stm32f4xx_crc.c **** /* Private function prototypes -----------------------------------------------*/
  39:../Libraries/STM32F4xx_StdPeriph_Driver/src/stm32f4xx_crc.c **** /* Private functions ---------------------------------------------------------*/
  40:../Libraries/STM32F4xx_StdPeriph_Driver/src/stm32f4xx_crc.c **** 
  41:../Libraries/STM32F4xx_StdPeriph_Driver/src/stm32f4xx_crc.c **** /** @defgroup CRC_Private_Functions
  42:../Libraries/STM32F4xx_StdPeriph_Driver/src/stm32f4xx_crc.c ****   * @{
  43:../Libraries/STM32F4xx_StdPeriph_Driver/src/stm32f4xx_crc.c ****   */
  44:../Libraries/STM32F4xx_StdPeriph_Driver/src/stm32f4xx_crc.c **** 
  45:../Libraries/STM32F4xx_StdPeriph_Driver/src/stm32f4xx_crc.c **** /**
  46:../Libraries/STM32F4xx_StdPeriph_Driver/src/stm32f4xx_crc.c ****   * @brief  Resets the CRC Data register (DR).
  47:../Libraries/STM32F4xx_StdPeriph_Driver/src/stm32f4xx_crc.c ****   * @param  None
  48:../Libraries/STM32F4xx_StdPeriph_Driver/src/stm32f4xx_crc.c ****   * @retval None
  49:../Libraries/STM32F4xx_StdPeriph_Driver/src/stm32f4xx_crc.c ****   */
  50:../Libraries/STM32F4xx_StdPeriph_Driver/src/stm32f4xx_crc.c **** void CRC_ResetDR(void)
  51:../Libraries/STM32F4xx_StdPeriph_Driver/src/stm32f4xx_crc.c **** {
 102              		.loc 1 51 1 view -0
 103              		.cfi_startproc
 104              		@ args = 0, pretend = 0, frame = 0
 105              		@ frame_needed = 0, uses_anonymous_args = 0
 106              		@ link register save eliminated.
  52:../Libraries/STM32F4xx_StdPeriph_Driver/src/stm32f4xx_crc.c ****   /* Reset CRC generator */
  53:../Libraries/STM32F4xx_StdPeriph_Driver/src/stm32f4xx_crc.c ****   CRC->CR = CRC_CR_RESET;
 107              		.loc 1 53 3 view .LVU1
 108              	@ ../Libraries/STM32F4xx_StdPeriph_Driver/src/stm32f4xx_crc.c:53:   CRC->CR = CRC_CR_RESET;
 109              		.loc 1 53 11 is_stmt 0 view .LVU2
 110 0000 014B     		ldr	r3, .L3	@ tmp113,
 111 0002 0122     		movs	r2, #1	@ tmp114,
 112 0004 9A60     		str	r2, [r3, #8]	@ tmp114, MEM[(struct CRC_TypeDef *)1073885184B].CR
 113              	@ ../Libraries/STM32F4xx_StdPeriph_Driver/src/stm32f4xx_crc.c:54: }
  54:../Libraries/STM32F4xx_StdPeriph_Driver/src/stm32f4xx_crc.c **** }
 114              		.loc 1 54 1 view .LVU3
 115 0006 7047     		bx	lr	@
 116              	.L4:
 117              		.align	2
ARM GAS  C:\Users\admin\AppData\Local\Temp\ccRLZzIJ.s 			page 4


 118              	.L3:
 119 0008 00300240 		.word	1073885184
 120              		.cfi_endproc
 121              	.LFE110:
 122              		.size	CRC_ResetDR, .-CRC_ResetDR
 123              		.section	.text.CRC_CalcCRC,"ax",%progbits
 124              		.align	1
 125              		.p2align 2,,3
 126              		.global	CRC_CalcCRC
 127              		.syntax unified
 128              		.thumb
 129              		.thumb_func
 130              		.type	CRC_CalcCRC, %function
 131              	CRC_CalcCRC:
 132              	.LVL0:
 133              	.LFB111:
  55:../Libraries/STM32F4xx_StdPeriph_Driver/src/stm32f4xx_crc.c **** 
  56:../Libraries/STM32F4xx_StdPeriph_Driver/src/stm32f4xx_crc.c **** /**
  57:../Libraries/STM32F4xx_StdPeriph_Driver/src/stm32f4xx_crc.c ****   * @brief  Computes the 32-bit CRC of a given data word(32-bit).
  58:../Libraries/STM32F4xx_StdPeriph_Driver/src/stm32f4xx_crc.c ****   * @param  Data: data word(32-bit) to compute its CRC
  59:../Libraries/STM32F4xx_StdPeriph_Driver/src/stm32f4xx_crc.c ****   * @retval 32-bit CRC
  60:../Libraries/STM32F4xx_StdPeriph_Driver/src/stm32f4xx_crc.c ****   */
  61:../Libraries/STM32F4xx_StdPeriph_Driver/src/stm32f4xx_crc.c **** uint32_t CRC_CalcCRC(uint32_t Data)
  62:../Libraries/STM32F4xx_StdPeriph_Driver/src/stm32f4xx_crc.c **** {
 134              		.loc 1 62 1 is_stmt 1 view -0
 135              		.cfi_startproc
 136              		@ args = 0, pretend = 0, frame = 0
 137              		@ frame_needed = 0, uses_anonymous_args = 0
 138              		@ link register save eliminated.
  63:../Libraries/STM32F4xx_StdPeriph_Driver/src/stm32f4xx_crc.c ****   CRC->DR = Data;
 139              		.loc 1 63 3 view .LVU5
 140              	@ ../Libraries/STM32F4xx_StdPeriph_Driver/src/stm32f4xx_crc.c:63:   CRC->DR = Data;
 141              		.loc 1 63 11 is_stmt 0 view .LVU6
 142 0000 014B     		ldr	r3, .L6	@ tmp115,
 143 0002 1860     		str	r0, [r3]	@ Data, MEM[(struct CRC_TypeDef *)1073885184B].DR
  64:../Libraries/STM32F4xx_StdPeriph_Driver/src/stm32f4xx_crc.c ****   
  65:../Libraries/STM32F4xx_StdPeriph_Driver/src/stm32f4xx_crc.c ****   return (CRC->DR);
 144              		.loc 1 65 3 is_stmt 1 view .LVU7
 145              	@ ../Libraries/STM32F4xx_StdPeriph_Driver/src/stm32f4xx_crc.c:65:   return (CRC->DR);
 146              		.loc 1 65 14 is_stmt 0 view .LVU8
 147 0004 1868     		ldr	r0, [r3]	@ <retval>, MEM[(struct CRC_TypeDef *)1073885184B].DR
 148              	.LVL1:
 149              	@ ../Libraries/STM32F4xx_StdPeriph_Driver/src/stm32f4xx_crc.c:66: }
  66:../Libraries/STM32F4xx_StdPeriph_Driver/src/stm32f4xx_crc.c **** }
 150              		.loc 1 66 1 view .LVU9
 151 0006 7047     		bx	lr	@
 152              	.L7:
 153              		.align	2
 154              	.L6:
 155 0008 00300240 		.word	1073885184
 156              		.cfi_endproc
 157              	.LFE111:
 158              		.size	CRC_CalcCRC, .-CRC_CalcCRC
 159              		.section	.text.CRC_CalcBlockCRC,"ax",%progbits
 160              		.align	1
 161              		.p2align 2,,3
 162              		.global	CRC_CalcBlockCRC
ARM GAS  C:\Users\admin\AppData\Local\Temp\ccRLZzIJ.s 			page 5


 163              		.syntax unified
 164              		.thumb
 165              		.thumb_func
 166              		.type	CRC_CalcBlockCRC, %function
 167              	CRC_CalcBlockCRC:
 168              	.LVL2:
 169              	.LFB112:
  67:../Libraries/STM32F4xx_StdPeriph_Driver/src/stm32f4xx_crc.c **** 
  68:../Libraries/STM32F4xx_StdPeriph_Driver/src/stm32f4xx_crc.c **** /**
  69:../Libraries/STM32F4xx_StdPeriph_Driver/src/stm32f4xx_crc.c ****   * @brief  Computes the 32-bit CRC of a given buffer of data word(32-bit).
  70:../Libraries/STM32F4xx_StdPeriph_Driver/src/stm32f4xx_crc.c ****   * @param  pBuffer: pointer to the buffer containing the data to be computed
  71:../Libraries/STM32F4xx_StdPeriph_Driver/src/stm32f4xx_crc.c ****   * @param  BufferLength: length of the buffer to be computed					
  72:../Libraries/STM32F4xx_StdPeriph_Driver/src/stm32f4xx_crc.c ****   * @retval 32-bit CRC
  73:../Libraries/STM32F4xx_StdPeriph_Driver/src/stm32f4xx_crc.c ****   */
  74:../Libraries/STM32F4xx_StdPeriph_Driver/src/stm32f4xx_crc.c **** uint32_t CRC_CalcBlockCRC(uint32_t pBuffer[], uint32_t BufferLength)
  75:../Libraries/STM32F4xx_StdPeriph_Driver/src/stm32f4xx_crc.c **** {
 170              		.loc 1 75 1 is_stmt 1 view -0
 171              		.cfi_startproc
 172              		@ args = 0, pretend = 0, frame = 0
 173              		@ frame_needed = 0, uses_anonymous_args = 0
 174              		@ link register save eliminated.
  76:../Libraries/STM32F4xx_StdPeriph_Driver/src/stm32f4xx_crc.c ****   uint32_t index = 0;
 175              		.loc 1 76 3 view .LVU11
  77:../Libraries/STM32F4xx_StdPeriph_Driver/src/stm32f4xx_crc.c ****   
  78:../Libraries/STM32F4xx_StdPeriph_Driver/src/stm32f4xx_crc.c ****   for(index = 0; index < BufferLength; index++)
 176              		.loc 1 78 3 view .LVU12
 177              		.loc 1 78 18 view .LVU13
 178              	@ ../Libraries/STM32F4xx_StdPeriph_Driver/src/stm32f4xx_crc.c:78:   for(index = 0; index < BufferLe
 179              		.loc 1 78 3 is_stmt 0 view .LVU14
 180 0000 41B1     		cbz	r1, .L9	@ BufferLength,
 181 0002 0438     		subs	r0, r0, #4	@ ivtmp.18, pBuffer,
 182              	.LVL3:
 183              	@ ../Libraries/STM32F4xx_StdPeriph_Driver/src/stm32f4xx_crc.c:80:     CRC->DR = pBuffer[index];
  79:../Libraries/STM32F4xx_StdPeriph_Driver/src/stm32f4xx_crc.c ****   {
  80:../Libraries/STM32F4xx_StdPeriph_Driver/src/stm32f4xx_crc.c ****     CRC->DR = pBuffer[index];
 184              		.loc 1 80 13 view .LVU15
 185 0004 054A     		ldr	r2, .L15	@ tmp126,
 186 0006 00EB8101 		add	r1, r0, r1, lsl #2	@ _21, ivtmp.18, BufferLength,
 187              	.LVL4:
 188              	.L10:
 189              		.loc 1 80 5 is_stmt 1 discriminator 3 view .LVU16
 190              	@ ../Libraries/STM32F4xx_StdPeriph_Driver/src/stm32f4xx_crc.c:80:     CRC->DR = pBuffer[index];
 191              		.loc 1 80 22 is_stmt 0 discriminator 3 view .LVU17
 192 000a 50F8043F 		ldr	r3, [r0, #4]!	@ _3, MEM[base: _13, offset: 0B]
 193              	@ ../Libraries/STM32F4xx_StdPeriph_Driver/src/stm32f4xx_crc.c:80:     CRC->DR = pBuffer[index];
 194              		.loc 1 80 13 discriminator 3 view .LVU18
 195 000e 1360     		str	r3, [r2]	@ _3, MEM[(struct CRC_TypeDef *)1073885184B].DR
  78:../Libraries/STM32F4xx_StdPeriph_Driver/src/stm32f4xx_crc.c ****   {
 196              		.loc 1 78 40 is_stmt 1 discriminator 3 view .LVU19
  78:../Libraries/STM32F4xx_StdPeriph_Driver/src/stm32f4xx_crc.c ****   {
 197              		.loc 1 78 18 discriminator 3 view .LVU20
 198              	@ ../Libraries/STM32F4xx_StdPeriph_Driver/src/stm32f4xx_crc.c:78:   for(index = 0; index < BufferLe
  78:../Libraries/STM32F4xx_StdPeriph_Driver/src/stm32f4xx_crc.c ****   {
 199              		.loc 1 78 3 is_stmt 0 discriminator 3 view .LVU21
 200 0010 8842     		cmp	r0, r1	@ ivtmp.18, _21
 201 0012 FAD1     		bne	.L10		@,
 202              	.L9:
ARM GAS  C:\Users\admin\AppData\Local\Temp\ccRLZzIJ.s 			page 6


  81:../Libraries/STM32F4xx_StdPeriph_Driver/src/stm32f4xx_crc.c ****   }
  82:../Libraries/STM32F4xx_StdPeriph_Driver/src/stm32f4xx_crc.c ****   return (CRC->DR);
 203              		.loc 1 82 3 is_stmt 1 view .LVU22
 204              	@ ../Libraries/STM32F4xx_StdPeriph_Driver/src/stm32f4xx_crc.c:82:   return (CRC->DR);
 205              		.loc 1 82 14 is_stmt 0 view .LVU23
 206 0014 014B     		ldr	r3, .L15	@ tmp127,
 207 0016 1868     		ldr	r0, [r3]	@ <retval>, MEM[(struct CRC_TypeDef *)1073885184B].DR
 208              	@ ../Libraries/STM32F4xx_StdPeriph_Driver/src/stm32f4xx_crc.c:83: }
  83:../Libraries/STM32F4xx_StdPeriph_Driver/src/stm32f4xx_crc.c **** }
 209              		.loc 1 83 1 view .LVU24
 210 0018 7047     		bx	lr	@
 211              	.L16:
 212 001a 00BF     		.align	2
 213              	.L15:
 214 001c 00300240 		.word	1073885184
 215              		.cfi_endproc
 216              	.LFE112:
 217              		.size	CRC_CalcBlockCRC, .-CRC_CalcBlockCRC
 218              		.section	.text.CRC_GetCRC,"ax",%progbits
 219              		.align	1
 220              		.p2align 2,,3
 221              		.global	CRC_GetCRC
 222              		.syntax unified
 223              		.thumb
 224              		.thumb_func
 225              		.type	CRC_GetCRC, %function
 226              	CRC_GetCRC:
 227              	.LFB113:
  84:../Libraries/STM32F4xx_StdPeriph_Driver/src/stm32f4xx_crc.c **** 
  85:../Libraries/STM32F4xx_StdPeriph_Driver/src/stm32f4xx_crc.c **** /**
  86:../Libraries/STM32F4xx_StdPeriph_Driver/src/stm32f4xx_crc.c ****   * @brief  Returns the current CRC value.
  87:../Libraries/STM32F4xx_StdPeriph_Driver/src/stm32f4xx_crc.c ****   * @param  None
  88:../Libraries/STM32F4xx_StdPeriph_Driver/src/stm32f4xx_crc.c ****   * @retval 32-bit CRC
  89:../Libraries/STM32F4xx_StdPeriph_Driver/src/stm32f4xx_crc.c ****   */
  90:../Libraries/STM32F4xx_StdPeriph_Driver/src/stm32f4xx_crc.c **** uint32_t CRC_GetCRC(void)
  91:../Libraries/STM32F4xx_StdPeriph_Driver/src/stm32f4xx_crc.c **** {
 228              		.loc 1 91 1 is_stmt 1 view -0
 229              		.cfi_startproc
 230              		@ args = 0, pretend = 0, frame = 0
 231              		@ frame_needed = 0, uses_anonymous_args = 0
 232              		@ link register save eliminated.
  92:../Libraries/STM32F4xx_StdPeriph_Driver/src/stm32f4xx_crc.c ****   return (CRC->DR);
 233              		.loc 1 92 3 view .LVU26
 234              	@ ../Libraries/STM32F4xx_StdPeriph_Driver/src/stm32f4xx_crc.c:92:   return (CRC->DR);
 235              		.loc 1 92 14 is_stmt 0 view .LVU27
 236 0000 014B     		ldr	r3, .L18	@ tmp114,
 237 0002 1868     		ldr	r0, [r3]	@ <retval>, MEM[(struct CRC_TypeDef *)1073885184B].DR
 238              	@ ../Libraries/STM32F4xx_StdPeriph_Driver/src/stm32f4xx_crc.c:93: }
  93:../Libraries/STM32F4xx_StdPeriph_Driver/src/stm32f4xx_crc.c **** }
 239              		.loc 1 93 1 view .LVU28
 240 0004 7047     		bx	lr	@
 241              	.L19:
 242 0006 00BF     		.align	2
 243              	.L18:
 244 0008 00300240 		.word	1073885184
 245              		.cfi_endproc
 246              	.LFE113:
ARM GAS  C:\Users\admin\AppData\Local\Temp\ccRLZzIJ.s 			page 7


 247              		.size	CRC_GetCRC, .-CRC_GetCRC
 248              		.section	.text.CRC_SetIDRegister,"ax",%progbits
 249              		.align	1
 250              		.p2align 2,,3
 251              		.global	CRC_SetIDRegister
 252              		.syntax unified
 253              		.thumb
 254              		.thumb_func
 255              		.type	CRC_SetIDRegister, %function
 256              	CRC_SetIDRegister:
 257              	.LVL5:
 258              	.LFB114:
  94:../Libraries/STM32F4xx_StdPeriph_Driver/src/stm32f4xx_crc.c **** 
  95:../Libraries/STM32F4xx_StdPeriph_Driver/src/stm32f4xx_crc.c **** /**
  96:../Libraries/STM32F4xx_StdPeriph_Driver/src/stm32f4xx_crc.c ****   * @brief  Stores a 8-bit data in the Independent Data(ID) register.
  97:../Libraries/STM32F4xx_StdPeriph_Driver/src/stm32f4xx_crc.c ****   * @param  IDValue: 8-bit value to be stored in the ID register 					
  98:../Libraries/STM32F4xx_StdPeriph_Driver/src/stm32f4xx_crc.c ****   * @retval None
  99:../Libraries/STM32F4xx_StdPeriph_Driver/src/stm32f4xx_crc.c ****   */
 100:../Libraries/STM32F4xx_StdPeriph_Driver/src/stm32f4xx_crc.c **** void CRC_SetIDRegister(uint8_t IDValue)
 101:../Libraries/STM32F4xx_StdPeriph_Driver/src/stm32f4xx_crc.c **** {
 259              		.loc 1 101 1 is_stmt 1 view -0
 260              		.cfi_startproc
 261              		@ args = 0, pretend = 0, frame = 0
 262              		@ frame_needed = 0, uses_anonymous_args = 0
 263              		@ link register save eliminated.
 102:../Libraries/STM32F4xx_StdPeriph_Driver/src/stm32f4xx_crc.c ****   CRC->IDR = IDValue;
 264              		.loc 1 102 3 view .LVU30
 265              	@ ../Libraries/STM32F4xx_StdPeriph_Driver/src/stm32f4xx_crc.c:102:   CRC->IDR = IDValue;
 266              		.loc 1 102 12 is_stmt 0 view .LVU31
 267 0000 014B     		ldr	r3, .L21	@ tmp114,
 268 0002 1871     		strb	r0, [r3, #4]	@ IDValue, MEM[(struct CRC_TypeDef *)1073885184B].IDR
 269              	@ ../Libraries/STM32F4xx_StdPeriph_Driver/src/stm32f4xx_crc.c:103: }
 103:../Libraries/STM32F4xx_StdPeriph_Driver/src/stm32f4xx_crc.c **** }
 270              		.loc 1 103 1 view .LVU32
 271 0004 7047     		bx	lr	@
 272              	.L22:
 273 0006 00BF     		.align	2
 274              	.L21:
 275 0008 00300240 		.word	1073885184
 276              		.cfi_endproc
 277              	.LFE114:
 278              		.size	CRC_SetIDRegister, .-CRC_SetIDRegister
 279              		.section	.text.CRC_GetIDRegister,"ax",%progbits
 280              		.align	1
 281              		.p2align 2,,3
 282              		.global	CRC_GetIDRegister
 283              		.syntax unified
 284              		.thumb
 285              		.thumb_func
 286              		.type	CRC_GetIDRegister, %function
 287              	CRC_GetIDRegister:
 288              	.LFB115:
 104:../Libraries/STM32F4xx_StdPeriph_Driver/src/stm32f4xx_crc.c **** 
 105:../Libraries/STM32F4xx_StdPeriph_Driver/src/stm32f4xx_crc.c **** /**
 106:../Libraries/STM32F4xx_StdPeriph_Driver/src/stm32f4xx_crc.c ****   * @brief  Returns the 8-bit data stored in the Independent Data(ID) register
 107:../Libraries/STM32F4xx_StdPeriph_Driver/src/stm32f4xx_crc.c ****   * @param  None
 108:../Libraries/STM32F4xx_StdPeriph_Driver/src/stm32f4xx_crc.c ****   * @retval 8-bit value of the ID register 
ARM GAS  C:\Users\admin\AppData\Local\Temp\ccRLZzIJ.s 			page 8


 109:../Libraries/STM32F4xx_StdPeriph_Driver/src/stm32f4xx_crc.c ****   */
 110:../Libraries/STM32F4xx_StdPeriph_Driver/src/stm32f4xx_crc.c **** uint8_t CRC_GetIDRegister(void)
 111:../Libraries/STM32F4xx_StdPeriph_Driver/src/stm32f4xx_crc.c **** {
 289              		.loc 1 111 1 is_stmt 1 view -0
 290              		.cfi_startproc
 291              		@ args = 0, pretend = 0, frame = 0
 292              		@ frame_needed = 0, uses_anonymous_args = 0
 293              		@ link register save eliminated.
 112:../Libraries/STM32F4xx_StdPeriph_Driver/src/stm32f4xx_crc.c ****   return (CRC->IDR);
 294              		.loc 1 112 3 view .LVU34
 295              	@ ../Libraries/STM32F4xx_StdPeriph_Driver/src/stm32f4xx_crc.c:112:   return (CRC->IDR);
 296              		.loc 1 112 14 is_stmt 0 view .LVU35
 297 0000 014B     		ldr	r3, .L24	@ tmp114,
 298 0002 1879     		ldrb	r0, [r3, #4]	@ zero_extendqisi2	@ MEM[(struct CRC_TypeDef *)1073885184B].IDR, MEM[(struct CRC
 299              	@ ../Libraries/STM32F4xx_StdPeriph_Driver/src/stm32f4xx_crc.c:113: }
 113:../Libraries/STM32F4xx_StdPeriph_Driver/src/stm32f4xx_crc.c **** }
 300              		.loc 1 113 1 view .LVU36
 301 0004 7047     		bx	lr	@
 302              	.L25:
 303 0006 00BF     		.align	2
 304              	.L24:
 305 0008 00300240 		.word	1073885184
 306              		.cfi_endproc
 307              	.LFE115:
 308              		.size	CRC_GetIDRegister, .-CRC_GetIDRegister
 309              		.text
 310              	.Letext0:
 311              		.file 2 "c:\\program files (x86)\\gnu arm embedded toolchain\\10 2021.10\\arm-none-eabi\\include\\
 312              		.file 3 "c:\\program files (x86)\\gnu arm embedded toolchain\\10 2021.10\\arm-none-eabi\\include\\
 313              		.file 4 "../Libraries/CMSIS/ST/STM32F4xx/Include/stm32f4xx.h"