ARM GAS  C:\Users\admin\AppData\Local\Temp\ccyr4W1e.s 			page 1


   1              		.cpu cortex-m4
   2              		.arch armv7e-m
   3              		.fpu fpv4-sp-d16
   4              		.eabi_attribute 27, 1	@ Tag_ABI_HardFP_use
   5              		.eabi_attribute 28, 1	@ Tag_ABI_VFP_args
   6              		.eabi_attribute 23, 1	@ Tag_ABI_FP_number_model
   7              		.eabi_attribute 24, 1	@ Tag_ABI_align8_needed
   8              		.eabi_attribute 25, 1	@ Tag_ABI_align8_preserved
   9              		.eabi_attribute 26, 1	@ Tag_ABI_enum_size
  10              		.eabi_attribute 30, 2	@ Tag_ABI_optimization_goals
  11              		.eabi_attribute 34, 1	@ Tag_CPU_unaligned_access
  12              		.eabi_attribute 18, 4	@ Tag_ABI_PCS_wchar_t
  13              		.file	"stm32f4xx_rtc.c"
  14              	@ GNU C89 (GNU Arm Embedded Toolchain 10.3-2021.10) version 10.3.1 20210824 (release) (arm-none-eab
  15              	@	compiled by GNU C version 7.3-win32 20180312, GMP version 6.1.0, MPFR version 3.1.4, MPC version 
  16              	
  17              	@ GGC heuristics: --param ggc-min-expand=100 --param ggc-min-heapsize=131072
  18              	@ options passed:  -I . -I . -I ../Utilities/STM32F4-Discovery/
  19              	@ -I ../Libraries/STM32_USB_Device_Library/Class/audio/inc/
  20              	@ -I ../Libraries/STM32_USB_Device_Library/Core/inc/
  21              	@ -I ../Libraries/STM32_USB_OTG_Driver/inc/
  22              	@ -I ../Utilities/STM32F4-Discovery/
  23              	@ -I ../Libraries/STM32F4xx_StdPeriph_Driver/inc/
  24              	@ -I ../Utilities/STM32F4-Discovery/
  25              	@ -I ../Libraries/CMSIS/ST/STM32F4xx/Include/
  26              	@ -I ../Libraries/CMSIS/Include/ -imultilib thumb/v7e-m+fp/hard
  27              	@ -iprefix c:\program files (x86)\gnu arm embedded toolchain\10 2021.10\bin\../lib/gcc/arm-none-eab
  28              	@ -isysroot c:\program files (x86)\gnu arm embedded toolchain\10 2021.10\bin\../arm-none-eabi
  29              	@ -MD out/stm32f4xx_rtc.d -MF out/stm32f4xx_rtc.d -MP
  30              	@ -MQ out/stm32f4xx_rtc.o -D__USES_INITFINI__ -D STM32F4XX -D __VFP_FP__
  31              	@ -D USE_USB_OTG_FS
  32              	@ ../Libraries/STM32F4xx_StdPeriph_Driver/src/stm32f4xx_rtc.c
  33              	@ -mcpu=cortex-m4 -mthumb -mfloat-abi=hard -mfpu=fpv4-sp-d16
  34              	@ -mlibarch=armv7e-m+fp -march=armv7e-m+fp
  35              	@ -auxbase-strip out/stm32f4xx_rtc.o -g -ggdb3 -O3 -Wall
  36              	@ -Wstrict-prototypes -Wextra -std=gnu90 -ffast-math -ffunction-sections
  37              	@ -fdata-sections -fverbose-asm
  38              	@ options enabled:  -faggressive-loop-optimizations -falign-functions
  39              	@ -falign-jumps -falign-labels -falign-loops -fallocation-dce
  40              	@ -fassociative-math -fauto-inc-dec -fbranch-count-reg -fcaller-saves
  41              	@ -fcombine-stack-adjustments -fcompare-elim -fcprop-registers
  42              	@ -fcrossjumping -fcse-follow-jumps -fcx-limited-range -fdata-sections
  43              	@ -fdefer-pop -fdelete-null-pointer-checks -fdevirtualize
  44              	@ -fdevirtualize-speculatively -fdwarf2-cfi-asm -fearly-inlining
  45              	@ -feliminate-unused-debug-symbols -feliminate-unused-debug-types
  46              	@ -fexpensive-optimizations -ffinite-math-only -fforward-propagate
  47              	@ -ffp-int-builtin-inexact -ffunction-cse -ffunction-sections -fgcse
  48              	@ -fgcse-after-reload -fgcse-lm -fgnu-unique -fguess-branch-probability
  49              	@ -fhoist-adjacent-loads -fident -fif-conversion -fif-conversion2
  50              	@ -findirect-inlining -finline -finline-atomics -finline-functions
  51              	@ -finline-functions-called-once -finline-small-functions -fipa-bit-cp
  52              	@ -fipa-cp -fipa-cp-clone -fipa-icf -fipa-icf-functions -fipa-icf-variables
  53              	@ -fipa-profile -fipa-pure-const -fipa-ra -fipa-reference
  54              	@ -fipa-reference-addressable -fipa-sra -fipa-stack-alignment -fipa-vrp
  55              	@ -fira-hoist-pressure -fira-share-save-slots -fira-share-spill-slots
  56              	@ -fisolate-erroneous-paths-dereference -fivopts -fkeep-static-consts
  57              	@ -fleading-underscore -flifetime-dse -floop-interchange
ARM GAS  C:\Users\admin\AppData\Local\Temp\ccyr4W1e.s 			page 2


  58              	@ -floop-unroll-and-jam -flra-remat -fmerge-constants -fmerge-debug-strings
  59              	@ -fmove-loop-invariants -fomit-frame-pointer -foptimize-sibling-calls
  60              	@ -foptimize-strlen -fpartial-inlining -fpeel-loops -fpeephole -fpeephole2
  61              	@ -fplt -fpredictive-commoning -fprefetch-loop-arrays -freciprocal-math
  62              	@ -freg-struct-return -freorder-blocks -freorder-functions
  63              	@ -frerun-cse-after-loop -fsched-critical-path-heuristic
  64              	@ -fsched-dep-count-heuristic -fsched-group-heuristic -fsched-interblock
  65              	@ -fsched-last-insn-heuristic -fsched-pressure -fsched-rank-heuristic
  66              	@ -fsched-spec -fsched-spec-insn-heuristic -fsched-stalled-insns-dep
  67              	@ -fschedule-insns -fschedule-insns2 -fsection-anchors
  68              	@ -fsemantic-interposition -fshow-column -fshrink-wrap
  69              	@ -fshrink-wrap-separate -fsplit-ivs-in-unroller -fsplit-loops
  70              	@ -fsplit-paths -fsplit-wide-types -fssa-backprop -fssa-phiopt -fstdarg-opt
  71              	@ -fstore-merging -fstrict-aliasing -fstrict-volatile-bitfields
  72              	@ -fsync-libcalls -fthread-jumps -ftoplevel-reorder -ftree-bit-ccp
  73              	@ -ftree-builtin-call-dce -ftree-ccp -ftree-ch -ftree-coalesce-vars
  74              	@ -ftree-copy-prop -ftree-cselim -ftree-dce -ftree-dominator-opts
  75              	@ -ftree-dse -ftree-forwprop -ftree-fre -ftree-loop-distribute-patterns
  76              	@ -ftree-loop-distribution -ftree-loop-if-convert -ftree-loop-im
  77              	@ -ftree-loop-ivcanon -ftree-loop-optimize -ftree-loop-vectorize
  78              	@ -ftree-parallelize-loops= -ftree-partial-pre -ftree-phiprop -ftree-pre
  79              	@ -ftree-pta -ftree-reassoc -ftree-scev-cprop -ftree-sink
  80              	@ -ftree-slp-vectorize -ftree-slsr -ftree-sra -ftree-switch-conversion
  81              	@ -ftree-tail-merge -ftree-ter -ftree-vrp -funit-at-a-time
  82              	@ -funsafe-math-optimizations -funswitch-loops -fvar-tracking
  83              	@ -fvar-tracking-assignments -fverbose-asm -fversion-loops-for-strides
  84              	@ -fzero-initialized-in-bss -masm-syntax-unified -mbe32 -mlittle-endian
  85              	@ -mpic-data-is-text-relative -msched-prolog -mthumb -munaligned-access
  86              	@ -mvectorize-with-neon-quad
  87              	
  88              		.text
  89              	.Ltext0:
  90              		.cfi_sections	.debug_frame
  91              		.section	.text.RTC_DeInit,"ax",%progbits
  92              		.align	1
  93              		.p2align 2,,3
  94              		.global	RTC_DeInit
  95              		.syntax unified
  96              		.thumb
  97              		.thumb_func
  98              		.type	RTC_DeInit, %function
  99              	RTC_DeInit:
 100              	.LFB110:
 101              		.file 1 "../Libraries/STM32F4xx_StdPeriph_Driver/src/stm32f4xx_rtc.c"
   1:../Libraries/STM32F4xx_StdPeriph_Driver/src/stm32f4xx_rtc.c **** /**
   2:../Libraries/STM32F4xx_StdPeriph_Driver/src/stm32f4xx_rtc.c ****   ******************************************************************************
   3:../Libraries/STM32F4xx_StdPeriph_Driver/src/stm32f4xx_rtc.c ****   * @file    stm32f4xx_rtc.c
   4:../Libraries/STM32F4xx_StdPeriph_Driver/src/stm32f4xx_rtc.c ****   * @author  MCD Application Team
   5:../Libraries/STM32F4xx_StdPeriph_Driver/src/stm32f4xx_rtc.c ****   * @version V1.0.0
   6:../Libraries/STM32F4xx_StdPeriph_Driver/src/stm32f4xx_rtc.c ****   * @date    30-September-2011
   7:../Libraries/STM32F4xx_StdPeriph_Driver/src/stm32f4xx_rtc.c ****   * @brief   This file provides firmware functions to manage the following 
   8:../Libraries/STM32F4xx_StdPeriph_Driver/src/stm32f4xx_rtc.c ****   *          functionalities of the Real-Time Clock (RTC) peripheral:
   9:../Libraries/STM32F4xx_StdPeriph_Driver/src/stm32f4xx_rtc.c ****   *           - Initialization
  10:../Libraries/STM32F4xx_StdPeriph_Driver/src/stm32f4xx_rtc.c ****   *           - Calendar (Time and Date) configuration
  11:../Libraries/STM32F4xx_StdPeriph_Driver/src/stm32f4xx_rtc.c ****   *           - Alarms (Alarm A and Alarm B) configuration
  12:../Libraries/STM32F4xx_StdPeriph_Driver/src/stm32f4xx_rtc.c ****   *           - WakeUp Timer configuration
  13:../Libraries/STM32F4xx_StdPeriph_Driver/src/stm32f4xx_rtc.c ****   *           - Daylight Saving configuration
ARM GAS  C:\Users\admin\AppData\Local\Temp\ccyr4W1e.s 			page 3


  14:../Libraries/STM32F4xx_StdPeriph_Driver/src/stm32f4xx_rtc.c ****   *           - Output pin Configuration
  15:../Libraries/STM32F4xx_StdPeriph_Driver/src/stm32f4xx_rtc.c ****   *           - Coarse digital Calibration configuration
  16:../Libraries/STM32F4xx_StdPeriph_Driver/src/stm32f4xx_rtc.c ****   *           - Smooth digital Calibration configuration
  17:../Libraries/STM32F4xx_StdPeriph_Driver/src/stm32f4xx_rtc.c ****   *           - TimeStamp configuration
  18:../Libraries/STM32F4xx_StdPeriph_Driver/src/stm32f4xx_rtc.c ****   *           - Tampers configuration
  19:../Libraries/STM32F4xx_StdPeriph_Driver/src/stm32f4xx_rtc.c ****   *           - Backup Data Registers configuration
  20:../Libraries/STM32F4xx_StdPeriph_Driver/src/stm32f4xx_rtc.c ****   *           - Shift control synchronisation    
  21:../Libraries/STM32F4xx_StdPeriph_Driver/src/stm32f4xx_rtc.c ****   *           - RTC Tamper and TimeStamp Pins Selection and Output Type Config configuration
  22:../Libraries/STM32F4xx_StdPeriph_Driver/src/stm32f4xx_rtc.c ****   *           - Interrupts and flags management
  23:../Libraries/STM32F4xx_StdPeriph_Driver/src/stm32f4xx_rtc.c ****   *
  24:../Libraries/STM32F4xx_StdPeriph_Driver/src/stm32f4xx_rtc.c ****   *  @verbatim
  25:../Libraries/STM32F4xx_StdPeriph_Driver/src/stm32f4xx_rtc.c ****   *
  26:../Libraries/STM32F4xx_StdPeriph_Driver/src/stm32f4xx_rtc.c ****   *          ===================================================================
  27:../Libraries/STM32F4xx_StdPeriph_Driver/src/stm32f4xx_rtc.c ****   *                               Backup Domain Operating Condition
  28:../Libraries/STM32F4xx_StdPeriph_Driver/src/stm32f4xx_rtc.c ****   *          ===================================================================
  29:../Libraries/STM32F4xx_StdPeriph_Driver/src/stm32f4xx_rtc.c ****   *          The real-time clock (RTC), the RTC backup registers, and the backup 
  30:../Libraries/STM32F4xx_StdPeriph_Driver/src/stm32f4xx_rtc.c ****   *          SRAM (BKP SRAM) can be powered from the VBAT voltage when the main 
  31:../Libraries/STM32F4xx_StdPeriph_Driver/src/stm32f4xx_rtc.c ****   *          VDD supply is powered off.
  32:../Libraries/STM32F4xx_StdPeriph_Driver/src/stm32f4xx_rtc.c ****   *          To retain the content of the RTC backup registers, backup SRAM, 
  33:../Libraries/STM32F4xx_StdPeriph_Driver/src/stm32f4xx_rtc.c ****   *          and supply the RTC when VDD is turned off, VBAT pin can be connected 
  34:../Libraries/STM32F4xx_StdPeriph_Driver/src/stm32f4xx_rtc.c ****   *          to an optional standby voltage supplied by a battery or by another 
  35:../Libraries/STM32F4xx_StdPeriph_Driver/src/stm32f4xx_rtc.c ****   *          source.
  36:../Libraries/STM32F4xx_StdPeriph_Driver/src/stm32f4xx_rtc.c ****   *
  37:../Libraries/STM32F4xx_StdPeriph_Driver/src/stm32f4xx_rtc.c ****   *          To allow the RTC to operate even when the main digital supply (VDD) 
  38:../Libraries/STM32F4xx_StdPeriph_Driver/src/stm32f4xx_rtc.c ****   *          is turned off, the VBAT pin powers the following blocks:
  39:../Libraries/STM32F4xx_StdPeriph_Driver/src/stm32f4xx_rtc.c ****   *            1 - The RTC
  40:../Libraries/STM32F4xx_StdPeriph_Driver/src/stm32f4xx_rtc.c ****   *            2 - The LSE oscillator
  41:../Libraries/STM32F4xx_StdPeriph_Driver/src/stm32f4xx_rtc.c ****   *            3 - The backup SRAM when the low power backup regulator is enabled
  42:../Libraries/STM32F4xx_StdPeriph_Driver/src/stm32f4xx_rtc.c ****   *            4 - PC13 to PC15 I/Os, plus PI8 I/O (when available)
  43:../Libraries/STM32F4xx_StdPeriph_Driver/src/stm32f4xx_rtc.c ****   *
  44:../Libraries/STM32F4xx_StdPeriph_Driver/src/stm32f4xx_rtc.c ****   *          When the backup domain is supplied by VDD (analog switch connected 
  45:../Libraries/STM32F4xx_StdPeriph_Driver/src/stm32f4xx_rtc.c ****   *          to VDD), the following functions are available:
  46:../Libraries/STM32F4xx_StdPeriph_Driver/src/stm32f4xx_rtc.c ****   *            1 - PC14 and PC15 can be used as either GPIO or LSE pins
  47:../Libraries/STM32F4xx_StdPeriph_Driver/src/stm32f4xx_rtc.c ****   *            2 - PC13 can be used as a GPIO or as the RTC_AF1 pin
  48:../Libraries/STM32F4xx_StdPeriph_Driver/src/stm32f4xx_rtc.c ****   *            3 - PI8 can be used as a GPIO or as the RTC_AF2 pin
  49:../Libraries/STM32F4xx_StdPeriph_Driver/src/stm32f4xx_rtc.c ****   *
  50:../Libraries/STM32F4xx_StdPeriph_Driver/src/stm32f4xx_rtc.c ****   *          When the backup domain is supplied by VBAT (analog switch connected 
  51:../Libraries/STM32F4xx_StdPeriph_Driver/src/stm32f4xx_rtc.c ****   *          to VBAT because VDD is not present), the following functions are available:
  52:../Libraries/STM32F4xx_StdPeriph_Driver/src/stm32f4xx_rtc.c ****   *            1 - PC14 and PC15 can be used as LSE pins only
  53:../Libraries/STM32F4xx_StdPeriph_Driver/src/stm32f4xx_rtc.c ****   *            2 - PC13 can be used as the RTC_AF1 pin 
  54:../Libraries/STM32F4xx_StdPeriph_Driver/src/stm32f4xx_rtc.c ****   *            3 - PI8 can be used as the RTC_AF2 pin
  55:../Libraries/STM32F4xx_StdPeriph_Driver/src/stm32f4xx_rtc.c ****   *
  56:../Libraries/STM32F4xx_StdPeriph_Driver/src/stm32f4xx_rtc.c ****   *          ===================================================================
  57:../Libraries/STM32F4xx_StdPeriph_Driver/src/stm32f4xx_rtc.c ****   *                                    Backup Domain Reset
  58:../Libraries/STM32F4xx_StdPeriph_Driver/src/stm32f4xx_rtc.c ****   *          ===================================================================
  59:../Libraries/STM32F4xx_StdPeriph_Driver/src/stm32f4xx_rtc.c ****   *          The backup domain reset sets all RTC registers and the RCC_BDCR 
  60:../Libraries/STM32F4xx_StdPeriph_Driver/src/stm32f4xx_rtc.c ****   *          register to their reset values. The BKPSRAM is not affected by this
  61:../Libraries/STM32F4xx_StdPeriph_Driver/src/stm32f4xx_rtc.c ****   *          reset. The only way of resetting the BKPSRAM is through the Flash 
  62:../Libraries/STM32F4xx_StdPeriph_Driver/src/stm32f4xx_rtc.c ****   *          interface by requesting a protection level change from 1 to 0.
  63:../Libraries/STM32F4xx_StdPeriph_Driver/src/stm32f4xx_rtc.c ****   *          A backup domain reset is generated when one of the following events
  64:../Libraries/STM32F4xx_StdPeriph_Driver/src/stm32f4xx_rtc.c ****   *          occurs:
  65:../Libraries/STM32F4xx_StdPeriph_Driver/src/stm32f4xx_rtc.c ****   *            1 - Software reset, triggered by setting the BDRST bit in the 
  66:../Libraries/STM32F4xx_StdPeriph_Driver/src/stm32f4xx_rtc.c ****   *                RCC Backup domain control register (RCC_BDCR). You can use the
  67:../Libraries/STM32F4xx_StdPeriph_Driver/src/stm32f4xx_rtc.c ****   *                RCC_BackupResetCmd().
  68:../Libraries/STM32F4xx_StdPeriph_Driver/src/stm32f4xx_rtc.c ****   *            2 - VDD or VBAT power on, if both supplies have previously been
  69:../Libraries/STM32F4xx_StdPeriph_Driver/src/stm32f4xx_rtc.c ****   *                powered off.
  70:../Libraries/STM32F4xx_StdPeriph_Driver/src/stm32f4xx_rtc.c ****   *
ARM GAS  C:\Users\admin\AppData\Local\Temp\ccyr4W1e.s 			page 4


  71:../Libraries/STM32F4xx_StdPeriph_Driver/src/stm32f4xx_rtc.c ****   *          ===================================================================
  72:../Libraries/STM32F4xx_StdPeriph_Driver/src/stm32f4xx_rtc.c ****   *                                   Backup Domain Access
  73:../Libraries/STM32F4xx_StdPeriph_Driver/src/stm32f4xx_rtc.c ****   *          ===================================================================
  74:../Libraries/STM32F4xx_StdPeriph_Driver/src/stm32f4xx_rtc.c ****   *          After reset, the backup domain (RTC registers, RTC backup data 
  75:../Libraries/STM32F4xx_StdPeriph_Driver/src/stm32f4xx_rtc.c ****   *          registers and backup SRAM) is protected against possible unwanted 
  76:../Libraries/STM32F4xx_StdPeriph_Driver/src/stm32f4xx_rtc.c ****   *          write accesses. 
  77:../Libraries/STM32F4xx_StdPeriph_Driver/src/stm32f4xx_rtc.c ****   *          To enable access to the RTC Domain and RTC registers, proceed as follows:
  78:../Libraries/STM32F4xx_StdPeriph_Driver/src/stm32f4xx_rtc.c ****   *            - Enable the Power Controller (PWR) APB1 interface clock using the
  79:../Libraries/STM32F4xx_StdPeriph_Driver/src/stm32f4xx_rtc.c ****   *              RCC_APB1PeriphClockCmd() function.
  80:../Libraries/STM32F4xx_StdPeriph_Driver/src/stm32f4xx_rtc.c ****   *            - Enable access to RTC domain using the PWR_BackupAccessCmd() function.
  81:../Libraries/STM32F4xx_StdPeriph_Driver/src/stm32f4xx_rtc.c ****   *            - Select the RTC clock source using the RCC_RTCCLKConfig() function.
  82:../Libraries/STM32F4xx_StdPeriph_Driver/src/stm32f4xx_rtc.c ****   *            - Enable RTC Clock using the RCC_RTCCLKCmd() function.
  83:../Libraries/STM32F4xx_StdPeriph_Driver/src/stm32f4xx_rtc.c ****   *
  84:../Libraries/STM32F4xx_StdPeriph_Driver/src/stm32f4xx_rtc.c ****   *          ===================================================================
  85:../Libraries/STM32F4xx_StdPeriph_Driver/src/stm32f4xx_rtc.c ****   *                                   RTC Driver: how to use it
  86:../Libraries/STM32F4xx_StdPeriph_Driver/src/stm32f4xx_rtc.c ****   *          ===================================================================
  87:../Libraries/STM32F4xx_StdPeriph_Driver/src/stm32f4xx_rtc.c ****   *            - Enable the RTC domain access (see description in the section above)
  88:../Libraries/STM32F4xx_StdPeriph_Driver/src/stm32f4xx_rtc.c ****   *            - Configure the RTC Prescaler (Asynchronous and Synchronous) and
  89:../Libraries/STM32F4xx_StdPeriph_Driver/src/stm32f4xx_rtc.c ****   *              RTC hour format using the RTC_Init() function.
  90:../Libraries/STM32F4xx_StdPeriph_Driver/src/stm32f4xx_rtc.c ****   *
  91:../Libraries/STM32F4xx_StdPeriph_Driver/src/stm32f4xx_rtc.c ****   *          Time and Date configuration
  92:../Libraries/STM32F4xx_StdPeriph_Driver/src/stm32f4xx_rtc.c ****   *          ===========================
  93:../Libraries/STM32F4xx_StdPeriph_Driver/src/stm32f4xx_rtc.c ****   *            - To configure the RTC Calendar (Time and Date) use the RTC_SetTime()
  94:../Libraries/STM32F4xx_StdPeriph_Driver/src/stm32f4xx_rtc.c ****   *              and RTC_SetDate() functions.
  95:../Libraries/STM32F4xx_StdPeriph_Driver/src/stm32f4xx_rtc.c ****   *            - To read the RTC Calendar, use the RTC_GetTime() and RTC_GetDate()
  96:../Libraries/STM32F4xx_StdPeriph_Driver/src/stm32f4xx_rtc.c ****   *              functions.
  97:../Libraries/STM32F4xx_StdPeriph_Driver/src/stm32f4xx_rtc.c ****   *            - Use the RTC_DayLightSavingConfig() function to add or sub one
  98:../Libraries/STM32F4xx_StdPeriph_Driver/src/stm32f4xx_rtc.c ****   *              hour to the RTC Calendar.    
  99:../Libraries/STM32F4xx_StdPeriph_Driver/src/stm32f4xx_rtc.c ****   *
 100:../Libraries/STM32F4xx_StdPeriph_Driver/src/stm32f4xx_rtc.c ****   *          Alarm configuration
 101:../Libraries/STM32F4xx_StdPeriph_Driver/src/stm32f4xx_rtc.c ****   *          ===================
 102:../Libraries/STM32F4xx_StdPeriph_Driver/src/stm32f4xx_rtc.c ****   *            - To configure the RTC Alarm use the RTC_SetAlarm() function.
 103:../Libraries/STM32F4xx_StdPeriph_Driver/src/stm32f4xx_rtc.c ****   *            - Enable the selected RTC Alarm using the RTC_AlarmCmd() function
 104:../Libraries/STM32F4xx_StdPeriph_Driver/src/stm32f4xx_rtc.c ****   *            - To read the RTC Alarm, use the RTC_GetAlarm() function.
 105:../Libraries/STM32F4xx_StdPeriph_Driver/src/stm32f4xx_rtc.c ****   *            - To read the RTC alarm SubSecond, use the RTC_GetAlarmSubSecond() function.
 106:../Libraries/STM32F4xx_StdPeriph_Driver/src/stm32f4xx_rtc.c ****   *
 107:../Libraries/STM32F4xx_StdPeriph_Driver/src/stm32f4xx_rtc.c ****   *          RTC Wakeup configuration
 108:../Libraries/STM32F4xx_StdPeriph_Driver/src/stm32f4xx_rtc.c ****   *          ========================
 109:../Libraries/STM32F4xx_StdPeriph_Driver/src/stm32f4xx_rtc.c ****   *            - Configure the RTC Wakeup Clock source use the RTC_WakeUpClockConfig()
 110:../Libraries/STM32F4xx_StdPeriph_Driver/src/stm32f4xx_rtc.c ****   *              function.
 111:../Libraries/STM32F4xx_StdPeriph_Driver/src/stm32f4xx_rtc.c ****   *            - Configure the RTC WakeUp Counter using the RTC_SetWakeUpCounter() 
 112:../Libraries/STM32F4xx_StdPeriph_Driver/src/stm32f4xx_rtc.c ****   *              function  
 113:../Libraries/STM32F4xx_StdPeriph_Driver/src/stm32f4xx_rtc.c ****   *            - Enable the RTC WakeUp using the RTC_WakeUpCmd() function  
 114:../Libraries/STM32F4xx_StdPeriph_Driver/src/stm32f4xx_rtc.c ****   *            - To read the RTC WakeUp Counter register, use the RTC_GetWakeUpCounter() 
 115:../Libraries/STM32F4xx_StdPeriph_Driver/src/stm32f4xx_rtc.c ****   *              function.
 116:../Libraries/STM32F4xx_StdPeriph_Driver/src/stm32f4xx_rtc.c ****   *
 117:../Libraries/STM32F4xx_StdPeriph_Driver/src/stm32f4xx_rtc.c ****   *          Outputs configuration
 118:../Libraries/STM32F4xx_StdPeriph_Driver/src/stm32f4xx_rtc.c ****   *          =====================
 119:../Libraries/STM32F4xx_StdPeriph_Driver/src/stm32f4xx_rtc.c ****   *          The RTC has 2 different outputs:
 120:../Libraries/STM32F4xx_StdPeriph_Driver/src/stm32f4xx_rtc.c ****   *            - AFO_ALARM: this output is used to manage the RTC Alarm A, Alarm B
 121:../Libraries/STM32F4xx_StdPeriph_Driver/src/stm32f4xx_rtc.c ****   *              and WaKeUp signals.          
 122:../Libraries/STM32F4xx_StdPeriph_Driver/src/stm32f4xx_rtc.c ****   *              To output the selected RTC signal on RTC_AF1 pin, use the 
 123:../Libraries/STM32F4xx_StdPeriph_Driver/src/stm32f4xx_rtc.c ****   *              RTC_OutputConfig() function.                
 124:../Libraries/STM32F4xx_StdPeriph_Driver/src/stm32f4xx_rtc.c ****   *            - AFO_CALIB: this output is 512Hz signal or 1Hz .  
 125:../Libraries/STM32F4xx_StdPeriph_Driver/src/stm32f4xx_rtc.c ****   *              To output the RTC Clock on RTC_AF1 pin, use the RTC_CalibOutputCmd()
 126:../Libraries/STM32F4xx_StdPeriph_Driver/src/stm32f4xx_rtc.c ****   *              function.
 127:../Libraries/STM32F4xx_StdPeriph_Driver/src/stm32f4xx_rtc.c ****   *
ARM GAS  C:\Users\admin\AppData\Local\Temp\ccyr4W1e.s 			page 5


 128:../Libraries/STM32F4xx_StdPeriph_Driver/src/stm32f4xx_rtc.c ****   *          Smooth digital Calibration configuration
 129:../Libraries/STM32F4xx_StdPeriph_Driver/src/stm32f4xx_rtc.c ****   *          =================================    
 130:../Libraries/STM32F4xx_StdPeriph_Driver/src/stm32f4xx_rtc.c ****   *            - Configure the RTC Original Digital Calibration Value and the corresponding
 131:../Libraries/STM32F4xx_StdPeriph_Driver/src/stm32f4xx_rtc.c ****   *              calibration cycle period (32s,16s and 8s) using the RTC_SmoothCalibConfig() 
 132:../Libraries/STM32F4xx_StdPeriph_Driver/src/stm32f4xx_rtc.c ****   *              function.
 133:../Libraries/STM32F4xx_StdPeriph_Driver/src/stm32f4xx_rtc.c ****   *
 134:../Libraries/STM32F4xx_StdPeriph_Driver/src/stm32f4xx_rtc.c ****   *          Coarse digital Calibration configuration
 135:../Libraries/STM32F4xx_StdPeriph_Driver/src/stm32f4xx_rtc.c ****   *          =================================
 136:../Libraries/STM32F4xx_StdPeriph_Driver/src/stm32f4xx_rtc.c ****   *            - Configure the RTC Coarse Calibration Value and the corresponding
 137:../Libraries/STM32F4xx_StdPeriph_Driver/src/stm32f4xx_rtc.c ****   *              sign using the RTC_CoarseCalibConfig() function.
 138:../Libraries/STM32F4xx_StdPeriph_Driver/src/stm32f4xx_rtc.c ****   *            - Enable the RTC Coarse Calibration using the RTC_CoarseCalibCmd() 
 139:../Libraries/STM32F4xx_StdPeriph_Driver/src/stm32f4xx_rtc.c ****   *              function  
 140:../Libraries/STM32F4xx_StdPeriph_Driver/src/stm32f4xx_rtc.c ****   *
 141:../Libraries/STM32F4xx_StdPeriph_Driver/src/stm32f4xx_rtc.c ****   *          TimeStamp configuration
 142:../Libraries/STM32F4xx_StdPeriph_Driver/src/stm32f4xx_rtc.c ****   *          =======================
 143:../Libraries/STM32F4xx_StdPeriph_Driver/src/stm32f4xx_rtc.c ****   *            - Configure the RTC_AF1 trigger and enables the RTC TimeStamp 
 144:../Libraries/STM32F4xx_StdPeriph_Driver/src/stm32f4xx_rtc.c ****   *              using the RTC_TimeStampCmd() function.
 145:../Libraries/STM32F4xx_StdPeriph_Driver/src/stm32f4xx_rtc.c ****   *            - To read the RTC TimeStamp Time and Date register, use the 
 146:../Libraries/STM32F4xx_StdPeriph_Driver/src/stm32f4xx_rtc.c ****   *              RTC_GetTimeStamp() function.
 147:../Libraries/STM32F4xx_StdPeriph_Driver/src/stm32f4xx_rtc.c ****   *            - To read the RTC TimeStamp SubSecond register, use the 
 148:../Libraries/STM32F4xx_StdPeriph_Driver/src/stm32f4xx_rtc.c ****   *              RTC_GetTimeStampSubSecond() function.
 149:../Libraries/STM32F4xx_StdPeriph_Driver/src/stm32f4xx_rtc.c ****   *            - The TAMPER1 alternate function can be mapped either to RTC_AF1(PC13)
 150:../Libraries/STM32F4xx_StdPeriph_Driver/src/stm32f4xx_rtc.c ****   *              or RTC_AF2 (PI8) depending on the value of TAMP1INSEL bit in 
 151:../Libraries/STM32F4xx_StdPeriph_Driver/src/stm32f4xx_rtc.c ****   *              RTC_TAFCR register. You can use the  RTC_TamperPinSelection()
 152:../Libraries/STM32F4xx_StdPeriph_Driver/src/stm32f4xx_rtc.c ****   *              function to select the corresponding pin.     
 153:../Libraries/STM32F4xx_StdPeriph_Driver/src/stm32f4xx_rtc.c ****   *
 154:../Libraries/STM32F4xx_StdPeriph_Driver/src/stm32f4xx_rtc.c ****   *          Tamper configuration
 155:../Libraries/STM32F4xx_StdPeriph_Driver/src/stm32f4xx_rtc.c ****   *          ====================
 156:../Libraries/STM32F4xx_StdPeriph_Driver/src/stm32f4xx_rtc.c ****   *            - Enable the RTC Tamper using the RTC_TamperCmd() function.
 157:../Libraries/STM32F4xx_StdPeriph_Driver/src/stm32f4xx_rtc.c ****   *             - Configure the Tamper filter count using RTC_TamperFilterConfig()
 158:../Libraries/STM32F4xx_StdPeriph_Driver/src/stm32f4xx_rtc.c ****   *              function. 
 159:../Libraries/STM32F4xx_StdPeriph_Driver/src/stm32f4xx_rtc.c ****   *            - Configure the RTC Tamper trigger Edge or Level according to the Tamper 
 160:../Libraries/STM32F4xx_StdPeriph_Driver/src/stm32f4xx_rtc.c ****   *              filter (if equal to 0 Edge else Level) value using the RTC_TamperConfig() function
 161:../Libraries/STM32F4xx_StdPeriph_Driver/src/stm32f4xx_rtc.c ****   *            - Configure the Tamper sampling frequency using RTC_TamperSamplingFreqConfig()
 162:../Libraries/STM32F4xx_StdPeriph_Driver/src/stm32f4xx_rtc.c ****   *              function.
 163:../Libraries/STM32F4xx_StdPeriph_Driver/src/stm32f4xx_rtc.c ****   *            - Configure the Tamper precharge or discharge duration using 
 164:../Libraries/STM32F4xx_StdPeriph_Driver/src/stm32f4xx_rtc.c ****   *              RTC_TamperPinsPrechargeDuration() function.
 165:../Libraries/STM32F4xx_StdPeriph_Driver/src/stm32f4xx_rtc.c ****   *            - Enable the Tamper Pull-UP using RTC_TamperPullUpDisableCmd() function.
 166:../Libraries/STM32F4xx_StdPeriph_Driver/src/stm32f4xx_rtc.c ****   *            - Enable the Time stamp on Tamper detection event using  
 167:../Libraries/STM32F4xx_StdPeriph_Driver/src/stm32f4xx_rtc.c ****   *              RTC_TSOnTamperDetecCmd() function.
 168:../Libraries/STM32F4xx_StdPeriph_Driver/src/stm32f4xx_rtc.c ****   *            - The TIMESTAMP alternate function can be mapped to either RTC_AF1 
 169:../Libraries/STM32F4xx_StdPeriph_Driver/src/stm32f4xx_rtc.c ****   *              or RTC_AF2 depending on the value of the TSINSEL bit in the 
 170:../Libraries/STM32F4xx_StdPeriph_Driver/src/stm32f4xx_rtc.c ****   *              RTC_TAFCR register. You can use the  RTC_TimeStampPinSelection()
 171:../Libraries/STM32F4xx_StdPeriph_Driver/src/stm32f4xx_rtc.c ****   *              function to select the corresponding pin. 
 172:../Libraries/STM32F4xx_StdPeriph_Driver/src/stm32f4xx_rtc.c ****   *
 173:../Libraries/STM32F4xx_StdPeriph_Driver/src/stm32f4xx_rtc.c ****   *          Backup Data Registers configuration
 174:../Libraries/STM32F4xx_StdPeriph_Driver/src/stm32f4xx_rtc.c ****   *          ===================================
 175:../Libraries/STM32F4xx_StdPeriph_Driver/src/stm32f4xx_rtc.c ****   *            - To write to the RTC Backup Data registers, use the RTC_WriteBackupRegister()
 176:../Libraries/STM32F4xx_StdPeriph_Driver/src/stm32f4xx_rtc.c ****   *              function.  
 177:../Libraries/STM32F4xx_StdPeriph_Driver/src/stm32f4xx_rtc.c ****   *            - To read the RTC Backup Data registers, use the RTC_ReadBackupRegister()
 178:../Libraries/STM32F4xx_StdPeriph_Driver/src/stm32f4xx_rtc.c ****   *              function.
 179:../Libraries/STM32F4xx_StdPeriph_Driver/src/stm32f4xx_rtc.c ****   * 
 180:../Libraries/STM32F4xx_StdPeriph_Driver/src/stm32f4xx_rtc.c ****   *          ===================================================================
 181:../Libraries/STM32F4xx_StdPeriph_Driver/src/stm32f4xx_rtc.c ****   *                                  RTC and low power modes
 182:../Libraries/STM32F4xx_StdPeriph_Driver/src/stm32f4xx_rtc.c ****   *          ===================================================================
 183:../Libraries/STM32F4xx_StdPeriph_Driver/src/stm32f4xx_rtc.c ****   *           The MCU can be woken up from a low power mode by an RTC alternate 
 184:../Libraries/STM32F4xx_StdPeriph_Driver/src/stm32f4xx_rtc.c ****   *           function.
ARM GAS  C:\Users\admin\AppData\Local\Temp\ccyr4W1e.s 			page 6


 185:../Libraries/STM32F4xx_StdPeriph_Driver/src/stm32f4xx_rtc.c ****   *           The RTC alternate functions are the RTC alarms (Alarm A and Alarm B), 
 186:../Libraries/STM32F4xx_StdPeriph_Driver/src/stm32f4xx_rtc.c ****   *           RTC wakeup, RTC tamper event detection and RTC time stamp event detection.
 187:../Libraries/STM32F4xx_StdPeriph_Driver/src/stm32f4xx_rtc.c ****   *           These RTC alternate functions can wake up the system from the Stop 
 188:../Libraries/STM32F4xx_StdPeriph_Driver/src/stm32f4xx_rtc.c ****   *           and Standby lowpower modes.
 189:../Libraries/STM32F4xx_StdPeriph_Driver/src/stm32f4xx_rtc.c ****   *           The system can also wake up from low power modes without depending 
 190:../Libraries/STM32F4xx_StdPeriph_Driver/src/stm32f4xx_rtc.c ****   *           on an external interrupt (Auto-wakeup mode), by using the RTC alarm 
 191:../Libraries/STM32F4xx_StdPeriph_Driver/src/stm32f4xx_rtc.c ****   *           or the RTC wakeup events.
 192:../Libraries/STM32F4xx_StdPeriph_Driver/src/stm32f4xx_rtc.c ****   *           The RTC provides a programmable time base for waking up from the 
 193:../Libraries/STM32F4xx_StdPeriph_Driver/src/stm32f4xx_rtc.c ****   *           Stop or Standby mode at regular intervals.
 194:../Libraries/STM32F4xx_StdPeriph_Driver/src/stm32f4xx_rtc.c ****   *           Wakeup from STOP and Standby modes is possible only when the RTC 
 195:../Libraries/STM32F4xx_StdPeriph_Driver/src/stm32f4xx_rtc.c ****   *           clock source is LSE or LSI.
 196:../Libraries/STM32F4xx_StdPeriph_Driver/src/stm32f4xx_rtc.c ****   *
 197:../Libraries/STM32F4xx_StdPeriph_Driver/src/stm32f4xx_rtc.c ****   *          ===================================================================
 198:../Libraries/STM32F4xx_StdPeriph_Driver/src/stm32f4xx_rtc.c ****   *                            Selection of RTC_AF1 alternate functions
 199:../Libraries/STM32F4xx_StdPeriph_Driver/src/stm32f4xx_rtc.c ****   *          ===================================================================
 200:../Libraries/STM32F4xx_StdPeriph_Driver/src/stm32f4xx_rtc.c ****   *          The RTC_AF1 pin (PC13) can be used for the following purposes:
 201:../Libraries/STM32F4xx_StdPeriph_Driver/src/stm32f4xx_rtc.c ****   *            - AFO_ALARM output
 202:../Libraries/STM32F4xx_StdPeriph_Driver/src/stm32f4xx_rtc.c ****   *            - AFO_CALIB output
 203:../Libraries/STM32F4xx_StdPeriph_Driver/src/stm32f4xx_rtc.c ****   *            - AFI_TAMPER
 204:../Libraries/STM32F4xx_StdPeriph_Driver/src/stm32f4xx_rtc.c ****   *            - AFI_TIMESTAMP
 205:../Libraries/STM32F4xx_StdPeriph_Driver/src/stm32f4xx_rtc.c ****   *
 206:../Libraries/STM32F4xx_StdPeriph_Driver/src/stm32f4xx_rtc.c ****   * +----------------------------------------------------------------------------------------------
 207:../Libraries/STM32F4xx_StdPeriph_Driver/src/stm32f4xx_rtc.c ****   * |     Pin         |AFO_ALARM |AFO_CALIB |AFI_TAMPER |AFI_TIMESTAMP | TAMP1INSEL |   TSINSEL    
 208:../Libraries/STM32F4xx_StdPeriph_Driver/src/stm32f4xx_rtc.c ****   * |  configuration  | ENABLED  | ENABLED  |  ENABLED  |   ENABLED    |TAMPER1 pin |TIMESTAMP pin 
 209:../Libraries/STM32F4xx_StdPeriph_Driver/src/stm32f4xx_rtc.c ****   * |  and function   |          |          |           |              | selection  |  selection   
 210:../Libraries/STM32F4xx_StdPeriph_Driver/src/stm32f4xx_rtc.c ****   * |-----------------|----------|----------|-----------|--------------|------------|--------------
 211:../Libraries/STM32F4xx_StdPeriph_Driver/src/stm32f4xx_rtc.c ****   * |   Alarm out     |          |          |           |              |    Don't   |     Don't    
 212:../Libraries/STM32F4xx_StdPeriph_Driver/src/stm32f4xx_rtc.c ****   * |   output OD     |     1    |Don't care|Don't care | Don't care   |    care    |     care     
 213:../Libraries/STM32F4xx_StdPeriph_Driver/src/stm32f4xx_rtc.c ****   * |-----------------|----------|----------|-----------|--------------|------------|--------------
 214:../Libraries/STM32F4xx_StdPeriph_Driver/src/stm32f4xx_rtc.c ****   * |   Alarm out     |          |          |           |              |    Don't   |     Don't    
 215:../Libraries/STM32F4xx_StdPeriph_Driver/src/stm32f4xx_rtc.c ****   * |   output PP     |     1    |Don't care|Don't care | Don't care   |    care    |     care     
 216:../Libraries/STM32F4xx_StdPeriph_Driver/src/stm32f4xx_rtc.c ****   * |-----------------|----------|----------|-----------|--------------|------------|--------------
 217:../Libraries/STM32F4xx_StdPeriph_Driver/src/stm32f4xx_rtc.c ****   * | Calibration out |          |          |           |              |    Don't   |     Don't    
 218:../Libraries/STM32F4xx_StdPeriph_Driver/src/stm32f4xx_rtc.c ****   * |   output PP     |     0    |    1     |Don't care | Don't care   |    care    |     care     
 219:../Libraries/STM32F4xx_StdPeriph_Driver/src/stm32f4xx_rtc.c ****   * |-----------------|----------|----------|-----------|--------------|------------|--------------
 220:../Libraries/STM32F4xx_StdPeriph_Driver/src/stm32f4xx_rtc.c ****   * |  TAMPER input   |          |          |           |              |            |     Don't    
 221:../Libraries/STM32F4xx_StdPeriph_Driver/src/stm32f4xx_rtc.c ****   * |   floating      |     0    |    0     |     1     |      0       |      0     |     care     
 222:../Libraries/STM32F4xx_StdPeriph_Driver/src/stm32f4xx_rtc.c ****   * |-----------------|----------|----------|-----------|--------------|------------|--------------
 223:../Libraries/STM32F4xx_StdPeriph_Driver/src/stm32f4xx_rtc.c ****   * |  TIMESTAMP and  |          |          |           |              |            |              
 224:../Libraries/STM32F4xx_StdPeriph_Driver/src/stm32f4xx_rtc.c ****   * |  TAMPER input   |     0    |    0     |     1     |      1       |      0     |      0       
 225:../Libraries/STM32F4xx_StdPeriph_Driver/src/stm32f4xx_rtc.c ****   * |   floating      |          |          |           |              |            |              
 226:../Libraries/STM32F4xx_StdPeriph_Driver/src/stm32f4xx_rtc.c ****   * |-----------------|----------|----------|-----------|--------------|------------|--------------
 227:../Libraries/STM32F4xx_StdPeriph_Driver/src/stm32f4xx_rtc.c ****   * | TIMESTAMP input |          |          |           |              |    Don't   |              
 228:../Libraries/STM32F4xx_StdPeriph_Driver/src/stm32f4xx_rtc.c ****   * |    floating     |     0    |    0     |     0     |      1       |    care    |      0       
 229:../Libraries/STM32F4xx_StdPeriph_Driver/src/stm32f4xx_rtc.c ****   * |-----------------|----------|----------|-----------|--------------|------------|--------------
 230:../Libraries/STM32F4xx_StdPeriph_Driver/src/stm32f4xx_rtc.c ****   * |  Standard GPIO  |     0    |    0     |     0     |      0       | Don't care |  Don't care  
 231:../Libraries/STM32F4xx_StdPeriph_Driver/src/stm32f4xx_rtc.c ****   * +----------------------------------------------------------------------------------------------
 232:../Libraries/STM32F4xx_StdPeriph_Driver/src/stm32f4xx_rtc.c ****   *
 233:../Libraries/STM32F4xx_StdPeriph_Driver/src/stm32f4xx_rtc.c ****   *
 234:../Libraries/STM32F4xx_StdPeriph_Driver/src/stm32f4xx_rtc.c ****   *          ===================================================================
 235:../Libraries/STM32F4xx_StdPeriph_Driver/src/stm32f4xx_rtc.c ****   *                            Selection of RTC_AF2 alternate functions
 236:../Libraries/STM32F4xx_StdPeriph_Driver/src/stm32f4xx_rtc.c ****   *          ===================================================================
 237:../Libraries/STM32F4xx_StdPeriph_Driver/src/stm32f4xx_rtc.c ****   *          The RTC_AF2 pin (PI8) can be used for the following purposes:
 238:../Libraries/STM32F4xx_StdPeriph_Driver/src/stm32f4xx_rtc.c ****   *            - AFI_TAMPER
 239:../Libraries/STM32F4xx_StdPeriph_Driver/src/stm32f4xx_rtc.c ****   *            - AFI_TIMESTAMP
 240:../Libraries/STM32F4xx_StdPeriph_Driver/src/stm32f4xx_rtc.c ****   *
 241:../Libraries/STM32F4xx_StdPeriph_Driver/src/stm32f4xx_rtc.c ****   * +---------------------------------------------------------------------------------------+
ARM GAS  C:\Users\admin\AppData\Local\Temp\ccyr4W1e.s 			page 7


 242:../Libraries/STM32F4xx_StdPeriph_Driver/src/stm32f4xx_rtc.c ****   * |     Pin         |AFI_TAMPER |AFI_TIMESTAMP | TAMP1INSEL |   TSINSEL    |ALARMOUTTYPE  |
 243:../Libraries/STM32F4xx_StdPeriph_Driver/src/stm32f4xx_rtc.c ****   * |  configuration  |  ENABLED  |   ENABLED    |TAMPER1 pin |TIMESTAMP pin |  AFO_ALARM   |
 244:../Libraries/STM32F4xx_StdPeriph_Driver/src/stm32f4xx_rtc.c ****   * |  and function   |           |              | selection  |  selection   |Configuration |
 245:../Libraries/STM32F4xx_StdPeriph_Driver/src/stm32f4xx_rtc.c ****   * |-----------------|-----------|--------------|------------|--------------|--------------|
 246:../Libraries/STM32F4xx_StdPeriph_Driver/src/stm32f4xx_rtc.c ****   * |  TAMPER input   |           |              |            |     Don't    |              |
 247:../Libraries/STM32F4xx_StdPeriph_Driver/src/stm32f4xx_rtc.c ****   * |   floating      |     1     |      0       |      1     |     care     |  Don't care  |
 248:../Libraries/STM32F4xx_StdPeriph_Driver/src/stm32f4xx_rtc.c ****   * |-----------------|-----------|--------------|------------|--------------|--------------|
 249:../Libraries/STM32F4xx_StdPeriph_Driver/src/stm32f4xx_rtc.c ****   * |  TIMESTAMP and  |           |              |            |              |              |
 250:../Libraries/STM32F4xx_StdPeriph_Driver/src/stm32f4xx_rtc.c ****   * |  TAMPER input   |     1     |      1       |      1     |      1       |  Don't care  |
 251:../Libraries/STM32F4xx_StdPeriph_Driver/src/stm32f4xx_rtc.c ****   * |   floating      |           |              |            |              |              |
 252:../Libraries/STM32F4xx_StdPeriph_Driver/src/stm32f4xx_rtc.c ****   * |-----------------|-----------|--------------|------------|--------------|--------------|
 253:../Libraries/STM32F4xx_StdPeriph_Driver/src/stm32f4xx_rtc.c ****   * | TIMESTAMP input |           |              |    Don't   |              |              |
 254:../Libraries/STM32F4xx_StdPeriph_Driver/src/stm32f4xx_rtc.c ****   * |    floating     |     0     |      1       |    care    |      1       |  Don't care  |
 255:../Libraries/STM32F4xx_StdPeriph_Driver/src/stm32f4xx_rtc.c ****   * |-----------------|-----------|--------------|------------|--------------|--------------|
 256:../Libraries/STM32F4xx_StdPeriph_Driver/src/stm32f4xx_rtc.c ****   * |  Standard GPIO  |     0     |      0       | Don't care |  Don't care  |  Don't care  |
 257:../Libraries/STM32F4xx_StdPeriph_Driver/src/stm32f4xx_rtc.c ****   * +---------------------------------------------------------------------------------------+
 258:../Libraries/STM32F4xx_StdPeriph_Driver/src/stm32f4xx_rtc.c ****   * 
 259:../Libraries/STM32F4xx_StdPeriph_Driver/src/stm32f4xx_rtc.c ****   *
 260:../Libraries/STM32F4xx_StdPeriph_Driver/src/stm32f4xx_rtc.c ****   *  @endverbatim
 261:../Libraries/STM32F4xx_StdPeriph_Driver/src/stm32f4xx_rtc.c ****   *
 262:../Libraries/STM32F4xx_StdPeriph_Driver/src/stm32f4xx_rtc.c ****   ******************************************************************************
 263:../Libraries/STM32F4xx_StdPeriph_Driver/src/stm32f4xx_rtc.c ****   * @attention
 264:../Libraries/STM32F4xx_StdPeriph_Driver/src/stm32f4xx_rtc.c ****   *
 265:../Libraries/STM32F4xx_StdPeriph_Driver/src/stm32f4xx_rtc.c ****   * THE PRESENT FIRMWARE WHICH IS FOR GUIDANCE ONLY AIMS AT PROVIDING CUSTOMERS
 266:../Libraries/STM32F4xx_StdPeriph_Driver/src/stm32f4xx_rtc.c ****   * WITH CODING INFORMATION REGARDING THEIR PRODUCTS IN ORDER FOR THEM TO SAVE
 267:../Libraries/STM32F4xx_StdPeriph_Driver/src/stm32f4xx_rtc.c ****   * TIME. AS A RESULT, STMICROELECTRONICS SHALL NOT BE HELD LIABLE FOR ANY
 268:../Libraries/STM32F4xx_StdPeriph_Driver/src/stm32f4xx_rtc.c ****   * DIRECT, INDIRECT OR CONSEQUENTIAL DAMAGES WITH RESPECT TO ANY CLAIMS ARISING
 269:../Libraries/STM32F4xx_StdPeriph_Driver/src/stm32f4xx_rtc.c ****   * FROM THE CONTENT OF SUCH FIRMWARE AND/OR THE USE MADE BY CUSTOMERS OF THE
 270:../Libraries/STM32F4xx_StdPeriph_Driver/src/stm32f4xx_rtc.c ****   * CODING INFORMATION CONTAINED HEREIN IN CONNECTION WITH THEIR PRODUCTS.
 271:../Libraries/STM32F4xx_StdPeriph_Driver/src/stm32f4xx_rtc.c ****   *
 272:../Libraries/STM32F4xx_StdPeriph_Driver/src/stm32f4xx_rtc.c ****   * <h2><center>&copy; COPYRIGHT 2011 STMicroelectronics</center></h2>
 273:../Libraries/STM32F4xx_StdPeriph_Driver/src/stm32f4xx_rtc.c ****   ******************************************************************************
 274:../Libraries/STM32F4xx_StdPeriph_Driver/src/stm32f4xx_rtc.c ****   */ 
 275:../Libraries/STM32F4xx_StdPeriph_Driver/src/stm32f4xx_rtc.c **** 
 276:../Libraries/STM32F4xx_StdPeriph_Driver/src/stm32f4xx_rtc.c **** /* Includes ------------------------------------------------------------------*/
 277:../Libraries/STM32F4xx_StdPeriph_Driver/src/stm32f4xx_rtc.c **** #include "stm32f4xx_rtc.h"
 278:../Libraries/STM32F4xx_StdPeriph_Driver/src/stm32f4xx_rtc.c **** #include "stm32f4xx_rcc.h"
 279:../Libraries/STM32F4xx_StdPeriph_Driver/src/stm32f4xx_rtc.c **** 
 280:../Libraries/STM32F4xx_StdPeriph_Driver/src/stm32f4xx_rtc.c **** /** @addtogroup STM32F4xx_StdPeriph_Driver
 281:../Libraries/STM32F4xx_StdPeriph_Driver/src/stm32f4xx_rtc.c ****   * @{
 282:../Libraries/STM32F4xx_StdPeriph_Driver/src/stm32f4xx_rtc.c ****   */
 283:../Libraries/STM32F4xx_StdPeriph_Driver/src/stm32f4xx_rtc.c **** 
 284:../Libraries/STM32F4xx_StdPeriph_Driver/src/stm32f4xx_rtc.c **** /** @defgroup RTC 
 285:../Libraries/STM32F4xx_StdPeriph_Driver/src/stm32f4xx_rtc.c ****   * @brief RTC driver modules
 286:../Libraries/STM32F4xx_StdPeriph_Driver/src/stm32f4xx_rtc.c ****   * @{
 287:../Libraries/STM32F4xx_StdPeriph_Driver/src/stm32f4xx_rtc.c ****   */
 288:../Libraries/STM32F4xx_StdPeriph_Driver/src/stm32f4xx_rtc.c **** 
 289:../Libraries/STM32F4xx_StdPeriph_Driver/src/stm32f4xx_rtc.c **** /* Private typedef -----------------------------------------------------------*/
 290:../Libraries/STM32F4xx_StdPeriph_Driver/src/stm32f4xx_rtc.c **** /* Private define ------------------------------------------------------------*/
 291:../Libraries/STM32F4xx_StdPeriph_Driver/src/stm32f4xx_rtc.c **** 
 292:../Libraries/STM32F4xx_StdPeriph_Driver/src/stm32f4xx_rtc.c **** /* Masks Definition */
 293:../Libraries/STM32F4xx_StdPeriph_Driver/src/stm32f4xx_rtc.c **** #define RTC_TR_RESERVED_MASK    ((uint32_t)0x007F7F7F)
 294:../Libraries/STM32F4xx_StdPeriph_Driver/src/stm32f4xx_rtc.c **** #define RTC_DR_RESERVED_MASK    ((uint32_t)0x00FFFF3F) 
 295:../Libraries/STM32F4xx_StdPeriph_Driver/src/stm32f4xx_rtc.c **** #define RTC_INIT_MASK           ((uint32_t)0xFFFFFFFF)  
 296:../Libraries/STM32F4xx_StdPeriph_Driver/src/stm32f4xx_rtc.c **** #define RTC_RSF_MASK            ((uint32_t)0xFFFFFF5F)
 297:../Libraries/STM32F4xx_StdPeriph_Driver/src/stm32f4xx_rtc.c **** #define RTC_FLAGS_MASK          ((uint32_t)(RTC_FLAG_TSOVF | RTC_FLAG_TSF | RTC_FLAG_WUTF | \
 298:../Libraries/STM32F4xx_StdPeriph_Driver/src/stm32f4xx_rtc.c ****                                             RTC_FLAG_ALRBF | RTC_FLAG_ALRAF | RTC_FLAG_INITF | \
ARM GAS  C:\Users\admin\AppData\Local\Temp\ccyr4W1e.s 			page 8


 299:../Libraries/STM32F4xx_StdPeriph_Driver/src/stm32f4xx_rtc.c ****                                             RTC_FLAG_RSF | RTC_FLAG_INITS | RTC_FLAG_WUTWF | \
 300:../Libraries/STM32F4xx_StdPeriph_Driver/src/stm32f4xx_rtc.c ****                                             RTC_FLAG_ALRBWF | RTC_FLAG_ALRAWF | RTC_FLAG_TAMP1F ))
 301:../Libraries/STM32F4xx_StdPeriph_Driver/src/stm32f4xx_rtc.c **** 
 302:../Libraries/STM32F4xx_StdPeriph_Driver/src/stm32f4xx_rtc.c **** #define INITMODE_TIMEOUT         ((uint32_t) 0x00010000)
 303:../Libraries/STM32F4xx_StdPeriph_Driver/src/stm32f4xx_rtc.c **** #define SYNCHRO_TIMEOUT          ((uint32_t) 0x00020000)
 304:../Libraries/STM32F4xx_StdPeriph_Driver/src/stm32f4xx_rtc.c **** #define RECALPF_TIMEOUT          ((uint32_t) 0x00020000)
 305:../Libraries/STM32F4xx_StdPeriph_Driver/src/stm32f4xx_rtc.c **** #define SHPF_TIMEOUT             ((uint32_t) 0x00001000)
 306:../Libraries/STM32F4xx_StdPeriph_Driver/src/stm32f4xx_rtc.c **** 
 307:../Libraries/STM32F4xx_StdPeriph_Driver/src/stm32f4xx_rtc.c **** /* Private macro -------------------------------------------------------------*/
 308:../Libraries/STM32F4xx_StdPeriph_Driver/src/stm32f4xx_rtc.c **** /* Private variables ---------------------------------------------------------*/
 309:../Libraries/STM32F4xx_StdPeriph_Driver/src/stm32f4xx_rtc.c **** /* Private function prototypes -----------------------------------------------*/
 310:../Libraries/STM32F4xx_StdPeriph_Driver/src/stm32f4xx_rtc.c **** static uint8_t RTC_ByteToBcd2(uint8_t Value);
 311:../Libraries/STM32F4xx_StdPeriph_Driver/src/stm32f4xx_rtc.c **** static uint8_t RTC_Bcd2ToByte(uint8_t Value);
 312:../Libraries/STM32F4xx_StdPeriph_Driver/src/stm32f4xx_rtc.c **** 
 313:../Libraries/STM32F4xx_StdPeriph_Driver/src/stm32f4xx_rtc.c **** /* Private functions ---------------------------------------------------------*/
 314:../Libraries/STM32F4xx_StdPeriph_Driver/src/stm32f4xx_rtc.c **** 
 315:../Libraries/STM32F4xx_StdPeriph_Driver/src/stm32f4xx_rtc.c **** /** @defgroup RTC_Private_Functions
 316:../Libraries/STM32F4xx_StdPeriph_Driver/src/stm32f4xx_rtc.c ****   * @{
 317:../Libraries/STM32F4xx_StdPeriph_Driver/src/stm32f4xx_rtc.c ****   */ 
 318:../Libraries/STM32F4xx_StdPeriph_Driver/src/stm32f4xx_rtc.c **** 
 319:../Libraries/STM32F4xx_StdPeriph_Driver/src/stm32f4xx_rtc.c **** /** @defgroup RTC_Group1 Initialization and Configuration functions
 320:../Libraries/STM32F4xx_StdPeriph_Driver/src/stm32f4xx_rtc.c ****  *  @brief   Initialization and Configuration functions 
 321:../Libraries/STM32F4xx_StdPeriph_Driver/src/stm32f4xx_rtc.c ****  *
 322:../Libraries/STM32F4xx_StdPeriph_Driver/src/stm32f4xx_rtc.c **** @verbatim   
 323:../Libraries/STM32F4xx_StdPeriph_Driver/src/stm32f4xx_rtc.c ****  ===============================================================================
 324:../Libraries/STM32F4xx_StdPeriph_Driver/src/stm32f4xx_rtc.c ****                  Initialization and Configuration functions
 325:../Libraries/STM32F4xx_StdPeriph_Driver/src/stm32f4xx_rtc.c ****  ===============================================================================
 326:../Libraries/STM32F4xx_StdPeriph_Driver/src/stm32f4xx_rtc.c **** 
 327:../Libraries/STM32F4xx_StdPeriph_Driver/src/stm32f4xx_rtc.c ****   This section provide functions allowing to initialize and configure the RTC
 328:../Libraries/STM32F4xx_StdPeriph_Driver/src/stm32f4xx_rtc.c ****   Prescaler (Synchronous and Asynchronous), RTC Hour format, disable RTC registers
 329:../Libraries/STM32F4xx_StdPeriph_Driver/src/stm32f4xx_rtc.c ****   Write protection, enter and exit the RTC initialization mode, RTC registers
 330:../Libraries/STM32F4xx_StdPeriph_Driver/src/stm32f4xx_rtc.c ****   synchronization check and reference clock detection enable.
 331:../Libraries/STM32F4xx_StdPeriph_Driver/src/stm32f4xx_rtc.c ****   
 332:../Libraries/STM32F4xx_StdPeriph_Driver/src/stm32f4xx_rtc.c ****   1. The RTC Prescaler is programmed to generate the RTC 1Hz time base. It is
 333:../Libraries/STM32F4xx_StdPeriph_Driver/src/stm32f4xx_rtc.c ****      split into 2 programmable prescalers to minimize power consumption.
 334:../Libraries/STM32F4xx_StdPeriph_Driver/src/stm32f4xx_rtc.c ****      - A 7-bit asynchronous prescaler and A 13-bit synchronous prescaler.
 335:../Libraries/STM32F4xx_StdPeriph_Driver/src/stm32f4xx_rtc.c ****      - When both prescalers are used, it is recommended to configure the asynchronous
 336:../Libraries/STM32F4xx_StdPeriph_Driver/src/stm32f4xx_rtc.c ****        prescaler to a high value to minimize consumption.
 337:../Libraries/STM32F4xx_StdPeriph_Driver/src/stm32f4xx_rtc.c **** 
 338:../Libraries/STM32F4xx_StdPeriph_Driver/src/stm32f4xx_rtc.c ****   2. All RTC registers are Write protected. Writing to the RTC registers
 339:../Libraries/STM32F4xx_StdPeriph_Driver/src/stm32f4xx_rtc.c ****      is enabled by writing a key into the Write Protection register, RTC_WPR.
 340:../Libraries/STM32F4xx_StdPeriph_Driver/src/stm32f4xx_rtc.c **** 
 341:../Libraries/STM32F4xx_StdPeriph_Driver/src/stm32f4xx_rtc.c ****   3. To Configure the RTC Calendar, user application should enter initialization
 342:../Libraries/STM32F4xx_StdPeriph_Driver/src/stm32f4xx_rtc.c ****      mode. In this mode, the calendar counter is stopped and its value can be 
 343:../Libraries/STM32F4xx_StdPeriph_Driver/src/stm32f4xx_rtc.c ****      updated. When the initialization sequence is complete, the calendar restarts 
 344:../Libraries/STM32F4xx_StdPeriph_Driver/src/stm32f4xx_rtc.c ****      counting after 4 RTCCLK cycles.
 345:../Libraries/STM32F4xx_StdPeriph_Driver/src/stm32f4xx_rtc.c **** 
 346:../Libraries/STM32F4xx_StdPeriph_Driver/src/stm32f4xx_rtc.c ****   4. To read the calendar through the shadow registers after Calendar initialization,
 347:../Libraries/STM32F4xx_StdPeriph_Driver/src/stm32f4xx_rtc.c ****      calendar update or after wakeup from low power modes the software must first 
 348:../Libraries/STM32F4xx_StdPeriph_Driver/src/stm32f4xx_rtc.c ****      clear the RSF flag. The software must then wait until it is set again before 
 349:../Libraries/STM32F4xx_StdPeriph_Driver/src/stm32f4xx_rtc.c ****      reading the calendar, which means that the calendar registers have been 
 350:../Libraries/STM32F4xx_StdPeriph_Driver/src/stm32f4xx_rtc.c ****      correctly copied into the RTC_TR and RTC_DR shadow registers.
 351:../Libraries/STM32F4xx_StdPeriph_Driver/src/stm32f4xx_rtc.c ****      The RTC_WaitForSynchro() function implements the above software sequence 
 352:../Libraries/STM32F4xx_StdPeriph_Driver/src/stm32f4xx_rtc.c ****      (RSF clear and RSF check).
 353:../Libraries/STM32F4xx_StdPeriph_Driver/src/stm32f4xx_rtc.c **** 
 354:../Libraries/STM32F4xx_StdPeriph_Driver/src/stm32f4xx_rtc.c **** @endverbatim
 355:../Libraries/STM32F4xx_StdPeriph_Driver/src/stm32f4xx_rtc.c ****   * @{
ARM GAS  C:\Users\admin\AppData\Local\Temp\ccyr4W1e.s 			page 9


 356:../Libraries/STM32F4xx_StdPeriph_Driver/src/stm32f4xx_rtc.c ****   */
 357:../Libraries/STM32F4xx_StdPeriph_Driver/src/stm32f4xx_rtc.c **** 
 358:../Libraries/STM32F4xx_StdPeriph_Driver/src/stm32f4xx_rtc.c **** /**
 359:../Libraries/STM32F4xx_StdPeriph_Driver/src/stm32f4xx_rtc.c ****   * @brief  Deinitializes the RTC registers to their default reset values.
 360:../Libraries/STM32F4xx_StdPeriph_Driver/src/stm32f4xx_rtc.c ****   * @note   This function doesn't reset the RTC Clock source and RTC Backup Data
 361:../Libraries/STM32F4xx_StdPeriph_Driver/src/stm32f4xx_rtc.c ****   *         registers.       
 362:../Libraries/STM32F4xx_StdPeriph_Driver/src/stm32f4xx_rtc.c ****   * @param  None
 363:../Libraries/STM32F4xx_StdPeriph_Driver/src/stm32f4xx_rtc.c ****   * @retval An ErrorStatus enumeration value:
 364:../Libraries/STM32F4xx_StdPeriph_Driver/src/stm32f4xx_rtc.c ****   *          - SUCCESS: RTC registers are deinitialized
 365:../Libraries/STM32F4xx_StdPeriph_Driver/src/stm32f4xx_rtc.c ****   *          - ERROR: RTC registers are not deinitialized
 366:../Libraries/STM32F4xx_StdPeriph_Driver/src/stm32f4xx_rtc.c ****   */
 367:../Libraries/STM32F4xx_StdPeriph_Driver/src/stm32f4xx_rtc.c **** ErrorStatus RTC_DeInit(void)
 368:../Libraries/STM32F4xx_StdPeriph_Driver/src/stm32f4xx_rtc.c **** {
 102              		.loc 1 368 1 view -0
 103              		.cfi_startproc
 104              		@ args = 0, pretend = 0, frame = 16
 105              		@ frame_needed = 0, uses_anonymous_args = 0
 106              		@ link register save eliminated.
 369:../Libraries/STM32F4xx_StdPeriph_Driver/src/stm32f4xx_rtc.c ****   __IO uint32_t wutcounter = 0x00;
 107              		.loc 1 369 3 view .LVU1
 108              	@ ../Libraries/STM32F4xx_StdPeriph_Driver/src/stm32f4xx_rtc.c:368: {
 368:../Libraries/STM32F4xx_StdPeriph_Driver/src/stm32f4xx_rtc.c ****   __IO uint32_t wutcounter = 0x00;
 109              		.loc 1 368 1 is_stmt 0 view .LVU2
 110 0000 30B4     		push	{r4, r5}	@
 111              		.cfi_def_cfa_offset 8
 112              		.cfi_offset 4, -8
 113              		.cfi_offset 5, -4
 114              	@ ../Libraries/STM32F4xx_StdPeriph_Driver/src/stm32f4xx_rtc.c:374:   RTC->WPR = 0xCA;
 370:../Libraries/STM32F4xx_StdPeriph_Driver/src/stm32f4xx_rtc.c ****   uint32_t wutwfstatus = 0x00;
 371:../Libraries/STM32F4xx_StdPeriph_Driver/src/stm32f4xx_rtc.c ****   ErrorStatus status = ERROR;
 372:../Libraries/STM32F4xx_StdPeriph_Driver/src/stm32f4xx_rtc.c ****   
 373:../Libraries/STM32F4xx_StdPeriph_Driver/src/stm32f4xx_rtc.c ****   /* Disable the write protection for RTC registers */
 374:../Libraries/STM32F4xx_StdPeriph_Driver/src/stm32f4xx_rtc.c ****   RTC->WPR = 0xCA;
 115              		.loc 1 374 12 view .LVU3
 116 0002 3549     		ldr	r1, .L37	@ tmp143,
 117              	@ ../Libraries/STM32F4xx_StdPeriph_Driver/src/stm32f4xx_rtc.c:368: {
 368:../Libraries/STM32F4xx_StdPeriph_Driver/src/stm32f4xx_rtc.c ****   __IO uint32_t wutcounter = 0x00;
 118              		.loc 1 368 1 view .LVU4
 119 0004 84B0     		sub	sp, sp, #16	@,,
 120              		.cfi_def_cfa_offset 24
 121              	@ ../Libraries/STM32F4xx_StdPeriph_Driver/src/stm32f4xx_rtc.c:369:   __IO uint32_t wutcounter = 0x0
 369:../Libraries/STM32F4xx_StdPeriph_Driver/src/stm32f4xx_rtc.c ****   uint32_t wutwfstatus = 0x00;
 122              		.loc 1 369 17 view .LVU5
 123 0006 0023     		movs	r3, #0	@ tmp142,
 124              	@ ../Libraries/STM32F4xx_StdPeriph_Driver/src/stm32f4xx_rtc.c:374:   RTC->WPR = 0xCA;
 125              		.loc 1 374 12 view .LVU6
 126 0008 CA20     		movs	r0, #202	@ tmp144,
 127              	@ ../Libraries/STM32F4xx_StdPeriph_Driver/src/stm32f4xx_rtc.c:375:   RTC->WPR = 0x53;
 375:../Libraries/STM32F4xx_StdPeriph_Driver/src/stm32f4xx_rtc.c ****   RTC->WPR = 0x53;
 128              		.loc 1 375 12 view .LVU7
 129 000a 5322     		movs	r2, #83	@ tmp146,
 130              	@ ../Libraries/STM32F4xx_StdPeriph_Driver/src/stm32f4xx_rtc.c:369:   __IO uint32_t wutcounter = 0x0
 369:../Libraries/STM32F4xx_StdPeriph_Driver/src/stm32f4xx_rtc.c ****   uint32_t wutwfstatus = 0x00;
 131              		.loc 1 369 17 view .LVU8
 132 000c 0193     		str	r3, [sp, #4]	@ tmp142, wutcounter
 370:../Libraries/STM32F4xx_StdPeriph_Driver/src/stm32f4xx_rtc.c ****   uint32_t wutwfstatus = 0x00;
 133              		.loc 1 370 3 is_stmt 1 view .LVU9
ARM GAS  C:\Users\admin\AppData\Local\Temp\ccyr4W1e.s 			page 10


 134              	.LVL0:
 371:../Libraries/STM32F4xx_StdPeriph_Driver/src/stm32f4xx_rtc.c ****   
 135              		.loc 1 371 3 view .LVU10
 374:../Libraries/STM32F4xx_StdPeriph_Driver/src/stm32f4xx_rtc.c ****   RTC->WPR = 0x53;
 136              		.loc 1 374 3 view .LVU11
 137              	@ ../Libraries/STM32F4xx_StdPeriph_Driver/src/stm32f4xx_rtc.c:374:   RTC->WPR = 0xCA;
 374:../Libraries/STM32F4xx_StdPeriph_Driver/src/stm32f4xx_rtc.c ****   RTC->WPR = 0x53;
 138              		.loc 1 374 12 is_stmt 0 view .LVU12
 139 000e 4862     		str	r0, [r1, #36]	@ tmp144, MEM[(struct RTC_TypeDef *)1073752064B].WPR
 140              		.loc 1 375 3 is_stmt 1 view .LVU13
 141              	@ ../Libraries/STM32F4xx_StdPeriph_Driver/src/stm32f4xx_rtc.c:375:   RTC->WPR = 0x53;
 142              		.loc 1 375 12 is_stmt 0 view .LVU14
 143 0010 4A62     		str	r2, [r1, #36]	@ tmp146, MEM[(struct RTC_TypeDef *)1073752064B].WPR
 376:../Libraries/STM32F4xx_StdPeriph_Driver/src/stm32f4xx_rtc.c **** 
 377:../Libraries/STM32F4xx_StdPeriph_Driver/src/stm32f4xx_rtc.c ****   /* Set Initialization mode */
 378:../Libraries/STM32F4xx_StdPeriph_Driver/src/stm32f4xx_rtc.c ****   if (RTC_EnterInitMode() == ERROR)
 144              		.loc 1 378 3 is_stmt 1 view .LVU15
 145              	.LBB98:
 146              	.LBI98:
 379:../Libraries/STM32F4xx_StdPeriph_Driver/src/stm32f4xx_rtc.c ****   {
 380:../Libraries/STM32F4xx_StdPeriph_Driver/src/stm32f4xx_rtc.c ****     status = ERROR;
 381:../Libraries/STM32F4xx_StdPeriph_Driver/src/stm32f4xx_rtc.c ****   }  
 382:../Libraries/STM32F4xx_StdPeriph_Driver/src/stm32f4xx_rtc.c ****   else
 383:../Libraries/STM32F4xx_StdPeriph_Driver/src/stm32f4xx_rtc.c ****   {
 384:../Libraries/STM32F4xx_StdPeriph_Driver/src/stm32f4xx_rtc.c ****     /* Reset TR, DR and CR registers */
 385:../Libraries/STM32F4xx_StdPeriph_Driver/src/stm32f4xx_rtc.c ****     RTC->TR = (uint32_t)0x00000000;
 386:../Libraries/STM32F4xx_StdPeriph_Driver/src/stm32f4xx_rtc.c ****     RTC->DR = (uint32_t)0x00002101;
 387:../Libraries/STM32F4xx_StdPeriph_Driver/src/stm32f4xx_rtc.c ****     /* Reset All CR bits except CR[2:0] */
 388:../Libraries/STM32F4xx_StdPeriph_Driver/src/stm32f4xx_rtc.c ****     RTC->CR &= (uint32_t)0x00000007;
 389:../Libraries/STM32F4xx_StdPeriph_Driver/src/stm32f4xx_rtc.c ****   
 390:../Libraries/STM32F4xx_StdPeriph_Driver/src/stm32f4xx_rtc.c ****     /* Wait till RTC WUTWF flag is set and if Time out is reached exit */
 391:../Libraries/STM32F4xx_StdPeriph_Driver/src/stm32f4xx_rtc.c ****     do
 392:../Libraries/STM32F4xx_StdPeriph_Driver/src/stm32f4xx_rtc.c ****     {
 393:../Libraries/STM32F4xx_StdPeriph_Driver/src/stm32f4xx_rtc.c ****       wutwfstatus = RTC->ISR & RTC_ISR_WUTWF;
 394:../Libraries/STM32F4xx_StdPeriph_Driver/src/stm32f4xx_rtc.c ****       wutcounter++;  
 395:../Libraries/STM32F4xx_StdPeriph_Driver/src/stm32f4xx_rtc.c ****     } while((wutcounter != INITMODE_TIMEOUT) && (wutwfstatus == 0x00));
 396:../Libraries/STM32F4xx_StdPeriph_Driver/src/stm32f4xx_rtc.c ****     
 397:../Libraries/STM32F4xx_StdPeriph_Driver/src/stm32f4xx_rtc.c ****     if ((RTC->ISR & RTC_ISR_WUTWF) == RESET)
 398:../Libraries/STM32F4xx_StdPeriph_Driver/src/stm32f4xx_rtc.c ****     {
 399:../Libraries/STM32F4xx_StdPeriph_Driver/src/stm32f4xx_rtc.c ****       status = ERROR;
 400:../Libraries/STM32F4xx_StdPeriph_Driver/src/stm32f4xx_rtc.c ****     }
 401:../Libraries/STM32F4xx_StdPeriph_Driver/src/stm32f4xx_rtc.c ****     else
 402:../Libraries/STM32F4xx_StdPeriph_Driver/src/stm32f4xx_rtc.c ****     {
 403:../Libraries/STM32F4xx_StdPeriph_Driver/src/stm32f4xx_rtc.c ****       /* Reset all RTC CR register bits */
 404:../Libraries/STM32F4xx_StdPeriph_Driver/src/stm32f4xx_rtc.c ****       RTC->CR &= (uint32_t)0x00000000;
 405:../Libraries/STM32F4xx_StdPeriph_Driver/src/stm32f4xx_rtc.c ****       RTC->WUTR = (uint32_t)0x0000FFFF;
 406:../Libraries/STM32F4xx_StdPeriph_Driver/src/stm32f4xx_rtc.c ****       RTC->PRER = (uint32_t)0x007F00FF;
 407:../Libraries/STM32F4xx_StdPeriph_Driver/src/stm32f4xx_rtc.c ****       RTC->CALIBR = (uint32_t)0x00000000;
 408:../Libraries/STM32F4xx_StdPeriph_Driver/src/stm32f4xx_rtc.c ****       RTC->ALRMAR = (uint32_t)0x00000000;        
 409:../Libraries/STM32F4xx_StdPeriph_Driver/src/stm32f4xx_rtc.c ****       RTC->ALRMBR = (uint32_t)0x00000000;
 410:../Libraries/STM32F4xx_StdPeriph_Driver/src/stm32f4xx_rtc.c ****       
 411:../Libraries/STM32F4xx_StdPeriph_Driver/src/stm32f4xx_rtc.c ****       /* Reset ISR register and exit initialization mode */
 412:../Libraries/STM32F4xx_StdPeriph_Driver/src/stm32f4xx_rtc.c ****       RTC->ISR = (uint32_t)0x00000000;
 413:../Libraries/STM32F4xx_StdPeriph_Driver/src/stm32f4xx_rtc.c ****       
 414:../Libraries/STM32F4xx_StdPeriph_Driver/src/stm32f4xx_rtc.c ****       /* Reset Tamper and alternate functions configuration register */
 415:../Libraries/STM32F4xx_StdPeriph_Driver/src/stm32f4xx_rtc.c ****       RTC->TAFCR = 0x00000000;
 416:../Libraries/STM32F4xx_StdPeriph_Driver/src/stm32f4xx_rtc.c ****   
ARM GAS  C:\Users\admin\AppData\Local\Temp\ccyr4W1e.s 			page 11


 417:../Libraries/STM32F4xx_StdPeriph_Driver/src/stm32f4xx_rtc.c ****       if(RTC_WaitForSynchro() == ERROR)
 418:../Libraries/STM32F4xx_StdPeriph_Driver/src/stm32f4xx_rtc.c ****       {
 419:../Libraries/STM32F4xx_StdPeriph_Driver/src/stm32f4xx_rtc.c ****         status = ERROR;
 420:../Libraries/STM32F4xx_StdPeriph_Driver/src/stm32f4xx_rtc.c ****       }
 421:../Libraries/STM32F4xx_StdPeriph_Driver/src/stm32f4xx_rtc.c ****       else
 422:../Libraries/STM32F4xx_StdPeriph_Driver/src/stm32f4xx_rtc.c ****       {
 423:../Libraries/STM32F4xx_StdPeriph_Driver/src/stm32f4xx_rtc.c ****         status = SUCCESS;      
 424:../Libraries/STM32F4xx_StdPeriph_Driver/src/stm32f4xx_rtc.c ****       }
 425:../Libraries/STM32F4xx_StdPeriph_Driver/src/stm32f4xx_rtc.c ****     }
 426:../Libraries/STM32F4xx_StdPeriph_Driver/src/stm32f4xx_rtc.c ****   }
 427:../Libraries/STM32F4xx_StdPeriph_Driver/src/stm32f4xx_rtc.c ****   
 428:../Libraries/STM32F4xx_StdPeriph_Driver/src/stm32f4xx_rtc.c ****   /* Enable the write protection for RTC registers */
 429:../Libraries/STM32F4xx_StdPeriph_Driver/src/stm32f4xx_rtc.c ****   RTC->WPR = 0xFF;  
 430:../Libraries/STM32F4xx_StdPeriph_Driver/src/stm32f4xx_rtc.c ****   
 431:../Libraries/STM32F4xx_StdPeriph_Driver/src/stm32f4xx_rtc.c ****   return status;
 432:../Libraries/STM32F4xx_StdPeriph_Driver/src/stm32f4xx_rtc.c **** }
 433:../Libraries/STM32F4xx_StdPeriph_Driver/src/stm32f4xx_rtc.c **** 
 434:../Libraries/STM32F4xx_StdPeriph_Driver/src/stm32f4xx_rtc.c **** /**
 435:../Libraries/STM32F4xx_StdPeriph_Driver/src/stm32f4xx_rtc.c ****   * @brief  Initializes the RTC registers according to the specified parameters 
 436:../Libraries/STM32F4xx_StdPeriph_Driver/src/stm32f4xx_rtc.c ****   *         in RTC_InitStruct.
 437:../Libraries/STM32F4xx_StdPeriph_Driver/src/stm32f4xx_rtc.c ****   * @param  RTC_InitStruct: pointer to a RTC_InitTypeDef structure that contains 
 438:../Libraries/STM32F4xx_StdPeriph_Driver/src/stm32f4xx_rtc.c ****   *         the configuration information for the RTC peripheral.
 439:../Libraries/STM32F4xx_StdPeriph_Driver/src/stm32f4xx_rtc.c ****   * @note   The RTC Prescaler register is write protected and can be written in 
 440:../Libraries/STM32F4xx_StdPeriph_Driver/src/stm32f4xx_rtc.c ****   *         initialization mode only.  
 441:../Libraries/STM32F4xx_StdPeriph_Driver/src/stm32f4xx_rtc.c ****   * @retval An ErrorStatus enumeration value:
 442:../Libraries/STM32F4xx_StdPeriph_Driver/src/stm32f4xx_rtc.c ****   *          - SUCCESS: RTC registers are initialized
 443:../Libraries/STM32F4xx_StdPeriph_Driver/src/stm32f4xx_rtc.c ****   *          - ERROR: RTC registers are not initialized  
 444:../Libraries/STM32F4xx_StdPeriph_Driver/src/stm32f4xx_rtc.c ****   */
 445:../Libraries/STM32F4xx_StdPeriph_Driver/src/stm32f4xx_rtc.c **** ErrorStatus RTC_Init(RTC_InitTypeDef* RTC_InitStruct)
 446:../Libraries/STM32F4xx_StdPeriph_Driver/src/stm32f4xx_rtc.c **** {
 447:../Libraries/STM32F4xx_StdPeriph_Driver/src/stm32f4xx_rtc.c ****   ErrorStatus status = ERROR;
 448:../Libraries/STM32F4xx_StdPeriph_Driver/src/stm32f4xx_rtc.c ****   
 449:../Libraries/STM32F4xx_StdPeriph_Driver/src/stm32f4xx_rtc.c ****   /* Check the parameters */
 450:../Libraries/STM32F4xx_StdPeriph_Driver/src/stm32f4xx_rtc.c ****   assert_param(IS_RTC_HOUR_FORMAT(RTC_InitStruct->RTC_HourFormat));
 451:../Libraries/STM32F4xx_StdPeriph_Driver/src/stm32f4xx_rtc.c ****   assert_param(IS_RTC_ASYNCH_PREDIV(RTC_InitStruct->RTC_AsynchPrediv));
 452:../Libraries/STM32F4xx_StdPeriph_Driver/src/stm32f4xx_rtc.c ****   assert_param(IS_RTC_SYNCH_PREDIV(RTC_InitStruct->RTC_SynchPrediv));
 453:../Libraries/STM32F4xx_StdPeriph_Driver/src/stm32f4xx_rtc.c **** 
 454:../Libraries/STM32F4xx_StdPeriph_Driver/src/stm32f4xx_rtc.c ****   /* Disable the write protection for RTC registers */
 455:../Libraries/STM32F4xx_StdPeriph_Driver/src/stm32f4xx_rtc.c ****   RTC->WPR = 0xCA;
 456:../Libraries/STM32F4xx_StdPeriph_Driver/src/stm32f4xx_rtc.c ****   RTC->WPR = 0x53;
 457:../Libraries/STM32F4xx_StdPeriph_Driver/src/stm32f4xx_rtc.c **** 
 458:../Libraries/STM32F4xx_StdPeriph_Driver/src/stm32f4xx_rtc.c ****   /* Set Initialization mode */
 459:../Libraries/STM32F4xx_StdPeriph_Driver/src/stm32f4xx_rtc.c ****   if (RTC_EnterInitMode() == ERROR)
 460:../Libraries/STM32F4xx_StdPeriph_Driver/src/stm32f4xx_rtc.c ****   {
 461:../Libraries/STM32F4xx_StdPeriph_Driver/src/stm32f4xx_rtc.c ****     status = ERROR;
 462:../Libraries/STM32F4xx_StdPeriph_Driver/src/stm32f4xx_rtc.c ****   } 
 463:../Libraries/STM32F4xx_StdPeriph_Driver/src/stm32f4xx_rtc.c ****   else
 464:../Libraries/STM32F4xx_StdPeriph_Driver/src/stm32f4xx_rtc.c ****   {
 465:../Libraries/STM32F4xx_StdPeriph_Driver/src/stm32f4xx_rtc.c ****     /* Clear RTC CR FMT Bit */
 466:../Libraries/STM32F4xx_StdPeriph_Driver/src/stm32f4xx_rtc.c ****     RTC->CR &= ((uint32_t)~(RTC_CR_FMT));
 467:../Libraries/STM32F4xx_StdPeriph_Driver/src/stm32f4xx_rtc.c ****     /* Set RTC_CR register */
 468:../Libraries/STM32F4xx_StdPeriph_Driver/src/stm32f4xx_rtc.c ****     RTC->CR |=  ((uint32_t)(RTC_InitStruct->RTC_HourFormat));
 469:../Libraries/STM32F4xx_StdPeriph_Driver/src/stm32f4xx_rtc.c ****   
 470:../Libraries/STM32F4xx_StdPeriph_Driver/src/stm32f4xx_rtc.c ****     /* Configure the RTC PRER */
 471:../Libraries/STM32F4xx_StdPeriph_Driver/src/stm32f4xx_rtc.c ****     RTC->PRER = (uint32_t)(RTC_InitStruct->RTC_SynchPrediv);
 472:../Libraries/STM32F4xx_StdPeriph_Driver/src/stm32f4xx_rtc.c ****     RTC->PRER |= (uint32_t)(RTC_InitStruct->RTC_AsynchPrediv << 16);
 473:../Libraries/STM32F4xx_StdPeriph_Driver/src/stm32f4xx_rtc.c **** 
ARM GAS  C:\Users\admin\AppData\Local\Temp\ccyr4W1e.s 			page 12


 474:../Libraries/STM32F4xx_StdPeriph_Driver/src/stm32f4xx_rtc.c ****     /* Exit Initialization mode */
 475:../Libraries/STM32F4xx_StdPeriph_Driver/src/stm32f4xx_rtc.c ****     RTC_ExitInitMode();
 476:../Libraries/STM32F4xx_StdPeriph_Driver/src/stm32f4xx_rtc.c **** 
 477:../Libraries/STM32F4xx_StdPeriph_Driver/src/stm32f4xx_rtc.c ****     status = SUCCESS;    
 478:../Libraries/STM32F4xx_StdPeriph_Driver/src/stm32f4xx_rtc.c ****   }
 479:../Libraries/STM32F4xx_StdPeriph_Driver/src/stm32f4xx_rtc.c ****   /* Enable the write protection for RTC registers */
 480:../Libraries/STM32F4xx_StdPeriph_Driver/src/stm32f4xx_rtc.c ****   RTC->WPR = 0xFF; 
 481:../Libraries/STM32F4xx_StdPeriph_Driver/src/stm32f4xx_rtc.c ****   
 482:../Libraries/STM32F4xx_StdPeriph_Driver/src/stm32f4xx_rtc.c ****   return status;
 483:../Libraries/STM32F4xx_StdPeriph_Driver/src/stm32f4xx_rtc.c **** }
 484:../Libraries/STM32F4xx_StdPeriph_Driver/src/stm32f4xx_rtc.c **** 
 485:../Libraries/STM32F4xx_StdPeriph_Driver/src/stm32f4xx_rtc.c **** /**
 486:../Libraries/STM32F4xx_StdPeriph_Driver/src/stm32f4xx_rtc.c ****   * @brief  Fills each RTC_InitStruct member with its default value.
 487:../Libraries/STM32F4xx_StdPeriph_Driver/src/stm32f4xx_rtc.c ****   * @param  RTC_InitStruct: pointer to a RTC_InitTypeDef structure which will be 
 488:../Libraries/STM32F4xx_StdPeriph_Driver/src/stm32f4xx_rtc.c ****   *         initialized.
 489:../Libraries/STM32F4xx_StdPeriph_Driver/src/stm32f4xx_rtc.c ****   * @retval None
 490:../Libraries/STM32F4xx_StdPeriph_Driver/src/stm32f4xx_rtc.c ****   */
 491:../Libraries/STM32F4xx_StdPeriph_Driver/src/stm32f4xx_rtc.c **** void RTC_StructInit(RTC_InitTypeDef* RTC_InitStruct)
 492:../Libraries/STM32F4xx_StdPeriph_Driver/src/stm32f4xx_rtc.c **** {
 493:../Libraries/STM32F4xx_StdPeriph_Driver/src/stm32f4xx_rtc.c ****   /* Initialize the RTC_HourFormat member */
 494:../Libraries/STM32F4xx_StdPeriph_Driver/src/stm32f4xx_rtc.c ****   RTC_InitStruct->RTC_HourFormat = RTC_HourFormat_24;
 495:../Libraries/STM32F4xx_StdPeriph_Driver/src/stm32f4xx_rtc.c ****     
 496:../Libraries/STM32F4xx_StdPeriph_Driver/src/stm32f4xx_rtc.c ****   /* Initialize the RTC_AsynchPrediv member */
 497:../Libraries/STM32F4xx_StdPeriph_Driver/src/stm32f4xx_rtc.c ****   RTC_InitStruct->RTC_AsynchPrediv = (uint32_t)0x7F;
 498:../Libraries/STM32F4xx_StdPeriph_Driver/src/stm32f4xx_rtc.c **** 
 499:../Libraries/STM32F4xx_StdPeriph_Driver/src/stm32f4xx_rtc.c ****   /* Initialize the RTC_SynchPrediv member */
 500:../Libraries/STM32F4xx_StdPeriph_Driver/src/stm32f4xx_rtc.c ****   RTC_InitStruct->RTC_SynchPrediv = (uint32_t)0xFF; 
 501:../Libraries/STM32F4xx_StdPeriph_Driver/src/stm32f4xx_rtc.c **** }
 502:../Libraries/STM32F4xx_StdPeriph_Driver/src/stm32f4xx_rtc.c **** 
 503:../Libraries/STM32F4xx_StdPeriph_Driver/src/stm32f4xx_rtc.c **** /**
 504:../Libraries/STM32F4xx_StdPeriph_Driver/src/stm32f4xx_rtc.c ****   * @brief  Enables or disables the RTC registers write protection.
 505:../Libraries/STM32F4xx_StdPeriph_Driver/src/stm32f4xx_rtc.c ****   * @note   All the RTC registers are write protected except for RTC_ISR[13:8], 
 506:../Libraries/STM32F4xx_StdPeriph_Driver/src/stm32f4xx_rtc.c ****   *         RTC_TAFCR and RTC_BKPxR.
 507:../Libraries/STM32F4xx_StdPeriph_Driver/src/stm32f4xx_rtc.c ****   * @note   Writing a wrong key reactivates the write protection.
 508:../Libraries/STM32F4xx_StdPeriph_Driver/src/stm32f4xx_rtc.c ****   * @note   The protection mechanism is not affected by system reset.  
 509:../Libraries/STM32F4xx_StdPeriph_Driver/src/stm32f4xx_rtc.c ****   * @param  NewState: new state of the write protection.
 510:../Libraries/STM32F4xx_StdPeriph_Driver/src/stm32f4xx_rtc.c ****   *          This parameter can be: ENABLE or DISABLE.
 511:../Libraries/STM32F4xx_StdPeriph_Driver/src/stm32f4xx_rtc.c ****   * @retval None
 512:../Libraries/STM32F4xx_StdPeriph_Driver/src/stm32f4xx_rtc.c ****   */
 513:../Libraries/STM32F4xx_StdPeriph_Driver/src/stm32f4xx_rtc.c **** void RTC_WriteProtectionCmd(FunctionalState NewState)
 514:../Libraries/STM32F4xx_StdPeriph_Driver/src/stm32f4xx_rtc.c **** {
 515:../Libraries/STM32F4xx_StdPeriph_Driver/src/stm32f4xx_rtc.c ****   /* Check the parameters */
 516:../Libraries/STM32F4xx_StdPeriph_Driver/src/stm32f4xx_rtc.c ****   assert_param(IS_FUNCTIONAL_STATE(NewState));
 517:../Libraries/STM32F4xx_StdPeriph_Driver/src/stm32f4xx_rtc.c ****     
 518:../Libraries/STM32F4xx_StdPeriph_Driver/src/stm32f4xx_rtc.c ****   if (NewState != DISABLE)
 519:../Libraries/STM32F4xx_StdPeriph_Driver/src/stm32f4xx_rtc.c ****   {
 520:../Libraries/STM32F4xx_StdPeriph_Driver/src/stm32f4xx_rtc.c ****     /* Enable the write protection for RTC registers */
 521:../Libraries/STM32F4xx_StdPeriph_Driver/src/stm32f4xx_rtc.c ****     RTC->WPR = 0xFF;   
 522:../Libraries/STM32F4xx_StdPeriph_Driver/src/stm32f4xx_rtc.c ****   }
 523:../Libraries/STM32F4xx_StdPeriph_Driver/src/stm32f4xx_rtc.c ****   else
 524:../Libraries/STM32F4xx_StdPeriph_Driver/src/stm32f4xx_rtc.c ****   {
 525:../Libraries/STM32F4xx_StdPeriph_Driver/src/stm32f4xx_rtc.c ****     /* Disable the write protection for RTC registers */
 526:../Libraries/STM32F4xx_StdPeriph_Driver/src/stm32f4xx_rtc.c ****     RTC->WPR = 0xCA;
 527:../Libraries/STM32F4xx_StdPeriph_Driver/src/stm32f4xx_rtc.c ****     RTC->WPR = 0x53;    
 528:../Libraries/STM32F4xx_StdPeriph_Driver/src/stm32f4xx_rtc.c ****   }
 529:../Libraries/STM32F4xx_StdPeriph_Driver/src/stm32f4xx_rtc.c **** }
 530:../Libraries/STM32F4xx_StdPeriph_Driver/src/stm32f4xx_rtc.c **** 
ARM GAS  C:\Users\admin\AppData\Local\Temp\ccyr4W1e.s 			page 13


 531:../Libraries/STM32F4xx_StdPeriph_Driver/src/stm32f4xx_rtc.c **** /**
 532:../Libraries/STM32F4xx_StdPeriph_Driver/src/stm32f4xx_rtc.c ****   * @brief  Enters the RTC Initialization mode.
 533:../Libraries/STM32F4xx_StdPeriph_Driver/src/stm32f4xx_rtc.c ****   * @note   The RTC Initialization mode is write protected, use the 
 534:../Libraries/STM32F4xx_StdPeriph_Driver/src/stm32f4xx_rtc.c ****   *         RTC_WriteProtectionCmd(DISABLE) before calling this function.    
 535:../Libraries/STM32F4xx_StdPeriph_Driver/src/stm32f4xx_rtc.c ****   * @param  None
 536:../Libraries/STM32F4xx_StdPeriph_Driver/src/stm32f4xx_rtc.c ****   * @retval An ErrorStatus enumeration value:
 537:../Libraries/STM32F4xx_StdPeriph_Driver/src/stm32f4xx_rtc.c ****   *          - SUCCESS: RTC is in Init mode
 538:../Libraries/STM32F4xx_StdPeriph_Driver/src/stm32f4xx_rtc.c ****   *          - ERROR: RTC is not in Init mode  
 539:../Libraries/STM32F4xx_StdPeriph_Driver/src/stm32f4xx_rtc.c ****   */
 540:../Libraries/STM32F4xx_StdPeriph_Driver/src/stm32f4xx_rtc.c **** ErrorStatus RTC_EnterInitMode(void)
 147              		.loc 1 540 13 view .LVU16
 148              	.LBB99:
 541:../Libraries/STM32F4xx_StdPeriph_Driver/src/stm32f4xx_rtc.c **** {
 542:../Libraries/STM32F4xx_StdPeriph_Driver/src/stm32f4xx_rtc.c ****   __IO uint32_t initcounter = 0x00;
 149              		.loc 1 542 3 view .LVU17
 150              	@ ../Libraries/STM32F4xx_StdPeriph_Driver/src/stm32f4xx_rtc.c:542:   __IO uint32_t initcounter = 0x
 151              		.loc 1 542 17 is_stmt 0 view .LVU18
 152 0012 0293     		str	r3, [sp, #8]	@ tmp142, initcounter
 543:../Libraries/STM32F4xx_StdPeriph_Driver/src/stm32f4xx_rtc.c ****   ErrorStatus status = ERROR;
 153              		.loc 1 543 3 is_stmt 1 view .LVU19
 154              	.LVL1:
 544:../Libraries/STM32F4xx_StdPeriph_Driver/src/stm32f4xx_rtc.c ****   uint32_t initstatus = 0x00;
 155              		.loc 1 544 3 view .LVU20
 545:../Libraries/STM32F4xx_StdPeriph_Driver/src/stm32f4xx_rtc.c ****      
 546:../Libraries/STM32F4xx_StdPeriph_Driver/src/stm32f4xx_rtc.c ****   /* Check if the Initialization mode is set */
 547:../Libraries/STM32F4xx_StdPeriph_Driver/src/stm32f4xx_rtc.c ****   if ((RTC->ISR & RTC_ISR_INITF) == (uint32_t)RESET)
 156              		.loc 1 547 3 view .LVU21
 157              	@ ../Libraries/STM32F4xx_StdPeriph_Driver/src/stm32f4xx_rtc.c:547:   if ((RTC->ISR & RTC_ISR_INITF)
 158              		.loc 1 547 11 is_stmt 0 view .LVU22
 159 0014 CB68     		ldr	r3, [r1, #12]	@ _35, MEM[(struct RTC_TypeDef *)1073752064B].ISR
 160              	@ ../Libraries/STM32F4xx_StdPeriph_Driver/src/stm32f4xx_rtc.c:547:   if ((RTC->ISR & RTC_ISR_INITF)
 161              		.loc 1 547 6 view .LVU23
 162 0016 5806     		lsls	r0, r3, #25	@, _35,
 163 0018 12D4     		bmi	.L6		@,
 548:../Libraries/STM32F4xx_StdPeriph_Driver/src/stm32f4xx_rtc.c ****   {
 549:../Libraries/STM32F4xx_StdPeriph_Driver/src/stm32f4xx_rtc.c ****     /* Set the Initialization mode */
 550:../Libraries/STM32F4xx_StdPeriph_Driver/src/stm32f4xx_rtc.c ****     RTC->ISR = (uint32_t)RTC_INIT_MASK;
 164              		.loc 1 550 5 is_stmt 1 view .LVU24
 165              	@ ../Libraries/STM32F4xx_StdPeriph_Driver/src/stm32f4xx_rtc.c:550:     RTC->ISR = (uint32_t)RTC_INI
 166              		.loc 1 550 14 is_stmt 0 view .LVU25
 167 001a 4FF0FF33 		mov	r3, #-1	@ tmp157,
 168 001e CB60     		str	r3, [r1, #12]	@ tmp157, MEM[(struct RTC_TypeDef *)1073752064B].ISR
 169 0020 00E0     		b	.L5		@
 170              	.LVL2:
 171              	.L33:
 172              	@ ../Libraries/STM32F4xx_StdPeriph_Driver/src/stm32f4xx_rtc.c:557:     } while((initcounter != INIT
 551:../Libraries/STM32F4xx_StdPeriph_Driver/src/stm32f4xx_rtc.c ****     
 552:../Libraries/STM32F4xx_StdPeriph_Driver/src/stm32f4xx_rtc.c ****     /* Wait till RTC is in INIT state and if Time out is reached exit */
 553:../Libraries/STM32F4xx_StdPeriph_Driver/src/stm32f4xx_rtc.c ****     do
 554:../Libraries/STM32F4xx_StdPeriph_Driver/src/stm32f4xx_rtc.c ****     {
 555:../Libraries/STM32F4xx_StdPeriph_Driver/src/stm32f4xx_rtc.c ****       initstatus = RTC->ISR & RTC_ISR_INITF;
 556:../Libraries/STM32F4xx_StdPeriph_Driver/src/stm32f4xx_rtc.c ****       initcounter++;  
 557:../Libraries/STM32F4xx_StdPeriph_Driver/src/stm32f4xx_rtc.c ****     } while((initcounter != INITMODE_TIMEOUT) && (initstatus == 0x00));
 173              		.loc 1 557 47 view .LVU26
 174 0022 4AB9     		cbnz	r2, .L4	@ initstatus,
 175              	.LVL3:
 176              	.L5:
ARM GAS  C:\Users\admin\AppData\Local\Temp\ccyr4W1e.s 			page 14


 553:../Libraries/STM32F4xx_StdPeriph_Driver/src/stm32f4xx_rtc.c ****     {
 177              		.loc 1 553 5 is_stmt 1 view .LVU27
 555:../Libraries/STM32F4xx_StdPeriph_Driver/src/stm32f4xx_rtc.c ****       initcounter++;  
 178              		.loc 1 555 7 view .LVU28
 179              	@ ../Libraries/STM32F4xx_StdPeriph_Driver/src/stm32f4xx_rtc.c:555:       initstatus = RTC->ISR & RT
 555:../Libraries/STM32F4xx_StdPeriph_Driver/src/stm32f4xx_rtc.c ****       initcounter++;  
 180              		.loc 1 555 23 is_stmt 0 view .LVU29
 181 0024 CA68     		ldr	r2, [r1, #12]	@ _37, MEM[(struct RTC_TypeDef *)1073752064B].ISR
 182              	@ ../Libraries/STM32F4xx_StdPeriph_Driver/src/stm32f4xx_rtc.c:556:       initcounter++;  
 556:../Libraries/STM32F4xx_StdPeriph_Driver/src/stm32f4xx_rtc.c ****     } while((initcounter != INITMODE_TIMEOUT) && (initstatus == 0x00));
 183              		.loc 1 556 18 view .LVU30
 184 0026 029B     		ldr	r3, [sp, #8]	@ initcounter.4_39, initcounter
 185 0028 0133     		adds	r3, r3, #1	@ _40, initcounter.4_39,
 186 002a 0293     		str	r3, [sp, #8]	@ _40, initcounter
 187              	@ ../Libraries/STM32F4xx_StdPeriph_Driver/src/stm32f4xx_rtc.c:557:     } while((initcounter != INIT
 188              		.loc 1 557 26 view .LVU31
 189 002c 029B     		ldr	r3, [sp, #8]	@ initcounter.5_41, initcounter
 190              	@ ../Libraries/STM32F4xx_StdPeriph_Driver/src/stm32f4xx_rtc.c:557:     } while((initcounter != INIT
 191              		.loc 1 557 5 view .LVU32
 192 002e B3F5803F 		cmp	r3, #65536	@ initcounter.5_41,
 193              	@ ../Libraries/STM32F4xx_StdPeriph_Driver/src/stm32f4xx_rtc.c:555:       initstatus = RTC->ISR & RT
 555:../Libraries/STM32F4xx_StdPeriph_Driver/src/stm32f4xx_rtc.c ****       initcounter++;  
 194              		.loc 1 555 18 view .LVU33
 195 0032 02F04002 		and	r2, r2, #64	@ initstatus, _37,
 196              	.LVL4:
 556:../Libraries/STM32F4xx_StdPeriph_Driver/src/stm32f4xx_rtc.c ****     } while((initcounter != INITMODE_TIMEOUT) && (initstatus == 0x00));
 197              		.loc 1 556 7 is_stmt 1 view .LVU34
 198              		.loc 1 557 12 view .LVU35
 199              	@ ../Libraries/STM32F4xx_StdPeriph_Driver/src/stm32f4xx_rtc.c:557:     } while((initcounter != INIT
 200              		.loc 1 557 5 is_stmt 0 view .LVU36
 201 0036 F4D1     		bne	.L33		@,
 202              	.L4:
 203              	.LBB100:
 204              	.LBI100:
 540:../Libraries/STM32F4xx_StdPeriph_Driver/src/stm32f4xx_rtc.c **** {
 205              		.loc 1 540 13 is_stmt 1 view .LVU37
 206              	.LBB101:
 558:../Libraries/STM32F4xx_StdPeriph_Driver/src/stm32f4xx_rtc.c ****     
 559:../Libraries/STM32F4xx_StdPeriph_Driver/src/stm32f4xx_rtc.c ****     if ((RTC->ISR & RTC_ISR_INITF) != RESET)
 207              		.loc 1 559 5 view .LVU38
 208              	@ ../Libraries/STM32F4xx_StdPeriph_Driver/src/stm32f4xx_rtc.c:559:     if ((RTC->ISR & RTC_ISR_INIT
 209              		.loc 1 559 13 is_stmt 0 view .LVU39
 210 0038 274B     		ldr	r3, .L37	@ tmp159,
 211 003a DB68     		ldr	r3, [r3, #12]	@ _44, MEM[(struct RTC_TypeDef *)1073752064B].ISR
 212              	@ ../Libraries/STM32F4xx_StdPeriph_Driver/src/stm32f4xx_rtc.c:559:     if ((RTC->ISR & RTC_ISR_INIT
 213              		.loc 1 559 8 view .LVU40
 214 003c 5A06     		lsls	r2, r3, #25	@, _44,
 215              	.LVL5:
 216              		.loc 1 559 8 view .LVU41
 217 003e 19D5     		bpl	.L9		@,
 218              	.L6:
 219              	.LVL6:
 220              		.loc 1 559 8 view .LVU42
 221              	.LBE101:
 222              	.LBE100:
 223              	.LBE99:
 224              	.LBE98:
ARM GAS  C:\Users\admin\AppData\Local\Temp\ccyr4W1e.s 			page 15


 385:../Libraries/STM32F4xx_StdPeriph_Driver/src/stm32f4xx_rtc.c ****     RTC->DR = (uint32_t)0x00002101;
 225              		.loc 1 385 5 is_stmt 1 view .LVU43
 226              	@ ../Libraries/STM32F4xx_StdPeriph_Driver/src/stm32f4xx_rtc.c:385:     RTC->TR = (uint32_t)0x000000
 385:../Libraries/STM32F4xx_StdPeriph_Driver/src/stm32f4xx_rtc.c ****     RTC->DR = (uint32_t)0x00002101;
 227              		.loc 1 385 13 is_stmt 0 view .LVU44
 228 0040 2549     		ldr	r1, .L37	@ tmp150,
 229              	@ ../Libraries/STM32F4xx_StdPeriph_Driver/src/stm32f4xx_rtc.c:386:     RTC->DR = (uint32_t)0x000021
 386:../Libraries/STM32F4xx_StdPeriph_Driver/src/stm32f4xx_rtc.c ****     /* Reset All CR bits except CR[2:0] */
 230              		.loc 1 386 13 view .LVU45
 231 0042 42F20113 		movw	r3, #8449	@ tmp153,
 232              	@ ../Libraries/STM32F4xx_StdPeriph_Driver/src/stm32f4xx_rtc.c:385:     RTC->TR = (uint32_t)0x000000
 385:../Libraries/STM32F4xx_StdPeriph_Driver/src/stm32f4xx_rtc.c ****     RTC->DR = (uint32_t)0x00002101;
 233              		.loc 1 385 13 view .LVU46
 234 0046 0022     		movs	r2, #0	@ tmp151,
 235 0048 0A60     		str	r2, [r1]	@ tmp151, MEM[(struct RTC_TypeDef *)1073752064B].TR
 386:../Libraries/STM32F4xx_StdPeriph_Driver/src/stm32f4xx_rtc.c ****     /* Reset All CR bits except CR[2:0] */
 236              		.loc 1 386 5 is_stmt 1 view .LVU47
 237              	@ ../Libraries/STM32F4xx_StdPeriph_Driver/src/stm32f4xx_rtc.c:386:     RTC->DR = (uint32_t)0x000021
 386:../Libraries/STM32F4xx_StdPeriph_Driver/src/stm32f4xx_rtc.c ****     /* Reset All CR bits except CR[2:0] */
 238              		.loc 1 386 13 is_stmt 0 view .LVU48
 239 004a 4B60     		str	r3, [r1, #4]	@ tmp153, MEM[(struct RTC_TypeDef *)1073752064B].DR
 388:../Libraries/STM32F4xx_StdPeriph_Driver/src/stm32f4xx_rtc.c ****   
 240              		.loc 1 388 5 is_stmt 1 view .LVU49
 241              	@ ../Libraries/STM32F4xx_StdPeriph_Driver/src/stm32f4xx_rtc.c:388:     RTC->CR &= (uint32_t)0x00000
 388:../Libraries/STM32F4xx_StdPeriph_Driver/src/stm32f4xx_rtc.c ****   
 242              		.loc 1 388 13 is_stmt 0 view .LVU50
 243 004c 8B68     		ldr	r3, [r1, #8]	@ _2, MEM[(struct RTC_TypeDef *)1073752064B].CR
 244 004e 03F00703 		and	r3, r3, #7	@ _3, _2,
 245 0052 8B60     		str	r3, [r1, #8]	@ _3, MEM[(struct RTC_TypeDef *)1073752064B].CR
 246 0054 00E0     		b	.L3		@
 247              	.LVL7:
 248              	.L34:
 249              	@ ../Libraries/STM32F4xx_StdPeriph_Driver/src/stm32f4xx_rtc.c:395:     } while((wutcounter != INITM
 395:../Libraries/STM32F4xx_StdPeriph_Driver/src/stm32f4xx_rtc.c ****     
 250              		.loc 1 395 46 discriminator 1 view .LVU51
 251 0056 4AB9     		cbnz	r2, .L8	@ wutwfstatus,
 252              	.LVL8:
 253              	.L3:
 391:../Libraries/STM32F4xx_StdPeriph_Driver/src/stm32f4xx_rtc.c ****     {
 254              		.loc 1 391 5 is_stmt 1 discriminator 2 view .LVU52
 393:../Libraries/STM32F4xx_StdPeriph_Driver/src/stm32f4xx_rtc.c ****       wutcounter++;  
 255              		.loc 1 393 7 discriminator 2 view .LVU53
 256              	@ ../Libraries/STM32F4xx_StdPeriph_Driver/src/stm32f4xx_rtc.c:393:       wutwfstatus = RTC->ISR & R
 393:../Libraries/STM32F4xx_StdPeriph_Driver/src/stm32f4xx_rtc.c ****       wutcounter++;  
 257              		.loc 1 393 24 is_stmt 0 discriminator 2 view .LVU54
 258 0058 CA68     		ldr	r2, [r1, #12]	@ _4, MEM[(struct RTC_TypeDef *)1073752064B].ISR
 259              	@ ../Libraries/STM32F4xx_StdPeriph_Driver/src/stm32f4xx_rtc.c:394:       wutcounter++;  
 394:../Libraries/STM32F4xx_StdPeriph_Driver/src/stm32f4xx_rtc.c ****     } while((wutcounter != INITMODE_TIMEOUT) && (wutwfstatus == 0x00));
 260              		.loc 1 394 17 discriminator 2 view .LVU55
 261 005a 019B     		ldr	r3, [sp, #4]	@ wutcounter.0_5, wutcounter
 262 005c 0133     		adds	r3, r3, #1	@ _6, wutcounter.0_5,
 263 005e 0193     		str	r3, [sp, #4]	@ _6, wutcounter
 264              	@ ../Libraries/STM32F4xx_StdPeriph_Driver/src/stm32f4xx_rtc.c:395:     } while((wutcounter != INITM
 395:../Libraries/STM32F4xx_StdPeriph_Driver/src/stm32f4xx_rtc.c ****     
 265              		.loc 1 395 25 discriminator 2 view .LVU56
 266 0060 019B     		ldr	r3, [sp, #4]	@ wutcounter.1_7, wutcounter
 267              	@ ../Libraries/STM32F4xx_StdPeriph_Driver/src/stm32f4xx_rtc.c:395:     } while((wutcounter != INITM
ARM GAS  C:\Users\admin\AppData\Local\Temp\ccyr4W1e.s 			page 16


 395:../Libraries/STM32F4xx_StdPeriph_Driver/src/stm32f4xx_rtc.c ****     
 268              		.loc 1 395 5 discriminator 2 view .LVU57
 269 0062 B3F5803F 		cmp	r3, #65536	@ wutcounter.1_7,
 270              	@ ../Libraries/STM32F4xx_StdPeriph_Driver/src/stm32f4xx_rtc.c:393:       wutwfstatus = RTC->ISR & R
 393:../Libraries/STM32F4xx_StdPeriph_Driver/src/stm32f4xx_rtc.c ****       wutcounter++;  
 271              		.loc 1 393 19 discriminator 2 view .LVU58
 272 0066 02F00402 		and	r2, r2, #4	@ wutwfstatus, _4,
 273              	.LVL9:
 394:../Libraries/STM32F4xx_StdPeriph_Driver/src/stm32f4xx_rtc.c ****     } while((wutcounter != INITMODE_TIMEOUT) && (wutwfstatus == 0x00));
 274              		.loc 1 394 7 is_stmt 1 discriminator 2 view .LVU59
 395:../Libraries/STM32F4xx_StdPeriph_Driver/src/stm32f4xx_rtc.c ****     
 275              		.loc 1 395 12 discriminator 2 view .LVU60
 276              	@ ../Libraries/STM32F4xx_StdPeriph_Driver/src/stm32f4xx_rtc.c:395:     } while((wutcounter != INITM
 395:../Libraries/STM32F4xx_StdPeriph_Driver/src/stm32f4xx_rtc.c ****     
 277              		.loc 1 395 5 is_stmt 0 discriminator 2 view .LVU61
 278 006a F4D1     		bne	.L34		@,
 279              	.L8:
 397:../Libraries/STM32F4xx_StdPeriph_Driver/src/stm32f4xx_rtc.c ****     {
 280              		.loc 1 397 5 is_stmt 1 view .LVU62
 281              	@ ../Libraries/STM32F4xx_StdPeriph_Driver/src/stm32f4xx_rtc.c:397:     if ((RTC->ISR & RTC_ISR_WUTW
 397:../Libraries/STM32F4xx_StdPeriph_Driver/src/stm32f4xx_rtc.c ****     {
 282              		.loc 1 397 13 is_stmt 0 view .LVU63
 283 006c 1A49     		ldr	r1, .L37	@ tmp162,
 284 006e CB68     		ldr	r3, [r1, #12]	@ _8, MEM[(struct RTC_TypeDef *)1073752064B].ISR
 285              	@ ../Libraries/STM32F4xx_StdPeriph_Driver/src/stm32f4xx_rtc.c:397:     if ((RTC->ISR & RTC_ISR_WUTW
 397:../Libraries/STM32F4xx_StdPeriph_Driver/src/stm32f4xx_rtc.c ****     {
 286              		.loc 1 397 8 view .LVU64
 287 0070 5B07     		lsls	r3, r3, #29	@, _8,
 288 0072 06D4     		bmi	.L35		@,
 289              	.LVL10:
 290              	.L9:
 291              	@ ../Libraries/STM32F4xx_StdPeriph_Driver/src/stm32f4xx_rtc.c:380:     status = ERROR;
 380:../Libraries/STM32F4xx_StdPeriph_Driver/src/stm32f4xx_rtc.c ****   }  
 292              		.loc 1 380 12 view .LVU65
 293 0074 0020     		movs	r0, #0	@ <retval>,
 294              	.L7:
 295              	.LVL11:
 429:../Libraries/STM32F4xx_StdPeriph_Driver/src/stm32f4xx_rtc.c ****   
 296              		.loc 1 429 3 is_stmt 1 view .LVU66
 297              	@ ../Libraries/STM32F4xx_StdPeriph_Driver/src/stm32f4xx_rtc.c:429:   RTC->WPR = 0xFF;  
 429:../Libraries/STM32F4xx_StdPeriph_Driver/src/stm32f4xx_rtc.c ****   
 298              		.loc 1 429 12 is_stmt 0 view .LVU67
 299 0076 184B     		ldr	r3, .L37	@ tmp195,
 300 0078 FF22     		movs	r2, #255	@ tmp196,
 301 007a 5A62     		str	r2, [r3, #36]	@ tmp196, MEM[(struct RTC_TypeDef *)1073752064B].WPR
 431:../Libraries/STM32F4xx_StdPeriph_Driver/src/stm32f4xx_rtc.c **** }
 302              		.loc 1 431 3 is_stmt 1 view .LVU68
 303              	@ ../Libraries/STM32F4xx_StdPeriph_Driver/src/stm32f4xx_rtc.c:432: }
 432:../Libraries/STM32F4xx_StdPeriph_Driver/src/stm32f4xx_rtc.c **** 
 304              		.loc 1 432 1 is_stmt 0 view .LVU69
 305 007c 04B0     		add	sp, sp, #16	@,,
 306              		.cfi_remember_state
 307              		.cfi_def_cfa_offset 8
 308              		@ sp needed	@
 309 007e 30BC     		pop	{r4, r5}	@
 310              		.cfi_restore 5
 311              		.cfi_restore 4
ARM GAS  C:\Users\admin\AppData\Local\Temp\ccyr4W1e.s 			page 17


 312              		.cfi_def_cfa_offset 0
 313 0080 7047     		bx	lr	@
 314              	.LVL12:
 315              	.L35:
 316              		.cfi_restore_state
 404:../Libraries/STM32F4xx_StdPeriph_Driver/src/stm32f4xx_rtc.c ****       RTC->WUTR = (uint32_t)0x0000FFFF;
 317              		.loc 1 404 7 is_stmt 1 view .LVU70
 318              	@ ../Libraries/STM32F4xx_StdPeriph_Driver/src/stm32f4xx_rtc.c:404:       RTC->CR &= (uint32_t)0x000
 404:../Libraries/STM32F4xx_StdPeriph_Driver/src/stm32f4xx_rtc.c ****       RTC->WUTR = (uint32_t)0x0000FFFF;
 319              		.loc 1 404 15 is_stmt 0 view .LVU71
 320 0082 0023     		movs	r3, #0	@ tmp166,
 321              	@ ../Libraries/STM32F4xx_StdPeriph_Driver/src/stm32f4xx_rtc.c:406:       RTC->PRER = (uint32_t)0x00
 406:../Libraries/STM32F4xx_StdPeriph_Driver/src/stm32f4xx_rtc.c ****       RTC->CALIBR = (uint32_t)0x00000000;
 322              		.loc 1 406 17 view .LVU72
 323 0084 154A     		ldr	r2, .L37+4	@ tmp170,
 324              	.LVL13:
 325              	@ ../Libraries/STM32F4xx_StdPeriph_Driver/src/stm32f4xx_rtc.c:404:       RTC->CR &= (uint32_t)0x000
 404:../Libraries/STM32F4xx_StdPeriph_Driver/src/stm32f4xx_rtc.c ****       RTC->WUTR = (uint32_t)0x0000FFFF;
 326              		.loc 1 404 15 view .LVU73
 327 0086 8D68     		ldr	r5, [r1, #8]	@ vol.2_24, MEM[(struct RTC_TypeDef *)1073752064B].CR
 328 0088 8B60     		str	r3, [r1, #8]	@ tmp166, MEM[(struct RTC_TypeDef *)1073752064B].CR
 405:../Libraries/STM32F4xx_StdPeriph_Driver/src/stm32f4xx_rtc.c ****       RTC->PRER = (uint32_t)0x007F00FF;
 329              		.loc 1 405 7 is_stmt 1 view .LVU74
 330              	@ ../Libraries/STM32F4xx_StdPeriph_Driver/src/stm32f4xx_rtc.c:405:       RTC->WUTR = (uint32_t)0x00
 405:../Libraries/STM32F4xx_StdPeriph_Driver/src/stm32f4xx_rtc.c ****       RTC->PRER = (uint32_t)0x007F00FF;
 331              		.loc 1 405 17 is_stmt 0 view .LVU75
 332 008a 4FF6FF74 		movw	r4, #65535	@ tmp168,
 333 008e 4C61     		str	r4, [r1, #20]	@ tmp168, MEM[(struct RTC_TypeDef *)1073752064B].WUTR
 406:../Libraries/STM32F4xx_StdPeriph_Driver/src/stm32f4xx_rtc.c ****       RTC->CALIBR = (uint32_t)0x00000000;
 334              		.loc 1 406 7 is_stmt 1 view .LVU76
 335              	.LBB102:
 336              	.LBB103:
 337              	@ ../Libraries/STM32F4xx_StdPeriph_Driver/src/stm32f4xx_rtc.c:614:   RTC->WPR = 0xCA;
 560:../Libraries/STM32F4xx_StdPeriph_Driver/src/stm32f4xx_rtc.c ****     {
 561:../Libraries/STM32F4xx_StdPeriph_Driver/src/stm32f4xx_rtc.c ****       status = SUCCESS;
 562:../Libraries/STM32F4xx_StdPeriph_Driver/src/stm32f4xx_rtc.c ****     }
 563:../Libraries/STM32F4xx_StdPeriph_Driver/src/stm32f4xx_rtc.c ****     else
 564:../Libraries/STM32F4xx_StdPeriph_Driver/src/stm32f4xx_rtc.c ****     {
 565:../Libraries/STM32F4xx_StdPeriph_Driver/src/stm32f4xx_rtc.c ****       status = ERROR;
 566:../Libraries/STM32F4xx_StdPeriph_Driver/src/stm32f4xx_rtc.c ****     }        
 567:../Libraries/STM32F4xx_StdPeriph_Driver/src/stm32f4xx_rtc.c ****   }
 568:../Libraries/STM32F4xx_StdPeriph_Driver/src/stm32f4xx_rtc.c ****   else
 569:../Libraries/STM32F4xx_StdPeriph_Driver/src/stm32f4xx_rtc.c ****   {
 570:../Libraries/STM32F4xx_StdPeriph_Driver/src/stm32f4xx_rtc.c ****     status = SUCCESS;  
 571:../Libraries/STM32F4xx_StdPeriph_Driver/src/stm32f4xx_rtc.c ****   } 
 572:../Libraries/STM32F4xx_StdPeriph_Driver/src/stm32f4xx_rtc.c ****     
 573:../Libraries/STM32F4xx_StdPeriph_Driver/src/stm32f4xx_rtc.c ****   return (status);  
 574:../Libraries/STM32F4xx_StdPeriph_Driver/src/stm32f4xx_rtc.c **** }
 575:../Libraries/STM32F4xx_StdPeriph_Driver/src/stm32f4xx_rtc.c **** 
 576:../Libraries/STM32F4xx_StdPeriph_Driver/src/stm32f4xx_rtc.c **** /**
 577:../Libraries/STM32F4xx_StdPeriph_Driver/src/stm32f4xx_rtc.c ****   * @brief  Exits the RTC Initialization mode.
 578:../Libraries/STM32F4xx_StdPeriph_Driver/src/stm32f4xx_rtc.c ****   * @note   When the initialization sequence is complete, the calendar restarts 
 579:../Libraries/STM32F4xx_StdPeriph_Driver/src/stm32f4xx_rtc.c ****   *         counting after 4 RTCCLK cycles.  
 580:../Libraries/STM32F4xx_StdPeriph_Driver/src/stm32f4xx_rtc.c ****   * @note   The RTC Initialization mode is write protected, use the 
 581:../Libraries/STM32F4xx_StdPeriph_Driver/src/stm32f4xx_rtc.c ****   *         RTC_WriteProtectionCmd(DISABLE) before calling this function.      
 582:../Libraries/STM32F4xx_StdPeriph_Driver/src/stm32f4xx_rtc.c ****   * @param  None
 583:../Libraries/STM32F4xx_StdPeriph_Driver/src/stm32f4xx_rtc.c ****   * @retval None
ARM GAS  C:\Users\admin\AppData\Local\Temp\ccyr4W1e.s 			page 18


 584:../Libraries/STM32F4xx_StdPeriph_Driver/src/stm32f4xx_rtc.c ****   */
 585:../Libraries/STM32F4xx_StdPeriph_Driver/src/stm32f4xx_rtc.c **** void RTC_ExitInitMode(void)
 586:../Libraries/STM32F4xx_StdPeriph_Driver/src/stm32f4xx_rtc.c **** { 
 587:../Libraries/STM32F4xx_StdPeriph_Driver/src/stm32f4xx_rtc.c ****   /* Exit Initialization mode */
 588:../Libraries/STM32F4xx_StdPeriph_Driver/src/stm32f4xx_rtc.c ****   RTC->ISR &= (uint32_t)~RTC_ISR_INIT;  
 589:../Libraries/STM32F4xx_StdPeriph_Driver/src/stm32f4xx_rtc.c **** }
 590:../Libraries/STM32F4xx_StdPeriph_Driver/src/stm32f4xx_rtc.c **** 
 591:../Libraries/STM32F4xx_StdPeriph_Driver/src/stm32f4xx_rtc.c **** /**
 592:../Libraries/STM32F4xx_StdPeriph_Driver/src/stm32f4xx_rtc.c ****   * @brief  Waits until the RTC Time and Date registers (RTC_TR and RTC_DR) are 
 593:../Libraries/STM32F4xx_StdPeriph_Driver/src/stm32f4xx_rtc.c ****   *         synchronized with RTC APB clock.
 594:../Libraries/STM32F4xx_StdPeriph_Driver/src/stm32f4xx_rtc.c ****   * @note   The RTC Resynchronization mode is write protected, use the 
 595:../Libraries/STM32F4xx_StdPeriph_Driver/src/stm32f4xx_rtc.c ****   *         RTC_WriteProtectionCmd(DISABLE) before calling this function. 
 596:../Libraries/STM32F4xx_StdPeriph_Driver/src/stm32f4xx_rtc.c ****   * @note   To read the calendar through the shadow registers after Calendar 
 597:../Libraries/STM32F4xx_StdPeriph_Driver/src/stm32f4xx_rtc.c ****   *         initialization, calendar update or after wakeup from low power modes 
 598:../Libraries/STM32F4xx_StdPeriph_Driver/src/stm32f4xx_rtc.c ****   *         the software must first clear the RSF flag. 
 599:../Libraries/STM32F4xx_StdPeriph_Driver/src/stm32f4xx_rtc.c ****   *         The software must then wait until it is set again before reading 
 600:../Libraries/STM32F4xx_StdPeriph_Driver/src/stm32f4xx_rtc.c ****   *         the calendar, which means that the calendar registers have been 
 601:../Libraries/STM32F4xx_StdPeriph_Driver/src/stm32f4xx_rtc.c ****   *         correctly copied into the RTC_TR and RTC_DR shadow registers.   
 602:../Libraries/STM32F4xx_StdPeriph_Driver/src/stm32f4xx_rtc.c ****   * @param  None
 603:../Libraries/STM32F4xx_StdPeriph_Driver/src/stm32f4xx_rtc.c ****   * @retval An ErrorStatus enumeration value:
 604:../Libraries/STM32F4xx_StdPeriph_Driver/src/stm32f4xx_rtc.c ****   *          - SUCCESS: RTC registers are synchronised
 605:../Libraries/STM32F4xx_StdPeriph_Driver/src/stm32f4xx_rtc.c ****   *          - ERROR: RTC registers are not synchronised
 606:../Libraries/STM32F4xx_StdPeriph_Driver/src/stm32f4xx_rtc.c ****   */
 607:../Libraries/STM32F4xx_StdPeriph_Driver/src/stm32f4xx_rtc.c **** ErrorStatus RTC_WaitForSynchro(void)
 608:../Libraries/STM32F4xx_StdPeriph_Driver/src/stm32f4xx_rtc.c **** {
 609:../Libraries/STM32F4xx_StdPeriph_Driver/src/stm32f4xx_rtc.c ****   __IO uint32_t synchrocounter = 0;
 610:../Libraries/STM32F4xx_StdPeriph_Driver/src/stm32f4xx_rtc.c ****   ErrorStatus status = ERROR;
 611:../Libraries/STM32F4xx_StdPeriph_Driver/src/stm32f4xx_rtc.c ****   uint32_t synchrostatus = 0x00;
 612:../Libraries/STM32F4xx_StdPeriph_Driver/src/stm32f4xx_rtc.c **** 
 613:../Libraries/STM32F4xx_StdPeriph_Driver/src/stm32f4xx_rtc.c ****   /* Disable the write protection for RTC registers */
 614:../Libraries/STM32F4xx_StdPeriph_Driver/src/stm32f4xx_rtc.c ****   RTC->WPR = 0xCA;
 338              		.loc 1 614 12 is_stmt 0 view .LVU77
 339 0090 CA20     		movs	r0, #202	@ tmp183,
 340              	.LBE103:
 341              	.LBE102:
 342              	@ ../Libraries/STM32F4xx_StdPeriph_Driver/src/stm32f4xx_rtc.c:406:       RTC->PRER = (uint32_t)0x00
 406:../Libraries/STM32F4xx_StdPeriph_Driver/src/stm32f4xx_rtc.c ****       RTC->CALIBR = (uint32_t)0x00000000;
 343              		.loc 1 406 17 view .LVU78
 344 0092 0A61     		str	r2, [r1, #16]	@ tmp170, MEM[(struct RTC_TypeDef *)1073752064B].PRER
 407:../Libraries/STM32F4xx_StdPeriph_Driver/src/stm32f4xx_rtc.c ****       RTC->ALRMAR = (uint32_t)0x00000000;        
 345              		.loc 1 407 7 is_stmt 1 view .LVU79
 346              	.LBB106:
 347              	.LBB104:
 348              	@ ../Libraries/STM32F4xx_StdPeriph_Driver/src/stm32f4xx_rtc.c:615:   RTC->WPR = 0x53;
 615:../Libraries/STM32F4xx_StdPeriph_Driver/src/stm32f4xx_rtc.c ****   RTC->WPR = 0x53;
 349              		.loc 1 615 12 is_stmt 0 view .LVU80
 350 0094 5322     		movs	r2, #83	@ tmp185,
 351              	.LBE104:
 352              	.LBE106:
 353              	@ ../Libraries/STM32F4xx_StdPeriph_Driver/src/stm32f4xx_rtc.c:407:       RTC->CALIBR = (uint32_t)0x
 407:../Libraries/STM32F4xx_StdPeriph_Driver/src/stm32f4xx_rtc.c ****       RTC->ALRMAR = (uint32_t)0x00000000;        
 354              		.loc 1 407 19 view .LVU81
 355 0096 8B61     		str	r3, [r1, #24]	@ tmp166, MEM[(struct RTC_TypeDef *)1073752064B].CALIBR
 408:../Libraries/STM32F4xx_StdPeriph_Driver/src/stm32f4xx_rtc.c ****       RTC->ALRMBR = (uint32_t)0x00000000;
 356              		.loc 1 408 7 is_stmt 1 view .LVU82
 357              	@ ../Libraries/STM32F4xx_StdPeriph_Driver/src/stm32f4xx_rtc.c:408:       RTC->ALRMAR = (uint32_t)0x
 408:../Libraries/STM32F4xx_StdPeriph_Driver/src/stm32f4xx_rtc.c ****       RTC->ALRMBR = (uint32_t)0x00000000;
ARM GAS  C:\Users\admin\AppData\Local\Temp\ccyr4W1e.s 			page 19


 358              		.loc 1 408 19 is_stmt 0 view .LVU83
 359 0098 CB61     		str	r3, [r1, #28]	@ tmp166, MEM[(struct RTC_TypeDef *)1073752064B].ALRMAR
 409:../Libraries/STM32F4xx_StdPeriph_Driver/src/stm32f4xx_rtc.c ****       
 360              		.loc 1 409 7 is_stmt 1 view .LVU84
 361              	@ ../Libraries/STM32F4xx_StdPeriph_Driver/src/stm32f4xx_rtc.c:409:       RTC->ALRMBR = (uint32_t)0x
 409:../Libraries/STM32F4xx_StdPeriph_Driver/src/stm32f4xx_rtc.c ****       
 362              		.loc 1 409 19 is_stmt 0 view .LVU85
 363 009a 0B62     		str	r3, [r1, #32]	@ tmp166, MEM[(struct RTC_TypeDef *)1073752064B].ALRMBR
 412:../Libraries/STM32F4xx_StdPeriph_Driver/src/stm32f4xx_rtc.c ****       
 364              		.loc 1 412 7 is_stmt 1 view .LVU86
 365              	@ ../Libraries/STM32F4xx_StdPeriph_Driver/src/stm32f4xx_rtc.c:412:       RTC->ISR = (uint32_t)0x000
 412:../Libraries/STM32F4xx_StdPeriph_Driver/src/stm32f4xx_rtc.c ****       
 366              		.loc 1 412 16 is_stmt 0 view .LVU87
 367 009c CB60     		str	r3, [r1, #12]	@ tmp166, MEM[(struct RTC_TypeDef *)1073752064B].ISR
 415:../Libraries/STM32F4xx_StdPeriph_Driver/src/stm32f4xx_rtc.c ****   
 368              		.loc 1 415 7 is_stmt 1 view .LVU88
 369              	@ ../Libraries/STM32F4xx_StdPeriph_Driver/src/stm32f4xx_rtc.c:415:       RTC->TAFCR = 0x00000000;
 415:../Libraries/STM32F4xx_StdPeriph_Driver/src/stm32f4xx_rtc.c ****   
 370              		.loc 1 415 18 is_stmt 0 view .LVU89
 371 009e 0B64     		str	r3, [r1, #64]	@ tmp166, MEM[(struct RTC_TypeDef *)1073752064B].TAFCR
 417:../Libraries/STM32F4xx_StdPeriph_Driver/src/stm32f4xx_rtc.c ****       {
 372              		.loc 1 417 7 is_stmt 1 view .LVU90
 373              	.LBB107:
 374              	.LBI102:
 607:../Libraries/STM32F4xx_StdPeriph_Driver/src/stm32f4xx_rtc.c **** {
 375              		.loc 1 607 13 view .LVU91
 376              	.LBB105:
 609:../Libraries/STM32F4xx_StdPeriph_Driver/src/stm32f4xx_rtc.c ****   ErrorStatus status = ERROR;
 377              		.loc 1 609 3 view .LVU92
 378              	@ ../Libraries/STM32F4xx_StdPeriph_Driver/src/stm32f4xx_rtc.c:609:   __IO uint32_t synchrocounter =
 609:../Libraries/STM32F4xx_StdPeriph_Driver/src/stm32f4xx_rtc.c ****   ErrorStatus status = ERROR;
 379              		.loc 1 609 17 is_stmt 0 view .LVU93
 380 00a0 0393     		str	r3, [sp, #12]	@ tmp166, synchrocounter
 610:../Libraries/STM32F4xx_StdPeriph_Driver/src/stm32f4xx_rtc.c ****   uint32_t synchrostatus = 0x00;
 381              		.loc 1 610 3 is_stmt 1 view .LVU94
 382              	.LVL14:
 611:../Libraries/STM32F4xx_StdPeriph_Driver/src/stm32f4xx_rtc.c **** 
 383              		.loc 1 611 3 view .LVU95
 614:../Libraries/STM32F4xx_StdPeriph_Driver/src/stm32f4xx_rtc.c ****   RTC->WPR = 0x53;
 384              		.loc 1 614 3 view .LVU96
 385              	@ ../Libraries/STM32F4xx_StdPeriph_Driver/src/stm32f4xx_rtc.c:614:   RTC->WPR = 0xCA;
 614:../Libraries/STM32F4xx_StdPeriph_Driver/src/stm32f4xx_rtc.c ****   RTC->WPR = 0x53;
 386              		.loc 1 614 12 is_stmt 0 view .LVU97
 387 00a2 4862     		str	r0, [r1, #36]	@ tmp183, MEM[(struct RTC_TypeDef *)1073752064B].WPR
 388              		.loc 1 615 3 is_stmt 1 view .LVU98
 389              	@ ../Libraries/STM32F4xx_StdPeriph_Driver/src/stm32f4xx_rtc.c:615:   RTC->WPR = 0x53;
 390              		.loc 1 615 12 is_stmt 0 view .LVU99
 391 00a4 4A62     		str	r2, [r1, #36]	@ tmp185, MEM[(struct RTC_TypeDef *)1073752064B].WPR
 616:../Libraries/STM32F4xx_StdPeriph_Driver/src/stm32f4xx_rtc.c ****     
 617:../Libraries/STM32F4xx_StdPeriph_Driver/src/stm32f4xx_rtc.c ****   /* Clear RSF flag */
 618:../Libraries/STM32F4xx_StdPeriph_Driver/src/stm32f4xx_rtc.c ****   RTC->ISR &= (uint32_t)RTC_RSF_MASK;
 392              		.loc 1 618 3 is_stmt 1 view .LVU100
 393              	@ ../Libraries/STM32F4xx_StdPeriph_Driver/src/stm32f4xx_rtc.c:618:   RTC->ISR &= (uint32_t)RTC_RSF_
 394              		.loc 1 618 12 is_stmt 0 view .LVU101
 395 00a6 CB68     		ldr	r3, [r1, #12]	@ _47, MEM[(struct RTC_TypeDef *)1073752064B].ISR
 396 00a8 23F0A003 		bic	r3, r3, #160	@ _48, _47,
 397 00ac CB60     		str	r3, [r1, #12]	@ _48, MEM[(struct RTC_TypeDef *)1073752064B].ISR
ARM GAS  C:\Users\admin\AppData\Local\Temp\ccyr4W1e.s 			page 20


 398 00ae 00E0     		b	.L11		@
 399              	.LVL15:
 400              	.L36:
 401              	@ ../Libraries/STM32F4xx_StdPeriph_Driver/src/stm32f4xx_rtc.c:625:   } while((synchrocounter != SYN
 619:../Libraries/STM32F4xx_StdPeriph_Driver/src/stm32f4xx_rtc.c ****     
 620:../Libraries/STM32F4xx_StdPeriph_Driver/src/stm32f4xx_rtc.c ****   /* Wait the registers to be synchronised */
 621:../Libraries/STM32F4xx_StdPeriph_Driver/src/stm32f4xx_rtc.c ****   do
 622:../Libraries/STM32F4xx_StdPeriph_Driver/src/stm32f4xx_rtc.c ****   {
 623:../Libraries/STM32F4xx_StdPeriph_Driver/src/stm32f4xx_rtc.c ****     synchrostatus = RTC->ISR & RTC_ISR_RSF;
 624:../Libraries/STM32F4xx_StdPeriph_Driver/src/stm32f4xx_rtc.c ****     synchrocounter++;  
 625:../Libraries/STM32F4xx_StdPeriph_Driver/src/stm32f4xx_rtc.c ****   } while((synchrocounter != SYNCHRO_TIMEOUT) && (synchrostatus == 0x00));
 402              		.loc 1 625 47 view .LVU102
 403 00b0 4AB9     		cbnz	r2, .L10	@ synchrostatus,
 404              	.LVL16:
 405              	.L11:
 621:../Libraries/STM32F4xx_StdPeriph_Driver/src/stm32f4xx_rtc.c ****   {
 406              		.loc 1 621 3 is_stmt 1 view .LVU103
 623:../Libraries/STM32F4xx_StdPeriph_Driver/src/stm32f4xx_rtc.c ****     synchrocounter++;  
 407              		.loc 1 623 5 view .LVU104
 408              	@ ../Libraries/STM32F4xx_StdPeriph_Driver/src/stm32f4xx_rtc.c:623:     synchrostatus = RTC->ISR & R
 623:../Libraries/STM32F4xx_StdPeriph_Driver/src/stm32f4xx_rtc.c ****     synchrocounter++;  
 409              		.loc 1 623 24 is_stmt 0 view .LVU105
 410 00b2 CA68     		ldr	r2, [r1, #12]	@ _49, MEM[(struct RTC_TypeDef *)1073752064B].ISR
 411              	@ ../Libraries/STM32F4xx_StdPeriph_Driver/src/stm32f4xx_rtc.c:624:     synchrocounter++;  
 624:../Libraries/STM32F4xx_StdPeriph_Driver/src/stm32f4xx_rtc.c ****   } while((synchrocounter != SYNCHRO_TIMEOUT) && (synchrostatus == 0x00));
 412              		.loc 1 624 19 view .LVU106
 413 00b4 039B     		ldr	r3, [sp, #12]	@ synchrocounter.6_51, synchrocounter
 414 00b6 0133     		adds	r3, r3, #1	@ _52, synchrocounter.6_51,
 415 00b8 0393     		str	r3, [sp, #12]	@ _52, synchrocounter
 416              	@ ../Libraries/STM32F4xx_StdPeriph_Driver/src/stm32f4xx_rtc.c:625:   } while((synchrocounter != SYN
 417              		.loc 1 625 27 view .LVU107
 418 00ba 039B     		ldr	r3, [sp, #12]	@ synchrocounter.7_53, synchrocounter
 419              	@ ../Libraries/STM32F4xx_StdPeriph_Driver/src/stm32f4xx_rtc.c:625:   } while((synchrocounter != SYN
 420              		.loc 1 625 3 view .LVU108
 421 00bc B3F5003F 		cmp	r3, #131072	@ synchrocounter.7_53,
 422              	@ ../Libraries/STM32F4xx_StdPeriph_Driver/src/stm32f4xx_rtc.c:623:     synchrostatus = RTC->ISR & R
 623:../Libraries/STM32F4xx_StdPeriph_Driver/src/stm32f4xx_rtc.c ****     synchrocounter++;  
 423              		.loc 1 623 19 view .LVU109
 424 00c0 02F02002 		and	r2, r2, #32	@ synchrostatus, _49,
 425              	.LVL17:
 624:../Libraries/STM32F4xx_StdPeriph_Driver/src/stm32f4xx_rtc.c ****   } while((synchrocounter != SYNCHRO_TIMEOUT) && (synchrostatus == 0x00));
 426              		.loc 1 624 5 is_stmt 1 view .LVU110
 427              		.loc 1 625 10 view .LVU111
 428              	@ ../Libraries/STM32F4xx_StdPeriph_Driver/src/stm32f4xx_rtc.c:625:   } while((synchrocounter != SYN
 429              		.loc 1 625 3 is_stmt 0 view .LVU112
 430 00c4 F4D1     		bne	.L36		@,
 431              	.L10:
 626:../Libraries/STM32F4xx_StdPeriph_Driver/src/stm32f4xx_rtc.c ****     
 627:../Libraries/STM32F4xx_StdPeriph_Driver/src/stm32f4xx_rtc.c ****   if ((RTC->ISR & RTC_ISR_RSF) != RESET)
 432              		.loc 1 627 3 is_stmt 1 view .LVU113
 433              	@ ../Libraries/STM32F4xx_StdPeriph_Driver/src/stm32f4xx_rtc.c:627:   if ((RTC->ISR & RTC_ISR_RSF) !
 434              		.loc 1 627 11 is_stmt 0 view .LVU114
 435 00c6 044B     		ldr	r3, .L37	@ tmp189,
 436 00c8 D868     		ldr	r0, [r3, #12]	@ _54, MEM[(struct RTC_TypeDef *)1073752064B].ISR
 437              	@ ../Libraries/STM32F4xx_StdPeriph_Driver/src/stm32f4xx_rtc.c:637:   RTC->WPR = 0xFF; 
 628:../Libraries/STM32F4xx_StdPeriph_Driver/src/stm32f4xx_rtc.c ****   {
 629:../Libraries/STM32F4xx_StdPeriph_Driver/src/stm32f4xx_rtc.c ****     status = SUCCESS;
ARM GAS  C:\Users\admin\AppData\Local\Temp\ccyr4W1e.s 			page 21


 630:../Libraries/STM32F4xx_StdPeriph_Driver/src/stm32f4xx_rtc.c ****   }
 631:../Libraries/STM32F4xx_StdPeriph_Driver/src/stm32f4xx_rtc.c ****   else
 632:../Libraries/STM32F4xx_StdPeriph_Driver/src/stm32f4xx_rtc.c ****   {
 633:../Libraries/STM32F4xx_StdPeriph_Driver/src/stm32f4xx_rtc.c ****     status = ERROR;
 634:../Libraries/STM32F4xx_StdPeriph_Driver/src/stm32f4xx_rtc.c ****   }        
 635:../Libraries/STM32F4xx_StdPeriph_Driver/src/stm32f4xx_rtc.c **** 
 636:../Libraries/STM32F4xx_StdPeriph_Driver/src/stm32f4xx_rtc.c ****   /* Enable the write protection for RTC registers */
 637:../Libraries/STM32F4xx_StdPeriph_Driver/src/stm32f4xx_rtc.c ****   RTC->WPR = 0xFF; 
 438              		.loc 1 637 12 view .LVU115
 439 00ca FF22     		movs	r2, #255	@ tmp194,
 440              	.LVL18:
 441              	@ ../Libraries/STM32F4xx_StdPeriph_Driver/src/stm32f4xx_rtc.c:627:   if ((RTC->ISR & RTC_ISR_RSF) !
 627:../Libraries/STM32F4xx_StdPeriph_Driver/src/stm32f4xx_rtc.c ****   {
 442              		.loc 1 627 6 view .LVU116
 443 00cc 10F02000 		ands	r0, r0, #32	@ tmp190, _54,
 633:../Libraries/STM32F4xx_StdPeriph_Driver/src/stm32f4xx_rtc.c ****   }        
 444              		.loc 1 633 5 is_stmt 1 view .LVU117
 445              		.loc 1 637 3 view .LVU118
 638:../Libraries/STM32F4xx_StdPeriph_Driver/src/stm32f4xx_rtc.c ****     
 639:../Libraries/STM32F4xx_StdPeriph_Driver/src/stm32f4xx_rtc.c ****   return (status); 
 446              		.loc 1 639 3 view .LVU119
 447              	.LVL19:
 637:../Libraries/STM32F4xx_StdPeriph_Driver/src/stm32f4xx_rtc.c ****     
 448              		.loc 1 637 3 view .LVU120
 449              		.loc 1 639 3 view .LVU121
 450              	@ ../Libraries/STM32F4xx_StdPeriph_Driver/src/stm32f4xx_rtc.c:637:   RTC->WPR = 0xFF; 
 637:../Libraries/STM32F4xx_StdPeriph_Driver/src/stm32f4xx_rtc.c ****     
 451              		.loc 1 637 12 is_stmt 0 view .LVU122
 452 00d0 5A62     		str	r2, [r3, #36]	@ tmp194,
 453              	.LBE105:
 454              	.LBE107:
 455              	@ ../Libraries/STM32F4xx_StdPeriph_Driver/src/stm32f4xx_rtc.c:423:         status = SUCCESS;      
 423:../Libraries/STM32F4xx_StdPeriph_Driver/src/stm32f4xx_rtc.c ****       }
 456              		.loc 1 423 16 view .LVU123
 457 00d2 18BF     		it	ne
 458 00d4 0120     		movne	r0, #1	@ <retval>,
 459 00d6 CEE7     		b	.L7		@
 460              	.L38:
 461              		.align	2
 462              	.L37:
 463 00d8 00280040 		.word	1073752064
 464 00dc FF007F00 		.word	8323327
 465              		.cfi_endproc
 466              	.LFE110:
 467              		.size	RTC_DeInit, .-RTC_DeInit
 468              		.section	.text.RTC_Init,"ax",%progbits
 469              		.align	1
 470              		.p2align 2,,3
 471              		.global	RTC_Init
 472              		.syntax unified
 473              		.thumb
 474              		.thumb_func
 475              		.type	RTC_Init, %function
 476              	RTC_Init:
 477              	.LVL20:
 478              	.LFB111:
 446:../Libraries/STM32F4xx_StdPeriph_Driver/src/stm32f4xx_rtc.c ****   ErrorStatus status = ERROR;
ARM GAS  C:\Users\admin\AppData\Local\Temp\ccyr4W1e.s 			page 22


 479              		.loc 1 446 1 is_stmt 1 view -0
 480              		.cfi_startproc
 481              		@ args = 0, pretend = 0, frame = 8
 482              		@ frame_needed = 0, uses_anonymous_args = 0
 447:../Libraries/STM32F4xx_StdPeriph_Driver/src/stm32f4xx_rtc.c ****   
 483              		.loc 1 447 3 view .LVU125
 450:../Libraries/STM32F4xx_StdPeriph_Driver/src/stm32f4xx_rtc.c ****   assert_param(IS_RTC_ASYNCH_PREDIV(RTC_InitStruct->RTC_AsynchPrediv));
 484              		.loc 1 450 3 view .LVU126
 485              	@ ../Libraries/STM32F4xx_StdPeriph_Driver/src/stm32f4xx_rtc.c:446: {
 446:../Libraries/STM32F4xx_StdPeriph_Driver/src/stm32f4xx_rtc.c ****   ErrorStatus status = ERROR;
 486              		.loc 1 446 1 is_stmt 0 view .LVU127
 487 0000 10B5     		push	{r4, lr}	@
 488              		.cfi_def_cfa_offset 8
 489              		.cfi_offset 4, -8
 490              		.cfi_offset 14, -4
 491              	@ ../Libraries/STM32F4xx_StdPeriph_Driver/src/stm32f4xx_rtc.c:450:   assert_param(IS_RTC_HOUR_FORMA
 450:../Libraries/STM32F4xx_StdPeriph_Driver/src/stm32f4xx_rtc.c ****   assert_param(IS_RTC_ASYNCH_PREDIV(RTC_InitStruct->RTC_AsynchPrediv));
 492              		.loc 1 450 3 view .LVU128
 493 0002 0368     		ldr	r3, [r0]	@ RTC_InitStruct_23(D)->RTC_HourFormat, RTC_InitStruct_23(D)->RTC_HourFormat
 494              	@ ../Libraries/STM32F4xx_StdPeriph_Driver/src/stm32f4xx_rtc.c:446: {
 446:../Libraries/STM32F4xx_StdPeriph_Driver/src/stm32f4xx_rtc.c ****   ErrorStatus status = ERROR;
 495              		.loc 1 446 1 view .LVU129
 496 0004 0446     		mov	r4, r0	@ RTC_InitStruct, tmp184
 497              	@ ../Libraries/STM32F4xx_StdPeriph_Driver/src/stm32f4xx_rtc.c:450:   assert_param(IS_RTC_HOUR_FORMA
 450:../Libraries/STM32F4xx_StdPeriph_Driver/src/stm32f4xx_rtc.c ****   assert_param(IS_RTC_ASYNCH_PREDIV(RTC_InitStruct->RTC_AsynchPrediv));
 498              		.loc 1 450 3 view .LVU130
 499 0006 33F04003 		bics	r3, r3, #64	@ tmp186, RTC_InitStruct_23(D)->RTC_HourFormat,
 500              	@ ../Libraries/STM32F4xx_StdPeriph_Driver/src/stm32f4xx_rtc.c:446: {
 446:../Libraries/STM32F4xx_StdPeriph_Driver/src/stm32f4xx_rtc.c ****   ErrorStatus status = ERROR;
 501              		.loc 1 446 1 view .LVU131
 502 000a 82B0     		sub	sp, sp, #8	@,,
 503              		.cfi_def_cfa_offset 16
 504              	@ ../Libraries/STM32F4xx_StdPeriph_Driver/src/stm32f4xx_rtc.c:450:   assert_param(IS_RTC_HOUR_FORMA
 450:../Libraries/STM32F4xx_StdPeriph_Driver/src/stm32f4xx_rtc.c ****   assert_param(IS_RTC_ASYNCH_PREDIV(RTC_InitStruct->RTC_AsynchPrediv));
 505              		.loc 1 450 3 view .LVU132
 506 000c 0CBF     		ite	eq
 507 000e 0120     		moveq	r0, #1	@,
 508              	.LVL21:
 450:../Libraries/STM32F4xx_StdPeriph_Driver/src/stm32f4xx_rtc.c ****   assert_param(IS_RTC_ASYNCH_PREDIV(RTC_InitStruct->RTC_AsynchPrediv));
 509              		.loc 1 450 3 view .LVU133
 510 0010 0020     		movne	r0, #0	@,
 511 0012 FFF7FEFF 		bl	assert_param		@
 512              	.LVL22:
 451:../Libraries/STM32F4xx_StdPeriph_Driver/src/stm32f4xx_rtc.c ****   assert_param(IS_RTC_SYNCH_PREDIV(RTC_InitStruct->RTC_SynchPrediv));
 513              		.loc 1 451 3 is_stmt 1 view .LVU134
 514 0016 6068     		ldr	r0, [r4, #4]	@ RTC_InitStruct_23(D)->RTC_AsynchPrediv, RTC_InitStruct_23(D)->RTC_AsynchPrediv
 515 0018 7F28     		cmp	r0, #127	@ RTC_InitStruct_23(D)->RTC_AsynchPrediv,
 516 001a 8CBF     		ite	hi
 517 001c 0020     		movhi	r0, #0	@,
 518 001e 0120     		movls	r0, #1	@,
 519 0020 FFF7FEFF 		bl	assert_param		@
 520              	.LVL23:
 452:../Libraries/STM32F4xx_StdPeriph_Driver/src/stm32f4xx_rtc.c **** 
 521              		.loc 1 452 3 view .LVU135
 522 0024 A068     		ldr	r0, [r4, #8]	@ RTC_InitStruct_23(D)->RTC_SynchPrediv, RTC_InitStruct_23(D)->RTC_SynchPrediv
 523 0026 B0F5004F 		cmp	r0, #32768	@ RTC_InitStruct_23(D)->RTC_SynchPrediv,
 524 002a 2CBF     		ite	cs
ARM GAS  C:\Users\admin\AppData\Local\Temp\ccyr4W1e.s 			page 23


 525 002c 0020     		movcs	r0, #0	@,
 526 002e 0120     		movcc	r0, #1	@,
 527 0030 FFF7FEFF 		bl	assert_param		@
 528              	.LVL24:
 455:../Libraries/STM32F4xx_StdPeriph_Driver/src/stm32f4xx_rtc.c ****   RTC->WPR = 0x53;
 529              		.loc 1 455 3 view .LVU136
 530              	@ ../Libraries/STM32F4xx_StdPeriph_Driver/src/stm32f4xx_rtc.c:455:   RTC->WPR = 0xCA;
 455:../Libraries/STM32F4xx_StdPeriph_Driver/src/stm32f4xx_rtc.c ****   RTC->WPR = 0x53;
 531              		.loc 1 455 12 is_stmt 0 view .LVU137
 532 0034 1B49     		ldr	r1, .L52	@ tmp157,
 533              	.LBB114:
 534              	.LBB115:
 535              	@ ../Libraries/STM32F4xx_StdPeriph_Driver/src/stm32f4xx_rtc.c:542:   __IO uint32_t initcounter = 0x
 542:../Libraries/STM32F4xx_StdPeriph_Driver/src/stm32f4xx_rtc.c ****   ErrorStatus status = ERROR;
 536              		.loc 1 542 17 view .LVU138
 537 0036 0023     		movs	r3, #0	@ tmp161,
 538              	.LBE115:
 539              	.LBE114:
 540              	@ ../Libraries/STM32F4xx_StdPeriph_Driver/src/stm32f4xx_rtc.c:455:   RTC->WPR = 0xCA;
 455:../Libraries/STM32F4xx_StdPeriph_Driver/src/stm32f4xx_rtc.c ****   RTC->WPR = 0x53;
 541              		.loc 1 455 12 view .LVU139
 542 0038 CA20     		movs	r0, #202	@ tmp158,
 543              	@ ../Libraries/STM32F4xx_StdPeriph_Driver/src/stm32f4xx_rtc.c:456:   RTC->WPR = 0x53;
 456:../Libraries/STM32F4xx_StdPeriph_Driver/src/stm32f4xx_rtc.c **** 
 544              		.loc 1 456 12 view .LVU140
 545 003a 5322     		movs	r2, #83	@ tmp160,
 546              	@ ../Libraries/STM32F4xx_StdPeriph_Driver/src/stm32f4xx_rtc.c:455:   RTC->WPR = 0xCA;
 455:../Libraries/STM32F4xx_StdPeriph_Driver/src/stm32f4xx_rtc.c ****   RTC->WPR = 0x53;
 547              		.loc 1 455 12 view .LVU141
 548 003c 4862     		str	r0, [r1, #36]	@ tmp158, MEM[(struct RTC_TypeDef *)1073752064B].WPR
 456:../Libraries/STM32F4xx_StdPeriph_Driver/src/stm32f4xx_rtc.c **** 
 549              		.loc 1 456 3 is_stmt 1 view .LVU142
 550              	@ ../Libraries/STM32F4xx_StdPeriph_Driver/src/stm32f4xx_rtc.c:456:   RTC->WPR = 0x53;
 456:../Libraries/STM32F4xx_StdPeriph_Driver/src/stm32f4xx_rtc.c **** 
 551              		.loc 1 456 12 is_stmt 0 view .LVU143
 552 003e 4A62     		str	r2, [r1, #36]	@ tmp160, MEM[(struct RTC_TypeDef *)1073752064B].WPR
 459:../Libraries/STM32F4xx_StdPeriph_Driver/src/stm32f4xx_rtc.c ****   {
 553              		.loc 1 459 3 is_stmt 1 view .LVU144
 554              	.LBB119:
 555              	.LBI114:
 540:../Libraries/STM32F4xx_StdPeriph_Driver/src/stm32f4xx_rtc.c **** {
 556              		.loc 1 540 13 view .LVU145
 557              	.LBB118:
 542:../Libraries/STM32F4xx_StdPeriph_Driver/src/stm32f4xx_rtc.c ****   ErrorStatus status = ERROR;
 558              		.loc 1 542 3 view .LVU146
 559              	@ ../Libraries/STM32F4xx_StdPeriph_Driver/src/stm32f4xx_rtc.c:542:   __IO uint32_t initcounter = 0x
 542:../Libraries/STM32F4xx_StdPeriph_Driver/src/stm32f4xx_rtc.c ****   ErrorStatus status = ERROR;
 560              		.loc 1 542 17 is_stmt 0 view .LVU147
 561 0040 0193     		str	r3, [sp, #4]	@ tmp161, initcounter
 543:../Libraries/STM32F4xx_StdPeriph_Driver/src/stm32f4xx_rtc.c ****   uint32_t initstatus = 0x00;
 562              		.loc 1 543 3 is_stmt 1 view .LVU148
 563              	.LVL25:
 544:../Libraries/STM32F4xx_StdPeriph_Driver/src/stm32f4xx_rtc.c ****      
 564              		.loc 1 544 3 view .LVU149
 547:../Libraries/STM32F4xx_StdPeriph_Driver/src/stm32f4xx_rtc.c ****   {
 565              		.loc 1 547 3 view .LVU150
 566              	@ ../Libraries/STM32F4xx_StdPeriph_Driver/src/stm32f4xx_rtc.c:547:   if ((RTC->ISR & RTC_ISR_INITF)
ARM GAS  C:\Users\admin\AppData\Local\Temp\ccyr4W1e.s 			page 24


 547:../Libraries/STM32F4xx_StdPeriph_Driver/src/stm32f4xx_rtc.c ****   {
 567              		.loc 1 547 11 is_stmt 0 view .LVU151
 568 0042 CB68     		ldr	r3, [r1, #12]	@ _38, MEM[(struct RTC_TypeDef *)1073752064B].ISR
 569              	@ ../Libraries/STM32F4xx_StdPeriph_Driver/src/stm32f4xx_rtc.c:547:   if ((RTC->ISR & RTC_ISR_INITF)
 547:../Libraries/STM32F4xx_StdPeriph_Driver/src/stm32f4xx_rtc.c ****   {
 570              		.loc 1 547 6 view .LVU152
 571 0044 5B06     		lsls	r3, r3, #25	@, _38,
 572 0046 13D4     		bmi	.L44		@,
 550:../Libraries/STM32F4xx_StdPeriph_Driver/src/stm32f4xx_rtc.c ****     
 573              		.loc 1 550 5 is_stmt 1 view .LVU153
 574              	@ ../Libraries/STM32F4xx_StdPeriph_Driver/src/stm32f4xx_rtc.c:550:     RTC->ISR = (uint32_t)RTC_INI
 550:../Libraries/STM32F4xx_StdPeriph_Driver/src/stm32f4xx_rtc.c ****     
 575              		.loc 1 550 14 is_stmt 0 view .LVU154
 576 0048 4FF0FF33 		mov	r3, #-1	@ tmp177,
 577 004c CB60     		str	r3, [r1, #12]	@ tmp177, MEM[(struct RTC_TypeDef *)1073752064B].ISR
 578 004e 00E0     		b	.L43		@
 579              	.LVL26:
 580              	.L51:
 581              	@ ../Libraries/STM32F4xx_StdPeriph_Driver/src/stm32f4xx_rtc.c:557:     } while((initcounter != INIT
 557:../Libraries/STM32F4xx_StdPeriph_Driver/src/stm32f4xx_rtc.c ****     
 582              		.loc 1 557 47 view .LVU155
 583 0050 4AB9     		cbnz	r2, .L42	@ initstatus,
 584              	.LVL27:
 585              	.L43:
 553:../Libraries/STM32F4xx_StdPeriph_Driver/src/stm32f4xx_rtc.c ****     {
 586              		.loc 1 553 5 is_stmt 1 view .LVU156
 555:../Libraries/STM32F4xx_StdPeriph_Driver/src/stm32f4xx_rtc.c ****       initcounter++;  
 587              		.loc 1 555 7 view .LVU157
 588              	@ ../Libraries/STM32F4xx_StdPeriph_Driver/src/stm32f4xx_rtc.c:555:       initstatus = RTC->ISR & RT
 555:../Libraries/STM32F4xx_StdPeriph_Driver/src/stm32f4xx_rtc.c ****       initcounter++;  
 589              		.loc 1 555 23 is_stmt 0 view .LVU158
 590 0052 CA68     		ldr	r2, [r1, #12]	@ _40, MEM[(struct RTC_TypeDef *)1073752064B].ISR
 591              	@ ../Libraries/STM32F4xx_StdPeriph_Driver/src/stm32f4xx_rtc.c:556:       initcounter++;  
 556:../Libraries/STM32F4xx_StdPeriph_Driver/src/stm32f4xx_rtc.c ****     } while((initcounter != INITMODE_TIMEOUT) && (initstatus == 0x00));
 592              		.loc 1 556 18 view .LVU159
 593 0054 019B     		ldr	r3, [sp, #4]	@ initcounter.4_42, initcounter
 594 0056 0133     		adds	r3, r3, #1	@ _43, initcounter.4_42,
 595 0058 0193     		str	r3, [sp, #4]	@ _43, initcounter
 596              	@ ../Libraries/STM32F4xx_StdPeriph_Driver/src/stm32f4xx_rtc.c:557:     } while((initcounter != INIT
 557:../Libraries/STM32F4xx_StdPeriph_Driver/src/stm32f4xx_rtc.c ****     
 597              		.loc 1 557 26 view .LVU160
 598 005a 019B     		ldr	r3, [sp, #4]	@ initcounter.5_44, initcounter
 599              	@ ../Libraries/STM32F4xx_StdPeriph_Driver/src/stm32f4xx_rtc.c:557:     } while((initcounter != INIT
 557:../Libraries/STM32F4xx_StdPeriph_Driver/src/stm32f4xx_rtc.c ****     
 600              		.loc 1 557 5 view .LVU161
 601 005c B3F5803F 		cmp	r3, #65536	@ initcounter.5_44,
 602              	@ ../Libraries/STM32F4xx_StdPeriph_Driver/src/stm32f4xx_rtc.c:555:       initstatus = RTC->ISR & RT
 555:../Libraries/STM32F4xx_StdPeriph_Driver/src/stm32f4xx_rtc.c ****       initcounter++;  
 603              		.loc 1 555 18 view .LVU162
 604 0060 02F04002 		and	r2, r2, #64	@ initstatus, _40,
 605              	.LVL28:
 556:../Libraries/STM32F4xx_StdPeriph_Driver/src/stm32f4xx_rtc.c ****     } while((initcounter != INITMODE_TIMEOUT) && (initstatus == 0x00));
 606              		.loc 1 556 7 is_stmt 1 view .LVU163
 557:../Libraries/STM32F4xx_StdPeriph_Driver/src/stm32f4xx_rtc.c ****     
 607              		.loc 1 557 12 view .LVU164
 608              	@ ../Libraries/STM32F4xx_StdPeriph_Driver/src/stm32f4xx_rtc.c:557:     } while((initcounter != INIT
 557:../Libraries/STM32F4xx_StdPeriph_Driver/src/stm32f4xx_rtc.c ****     
ARM GAS  C:\Users\admin\AppData\Local\Temp\ccyr4W1e.s 			page 25


 609              		.loc 1 557 5 is_stmt 0 view .LVU165
 610 0064 F4D1     		bne	.L51		@,
 611              	.L42:
 612              	.LBB116:
 613              	.LBI116:
 540:../Libraries/STM32F4xx_StdPeriph_Driver/src/stm32f4xx_rtc.c **** {
 614              		.loc 1 540 13 is_stmt 1 view .LVU166
 615              	.LBB117:
 559:../Libraries/STM32F4xx_StdPeriph_Driver/src/stm32f4xx_rtc.c ****     {
 616              		.loc 1 559 5 view .LVU167
 617              	@ ../Libraries/STM32F4xx_StdPeriph_Driver/src/stm32f4xx_rtc.c:559:     if ((RTC->ISR & RTC_ISR_INIT
 559:../Libraries/STM32F4xx_StdPeriph_Driver/src/stm32f4xx_rtc.c ****     {
 618              		.loc 1 559 13 is_stmt 0 view .LVU168
 619 0066 0F4B     		ldr	r3, .L52	@ tmp179,
 620 0068 D868     		ldr	r0, [r3, #12]	@ _47, MEM[(struct RTC_TypeDef *)1073752064B].ISR
 621              	@ ../Libraries/STM32F4xx_StdPeriph_Driver/src/stm32f4xx_rtc.c:559:     if ((RTC->ISR & RTC_ISR_INIT
 559:../Libraries/STM32F4xx_StdPeriph_Driver/src/stm32f4xx_rtc.c ****     {
 622              		.loc 1 559 8 view .LVU169
 623 006a 10F04000 		ands	r0, r0, #64	@ tmp180, _47,
 624 006e 14D0     		beq	.L41		@,
 625              	.LVL29:
 626              	.L44:
 559:../Libraries/STM32F4xx_StdPeriph_Driver/src/stm32f4xx_rtc.c ****     {
 627              		.loc 1 559 8 view .LVU170
 628              	.LBE117:
 629              	.LBE116:
 630              	.LBE118:
 631              	.LBE119:
 466:../Libraries/STM32F4xx_StdPeriph_Driver/src/stm32f4xx_rtc.c ****     /* Set RTC_CR register */
 632              		.loc 1 466 5 is_stmt 1 view .LVU171
 633              	@ ../Libraries/STM32F4xx_StdPeriph_Driver/src/stm32f4xx_rtc.c:466:     RTC->CR &= ((uint32_t)~(RTC_
 466:../Libraries/STM32F4xx_StdPeriph_Driver/src/stm32f4xx_rtc.c ****     /* Set RTC_CR register */
 634              		.loc 1 466 13 is_stmt 0 view .LVU172
 635 0070 0C4B     		ldr	r3, .L52	@ tmp164,
 636 0072 9A68     		ldr	r2, [r3, #8]	@ _9, MEM[(struct RTC_TypeDef *)1073752064B].CR
 637 0074 22F04002 		bic	r2, r2, #64	@ _10, _9,
 638 0078 9A60     		str	r2, [r3, #8]	@ _10, MEM[(struct RTC_TypeDef *)1073752064B].CR
 468:../Libraries/STM32F4xx_StdPeriph_Driver/src/stm32f4xx_rtc.c ****   
 639              		.loc 1 468 5 is_stmt 1 view .LVU173
 640              	@ ../Libraries/STM32F4xx_StdPeriph_Driver/src/stm32f4xx_rtc.c:468:     RTC->CR |=  ((uint32_t)(RTC_
 468:../Libraries/STM32F4xx_StdPeriph_Driver/src/stm32f4xx_rtc.c ****   
 641              		.loc 1 468 13 is_stmt 0 view .LVU174
 642 007a 9A68     		ldr	r2, [r3, #8]	@ _11, MEM[(struct RTC_TypeDef *)1073752064B].CR
 643 007c 2168     		ldr	r1, [r4]	@ RTC_InitStruct_23(D)->RTC_HourFormat, RTC_InitStruct_23(D)->RTC_HourFormat
 644 007e 0A43     		orrs	r2, r2, r1	@, _13, _11, RTC_InitStruct_23(D)->RTC_HourFormat
 645 0080 9A60     		str	r2, [r3, #8]	@ _13, MEM[(struct RTC_TypeDef *)1073752064B].CR
 471:../Libraries/STM32F4xx_StdPeriph_Driver/src/stm32f4xx_rtc.c ****     RTC->PRER |= (uint32_t)(RTC_InitStruct->RTC_AsynchPrediv << 16);
 646              		.loc 1 471 5 is_stmt 1 view .LVU175
 647              	@ ../Libraries/STM32F4xx_StdPeriph_Driver/src/stm32f4xx_rtc.c:471:     RTC->PRER = (uint32_t)(RTC_I
 471:../Libraries/STM32F4xx_StdPeriph_Driver/src/stm32f4xx_rtc.c ****     RTC->PRER |= (uint32_t)(RTC_InitStruct->RTC_AsynchPrediv << 16);
 648              		.loc 1 471 42 is_stmt 0 view .LVU176
 649 0082 A268     		ldr	r2, [r4, #8]	@ _14, RTC_InitStruct_23(D)->RTC_SynchPrediv
 650              	@ ../Libraries/STM32F4xx_StdPeriph_Driver/src/stm32f4xx_rtc.c:471:     RTC->PRER = (uint32_t)(RTC_I
 471:../Libraries/STM32F4xx_StdPeriph_Driver/src/stm32f4xx_rtc.c ****     RTC->PRER |= (uint32_t)(RTC_InitStruct->RTC_AsynchPrediv << 16);
 651              		.loc 1 471 15 view .LVU177
 652 0084 1A61     		str	r2, [r3, #16]	@ _14, MEM[(struct RTC_TypeDef *)1073752064B].PRER
 472:../Libraries/STM32F4xx_StdPeriph_Driver/src/stm32f4xx_rtc.c **** 
ARM GAS  C:\Users\admin\AppData\Local\Temp\ccyr4W1e.s 			page 26


 653              		.loc 1 472 5 is_stmt 1 view .LVU178
 654              	@ ../Libraries/STM32F4xx_StdPeriph_Driver/src/stm32f4xx_rtc.c:472:     RTC->PRER |= (uint32_t)(RTC_
 472:../Libraries/STM32F4xx_StdPeriph_Driver/src/stm32f4xx_rtc.c **** 
 655              		.loc 1 472 15 is_stmt 0 view .LVU179
 656 0086 1A69     		ldr	r2, [r3, #16]	@ _15, MEM[(struct RTC_TypeDef *)1073752064B].PRER
 657              	@ ../Libraries/STM32F4xx_StdPeriph_Driver/src/stm32f4xx_rtc.c:472:     RTC->PRER |= (uint32_t)(RTC_
 472:../Libraries/STM32F4xx_StdPeriph_Driver/src/stm32f4xx_rtc.c **** 
 658              		.loc 1 472 62 view .LVU180
 659 0088 6168     		ldr	r1, [r4, #4]	@ RTC_InitStruct_23(D)->RTC_AsynchPrediv, RTC_InitStruct_23(D)->RTC_AsynchPrediv
 660              	@ ../Libraries/STM32F4xx_StdPeriph_Driver/src/stm32f4xx_rtc.c:472:     RTC->PRER |= (uint32_t)(RTC_
 472:../Libraries/STM32F4xx_StdPeriph_Driver/src/stm32f4xx_rtc.c **** 
 661              		.loc 1 472 15 view .LVU181
 662 008a 42EA0142 		orr	r2, r2, r1, lsl #16	@ _18, _15, RTC_InitStruct_23(D)->RTC_AsynchPrediv,
 663 008e 1A61     		str	r2, [r3, #16]	@ _18, MEM[(struct RTC_TypeDef *)1073752064B].PRER
 475:../Libraries/STM32F4xx_StdPeriph_Driver/src/stm32f4xx_rtc.c **** 
 664              		.loc 1 475 5 is_stmt 1 view .LVU182
 665              	.LBB120:
 666              	.LBI120:
 585:../Libraries/STM32F4xx_StdPeriph_Driver/src/stm32f4xx_rtc.c **** { 
 667              		.loc 1 585 6 view .LVU183
 668              	.LBB121:
 588:../Libraries/STM32F4xx_StdPeriph_Driver/src/stm32f4xx_rtc.c **** }
 669              		.loc 1 588 3 view .LVU184
 670              	@ ../Libraries/STM32F4xx_StdPeriph_Driver/src/stm32f4xx_rtc.c:588:   RTC->ISR &= (uint32_t)~RTC_ISR
 588:../Libraries/STM32F4xx_StdPeriph_Driver/src/stm32f4xx_rtc.c **** }
 671              		.loc 1 588 12 is_stmt 0 view .LVU185
 672 0090 DA68     		ldr	r2, [r3, #12]	@ _35, MEM[(struct RTC_TypeDef *)1073752064B].ISR
 673 0092 22F08002 		bic	r2, r2, #128	@ _36, _35,
 674              	.LBE121:
 675              	.LBE120:
 676              	@ ../Libraries/STM32F4xx_StdPeriph_Driver/src/stm32f4xx_rtc.c:477:     status = SUCCESS;    
 477:../Libraries/STM32F4xx_StdPeriph_Driver/src/stm32f4xx_rtc.c ****   }
 677              		.loc 1 477 12 view .LVU186
 678 0096 0120     		movs	r0, #1	@ <retval>,
 679              	.LBB123:
 680              	.LBB122:
 681              	@ ../Libraries/STM32F4xx_StdPeriph_Driver/src/stm32f4xx_rtc.c:588:   RTC->ISR &= (uint32_t)~RTC_ISR
 588:../Libraries/STM32F4xx_StdPeriph_Driver/src/stm32f4xx_rtc.c **** }
 682              		.loc 1 588 12 view .LVU187
 683 0098 DA60     		str	r2, [r3, #12]	@ _36, MEM[(struct RTC_TypeDef *)1073752064B].ISR
 684              	.LBE122:
 685              	.LBE123:
 477:../Libraries/STM32F4xx_StdPeriph_Driver/src/stm32f4xx_rtc.c ****   }
 686              		.loc 1 477 5 is_stmt 1 view .LVU188
 687              	.LVL30:
 688              	.L41:
 480:../Libraries/STM32F4xx_StdPeriph_Driver/src/stm32f4xx_rtc.c ****   
 689              		.loc 1 480 3 view .LVU189
 690              	@ ../Libraries/STM32F4xx_StdPeriph_Driver/src/stm32f4xx_rtc.c:480:   RTC->WPR = 0xFF; 
 480:../Libraries/STM32F4xx_StdPeriph_Driver/src/stm32f4xx_rtc.c ****   
 691              		.loc 1 480 12 is_stmt 0 view .LVU190
 692 009a 024B     		ldr	r3, .L52	@ tmp181,
 693 009c FF22     		movs	r2, #255	@ tmp182,
 694 009e 5A62     		str	r2, [r3, #36]	@ tmp182, MEM[(struct RTC_TypeDef *)1073752064B].WPR
 482:../Libraries/STM32F4xx_StdPeriph_Driver/src/stm32f4xx_rtc.c **** }
 695              		.loc 1 482 3 is_stmt 1 view .LVU191
 696              	@ ../Libraries/STM32F4xx_StdPeriph_Driver/src/stm32f4xx_rtc.c:483: }
ARM GAS  C:\Users\admin\AppData\Local\Temp\ccyr4W1e.s 			page 27


 483:../Libraries/STM32F4xx_StdPeriph_Driver/src/stm32f4xx_rtc.c **** 
 697              		.loc 1 483 1 is_stmt 0 view .LVU192
 698 00a0 02B0     		add	sp, sp, #8	@,,
 699              		.cfi_def_cfa_offset 8
 700              		@ sp needed	@
 701 00a2 10BD     		pop	{r4, pc}	@
 702              	.LVL31:
 703              	.L53:
 483:../Libraries/STM32F4xx_StdPeriph_Driver/src/stm32f4xx_rtc.c **** 
 704              		.loc 1 483 1 view .LVU193
 705              		.align	2
 706              	.L52:
 707 00a4 00280040 		.word	1073752064
 708              		.cfi_endproc
 709              	.LFE111:
 710              		.size	RTC_Init, .-RTC_Init
 711              		.section	.text.RTC_StructInit,"ax",%progbits
 712              		.align	1
 713              		.p2align 2,,3
 714              		.global	RTC_StructInit
 715              		.syntax unified
 716              		.thumb
 717              		.thumb_func
 718              		.type	RTC_StructInit, %function
 719              	RTC_StructInit:
 720              	.LVL32:
 721              	.LFB112:
 492:../Libraries/STM32F4xx_StdPeriph_Driver/src/stm32f4xx_rtc.c ****   /* Initialize the RTC_HourFormat member */
 722              		.loc 1 492 1 is_stmt 1 view -0
 723              		.cfi_startproc
 724              		@ args = 0, pretend = 0, frame = 0
 725              		@ frame_needed = 0, uses_anonymous_args = 0
 726              		@ link register save eliminated.
 494:../Libraries/STM32F4xx_StdPeriph_Driver/src/stm32f4xx_rtc.c ****     
 727              		.loc 1 494 3 view .LVU195
 728              	@ ../Libraries/STM32F4xx_StdPeriph_Driver/src/stm32f4xx_rtc.c:500:   RTC_InitStruct->RTC_SynchPredi
 500:../Libraries/STM32F4xx_StdPeriph_Driver/src/stm32f4xx_rtc.c **** }
 729              		.loc 1 500 35 is_stmt 0 view .LVU196
 730 0000 0021     		movs	r1, #0	@ tmp114,
 731 0002 7F22     		movs	r2, #127	@ tmp115,
 732 0004 FF23     		movs	r3, #255	@ tmp116,
 733 0006 80E80E00 		stm	r0, {r1, r2, r3}	@ RTC_InitStruct,,,
 734              	@ ../Libraries/STM32F4xx_StdPeriph_Driver/src/stm32f4xx_rtc.c:501: }
 501:../Libraries/STM32F4xx_StdPeriph_Driver/src/stm32f4xx_rtc.c **** 
 735              		.loc 1 501 1 view .LVU197
 736 000a 7047     		bx	lr	@
 737              		.cfi_endproc
 738              	.LFE112:
 739              		.size	RTC_StructInit, .-RTC_StructInit
 740              		.section	.text.RTC_WriteProtectionCmd,"ax",%progbits
 741              		.align	1
 742              		.p2align 2,,3
 743              		.global	RTC_WriteProtectionCmd
 744              		.syntax unified
 745              		.thumb
 746              		.thumb_func
 747              		.type	RTC_WriteProtectionCmd, %function
ARM GAS  C:\Users\admin\AppData\Local\Temp\ccyr4W1e.s 			page 28


 748              	RTC_WriteProtectionCmd:
 749              	.LVL33:
 750              	.LFB113:
 514:../Libraries/STM32F4xx_StdPeriph_Driver/src/stm32f4xx_rtc.c ****   /* Check the parameters */
 751              		.loc 1 514 1 is_stmt 1 view -0
 752              		.cfi_startproc
 753              		@ args = 0, pretend = 0, frame = 0
 754              		@ frame_needed = 0, uses_anonymous_args = 0
 516:../Libraries/STM32F4xx_StdPeriph_Driver/src/stm32f4xx_rtc.c ****     
 755              		.loc 1 516 3 view .LVU199
 756 0000 0128     		cmp	r0, #1	@ NewState,
 757              	@ ../Libraries/STM32F4xx_StdPeriph_Driver/src/stm32f4xx_rtc.c:514: {
 514:../Libraries/STM32F4xx_StdPeriph_Driver/src/stm32f4xx_rtc.c ****   /* Check the parameters */
 758              		.loc 1 514 1 is_stmt 0 view .LVU200
 759 0002 10B5     		push	{r4, lr}	@
 760              		.cfi_def_cfa_offset 8
 761              		.cfi_offset 4, -8
 762              		.cfi_offset 14, -4
 763              	@ ../Libraries/STM32F4xx_StdPeriph_Driver/src/stm32f4xx_rtc.c:514: {
 514:../Libraries/STM32F4xx_StdPeriph_Driver/src/stm32f4xx_rtc.c ****   /* Check the parameters */
 764              		.loc 1 514 1 view .LVU201
 765 0004 0446     		mov	r4, r0	@ NewState, tmp126
 766              	@ ../Libraries/STM32F4xx_StdPeriph_Driver/src/stm32f4xx_rtc.c:516:   assert_param(IS_FUNCTIONAL_STA
 516:../Libraries/STM32F4xx_StdPeriph_Driver/src/stm32f4xx_rtc.c ****     
 767              		.loc 1 516 3 view .LVU202
 768 0006 8CBF     		ite	hi
 769 0008 0020     		movhi	r0, #0	@,
 770              	.LVL34:
 516:../Libraries/STM32F4xx_StdPeriph_Driver/src/stm32f4xx_rtc.c ****     
 771              		.loc 1 516 3 view .LVU203
 772 000a 0120     		movls	r0, #1	@,
 773 000c FFF7FEFF 		bl	assert_param		@
 774              	.LVL35:
 518:../Libraries/STM32F4xx_StdPeriph_Driver/src/stm32f4xx_rtc.c ****   {
 775              		.loc 1 518 3 is_stmt 1 view .LVU204
 776              	@ ../Libraries/STM32F4xx_StdPeriph_Driver/src/stm32f4xx_rtc.c:521:     RTC->WPR = 0xFF;   
 521:../Libraries/STM32F4xx_StdPeriph_Driver/src/stm32f4xx_rtc.c ****   }
 777              		.loc 1 521 14 is_stmt 0 view .LVU205
 778 0010 044B     		ldr	r3, .L59	@ tmp120,
 779              	@ ../Libraries/STM32F4xx_StdPeriph_Driver/src/stm32f4xx_rtc.c:518:   if (NewState != DISABLE)
 518:../Libraries/STM32F4xx_StdPeriph_Driver/src/stm32f4xx_rtc.c ****   {
 780              		.loc 1 518 6 view .LVU206
 781 0012 14B1     		cbz	r4, .L56	@ NewState,
 521:../Libraries/STM32F4xx_StdPeriph_Driver/src/stm32f4xx_rtc.c ****   }
 782              		.loc 1 521 5 is_stmt 1 view .LVU207
 783              	@ ../Libraries/STM32F4xx_StdPeriph_Driver/src/stm32f4xx_rtc.c:521:     RTC->WPR = 0xFF;   
 521:../Libraries/STM32F4xx_StdPeriph_Driver/src/stm32f4xx_rtc.c ****   }
 784              		.loc 1 521 14 is_stmt 0 view .LVU208
 785 0014 FF22     		movs	r2, #255	@ tmp121,
 786 0016 5A62     		str	r2, [r3, #36]	@ tmp121,
 787              	@ ../Libraries/STM32F4xx_StdPeriph_Driver/src/stm32f4xx_rtc.c:529: }
 529:../Libraries/STM32F4xx_StdPeriph_Driver/src/stm32f4xx_rtc.c **** 
 788              		.loc 1 529 1 view .LVU209
 789 0018 10BD     		pop	{r4, pc}	@
 790              	.L56:
 526:../Libraries/STM32F4xx_StdPeriph_Driver/src/stm32f4xx_rtc.c ****     RTC->WPR = 0x53;    
 791              		.loc 1 526 5 is_stmt 1 view .LVU210
ARM GAS  C:\Users\admin\AppData\Local\Temp\ccyr4W1e.s 			page 29


 792              	@ ../Libraries/STM32F4xx_StdPeriph_Driver/src/stm32f4xx_rtc.c:526:     RTC->WPR = 0xCA;
 526:../Libraries/STM32F4xx_StdPeriph_Driver/src/stm32f4xx_rtc.c ****     RTC->WPR = 0x53;    
 793              		.loc 1 526 14 is_stmt 0 view .LVU211
 794 001a CA21     		movs	r1, #202	@ tmp123,
 795              	@ ../Libraries/STM32F4xx_StdPeriph_Driver/src/stm32f4xx_rtc.c:527:     RTC->WPR = 0x53;    
 527:../Libraries/STM32F4xx_StdPeriph_Driver/src/stm32f4xx_rtc.c ****   }
 796              		.loc 1 527 14 view .LVU212
 797 001c 5322     		movs	r2, #83	@ tmp125,
 798              	@ ../Libraries/STM32F4xx_StdPeriph_Driver/src/stm32f4xx_rtc.c:526:     RTC->WPR = 0xCA;
 526:../Libraries/STM32F4xx_StdPeriph_Driver/src/stm32f4xx_rtc.c ****     RTC->WPR = 0x53;    
 799              		.loc 1 526 14 view .LVU213
 800 001e 5962     		str	r1, [r3, #36]	@ tmp123, MEM[(struct RTC_TypeDef *)1073752064B].WPR
 527:../Libraries/STM32F4xx_StdPeriph_Driver/src/stm32f4xx_rtc.c ****   }
 801              		.loc 1 527 5 is_stmt 1 view .LVU214
 802              	@ ../Libraries/STM32F4xx_StdPeriph_Driver/src/stm32f4xx_rtc.c:527:     RTC->WPR = 0x53;    
 527:../Libraries/STM32F4xx_StdPeriph_Driver/src/stm32f4xx_rtc.c ****   }
 803              		.loc 1 527 14 is_stmt 0 view .LVU215
 804 0020 5A62     		str	r2, [r3, #36]	@ tmp125,
 805              	@ ../Libraries/STM32F4xx_StdPeriph_Driver/src/stm32f4xx_rtc.c:529: }
 529:../Libraries/STM32F4xx_StdPeriph_Driver/src/stm32f4xx_rtc.c **** 
 806              		.loc 1 529 1 view .LVU216
 807 0022 10BD     		pop	{r4, pc}	@
 808              	.L60:
 809              		.align	2
 810              	.L59:
 811 0024 00280040 		.word	1073752064
 812              		.cfi_endproc
 813              	.LFE113:
 814              		.size	RTC_WriteProtectionCmd, .-RTC_WriteProtectionCmd
 815              		.section	.text.RTC_EnterInitMode,"ax",%progbits
 816              		.align	1
 817              		.p2align 2,,3
 818              		.global	RTC_EnterInitMode
 819              		.syntax unified
 820              		.thumb
 821              		.thumb_func
 822              		.type	RTC_EnterInitMode, %function
 823              	RTC_EnterInitMode:
 824              	.LFB114:
 541:../Libraries/STM32F4xx_StdPeriph_Driver/src/stm32f4xx_rtc.c ****   __IO uint32_t initcounter = 0x00;
 825              		.loc 1 541 1 is_stmt 1 view -0
 826              		.cfi_startproc
 827              		@ args = 0, pretend = 0, frame = 8
 828              		@ frame_needed = 0, uses_anonymous_args = 0
 829              		@ link register save eliminated.
 542:../Libraries/STM32F4xx_StdPeriph_Driver/src/stm32f4xx_rtc.c ****   ErrorStatus status = ERROR;
 830              		.loc 1 542 3 view .LVU218
 831              	@ ../Libraries/STM32F4xx_StdPeriph_Driver/src/stm32f4xx_rtc.c:541: {
 541:../Libraries/STM32F4xx_StdPeriph_Driver/src/stm32f4xx_rtc.c ****   __IO uint32_t initcounter = 0x00;
 832              		.loc 1 541 1 is_stmt 0 view .LVU219
 833 0000 82B0     		sub	sp, sp, #8	@,,
 834              		.cfi_def_cfa_offset 8
 835              	@ ../Libraries/STM32F4xx_StdPeriph_Driver/src/stm32f4xx_rtc.c:542:   __IO uint32_t initcounter = 0x
 542:../Libraries/STM32F4xx_StdPeriph_Driver/src/stm32f4xx_rtc.c ****   ErrorStatus status = ERROR;
 836              		.loc 1 542 17 view .LVU220
 837 0002 0023     		movs	r3, #0	@ tmp124,
 838              	@ ../Libraries/STM32F4xx_StdPeriph_Driver/src/stm32f4xx_rtc.c:547:   if ((RTC->ISR & RTC_ISR_INITF)
ARM GAS  C:\Users\admin\AppData\Local\Temp\ccyr4W1e.s 			page 30


 547:../Libraries/STM32F4xx_StdPeriph_Driver/src/stm32f4xx_rtc.c ****   {
 839              		.loc 1 547 11 view .LVU221
 840 0004 0E49     		ldr	r1, .L73	@ tmp125,
 841              	@ ../Libraries/STM32F4xx_StdPeriph_Driver/src/stm32f4xx_rtc.c:542:   __IO uint32_t initcounter = 0x
 542:../Libraries/STM32F4xx_StdPeriph_Driver/src/stm32f4xx_rtc.c ****   ErrorStatus status = ERROR;
 842              		.loc 1 542 17 view .LVU222
 843 0006 0193     		str	r3, [sp, #4]	@ tmp124, initcounter
 543:../Libraries/STM32F4xx_StdPeriph_Driver/src/stm32f4xx_rtc.c ****   uint32_t initstatus = 0x00;
 844              		.loc 1 543 3 is_stmt 1 view .LVU223
 845              	.LVL36:
 544:../Libraries/STM32F4xx_StdPeriph_Driver/src/stm32f4xx_rtc.c ****      
 846              		.loc 1 544 3 view .LVU224
 547:../Libraries/STM32F4xx_StdPeriph_Driver/src/stm32f4xx_rtc.c ****   {
 847              		.loc 1 547 3 view .LVU225
 848              	@ ../Libraries/STM32F4xx_StdPeriph_Driver/src/stm32f4xx_rtc.c:547:   if ((RTC->ISR & RTC_ISR_INITF)
 547:../Libraries/STM32F4xx_StdPeriph_Driver/src/stm32f4xx_rtc.c ****   {
 849              		.loc 1 547 11 is_stmt 0 view .LVU226
 850 0008 CB68     		ldr	r3, [r1, #12]	@ _1, MEM[(struct RTC_TypeDef *)1073752064B].ISR
 851              	@ ../Libraries/STM32F4xx_StdPeriph_Driver/src/stm32f4xx_rtc.c:547:   if ((RTC->ISR & RTC_ISR_INITF)
 547:../Libraries/STM32F4xx_StdPeriph_Driver/src/stm32f4xx_rtc.c ****   {
 852              		.loc 1 547 6 view .LVU227
 853 000a 5B06     		lsls	r3, r3, #25	@, _1,
 854 000c 14D4     		bmi	.L65		@,
 550:../Libraries/STM32F4xx_StdPeriph_Driver/src/stm32f4xx_rtc.c ****     
 855              		.loc 1 550 5 is_stmt 1 view .LVU228
 856              	@ ../Libraries/STM32F4xx_StdPeriph_Driver/src/stm32f4xx_rtc.c:550:     RTC->ISR = (uint32_t)RTC_INI
 550:../Libraries/STM32F4xx_StdPeriph_Driver/src/stm32f4xx_rtc.c ****     
 857              		.loc 1 550 14 is_stmt 0 view .LVU229
 858 000e 4FF0FF33 		mov	r3, #-1	@ tmp128,
 859 0012 CB60     		str	r3, [r1, #12]	@ tmp128, MEM[(struct RTC_TypeDef *)1073752064B].ISR
 860 0014 00E0     		b	.L64		@
 861              	.LVL37:
 862              	.L72:
 863              	@ ../Libraries/STM32F4xx_StdPeriph_Driver/src/stm32f4xx_rtc.c:557:     } while((initcounter != INIT
 557:../Libraries/STM32F4xx_StdPeriph_Driver/src/stm32f4xx_rtc.c ****     
 864              		.loc 1 557 47 discriminator 1 view .LVU230
 865 0016 4AB9     		cbnz	r2, .L63	@ initstatus,
 866              	.LVL38:
 867              	.L64:
 553:../Libraries/STM32F4xx_StdPeriph_Driver/src/stm32f4xx_rtc.c ****     {
 868              		.loc 1 553 5 is_stmt 1 discriminator 2 view .LVU231
 555:../Libraries/STM32F4xx_StdPeriph_Driver/src/stm32f4xx_rtc.c ****       initcounter++;  
 869              		.loc 1 555 7 discriminator 2 view .LVU232
 870              	@ ../Libraries/STM32F4xx_StdPeriph_Driver/src/stm32f4xx_rtc.c:555:       initstatus = RTC->ISR & RT
 555:../Libraries/STM32F4xx_StdPeriph_Driver/src/stm32f4xx_rtc.c ****       initcounter++;  
 871              		.loc 1 555 23 is_stmt 0 discriminator 2 view .LVU233
 872 0018 CA68     		ldr	r2, [r1, #12]	@ _3, MEM[(struct RTC_TypeDef *)1073752064B].ISR
 873              	@ ../Libraries/STM32F4xx_StdPeriph_Driver/src/stm32f4xx_rtc.c:556:       initcounter++;  
 556:../Libraries/STM32F4xx_StdPeriph_Driver/src/stm32f4xx_rtc.c ****     } while((initcounter != INITMODE_TIMEOUT) && (initstatus == 0x00));
 874              		.loc 1 556 18 discriminator 2 view .LVU234
 875 001a 019B     		ldr	r3, [sp, #4]	@ initcounter.4_4, initcounter
 876 001c 0133     		adds	r3, r3, #1	@ _5, initcounter.4_4,
 877 001e 0193     		str	r3, [sp, #4]	@ _5, initcounter
 878              	@ ../Libraries/STM32F4xx_StdPeriph_Driver/src/stm32f4xx_rtc.c:557:     } while((initcounter != INIT
 557:../Libraries/STM32F4xx_StdPeriph_Driver/src/stm32f4xx_rtc.c ****     
 879              		.loc 1 557 26 discriminator 2 view .LVU235
 880 0020 019B     		ldr	r3, [sp, #4]	@ initcounter.5_6, initcounter
ARM GAS  C:\Users\admin\AppData\Local\Temp\ccyr4W1e.s 			page 31


 881              	@ ../Libraries/STM32F4xx_StdPeriph_Driver/src/stm32f4xx_rtc.c:557:     } while((initcounter != INIT
 557:../Libraries/STM32F4xx_StdPeriph_Driver/src/stm32f4xx_rtc.c ****     
 882              		.loc 1 557 5 discriminator 2 view .LVU236
 883 0022 B3F5803F 		cmp	r3, #65536	@ initcounter.5_6,
 884              	@ ../Libraries/STM32F4xx_StdPeriph_Driver/src/stm32f4xx_rtc.c:555:       initstatus = RTC->ISR & RT
 555:../Libraries/STM32F4xx_StdPeriph_Driver/src/stm32f4xx_rtc.c ****       initcounter++;  
 885              		.loc 1 555 18 discriminator 2 view .LVU237
 886 0026 02F04002 		and	r2, r2, #64	@ initstatus, _3,
 887              	.LVL39:
 556:../Libraries/STM32F4xx_StdPeriph_Driver/src/stm32f4xx_rtc.c ****     } while((initcounter != INITMODE_TIMEOUT) && (initstatus == 0x00));
 888              		.loc 1 556 7 is_stmt 1 discriminator 2 view .LVU238
 557:../Libraries/STM32F4xx_StdPeriph_Driver/src/stm32f4xx_rtc.c ****     
 889              		.loc 1 557 12 discriminator 2 view .LVU239
 890              	@ ../Libraries/STM32F4xx_StdPeriph_Driver/src/stm32f4xx_rtc.c:557:     } while((initcounter != INIT
 557:../Libraries/STM32F4xx_StdPeriph_Driver/src/stm32f4xx_rtc.c ****     
 891              		.loc 1 557 5 is_stmt 0 discriminator 2 view .LVU240
 892 002a F4D1     		bne	.L72		@,
 893              	.L63:
 894              	.LBB126:
 895              	.LBI126:
 540:../Libraries/STM32F4xx_StdPeriph_Driver/src/stm32f4xx_rtc.c **** {
 896              		.loc 1 540 13 is_stmt 1 view .LVU241
 897              	.LBB127:
 559:../Libraries/STM32F4xx_StdPeriph_Driver/src/stm32f4xx_rtc.c ****     {
 898              		.loc 1 559 5 view .LVU242
 899              	@ ../Libraries/STM32F4xx_StdPeriph_Driver/src/stm32f4xx_rtc.c:559:     if ((RTC->ISR & RTC_ISR_INIT
 559:../Libraries/STM32F4xx_StdPeriph_Driver/src/stm32f4xx_rtc.c ****     {
 900              		.loc 1 559 13 is_stmt 0 view .LVU243
 901 002c 044B     		ldr	r3, .L73	@ tmp130,
 902 002e D868     		ldr	r0, [r3, #12]	@ _17, MEM[(struct RTC_TypeDef *)1073752064B].ISR
 903              	@ ../Libraries/STM32F4xx_StdPeriph_Driver/src/stm32f4xx_rtc.c:565:       status = ERROR;
 565:../Libraries/STM32F4xx_StdPeriph_Driver/src/stm32f4xx_rtc.c ****     }        
 904              		.loc 1 565 14 view .LVU244
 905 0030 C0F38010 		ubfx	r0, r0, #6, #1	@ <retval>, _17,,
 906              	.LVL40:
 565:../Libraries/STM32F4xx_StdPeriph_Driver/src/stm32f4xx_rtc.c ****     }        
 907              		.loc 1 565 14 view .LVU245
 908              	.LBE127:
 909              	.LBE126:
 573:../Libraries/STM32F4xx_StdPeriph_Driver/src/stm32f4xx_rtc.c **** }
 910              		.loc 1 573 3 is_stmt 1 view .LVU246
 911              	@ ../Libraries/STM32F4xx_StdPeriph_Driver/src/stm32f4xx_rtc.c:574: }
 574:../Libraries/STM32F4xx_StdPeriph_Driver/src/stm32f4xx_rtc.c **** 
 912              		.loc 1 574 1 is_stmt 0 view .LVU247
 913 0034 02B0     		add	sp, sp, #8	@,,
 914              		.cfi_remember_state
 915              		.cfi_def_cfa_offset 0
 916              		@ sp needed	@
 917 0036 7047     		bx	lr	@
 918              	.LVL41:
 919              	.L65:
 920              		.cfi_restore_state
 921              	@ ../Libraries/STM32F4xx_StdPeriph_Driver/src/stm32f4xx_rtc.c:570:     status = SUCCESS;  
 570:../Libraries/STM32F4xx_StdPeriph_Driver/src/stm32f4xx_rtc.c ****   } 
 922              		.loc 1 570 12 view .LVU248
 923 0038 0120     		movs	r0, #1	@ <retval>,
 924              	.LVL42:
ARM GAS  C:\Users\admin\AppData\Local\Temp\ccyr4W1e.s 			page 32


 573:../Libraries/STM32F4xx_StdPeriph_Driver/src/stm32f4xx_rtc.c **** }
 925              		.loc 1 573 3 is_stmt 1 view .LVU249
 926              	@ ../Libraries/STM32F4xx_StdPeriph_Driver/src/stm32f4xx_rtc.c:574: }
 574:../Libraries/STM32F4xx_StdPeriph_Driver/src/stm32f4xx_rtc.c **** 
 927              		.loc 1 574 1 is_stmt 0 view .LVU250
 928 003a 02B0     		add	sp, sp, #8	@,,
 929              		.cfi_def_cfa_offset 0
 930              		@ sp needed	@
 931 003c 7047     		bx	lr	@
 932              	.L74:
 933 003e 00BF     		.align	2
 934              	.L73:
 935 0040 00280040 		.word	1073752064
 936              		.cfi_endproc
 937              	.LFE114:
 938              		.size	RTC_EnterInitMode, .-RTC_EnterInitMode
 939              		.section	.text.RTC_ExitInitMode,"ax",%progbits
 940              		.align	1
 941              		.p2align 2,,3
 942              		.global	RTC_ExitInitMode
 943              		.syntax unified
 944              		.thumb
 945              		.thumb_func
 946              		.type	RTC_ExitInitMode, %function
 947              	RTC_ExitInitMode:
 948              	.LFB115:
 586:../Libraries/STM32F4xx_StdPeriph_Driver/src/stm32f4xx_rtc.c ****   /* Exit Initialization mode */
 949              		.loc 1 586 1 is_stmt 1 view -0
 950              		.cfi_startproc
 951              		@ args = 0, pretend = 0, frame = 0
 952              		@ frame_needed = 0, uses_anonymous_args = 0
 953              		@ link register save eliminated.
 588:../Libraries/STM32F4xx_StdPeriph_Driver/src/stm32f4xx_rtc.c **** }
 954              		.loc 1 588 3 view .LVU252
 955              	@ ../Libraries/STM32F4xx_StdPeriph_Driver/src/stm32f4xx_rtc.c:588:   RTC->ISR &= (uint32_t)~RTC_ISR
 588:../Libraries/STM32F4xx_StdPeriph_Driver/src/stm32f4xx_rtc.c **** }
 956              		.loc 1 588 12 is_stmt 0 view .LVU253
 957 0000 024A     		ldr	r2, .L76	@ tmp115,
 958 0002 D368     		ldr	r3, [r2, #12]	@ _1, MEM[(struct RTC_TypeDef *)1073752064B].ISR
 959 0004 23F08003 		bic	r3, r3, #128	@ _2, _1,
 960 0008 D360     		str	r3, [r2, #12]	@ _2, MEM[(struct RTC_TypeDef *)1073752064B].ISR
 961              	@ ../Libraries/STM32F4xx_StdPeriph_Driver/src/stm32f4xx_rtc.c:589: }
 589:../Libraries/STM32F4xx_StdPeriph_Driver/src/stm32f4xx_rtc.c **** 
 962              		.loc 1 589 1 view .LVU254
 963 000a 7047     		bx	lr	@
 964              	.L77:
 965              		.align	2
 966              	.L76:
 967 000c 00280040 		.word	1073752064
 968              		.cfi_endproc
 969              	.LFE115:
 970              		.size	RTC_ExitInitMode, .-RTC_ExitInitMode
 971              		.section	.text.RTC_WaitForSynchro,"ax",%progbits
 972              		.align	1
 973              		.p2align 2,,3
 974              		.global	RTC_WaitForSynchro
 975              		.syntax unified
ARM GAS  C:\Users\admin\AppData\Local\Temp\ccyr4W1e.s 			page 33


 976              		.thumb
 977              		.thumb_func
 978              		.type	RTC_WaitForSynchro, %function
 979              	RTC_WaitForSynchro:
 980              	.LFB116:
 608:../Libraries/STM32F4xx_StdPeriph_Driver/src/stm32f4xx_rtc.c ****   __IO uint32_t synchrocounter = 0;
 981              		.loc 1 608 1 is_stmt 1 view -0
 982              		.cfi_startproc
 983              		@ args = 0, pretend = 0, frame = 8
 984              		@ frame_needed = 0, uses_anonymous_args = 0
 985              		@ link register save eliminated.
 609:../Libraries/STM32F4xx_StdPeriph_Driver/src/stm32f4xx_rtc.c ****   ErrorStatus status = ERROR;
 986              		.loc 1 609 3 view .LVU256
 987              	@ ../Libraries/STM32F4xx_StdPeriph_Driver/src/stm32f4xx_rtc.c:614:   RTC->WPR = 0xCA;
 614:../Libraries/STM32F4xx_StdPeriph_Driver/src/stm32f4xx_rtc.c ****   RTC->WPR = 0x53;
 988              		.loc 1 614 12 is_stmt 0 view .LVU257
 989 0000 0F49     		ldr	r1, .L88	@ tmp125,
 990              	@ ../Libraries/STM32F4xx_StdPeriph_Driver/src/stm32f4xx_rtc.c:608: {
 608:../Libraries/STM32F4xx_StdPeriph_Driver/src/stm32f4xx_rtc.c ****   __IO uint32_t synchrocounter = 0;
 991              		.loc 1 608 1 view .LVU258
 992 0002 82B0     		sub	sp, sp, #8	@,,
 993              		.cfi_def_cfa_offset 8
 994              	@ ../Libraries/STM32F4xx_StdPeriph_Driver/src/stm32f4xx_rtc.c:615:   RTC->WPR = 0x53;
 615:../Libraries/STM32F4xx_StdPeriph_Driver/src/stm32f4xx_rtc.c ****     
 995              		.loc 1 615 12 view .LVU259
 996 0004 5323     		movs	r3, #83	@ tmp128,
 997              	@ ../Libraries/STM32F4xx_StdPeriph_Driver/src/stm32f4xx_rtc.c:609:   __IO uint32_t synchrocounter =
 609:../Libraries/STM32F4xx_StdPeriph_Driver/src/stm32f4xx_rtc.c ****   ErrorStatus status = ERROR;
 998              		.loc 1 609 17 view .LVU260
 999 0006 0020     		movs	r0, #0	@ tmp124,
 1000              	@ ../Libraries/STM32F4xx_StdPeriph_Driver/src/stm32f4xx_rtc.c:614:   RTC->WPR = 0xCA;
 614:../Libraries/STM32F4xx_StdPeriph_Driver/src/stm32f4xx_rtc.c ****   RTC->WPR = 0x53;
 1001              		.loc 1 614 12 view .LVU261
 1002 0008 CA22     		movs	r2, #202	@ tmp126,
 1003              	@ ../Libraries/STM32F4xx_StdPeriph_Driver/src/stm32f4xx_rtc.c:609:   __IO uint32_t synchrocounter =
 609:../Libraries/STM32F4xx_StdPeriph_Driver/src/stm32f4xx_rtc.c ****   ErrorStatus status = ERROR;
 1004              		.loc 1 609 17 view .LVU262
 1005 000a 0190     		str	r0, [sp, #4]	@ tmp124, synchrocounter
 610:../Libraries/STM32F4xx_StdPeriph_Driver/src/stm32f4xx_rtc.c ****   uint32_t synchrostatus = 0x00;
 1006              		.loc 1 610 3 is_stmt 1 view .LVU263
 1007              	.LVL43:
 611:../Libraries/STM32F4xx_StdPeriph_Driver/src/stm32f4xx_rtc.c **** 
 1008              		.loc 1 611 3 view .LVU264
 614:../Libraries/STM32F4xx_StdPeriph_Driver/src/stm32f4xx_rtc.c ****   RTC->WPR = 0x53;
 1009              		.loc 1 614 3 view .LVU265
 1010              	@ ../Libraries/STM32F4xx_StdPeriph_Driver/src/stm32f4xx_rtc.c:614:   RTC->WPR = 0xCA;
 614:../Libraries/STM32F4xx_StdPeriph_Driver/src/stm32f4xx_rtc.c ****   RTC->WPR = 0x53;
 1011              		.loc 1 614 12 is_stmt 0 view .LVU266
 1012 000c 4A62     		str	r2, [r1, #36]	@ tmp126, MEM[(struct RTC_TypeDef *)1073752064B].WPR
 615:../Libraries/STM32F4xx_StdPeriph_Driver/src/stm32f4xx_rtc.c ****     
 1013              		.loc 1 615 3 is_stmt 1 view .LVU267
 1014              	@ ../Libraries/STM32F4xx_StdPeriph_Driver/src/stm32f4xx_rtc.c:615:   RTC->WPR = 0x53;
 615:../Libraries/STM32F4xx_StdPeriph_Driver/src/stm32f4xx_rtc.c ****     
 1015              		.loc 1 615 12 is_stmt 0 view .LVU268
 1016 000e 4B62     		str	r3, [r1, #36]	@ tmp128, MEM[(struct RTC_TypeDef *)1073752064B].WPR
 618:../Libraries/STM32F4xx_StdPeriph_Driver/src/stm32f4xx_rtc.c ****     
 1017              		.loc 1 618 3 is_stmt 1 view .LVU269
ARM GAS  C:\Users\admin\AppData\Local\Temp\ccyr4W1e.s 			page 34


 1018              	@ ../Libraries/STM32F4xx_StdPeriph_Driver/src/stm32f4xx_rtc.c:618:   RTC->ISR &= (uint32_t)RTC_RSF_
 618:../Libraries/STM32F4xx_StdPeriph_Driver/src/stm32f4xx_rtc.c ****     
 1019              		.loc 1 618 12 is_stmt 0 view .LVU270
 1020 0010 CB68     		ldr	r3, [r1, #12]	@ _1, MEM[(struct RTC_TypeDef *)1073752064B].ISR
 1021 0012 23F0A003 		bic	r3, r3, #160	@ _2, _1,
 1022 0016 CB60     		str	r3, [r1, #12]	@ _2, MEM[(struct RTC_TypeDef *)1073752064B].ISR
 1023 0018 00E0     		b	.L80		@
 1024              	.LVL44:
 1025              	.L87:
 1026              	@ ../Libraries/STM32F4xx_StdPeriph_Driver/src/stm32f4xx_rtc.c:625:   } while((synchrocounter != SYN
 625:../Libraries/STM32F4xx_StdPeriph_Driver/src/stm32f4xx_rtc.c ****     
 1027              		.loc 1 625 47 discriminator 1 view .LVU271
 1028 001a 4AB9     		cbnz	r2, .L79	@ synchrostatus,
 1029              	.LVL45:
 1030              	.L80:
 621:../Libraries/STM32F4xx_StdPeriph_Driver/src/stm32f4xx_rtc.c ****   {
 1031              		.loc 1 621 3 is_stmt 1 discriminator 2 view .LVU272
 623:../Libraries/STM32F4xx_StdPeriph_Driver/src/stm32f4xx_rtc.c ****     synchrocounter++;  
 1032              		.loc 1 623 5 discriminator 2 view .LVU273
 1033              	@ ../Libraries/STM32F4xx_StdPeriph_Driver/src/stm32f4xx_rtc.c:623:     synchrostatus = RTC->ISR & R
 623:../Libraries/STM32F4xx_StdPeriph_Driver/src/stm32f4xx_rtc.c ****     synchrocounter++;  
 1034              		.loc 1 623 24 is_stmt 0 discriminator 2 view .LVU274
 1035 001c CA68     		ldr	r2, [r1, #12]	@ _3, MEM[(struct RTC_TypeDef *)1073752064B].ISR
 1036              	@ ../Libraries/STM32F4xx_StdPeriph_Driver/src/stm32f4xx_rtc.c:624:     synchrocounter++;  
 624:../Libraries/STM32F4xx_StdPeriph_Driver/src/stm32f4xx_rtc.c ****   } while((synchrocounter != SYNCHRO_TIMEOUT) && (synchrostatus == 0x00));
 1037              		.loc 1 624 19 discriminator 2 view .LVU275
 1038 001e 019B     		ldr	r3, [sp, #4]	@ synchrocounter.6_4, synchrocounter
 1039 0020 0133     		adds	r3, r3, #1	@ _5, synchrocounter.6_4,
 1040 0022 0193     		str	r3, [sp, #4]	@ _5, synchrocounter
 1041              	@ ../Libraries/STM32F4xx_StdPeriph_Driver/src/stm32f4xx_rtc.c:625:   } while((synchrocounter != SYN
 625:../Libraries/STM32F4xx_StdPeriph_Driver/src/stm32f4xx_rtc.c ****     
 1042              		.loc 1 625 27 discriminator 2 view .LVU276
 1043 0024 019B     		ldr	r3, [sp, #4]	@ synchrocounter.7_6, synchrocounter
 1044              	@ ../Libraries/STM32F4xx_StdPeriph_Driver/src/stm32f4xx_rtc.c:625:   } while((synchrocounter != SYN
 625:../Libraries/STM32F4xx_StdPeriph_Driver/src/stm32f4xx_rtc.c ****     
 1045              		.loc 1 625 3 discriminator 2 view .LVU277
 1046 0026 B3F5003F 		cmp	r3, #131072	@ synchrocounter.7_6,
 1047              	@ ../Libraries/STM32F4xx_StdPeriph_Driver/src/stm32f4xx_rtc.c:623:     synchrostatus = RTC->ISR & R
 623:../Libraries/STM32F4xx_StdPeriph_Driver/src/stm32f4xx_rtc.c ****     synchrocounter++;  
 1048              		.loc 1 623 19 discriminator 2 view .LVU278
 1049 002a 02F02002 		and	r2, r2, #32	@ synchrostatus, _3,
 1050              	.LVL46:
 624:../Libraries/STM32F4xx_StdPeriph_Driver/src/stm32f4xx_rtc.c ****   } while((synchrocounter != SYNCHRO_TIMEOUT) && (synchrostatus == 0x00));
 1051              		.loc 1 624 5 is_stmt 1 discriminator 2 view .LVU279
 625:../Libraries/STM32F4xx_StdPeriph_Driver/src/stm32f4xx_rtc.c ****     
 1052              		.loc 1 625 10 discriminator 2 view .LVU280
 1053              	@ ../Libraries/STM32F4xx_StdPeriph_Driver/src/stm32f4xx_rtc.c:625:   } while((synchrocounter != SYN
 625:../Libraries/STM32F4xx_StdPeriph_Driver/src/stm32f4xx_rtc.c ****     
 1054              		.loc 1 625 3 is_stmt 0 discriminator 2 view .LVU281
 1055 002e F4D1     		bne	.L87		@,
 1056              	.L79:
 627:../Libraries/STM32F4xx_StdPeriph_Driver/src/stm32f4xx_rtc.c ****   {
 1057              		.loc 1 627 3 is_stmt 1 view .LVU282
 1058              	@ ../Libraries/STM32F4xx_StdPeriph_Driver/src/stm32f4xx_rtc.c:627:   if ((RTC->ISR & RTC_ISR_RSF) !
 627:../Libraries/STM32F4xx_StdPeriph_Driver/src/stm32f4xx_rtc.c ****   {
 1059              		.loc 1 627 11 is_stmt 0 view .LVU283
 1060 0030 034B     		ldr	r3, .L88	@ tmp132,
ARM GAS  C:\Users\admin\AppData\Local\Temp\ccyr4W1e.s 			page 35


 1061 0032 D868     		ldr	r0, [r3, #12]	@ _7, MEM[(struct RTC_TypeDef *)1073752064B].ISR
 1062              	.LVL47:
 637:../Libraries/STM32F4xx_StdPeriph_Driver/src/stm32f4xx_rtc.c ****     
 1063              		.loc 1 637 3 is_stmt 1 view .LVU284
 1064              	@ ../Libraries/STM32F4xx_StdPeriph_Driver/src/stm32f4xx_rtc.c:637:   RTC->WPR = 0xFF; 
 637:../Libraries/STM32F4xx_StdPeriph_Driver/src/stm32f4xx_rtc.c ****     
 1065              		.loc 1 637 12 is_stmt 0 view .LVU285
 1066 0034 FF22     		movs	r2, #255	@ tmp134,
 1067              	.LVL48:
 1068              	@ ../Libraries/STM32F4xx_StdPeriph_Driver/src/stm32f4xx_rtc.c:640: }
 640:../Libraries/STM32F4xx_StdPeriph_Driver/src/stm32f4xx_rtc.c **** }
 1069              		.loc 1 640 1 view .LVU286
 1070 0036 C0F34010 		ubfx	r0, r0, #5, #1	@, _7,,
 1071              	.LVL49:
 1072              	@ ../Libraries/STM32F4xx_StdPeriph_Driver/src/stm32f4xx_rtc.c:637:   RTC->WPR = 0xFF; 
 637:../Libraries/STM32F4xx_StdPeriph_Driver/src/stm32f4xx_rtc.c ****     
 1073              		.loc 1 637 12 view .LVU287
 1074 003a 5A62     		str	r2, [r3, #36]	@ tmp134, MEM[(struct RTC_TypeDef *)1073752064B].WPR
 639:../Libraries/STM32F4xx_StdPeriph_Driver/src/stm32f4xx_rtc.c **** }
 1075              		.loc 1 639 3 is_stmt 1 view .LVU288
 1076              	@ ../Libraries/STM32F4xx_StdPeriph_Driver/src/stm32f4xx_rtc.c:640: }
 1077              		.loc 1 640 1 is_stmt 0 view .LVU289
 1078 003c 02B0     		add	sp, sp, #8	@,,
 1079              		.cfi_def_cfa_offset 0
 1080              		@ sp needed	@
 1081 003e 7047     		bx	lr	@
 1082              	.L89:
 1083              		.align	2
 1084              	.L88:
 1085 0040 00280040 		.word	1073752064
 1086              		.cfi_endproc
 1087              	.LFE116:
 1088              		.size	RTC_WaitForSynchro, .-RTC_WaitForSynchro
 1089              		.section	.text.RTC_RefClockCmd,"ax",%progbits
 1090              		.align	1
 1091              		.p2align 2,,3
 1092              		.global	RTC_RefClockCmd
 1093              		.syntax unified
 1094              		.thumb
 1095              		.thumb_func
 1096              		.type	RTC_RefClockCmd, %function
 1097              	RTC_RefClockCmd:
 1098              	.LVL50:
 1099              	.LFB117:
 641:../Libraries/STM32F4xx_StdPeriph_Driver/src/stm32f4xx_rtc.c **** 
 642:../Libraries/STM32F4xx_StdPeriph_Driver/src/stm32f4xx_rtc.c **** /**
 643:../Libraries/STM32F4xx_StdPeriph_Driver/src/stm32f4xx_rtc.c ****   * @brief  Enables or disables the RTC reference clock detection.
 644:../Libraries/STM32F4xx_StdPeriph_Driver/src/stm32f4xx_rtc.c ****   * @param  NewState: new state of the RTC reference clock.
 645:../Libraries/STM32F4xx_StdPeriph_Driver/src/stm32f4xx_rtc.c ****   *          This parameter can be: ENABLE or DISABLE.
 646:../Libraries/STM32F4xx_StdPeriph_Driver/src/stm32f4xx_rtc.c ****   * @retval An ErrorStatus enumeration value:
 647:../Libraries/STM32F4xx_StdPeriph_Driver/src/stm32f4xx_rtc.c ****   *          - SUCCESS: RTC reference clock detection is enabled
 648:../Libraries/STM32F4xx_StdPeriph_Driver/src/stm32f4xx_rtc.c ****   *          - ERROR: RTC reference clock detection is disabled  
 649:../Libraries/STM32F4xx_StdPeriph_Driver/src/stm32f4xx_rtc.c ****   */
 650:../Libraries/STM32F4xx_StdPeriph_Driver/src/stm32f4xx_rtc.c **** ErrorStatus RTC_RefClockCmd(FunctionalState NewState)
 651:../Libraries/STM32F4xx_StdPeriph_Driver/src/stm32f4xx_rtc.c **** { 
 1100              		.loc 1 651 1 is_stmt 1 view -0
 1101              		.cfi_startproc
ARM GAS  C:\Users\admin\AppData\Local\Temp\ccyr4W1e.s 			page 36


 1102              		@ args = 0, pretend = 0, frame = 8
 1103              		@ frame_needed = 0, uses_anonymous_args = 0
 652:../Libraries/STM32F4xx_StdPeriph_Driver/src/stm32f4xx_rtc.c ****   ErrorStatus status = ERROR;
 1104              		.loc 1 652 3 view .LVU291
 653:../Libraries/STM32F4xx_StdPeriph_Driver/src/stm32f4xx_rtc.c ****   
 654:../Libraries/STM32F4xx_StdPeriph_Driver/src/stm32f4xx_rtc.c ****   /* Check the parameters */
 655:../Libraries/STM32F4xx_StdPeriph_Driver/src/stm32f4xx_rtc.c ****   assert_param(IS_FUNCTIONAL_STATE(NewState));
 1105              		.loc 1 655 3 view .LVU292
 1106              	@ ../Libraries/STM32F4xx_StdPeriph_Driver/src/stm32f4xx_rtc.c:651: { 
 651:../Libraries/STM32F4xx_StdPeriph_Driver/src/stm32f4xx_rtc.c ****   ErrorStatus status = ERROR;
 1107              		.loc 1 651 1 is_stmt 0 view .LVU293
 1108 0000 10B5     		push	{r4, lr}	@
 1109              		.cfi_def_cfa_offset 8
 1110              		.cfi_offset 4, -8
 1111              		.cfi_offset 14, -4
 1112              	@ ../Libraries/STM32F4xx_StdPeriph_Driver/src/stm32f4xx_rtc.c:655:   assert_param(IS_FUNCTIONAL_STA
 1113              		.loc 1 655 3 view .LVU294
 1114 0002 0128     		cmp	r0, #1	@ NewState,
 1115              	@ ../Libraries/STM32F4xx_StdPeriph_Driver/src/stm32f4xx_rtc.c:651: { 
 651:../Libraries/STM32F4xx_StdPeriph_Driver/src/stm32f4xx_rtc.c ****   ErrorStatus status = ERROR;
 1116              		.loc 1 651 1 view .LVU295
 1117 0004 0446     		mov	r4, r0	@ NewState, tmp157
 1118 0006 82B0     		sub	sp, sp, #8	@,,
 1119              		.cfi_def_cfa_offset 16
 1120              	@ ../Libraries/STM32F4xx_StdPeriph_Driver/src/stm32f4xx_rtc.c:655:   assert_param(IS_FUNCTIONAL_STA
 1121              		.loc 1 655 3 view .LVU296
 1122 0008 8CBF     		ite	hi
 1123 000a 0020     		movhi	r0, #0	@,
 1124              	.LVL51:
 1125              		.loc 1 655 3 view .LVU297
 1126 000c 0120     		movls	r0, #1	@,
 1127 000e FFF7FEFF 		bl	assert_param		@
 1128              	.LVL52:
 656:../Libraries/STM32F4xx_StdPeriph_Driver/src/stm32f4xx_rtc.c ****   
 657:../Libraries/STM32F4xx_StdPeriph_Driver/src/stm32f4xx_rtc.c ****   /* Disable the write protection for RTC registers */
 658:../Libraries/STM32F4xx_StdPeriph_Driver/src/stm32f4xx_rtc.c ****   RTC->WPR = 0xCA;
 1129              		.loc 1 658 3 is_stmt 1 view .LVU298
 1130              	@ ../Libraries/STM32F4xx_StdPeriph_Driver/src/stm32f4xx_rtc.c:658:   RTC->WPR = 0xCA;
 1131              		.loc 1 658 12 is_stmt 0 view .LVU299
 1132 0012 1A49     		ldr	r1, .L107	@ tmp136,
 1133              	.LBB134:
 1134              	.LBB135:
 1135              	@ ../Libraries/STM32F4xx_StdPeriph_Driver/src/stm32f4xx_rtc.c:542:   __IO uint32_t initcounter = 0x
 542:../Libraries/STM32F4xx_StdPeriph_Driver/src/stm32f4xx_rtc.c ****   ErrorStatus status = ERROR;
 1136              		.loc 1 542 17 view .LVU300
 1137 0014 0023     		movs	r3, #0	@ tmp140,
 1138              	.LBE135:
 1139              	.LBE134:
 1140              	@ ../Libraries/STM32F4xx_StdPeriph_Driver/src/stm32f4xx_rtc.c:658:   RTC->WPR = 0xCA;
 1141              		.loc 1 658 12 view .LVU301
 1142 0016 CA20     		movs	r0, #202	@ tmp137,
 1143              	@ ../Libraries/STM32F4xx_StdPeriph_Driver/src/stm32f4xx_rtc.c:659:   RTC->WPR = 0x53;
 659:../Libraries/STM32F4xx_StdPeriph_Driver/src/stm32f4xx_rtc.c ****   RTC->WPR = 0x53;
 1144              		.loc 1 659 12 view .LVU302
 1145 0018 5322     		movs	r2, #83	@ tmp139,
 1146              	@ ../Libraries/STM32F4xx_StdPeriph_Driver/src/stm32f4xx_rtc.c:658:   RTC->WPR = 0xCA;
 658:../Libraries/STM32F4xx_StdPeriph_Driver/src/stm32f4xx_rtc.c ****   RTC->WPR = 0x53;
ARM GAS  C:\Users\admin\AppData\Local\Temp\ccyr4W1e.s 			page 37


 1147              		.loc 1 658 12 view .LVU303
 1148 001a 4862     		str	r0, [r1, #36]	@ tmp137, MEM[(struct RTC_TypeDef *)1073752064B].WPR
 1149              		.loc 1 659 3 is_stmt 1 view .LVU304
 1150              	@ ../Libraries/STM32F4xx_StdPeriph_Driver/src/stm32f4xx_rtc.c:659:   RTC->WPR = 0x53;
 1151              		.loc 1 659 12 is_stmt 0 view .LVU305
 1152 001c 4A62     		str	r2, [r1, #36]	@ tmp139, MEM[(struct RTC_TypeDef *)1073752064B].WPR
 660:../Libraries/STM32F4xx_StdPeriph_Driver/src/stm32f4xx_rtc.c ****     
 661:../Libraries/STM32F4xx_StdPeriph_Driver/src/stm32f4xx_rtc.c ****   /* Set Initialization mode */
 662:../Libraries/STM32F4xx_StdPeriph_Driver/src/stm32f4xx_rtc.c ****   if (RTC_EnterInitMode() == ERROR)
 1153              		.loc 1 662 3 is_stmt 1 view .LVU306
 1154              	.LBB139:
 1155              	.LBI134:
 540:../Libraries/STM32F4xx_StdPeriph_Driver/src/stm32f4xx_rtc.c **** {
 1156              		.loc 1 540 13 view .LVU307
 1157              	.LBB138:
 542:../Libraries/STM32F4xx_StdPeriph_Driver/src/stm32f4xx_rtc.c ****   ErrorStatus status = ERROR;
 1158              		.loc 1 542 3 view .LVU308
 1159              	@ ../Libraries/STM32F4xx_StdPeriph_Driver/src/stm32f4xx_rtc.c:542:   __IO uint32_t initcounter = 0x
 542:../Libraries/STM32F4xx_StdPeriph_Driver/src/stm32f4xx_rtc.c ****   ErrorStatus status = ERROR;
 1160              		.loc 1 542 17 is_stmt 0 view .LVU309
 1161 001e 0193     		str	r3, [sp, #4]	@ tmp140, initcounter
 543:../Libraries/STM32F4xx_StdPeriph_Driver/src/stm32f4xx_rtc.c ****   uint32_t initstatus = 0x00;
 1162              		.loc 1 543 3 is_stmt 1 view .LVU310
 1163              	.LVL53:
 544:../Libraries/STM32F4xx_StdPeriph_Driver/src/stm32f4xx_rtc.c ****      
 1164              		.loc 1 544 3 view .LVU311
 547:../Libraries/STM32F4xx_StdPeriph_Driver/src/stm32f4xx_rtc.c ****   {
 1165              		.loc 1 547 3 view .LVU312
 1166              	@ ../Libraries/STM32F4xx_StdPeriph_Driver/src/stm32f4xx_rtc.c:547:   if ((RTC->ISR & RTC_ISR_INITF)
 547:../Libraries/STM32F4xx_StdPeriph_Driver/src/stm32f4xx_rtc.c ****   {
 1167              		.loc 1 547 11 is_stmt 0 view .LVU313
 1168 0020 CB68     		ldr	r3, [r1, #12]	@ _23, MEM[(struct RTC_TypeDef *)1073752064B].ISR
 1169              	@ ../Libraries/STM32F4xx_StdPeriph_Driver/src/stm32f4xx_rtc.c:547:   if ((RTC->ISR & RTC_ISR_INITF)
 547:../Libraries/STM32F4xx_StdPeriph_Driver/src/stm32f4xx_rtc.c ****   {
 1170              		.loc 1 547 6 view .LVU314
 1171 0022 5B06     		lsls	r3, r3, #25	@, _23,
 1172 0024 13D4     		bmi	.L96		@,
 550:../Libraries/STM32F4xx_StdPeriph_Driver/src/stm32f4xx_rtc.c ****     
 1173              		.loc 1 550 5 is_stmt 1 view .LVU315
 1174              	@ ../Libraries/STM32F4xx_StdPeriph_Driver/src/stm32f4xx_rtc.c:550:     RTC->ISR = (uint32_t)RTC_INI
 550:../Libraries/STM32F4xx_StdPeriph_Driver/src/stm32f4xx_rtc.c ****     
 1175              		.loc 1 550 14 is_stmt 0 view .LVU316
 1176 0026 4FF0FF33 		mov	r3, #-1	@ tmp144,
 1177 002a CB60     		str	r3, [r1, #12]	@ tmp144, MEM[(struct RTC_TypeDef *)1073752064B].ISR
 1178 002c 00E0     		b	.L95		@
 1179              	.LVL54:
 1180              	.L106:
 1181              	@ ../Libraries/STM32F4xx_StdPeriph_Driver/src/stm32f4xx_rtc.c:557:     } while((initcounter != INIT
 557:../Libraries/STM32F4xx_StdPeriph_Driver/src/stm32f4xx_rtc.c ****     
 1182              		.loc 1 557 47 view .LVU317
 1183 002e 4AB9     		cbnz	r2, .L94	@ initstatus,
 1184              	.LVL55:
 1185              	.L95:
 553:../Libraries/STM32F4xx_StdPeriph_Driver/src/stm32f4xx_rtc.c ****     {
 1186              		.loc 1 553 5 is_stmt 1 view .LVU318
 555:../Libraries/STM32F4xx_StdPeriph_Driver/src/stm32f4xx_rtc.c ****       initcounter++;  
 1187              		.loc 1 555 7 view .LVU319
ARM GAS  C:\Users\admin\AppData\Local\Temp\ccyr4W1e.s 			page 38


 1188              	@ ../Libraries/STM32F4xx_StdPeriph_Driver/src/stm32f4xx_rtc.c:555:       initstatus = RTC->ISR & RT
 555:../Libraries/STM32F4xx_StdPeriph_Driver/src/stm32f4xx_rtc.c ****       initcounter++;  
 1189              		.loc 1 555 23 is_stmt 0 view .LVU320
 1190 0030 CA68     		ldr	r2, [r1, #12]	@ _25, MEM[(struct RTC_TypeDef *)1073752064B].ISR
 1191              	@ ../Libraries/STM32F4xx_StdPeriph_Driver/src/stm32f4xx_rtc.c:556:       initcounter++;  
 556:../Libraries/STM32F4xx_StdPeriph_Driver/src/stm32f4xx_rtc.c ****     } while((initcounter != INITMODE_TIMEOUT) && (initstatus == 0x00));
 1192              		.loc 1 556 18 view .LVU321
 1193 0032 019B     		ldr	r3, [sp, #4]	@ initcounter.4_27, initcounter
 1194 0034 0133     		adds	r3, r3, #1	@ _28, initcounter.4_27,
 1195 0036 0193     		str	r3, [sp, #4]	@ _28, initcounter
 1196              	@ ../Libraries/STM32F4xx_StdPeriph_Driver/src/stm32f4xx_rtc.c:557:     } while((initcounter != INIT
 557:../Libraries/STM32F4xx_StdPeriph_Driver/src/stm32f4xx_rtc.c ****     
 1197              		.loc 1 557 26 view .LVU322
 1198 0038 019B     		ldr	r3, [sp, #4]	@ initcounter.5_29, initcounter
 1199              	@ ../Libraries/STM32F4xx_StdPeriph_Driver/src/stm32f4xx_rtc.c:557:     } while((initcounter != INIT
 557:../Libraries/STM32F4xx_StdPeriph_Driver/src/stm32f4xx_rtc.c ****     
 1200              		.loc 1 557 5 view .LVU323
 1201 003a B3F5803F 		cmp	r3, #65536	@ initcounter.5_29,
 1202              	@ ../Libraries/STM32F4xx_StdPeriph_Driver/src/stm32f4xx_rtc.c:555:       initstatus = RTC->ISR & RT
 555:../Libraries/STM32F4xx_StdPeriph_Driver/src/stm32f4xx_rtc.c ****       initcounter++;  
 1203              		.loc 1 555 18 view .LVU324
 1204 003e 02F04002 		and	r2, r2, #64	@ initstatus, _25,
 1205              	.LVL56:
 556:../Libraries/STM32F4xx_StdPeriph_Driver/src/stm32f4xx_rtc.c ****     } while((initcounter != INITMODE_TIMEOUT) && (initstatus == 0x00));
 1206              		.loc 1 556 7 is_stmt 1 view .LVU325
 557:../Libraries/STM32F4xx_StdPeriph_Driver/src/stm32f4xx_rtc.c ****     
 1207              		.loc 1 557 12 view .LVU326
 1208              	@ ../Libraries/STM32F4xx_StdPeriph_Driver/src/stm32f4xx_rtc.c:557:     } while((initcounter != INIT
 557:../Libraries/STM32F4xx_StdPeriph_Driver/src/stm32f4xx_rtc.c ****     
 1209              		.loc 1 557 5 is_stmt 0 view .LVU327
 1210 0042 F4D1     		bne	.L106		@,
 1211              	.L94:
 1212              	.LBB136:
 1213              	.LBI136:
 540:../Libraries/STM32F4xx_StdPeriph_Driver/src/stm32f4xx_rtc.c **** {
 1214              		.loc 1 540 13 is_stmt 1 view .LVU328
 1215              	.LBB137:
 559:../Libraries/STM32F4xx_StdPeriph_Driver/src/stm32f4xx_rtc.c ****     {
 1216              		.loc 1 559 5 view .LVU329
 1217              	@ ../Libraries/STM32F4xx_StdPeriph_Driver/src/stm32f4xx_rtc.c:559:     if ((RTC->ISR & RTC_ISR_INIT
 559:../Libraries/STM32F4xx_StdPeriph_Driver/src/stm32f4xx_rtc.c ****     {
 1218              		.loc 1 559 13 is_stmt 0 view .LVU330
 1219 0044 0D4B     		ldr	r3, .L107	@ tmp146,
 1220 0046 D868     		ldr	r0, [r3, #12]	@ _32, MEM[(struct RTC_TypeDef *)1073752064B].ISR
 1221              	@ ../Libraries/STM32F4xx_StdPeriph_Driver/src/stm32f4xx_rtc.c:559:     if ((RTC->ISR & RTC_ISR_INIT
 559:../Libraries/STM32F4xx_StdPeriph_Driver/src/stm32f4xx_rtc.c ****     {
 1222              		.loc 1 559 8 view .LVU331
 1223 0048 10F04000 		ands	r0, r0, #64	@ tmp147, _32,
 1224 004c 0BD0     		beq	.L97		@,
 1225              	.LVL57:
 1226              	.L96:
 559:../Libraries/STM32F4xx_StdPeriph_Driver/src/stm32f4xx_rtc.c ****     {
 1227              		.loc 1 559 8 view .LVU332
 1228              	.LBE137:
 1229              	.LBE136:
 1230              	.LBE138:
 1231              	.LBE139:
ARM GAS  C:\Users\admin\AppData\Local\Temp\ccyr4W1e.s 			page 39


 663:../Libraries/STM32F4xx_StdPeriph_Driver/src/stm32f4xx_rtc.c ****   {
 664:../Libraries/STM32F4xx_StdPeriph_Driver/src/stm32f4xx_rtc.c ****     status = ERROR;
 665:../Libraries/STM32F4xx_StdPeriph_Driver/src/stm32f4xx_rtc.c ****   } 
 666:../Libraries/STM32F4xx_StdPeriph_Driver/src/stm32f4xx_rtc.c ****   else
 667:../Libraries/STM32F4xx_StdPeriph_Driver/src/stm32f4xx_rtc.c ****   {  
 668:../Libraries/STM32F4xx_StdPeriph_Driver/src/stm32f4xx_rtc.c ****     if (NewState != DISABLE)
 1232              		.loc 1 668 5 is_stmt 1 view .LVU333
 1233              	@ ../Libraries/STM32F4xx_StdPeriph_Driver/src/stm32f4xx_rtc.c:668:     if (NewState != DISABLE)
 1234              		.loc 1 668 8 is_stmt 0 view .LVU334
 1235 004e 7CB9     		cbnz	r4, .L92	@ NewState,
 669:../Libraries/STM32F4xx_StdPeriph_Driver/src/stm32f4xx_rtc.c ****     {
 670:../Libraries/STM32F4xx_StdPeriph_Driver/src/stm32f4xx_rtc.c ****       /* Enable the RTC reference clock detection */
 671:../Libraries/STM32F4xx_StdPeriph_Driver/src/stm32f4xx_rtc.c ****       RTC->CR |= RTC_CR_REFCKON;   
 672:../Libraries/STM32F4xx_StdPeriph_Driver/src/stm32f4xx_rtc.c ****     }
 673:../Libraries/STM32F4xx_StdPeriph_Driver/src/stm32f4xx_rtc.c ****     else
 674:../Libraries/STM32F4xx_StdPeriph_Driver/src/stm32f4xx_rtc.c ****     {
 675:../Libraries/STM32F4xx_StdPeriph_Driver/src/stm32f4xx_rtc.c ****       /* Disable the RTC reference clock detection */
 676:../Libraries/STM32F4xx_StdPeriph_Driver/src/stm32f4xx_rtc.c ****       RTC->CR &= ~RTC_CR_REFCKON;    
 1236              		.loc 1 676 7 is_stmt 1 view .LVU335
 1237              	@ ../Libraries/STM32F4xx_StdPeriph_Driver/src/stm32f4xx_rtc.c:676:       RTC->CR &= ~RTC_CR_REFCKON
 1238              		.loc 1 676 15 is_stmt 0 view .LVU336
 1239 0050 0A4A     		ldr	r2, .L107	@ tmp150,
 1240 0052 9368     		ldr	r3, [r2, #8]	@ _6, MEM[(struct RTC_TypeDef *)1073752064B].CR
 1241 0054 23F01003 		bic	r3, r3, #16	@ _7, _6,
 1242 0058 9360     		str	r3, [r2, #8]	@ _7,
 1243              	.L98:
 677:../Libraries/STM32F4xx_StdPeriph_Driver/src/stm32f4xx_rtc.c ****     }
 678:../Libraries/STM32F4xx_StdPeriph_Driver/src/stm32f4xx_rtc.c ****     /* Exit Initialization mode */
 679:../Libraries/STM32F4xx_StdPeriph_Driver/src/stm32f4xx_rtc.c ****     RTC_ExitInitMode();
 1244              		.loc 1 679 5 is_stmt 1 view .LVU337
 1245              	.LBB140:
 1246              	.LBI140:
 585:../Libraries/STM32F4xx_StdPeriph_Driver/src/stm32f4xx_rtc.c **** { 
 1247              		.loc 1 585 6 view .LVU338
 1248              	.LBB141:
 588:../Libraries/STM32F4xx_StdPeriph_Driver/src/stm32f4xx_rtc.c **** }
 1249              		.loc 1 588 3 view .LVU339
 1250              	@ ../Libraries/STM32F4xx_StdPeriph_Driver/src/stm32f4xx_rtc.c:588:   RTC->ISR &= (uint32_t)~RTC_ISR
 588:../Libraries/STM32F4xx_StdPeriph_Driver/src/stm32f4xx_rtc.c **** }
 1251              		.loc 1 588 12 is_stmt 0 view .LVU340
 1252 005a 084A     		ldr	r2, .L107	@ tmp152,
 1253 005c D368     		ldr	r3, [r2, #12]	@ _20, MEM[(struct RTC_TypeDef *)1073752064B].ISR
 1254 005e 23F08003 		bic	r3, r3, #128	@ _21, _20,
 1255              	.LBE141:
 1256              	.LBE140:
 1257              	@ ../Libraries/STM32F4xx_StdPeriph_Driver/src/stm32f4xx_rtc.c:681:     status = SUCCESS;
 680:../Libraries/STM32F4xx_StdPeriph_Driver/src/stm32f4xx_rtc.c ****     
 681:../Libraries/STM32F4xx_StdPeriph_Driver/src/stm32f4xx_rtc.c ****     status = SUCCESS;
 1258              		.loc 1 681 12 view .LVU341
 1259 0062 0120     		movs	r0, #1	@ <retval>,
 1260              	.LBB143:
 1261              	.LBB142:
 1262              	@ ../Libraries/STM32F4xx_StdPeriph_Driver/src/stm32f4xx_rtc.c:588:   RTC->ISR &= (uint32_t)~RTC_ISR
 588:../Libraries/STM32F4xx_StdPeriph_Driver/src/stm32f4xx_rtc.c **** }
 1263              		.loc 1 588 12 view .LVU342
 1264 0064 D360     		str	r3, [r2, #12]	@ _21, MEM[(struct RTC_TypeDef *)1073752064B].ISR
 1265              	.LBE142:
ARM GAS  C:\Users\admin\AppData\Local\Temp\ccyr4W1e.s 			page 40


 1266              	.LBE143:
 1267              		.loc 1 681 5 is_stmt 1 view .LVU343
 1268              	.LVL58:
 1269              	.L97:
 682:../Libraries/STM32F4xx_StdPeriph_Driver/src/stm32f4xx_rtc.c ****   }
 683:../Libraries/STM32F4xx_StdPeriph_Driver/src/stm32f4xx_rtc.c ****   
 684:../Libraries/STM32F4xx_StdPeriph_Driver/src/stm32f4xx_rtc.c ****   /* Enable the write protection for RTC registers */
 685:../Libraries/STM32F4xx_StdPeriph_Driver/src/stm32f4xx_rtc.c ****   RTC->WPR = 0xFF;  
 1270              		.loc 1 685 3 view .LVU344
 1271              	@ ../Libraries/STM32F4xx_StdPeriph_Driver/src/stm32f4xx_rtc.c:685:   RTC->WPR = 0xFF;  
 1272              		.loc 1 685 12 is_stmt 0 view .LVU345
 1273 0066 054B     		ldr	r3, .L107	@ tmp154,
 1274 0068 FF22     		movs	r2, #255	@ tmp155,
 1275 006a 5A62     		str	r2, [r3, #36]	@ tmp155, MEM[(struct RTC_TypeDef *)1073752064B].WPR
 686:../Libraries/STM32F4xx_StdPeriph_Driver/src/stm32f4xx_rtc.c ****   
 687:../Libraries/STM32F4xx_StdPeriph_Driver/src/stm32f4xx_rtc.c ****   return status; 
 1276              		.loc 1 687 3 is_stmt 1 view .LVU346
 1277              	@ ../Libraries/STM32F4xx_StdPeriph_Driver/src/stm32f4xx_rtc.c:688: }
 688:../Libraries/STM32F4xx_StdPeriph_Driver/src/stm32f4xx_rtc.c **** }
 1278              		.loc 1 688 1 is_stmt 0 view .LVU347
 1279 006c 02B0     		add	sp, sp, #8	@,,
 1280              		.cfi_remember_state
 1281              		.cfi_def_cfa_offset 8
 1282              		@ sp needed	@
 1283 006e 10BD     		pop	{r4, pc}	@
 1284              	.LVL59:
 1285              	.L92:
 1286              		.cfi_restore_state
 671:../Libraries/STM32F4xx_StdPeriph_Driver/src/stm32f4xx_rtc.c ****     }
 1287              		.loc 1 671 7 is_stmt 1 view .LVU348
 1288              	@ ../Libraries/STM32F4xx_StdPeriph_Driver/src/stm32f4xx_rtc.c:671:       RTC->CR |= RTC_CR_REFCKON;
 671:../Libraries/STM32F4xx_StdPeriph_Driver/src/stm32f4xx_rtc.c ****     }
 1289              		.loc 1 671 15 is_stmt 0 view .LVU349
 1290 0070 024A     		ldr	r2, .L107	@ tmp148,
 1291 0072 9368     		ldr	r3, [r2, #8]	@ _4, MEM[(struct RTC_TypeDef *)1073752064B].CR
 1292 0074 43F01003 		orr	r3, r3, #16	@ _5, _4,
 1293 0078 9360     		str	r3, [r2, #8]	@ _5,
 1294 007a EEE7     		b	.L98		@
 1295              	.L108:
 1296              		.align	2
 1297              	.L107:
 1298 007c 00280040 		.word	1073752064
 1299              		.cfi_endproc
 1300              	.LFE117:
 1301              		.size	RTC_RefClockCmd, .-RTC_RefClockCmd
 1302              		.section	.text.RTC_BypassShadowCmd,"ax",%progbits
 1303              		.align	1
 1304              		.p2align 2,,3
 1305              		.global	RTC_BypassShadowCmd
 1306              		.syntax unified
 1307              		.thumb
 1308              		.thumb_func
 1309              		.type	RTC_BypassShadowCmd, %function
 1310              	RTC_BypassShadowCmd:
 1311              	.LVL60:
 1312              	.LFB118:
 689:../Libraries/STM32F4xx_StdPeriph_Driver/src/stm32f4xx_rtc.c **** 
ARM GAS  C:\Users\admin\AppData\Local\Temp\ccyr4W1e.s 			page 41


 690:../Libraries/STM32F4xx_StdPeriph_Driver/src/stm32f4xx_rtc.c **** /**
 691:../Libraries/STM32F4xx_StdPeriph_Driver/src/stm32f4xx_rtc.c ****   * @brief  Enables or Disables the Bypass Shadow feature.
 692:../Libraries/STM32F4xx_StdPeriph_Driver/src/stm32f4xx_rtc.c ****   * @note   When the Bypass Shadow is enabled the calendar value are taken 
 693:../Libraries/STM32F4xx_StdPeriph_Driver/src/stm32f4xx_rtc.c ****   *         directly from the Calendar counter.
 694:../Libraries/STM32F4xx_StdPeriph_Driver/src/stm32f4xx_rtc.c ****   * @param  NewState: new state of the Bypass Shadow feature.
 695:../Libraries/STM32F4xx_StdPeriph_Driver/src/stm32f4xx_rtc.c ****   *         This parameter can be: ENABLE or DISABLE.
 696:../Libraries/STM32F4xx_StdPeriph_Driver/src/stm32f4xx_rtc.c ****   * @retval None
 697:../Libraries/STM32F4xx_StdPeriph_Driver/src/stm32f4xx_rtc.c **** */
 698:../Libraries/STM32F4xx_StdPeriph_Driver/src/stm32f4xx_rtc.c **** void RTC_BypassShadowCmd(FunctionalState NewState)
 699:../Libraries/STM32F4xx_StdPeriph_Driver/src/stm32f4xx_rtc.c **** {
 1313              		.loc 1 699 1 is_stmt 1 view -0
 1314              		.cfi_startproc
 1315              		@ args = 0, pretend = 0, frame = 0
 1316              		@ frame_needed = 0, uses_anonymous_args = 0
 700:../Libraries/STM32F4xx_StdPeriph_Driver/src/stm32f4xx_rtc.c ****   /* Check the parameters */
 701:../Libraries/STM32F4xx_StdPeriph_Driver/src/stm32f4xx_rtc.c ****   assert_param(IS_FUNCTIONAL_STATE(NewState));
 1317              		.loc 1 701 3 view .LVU351
 1318 0000 0128     		cmp	r0, #1	@ NewState,
 1319              	@ ../Libraries/STM32F4xx_StdPeriph_Driver/src/stm32f4xx_rtc.c:699: {
 699:../Libraries/STM32F4xx_StdPeriph_Driver/src/stm32f4xx_rtc.c ****   /* Check the parameters */
 1320              		.loc 1 699 1 is_stmt 0 view .LVU352
 1321 0002 10B5     		push	{r4, lr}	@
 1322              		.cfi_def_cfa_offset 8
 1323              		.cfi_offset 4, -8
 1324              		.cfi_offset 14, -4
 1325              	@ ../Libraries/STM32F4xx_StdPeriph_Driver/src/stm32f4xx_rtc.c:699: {
 699:../Libraries/STM32F4xx_StdPeriph_Driver/src/stm32f4xx_rtc.c ****   /* Check the parameters */
 1326              		.loc 1 699 1 view .LVU353
 1327 0004 0446     		mov	r4, r0	@ NewState, tmp134
 1328              	@ ../Libraries/STM32F4xx_StdPeriph_Driver/src/stm32f4xx_rtc.c:701:   assert_param(IS_FUNCTIONAL_STA
 1329              		.loc 1 701 3 view .LVU354
 1330 0006 8CBF     		ite	hi
 1331 0008 0020     		movhi	r0, #0	@,
 1332              	.LVL61:
 1333              		.loc 1 701 3 view .LVU355
 1334 000a 0120     		movls	r0, #1	@,
 1335 000c FFF7FEFF 		bl	assert_param		@
 1336              	.LVL62:
 702:../Libraries/STM32F4xx_StdPeriph_Driver/src/stm32f4xx_rtc.c **** 
 703:../Libraries/STM32F4xx_StdPeriph_Driver/src/stm32f4xx_rtc.c ****   /* Disable the write protection for RTC registers */
 704:../Libraries/STM32F4xx_StdPeriph_Driver/src/stm32f4xx_rtc.c ****   RTC->WPR = 0xCA;
 1337              		.loc 1 704 3 is_stmt 1 view .LVU356
 1338              	@ ../Libraries/STM32F4xx_StdPeriph_Driver/src/stm32f4xx_rtc.c:704:   RTC->WPR = 0xCA;
 1339              		.loc 1 704 12 is_stmt 0 view .LVU357
 1340 0010 0A4B     		ldr	r3, .L113	@ tmp124,
 1341              	@ ../Libraries/STM32F4xx_StdPeriph_Driver/src/stm32f4xx_rtc.c:705:   RTC->WPR = 0x53;
 705:../Libraries/STM32F4xx_StdPeriph_Driver/src/stm32f4xx_rtc.c ****   RTC->WPR = 0x53;
 1342              		.loc 1 705 12 view .LVU358
 1343 0012 5322     		movs	r2, #83	@ tmp127,
 1344              	@ ../Libraries/STM32F4xx_StdPeriph_Driver/src/stm32f4xx_rtc.c:704:   RTC->WPR = 0xCA;
 704:../Libraries/STM32F4xx_StdPeriph_Driver/src/stm32f4xx_rtc.c ****   RTC->WPR = 0x53;
 1345              		.loc 1 704 12 view .LVU359
 1346 0014 CA21     		movs	r1, #202	@ tmp125,
 1347 0016 5962     		str	r1, [r3, #36]	@ tmp125, MEM[(struct RTC_TypeDef *)1073752064B].WPR
 1348              		.loc 1 705 3 is_stmt 1 view .LVU360
 1349              	@ ../Libraries/STM32F4xx_StdPeriph_Driver/src/stm32f4xx_rtc.c:705:   RTC->WPR = 0x53;
 1350              		.loc 1 705 12 is_stmt 0 view .LVU361
ARM GAS  C:\Users\admin\AppData\Local\Temp\ccyr4W1e.s 			page 42


 1351 0018 5A62     		str	r2, [r3, #36]	@ tmp127, MEM[(struct RTC_TypeDef *)1073752064B].WPR
 706:../Libraries/STM32F4xx_StdPeriph_Driver/src/stm32f4xx_rtc.c ****   
 707:../Libraries/STM32F4xx_StdPeriph_Driver/src/stm32f4xx_rtc.c ****   if (NewState != DISABLE)
 1352              		.loc 1 707 3 is_stmt 1 view .LVU362
 1353              	@ ../Libraries/STM32F4xx_StdPeriph_Driver/src/stm32f4xx_rtc.c:710:     RTC->CR |= (uint8_t)RTC_CR_B
 708:../Libraries/STM32F4xx_StdPeriph_Driver/src/stm32f4xx_rtc.c ****   {
 709:../Libraries/STM32F4xx_StdPeriph_Driver/src/stm32f4xx_rtc.c ****     /* Set the BYPSHAD bit */
 710:../Libraries/STM32F4xx_StdPeriph_Driver/src/stm32f4xx_rtc.c ****     RTC->CR |= (uint8_t)RTC_CR_BYPSHAD;
 1354              		.loc 1 710 13 is_stmt 0 view .LVU363
 1355 001a 9A68     		ldr	r2, [r3, #8]	@ _3,
 1356              	@ ../Libraries/STM32F4xx_StdPeriph_Driver/src/stm32f4xx_rtc.c:707:   if (NewState != DISABLE)
 707:../Libraries/STM32F4xx_StdPeriph_Driver/src/stm32f4xx_rtc.c ****   {
 1357              		.loc 1 707 6 view .LVU364
 1358 001c 34B1     		cbz	r4, .L110	@ NewState,
 1359              		.loc 1 710 5 is_stmt 1 view .LVU365
 1360              	@ ../Libraries/STM32F4xx_StdPeriph_Driver/src/stm32f4xx_rtc.c:710:     RTC->CR |= (uint8_t)RTC_CR_B
 1361              		.loc 1 710 13 is_stmt 0 view .LVU366
 1362 001e 42F02002 		orr	r2, r2, #32	@ _4, _3,
 1363 0022 9A60     		str	r2, [r3, #8]	@ _4,
 711:../Libraries/STM32F4xx_StdPeriph_Driver/src/stm32f4xx_rtc.c ****   }
 712:../Libraries/STM32F4xx_StdPeriph_Driver/src/stm32f4xx_rtc.c ****   else
 713:../Libraries/STM32F4xx_StdPeriph_Driver/src/stm32f4xx_rtc.c ****   {
 714:../Libraries/STM32F4xx_StdPeriph_Driver/src/stm32f4xx_rtc.c ****     /* Reset the BYPSHAD bit */
 715:../Libraries/STM32F4xx_StdPeriph_Driver/src/stm32f4xx_rtc.c ****     RTC->CR &= (uint8_t)~RTC_CR_BYPSHAD;
 716:../Libraries/STM32F4xx_StdPeriph_Driver/src/stm32f4xx_rtc.c ****   }
 717:../Libraries/STM32F4xx_StdPeriph_Driver/src/stm32f4xx_rtc.c **** 
 718:../Libraries/STM32F4xx_StdPeriph_Driver/src/stm32f4xx_rtc.c ****   /* Enable the write protection for RTC registers */
 719:../Libraries/STM32F4xx_StdPeriph_Driver/src/stm32f4xx_rtc.c ****   RTC->WPR = 0xFF;
 1364              		.loc 1 719 3 is_stmt 1 view .LVU367
 1365              	@ ../Libraries/STM32F4xx_StdPeriph_Driver/src/stm32f4xx_rtc.c:719:   RTC->WPR = 0xFF;
 1366              		.loc 1 719 12 is_stmt 0 view .LVU368
 1367 0024 054B     		ldr	r3, .L113	@ tmp132,
 1368 0026 FF22     		movs	r2, #255	@ tmp133,
 1369 0028 5A62     		str	r2, [r3, #36]	@ tmp133, MEM[(struct RTC_TypeDef *)1073752064B].WPR
 1370              	@ ../Libraries/STM32F4xx_StdPeriph_Driver/src/stm32f4xx_rtc.c:720: }
 720:../Libraries/STM32F4xx_StdPeriph_Driver/src/stm32f4xx_rtc.c **** }
 1371              		.loc 1 720 1 view .LVU369
 1372 002a 10BD     		pop	{r4, pc}	@
 1373              	.L110:
 715:../Libraries/STM32F4xx_StdPeriph_Driver/src/stm32f4xx_rtc.c ****   }
 1374              		.loc 1 715 5 is_stmt 1 view .LVU370
 1375              	@ ../Libraries/STM32F4xx_StdPeriph_Driver/src/stm32f4xx_rtc.c:715:     RTC->CR &= (uint8_t)~RTC_CR_
 715:../Libraries/STM32F4xx_StdPeriph_Driver/src/stm32f4xx_rtc.c ****   }
 1376              		.loc 1 715 13 is_stmt 0 view .LVU371
 1377 002c 02F0DF02 		and	r2, r2, #223	@ _6, _5,
 1378 0030 9A60     		str	r2, [r3, #8]	@ _6,
 719:../Libraries/STM32F4xx_StdPeriph_Driver/src/stm32f4xx_rtc.c **** }
 1379              		.loc 1 719 3 is_stmt 1 view .LVU372
 1380              	@ ../Libraries/STM32F4xx_StdPeriph_Driver/src/stm32f4xx_rtc.c:719:   RTC->WPR = 0xFF;
 719:../Libraries/STM32F4xx_StdPeriph_Driver/src/stm32f4xx_rtc.c **** }
 1381              		.loc 1 719 12 is_stmt 0 view .LVU373
 1382 0032 024B     		ldr	r3, .L113	@ tmp132,
 1383 0034 FF22     		movs	r2, #255	@ tmp133,
 1384 0036 5A62     		str	r2, [r3, #36]	@ tmp133, MEM[(struct RTC_TypeDef *)1073752064B].WPR
 1385              	@ ../Libraries/STM32F4xx_StdPeriph_Driver/src/stm32f4xx_rtc.c:720: }
 1386              		.loc 1 720 1 view .LVU374
 1387 0038 10BD     		pop	{r4, pc}	@
ARM GAS  C:\Users\admin\AppData\Local\Temp\ccyr4W1e.s 			page 43


 1388              	.L114:
 1389 003a 00BF     		.align	2
 1390              	.L113:
 1391 003c 00280040 		.word	1073752064
 1392              		.cfi_endproc
 1393              	.LFE118:
 1394              		.size	RTC_BypassShadowCmd, .-RTC_BypassShadowCmd
 1395              		.section	.text.RTC_SetTime,"ax",%progbits
 1396              		.align	1
 1397              		.p2align 2,,3
 1398              		.global	RTC_SetTime
 1399              		.syntax unified
 1400              		.thumb
 1401              		.thumb_func
 1402              		.type	RTC_SetTime, %function
 1403              	RTC_SetTime:
 1404              	.LVL63:
 1405              	.LFB119:
 721:../Libraries/STM32F4xx_StdPeriph_Driver/src/stm32f4xx_rtc.c **** 
 722:../Libraries/STM32F4xx_StdPeriph_Driver/src/stm32f4xx_rtc.c **** /**
 723:../Libraries/STM32F4xx_StdPeriph_Driver/src/stm32f4xx_rtc.c ****   * @}
 724:../Libraries/STM32F4xx_StdPeriph_Driver/src/stm32f4xx_rtc.c ****   */
 725:../Libraries/STM32F4xx_StdPeriph_Driver/src/stm32f4xx_rtc.c **** 
 726:../Libraries/STM32F4xx_StdPeriph_Driver/src/stm32f4xx_rtc.c **** /** @defgroup RTC_Group2 Time and Date configuration functions
 727:../Libraries/STM32F4xx_StdPeriph_Driver/src/stm32f4xx_rtc.c ****  *  @brief   Time and Date configuration functions 
 728:../Libraries/STM32F4xx_StdPeriph_Driver/src/stm32f4xx_rtc.c ****  *
 729:../Libraries/STM32F4xx_StdPeriph_Driver/src/stm32f4xx_rtc.c **** @verbatim   
 730:../Libraries/STM32F4xx_StdPeriph_Driver/src/stm32f4xx_rtc.c ****  ===============================================================================
 731:../Libraries/STM32F4xx_StdPeriph_Driver/src/stm32f4xx_rtc.c ****                    Time and Date configuration functions
 732:../Libraries/STM32F4xx_StdPeriph_Driver/src/stm32f4xx_rtc.c ****  ===============================================================================  
 733:../Libraries/STM32F4xx_StdPeriph_Driver/src/stm32f4xx_rtc.c **** 
 734:../Libraries/STM32F4xx_StdPeriph_Driver/src/stm32f4xx_rtc.c ****   This section provide functions allowing to program and read the RTC Calendar
 735:../Libraries/STM32F4xx_StdPeriph_Driver/src/stm32f4xx_rtc.c ****   (Time and Date).
 736:../Libraries/STM32F4xx_StdPeriph_Driver/src/stm32f4xx_rtc.c **** 
 737:../Libraries/STM32F4xx_StdPeriph_Driver/src/stm32f4xx_rtc.c **** @endverbatim
 738:../Libraries/STM32F4xx_StdPeriph_Driver/src/stm32f4xx_rtc.c ****   * @{
 739:../Libraries/STM32F4xx_StdPeriph_Driver/src/stm32f4xx_rtc.c ****   */
 740:../Libraries/STM32F4xx_StdPeriph_Driver/src/stm32f4xx_rtc.c **** 
 741:../Libraries/STM32F4xx_StdPeriph_Driver/src/stm32f4xx_rtc.c **** /**
 742:../Libraries/STM32F4xx_StdPeriph_Driver/src/stm32f4xx_rtc.c ****   * @brief  Set the RTC current time.
 743:../Libraries/STM32F4xx_StdPeriph_Driver/src/stm32f4xx_rtc.c ****   * @param  RTC_Format: specifies the format of the entered parameters.
 744:../Libraries/STM32F4xx_StdPeriph_Driver/src/stm32f4xx_rtc.c ****   *          This parameter can be  one of the following values:
 745:../Libraries/STM32F4xx_StdPeriph_Driver/src/stm32f4xx_rtc.c ****   *            @arg RTC_Format_BIN:  Binary data format 
 746:../Libraries/STM32F4xx_StdPeriph_Driver/src/stm32f4xx_rtc.c ****   *            @arg RTC_Format_BCD:  BCD data format
 747:../Libraries/STM32F4xx_StdPeriph_Driver/src/stm32f4xx_rtc.c ****   * @param  RTC_TimeStruct: pointer to a RTC_TimeTypeDef structure that contains 
 748:../Libraries/STM32F4xx_StdPeriph_Driver/src/stm32f4xx_rtc.c ****   *                        the time configuration information for the RTC.     
 749:../Libraries/STM32F4xx_StdPeriph_Driver/src/stm32f4xx_rtc.c ****   * @retval An ErrorStatus enumeration value:
 750:../Libraries/STM32F4xx_StdPeriph_Driver/src/stm32f4xx_rtc.c ****   *          - SUCCESS: RTC Time register is configured
 751:../Libraries/STM32F4xx_StdPeriph_Driver/src/stm32f4xx_rtc.c ****   *          - ERROR: RTC Time register is not configured
 752:../Libraries/STM32F4xx_StdPeriph_Driver/src/stm32f4xx_rtc.c ****   */
 753:../Libraries/STM32F4xx_StdPeriph_Driver/src/stm32f4xx_rtc.c **** ErrorStatus RTC_SetTime(uint32_t RTC_Format, RTC_TimeTypeDef* RTC_TimeStruct)
 754:../Libraries/STM32F4xx_StdPeriph_Driver/src/stm32f4xx_rtc.c **** {
 1406              		.loc 1 754 1 is_stmt 1 view -0
 1407              		.cfi_startproc
 1408              		@ args = 0, pretend = 0, frame = 8
 1409              		@ frame_needed = 0, uses_anonymous_args = 0
 755:../Libraries/STM32F4xx_StdPeriph_Driver/src/stm32f4xx_rtc.c ****   uint32_t tmpreg = 0;
ARM GAS  C:\Users\admin\AppData\Local\Temp\ccyr4W1e.s 			page 44


 1410              		.loc 1 755 3 view .LVU376
 756:../Libraries/STM32F4xx_StdPeriph_Driver/src/stm32f4xx_rtc.c ****   ErrorStatus status = ERROR;
 1411              		.loc 1 756 3 view .LVU377
 757:../Libraries/STM32F4xx_StdPeriph_Driver/src/stm32f4xx_rtc.c ****     
 758:../Libraries/STM32F4xx_StdPeriph_Driver/src/stm32f4xx_rtc.c ****   /* Check the parameters */
 759:../Libraries/STM32F4xx_StdPeriph_Driver/src/stm32f4xx_rtc.c ****   assert_param(IS_RTC_FORMAT(RTC_Format));
 1412              		.loc 1 759 3 view .LVU378
 1413              	@ ../Libraries/STM32F4xx_StdPeriph_Driver/src/stm32f4xx_rtc.c:754: {
 754:../Libraries/STM32F4xx_StdPeriph_Driver/src/stm32f4xx_rtc.c ****   uint32_t tmpreg = 0;
 1414              		.loc 1 754 1 is_stmt 0 view .LVU379
 1415 0000 F0B5     		push	{r4, r5, r6, r7, lr}	@
 1416              		.cfi_def_cfa_offset 20
 1417              		.cfi_offset 4, -20
 1418              		.cfi_offset 5, -16
 1419              		.cfi_offset 6, -12
 1420              		.cfi_offset 7, -8
 1421              		.cfi_offset 14, -4
 1422              	@ ../Libraries/STM32F4xx_StdPeriph_Driver/src/stm32f4xx_rtc.c:759:   assert_param(IS_RTC_FORMAT(RTC
 1423              		.loc 1 759 3 view .LVU380
 1424 0002 0128     		cmp	r0, #1	@ RTC_Format,
 1425              	@ ../Libraries/STM32F4xx_StdPeriph_Driver/src/stm32f4xx_rtc.c:754: {
 754:../Libraries/STM32F4xx_StdPeriph_Driver/src/stm32f4xx_rtc.c ****   uint32_t tmpreg = 0;
 1426              		.loc 1 754 1 view .LVU381
 1427 0004 0546     		mov	r5, r0	@ RTC_Format, tmp886
 1428 0006 83B0     		sub	sp, sp, #12	@,,
 1429              		.cfi_def_cfa_offset 32
 1430              	@ ../Libraries/STM32F4xx_StdPeriph_Driver/src/stm32f4xx_rtc.c:759:   assert_param(IS_RTC_FORMAT(RTC
 1431              		.loc 1 759 3 view .LVU382
 1432 0008 8CBF     		ite	hi
 1433 000a 0020     		movhi	r0, #0	@,
 1434              	.LVL64:
 1435              		.loc 1 759 3 view .LVU383
 1436 000c 0120     		movls	r0, #1	@,
 1437              	@ ../Libraries/STM32F4xx_StdPeriph_Driver/src/stm32f4xx_rtc.c:754: {
 754:../Libraries/STM32F4xx_StdPeriph_Driver/src/stm32f4xx_rtc.c ****   uint32_t tmpreg = 0;
 1438              		.loc 1 754 1 view .LVU384
 1439 000e 0C46     		mov	r4, r1	@ RTC_TimeStruct, tmp887
 1440              	@ ../Libraries/STM32F4xx_StdPeriph_Driver/src/stm32f4xx_rtc.c:759:   assert_param(IS_RTC_FORMAT(RTC
 1441              		.loc 1 759 3 view .LVU385
 1442 0010 FFF7FEFF 		bl	assert_param		@
 1443              	.LVL65:
 760:../Libraries/STM32F4xx_StdPeriph_Driver/src/stm32f4xx_rtc.c ****   
 761:../Libraries/STM32F4xx_StdPeriph_Driver/src/stm32f4xx_rtc.c ****   if (RTC_Format == RTC_Format_BIN)
 1444              		.loc 1 761 3 is_stmt 1 view .LVU386
 1445              	@ ../Libraries/STM32F4xx_StdPeriph_Driver/src/stm32f4xx_rtc.c:763:     if ((RTC->CR & RTC_CR_FMT) !
 762:../Libraries/STM32F4xx_StdPeriph_Driver/src/stm32f4xx_rtc.c ****   {
 763:../Libraries/STM32F4xx_StdPeriph_Driver/src/stm32f4xx_rtc.c ****     if ((RTC->CR & RTC_CR_FMT) != (uint32_t)RESET)
 1446              		.loc 1 763 13 is_stmt 0 view .LVU387
 1447 0014 CA4B     		ldr	r3, .L176	@ tmp418,
 1448 0016 9B68     		ldr	r3, [r3, #8]	@ _3,
 1449              	@ ../Libraries/STM32F4xx_StdPeriph_Driver/src/stm32f4xx_rtc.c:761:   if (RTC_Format == RTC_Format_B
 761:../Libraries/STM32F4xx_StdPeriph_Driver/src/stm32f4xx_rtc.c ****   {
 1450              		.loc 1 761 6 view .LVU388
 1451 0018 002D     		cmp	r5, #0	@ RTC_Format
 1452 001a 40F0B182 		bne	.L116	@
 1453              		.loc 1 763 5 is_stmt 1 view .LVU389
 1454              	@ ../Libraries/STM32F4xx_StdPeriph_Driver/src/stm32f4xx_rtc.c:763:     if ((RTC->CR & RTC_CR_FMT) !
ARM GAS  C:\Users\admin\AppData\Local\Temp\ccyr4W1e.s 			page 45


 1455              		.loc 1 763 8 is_stmt 0 view .LVU390
 1456 001e 13F04003 		ands	r3, r3, #64	@ tmp419, _3,
 1457              	@ ../Libraries/STM32F4xx_StdPeriph_Driver/src/stm32f4xx_rtc.c:765:       assert_param(IS_RTC_HOUR12
 764:../Libraries/STM32F4xx_StdPeriph_Driver/src/stm32f4xx_rtc.c ****     {
 765:../Libraries/STM32F4xx_StdPeriph_Driver/src/stm32f4xx_rtc.c ****       assert_param(IS_RTC_HOUR12(RTC_TimeStruct->RTC_Hours));
 1458              		.loc 1 765 20 view .LVU391
 1459 0022 2078     		ldrb	r0, [r4]	@ zero_extendqisi2	@ RTC_TimeStruct_78(D)->RTC_Hours, RTC_TimeStruct_78(D)->RTC_Hour
 1460              	@ ../Libraries/STM32F4xx_StdPeriph_Driver/src/stm32f4xx_rtc.c:763:     if ((RTC->CR & RTC_CR_FMT) !
 763:../Libraries/STM32F4xx_StdPeriph_Driver/src/stm32f4xx_rtc.c ****     {
 1461              		.loc 1 763 8 view .LVU392
 1462 0024 40F05483 		bne	.L172		@,
 766:../Libraries/STM32F4xx_StdPeriph_Driver/src/stm32f4xx_rtc.c ****       assert_param(IS_RTC_H12(RTC_TimeStruct->RTC_H12));
 767:../Libraries/STM32F4xx_StdPeriph_Driver/src/stm32f4xx_rtc.c ****     } 
 768:../Libraries/STM32F4xx_StdPeriph_Driver/src/stm32f4xx_rtc.c ****     else
 769:../Libraries/STM32F4xx_StdPeriph_Driver/src/stm32f4xx_rtc.c ****     {
 770:../Libraries/STM32F4xx_StdPeriph_Driver/src/stm32f4xx_rtc.c ****       RTC_TimeStruct->RTC_H12 = 0x00;
 1463              		.loc 1 770 7 is_stmt 1 view .LVU393
 1464              	@ ../Libraries/STM32F4xx_StdPeriph_Driver/src/stm32f4xx_rtc.c:771:       assert_param(IS_RTC_HOUR24
 771:../Libraries/STM32F4xx_StdPeriph_Driver/src/stm32f4xx_rtc.c ****       assert_param(IS_RTC_HOUR24(RTC_TimeStruct->RTC_Hours));
 1465              		.loc 1 771 7 is_stmt 0 view .LVU394
 1466 0028 1728     		cmp	r0, #23	@ RTC_TimeStruct_78(D)->RTC_Hours,
 1467              	@ ../Libraries/STM32F4xx_StdPeriph_Driver/src/stm32f4xx_rtc.c:770:       RTC_TimeStruct->RTC_H12 = 
 770:../Libraries/STM32F4xx_StdPeriph_Driver/src/stm32f4xx_rtc.c ****       assert_param(IS_RTC_HOUR24(RTC_TimeStruct->RTC_Hours));
 1468              		.loc 1 770 31 view .LVU395
 1469 002a E370     		strb	r3, [r4, #3]	@ tmp419, RTC_TimeStruct_78(D)->RTC_H12
 1470              		.loc 1 771 7 is_stmt 1 view .LVU396
 1471 002c 8CBF     		ite	hi
 1472 002e 0020     		movhi	r0, #0	@,
 1473 0030 0120     		movls	r0, #1	@,
 1474 0032 FFF7FEFF 		bl	assert_param		@
 1475              	.LVL66:
 1476              	.L118:
 772:../Libraries/STM32F4xx_StdPeriph_Driver/src/stm32f4xx_rtc.c ****     }
 773:../Libraries/STM32F4xx_StdPeriph_Driver/src/stm32f4xx_rtc.c ****     assert_param(IS_RTC_MINUTES(RTC_TimeStruct->RTC_Minutes));
 1477              		.loc 1 773 5 view .LVU397
 1478 0036 6078     		ldrb	r0, [r4, #1]	@ zero_extendqisi2	@ RTC_TimeStruct_78(D)->RTC_Minutes, RTC_TimeStruct_78(D)->RT
 1479 0038 3B28     		cmp	r0, #59	@ RTC_TimeStruct_78(D)->RTC_Minutes,
 1480 003a 8CBF     		ite	hi
 1481 003c 0020     		movhi	r0, #0	@,
 1482 003e 0120     		movls	r0, #1	@,
 1483 0040 FFF7FEFF 		bl	assert_param		@
 1484              	.LVL67:
 774:../Libraries/STM32F4xx_StdPeriph_Driver/src/stm32f4xx_rtc.c ****     assert_param(IS_RTC_SECONDS(RTC_TimeStruct->RTC_Seconds));
 1485              		.loc 1 774 5 view .LVU398
 1486 0044 A078     		ldrb	r0, [r4, #2]	@ zero_extendqisi2	@ RTC_TimeStruct_78(D)->RTC_Seconds, RTC_TimeStruct_78(D)->RT
 1487 0046 3B28     		cmp	r0, #59	@ RTC_TimeStruct_78(D)->RTC_Seconds,
 1488 0048 8CBF     		ite	hi
 1489 004a 0020     		movhi	r0, #0	@,
 1490 004c 0120     		movls	r0, #1	@,
 1491 004e FFF7FEFF 		bl	assert_param		@
 1492              	.LVL68:
 775:../Libraries/STM32F4xx_StdPeriph_Driver/src/stm32f4xx_rtc.c ****   }
 776:../Libraries/STM32F4xx_StdPeriph_Driver/src/stm32f4xx_rtc.c ****   else
 777:../Libraries/STM32F4xx_StdPeriph_Driver/src/stm32f4xx_rtc.c ****   {
 778:../Libraries/STM32F4xx_StdPeriph_Driver/src/stm32f4xx_rtc.c ****     if ((RTC->CR & RTC_CR_FMT) != (uint32_t)RESET)
 779:../Libraries/STM32F4xx_StdPeriph_Driver/src/stm32f4xx_rtc.c ****     {
 780:../Libraries/STM32F4xx_StdPeriph_Driver/src/stm32f4xx_rtc.c ****       tmpreg = RTC_Bcd2ToByte(RTC_TimeStruct->RTC_Hours);
ARM GAS  C:\Users\admin\AppData\Local\Temp\ccyr4W1e.s 			page 46


 781:../Libraries/STM32F4xx_StdPeriph_Driver/src/stm32f4xx_rtc.c ****       assert_param(IS_RTC_HOUR12(tmpreg));
 782:../Libraries/STM32F4xx_StdPeriph_Driver/src/stm32f4xx_rtc.c ****       assert_param(IS_RTC_H12(RTC_TimeStruct->RTC_H12)); 
 783:../Libraries/STM32F4xx_StdPeriph_Driver/src/stm32f4xx_rtc.c ****     } 
 784:../Libraries/STM32F4xx_StdPeriph_Driver/src/stm32f4xx_rtc.c ****     else
 785:../Libraries/STM32F4xx_StdPeriph_Driver/src/stm32f4xx_rtc.c ****     {
 786:../Libraries/STM32F4xx_StdPeriph_Driver/src/stm32f4xx_rtc.c ****       RTC_TimeStruct->RTC_H12 = 0x00;
 787:../Libraries/STM32F4xx_StdPeriph_Driver/src/stm32f4xx_rtc.c ****       assert_param(IS_RTC_HOUR24(RTC_Bcd2ToByte(RTC_TimeStruct->RTC_Hours)));
 788:../Libraries/STM32F4xx_StdPeriph_Driver/src/stm32f4xx_rtc.c ****     }
 789:../Libraries/STM32F4xx_StdPeriph_Driver/src/stm32f4xx_rtc.c ****     assert_param(IS_RTC_MINUTES(RTC_Bcd2ToByte(RTC_TimeStruct->RTC_Minutes)));
 790:../Libraries/STM32F4xx_StdPeriph_Driver/src/stm32f4xx_rtc.c ****     assert_param(IS_RTC_SECONDS(RTC_Bcd2ToByte(RTC_TimeStruct->RTC_Seconds)));
 791:../Libraries/STM32F4xx_StdPeriph_Driver/src/stm32f4xx_rtc.c ****   }
 792:../Libraries/STM32F4xx_StdPeriph_Driver/src/stm32f4xx_rtc.c ****   
 793:../Libraries/STM32F4xx_StdPeriph_Driver/src/stm32f4xx_rtc.c ****   /* Check the input parameters format */
 794:../Libraries/STM32F4xx_StdPeriph_Driver/src/stm32f4xx_rtc.c ****   if (RTC_Format != RTC_Format_BIN)
 1493              		.loc 1 794 3 view .LVU399
 795:../Libraries/STM32F4xx_StdPeriph_Driver/src/stm32f4xx_rtc.c ****   {
 796:../Libraries/STM32F4xx_StdPeriph_Driver/src/stm32f4xx_rtc.c ****     tmpreg = (((uint32_t)(RTC_TimeStruct->RTC_Hours) << 16) | \
 797:../Libraries/STM32F4xx_StdPeriph_Driver/src/stm32f4xx_rtc.c ****              ((uint32_t)(RTC_TimeStruct->RTC_Minutes) << 8) | \
 798:../Libraries/STM32F4xx_StdPeriph_Driver/src/stm32f4xx_rtc.c ****              ((uint32_t)RTC_TimeStruct->RTC_Seconds) | \
 799:../Libraries/STM32F4xx_StdPeriph_Driver/src/stm32f4xx_rtc.c ****              ((uint32_t)(RTC_TimeStruct->RTC_H12) << 16)); 
 800:../Libraries/STM32F4xx_StdPeriph_Driver/src/stm32f4xx_rtc.c ****   }  
 801:../Libraries/STM32F4xx_StdPeriph_Driver/src/stm32f4xx_rtc.c ****   else
 802:../Libraries/STM32F4xx_StdPeriph_Driver/src/stm32f4xx_rtc.c ****   {
 803:../Libraries/STM32F4xx_StdPeriph_Driver/src/stm32f4xx_rtc.c ****     tmpreg = (uint32_t)(((uint32_t)RTC_ByteToBcd2(RTC_TimeStruct->RTC_Hours) << 16) | \
 1494              		.loc 1 803 5 view .LVU400
 1495              	@ ../Libraries/STM32F4xx_StdPeriph_Driver/src/stm32f4xx_rtc.c:803:     tmpreg = (uint32_t)(((uint32
 1496              		.loc 1 803 36 is_stmt 0 view .LVU401
 1497 0052 2178     		ldrb	r1, [r4]	@ zero_extendqisi2	@ tmp.162, RTC_TimeStruct_78(D)->RTC_Hours
 1498              	.LVL69:
 1499              	.LBB166:
 1500              	.LBI166:
 804:../Libraries/STM32F4xx_StdPeriph_Driver/src/stm32f4xx_rtc.c ****                    ((uint32_t)RTC_ByteToBcd2(RTC_TimeStruct->RTC_Minutes) << 8) | \
 805:../Libraries/STM32F4xx_StdPeriph_Driver/src/stm32f4xx_rtc.c ****                    ((uint32_t)RTC_ByteToBcd2(RTC_TimeStruct->RTC_Seconds)) | \
 806:../Libraries/STM32F4xx_StdPeriph_Driver/src/stm32f4xx_rtc.c ****                    (((uint32_t)RTC_TimeStruct->RTC_H12) << 16));
 807:../Libraries/STM32F4xx_StdPeriph_Driver/src/stm32f4xx_rtc.c ****   }  
 808:../Libraries/STM32F4xx_StdPeriph_Driver/src/stm32f4xx_rtc.c **** 
 809:../Libraries/STM32F4xx_StdPeriph_Driver/src/stm32f4xx_rtc.c ****   /* Disable the write protection for RTC registers */
 810:../Libraries/STM32F4xx_StdPeriph_Driver/src/stm32f4xx_rtc.c ****   RTC->WPR = 0xCA;
 811:../Libraries/STM32F4xx_StdPeriph_Driver/src/stm32f4xx_rtc.c ****   RTC->WPR = 0x53;
 812:../Libraries/STM32F4xx_StdPeriph_Driver/src/stm32f4xx_rtc.c **** 
 813:../Libraries/STM32F4xx_StdPeriph_Driver/src/stm32f4xx_rtc.c ****   /* Set Initialization mode */
 814:../Libraries/STM32F4xx_StdPeriph_Driver/src/stm32f4xx_rtc.c ****   if (RTC_EnterInitMode() == ERROR)
 815:../Libraries/STM32F4xx_StdPeriph_Driver/src/stm32f4xx_rtc.c ****   {
 816:../Libraries/STM32F4xx_StdPeriph_Driver/src/stm32f4xx_rtc.c ****     status = ERROR;
 817:../Libraries/STM32F4xx_StdPeriph_Driver/src/stm32f4xx_rtc.c ****   } 
 818:../Libraries/STM32F4xx_StdPeriph_Driver/src/stm32f4xx_rtc.c ****   else
 819:../Libraries/STM32F4xx_StdPeriph_Driver/src/stm32f4xx_rtc.c ****   {
 820:../Libraries/STM32F4xx_StdPeriph_Driver/src/stm32f4xx_rtc.c ****     /* Set the RTC_TR register */
 821:../Libraries/STM32F4xx_StdPeriph_Driver/src/stm32f4xx_rtc.c ****     RTC->TR = (uint32_t)(tmpreg & RTC_TR_RESERVED_MASK);
 822:../Libraries/STM32F4xx_StdPeriph_Driver/src/stm32f4xx_rtc.c **** 
 823:../Libraries/STM32F4xx_StdPeriph_Driver/src/stm32f4xx_rtc.c ****     /* Exit Initialization mode */
 824:../Libraries/STM32F4xx_StdPeriph_Driver/src/stm32f4xx_rtc.c ****     RTC_ExitInitMode(); 
 825:../Libraries/STM32F4xx_StdPeriph_Driver/src/stm32f4xx_rtc.c **** 
 826:../Libraries/STM32F4xx_StdPeriph_Driver/src/stm32f4xx_rtc.c ****     if(RTC_WaitForSynchro() == ERROR)
 827:../Libraries/STM32F4xx_StdPeriph_Driver/src/stm32f4xx_rtc.c ****     {
 828:../Libraries/STM32F4xx_StdPeriph_Driver/src/stm32f4xx_rtc.c ****       status = ERROR;
 829:../Libraries/STM32F4xx_StdPeriph_Driver/src/stm32f4xx_rtc.c ****     }
ARM GAS  C:\Users\admin\AppData\Local\Temp\ccyr4W1e.s 			page 47


 830:../Libraries/STM32F4xx_StdPeriph_Driver/src/stm32f4xx_rtc.c ****     else
 831:../Libraries/STM32F4xx_StdPeriph_Driver/src/stm32f4xx_rtc.c ****     {
 832:../Libraries/STM32F4xx_StdPeriph_Driver/src/stm32f4xx_rtc.c ****       status = SUCCESS;
 833:../Libraries/STM32F4xx_StdPeriph_Driver/src/stm32f4xx_rtc.c ****     }
 834:../Libraries/STM32F4xx_StdPeriph_Driver/src/stm32f4xx_rtc.c ****   
 835:../Libraries/STM32F4xx_StdPeriph_Driver/src/stm32f4xx_rtc.c ****   }
 836:../Libraries/STM32F4xx_StdPeriph_Driver/src/stm32f4xx_rtc.c ****   /* Enable the write protection for RTC registers */
 837:../Libraries/STM32F4xx_StdPeriph_Driver/src/stm32f4xx_rtc.c ****   RTC->WPR = 0xFF; 
 838:../Libraries/STM32F4xx_StdPeriph_Driver/src/stm32f4xx_rtc.c ****     
 839:../Libraries/STM32F4xx_StdPeriph_Driver/src/stm32f4xx_rtc.c ****   return status;
 840:../Libraries/STM32F4xx_StdPeriph_Driver/src/stm32f4xx_rtc.c **** }
 841:../Libraries/STM32F4xx_StdPeriph_Driver/src/stm32f4xx_rtc.c **** 
 842:../Libraries/STM32F4xx_StdPeriph_Driver/src/stm32f4xx_rtc.c **** /**
 843:../Libraries/STM32F4xx_StdPeriph_Driver/src/stm32f4xx_rtc.c ****   * @brief  Fills each RTC_TimeStruct member with its default value
 844:../Libraries/STM32F4xx_StdPeriph_Driver/src/stm32f4xx_rtc.c ****   *         (Time = 00h:00min:00sec).
 845:../Libraries/STM32F4xx_StdPeriph_Driver/src/stm32f4xx_rtc.c ****   * @param  RTC_TimeStruct: pointer to a RTC_TimeTypeDef structure which will be 
 846:../Libraries/STM32F4xx_StdPeriph_Driver/src/stm32f4xx_rtc.c ****   *         initialized.
 847:../Libraries/STM32F4xx_StdPeriph_Driver/src/stm32f4xx_rtc.c ****   * @retval None
 848:../Libraries/STM32F4xx_StdPeriph_Driver/src/stm32f4xx_rtc.c ****   */
 849:../Libraries/STM32F4xx_StdPeriph_Driver/src/stm32f4xx_rtc.c **** void RTC_TimeStructInit(RTC_TimeTypeDef* RTC_TimeStruct)
 850:../Libraries/STM32F4xx_StdPeriph_Driver/src/stm32f4xx_rtc.c **** {
 851:../Libraries/STM32F4xx_StdPeriph_Driver/src/stm32f4xx_rtc.c ****   /* Time = 00h:00min:00sec */
 852:../Libraries/STM32F4xx_StdPeriph_Driver/src/stm32f4xx_rtc.c ****   RTC_TimeStruct->RTC_H12 = RTC_H12_AM;
 853:../Libraries/STM32F4xx_StdPeriph_Driver/src/stm32f4xx_rtc.c ****   RTC_TimeStruct->RTC_Hours = 0;
 854:../Libraries/STM32F4xx_StdPeriph_Driver/src/stm32f4xx_rtc.c ****   RTC_TimeStruct->RTC_Minutes = 0;
 855:../Libraries/STM32F4xx_StdPeriph_Driver/src/stm32f4xx_rtc.c ****   RTC_TimeStruct->RTC_Seconds = 0; 
 856:../Libraries/STM32F4xx_StdPeriph_Driver/src/stm32f4xx_rtc.c **** }
 857:../Libraries/STM32F4xx_StdPeriph_Driver/src/stm32f4xx_rtc.c **** 
 858:../Libraries/STM32F4xx_StdPeriph_Driver/src/stm32f4xx_rtc.c **** /**
 859:../Libraries/STM32F4xx_StdPeriph_Driver/src/stm32f4xx_rtc.c ****   * @brief  Get the RTC current Time.
 860:../Libraries/STM32F4xx_StdPeriph_Driver/src/stm32f4xx_rtc.c ****   * @param  RTC_Format: specifies the format of the returned parameters.
 861:../Libraries/STM32F4xx_StdPeriph_Driver/src/stm32f4xx_rtc.c ****   *          This parameter can be  one of the following values:
 862:../Libraries/STM32F4xx_StdPeriph_Driver/src/stm32f4xx_rtc.c ****   *            @arg RTC_Format_BIN:  Binary data format 
 863:../Libraries/STM32F4xx_StdPeriph_Driver/src/stm32f4xx_rtc.c ****   *            @arg RTC_Format_BCD:  BCD data format
 864:../Libraries/STM32F4xx_StdPeriph_Driver/src/stm32f4xx_rtc.c ****   * @param  RTC_TimeStruct: pointer to a RTC_TimeTypeDef structure that will 
 865:../Libraries/STM32F4xx_StdPeriph_Driver/src/stm32f4xx_rtc.c ****   *                        contain the returned current time configuration.     
 866:../Libraries/STM32F4xx_StdPeriph_Driver/src/stm32f4xx_rtc.c ****   * @retval None
 867:../Libraries/STM32F4xx_StdPeriph_Driver/src/stm32f4xx_rtc.c ****   */
 868:../Libraries/STM32F4xx_StdPeriph_Driver/src/stm32f4xx_rtc.c **** void RTC_GetTime(uint32_t RTC_Format, RTC_TimeTypeDef* RTC_TimeStruct)
 869:../Libraries/STM32F4xx_StdPeriph_Driver/src/stm32f4xx_rtc.c **** {
 870:../Libraries/STM32F4xx_StdPeriph_Driver/src/stm32f4xx_rtc.c ****   uint32_t tmpreg = 0;
 871:../Libraries/STM32F4xx_StdPeriph_Driver/src/stm32f4xx_rtc.c **** 
 872:../Libraries/STM32F4xx_StdPeriph_Driver/src/stm32f4xx_rtc.c ****   /* Check the parameters */
 873:../Libraries/STM32F4xx_StdPeriph_Driver/src/stm32f4xx_rtc.c ****   assert_param(IS_RTC_FORMAT(RTC_Format));
 874:../Libraries/STM32F4xx_StdPeriph_Driver/src/stm32f4xx_rtc.c **** 
 875:../Libraries/STM32F4xx_StdPeriph_Driver/src/stm32f4xx_rtc.c ****   /* Get the RTC_TR register */
 876:../Libraries/STM32F4xx_StdPeriph_Driver/src/stm32f4xx_rtc.c ****   tmpreg = (uint32_t)(RTC->TR & RTC_TR_RESERVED_MASK); 
 877:../Libraries/STM32F4xx_StdPeriph_Driver/src/stm32f4xx_rtc.c ****   
 878:../Libraries/STM32F4xx_StdPeriph_Driver/src/stm32f4xx_rtc.c ****   /* Fill the structure fields with the read parameters */
 879:../Libraries/STM32F4xx_StdPeriph_Driver/src/stm32f4xx_rtc.c ****   RTC_TimeStruct->RTC_Hours = (uint8_t)((tmpreg & (RTC_TR_HT | RTC_TR_HU)) >> 16);
 880:../Libraries/STM32F4xx_StdPeriph_Driver/src/stm32f4xx_rtc.c ****   RTC_TimeStruct->RTC_Minutes = (uint8_t)((tmpreg & (RTC_TR_MNT | RTC_TR_MNU)) >>8);
 881:../Libraries/STM32F4xx_StdPeriph_Driver/src/stm32f4xx_rtc.c ****   RTC_TimeStruct->RTC_Seconds = (uint8_t)(tmpreg & (RTC_TR_ST | RTC_TR_SU));
 882:../Libraries/STM32F4xx_StdPeriph_Driver/src/stm32f4xx_rtc.c ****   RTC_TimeStruct->RTC_H12 = (uint8_t)((tmpreg & (RTC_TR_PM)) >> 16);  
 883:../Libraries/STM32F4xx_StdPeriph_Driver/src/stm32f4xx_rtc.c **** 
 884:../Libraries/STM32F4xx_StdPeriph_Driver/src/stm32f4xx_rtc.c ****   /* Check the input parameters format */
 885:../Libraries/STM32F4xx_StdPeriph_Driver/src/stm32f4xx_rtc.c ****   if (RTC_Format == RTC_Format_BIN)
 886:../Libraries/STM32F4xx_StdPeriph_Driver/src/stm32f4xx_rtc.c ****   {
ARM GAS  C:\Users\admin\AppData\Local\Temp\ccyr4W1e.s 			page 48


 887:../Libraries/STM32F4xx_StdPeriph_Driver/src/stm32f4xx_rtc.c ****     /* Convert the structure parameters to Binary format */
 888:../Libraries/STM32F4xx_StdPeriph_Driver/src/stm32f4xx_rtc.c ****     RTC_TimeStruct->RTC_Hours = (uint8_t)RTC_Bcd2ToByte(RTC_TimeStruct->RTC_Hours);
 889:../Libraries/STM32F4xx_StdPeriph_Driver/src/stm32f4xx_rtc.c ****     RTC_TimeStruct->RTC_Minutes = (uint8_t)RTC_Bcd2ToByte(RTC_TimeStruct->RTC_Minutes);
 890:../Libraries/STM32F4xx_StdPeriph_Driver/src/stm32f4xx_rtc.c ****     RTC_TimeStruct->RTC_Seconds = (uint8_t)RTC_Bcd2ToByte(RTC_TimeStruct->RTC_Seconds);   
 891:../Libraries/STM32F4xx_StdPeriph_Driver/src/stm32f4xx_rtc.c ****   }
 892:../Libraries/STM32F4xx_StdPeriph_Driver/src/stm32f4xx_rtc.c **** }
 893:../Libraries/STM32F4xx_StdPeriph_Driver/src/stm32f4xx_rtc.c **** 
 894:../Libraries/STM32F4xx_StdPeriph_Driver/src/stm32f4xx_rtc.c **** /**
 895:../Libraries/STM32F4xx_StdPeriph_Driver/src/stm32f4xx_rtc.c ****   * @brief  Gets the RTC current Calendar Subseconds value.
 896:../Libraries/STM32F4xx_StdPeriph_Driver/src/stm32f4xx_rtc.c ****   * @note   This function freeze the Time and Date registers after reading the 
 897:../Libraries/STM32F4xx_StdPeriph_Driver/src/stm32f4xx_rtc.c ****   *         SSR register.
 898:../Libraries/STM32F4xx_StdPeriph_Driver/src/stm32f4xx_rtc.c ****   * @param  None
 899:../Libraries/STM32F4xx_StdPeriph_Driver/src/stm32f4xx_rtc.c ****   * @retval RTC current Calendar Subseconds value.
 900:../Libraries/STM32F4xx_StdPeriph_Driver/src/stm32f4xx_rtc.c ****   */
 901:../Libraries/STM32F4xx_StdPeriph_Driver/src/stm32f4xx_rtc.c **** uint32_t RTC_GetSubSecond(void)
 902:../Libraries/STM32F4xx_StdPeriph_Driver/src/stm32f4xx_rtc.c **** {
 903:../Libraries/STM32F4xx_StdPeriph_Driver/src/stm32f4xx_rtc.c ****   uint32_t tmpreg = 0;
 904:../Libraries/STM32F4xx_StdPeriph_Driver/src/stm32f4xx_rtc.c ****   
 905:../Libraries/STM32F4xx_StdPeriph_Driver/src/stm32f4xx_rtc.c ****   /* Get subseconds values from the correspondent registers*/
 906:../Libraries/STM32F4xx_StdPeriph_Driver/src/stm32f4xx_rtc.c ****   tmpreg = (uint32_t)(RTC->SSR);
 907:../Libraries/STM32F4xx_StdPeriph_Driver/src/stm32f4xx_rtc.c ****   
 908:../Libraries/STM32F4xx_StdPeriph_Driver/src/stm32f4xx_rtc.c ****   /* Read DR register to unfroze calendar registers */
 909:../Libraries/STM32F4xx_StdPeriph_Driver/src/stm32f4xx_rtc.c ****   (void) (RTC->DR);
 910:../Libraries/STM32F4xx_StdPeriph_Driver/src/stm32f4xx_rtc.c ****   
 911:../Libraries/STM32F4xx_StdPeriph_Driver/src/stm32f4xx_rtc.c ****   return (tmpreg);
 912:../Libraries/STM32F4xx_StdPeriph_Driver/src/stm32f4xx_rtc.c **** }
 913:../Libraries/STM32F4xx_StdPeriph_Driver/src/stm32f4xx_rtc.c **** 
 914:../Libraries/STM32F4xx_StdPeriph_Driver/src/stm32f4xx_rtc.c **** /**
 915:../Libraries/STM32F4xx_StdPeriph_Driver/src/stm32f4xx_rtc.c ****   * @brief  Set the RTC current date.
 916:../Libraries/STM32F4xx_StdPeriph_Driver/src/stm32f4xx_rtc.c ****   * @param  RTC_Format: specifies the format of the entered parameters.
 917:../Libraries/STM32F4xx_StdPeriph_Driver/src/stm32f4xx_rtc.c ****   *          This parameter can be  one of the following values:
 918:../Libraries/STM32F4xx_StdPeriph_Driver/src/stm32f4xx_rtc.c ****   *            @arg RTC_Format_BIN:  Binary data format 
 919:../Libraries/STM32F4xx_StdPeriph_Driver/src/stm32f4xx_rtc.c ****   *            @arg RTC_Format_BCD:  BCD data format
 920:../Libraries/STM32F4xx_StdPeriph_Driver/src/stm32f4xx_rtc.c ****   * @param  RTC_DateStruct: pointer to a RTC_DateTypeDef structure that contains 
 921:../Libraries/STM32F4xx_StdPeriph_Driver/src/stm32f4xx_rtc.c ****   *                         the date configuration information for the RTC.
 922:../Libraries/STM32F4xx_StdPeriph_Driver/src/stm32f4xx_rtc.c ****   * @retval An ErrorStatus enumeration value:
 923:../Libraries/STM32F4xx_StdPeriph_Driver/src/stm32f4xx_rtc.c ****   *          - SUCCESS: RTC Date register is configured
 924:../Libraries/STM32F4xx_StdPeriph_Driver/src/stm32f4xx_rtc.c ****   *          - ERROR: RTC Date register is not configured
 925:../Libraries/STM32F4xx_StdPeriph_Driver/src/stm32f4xx_rtc.c ****   */
 926:../Libraries/STM32F4xx_StdPeriph_Driver/src/stm32f4xx_rtc.c **** ErrorStatus RTC_SetDate(uint32_t RTC_Format, RTC_DateTypeDef* RTC_DateStruct)
 927:../Libraries/STM32F4xx_StdPeriph_Driver/src/stm32f4xx_rtc.c **** {
 928:../Libraries/STM32F4xx_StdPeriph_Driver/src/stm32f4xx_rtc.c ****   uint32_t tmpreg = 0;
 929:../Libraries/STM32F4xx_StdPeriph_Driver/src/stm32f4xx_rtc.c ****   ErrorStatus status = ERROR;
 930:../Libraries/STM32F4xx_StdPeriph_Driver/src/stm32f4xx_rtc.c ****   
 931:../Libraries/STM32F4xx_StdPeriph_Driver/src/stm32f4xx_rtc.c ****   /* Check the parameters */
 932:../Libraries/STM32F4xx_StdPeriph_Driver/src/stm32f4xx_rtc.c ****   assert_param(IS_RTC_FORMAT(RTC_Format));
 933:../Libraries/STM32F4xx_StdPeriph_Driver/src/stm32f4xx_rtc.c **** 
 934:../Libraries/STM32F4xx_StdPeriph_Driver/src/stm32f4xx_rtc.c ****   if ((RTC_Format == RTC_Format_BIN) && ((RTC_DateStruct->RTC_Month & 0x10) == 0x10))
 935:../Libraries/STM32F4xx_StdPeriph_Driver/src/stm32f4xx_rtc.c ****   {
 936:../Libraries/STM32F4xx_StdPeriph_Driver/src/stm32f4xx_rtc.c ****     RTC_DateStruct->RTC_Month = (RTC_DateStruct->RTC_Month & (uint32_t)~(0x10)) + 0x0A;
 937:../Libraries/STM32F4xx_StdPeriph_Driver/src/stm32f4xx_rtc.c ****   }  
 938:../Libraries/STM32F4xx_StdPeriph_Driver/src/stm32f4xx_rtc.c ****   if (RTC_Format == RTC_Format_BIN)
 939:../Libraries/STM32F4xx_StdPeriph_Driver/src/stm32f4xx_rtc.c ****   {
 940:../Libraries/STM32F4xx_StdPeriph_Driver/src/stm32f4xx_rtc.c ****     assert_param(IS_RTC_YEAR(RTC_DateStruct->RTC_Year));
 941:../Libraries/STM32F4xx_StdPeriph_Driver/src/stm32f4xx_rtc.c ****     assert_param(IS_RTC_MONTH(RTC_DateStruct->RTC_Month));
 942:../Libraries/STM32F4xx_StdPeriph_Driver/src/stm32f4xx_rtc.c ****     assert_param(IS_RTC_DATE(RTC_DateStruct->RTC_Date));
 943:../Libraries/STM32F4xx_StdPeriph_Driver/src/stm32f4xx_rtc.c ****   }
ARM GAS  C:\Users\admin\AppData\Local\Temp\ccyr4W1e.s 			page 49


 944:../Libraries/STM32F4xx_StdPeriph_Driver/src/stm32f4xx_rtc.c ****   else
 945:../Libraries/STM32F4xx_StdPeriph_Driver/src/stm32f4xx_rtc.c ****   {
 946:../Libraries/STM32F4xx_StdPeriph_Driver/src/stm32f4xx_rtc.c ****     assert_param(IS_RTC_YEAR(RTC_Bcd2ToByte(RTC_DateStruct->RTC_Year)));
 947:../Libraries/STM32F4xx_StdPeriph_Driver/src/stm32f4xx_rtc.c ****     tmpreg = RTC_Bcd2ToByte(RTC_DateStruct->RTC_Month);
 948:../Libraries/STM32F4xx_StdPeriph_Driver/src/stm32f4xx_rtc.c ****     assert_param(IS_RTC_MONTH(tmpreg));
 949:../Libraries/STM32F4xx_StdPeriph_Driver/src/stm32f4xx_rtc.c ****     tmpreg = RTC_Bcd2ToByte(RTC_DateStruct->RTC_Date);
 950:../Libraries/STM32F4xx_StdPeriph_Driver/src/stm32f4xx_rtc.c ****     assert_param(IS_RTC_DATE(tmpreg));
 951:../Libraries/STM32F4xx_StdPeriph_Driver/src/stm32f4xx_rtc.c ****   }
 952:../Libraries/STM32F4xx_StdPeriph_Driver/src/stm32f4xx_rtc.c ****   assert_param(IS_RTC_WEEKDAY(RTC_DateStruct->RTC_WeekDay));
 953:../Libraries/STM32F4xx_StdPeriph_Driver/src/stm32f4xx_rtc.c **** 
 954:../Libraries/STM32F4xx_StdPeriph_Driver/src/stm32f4xx_rtc.c ****   /* Check the input parameters format */
 955:../Libraries/STM32F4xx_StdPeriph_Driver/src/stm32f4xx_rtc.c ****   if (RTC_Format != RTC_Format_BIN)
 956:../Libraries/STM32F4xx_StdPeriph_Driver/src/stm32f4xx_rtc.c ****   {
 957:../Libraries/STM32F4xx_StdPeriph_Driver/src/stm32f4xx_rtc.c ****     tmpreg = ((((uint32_t)RTC_DateStruct->RTC_Year) << 16) | \
 958:../Libraries/STM32F4xx_StdPeriph_Driver/src/stm32f4xx_rtc.c ****               (((uint32_t)RTC_DateStruct->RTC_Month) << 8) | \
 959:../Libraries/STM32F4xx_StdPeriph_Driver/src/stm32f4xx_rtc.c ****               ((uint32_t)RTC_DateStruct->RTC_Date) | \
 960:../Libraries/STM32F4xx_StdPeriph_Driver/src/stm32f4xx_rtc.c ****               (((uint32_t)RTC_DateStruct->RTC_WeekDay) << 13)); 
 961:../Libraries/STM32F4xx_StdPeriph_Driver/src/stm32f4xx_rtc.c ****   }  
 962:../Libraries/STM32F4xx_StdPeriph_Driver/src/stm32f4xx_rtc.c ****   else
 963:../Libraries/STM32F4xx_StdPeriph_Driver/src/stm32f4xx_rtc.c ****   {
 964:../Libraries/STM32F4xx_StdPeriph_Driver/src/stm32f4xx_rtc.c ****     tmpreg = (((uint32_t)RTC_ByteToBcd2(RTC_DateStruct->RTC_Year) << 16) | \
 965:../Libraries/STM32F4xx_StdPeriph_Driver/src/stm32f4xx_rtc.c ****               ((uint32_t)RTC_ByteToBcd2(RTC_DateStruct->RTC_Month) << 8) | \
 966:../Libraries/STM32F4xx_StdPeriph_Driver/src/stm32f4xx_rtc.c ****               ((uint32_t)RTC_ByteToBcd2(RTC_DateStruct->RTC_Date)) | \
 967:../Libraries/STM32F4xx_StdPeriph_Driver/src/stm32f4xx_rtc.c ****               ((uint32_t)RTC_DateStruct->RTC_WeekDay << 13));
 968:../Libraries/STM32F4xx_StdPeriph_Driver/src/stm32f4xx_rtc.c ****   }
 969:../Libraries/STM32F4xx_StdPeriph_Driver/src/stm32f4xx_rtc.c **** 
 970:../Libraries/STM32F4xx_StdPeriph_Driver/src/stm32f4xx_rtc.c ****   /* Disable the write protection for RTC registers */
 971:../Libraries/STM32F4xx_StdPeriph_Driver/src/stm32f4xx_rtc.c ****   RTC->WPR = 0xCA;
 972:../Libraries/STM32F4xx_StdPeriph_Driver/src/stm32f4xx_rtc.c ****   RTC->WPR = 0x53;
 973:../Libraries/STM32F4xx_StdPeriph_Driver/src/stm32f4xx_rtc.c **** 
 974:../Libraries/STM32F4xx_StdPeriph_Driver/src/stm32f4xx_rtc.c ****   /* Set Initialization mode */
 975:../Libraries/STM32F4xx_StdPeriph_Driver/src/stm32f4xx_rtc.c ****   if (RTC_EnterInitMode() == ERROR)
 976:../Libraries/STM32F4xx_StdPeriph_Driver/src/stm32f4xx_rtc.c ****   {
 977:../Libraries/STM32F4xx_StdPeriph_Driver/src/stm32f4xx_rtc.c ****     status = ERROR;
 978:../Libraries/STM32F4xx_StdPeriph_Driver/src/stm32f4xx_rtc.c ****   } 
 979:../Libraries/STM32F4xx_StdPeriph_Driver/src/stm32f4xx_rtc.c ****   else
 980:../Libraries/STM32F4xx_StdPeriph_Driver/src/stm32f4xx_rtc.c ****   {
 981:../Libraries/STM32F4xx_StdPeriph_Driver/src/stm32f4xx_rtc.c ****     /* Set the RTC_DR register */
 982:../Libraries/STM32F4xx_StdPeriph_Driver/src/stm32f4xx_rtc.c ****     RTC->DR = (uint32_t)(tmpreg & RTC_DR_RESERVED_MASK);
 983:../Libraries/STM32F4xx_StdPeriph_Driver/src/stm32f4xx_rtc.c **** 
 984:../Libraries/STM32F4xx_StdPeriph_Driver/src/stm32f4xx_rtc.c ****     /* Exit Initialization mode */
 985:../Libraries/STM32F4xx_StdPeriph_Driver/src/stm32f4xx_rtc.c ****     RTC_ExitInitMode(); 
 986:../Libraries/STM32F4xx_StdPeriph_Driver/src/stm32f4xx_rtc.c **** 
 987:../Libraries/STM32F4xx_StdPeriph_Driver/src/stm32f4xx_rtc.c ****     if(RTC_WaitForSynchro() == ERROR)
 988:../Libraries/STM32F4xx_StdPeriph_Driver/src/stm32f4xx_rtc.c ****     {
 989:../Libraries/STM32F4xx_StdPeriph_Driver/src/stm32f4xx_rtc.c ****       status = ERROR;
 990:../Libraries/STM32F4xx_StdPeriph_Driver/src/stm32f4xx_rtc.c ****     }
 991:../Libraries/STM32F4xx_StdPeriph_Driver/src/stm32f4xx_rtc.c ****     else
 992:../Libraries/STM32F4xx_StdPeriph_Driver/src/stm32f4xx_rtc.c ****     {
 993:../Libraries/STM32F4xx_StdPeriph_Driver/src/stm32f4xx_rtc.c ****       status = SUCCESS;
 994:../Libraries/STM32F4xx_StdPeriph_Driver/src/stm32f4xx_rtc.c ****     }
 995:../Libraries/STM32F4xx_StdPeriph_Driver/src/stm32f4xx_rtc.c ****   }
 996:../Libraries/STM32F4xx_StdPeriph_Driver/src/stm32f4xx_rtc.c ****   /* Enable the write protection for RTC registers */
 997:../Libraries/STM32F4xx_StdPeriph_Driver/src/stm32f4xx_rtc.c ****   RTC->WPR = 0xFF;   
 998:../Libraries/STM32F4xx_StdPeriph_Driver/src/stm32f4xx_rtc.c ****   
 999:../Libraries/STM32F4xx_StdPeriph_Driver/src/stm32f4xx_rtc.c ****   return status;
1000:../Libraries/STM32F4xx_StdPeriph_Driver/src/stm32f4xx_rtc.c **** }
ARM GAS  C:\Users\admin\AppData\Local\Temp\ccyr4W1e.s 			page 50


1001:../Libraries/STM32F4xx_StdPeriph_Driver/src/stm32f4xx_rtc.c **** 
1002:../Libraries/STM32F4xx_StdPeriph_Driver/src/stm32f4xx_rtc.c **** /**
1003:../Libraries/STM32F4xx_StdPeriph_Driver/src/stm32f4xx_rtc.c ****   * @brief  Fills each RTC_DateStruct member with its default value
1004:../Libraries/STM32F4xx_StdPeriph_Driver/src/stm32f4xx_rtc.c ****   *         (Monday, January 01 xx00).
1005:../Libraries/STM32F4xx_StdPeriph_Driver/src/stm32f4xx_rtc.c ****   * @param  RTC_DateStruct: pointer to a RTC_DateTypeDef structure which will be 
1006:../Libraries/STM32F4xx_StdPeriph_Driver/src/stm32f4xx_rtc.c ****   *         initialized.
1007:../Libraries/STM32F4xx_StdPeriph_Driver/src/stm32f4xx_rtc.c ****   * @retval None
1008:../Libraries/STM32F4xx_StdPeriph_Driver/src/stm32f4xx_rtc.c ****   */
1009:../Libraries/STM32F4xx_StdPeriph_Driver/src/stm32f4xx_rtc.c **** void RTC_DateStructInit(RTC_DateTypeDef* RTC_DateStruct)
1010:../Libraries/STM32F4xx_StdPeriph_Driver/src/stm32f4xx_rtc.c **** {
1011:../Libraries/STM32F4xx_StdPeriph_Driver/src/stm32f4xx_rtc.c ****   /* Monday, January 01 xx00 */
1012:../Libraries/STM32F4xx_StdPeriph_Driver/src/stm32f4xx_rtc.c ****   RTC_DateStruct->RTC_WeekDay = RTC_Weekday_Monday;
1013:../Libraries/STM32F4xx_StdPeriph_Driver/src/stm32f4xx_rtc.c ****   RTC_DateStruct->RTC_Date = 1;
1014:../Libraries/STM32F4xx_StdPeriph_Driver/src/stm32f4xx_rtc.c ****   RTC_DateStruct->RTC_Month = RTC_Month_January;
1015:../Libraries/STM32F4xx_StdPeriph_Driver/src/stm32f4xx_rtc.c ****   RTC_DateStruct->RTC_Year = 0;
1016:../Libraries/STM32F4xx_StdPeriph_Driver/src/stm32f4xx_rtc.c **** }
1017:../Libraries/STM32F4xx_StdPeriph_Driver/src/stm32f4xx_rtc.c **** 
1018:../Libraries/STM32F4xx_StdPeriph_Driver/src/stm32f4xx_rtc.c **** /**
1019:../Libraries/STM32F4xx_StdPeriph_Driver/src/stm32f4xx_rtc.c ****   * @brief  Get the RTC current date. 
1020:../Libraries/STM32F4xx_StdPeriph_Driver/src/stm32f4xx_rtc.c ****   * @param  RTC_Format: specifies the format of the returned parameters.
1021:../Libraries/STM32F4xx_StdPeriph_Driver/src/stm32f4xx_rtc.c ****   *          This parameter can be one of the following values:
1022:../Libraries/STM32F4xx_StdPeriph_Driver/src/stm32f4xx_rtc.c ****   *            @arg RTC_Format_BIN: Binary data format 
1023:../Libraries/STM32F4xx_StdPeriph_Driver/src/stm32f4xx_rtc.c ****   *            @arg RTC_Format_BCD: BCD data format
1024:../Libraries/STM32F4xx_StdPeriph_Driver/src/stm32f4xx_rtc.c ****   * @param RTC_DateStruct: pointer to a RTC_DateTypeDef structure that will 
1025:../Libraries/STM32F4xx_StdPeriph_Driver/src/stm32f4xx_rtc.c ****   *                        contain the returned current date configuration.     
1026:../Libraries/STM32F4xx_StdPeriph_Driver/src/stm32f4xx_rtc.c ****   * @retval None
1027:../Libraries/STM32F4xx_StdPeriph_Driver/src/stm32f4xx_rtc.c ****   */
1028:../Libraries/STM32F4xx_StdPeriph_Driver/src/stm32f4xx_rtc.c **** void RTC_GetDate(uint32_t RTC_Format, RTC_DateTypeDef* RTC_DateStruct)
1029:../Libraries/STM32F4xx_StdPeriph_Driver/src/stm32f4xx_rtc.c **** {
1030:../Libraries/STM32F4xx_StdPeriph_Driver/src/stm32f4xx_rtc.c ****   uint32_t tmpreg = 0;
1031:../Libraries/STM32F4xx_StdPeriph_Driver/src/stm32f4xx_rtc.c **** 
1032:../Libraries/STM32F4xx_StdPeriph_Driver/src/stm32f4xx_rtc.c ****   /* Check the parameters */
1033:../Libraries/STM32F4xx_StdPeriph_Driver/src/stm32f4xx_rtc.c ****   assert_param(IS_RTC_FORMAT(RTC_Format));
1034:../Libraries/STM32F4xx_StdPeriph_Driver/src/stm32f4xx_rtc.c ****   
1035:../Libraries/STM32F4xx_StdPeriph_Driver/src/stm32f4xx_rtc.c ****   /* Get the RTC_TR register */
1036:../Libraries/STM32F4xx_StdPeriph_Driver/src/stm32f4xx_rtc.c ****   tmpreg = (uint32_t)(RTC->DR & RTC_DR_RESERVED_MASK); 
1037:../Libraries/STM32F4xx_StdPeriph_Driver/src/stm32f4xx_rtc.c **** 
1038:../Libraries/STM32F4xx_StdPeriph_Driver/src/stm32f4xx_rtc.c ****   /* Fill the structure fields with the read parameters */
1039:../Libraries/STM32F4xx_StdPeriph_Driver/src/stm32f4xx_rtc.c ****   RTC_DateStruct->RTC_Year = (uint8_t)((tmpreg & (RTC_DR_YT | RTC_DR_YU)) >> 16);
1040:../Libraries/STM32F4xx_StdPeriph_Driver/src/stm32f4xx_rtc.c ****   RTC_DateStruct->RTC_Month = (uint8_t)((tmpreg & (RTC_DR_MT | RTC_DR_MU)) >> 8);
1041:../Libraries/STM32F4xx_StdPeriph_Driver/src/stm32f4xx_rtc.c ****   RTC_DateStruct->RTC_Date = (uint8_t)(tmpreg & (RTC_DR_DT | RTC_DR_DU));
1042:../Libraries/STM32F4xx_StdPeriph_Driver/src/stm32f4xx_rtc.c ****   RTC_DateStruct->RTC_WeekDay = (uint8_t)((tmpreg & (RTC_DR_WDU)) >> 13);
1043:../Libraries/STM32F4xx_StdPeriph_Driver/src/stm32f4xx_rtc.c **** 
1044:../Libraries/STM32F4xx_StdPeriph_Driver/src/stm32f4xx_rtc.c ****   /* Check the input parameters format */
1045:../Libraries/STM32F4xx_StdPeriph_Driver/src/stm32f4xx_rtc.c ****   if (RTC_Format == RTC_Format_BIN)
1046:../Libraries/STM32F4xx_StdPeriph_Driver/src/stm32f4xx_rtc.c ****   {
1047:../Libraries/STM32F4xx_StdPeriph_Driver/src/stm32f4xx_rtc.c ****     /* Convert the structure parameters to Binary format */
1048:../Libraries/STM32F4xx_StdPeriph_Driver/src/stm32f4xx_rtc.c ****     RTC_DateStruct->RTC_Year = (uint8_t)RTC_Bcd2ToByte(RTC_DateStruct->RTC_Year);
1049:../Libraries/STM32F4xx_StdPeriph_Driver/src/stm32f4xx_rtc.c ****     RTC_DateStruct->RTC_Month = (uint8_t)RTC_Bcd2ToByte(RTC_DateStruct->RTC_Month);
1050:../Libraries/STM32F4xx_StdPeriph_Driver/src/stm32f4xx_rtc.c ****     RTC_DateStruct->RTC_Date = (uint8_t)RTC_Bcd2ToByte(RTC_DateStruct->RTC_Date);
1051:../Libraries/STM32F4xx_StdPeriph_Driver/src/stm32f4xx_rtc.c ****   }
1052:../Libraries/STM32F4xx_StdPeriph_Driver/src/stm32f4xx_rtc.c **** }
1053:../Libraries/STM32F4xx_StdPeriph_Driver/src/stm32f4xx_rtc.c **** 
1054:../Libraries/STM32F4xx_StdPeriph_Driver/src/stm32f4xx_rtc.c **** /**
1055:../Libraries/STM32F4xx_StdPeriph_Driver/src/stm32f4xx_rtc.c ****   * @}
1056:../Libraries/STM32F4xx_StdPeriph_Driver/src/stm32f4xx_rtc.c ****   */
1057:../Libraries/STM32F4xx_StdPeriph_Driver/src/stm32f4xx_rtc.c **** 
ARM GAS  C:\Users\admin\AppData\Local\Temp\ccyr4W1e.s 			page 51


1058:../Libraries/STM32F4xx_StdPeriph_Driver/src/stm32f4xx_rtc.c **** /** @defgroup RTC_Group3 Alarms configuration functions
1059:../Libraries/STM32F4xx_StdPeriph_Driver/src/stm32f4xx_rtc.c ****  *  @brief   Alarms (Alarm A and Alarm B) configuration functions 
1060:../Libraries/STM32F4xx_StdPeriph_Driver/src/stm32f4xx_rtc.c ****  *
1061:../Libraries/STM32F4xx_StdPeriph_Driver/src/stm32f4xx_rtc.c **** @verbatim   
1062:../Libraries/STM32F4xx_StdPeriph_Driver/src/stm32f4xx_rtc.c ****  ===============================================================================
1063:../Libraries/STM32F4xx_StdPeriph_Driver/src/stm32f4xx_rtc.c ****               Alarms (Alarm A and Alarm B) configuration functions
1064:../Libraries/STM32F4xx_StdPeriph_Driver/src/stm32f4xx_rtc.c ****  ===============================================================================  
1065:../Libraries/STM32F4xx_StdPeriph_Driver/src/stm32f4xx_rtc.c **** 
1066:../Libraries/STM32F4xx_StdPeriph_Driver/src/stm32f4xx_rtc.c ****   This section provide functions allowing to program and read the RTC Alarms.
1067:../Libraries/STM32F4xx_StdPeriph_Driver/src/stm32f4xx_rtc.c **** 
1068:../Libraries/STM32F4xx_StdPeriph_Driver/src/stm32f4xx_rtc.c **** @endverbatim
1069:../Libraries/STM32F4xx_StdPeriph_Driver/src/stm32f4xx_rtc.c ****   * @{
1070:../Libraries/STM32F4xx_StdPeriph_Driver/src/stm32f4xx_rtc.c ****   */
1071:../Libraries/STM32F4xx_StdPeriph_Driver/src/stm32f4xx_rtc.c **** 
1072:../Libraries/STM32F4xx_StdPeriph_Driver/src/stm32f4xx_rtc.c **** /**
1073:../Libraries/STM32F4xx_StdPeriph_Driver/src/stm32f4xx_rtc.c ****   * @brief  Set the specified RTC Alarm.
1074:../Libraries/STM32F4xx_StdPeriph_Driver/src/stm32f4xx_rtc.c ****   * @note   The Alarm register can only be written when the corresponding Alarm
1075:../Libraries/STM32F4xx_StdPeriph_Driver/src/stm32f4xx_rtc.c ****   *         is disabled (Use the RTC_AlarmCmd(DISABLE)).    
1076:../Libraries/STM32F4xx_StdPeriph_Driver/src/stm32f4xx_rtc.c ****   * @param  RTC_Format: specifies the format of the returned parameters.
1077:../Libraries/STM32F4xx_StdPeriph_Driver/src/stm32f4xx_rtc.c ****   *          This parameter can be one of the following values:
1078:../Libraries/STM32F4xx_StdPeriph_Driver/src/stm32f4xx_rtc.c ****   *            @arg RTC_Format_BIN: Binary data format 
1079:../Libraries/STM32F4xx_StdPeriph_Driver/src/stm32f4xx_rtc.c ****   *            @arg RTC_Format_BCD: BCD data format
1080:../Libraries/STM32F4xx_StdPeriph_Driver/src/stm32f4xx_rtc.c ****   * @param  RTC_Alarm: specifies the alarm to be configured.
1081:../Libraries/STM32F4xx_StdPeriph_Driver/src/stm32f4xx_rtc.c ****   *          This parameter can be one of the following values:
1082:../Libraries/STM32F4xx_StdPeriph_Driver/src/stm32f4xx_rtc.c ****   *            @arg RTC_Alarm_A: to select Alarm A
1083:../Libraries/STM32F4xx_StdPeriph_Driver/src/stm32f4xx_rtc.c ****   *            @arg RTC_Alarm_B: to select Alarm B  
1084:../Libraries/STM32F4xx_StdPeriph_Driver/src/stm32f4xx_rtc.c ****   * @param  RTC_AlarmStruct: pointer to a RTC_AlarmTypeDef structure that 
1085:../Libraries/STM32F4xx_StdPeriph_Driver/src/stm32f4xx_rtc.c ****   *                          contains the alarm configuration parameters.     
1086:../Libraries/STM32F4xx_StdPeriph_Driver/src/stm32f4xx_rtc.c ****   * @retval None
1087:../Libraries/STM32F4xx_StdPeriph_Driver/src/stm32f4xx_rtc.c ****   */
1088:../Libraries/STM32F4xx_StdPeriph_Driver/src/stm32f4xx_rtc.c **** void RTC_SetAlarm(uint32_t RTC_Format, uint32_t RTC_Alarm, RTC_AlarmTypeDef* RTC_AlarmStruct)
1089:../Libraries/STM32F4xx_StdPeriph_Driver/src/stm32f4xx_rtc.c **** {
1090:../Libraries/STM32F4xx_StdPeriph_Driver/src/stm32f4xx_rtc.c ****   uint32_t tmpreg = 0;
1091:../Libraries/STM32F4xx_StdPeriph_Driver/src/stm32f4xx_rtc.c ****   
1092:../Libraries/STM32F4xx_StdPeriph_Driver/src/stm32f4xx_rtc.c ****   /* Check the parameters */
1093:../Libraries/STM32F4xx_StdPeriph_Driver/src/stm32f4xx_rtc.c ****   assert_param(IS_RTC_FORMAT(RTC_Format));
1094:../Libraries/STM32F4xx_StdPeriph_Driver/src/stm32f4xx_rtc.c ****   assert_param(IS_RTC_ALARM(RTC_Alarm));
1095:../Libraries/STM32F4xx_StdPeriph_Driver/src/stm32f4xx_rtc.c ****   assert_param(IS_ALARM_MASK(RTC_AlarmStruct->RTC_AlarmMask));
1096:../Libraries/STM32F4xx_StdPeriph_Driver/src/stm32f4xx_rtc.c ****   assert_param(IS_RTC_ALARM_DATE_WEEKDAY_SEL(RTC_AlarmStruct->RTC_AlarmDateWeekDaySel));
1097:../Libraries/STM32F4xx_StdPeriph_Driver/src/stm32f4xx_rtc.c **** 
1098:../Libraries/STM32F4xx_StdPeriph_Driver/src/stm32f4xx_rtc.c ****   if (RTC_Format == RTC_Format_BIN)
1099:../Libraries/STM32F4xx_StdPeriph_Driver/src/stm32f4xx_rtc.c ****   {
1100:../Libraries/STM32F4xx_StdPeriph_Driver/src/stm32f4xx_rtc.c ****     if ((RTC->CR & RTC_CR_FMT) != (uint32_t)RESET)
1101:../Libraries/STM32F4xx_StdPeriph_Driver/src/stm32f4xx_rtc.c ****     {
1102:../Libraries/STM32F4xx_StdPeriph_Driver/src/stm32f4xx_rtc.c ****       assert_param(IS_RTC_HOUR12(RTC_AlarmStruct->RTC_AlarmTime.RTC_Hours));
1103:../Libraries/STM32F4xx_StdPeriph_Driver/src/stm32f4xx_rtc.c ****       assert_param(IS_RTC_H12(RTC_AlarmStruct->RTC_AlarmTime.RTC_H12));
1104:../Libraries/STM32F4xx_StdPeriph_Driver/src/stm32f4xx_rtc.c ****     } 
1105:../Libraries/STM32F4xx_StdPeriph_Driver/src/stm32f4xx_rtc.c ****     else
1106:../Libraries/STM32F4xx_StdPeriph_Driver/src/stm32f4xx_rtc.c ****     {
1107:../Libraries/STM32F4xx_StdPeriph_Driver/src/stm32f4xx_rtc.c ****       RTC_AlarmStruct->RTC_AlarmTime.RTC_H12 = 0x00;
1108:../Libraries/STM32F4xx_StdPeriph_Driver/src/stm32f4xx_rtc.c ****       assert_param(IS_RTC_HOUR24(RTC_AlarmStruct->RTC_AlarmTime.RTC_Hours));
1109:../Libraries/STM32F4xx_StdPeriph_Driver/src/stm32f4xx_rtc.c ****     }
1110:../Libraries/STM32F4xx_StdPeriph_Driver/src/stm32f4xx_rtc.c ****     assert_param(IS_RTC_MINUTES(RTC_AlarmStruct->RTC_AlarmTime.RTC_Minutes));
1111:../Libraries/STM32F4xx_StdPeriph_Driver/src/stm32f4xx_rtc.c ****     assert_param(IS_RTC_SECONDS(RTC_AlarmStruct->RTC_AlarmTime.RTC_Seconds));
1112:../Libraries/STM32F4xx_StdPeriph_Driver/src/stm32f4xx_rtc.c ****     
1113:../Libraries/STM32F4xx_StdPeriph_Driver/src/stm32f4xx_rtc.c ****     if(RTC_AlarmStruct->RTC_AlarmDateWeekDaySel == RTC_AlarmDateWeekDaySel_Date)
1114:../Libraries/STM32F4xx_StdPeriph_Driver/src/stm32f4xx_rtc.c ****     {
ARM GAS  C:\Users\admin\AppData\Local\Temp\ccyr4W1e.s 			page 52


1115:../Libraries/STM32F4xx_StdPeriph_Driver/src/stm32f4xx_rtc.c ****       assert_param(IS_RTC_ALARM_DATE_WEEKDAY_DATE(RTC_AlarmStruct->RTC_AlarmDateWeekDay));
1116:../Libraries/STM32F4xx_StdPeriph_Driver/src/stm32f4xx_rtc.c ****     }
1117:../Libraries/STM32F4xx_StdPeriph_Driver/src/stm32f4xx_rtc.c ****     else
1118:../Libraries/STM32F4xx_StdPeriph_Driver/src/stm32f4xx_rtc.c ****     {
1119:../Libraries/STM32F4xx_StdPeriph_Driver/src/stm32f4xx_rtc.c ****       assert_param(IS_RTC_ALARM_DATE_WEEKDAY_WEEKDAY(RTC_AlarmStruct->RTC_AlarmDateWeekDay));
1120:../Libraries/STM32F4xx_StdPeriph_Driver/src/stm32f4xx_rtc.c ****     }
1121:../Libraries/STM32F4xx_StdPeriph_Driver/src/stm32f4xx_rtc.c ****   }
1122:../Libraries/STM32F4xx_StdPeriph_Driver/src/stm32f4xx_rtc.c ****   else
1123:../Libraries/STM32F4xx_StdPeriph_Driver/src/stm32f4xx_rtc.c ****   {
1124:../Libraries/STM32F4xx_StdPeriph_Driver/src/stm32f4xx_rtc.c ****     if ((RTC->CR & RTC_CR_FMT) != (uint32_t)RESET)
1125:../Libraries/STM32F4xx_StdPeriph_Driver/src/stm32f4xx_rtc.c ****     {
1126:../Libraries/STM32F4xx_StdPeriph_Driver/src/stm32f4xx_rtc.c ****       tmpreg = RTC_Bcd2ToByte(RTC_AlarmStruct->RTC_AlarmTime.RTC_Hours);
1127:../Libraries/STM32F4xx_StdPeriph_Driver/src/stm32f4xx_rtc.c ****       assert_param(IS_RTC_HOUR12(tmpreg));
1128:../Libraries/STM32F4xx_StdPeriph_Driver/src/stm32f4xx_rtc.c ****       assert_param(IS_RTC_H12(RTC_AlarmStruct->RTC_AlarmTime.RTC_H12));
1129:../Libraries/STM32F4xx_StdPeriph_Driver/src/stm32f4xx_rtc.c ****     } 
1130:../Libraries/STM32F4xx_StdPeriph_Driver/src/stm32f4xx_rtc.c ****     else
1131:../Libraries/STM32F4xx_StdPeriph_Driver/src/stm32f4xx_rtc.c ****     {
1132:../Libraries/STM32F4xx_StdPeriph_Driver/src/stm32f4xx_rtc.c ****       RTC_AlarmStruct->RTC_AlarmTime.RTC_H12 = 0x00;
1133:../Libraries/STM32F4xx_StdPeriph_Driver/src/stm32f4xx_rtc.c ****       assert_param(IS_RTC_HOUR24(RTC_Bcd2ToByte(RTC_AlarmStruct->RTC_AlarmTime.RTC_Hours)));
1134:../Libraries/STM32F4xx_StdPeriph_Driver/src/stm32f4xx_rtc.c ****     }
1135:../Libraries/STM32F4xx_StdPeriph_Driver/src/stm32f4xx_rtc.c ****     
1136:../Libraries/STM32F4xx_StdPeriph_Driver/src/stm32f4xx_rtc.c ****     assert_param(IS_RTC_MINUTES(RTC_Bcd2ToByte(RTC_AlarmStruct->RTC_AlarmTime.RTC_Minutes)));
1137:../Libraries/STM32F4xx_StdPeriph_Driver/src/stm32f4xx_rtc.c ****     assert_param(IS_RTC_SECONDS(RTC_Bcd2ToByte(RTC_AlarmStruct->RTC_AlarmTime.RTC_Seconds)));
1138:../Libraries/STM32F4xx_StdPeriph_Driver/src/stm32f4xx_rtc.c ****     
1139:../Libraries/STM32F4xx_StdPeriph_Driver/src/stm32f4xx_rtc.c ****     if(RTC_AlarmStruct->RTC_AlarmDateWeekDaySel == RTC_AlarmDateWeekDaySel_Date)
1140:../Libraries/STM32F4xx_StdPeriph_Driver/src/stm32f4xx_rtc.c ****     {
1141:../Libraries/STM32F4xx_StdPeriph_Driver/src/stm32f4xx_rtc.c ****       tmpreg = RTC_Bcd2ToByte(RTC_AlarmStruct->RTC_AlarmDateWeekDay);
1142:../Libraries/STM32F4xx_StdPeriph_Driver/src/stm32f4xx_rtc.c ****       assert_param(IS_RTC_ALARM_DATE_WEEKDAY_DATE(tmpreg));    
1143:../Libraries/STM32F4xx_StdPeriph_Driver/src/stm32f4xx_rtc.c ****     }
1144:../Libraries/STM32F4xx_StdPeriph_Driver/src/stm32f4xx_rtc.c ****     else
1145:../Libraries/STM32F4xx_StdPeriph_Driver/src/stm32f4xx_rtc.c ****     {
1146:../Libraries/STM32F4xx_StdPeriph_Driver/src/stm32f4xx_rtc.c ****       tmpreg = RTC_Bcd2ToByte(RTC_AlarmStruct->RTC_AlarmDateWeekDay);
1147:../Libraries/STM32F4xx_StdPeriph_Driver/src/stm32f4xx_rtc.c ****       assert_param(IS_RTC_ALARM_DATE_WEEKDAY_WEEKDAY(tmpreg));      
1148:../Libraries/STM32F4xx_StdPeriph_Driver/src/stm32f4xx_rtc.c ****     }    
1149:../Libraries/STM32F4xx_StdPeriph_Driver/src/stm32f4xx_rtc.c ****   }
1150:../Libraries/STM32F4xx_StdPeriph_Driver/src/stm32f4xx_rtc.c **** 
1151:../Libraries/STM32F4xx_StdPeriph_Driver/src/stm32f4xx_rtc.c ****   /* Check the input parameters format */
1152:../Libraries/STM32F4xx_StdPeriph_Driver/src/stm32f4xx_rtc.c ****   if (RTC_Format != RTC_Format_BIN)
1153:../Libraries/STM32F4xx_StdPeriph_Driver/src/stm32f4xx_rtc.c ****   {
1154:../Libraries/STM32F4xx_StdPeriph_Driver/src/stm32f4xx_rtc.c ****     tmpreg = (((uint32_t)(RTC_AlarmStruct->RTC_AlarmTime.RTC_Hours) << 16) | \
1155:../Libraries/STM32F4xx_StdPeriph_Driver/src/stm32f4xx_rtc.c ****               ((uint32_t)(RTC_AlarmStruct->RTC_AlarmTime.RTC_Minutes) << 8) | \
1156:../Libraries/STM32F4xx_StdPeriph_Driver/src/stm32f4xx_rtc.c ****               ((uint32_t)RTC_AlarmStruct->RTC_AlarmTime.RTC_Seconds) | \
1157:../Libraries/STM32F4xx_StdPeriph_Driver/src/stm32f4xx_rtc.c ****               ((uint32_t)(RTC_AlarmStruct->RTC_AlarmTime.RTC_H12) << 16) | \
1158:../Libraries/STM32F4xx_StdPeriph_Driver/src/stm32f4xx_rtc.c ****               ((uint32_t)(RTC_AlarmStruct->RTC_AlarmDateWeekDay) << 24) | \
1159:../Libraries/STM32F4xx_StdPeriph_Driver/src/stm32f4xx_rtc.c ****               ((uint32_t)RTC_AlarmStruct->RTC_AlarmDateWeekDaySel) | \
1160:../Libraries/STM32F4xx_StdPeriph_Driver/src/stm32f4xx_rtc.c ****               ((uint32_t)RTC_AlarmStruct->RTC_AlarmMask)); 
1161:../Libraries/STM32F4xx_StdPeriph_Driver/src/stm32f4xx_rtc.c ****   }  
1162:../Libraries/STM32F4xx_StdPeriph_Driver/src/stm32f4xx_rtc.c ****   else
1163:../Libraries/STM32F4xx_StdPeriph_Driver/src/stm32f4xx_rtc.c ****   {
1164:../Libraries/STM32F4xx_StdPeriph_Driver/src/stm32f4xx_rtc.c ****     tmpreg = (((uint32_t)RTC_ByteToBcd2(RTC_AlarmStruct->RTC_AlarmTime.RTC_Hours) << 16) | \
1165:../Libraries/STM32F4xx_StdPeriph_Driver/src/stm32f4xx_rtc.c ****               ((uint32_t)RTC_ByteToBcd2(RTC_AlarmStruct->RTC_AlarmTime.RTC_Minutes) << 8) | \
1166:../Libraries/STM32F4xx_StdPeriph_Driver/src/stm32f4xx_rtc.c ****               ((uint32_t)RTC_ByteToBcd2(RTC_AlarmStruct->RTC_AlarmTime.RTC_Seconds)) | \
1167:../Libraries/STM32F4xx_StdPeriph_Driver/src/stm32f4xx_rtc.c ****               ((uint32_t)(RTC_AlarmStruct->RTC_AlarmTime.RTC_H12) << 16) | \
1168:../Libraries/STM32F4xx_StdPeriph_Driver/src/stm32f4xx_rtc.c ****               ((uint32_t)RTC_ByteToBcd2(RTC_AlarmStruct->RTC_AlarmDateWeekDay) << 24) | \
1169:../Libraries/STM32F4xx_StdPeriph_Driver/src/stm32f4xx_rtc.c ****               ((uint32_t)RTC_AlarmStruct->RTC_AlarmDateWeekDaySel) | \
1170:../Libraries/STM32F4xx_StdPeriph_Driver/src/stm32f4xx_rtc.c ****               ((uint32_t)RTC_AlarmStruct->RTC_AlarmMask)); 
1171:../Libraries/STM32F4xx_StdPeriph_Driver/src/stm32f4xx_rtc.c ****   } 
ARM GAS  C:\Users\admin\AppData\Local\Temp\ccyr4W1e.s 			page 53


1172:../Libraries/STM32F4xx_StdPeriph_Driver/src/stm32f4xx_rtc.c **** 
1173:../Libraries/STM32F4xx_StdPeriph_Driver/src/stm32f4xx_rtc.c ****   /* Disable the write protection for RTC registers */
1174:../Libraries/STM32F4xx_StdPeriph_Driver/src/stm32f4xx_rtc.c ****   RTC->WPR = 0xCA;
1175:../Libraries/STM32F4xx_StdPeriph_Driver/src/stm32f4xx_rtc.c ****   RTC->WPR = 0x53;
1176:../Libraries/STM32F4xx_StdPeriph_Driver/src/stm32f4xx_rtc.c **** 
1177:../Libraries/STM32F4xx_StdPeriph_Driver/src/stm32f4xx_rtc.c ****   /* Configure the Alarm register */
1178:../Libraries/STM32F4xx_StdPeriph_Driver/src/stm32f4xx_rtc.c ****   if (RTC_Alarm == RTC_Alarm_A)
1179:../Libraries/STM32F4xx_StdPeriph_Driver/src/stm32f4xx_rtc.c ****   {
1180:../Libraries/STM32F4xx_StdPeriph_Driver/src/stm32f4xx_rtc.c ****     RTC->ALRMAR = (uint32_t)tmpreg;
1181:../Libraries/STM32F4xx_StdPeriph_Driver/src/stm32f4xx_rtc.c ****   }
1182:../Libraries/STM32F4xx_StdPeriph_Driver/src/stm32f4xx_rtc.c ****   else
1183:../Libraries/STM32F4xx_StdPeriph_Driver/src/stm32f4xx_rtc.c ****   {
1184:../Libraries/STM32F4xx_StdPeriph_Driver/src/stm32f4xx_rtc.c ****     RTC->ALRMBR = (uint32_t)tmpreg;
1185:../Libraries/STM32F4xx_StdPeriph_Driver/src/stm32f4xx_rtc.c ****   }
1186:../Libraries/STM32F4xx_StdPeriph_Driver/src/stm32f4xx_rtc.c **** 
1187:../Libraries/STM32F4xx_StdPeriph_Driver/src/stm32f4xx_rtc.c ****   /* Enable the write protection for RTC registers */
1188:../Libraries/STM32F4xx_StdPeriph_Driver/src/stm32f4xx_rtc.c ****   RTC->WPR = 0xFF;   
1189:../Libraries/STM32F4xx_StdPeriph_Driver/src/stm32f4xx_rtc.c **** }
1190:../Libraries/STM32F4xx_StdPeriph_Driver/src/stm32f4xx_rtc.c **** 
1191:../Libraries/STM32F4xx_StdPeriph_Driver/src/stm32f4xx_rtc.c **** /**
1192:../Libraries/STM32F4xx_StdPeriph_Driver/src/stm32f4xx_rtc.c ****   * @brief  Fills each RTC_AlarmStruct member with its default value
1193:../Libraries/STM32F4xx_StdPeriph_Driver/src/stm32f4xx_rtc.c ****   *         (Time = 00h:00mn:00sec / Date = 1st day of the month/Mask =
1194:../Libraries/STM32F4xx_StdPeriph_Driver/src/stm32f4xx_rtc.c ****   *         all fields are masked).
1195:../Libraries/STM32F4xx_StdPeriph_Driver/src/stm32f4xx_rtc.c ****   * @param  RTC_AlarmStruct: pointer to a @ref RTC_AlarmTypeDef structure which
1196:../Libraries/STM32F4xx_StdPeriph_Driver/src/stm32f4xx_rtc.c ****   *         will be initialized.
1197:../Libraries/STM32F4xx_StdPeriph_Driver/src/stm32f4xx_rtc.c ****   * @retval None
1198:../Libraries/STM32F4xx_StdPeriph_Driver/src/stm32f4xx_rtc.c ****   */
1199:../Libraries/STM32F4xx_StdPeriph_Driver/src/stm32f4xx_rtc.c **** void RTC_AlarmStructInit(RTC_AlarmTypeDef* RTC_AlarmStruct)
1200:../Libraries/STM32F4xx_StdPeriph_Driver/src/stm32f4xx_rtc.c **** {
1201:../Libraries/STM32F4xx_StdPeriph_Driver/src/stm32f4xx_rtc.c ****   /* Alarm Time Settings : Time = 00h:00mn:00sec */
1202:../Libraries/STM32F4xx_StdPeriph_Driver/src/stm32f4xx_rtc.c ****   RTC_AlarmStruct->RTC_AlarmTime.RTC_H12 = RTC_H12_AM;
1203:../Libraries/STM32F4xx_StdPeriph_Driver/src/stm32f4xx_rtc.c ****   RTC_AlarmStruct->RTC_AlarmTime.RTC_Hours = 0;
1204:../Libraries/STM32F4xx_StdPeriph_Driver/src/stm32f4xx_rtc.c ****   RTC_AlarmStruct->RTC_AlarmTime.RTC_Minutes = 0;
1205:../Libraries/STM32F4xx_StdPeriph_Driver/src/stm32f4xx_rtc.c ****   RTC_AlarmStruct->RTC_AlarmTime.RTC_Seconds = 0;
1206:../Libraries/STM32F4xx_StdPeriph_Driver/src/stm32f4xx_rtc.c **** 
1207:../Libraries/STM32F4xx_StdPeriph_Driver/src/stm32f4xx_rtc.c ****   /* Alarm Date Settings : Date = 1st day of the month */
1208:../Libraries/STM32F4xx_StdPeriph_Driver/src/stm32f4xx_rtc.c ****   RTC_AlarmStruct->RTC_AlarmDateWeekDaySel = RTC_AlarmDateWeekDaySel_Date;
