ARM GAS  C:\Users\admin\AppData\Local\Temp\cc56s6zd.s 			page 1


   1              		.cpu cortex-m4
   2              		.arch armv7e-m
   3              		.fpu fpv4-sp-d16
   4              		.eabi_attribute 27, 1	@ Tag_ABI_HardFP_use
   5              		.eabi_attribute 28, 1	@ Tag_ABI_VFP_args
   6              		.eabi_attribute 23, 1	@ Tag_ABI_FP_number_model
   7              		.eabi_attribute 24, 1	@ Tag_ABI_align8_needed
   8              		.eabi_attribute 25, 1	@ Tag_ABI_align8_preserved
   9              		.eabi_attribute 26, 1	@ Tag_ABI_enum_size
  10              		.eabi_attribute 30, 2	@ Tag_ABI_optimization_goals
  11              		.eabi_attribute 34, 1	@ Tag_CPU_unaligned_access
  12              		.eabi_attribute 18, 4	@ Tag_ABI_PCS_wchar_t
  13              		.file	"stm32f4xx_iwdg.c"
  14              	@ GNU C89 (GNU Arm Embedded Toolchain 10.3-2021.10) version 10.3.1 20210824 (release) (arm-none-eab
  15              	@	compiled by GNU C version 7.3-win32 20180312, GMP version 6.1.0, MPFR version 3.1.4, MPC version 
  16              	
  17              	@ GGC heuristics: --param ggc-min-expand=100 --param ggc-min-heapsize=131072
  18              	@ options passed:  -I . -I . -I ../Utilities/STM32F4-Discovery/
  19              	@ -I ../Libraries/STM32_USB_Device_Library/Class/audio/inc/
  20              	@ -I ../Libraries/STM32_USB_Device_Library/Core/inc/
  21              	@ -I ../Libraries/STM32_USB_OTG_Driver/inc/
  22              	@ -I ../Utilities/STM32F4-Discovery/
  23              	@ -I ../Libraries/STM32F4xx_StdPeriph_Driver/inc/
  24              	@ -I ../Utilities/STM32F4-Discovery/
  25              	@ -I ../Libraries/CMSIS/ST/STM32F4xx/Include/
  26              	@ -I ../Libraries/CMSIS/Include/ -imultilib thumb/v7e-m+fp/hard
  27              	@ -iprefix c:\program files (x86)\gnu arm embedded toolchain\10 2021.10\bin\../lib/gcc/arm-none-eab
  28              	@ -isysroot c:\program files (x86)\gnu arm embedded toolchain\10 2021.10\bin\../arm-none-eabi
  29              	@ -MD out/stm32f4xx_iwdg.d -MF out/stm32f4xx_iwdg.d -MP
  30              	@ -MQ out/stm32f4xx_iwdg.o -D__USES_INITFINI__ -D STM32F4XX -D __VFP_FP__
  31              	@ -D USE_USB_OTG_FS
  32              	@ ../Libraries/STM32F4xx_StdPeriph_Driver/src/stm32f4xx_iwdg.c
  33              	@ -mcpu=cortex-m4 -mthumb -mfloat-abi=hard -mfpu=fpv4-sp-d16
  34              	@ -mlibarch=armv7e-m+fp -march=armv7e-m+fp
  35              	@ -auxbase-strip out/stm32f4xx_iwdg.o -g -ggdb3 -O3 -Wall
  36              	@ -Wstrict-prototypes -Wextra -std=gnu90 -ffast-math -ffunction-sections
  37              	@ -fdata-sections -fverbose-asm
  38              	@ options enabled:  -faggressive-loop-optimizations -falign-functions
  39              	@ -falign-jumps -falign-labels -falign-loops -fallocation-dce
  40              	@ -fassociative-math -fauto-inc-dec -fbranch-count-reg -fcaller-saves
  41              	@ -fcombine-stack-adjustments -fcompare-elim -fcprop-registers
  42              	@ -fcrossjumping -fcse-follow-jumps -fcx-limited-range -fdata-sections
  43              	@ -fdefer-pop -fdelete-null-pointer-checks -fdevirtualize
  44              	@ -fdevirtualize-speculatively -fdwarf2-cfi-asm -fearly-inlining
  45              	@ -feliminate-unused-debug-symbols -feliminate-unused-debug-types
  46              	@ -fexpensive-optimizations -ffinite-math-only -fforward-propagate
  47              	@ -ffp-int-builtin-inexact -ffunction-cse -ffunction-sections -fgcse
  48              	@ -fgcse-after-reload -fgcse-lm -fgnu-unique -fguess-branch-probability
  49              	@ -fhoist-adjacent-loads -fident -fif-conversion -fif-conversion2
  50              	@ -findirect-inlining -finline -finline-atomics -finline-functions
  51              	@ -finline-functions-called-once -finline-small-functions -fipa-bit-cp
  52              	@ -fipa-cp -fipa-cp-clone -fipa-icf -fipa-icf-functions -fipa-icf-variables
  53              	@ -fipa-profile -fipa-pure-const -fipa-ra -fipa-reference
  54              	@ -fipa-reference-addressable -fipa-sra -fipa-stack-alignment -fipa-vrp
  55              	@ -fira-hoist-pressure -fira-share-save-slots -fira-share-spill-slots
  56              	@ -fisolate-erroneous-paths-dereference -fivopts -fkeep-static-consts
  57              	@ -fleading-underscore -flifetime-dse -floop-interchange
ARM GAS  C:\Users\admin\AppData\Local\Temp\cc56s6zd.s 			page 2


  58              	@ -floop-unroll-and-jam -flra-remat -fmerge-constants -fmerge-debug-strings
  59              	@ -fmove-loop-invariants -fomit-frame-pointer -foptimize-sibling-calls
  60              	@ -foptimize-strlen -fpartial-inlining -fpeel-loops -fpeephole -fpeephole2
  61              	@ -fplt -fpredictive-commoning -fprefetch-loop-arrays -freciprocal-math
  62              	@ -freg-struct-return -freorder-blocks -freorder-functions
  63              	@ -frerun-cse-after-loop -fsched-critical-path-heuristic
  64              	@ -fsched-dep-count-heuristic -fsched-group-heuristic -fsched-interblock
  65              	@ -fsched-last-insn-heuristic -fsched-pressure -fsched-rank-heuristic
  66              	@ -fsched-spec -fsched-spec-insn-heuristic -fsched-stalled-insns-dep
  67              	@ -fschedule-insns -fschedule-insns2 -fsection-anchors
  68              	@ -fsemantic-interposition -fshow-column -fshrink-wrap
  69              	@ -fshrink-wrap-separate -fsplit-ivs-in-unroller -fsplit-loops
  70              	@ -fsplit-paths -fsplit-wide-types -fssa-backprop -fssa-phiopt -fstdarg-opt
  71              	@ -fstore-merging -fstrict-aliasing -fstrict-volatile-bitfields
  72              	@ -fsync-libcalls -fthread-jumps -ftoplevel-reorder -ftree-bit-ccp
  73              	@ -ftree-builtin-call-dce -ftree-ccp -ftree-ch -ftree-coalesce-vars
  74              	@ -ftree-copy-prop -ftree-cselim -ftree-dce -ftree-dominator-opts
  75              	@ -ftree-dse -ftree-forwprop -ftree-fre -ftree-loop-distribute-patterns
  76              	@ -ftree-loop-distribution -ftree-loop-if-convert -ftree-loop-im
  77              	@ -ftree-loop-ivcanon -ftree-loop-optimize -ftree-loop-vectorize
  78              	@ -ftree-parallelize-loops= -ftree-partial-pre -ftree-phiprop -ftree-pre
  79              	@ -ftree-pta -ftree-reassoc -ftree-scev-cprop -ftree-sink
  80              	@ -ftree-slp-vectorize -ftree-slsr -ftree-sra -ftree-switch-conversion
  81              	@ -ftree-tail-merge -ftree-ter -ftree-vrp -funit-at-a-time
  82              	@ -funsafe-math-optimizations -funswitch-loops -fvar-tracking
  83              	@ -fvar-tracking-assignments -fverbose-asm -fversion-loops-for-strides
  84              	@ -fzero-initialized-in-bss -masm-syntax-unified -mbe32 -mlittle-endian
  85              	@ -mpic-data-is-text-relative -msched-prolog -mthumb -munaligned-access
  86              	@ -mvectorize-with-neon-quad
  87              	
  88              		.text
  89              	.Ltext0:
  90              		.cfi_sections	.debug_frame
  91              		.section	.text.IWDG_WriteAccessCmd,"ax",%progbits
  92              		.align	1
  93              		.p2align 2,,3
  94              		.global	IWDG_WriteAccessCmd
  95              		.syntax unified
  96              		.thumb
  97              		.thumb_func
  98              		.type	IWDG_WriteAccessCmd, %function
  99              	IWDG_WriteAccessCmd:
 100              	.LVL0:
 101              	.LFB110:
 102              		.file 1 "../Libraries/STM32F4xx_StdPeriph_Driver/src/stm32f4xx_iwdg.c"
   1:../Libraries/STM32F4xx_StdPeriph_Driver/src/stm32f4xx_iwdg.c **** /**
   2:../Libraries/STM32F4xx_StdPeriph_Driver/src/stm32f4xx_iwdg.c ****   ******************************************************************************
   3:../Libraries/STM32F4xx_StdPeriph_Driver/src/stm32f4xx_iwdg.c ****   * @file    stm32f4xx_iwdg.c
   4:../Libraries/STM32F4xx_StdPeriph_Driver/src/stm32f4xx_iwdg.c ****   * @author  MCD Application Team
   5:../Libraries/STM32F4xx_StdPeriph_Driver/src/stm32f4xx_iwdg.c ****   * @version V1.0.0
   6:../Libraries/STM32F4xx_StdPeriph_Driver/src/stm32f4xx_iwdg.c ****   * @date    30-September-2011
   7:../Libraries/STM32F4xx_StdPeriph_Driver/src/stm32f4xx_iwdg.c ****   * @brief   This file provides firmware functions to manage the following 
   8:../Libraries/STM32F4xx_StdPeriph_Driver/src/stm32f4xx_iwdg.c ****   *          functionalities of the Independent watchdog (IWDG) peripheral:           
   9:../Libraries/STM32F4xx_StdPeriph_Driver/src/stm32f4xx_iwdg.c ****   *           - Prescaler and Counter configuration
  10:../Libraries/STM32F4xx_StdPeriph_Driver/src/stm32f4xx_iwdg.c ****   *           - IWDG activation
  11:../Libraries/STM32F4xx_StdPeriph_Driver/src/stm32f4xx_iwdg.c ****   *           - Flag management
  12:../Libraries/STM32F4xx_StdPeriph_Driver/src/stm32f4xx_iwdg.c ****   *
ARM GAS  C:\Users\admin\AppData\Local\Temp\cc56s6zd.s 			page 3


  13:../Libraries/STM32F4xx_StdPeriph_Driver/src/stm32f4xx_iwdg.c ****   *  @verbatim  
  14:../Libraries/STM32F4xx_StdPeriph_Driver/src/stm32f4xx_iwdg.c ****   *  
  15:../Libraries/STM32F4xx_StdPeriph_Driver/src/stm32f4xx_iwdg.c ****   *          ===================================================================
  16:../Libraries/STM32F4xx_StdPeriph_Driver/src/stm32f4xx_iwdg.c ****   *                                     IWDG features
  17:../Libraries/STM32F4xx_StdPeriph_Driver/src/stm32f4xx_iwdg.c ****   *          ===================================================================
  18:../Libraries/STM32F4xx_StdPeriph_Driver/src/stm32f4xx_iwdg.c ****   *    
  19:../Libraries/STM32F4xx_StdPeriph_Driver/src/stm32f4xx_iwdg.c ****   *          The IWDG can be started by either software or hardware (configurable
  20:../Libraries/STM32F4xx_StdPeriph_Driver/src/stm32f4xx_iwdg.c ****   *          through option byte).
  21:../Libraries/STM32F4xx_StdPeriph_Driver/src/stm32f4xx_iwdg.c ****   *            
  22:../Libraries/STM32F4xx_StdPeriph_Driver/src/stm32f4xx_iwdg.c ****   *          The IWDG is clocked by its own dedicated low-speed clock (LSI) and
  23:../Libraries/STM32F4xx_StdPeriph_Driver/src/stm32f4xx_iwdg.c ****   *          thus stays active even if the main clock fails.
  24:../Libraries/STM32F4xx_StdPeriph_Driver/src/stm32f4xx_iwdg.c ****   *          Once the IWDG is started, the LSI is forced ON and cannot be disabled
  25:../Libraries/STM32F4xx_StdPeriph_Driver/src/stm32f4xx_iwdg.c ****   *          (LSI cannot be disabled too), and the counter starts counting down from 
  26:../Libraries/STM32F4xx_StdPeriph_Driver/src/stm32f4xx_iwdg.c ****   *          the reset value of 0xFFF. When it reaches the end of count value (0x000)
  27:../Libraries/STM32F4xx_StdPeriph_Driver/src/stm32f4xx_iwdg.c ****   *          a system reset is generated.
  28:../Libraries/STM32F4xx_StdPeriph_Driver/src/stm32f4xx_iwdg.c ****   *          The IWDG counter should be reloaded at regular intervals to prevent
  29:../Libraries/STM32F4xx_StdPeriph_Driver/src/stm32f4xx_iwdg.c ****   *          an MCU reset.
  30:../Libraries/STM32F4xx_StdPeriph_Driver/src/stm32f4xx_iwdg.c ****   *                           
  31:../Libraries/STM32F4xx_StdPeriph_Driver/src/stm32f4xx_iwdg.c ****   *          The IWDG is implemented in the VDD voltage domain that is still functional
  32:../Libraries/STM32F4xx_StdPeriph_Driver/src/stm32f4xx_iwdg.c ****   *          in STOP and STANDBY mode (IWDG reset can wake-up from STANDBY).          
  33:../Libraries/STM32F4xx_StdPeriph_Driver/src/stm32f4xx_iwdg.c ****   *            
  34:../Libraries/STM32F4xx_StdPeriph_Driver/src/stm32f4xx_iwdg.c ****   *          IWDGRST flag in RCC_CSR register can be used to inform when a IWDG
  35:../Libraries/STM32F4xx_StdPeriph_Driver/src/stm32f4xx_iwdg.c ****   *          reset occurs.
  36:../Libraries/STM32F4xx_StdPeriph_Driver/src/stm32f4xx_iwdg.c ****   *            
  37:../Libraries/STM32F4xx_StdPeriph_Driver/src/stm32f4xx_iwdg.c ****   *          Min-max timeout value @32KHz (LSI): ~125us / ~32.7s
  38:../Libraries/STM32F4xx_StdPeriph_Driver/src/stm32f4xx_iwdg.c ****   *          The IWDG timeout may vary due to LSI frequency dispersion. STM32F4xx
  39:../Libraries/STM32F4xx_StdPeriph_Driver/src/stm32f4xx_iwdg.c ****   *          devices provide the capability to measure the LSI frequency (LSI clock
  40:../Libraries/STM32F4xx_StdPeriph_Driver/src/stm32f4xx_iwdg.c ****   *          connected internally to TIM5 CH4 input capture). The measured value
  41:../Libraries/STM32F4xx_StdPeriph_Driver/src/stm32f4xx_iwdg.c ****   *          can be used to have an IWDG timeout with an acceptable accuracy. 
  42:../Libraries/STM32F4xx_StdPeriph_Driver/src/stm32f4xx_iwdg.c ****   *          For more information, please refer to the STM32F4xx Reference manual
  43:../Libraries/STM32F4xx_StdPeriph_Driver/src/stm32f4xx_iwdg.c ****   *          
  44:../Libraries/STM32F4xx_StdPeriph_Driver/src/stm32f4xx_iwdg.c ****   *                            
  45:../Libraries/STM32F4xx_StdPeriph_Driver/src/stm32f4xx_iwdg.c ****   *          ===================================================================
  46:../Libraries/STM32F4xx_StdPeriph_Driver/src/stm32f4xx_iwdg.c ****   *                                 How to use this driver
  47:../Libraries/STM32F4xx_StdPeriph_Driver/src/stm32f4xx_iwdg.c ****   *          ===================================================================
  48:../Libraries/STM32F4xx_StdPeriph_Driver/src/stm32f4xx_iwdg.c ****   *          1. Enable write access to IWDG_PR and IWDG_RLR registers using
  49:../Libraries/STM32F4xx_StdPeriph_Driver/src/stm32f4xx_iwdg.c ****   *             IWDG_WriteAccessCmd(IWDG_WriteAccess_Enable) function
  50:../Libraries/STM32F4xx_StdPeriph_Driver/src/stm32f4xx_iwdg.c ****   *               
  51:../Libraries/STM32F4xx_StdPeriph_Driver/src/stm32f4xx_iwdg.c ****   *          2. Configure the IWDG prescaler using IWDG_SetPrescaler() function
  52:../Libraries/STM32F4xx_StdPeriph_Driver/src/stm32f4xx_iwdg.c ****   *            
  53:../Libraries/STM32F4xx_StdPeriph_Driver/src/stm32f4xx_iwdg.c ****   *          3. Configure the IWDG counter value using IWDG_SetReload() function.
  54:../Libraries/STM32F4xx_StdPeriph_Driver/src/stm32f4xx_iwdg.c ****   *             This value will be loaded in the IWDG counter each time the counter
  55:../Libraries/STM32F4xx_StdPeriph_Driver/src/stm32f4xx_iwdg.c ****   *             is reloaded, then the IWDG will start counting down from this value.
  56:../Libraries/STM32F4xx_StdPeriph_Driver/src/stm32f4xx_iwdg.c ****   *            
  57:../Libraries/STM32F4xx_StdPeriph_Driver/src/stm32f4xx_iwdg.c ****   *          4. Start the IWDG using IWDG_Enable() function, when the IWDG is used
  58:../Libraries/STM32F4xx_StdPeriph_Driver/src/stm32f4xx_iwdg.c ****   *             in software mode (no need to enable the LSI, it will be enabled
  59:../Libraries/STM32F4xx_StdPeriph_Driver/src/stm32f4xx_iwdg.c ****   *             by hardware)
  60:../Libraries/STM32F4xx_StdPeriph_Driver/src/stm32f4xx_iwdg.c ****   *             
  61:../Libraries/STM32F4xx_StdPeriph_Driver/src/stm32f4xx_iwdg.c ****   *          5. Then the application program must reload the IWDG counter at regular
  62:../Libraries/STM32F4xx_StdPeriph_Driver/src/stm32f4xx_iwdg.c ****   *             intervals during normal operation to prevent an MCU reset, using
  63:../Libraries/STM32F4xx_StdPeriph_Driver/src/stm32f4xx_iwdg.c ****   *             IWDG_ReloadCounter() function.      
  64:../Libraries/STM32F4xx_StdPeriph_Driver/src/stm32f4xx_iwdg.c ****   *          
  65:../Libraries/STM32F4xx_StdPeriph_Driver/src/stm32f4xx_iwdg.c ****   *  @endverbatim
  66:../Libraries/STM32F4xx_StdPeriph_Driver/src/stm32f4xx_iwdg.c ****   *    
  67:../Libraries/STM32F4xx_StdPeriph_Driver/src/stm32f4xx_iwdg.c ****   ******************************************************************************
  68:../Libraries/STM32F4xx_StdPeriph_Driver/src/stm32f4xx_iwdg.c ****   * @attention
  69:../Libraries/STM32F4xx_StdPeriph_Driver/src/stm32f4xx_iwdg.c ****   *
ARM GAS  C:\Users\admin\AppData\Local\Temp\cc56s6zd.s 			page 4


  70:../Libraries/STM32F4xx_StdPeriph_Driver/src/stm32f4xx_iwdg.c ****   * THE PRESENT FIRMWARE WHICH IS FOR GUIDANCE ONLY AIMS AT PROVIDING CUSTOMERS
  71:../Libraries/STM32F4xx_StdPeriph_Driver/src/stm32f4xx_iwdg.c ****   * WITH CODING INFORMATION REGARDING THEIR PRODUCTS IN ORDER FOR THEM TO SAVE
  72:../Libraries/STM32F4xx_StdPeriph_Driver/src/stm32f4xx_iwdg.c ****   * TIME. AS A RESULT, STMICROELECTRONICS SHALL NOT BE HELD LIABLE FOR ANY
  73:../Libraries/STM32F4xx_StdPeriph_Driver/src/stm32f4xx_iwdg.c ****   * DIRECT, INDIRECT OR CONSEQUENTIAL DAMAGES WITH RESPECT TO ANY CLAIMS ARISING
  74:../Libraries/STM32F4xx_StdPeriph_Driver/src/stm32f4xx_iwdg.c ****   * FROM THE CONTENT OF SUCH FIRMWARE AND/OR THE USE MADE BY CUSTOMERS OF THE
  75:../Libraries/STM32F4xx_StdPeriph_Driver/src/stm32f4xx_iwdg.c ****   * CODING INFORMATION CONTAINED HEREIN IN CONNECTION WITH THEIR PRODUCTS.
  76:../Libraries/STM32F4xx_StdPeriph_Driver/src/stm32f4xx_iwdg.c ****   *
  77:../Libraries/STM32F4xx_StdPeriph_Driver/src/stm32f4xx_iwdg.c ****   * <h2><center>&copy; COPYRIGHT 2011 STMicroelectronics</center></h2>
  78:../Libraries/STM32F4xx_StdPeriph_Driver/src/stm32f4xx_iwdg.c ****   ******************************************************************************
  79:../Libraries/STM32F4xx_StdPeriph_Driver/src/stm32f4xx_iwdg.c ****   */
  80:../Libraries/STM32F4xx_StdPeriph_Driver/src/stm32f4xx_iwdg.c **** 
  81:../Libraries/STM32F4xx_StdPeriph_Driver/src/stm32f4xx_iwdg.c **** /* Includes ------------------------------------------------------------------*/
  82:../Libraries/STM32F4xx_StdPeriph_Driver/src/stm32f4xx_iwdg.c **** #include "stm32f4xx_iwdg.h"
  83:../Libraries/STM32F4xx_StdPeriph_Driver/src/stm32f4xx_iwdg.c **** 
  84:../Libraries/STM32F4xx_StdPeriph_Driver/src/stm32f4xx_iwdg.c **** /** @addtogroup STM32F4xx_StdPeriph_Driver
  85:../Libraries/STM32F4xx_StdPeriph_Driver/src/stm32f4xx_iwdg.c ****   * @{
  86:../Libraries/STM32F4xx_StdPeriph_Driver/src/stm32f4xx_iwdg.c ****   */
  87:../Libraries/STM32F4xx_StdPeriph_Driver/src/stm32f4xx_iwdg.c **** 
  88:../Libraries/STM32F4xx_StdPeriph_Driver/src/stm32f4xx_iwdg.c **** /** @defgroup IWDG 
  89:../Libraries/STM32F4xx_StdPeriph_Driver/src/stm32f4xx_iwdg.c ****   * @brief IWDG driver modules
  90:../Libraries/STM32F4xx_StdPeriph_Driver/src/stm32f4xx_iwdg.c ****   * @{
  91:../Libraries/STM32F4xx_StdPeriph_Driver/src/stm32f4xx_iwdg.c ****   */ 
  92:../Libraries/STM32F4xx_StdPeriph_Driver/src/stm32f4xx_iwdg.c **** 
  93:../Libraries/STM32F4xx_StdPeriph_Driver/src/stm32f4xx_iwdg.c **** /* Private typedef -----------------------------------------------------------*/
  94:../Libraries/STM32F4xx_StdPeriph_Driver/src/stm32f4xx_iwdg.c **** /* Private define ------------------------------------------------------------*/
  95:../Libraries/STM32F4xx_StdPeriph_Driver/src/stm32f4xx_iwdg.c **** 
  96:../Libraries/STM32F4xx_StdPeriph_Driver/src/stm32f4xx_iwdg.c **** /* KR register bit mask */
  97:../Libraries/STM32F4xx_StdPeriph_Driver/src/stm32f4xx_iwdg.c **** #define KR_KEY_RELOAD    ((uint16_t)0xAAAA)
  98:../Libraries/STM32F4xx_StdPeriph_Driver/src/stm32f4xx_iwdg.c **** #define KR_KEY_ENABLE    ((uint16_t)0xCCCC)
  99:../Libraries/STM32F4xx_StdPeriph_Driver/src/stm32f4xx_iwdg.c **** 
 100:../Libraries/STM32F4xx_StdPeriph_Driver/src/stm32f4xx_iwdg.c **** /* Private macro -------------------------------------------------------------*/
 101:../Libraries/STM32F4xx_StdPeriph_Driver/src/stm32f4xx_iwdg.c **** /* Private variables ---------------------------------------------------------*/
 102:../Libraries/STM32F4xx_StdPeriph_Driver/src/stm32f4xx_iwdg.c **** /* Private function prototypes -----------------------------------------------*/
 103:../Libraries/STM32F4xx_StdPeriph_Driver/src/stm32f4xx_iwdg.c **** /* Private functions ---------------------------------------------------------*/
 104:../Libraries/STM32F4xx_StdPeriph_Driver/src/stm32f4xx_iwdg.c **** 
 105:../Libraries/STM32F4xx_StdPeriph_Driver/src/stm32f4xx_iwdg.c **** /** @defgroup IWDG_Private_Functions
 106:../Libraries/STM32F4xx_StdPeriph_Driver/src/stm32f4xx_iwdg.c ****   * @{
 107:../Libraries/STM32F4xx_StdPeriph_Driver/src/stm32f4xx_iwdg.c ****   */
 108:../Libraries/STM32F4xx_StdPeriph_Driver/src/stm32f4xx_iwdg.c **** 
 109:../Libraries/STM32F4xx_StdPeriph_Driver/src/stm32f4xx_iwdg.c **** /** @defgroup IWDG_Group1 Prescaler and Counter configuration functions
 110:../Libraries/STM32F4xx_StdPeriph_Driver/src/stm32f4xx_iwdg.c ****  *  @brief   Prescaler and Counter configuration functions
 111:../Libraries/STM32F4xx_StdPeriph_Driver/src/stm32f4xx_iwdg.c ****  *
 112:../Libraries/STM32F4xx_StdPeriph_Driver/src/stm32f4xx_iwdg.c **** @verbatim   
 113:../Libraries/STM32F4xx_StdPeriph_Driver/src/stm32f4xx_iwdg.c ****  ===============================================================================
 114:../Libraries/STM32F4xx_StdPeriph_Driver/src/stm32f4xx_iwdg.c ****                   Prescaler and Counter configuration functions
 115:../Libraries/STM32F4xx_StdPeriph_Driver/src/stm32f4xx_iwdg.c ****  ===============================================================================  
 116:../Libraries/STM32F4xx_StdPeriph_Driver/src/stm32f4xx_iwdg.c **** 
 117:../Libraries/STM32F4xx_StdPeriph_Driver/src/stm32f4xx_iwdg.c **** @endverbatim
 118:../Libraries/STM32F4xx_StdPeriph_Driver/src/stm32f4xx_iwdg.c ****   * @{
 119:../Libraries/STM32F4xx_StdPeriph_Driver/src/stm32f4xx_iwdg.c ****   */
 120:../Libraries/STM32F4xx_StdPeriph_Driver/src/stm32f4xx_iwdg.c **** 
 121:../Libraries/STM32F4xx_StdPeriph_Driver/src/stm32f4xx_iwdg.c **** /**
 122:../Libraries/STM32F4xx_StdPeriph_Driver/src/stm32f4xx_iwdg.c ****   * @brief  Enables or disables write access to IWDG_PR and IWDG_RLR registers.
 123:../Libraries/STM32F4xx_StdPeriph_Driver/src/stm32f4xx_iwdg.c ****   * @param  IWDG_WriteAccess: new state of write access to IWDG_PR and IWDG_RLR registers.
 124:../Libraries/STM32F4xx_StdPeriph_Driver/src/stm32f4xx_iwdg.c ****   *          This parameter can be one of the following values:
 125:../Libraries/STM32F4xx_StdPeriph_Driver/src/stm32f4xx_iwdg.c ****   *            @arg IWDG_WriteAccess_Enable: Enable write access to IWDG_PR and IWDG_RLR registers
 126:../Libraries/STM32F4xx_StdPeriph_Driver/src/stm32f4xx_iwdg.c ****   *            @arg IWDG_WriteAccess_Disable: Disable write access to IWDG_PR and IWDG_RLR register
ARM GAS  C:\Users\admin\AppData\Local\Temp\cc56s6zd.s 			page 5


 127:../Libraries/STM32F4xx_StdPeriph_Driver/src/stm32f4xx_iwdg.c ****   * @retval None
 128:../Libraries/STM32F4xx_StdPeriph_Driver/src/stm32f4xx_iwdg.c ****   */
 129:../Libraries/STM32F4xx_StdPeriph_Driver/src/stm32f4xx_iwdg.c **** void IWDG_WriteAccessCmd(uint16_t IWDG_WriteAccess)
 130:../Libraries/STM32F4xx_StdPeriph_Driver/src/stm32f4xx_iwdg.c **** {
 103              		.loc 1 130 1 view -0
 104              		.cfi_startproc
 105              		@ args = 0, pretend = 0, frame = 0
 106              		@ frame_needed = 0, uses_anonymous_args = 0
 131:../Libraries/STM32F4xx_StdPeriph_Driver/src/stm32f4xx_iwdg.c ****   /* Check the parameters */
 132:../Libraries/STM32F4xx_StdPeriph_Driver/src/stm32f4xx_iwdg.c ****   assert_param(IS_IWDG_WRITE_ACCESS(IWDG_WriteAccess));
 107              		.loc 1 132 3 view .LVU1
 108 0000 45F25553 		movw	r3, #21845	@ tmp117,
 109 0004 9842     		cmp	r0, r3	@ IWDG_WriteAccess, tmp117
 110              	@ ../Libraries/STM32F4xx_StdPeriph_Driver/src/stm32f4xx_iwdg.c:130: {
 130:../Libraries/STM32F4xx_StdPeriph_Driver/src/stm32f4xx_iwdg.c ****   /* Check the parameters */
 111              		.loc 1 130 1 is_stmt 0 view .LVU2
 112 0006 10B5     		push	{r4, lr}	@
 113              		.cfi_def_cfa_offset 8
 114              		.cfi_offset 4, -8
 115              		.cfi_offset 14, -4
 116              	@ ../Libraries/STM32F4xx_StdPeriph_Driver/src/stm32f4xx_iwdg.c:130: {
 130:../Libraries/STM32F4xx_StdPeriph_Driver/src/stm32f4xx_iwdg.c ****   /* Check the parameters */
 117              		.loc 1 130 1 view .LVU3
 118 0008 0446     		mov	r4, r0	@ IWDG_WriteAccess, tmp121
 119              	@ ../Libraries/STM32F4xx_StdPeriph_Driver/src/stm32f4xx_iwdg.c:132:   assert_param(IS_IWDG_WRITE_AC
 120              		.loc 1 132 3 view .LVU4
 121 000a 1ABF     		itte	ne
 122 000c B0FA80F0 		clzne	r0, r0	@ iftmp.0_2, IWDG_WriteAccess
 123              	.LVL1:
 124              		.loc 1 132 3 view .LVU5
 125 0010 4009     		lsrne	r0, r0, #5	@ iftmp.0_2, iftmp.0_2,
 126 0012 0120     		moveq	r0, #1	@ iftmp.0_2,
 127 0014 FFF7FEFF 		bl	assert_param		@
 128              	.LVL2:
 133:../Libraries/STM32F4xx_StdPeriph_Driver/src/stm32f4xx_iwdg.c ****   IWDG->KR = IWDG_WriteAccess;
 129              		.loc 1 133 3 is_stmt 1 view .LVU6
 130              	@ ../Libraries/STM32F4xx_StdPeriph_Driver/src/stm32f4xx_iwdg.c:133:   IWDG->KR = IWDG_WriteAccess;
 131              		.loc 1 133 12 is_stmt 0 view .LVU7
 132 0018 014B     		ldr	r3, .L6	@ tmp120,
 133 001a 1C60     		str	r4, [r3]	@ IWDG_WriteAccess, MEM[(struct IWDG_TypeDef *)1073754112B].KR
 134              	@ ../Libraries/STM32F4xx_StdPeriph_Driver/src/stm32f4xx_iwdg.c:134: }
 134:../Libraries/STM32F4xx_StdPeriph_Driver/src/stm32f4xx_iwdg.c **** }
 135              		.loc 1 134 1 view .LVU8
 136 001c 10BD     		pop	{r4, pc}	@
 137              	.L7:
 138 001e 00BF     		.align	2
 139              	.L6:
 140 0020 00300040 		.word	1073754112
 141              		.cfi_endproc
 142              	.LFE110:
 143              		.size	IWDG_WriteAccessCmd, .-IWDG_WriteAccessCmd
 144              		.section	.text.IWDG_SetPrescaler,"ax",%progbits
 145              		.align	1
 146              		.p2align 2,,3
 147              		.global	IWDG_SetPrescaler
 148              		.syntax unified
 149              		.thumb
ARM GAS  C:\Users\admin\AppData\Local\Temp\cc56s6zd.s 			page 6


 150              		.thumb_func
 151              		.type	IWDG_SetPrescaler, %function
 152              	IWDG_SetPrescaler:
 153              	.LVL3:
 154              	.LFB111:
 135:../Libraries/STM32F4xx_StdPeriph_Driver/src/stm32f4xx_iwdg.c **** 
 136:../Libraries/STM32F4xx_StdPeriph_Driver/src/stm32f4xx_iwdg.c **** /**
 137:../Libraries/STM32F4xx_StdPeriph_Driver/src/stm32f4xx_iwdg.c ****   * @brief  Sets IWDG Prescaler value.
 138:../Libraries/STM32F4xx_StdPeriph_Driver/src/stm32f4xx_iwdg.c ****   * @param  IWDG_Prescaler: specifies the IWDG Prescaler value.
 139:../Libraries/STM32F4xx_StdPeriph_Driver/src/stm32f4xx_iwdg.c ****   *          This parameter can be one of the following values:
 140:../Libraries/STM32F4xx_StdPeriph_Driver/src/stm32f4xx_iwdg.c ****   *            @arg IWDG_Prescaler_4: IWDG prescaler set to 4
 141:../Libraries/STM32F4xx_StdPeriph_Driver/src/stm32f4xx_iwdg.c ****   *            @arg IWDG_Prescaler_8: IWDG prescaler set to 8
 142:../Libraries/STM32F4xx_StdPeriph_Driver/src/stm32f4xx_iwdg.c ****   *            @arg IWDG_Prescaler_16: IWDG prescaler set to 16
 143:../Libraries/STM32F4xx_StdPeriph_Driver/src/stm32f4xx_iwdg.c ****   *            @arg IWDG_Prescaler_32: IWDG prescaler set to 32
 144:../Libraries/STM32F4xx_StdPeriph_Driver/src/stm32f4xx_iwdg.c ****   *            @arg IWDG_Prescaler_64: IWDG prescaler set to 64
 145:../Libraries/STM32F4xx_StdPeriph_Driver/src/stm32f4xx_iwdg.c ****   *            @arg IWDG_Prescaler_128: IWDG prescaler set to 128
 146:../Libraries/STM32F4xx_StdPeriph_Driver/src/stm32f4xx_iwdg.c ****   *            @arg IWDG_Prescaler_256: IWDG prescaler set to 256
 147:../Libraries/STM32F4xx_StdPeriph_Driver/src/stm32f4xx_iwdg.c ****   * @retval None
 148:../Libraries/STM32F4xx_StdPeriph_Driver/src/stm32f4xx_iwdg.c ****   */
 149:../Libraries/STM32F4xx_StdPeriph_Driver/src/stm32f4xx_iwdg.c **** void IWDG_SetPrescaler(uint8_t IWDG_Prescaler)
 150:../Libraries/STM32F4xx_StdPeriph_Driver/src/stm32f4xx_iwdg.c **** {
 155              		.loc 1 150 1 is_stmt 1 view -0
 156              		.cfi_startproc
 157              		@ args = 0, pretend = 0, frame = 0
 158              		@ frame_needed = 0, uses_anonymous_args = 0
 151:../Libraries/STM32F4xx_StdPeriph_Driver/src/stm32f4xx_iwdg.c ****   /* Check the parameters */
 152:../Libraries/STM32F4xx_StdPeriph_Driver/src/stm32f4xx_iwdg.c ****   assert_param(IS_IWDG_PRESCALER(IWDG_Prescaler));
 159              		.loc 1 152 3 view .LVU10
 160              	@ ../Libraries/STM32F4xx_StdPeriph_Driver/src/stm32f4xx_iwdg.c:150: {
 150:../Libraries/STM32F4xx_StdPeriph_Driver/src/stm32f4xx_iwdg.c ****   /* Check the parameters */
 161              		.loc 1 150 1 is_stmt 0 view .LVU11
 162 0000 10B5     		push	{r4, lr}	@
 163              		.cfi_def_cfa_offset 8
 164              		.cfi_offset 4, -8
 165              		.cfi_offset 14, -4
 166              	@ ../Libraries/STM32F4xx_StdPeriph_Driver/src/stm32f4xx_iwdg.c:152:   assert_param(IS_IWDG_PRESCALE
 167              		.loc 1 152 3 view .LVU12
 168 0002 0628     		cmp	r0, #6	@ IWDG_Prescaler,
 169              	@ ../Libraries/STM32F4xx_StdPeriph_Driver/src/stm32f4xx_iwdg.c:150: {
 150:../Libraries/STM32F4xx_StdPeriph_Driver/src/stm32f4xx_iwdg.c ****   /* Check the parameters */
 170              		.loc 1 150 1 view .LVU13
 171 0004 0446     		mov	r4, r0	@ IWDG_Prescaler, tmp122
 172              	@ ../Libraries/STM32F4xx_StdPeriph_Driver/src/stm32f4xx_iwdg.c:152:   assert_param(IS_IWDG_PRESCALE
 173              		.loc 1 152 3 view .LVU14
 174 0006 8CBF     		ite	hi
 175 0008 0020     		movhi	r0, #0	@,
 176              	.LVL4:
 177              		.loc 1 152 3 view .LVU15
 178 000a 0120     		movls	r0, #1	@,
 179 000c FFF7FEFF 		bl	assert_param		@
 180              	.LVL5:
 153:../Libraries/STM32F4xx_StdPeriph_Driver/src/stm32f4xx_iwdg.c ****   IWDG->PR = IWDG_Prescaler;
 181              		.loc 1 153 3 is_stmt 1 view .LVU16
 182              	@ ../Libraries/STM32F4xx_StdPeriph_Driver/src/stm32f4xx_iwdg.c:153:   IWDG->PR = IWDG_Prescaler;
 183              		.loc 1 153 12 is_stmt 0 view .LVU17
 184 0010 014B     		ldr	r3, .L10	@ tmp121,
 185 0012 5C60     		str	r4, [r3, #4]	@ IWDG_Prescaler, MEM[(struct IWDG_TypeDef *)1073754112B].PR
ARM GAS  C:\Users\admin\AppData\Local\Temp\cc56s6zd.s 			page 7


 186              	@ ../Libraries/STM32F4xx_StdPeriph_Driver/src/stm32f4xx_iwdg.c:154: }
 154:../Libraries/STM32F4xx_StdPeriph_Driver/src/stm32f4xx_iwdg.c **** }
 187              		.loc 1 154 1 view .LVU18
 188 0014 10BD     		pop	{r4, pc}	@
 189              	.L11:
 190 0016 00BF     		.align	2
 191              	.L10:
 192 0018 00300040 		.word	1073754112
 193              		.cfi_endproc
 194              	.LFE111:
 195              		.size	IWDG_SetPrescaler, .-IWDG_SetPrescaler
 196              		.section	.text.IWDG_SetReload,"ax",%progbits
 197              		.align	1
 198              		.p2align 2,,3
 199              		.global	IWDG_SetReload
 200              		.syntax unified
 201              		.thumb
 202              		.thumb_func
 203              		.type	IWDG_SetReload, %function
 204              	IWDG_SetReload:
 205              	.LVL6:
 206              	.LFB112:
 155:../Libraries/STM32F4xx_StdPeriph_Driver/src/stm32f4xx_iwdg.c **** 
 156:../Libraries/STM32F4xx_StdPeriph_Driver/src/stm32f4xx_iwdg.c **** /**
 157:../Libraries/STM32F4xx_StdPeriph_Driver/src/stm32f4xx_iwdg.c ****   * @brief  Sets IWDG Reload value.
 158:../Libraries/STM32F4xx_StdPeriph_Driver/src/stm32f4xx_iwdg.c ****   * @param  Reload: specifies the IWDG Reload value.
 159:../Libraries/STM32F4xx_StdPeriph_Driver/src/stm32f4xx_iwdg.c ****   *          This parameter must be a number between 0 and 0x0FFF.
 160:../Libraries/STM32F4xx_StdPeriph_Driver/src/stm32f4xx_iwdg.c ****   * @retval None
 161:../Libraries/STM32F4xx_StdPeriph_Driver/src/stm32f4xx_iwdg.c ****   */
 162:../Libraries/STM32F4xx_StdPeriph_Driver/src/stm32f4xx_iwdg.c **** void IWDG_SetReload(uint16_t Reload)
 163:../Libraries/STM32F4xx_StdPeriph_Driver/src/stm32f4xx_iwdg.c **** {
 207              		.loc 1 163 1 is_stmt 1 view -0
 208              		.cfi_startproc
 209              		@ args = 0, pretend = 0, frame = 0
 210              		@ frame_needed = 0, uses_anonymous_args = 0
 164:../Libraries/STM32F4xx_StdPeriph_Driver/src/stm32f4xx_iwdg.c ****   /* Check the parameters */
 165:../Libraries/STM32F4xx_StdPeriph_Driver/src/stm32f4xx_iwdg.c ****   assert_param(IS_IWDG_RELOAD(Reload));
 211              		.loc 1 165 3 view .LVU20
 212              	@ ../Libraries/STM32F4xx_StdPeriph_Driver/src/stm32f4xx_iwdg.c:163: {
 163:../Libraries/STM32F4xx_StdPeriph_Driver/src/stm32f4xx_iwdg.c ****   /* Check the parameters */
 213              		.loc 1 163 1 is_stmt 0 view .LVU21
 214 0000 10B5     		push	{r4, lr}	@
 215              		.cfi_def_cfa_offset 8
 216              		.cfi_offset 4, -8
 217              		.cfi_offset 14, -4
 218              	@ ../Libraries/STM32F4xx_StdPeriph_Driver/src/stm32f4xx_iwdg.c:165:   assert_param(IS_IWDG_RELOAD(R
 219              		.loc 1 165 3 view .LVU22
 220 0002 B0F5805F 		cmp	r0, #4096	@ Reload,
 221              	@ ../Libraries/STM32F4xx_StdPeriph_Driver/src/stm32f4xx_iwdg.c:163: {
 163:../Libraries/STM32F4xx_StdPeriph_Driver/src/stm32f4xx_iwdg.c ****   /* Check the parameters */
 222              		.loc 1 163 1 view .LVU23
 223 0006 0446     		mov	r4, r0	@ Reload, tmp123
 224              	@ ../Libraries/STM32F4xx_StdPeriph_Driver/src/stm32f4xx_iwdg.c:165:   assert_param(IS_IWDG_RELOAD(R
 225              		.loc 1 165 3 view .LVU24
 226 0008 2CBF     		ite	cs
 227 000a 0020     		movcs	r0, #0	@,
 228              	.LVL7:
ARM GAS  C:\Users\admin\AppData\Local\Temp\cc56s6zd.s 			page 8


 229              		.loc 1 165 3 view .LVU25
 230 000c 0120     		movcc	r0, #1	@,
 231 000e FFF7FEFF 		bl	assert_param		@
 232              	.LVL8:
 166:../Libraries/STM32F4xx_StdPeriph_Driver/src/stm32f4xx_iwdg.c ****   IWDG->RLR = Reload;
 233              		.loc 1 166 3 is_stmt 1 view .LVU26
 234              	@ ../Libraries/STM32F4xx_StdPeriph_Driver/src/stm32f4xx_iwdg.c:166:   IWDG->RLR = Reload;
 235              		.loc 1 166 13 is_stmt 0 view .LVU27
 236 0012 014B     		ldr	r3, .L14	@ tmp122,
 237 0014 9C60     		str	r4, [r3, #8]	@ Reload, MEM[(struct IWDG_TypeDef *)1073754112B].RLR
 238              	@ ../Libraries/STM32F4xx_StdPeriph_Driver/src/stm32f4xx_iwdg.c:167: }
 167:../Libraries/STM32F4xx_StdPeriph_Driver/src/stm32f4xx_iwdg.c **** }
 239              		.loc 1 167 1 view .LVU28
 240 0016 10BD     		pop	{r4, pc}	@
 241              	.L15:
 242              		.align	2
 243              	.L14:
 244 0018 00300040 		.word	1073754112
 245              		.cfi_endproc
 246              	.LFE112:
 247              		.size	IWDG_SetReload, .-IWDG_SetReload
 248              		.section	.text.IWDG_ReloadCounter,"ax",%progbits
 249              		.align	1
 250              		.p2align 2,,3
 251              		.global	IWDG_ReloadCounter
 252              		.syntax unified
 253              		.thumb
 254              		.thumb_func
 255              		.type	IWDG_ReloadCounter, %function
 256              	IWDG_ReloadCounter:
 257              	.LFB113:
 168:../Libraries/STM32F4xx_StdPeriph_Driver/src/stm32f4xx_iwdg.c **** 
 169:../Libraries/STM32F4xx_StdPeriph_Driver/src/stm32f4xx_iwdg.c **** /**
 170:../Libraries/STM32F4xx_StdPeriph_Driver/src/stm32f4xx_iwdg.c ****   * @brief  Reloads IWDG counter with value defined in the reload register
 171:../Libraries/STM32F4xx_StdPeriph_Driver/src/stm32f4xx_iwdg.c ****   *         (write access to IWDG_PR and IWDG_RLR registers disabled).
 172:../Libraries/STM32F4xx_StdPeriph_Driver/src/stm32f4xx_iwdg.c ****   * @param  None
 173:../Libraries/STM32F4xx_StdPeriph_Driver/src/stm32f4xx_iwdg.c ****   * @retval None
 174:../Libraries/STM32F4xx_StdPeriph_Driver/src/stm32f4xx_iwdg.c ****   */
 175:../Libraries/STM32F4xx_StdPeriph_Driver/src/stm32f4xx_iwdg.c **** void IWDG_ReloadCounter(void)
 176:../Libraries/STM32F4xx_StdPeriph_Driver/src/stm32f4xx_iwdg.c **** {
 258              		.loc 1 176 1 is_stmt 1 view -0
 259              		.cfi_startproc
 260              		@ args = 0, pretend = 0, frame = 0
 261              		@ frame_needed = 0, uses_anonymous_args = 0
 262              		@ link register save eliminated.
 177:../Libraries/STM32F4xx_StdPeriph_Driver/src/stm32f4xx_iwdg.c ****   IWDG->KR = KR_KEY_RELOAD;
 263              		.loc 1 177 3 view .LVU30
 264              	@ ../Libraries/STM32F4xx_StdPeriph_Driver/src/stm32f4xx_iwdg.c:177:   IWDG->KR = KR_KEY_RELOAD;
 265              		.loc 1 177 12 is_stmt 0 view .LVU31
 266 0000 024B     		ldr	r3, .L17	@ tmp113,
 267 0002 4AF6AA22 		movw	r2, #43690	@ tmp114,
 268 0006 1A60     		str	r2, [r3]	@ tmp114, MEM[(struct IWDG_TypeDef *)1073754112B].KR
 269              	@ ../Libraries/STM32F4xx_StdPeriph_Driver/src/stm32f4xx_iwdg.c:178: }
 178:../Libraries/STM32F4xx_StdPeriph_Driver/src/stm32f4xx_iwdg.c **** }
 270              		.loc 1 178 1 view .LVU32
 271 0008 7047     		bx	lr	@
 272              	.L18:
ARM GAS  C:\Users\admin\AppData\Local\Temp\cc56s6zd.s 			page 9


 273 000a 00BF     		.align	2
 274              	.L17:
 275 000c 00300040 		.word	1073754112
 276              		.cfi_endproc
 277              	.LFE113:
 278              		.size	IWDG_ReloadCounter, .-IWDG_ReloadCounter
 279              		.section	.text.IWDG_Enable,"ax",%progbits
 280              		.align	1
 281              		.p2align 2,,3
 282              		.global	IWDG_Enable
 283              		.syntax unified
 284              		.thumb
 285              		.thumb_func
 286              		.type	IWDG_Enable, %function
 287              	IWDG_Enable:
 288              	.LFB114:
 179:../Libraries/STM32F4xx_StdPeriph_Driver/src/stm32f4xx_iwdg.c **** 
 180:../Libraries/STM32F4xx_StdPeriph_Driver/src/stm32f4xx_iwdg.c **** /**
 181:../Libraries/STM32F4xx_StdPeriph_Driver/src/stm32f4xx_iwdg.c ****   * @}
 182:../Libraries/STM32F4xx_StdPeriph_Driver/src/stm32f4xx_iwdg.c ****   */
 183:../Libraries/STM32F4xx_StdPeriph_Driver/src/stm32f4xx_iwdg.c **** 
 184:../Libraries/STM32F4xx_StdPeriph_Driver/src/stm32f4xx_iwdg.c **** /** @defgroup IWDG_Group2 IWDG activation function
 185:../Libraries/STM32F4xx_StdPeriph_Driver/src/stm32f4xx_iwdg.c ****  *  @brief   IWDG activation function 
 186:../Libraries/STM32F4xx_StdPeriph_Driver/src/stm32f4xx_iwdg.c ****  *
 187:../Libraries/STM32F4xx_StdPeriph_Driver/src/stm32f4xx_iwdg.c **** @verbatim   
 188:../Libraries/STM32F4xx_StdPeriph_Driver/src/stm32f4xx_iwdg.c ****  ===============================================================================
 189:../Libraries/STM32F4xx_StdPeriph_Driver/src/stm32f4xx_iwdg.c ****                           IWDG activation function
 190:../Libraries/STM32F4xx_StdPeriph_Driver/src/stm32f4xx_iwdg.c ****  ===============================================================================  
 191:../Libraries/STM32F4xx_StdPeriph_Driver/src/stm32f4xx_iwdg.c **** 
 192:../Libraries/STM32F4xx_StdPeriph_Driver/src/stm32f4xx_iwdg.c **** @endverbatim
 193:../Libraries/STM32F4xx_StdPeriph_Driver/src/stm32f4xx_iwdg.c ****   * @{
 194:../Libraries/STM32F4xx_StdPeriph_Driver/src/stm32f4xx_iwdg.c ****   */
 195:../Libraries/STM32F4xx_StdPeriph_Driver/src/stm32f4xx_iwdg.c **** 
 196:../Libraries/STM32F4xx_StdPeriph_Driver/src/stm32f4xx_iwdg.c **** /**
 197:../Libraries/STM32F4xx_StdPeriph_Driver/src/stm32f4xx_iwdg.c ****   * @brief  Enables IWDG (write access to IWDG_PR and IWDG_RLR registers disabled).
 198:../Libraries/STM32F4xx_StdPeriph_Driver/src/stm32f4xx_iwdg.c ****   * @param  None
 199:../Libraries/STM32F4xx_StdPeriph_Driver/src/stm32f4xx_iwdg.c ****   * @retval None
 200:../Libraries/STM32F4xx_StdPeriph_Driver/src/stm32f4xx_iwdg.c ****   */
 201:../Libraries/STM32F4xx_StdPeriph_Driver/src/stm32f4xx_iwdg.c **** void IWDG_Enable(void)
 202:../Libraries/STM32F4xx_StdPeriph_Driver/src/stm32f4xx_iwdg.c **** {
 289              		.loc 1 202 1 is_stmt 1 view -0
 290              		.cfi_startproc
 291              		@ args = 0, pretend = 0, frame = 0
 292              		@ frame_needed = 0, uses_anonymous_args = 0
 293              		@ link register save eliminated.
 203:../Libraries/STM32F4xx_StdPeriph_Driver/src/stm32f4xx_iwdg.c ****   IWDG->KR = KR_KEY_ENABLE;
 294              		.loc 1 203 3 view .LVU34
 295              	@ ../Libraries/STM32F4xx_StdPeriph_Driver/src/stm32f4xx_iwdg.c:203:   IWDG->KR = KR_KEY_ENABLE;
 296              		.loc 1 203 12 is_stmt 0 view .LVU35
 297 0000 024B     		ldr	r3, .L20	@ tmp113,
 298 0002 4CF6CC42 		movw	r2, #52428	@ tmp114,
 299 0006 1A60     		str	r2, [r3]	@ tmp114, MEM[(struct IWDG_TypeDef *)1073754112B].KR
 300              	@ ../Libraries/STM32F4xx_StdPeriph_Driver/src/stm32f4xx_iwdg.c:204: }
 204:../Libraries/STM32F4xx_StdPeriph_Driver/src/stm32f4xx_iwdg.c **** }
 301              		.loc 1 204 1 view .LVU36
 302 0008 7047     		bx	lr	@
 303              	.L21:
ARM GAS  C:\Users\admin\AppData\Local\Temp\cc56s6zd.s 			page 10


 304 000a 00BF     		.align	2
 305              	.L20:
 306 000c 00300040 		.word	1073754112
 307              		.cfi_endproc
 308              	.LFE114:
 309              		.size	IWDG_Enable, .-IWDG_Enable
 310              		.section	.text.IWDG_GetFlagStatus,"ax",%progbits
 311              		.align	1
 312              		.p2align 2,,3
 313              		.global	IWDG_GetFlagStatus
 314              		.syntax unified
 315              		.thumb
 316              		.thumb_func
 317              		.type	IWDG_GetFlagStatus, %function
 318              	IWDG_GetFlagStatus:
 319              	.LVL9:
 320              	.LFB115:
 205:../Libraries/STM32F4xx_StdPeriph_Driver/src/stm32f4xx_iwdg.c **** 
 206:../Libraries/STM32F4xx_StdPeriph_Driver/src/stm32f4xx_iwdg.c **** /**
 207:../Libraries/STM32F4xx_StdPeriph_Driver/src/stm32f4xx_iwdg.c ****   * @}
 208:../Libraries/STM32F4xx_StdPeriph_Driver/src/stm32f4xx_iwdg.c ****   */
 209:../Libraries/STM32F4xx_StdPeriph_Driver/src/stm32f4xx_iwdg.c **** 
 210:../Libraries/STM32F4xx_StdPeriph_Driver/src/stm32f4xx_iwdg.c **** /** @defgroup IWDG_Group3 Flag management function 
 211:../Libraries/STM32F4xx_StdPeriph_Driver/src/stm32f4xx_iwdg.c ****  *  @brief  Flag management function  
 212:../Libraries/STM32F4xx_StdPeriph_Driver/src/stm32f4xx_iwdg.c ****  *
 213:../Libraries/STM32F4xx_StdPeriph_Driver/src/stm32f4xx_iwdg.c **** @verbatim   
 214:../Libraries/STM32F4xx_StdPeriph_Driver/src/stm32f4xx_iwdg.c ****  ===============================================================================
 215:../Libraries/STM32F4xx_StdPeriph_Driver/src/stm32f4xx_iwdg.c ****                             Flag management function 
 216:../Libraries/STM32F4xx_StdPeriph_Driver/src/stm32f4xx_iwdg.c ****  ===============================================================================  
 217:../Libraries/STM32F4xx_StdPeriph_Driver/src/stm32f4xx_iwdg.c **** 
 218:../Libraries/STM32F4xx_StdPeriph_Driver/src/stm32f4xx_iwdg.c **** @endverbatim
 219:../Libraries/STM32F4xx_StdPeriph_Driver/src/stm32f4xx_iwdg.c ****   * @{
 220:../Libraries/STM32F4xx_StdPeriph_Driver/src/stm32f4xx_iwdg.c ****   */
 221:../Libraries/STM32F4xx_StdPeriph_Driver/src/stm32f4xx_iwdg.c **** 
 222:../Libraries/STM32F4xx_StdPeriph_Driver/src/stm32f4xx_iwdg.c **** /**
 223:../Libraries/STM32F4xx_StdPeriph_Driver/src/stm32f4xx_iwdg.c ****   * @brief  Checks whether the specified IWDG flag is set or not.
 224:../Libraries/STM32F4xx_StdPeriph_Driver/src/stm32f4xx_iwdg.c ****   * @param  IWDG_FLAG: specifies the flag to check.
 225:../Libraries/STM32F4xx_StdPeriph_Driver/src/stm32f4xx_iwdg.c ****   *          This parameter can be one of the following values:
 226:../Libraries/STM32F4xx_StdPeriph_Driver/src/stm32f4xx_iwdg.c ****   *            @arg IWDG_FLAG_PVU: Prescaler Value Update on going
 227:../Libraries/STM32F4xx_StdPeriph_Driver/src/stm32f4xx_iwdg.c ****   *            @arg IWDG_FLAG_RVU: Reload Value Update on going
 228:../Libraries/STM32F4xx_StdPeriph_Driver/src/stm32f4xx_iwdg.c ****   * @retval The new state of IWDG_FLAG (SET or RESET).
 229:../Libraries/STM32F4xx_StdPeriph_Driver/src/stm32f4xx_iwdg.c ****   */
 230:../Libraries/STM32F4xx_StdPeriph_Driver/src/stm32f4xx_iwdg.c **** FlagStatus IWDG_GetFlagStatus(uint16_t IWDG_FLAG)
 231:../Libraries/STM32F4xx_StdPeriph_Driver/src/stm32f4xx_iwdg.c **** {
 321              		.loc 1 231 1 is_stmt 1 view -0
 322              		.cfi_startproc
 323              		@ args = 0, pretend = 0, frame = 0
 324              		@ frame_needed = 0, uses_anonymous_args = 0
 232:../Libraries/STM32F4xx_StdPeriph_Driver/src/stm32f4xx_iwdg.c ****   FlagStatus bitstatus = RESET;
 325              		.loc 1 232 3 view .LVU38
 233:../Libraries/STM32F4xx_StdPeriph_Driver/src/stm32f4xx_iwdg.c ****   /* Check the parameters */
 234:../Libraries/STM32F4xx_StdPeriph_Driver/src/stm32f4xx_iwdg.c ****   assert_param(IS_IWDG_FLAG(IWDG_FLAG));
 326              		.loc 1 234 3 view .LVU39
 327              	@ ../Libraries/STM32F4xx_StdPeriph_Driver/src/stm32f4xx_iwdg.c:231: {
 231:../Libraries/STM32F4xx_StdPeriph_Driver/src/stm32f4xx_iwdg.c ****   FlagStatus bitstatus = RESET;
 328              		.loc 1 231 1 is_stmt 0 view .LVU40
 329 0000 10B5     		push	{r4, lr}	@
ARM GAS  C:\Users\admin\AppData\Local\Temp\cc56s6zd.s 			page 11


 330              		.cfi_def_cfa_offset 8
 331              		.cfi_offset 4, -8
 332              		.cfi_offset 14, -4
 333              	@ ../Libraries/STM32F4xx_StdPeriph_Driver/src/stm32f4xx_iwdg.c:231: {
 231:../Libraries/STM32F4xx_StdPeriph_Driver/src/stm32f4xx_iwdg.c ****   FlagStatus bitstatus = RESET;
 334              		.loc 1 231 1 view .LVU41
 335 0002 0446     		mov	r4, r0	@ IWDG_FLAG, tmp133
 336              	@ ../Libraries/STM32F4xx_StdPeriph_Driver/src/stm32f4xx_iwdg.c:234:   assert_param(IS_IWDG_FLAG(IWD
 337              		.loc 1 234 3 view .LVU42
 338 0004 0138     		subs	r0, r0, #1	@ tmp126, IWDG_FLAG,
 339              	.LVL10:
 340              		.loc 1 234 3 view .LVU43
 341 0006 0128     		cmp	r0, #1	@ tmp126,
 342 0008 8CBF     		ite	hi
 343 000a 0020     		movhi	r0, #0	@,
 344 000c 0120     		movls	r0, #1	@,
 345 000e FFF7FEFF 		bl	assert_param		@
 346              	.LVL11:
 235:../Libraries/STM32F4xx_StdPeriph_Driver/src/stm32f4xx_iwdg.c ****   if ((IWDG->SR & IWDG_FLAG) != (uint32_t)RESET)
 347              		.loc 1 235 3 is_stmt 1 view .LVU44
 348              	@ ../Libraries/STM32F4xx_StdPeriph_Driver/src/stm32f4xx_iwdg.c:235:   if ((IWDG->SR & IWDG_FLAG) !=
 349              		.loc 1 235 12 is_stmt 0 view .LVU45
 350 0012 034B     		ldr	r3, .L24	@ tmp128,
 351 0014 DB68     		ldr	r3, [r3, #12]	@ _4, MEM[(struct IWDG_TypeDef *)1073754112B].SR
 352              	.LVL12:
 236:../Libraries/STM32F4xx_StdPeriph_Driver/src/stm32f4xx_iwdg.c ****   {
 237:../Libraries/STM32F4xx_StdPeriph_Driver/src/stm32f4xx_iwdg.c ****     bitstatus = SET;
 238:../Libraries/STM32F4xx_StdPeriph_Driver/src/stm32f4xx_iwdg.c ****   }
 239:../Libraries/STM32F4xx_StdPeriph_Driver/src/stm32f4xx_iwdg.c ****   else
 240:../Libraries/STM32F4xx_StdPeriph_Driver/src/stm32f4xx_iwdg.c ****   {
 241:../Libraries/STM32F4xx_StdPeriph_Driver/src/stm32f4xx_iwdg.c ****     bitstatus = RESET;
 242:../Libraries/STM32F4xx_StdPeriph_Driver/src/stm32f4xx_iwdg.c ****   }
 243:../Libraries/STM32F4xx_StdPeriph_Driver/src/stm32f4xx_iwdg.c ****   /* Return the flag status */
 244:../Libraries/STM32F4xx_StdPeriph_Driver/src/stm32f4xx_iwdg.c ****   return bitstatus;
 353              		.loc 1 244 3 is_stmt 1 view .LVU46
 354              	@ ../Libraries/STM32F4xx_StdPeriph_Driver/src/stm32f4xx_iwdg.c:235:   if ((IWDG->SR & IWDG_FLAG) !=
 235:../Libraries/STM32F4xx_StdPeriph_Driver/src/stm32f4xx_iwdg.c ****   if ((IWDG->SR & IWDG_FLAG) != (uint32_t)RESET)
 355              		.loc 1 235 6 is_stmt 0 view .LVU47
 356 0016 1C42     		tst	r4, r3	@ IWDG_FLAG, _4
 357              	@ ../Libraries/STM32F4xx_StdPeriph_Driver/src/stm32f4xx_iwdg.c:245: }
 245:../Libraries/STM32F4xx_StdPeriph_Driver/src/stm32f4xx_iwdg.c **** }
 358              		.loc 1 245 1 view .LVU48
 359 0018 14BF     		ite	ne
 360 001a 0120     		movne	r0, #1	@,
 361 001c 0020     		moveq	r0, #0	@,
 362 001e 10BD     		pop	{r4, pc}	@
 363              	.LVL13:
 364              	.L25:
 365              		.loc 1 245 1 view .LVU49
 366              		.align	2
 367              	.L24:
 368 0020 00300040 		.word	1073754112
 369              		.cfi_endproc
 370              	.LFE115:
 371              		.size	IWDG_GetFlagStatus, .-IWDG_GetFlagStatus
 372              		.text
 373              	.Letext0:
ARM GAS  C:\Users\admin\AppData\Local\Temp\cc56s6zd.s 			page 12


 374              		.file 2 "c:\\program files (x86)\\gnu arm embedded toolchain\\10 2021.10\\arm-none-eabi\\include\\
 375              		.file 3 "c:\\program files (x86)\\gnu arm embedded toolchain\\10 2021.10\\arm-none-eabi\\include\\
 376              		.file 4 "../Libraries/CMSIS/ST/STM32F4xx/Include/stm32f4xx.h"