ARM GAS  C:\Users\admin\AppData\Local\Temp\ccObVLJP.s 			page 1


   1              		.cpu cortex-m4
   2              		.arch armv7e-m
   3              		.fpu fpv4-sp-d16
   4              		.eabi_attribute 27, 1	@ Tag_ABI_HardFP_use
   5              		.eabi_attribute 28, 1	@ Tag_ABI_VFP_args
   6              		.eabi_attribute 23, 1	@ Tag_ABI_FP_number_model
   7              		.eabi_attribute 24, 1	@ Tag_ABI_align8_needed
   8              		.eabi_attribute 25, 1	@ Tag_ABI_align8_preserved
   9              		.eabi_attribute 26, 1	@ Tag_ABI_enum_size
  10              		.eabi_attribute 30, 2	@ Tag_ABI_optimization_goals
  11              		.eabi_attribute 34, 1	@ Tag_CPU_unaligned_access
  12              		.eabi_attribute 18, 4	@ Tag_ABI_PCS_wchar_t
  13              		.file	"stm32f4xx_rng.c"
  14              	@ GNU C89 (GNU Arm Embedded Toolchain 10.3-2021.10) version 10.3.1 20210824 (release) (arm-none-eab
  15              	@	compiled by GNU C version 7.3-win32 20180312, GMP version 6.1.0, MPFR version 3.1.4, MPC version 
  16              	
  17              	@ GGC heuristics: --param ggc-min-expand=100 --param ggc-min-heapsize=131072
  18              	@ options passed:  -I . -I . -I ../Utilities/STM32F4-Discovery/
  19              	@ -I ../Libraries/STM32_USB_Device_Library/Class/audio/inc/
  20              	@ -I ../Libraries/STM32_USB_Device_Library/Core/inc/
  21              	@ -I ../Libraries/STM32_USB_OTG_Driver/inc/
  22              	@ -I ../Utilities/STM32F4-Discovery/
  23              	@ -I ../Libraries/STM32F4xx_StdPeriph_Driver/inc/
  24              	@ -I ../Utilities/STM32F4-Discovery/
  25              	@ -I ../Libraries/CMSIS/ST/STM32F4xx/Include/
  26              	@ -I ../Libraries/CMSIS/Include/ -imultilib thumb/v7e-m+fp/hard
  27              	@ -iprefix c:\program files (x86)\gnu arm embedded toolchain\10 2021.10\bin\../lib/gcc/arm-none-eab
  28              	@ -isysroot c:\program files (x86)\gnu arm embedded toolchain\10 2021.10\bin\../arm-none-eabi
  29              	@ -MD out/stm32f4xx_rng.d -MF out/stm32f4xx_rng.d -MP
  30              	@ -MQ out/stm32f4xx_rng.o -D__USES_INITFINI__ -D STM32F4XX -D __VFP_FP__
  31              	@ -D USE_USB_OTG_FS
  32              	@ ../Libraries/STM32F4xx_StdPeriph_Driver/src/stm32f4xx_rng.c
  33              	@ -mcpu=cortex-m4 -mthumb -mfloat-abi=hard -mfpu=fpv4-sp-d16
  34              	@ -mlibarch=armv7e-m+fp -march=armv7e-m+fp
  35              	@ -auxbase-strip out/stm32f4xx_rng.o -g -ggdb3 -O3 -Wall
  36              	@ -Wstrict-prototypes -Wextra -std=gnu90 -ffast-math -ffunction-sections
  37              	@ -fdata-sections -fverbose-asm
  38              	@ options enabled:  -faggressive-loop-optimizations -falign-functions
  39              	@ -falign-jumps -falign-labels -falign-loops -fallocation-dce
  40              	@ -fassociative-math -fauto-inc-dec -fbranch-count-reg -fcaller-saves
  41              	@ -fcombine-stack-adjustments -fcompare-elim -fcprop-registers
  42              	@ -fcrossjumping -fcse-follow-jumps -fcx-limited-range -fdata-sections
  43              	@ -fdefer-pop -fdelete-null-pointer-checks -fdevirtualize
  44              	@ -fdevirtualize-speculatively -fdwarf2-cfi-asm -fearly-inlining
  45              	@ -feliminate-unused-debug-symbols -feliminate-unused-debug-types
  46              	@ -fexpensive-optimizations -ffinite-math-only -fforward-propagate
  47              	@ -ffp-int-builtin-inexact -ffunction-cse -ffunction-sections -fgcse
  48              	@ -fgcse-after-reload -fgcse-lm -fgnu-unique -fguess-branch-probability
  49              	@ -fhoist-adjacent-loads -fident -fif-conversion -fif-conversion2
  50              	@ -findirect-inlining -finline -finline-atomics -finline-functions
  51              	@ -finline-functions-called-once -finline-small-functions -fipa-bit-cp
  52              	@ -fipa-cp -fipa-cp-clone -fipa-icf -fipa-icf-functions -fipa-icf-variables
  53              	@ -fipa-profile -fipa-pure-const -fipa-ra -fipa-reference
  54              	@ -fipa-reference-addressable -fipa-sra -fipa-stack-alignment -fipa-vrp
  55              	@ -fira-hoist-pressure -fira-share-save-slots -fira-share-spill-slots
  56              	@ -fisolate-erroneous-paths-dereference -fivopts -fkeep-static-consts
  57              	@ -fleading-underscore -flifetime-dse -floop-interchange
ARM GAS  C:\Users\admin\AppData\Local\Temp\ccObVLJP.s 			page 2


  58              	@ -floop-unroll-and-jam -flra-remat -fmerge-constants -fmerge-debug-strings
  59              	@ -fmove-loop-invariants -fomit-frame-pointer -foptimize-sibling-calls
  60              	@ -foptimize-strlen -fpartial-inlining -fpeel-loops -fpeephole -fpeephole2
  61              	@ -fplt -fpredictive-commoning -fprefetch-loop-arrays -freciprocal-math
  62              	@ -freg-struct-return -freorder-blocks -freorder-functions
  63              	@ -frerun-cse-after-loop -fsched-critical-path-heuristic
  64              	@ -fsched-dep-count-heuristic -fsched-group-heuristic -fsched-interblock
  65              	@ -fsched-last-insn-heuristic -fsched-pressure -fsched-rank-heuristic
  66              	@ -fsched-spec -fsched-spec-insn-heuristic -fsched-stalled-insns-dep
  67              	@ -fschedule-insns -fschedule-insns2 -fsection-anchors
  68              	@ -fsemantic-interposition -fshow-column -fshrink-wrap
  69              	@ -fshrink-wrap-separate -fsplit-ivs-in-unroller -fsplit-loops
  70              	@ -fsplit-paths -fsplit-wide-types -fssa-backprop -fssa-phiopt -fstdarg-opt
  71              	@ -fstore-merging -fstrict-aliasing -fstrict-volatile-bitfields
  72              	@ -fsync-libcalls -fthread-jumps -ftoplevel-reorder -ftree-bit-ccp
  73              	@ -ftree-builtin-call-dce -ftree-ccp -ftree-ch -ftree-coalesce-vars
  74              	@ -ftree-copy-prop -ftree-cselim -ftree-dce -ftree-dominator-opts
  75              	@ -ftree-dse -ftree-forwprop -ftree-fre -ftree-loop-distribute-patterns
  76              	@ -ftree-loop-distribution -ftree-loop-if-convert -ftree-loop-im
  77              	@ -ftree-loop-ivcanon -ftree-loop-optimize -ftree-loop-vectorize
  78              	@ -ftree-parallelize-loops= -ftree-partial-pre -ftree-phiprop -ftree-pre
  79              	@ -ftree-pta -ftree-reassoc -ftree-scev-cprop -ftree-sink
  80              	@ -ftree-slp-vectorize -ftree-slsr -ftree-sra -ftree-switch-conversion
  81              	@ -ftree-tail-merge -ftree-ter -ftree-vrp -funit-at-a-time
  82              	@ -funsafe-math-optimizations -funswitch-loops -fvar-tracking
  83              	@ -fvar-tracking-assignments -fverbose-asm -fversion-loops-for-strides
  84              	@ -fzero-initialized-in-bss -masm-syntax-unified -mbe32 -mlittle-endian
  85              	@ -mpic-data-is-text-relative -msched-prolog -mthumb -munaligned-access
  86              	@ -mvectorize-with-neon-quad
  87              	
  88              		.text
  89              	.Ltext0:
  90              		.cfi_sections	.debug_frame
  91              		.section	.text.RNG_DeInit,"ax",%progbits
  92              		.align	1
  93              		.p2align 2,,3
  94              		.global	RNG_DeInit
  95              		.syntax unified
  96              		.thumb
  97              		.thumb_func
  98              		.type	RNG_DeInit, %function
  99              	RNG_DeInit:
 100              	.LFB110:
 101              		.file 1 "../Libraries/STM32F4xx_StdPeriph_Driver/src/stm32f4xx_rng.c"
   1:../Libraries/STM32F4xx_StdPeriph_Driver/src/stm32f4xx_rng.c **** /**
   2:../Libraries/STM32F4xx_StdPeriph_Driver/src/stm32f4xx_rng.c ****   ******************************************************************************
   3:../Libraries/STM32F4xx_StdPeriph_Driver/src/stm32f4xx_rng.c ****   * @file    stm32f4xx_rng.c
   4:../Libraries/STM32F4xx_StdPeriph_Driver/src/stm32f4xx_rng.c ****   * @author  MCD Application Team
   5:../Libraries/STM32F4xx_StdPeriph_Driver/src/stm32f4xx_rng.c ****   * @version V1.0.0
   6:../Libraries/STM32F4xx_StdPeriph_Driver/src/stm32f4xx_rng.c ****   * @date    30-September-2011
   7:../Libraries/STM32F4xx_StdPeriph_Driver/src/stm32f4xx_rng.c ****     * @brief This file provides firmware functions to manage the following 
   8:../Libraries/STM32F4xx_StdPeriph_Driver/src/stm32f4xx_rng.c ****   *          functionalities of the Random Number Generator (RNG) peripheral:           
   9:../Libraries/STM32F4xx_StdPeriph_Driver/src/stm32f4xx_rng.c ****   *           - Initialization and Configuration 
  10:../Libraries/STM32F4xx_StdPeriph_Driver/src/stm32f4xx_rng.c ****   *           - Get 32 bit Random number      
  11:../Libraries/STM32F4xx_StdPeriph_Driver/src/stm32f4xx_rng.c ****   *           - Interrupts and flags management       
  12:../Libraries/STM32F4xx_StdPeriph_Driver/src/stm32f4xx_rng.c ****   *         
  13:../Libraries/STM32F4xx_StdPeriph_Driver/src/stm32f4xx_rng.c ****   *  @verbatim
ARM GAS  C:\Users\admin\AppData\Local\Temp\ccObVLJP.s 			page 3


  14:../Libraries/STM32F4xx_StdPeriph_Driver/src/stm32f4xx_rng.c ****   *                               
  15:../Libraries/STM32F4xx_StdPeriph_Driver/src/stm32f4xx_rng.c ****   *          ===================================================================      
  16:../Libraries/STM32F4xx_StdPeriph_Driver/src/stm32f4xx_rng.c ****   *                                   How to use this driver
  17:../Libraries/STM32F4xx_StdPeriph_Driver/src/stm32f4xx_rng.c ****   *          ===================================================================          
  18:../Libraries/STM32F4xx_StdPeriph_Driver/src/stm32f4xx_rng.c ****   *          1. Enable The RNG controller clock using 
  19:../Libraries/STM32F4xx_StdPeriph_Driver/src/stm32f4xx_rng.c ****   *            RCC_AHB2PeriphClockCmd(RCC_AHB2Periph_RNG, ENABLE) function.
  20:../Libraries/STM32F4xx_StdPeriph_Driver/src/stm32f4xx_rng.c ****   *              
  21:../Libraries/STM32F4xx_StdPeriph_Driver/src/stm32f4xx_rng.c ****   *          2. Activate the RNG peripheral using RNG_Cmd() function.
  22:../Libraries/STM32F4xx_StdPeriph_Driver/src/stm32f4xx_rng.c ****   *          
  23:../Libraries/STM32F4xx_StdPeriph_Driver/src/stm32f4xx_rng.c ****   *          3. Wait until the 32 bit Random number Generator contains a valid 
  24:../Libraries/STM32F4xx_StdPeriph_Driver/src/stm32f4xx_rng.c ****   *            random data (using polling/interrupt mode). For more details, 
  25:../Libraries/STM32F4xx_StdPeriph_Driver/src/stm32f4xx_rng.c ****   *            refer to "Interrupts and flags management functions" module 
  26:../Libraries/STM32F4xx_StdPeriph_Driver/src/stm32f4xx_rng.c ****   *            description.
  27:../Libraries/STM32F4xx_StdPeriph_Driver/src/stm32f4xx_rng.c ****   *           
  28:../Libraries/STM32F4xx_StdPeriph_Driver/src/stm32f4xx_rng.c ****   *          4. Get the 32 bit Random number using RNG_GetRandomNumber() function
  29:../Libraries/STM32F4xx_StdPeriph_Driver/src/stm32f4xx_rng.c ****   *          
  30:../Libraries/STM32F4xx_StdPeriph_Driver/src/stm32f4xx_rng.c ****   *          5. To get another 32 bit Random number, go to step 3.       
  31:../Libraries/STM32F4xx_StdPeriph_Driver/src/stm32f4xx_rng.c ****   *
  32:../Libraries/STM32F4xx_StdPeriph_Driver/src/stm32f4xx_rng.c ****   *         
  33:../Libraries/STM32F4xx_StdPeriph_Driver/src/stm32f4xx_rng.c ****   *              
  34:../Libraries/STM32F4xx_StdPeriph_Driver/src/stm32f4xx_rng.c ****   *  @endverbatim
  35:../Libraries/STM32F4xx_StdPeriph_Driver/src/stm32f4xx_rng.c ****   *         
  36:../Libraries/STM32F4xx_StdPeriph_Driver/src/stm32f4xx_rng.c ****   ******************************************************************************
  37:../Libraries/STM32F4xx_StdPeriph_Driver/src/stm32f4xx_rng.c ****   * @attention
  38:../Libraries/STM32F4xx_StdPeriph_Driver/src/stm32f4xx_rng.c ****   *
  39:../Libraries/STM32F4xx_StdPeriph_Driver/src/stm32f4xx_rng.c ****   * THE PRESENT FIRMWARE WHICH IS FOR GUIDANCE ONLY AIMS AT PROVIDING CUSTOMERS
  40:../Libraries/STM32F4xx_StdPeriph_Driver/src/stm32f4xx_rng.c ****   * WITH CODING INFORMATION REGARDING THEIR PRODUCTS IN ORDER FOR THEM TO SAVE
  41:../Libraries/STM32F4xx_StdPeriph_Driver/src/stm32f4xx_rng.c ****   * TIME. AS A RESULT, STMICROELECTRONICS SHALL NOT BE HELD LIABLE FOR ANY
  42:../Libraries/STM32F4xx_StdPeriph_Driver/src/stm32f4xx_rng.c ****   * DIRECT, INDIRECT OR CONSEQUENTIAL DAMAGES WITH RESPECT TO ANY CLAIMS ARISING
  43:../Libraries/STM32F4xx_StdPeriph_Driver/src/stm32f4xx_rng.c ****   * FROM THE CONTENT OF SUCH FIRMWARE AND/OR THE USE MADE BY CUSTOMERS OF THE
  44:../Libraries/STM32F4xx_StdPeriph_Driver/src/stm32f4xx_rng.c ****   * CODING INFORMATION CONTAINED HEREIN IN CONNECTION WITH THEIR PRODUCTS.
  45:../Libraries/STM32F4xx_StdPeriph_Driver/src/stm32f4xx_rng.c ****   *
  46:../Libraries/STM32F4xx_StdPeriph_Driver/src/stm32f4xx_rng.c ****   * <h2><center>&copy; COPYRIGHT 2011 STMicroelectronics</center></h2>
  47:../Libraries/STM32F4xx_StdPeriph_Driver/src/stm32f4xx_rng.c ****   ******************************************************************************  
  48:../Libraries/STM32F4xx_StdPeriph_Driver/src/stm32f4xx_rng.c ****   */
  49:../Libraries/STM32F4xx_StdPeriph_Driver/src/stm32f4xx_rng.c **** 
  50:../Libraries/STM32F4xx_StdPeriph_Driver/src/stm32f4xx_rng.c **** /* Includes ------------------------------------------------------------------*/
  51:../Libraries/STM32F4xx_StdPeriph_Driver/src/stm32f4xx_rng.c **** #include "stm32f4xx_rng.h"
  52:../Libraries/STM32F4xx_StdPeriph_Driver/src/stm32f4xx_rng.c **** #include "stm32f4xx_rcc.h"
  53:../Libraries/STM32F4xx_StdPeriph_Driver/src/stm32f4xx_rng.c **** 
  54:../Libraries/STM32F4xx_StdPeriph_Driver/src/stm32f4xx_rng.c **** /** @addtogroup STM32F4xx_StdPeriph_Driver
  55:../Libraries/STM32F4xx_StdPeriph_Driver/src/stm32f4xx_rng.c ****   * @{
  56:../Libraries/STM32F4xx_StdPeriph_Driver/src/stm32f4xx_rng.c ****   */
  57:../Libraries/STM32F4xx_StdPeriph_Driver/src/stm32f4xx_rng.c **** 
  58:../Libraries/STM32F4xx_StdPeriph_Driver/src/stm32f4xx_rng.c **** /** @defgroup RNG 
  59:../Libraries/STM32F4xx_StdPeriph_Driver/src/stm32f4xx_rng.c ****   * @brief RNG driver modules
  60:../Libraries/STM32F4xx_StdPeriph_Driver/src/stm32f4xx_rng.c ****   * @{
  61:../Libraries/STM32F4xx_StdPeriph_Driver/src/stm32f4xx_rng.c ****   */ 
  62:../Libraries/STM32F4xx_StdPeriph_Driver/src/stm32f4xx_rng.c **** 
  63:../Libraries/STM32F4xx_StdPeriph_Driver/src/stm32f4xx_rng.c **** /* Private typedef -----------------------------------------------------------*/
  64:../Libraries/STM32F4xx_StdPeriph_Driver/src/stm32f4xx_rng.c **** /* Private define ------------------------------------------------------------*/
  65:../Libraries/STM32F4xx_StdPeriph_Driver/src/stm32f4xx_rng.c **** /* Private macro -------------------------------------------------------------*/
  66:../Libraries/STM32F4xx_StdPeriph_Driver/src/stm32f4xx_rng.c **** /* Private variables ---------------------------------------------------------*/
  67:../Libraries/STM32F4xx_StdPeriph_Driver/src/stm32f4xx_rng.c **** /* Private function prototypes -----------------------------------------------*/
  68:../Libraries/STM32F4xx_StdPeriph_Driver/src/stm32f4xx_rng.c **** /* Private functions ---------------------------------------------------------*/
  69:../Libraries/STM32F4xx_StdPeriph_Driver/src/stm32f4xx_rng.c **** 
  70:../Libraries/STM32F4xx_StdPeriph_Driver/src/stm32f4xx_rng.c **** /** @defgroup RNG_Private_Functions
ARM GAS  C:\Users\admin\AppData\Local\Temp\ccObVLJP.s 			page 4


  71:../Libraries/STM32F4xx_StdPeriph_Driver/src/stm32f4xx_rng.c ****   * @{
  72:../Libraries/STM32F4xx_StdPeriph_Driver/src/stm32f4xx_rng.c ****   */ 
  73:../Libraries/STM32F4xx_StdPeriph_Driver/src/stm32f4xx_rng.c **** 
  74:../Libraries/STM32F4xx_StdPeriph_Driver/src/stm32f4xx_rng.c **** /** @defgroup RNG_Group1 Initialization and Configuration functions
  75:../Libraries/STM32F4xx_StdPeriph_Driver/src/stm32f4xx_rng.c ****  *  @brief    Initialization and Configuration functions 
  76:../Libraries/STM32F4xx_StdPeriph_Driver/src/stm32f4xx_rng.c ****  *
  77:../Libraries/STM32F4xx_StdPeriph_Driver/src/stm32f4xx_rng.c **** @verbatim    
  78:../Libraries/STM32F4xx_StdPeriph_Driver/src/stm32f4xx_rng.c ****  ===============================================================================
  79:../Libraries/STM32F4xx_StdPeriph_Driver/src/stm32f4xx_rng.c ****                       Initialization and Configuration functions
  80:../Libraries/STM32F4xx_StdPeriph_Driver/src/stm32f4xx_rng.c ****  ===============================================================================  
  81:../Libraries/STM32F4xx_StdPeriph_Driver/src/stm32f4xx_rng.c ****   This section provides functions allowing to 
  82:../Libraries/STM32F4xx_StdPeriph_Driver/src/stm32f4xx_rng.c ****    - Initialize the RNG peripheral
  83:../Libraries/STM32F4xx_StdPeriph_Driver/src/stm32f4xx_rng.c ****    - Enable or disable the RNG peripheral
  84:../Libraries/STM32F4xx_StdPeriph_Driver/src/stm32f4xx_rng.c ****    
  85:../Libraries/STM32F4xx_StdPeriph_Driver/src/stm32f4xx_rng.c **** @endverbatim
  86:../Libraries/STM32F4xx_StdPeriph_Driver/src/stm32f4xx_rng.c ****   * @{
  87:../Libraries/STM32F4xx_StdPeriph_Driver/src/stm32f4xx_rng.c ****   */
  88:../Libraries/STM32F4xx_StdPeriph_Driver/src/stm32f4xx_rng.c **** 
  89:../Libraries/STM32F4xx_StdPeriph_Driver/src/stm32f4xx_rng.c **** /**
  90:../Libraries/STM32F4xx_StdPeriph_Driver/src/stm32f4xx_rng.c ****   * @brief  Deinitializes the RNG peripheral registers to their default reset values.
  91:../Libraries/STM32F4xx_StdPeriph_Driver/src/stm32f4xx_rng.c ****   * @param  None
  92:../Libraries/STM32F4xx_StdPeriph_Driver/src/stm32f4xx_rng.c ****   * @retval None
  93:../Libraries/STM32F4xx_StdPeriph_Driver/src/stm32f4xx_rng.c ****   */
  94:../Libraries/STM32F4xx_StdPeriph_Driver/src/stm32f4xx_rng.c **** void RNG_DeInit(void)
  95:../Libraries/STM32F4xx_StdPeriph_Driver/src/stm32f4xx_rng.c **** {
 102              		.loc 1 95 1 view -0
 103              		.cfi_startproc
 104              		@ args = 0, pretend = 0, frame = 0
 105              		@ frame_needed = 0, uses_anonymous_args = 0
  96:../Libraries/STM32F4xx_StdPeriph_Driver/src/stm32f4xx_rng.c ****   /* Enable RNG reset state */
  97:../Libraries/STM32F4xx_StdPeriph_Driver/src/stm32f4xx_rng.c ****   RCC_AHB2PeriphResetCmd(RCC_AHB2Periph_RNG, ENABLE);
 106              		.loc 1 97 3 view .LVU1
 107              	@ ../Libraries/STM32F4xx_StdPeriph_Driver/src/stm32f4xx_rng.c:95: {
  95:../Libraries/STM32F4xx_StdPeriph_Driver/src/stm32f4xx_rng.c ****   /* Enable RNG reset state */
 108              		.loc 1 95 1 is_stmt 0 view .LVU2
 109 0000 08B5     		push	{r3, lr}	@
 110              		.cfi_def_cfa_offset 8
 111              		.cfi_offset 3, -8
 112              		.cfi_offset 14, -4
 113              	@ ../Libraries/STM32F4xx_StdPeriph_Driver/src/stm32f4xx_rng.c:97:   RCC_AHB2PeriphResetCmd(RCC_AHB2
 114              		.loc 1 97 3 view .LVU3
 115 0002 0121     		movs	r1, #1	@,
 116 0004 4020     		movs	r0, #64	@,
 117 0006 FFF7FEFF 		bl	RCC_AHB2PeriphResetCmd		@
 118              	.LVL0:
  98:../Libraries/STM32F4xx_StdPeriph_Driver/src/stm32f4xx_rng.c **** 
  99:../Libraries/STM32F4xx_StdPeriph_Driver/src/stm32f4xx_rng.c ****   /* Release RNG from reset state */
 100:../Libraries/STM32F4xx_StdPeriph_Driver/src/stm32f4xx_rng.c ****   RCC_AHB2PeriphResetCmd(RCC_AHB2Periph_RNG, DISABLE);
 119              		.loc 1 100 3 is_stmt 1 view .LVU4
 120              	@ ../Libraries/STM32F4xx_StdPeriph_Driver/src/stm32f4xx_rng.c:101: }
 101:../Libraries/STM32F4xx_StdPeriph_Driver/src/stm32f4xx_rng.c **** }
 121              		.loc 1 101 1 is_stmt 0 view .LVU5
 122 000a BDE80840 		pop	{r3, lr}	@
 123              		.cfi_restore 14
 124              		.cfi_restore 3
 125              		.cfi_def_cfa_offset 0
 126              	@ ../Libraries/STM32F4xx_StdPeriph_Driver/src/stm32f4xx_rng.c:100:   RCC_AHB2PeriphResetCmd(RCC_AHB
ARM GAS  C:\Users\admin\AppData\Local\Temp\ccObVLJP.s 			page 5


 100:../Libraries/STM32F4xx_StdPeriph_Driver/src/stm32f4xx_rng.c **** }
 127              		.loc 1 100 3 view .LVU6
 128 000e 0021     		movs	r1, #0	@,
 129 0010 4020     		movs	r0, #64	@,
 130 0012 FFF7FEBF 		b	RCC_AHB2PeriphResetCmd		@
 131              	.LVL1:
 132              		.cfi_endproc
 133              	.LFE110:
 134              		.size	RNG_DeInit, .-RNG_DeInit
 135 0016 00BF     		.section	.text.RNG_Cmd,"ax",%progbits
 136              		.align	1
 137              		.p2align 2,,3
 138              		.global	RNG_Cmd
 139              		.syntax unified
 140              		.thumb
 141              		.thumb_func
 142              		.type	RNG_Cmd, %function
 143              	RNG_Cmd:
 144              	.LVL2:
 145              	.LFB111:
 102:../Libraries/STM32F4xx_StdPeriph_Driver/src/stm32f4xx_rng.c **** 
 103:../Libraries/STM32F4xx_StdPeriph_Driver/src/stm32f4xx_rng.c **** /**
 104:../Libraries/STM32F4xx_StdPeriph_Driver/src/stm32f4xx_rng.c ****   * @brief  Enables or disables the RNG peripheral.
 105:../Libraries/STM32F4xx_StdPeriph_Driver/src/stm32f4xx_rng.c ****   * @param  NewState: new state of the RNG peripheral.
 106:../Libraries/STM32F4xx_StdPeriph_Driver/src/stm32f4xx_rng.c ****   *          This parameter can be: ENABLE or DISABLE.
 107:../Libraries/STM32F4xx_StdPeriph_Driver/src/stm32f4xx_rng.c ****   * @retval None
 108:../Libraries/STM32F4xx_StdPeriph_Driver/src/stm32f4xx_rng.c ****   */
 109:../Libraries/STM32F4xx_StdPeriph_Driver/src/stm32f4xx_rng.c **** void RNG_Cmd(FunctionalState NewState)
 110:../Libraries/STM32F4xx_StdPeriph_Driver/src/stm32f4xx_rng.c **** {
 146              		.loc 1 110 1 is_stmt 1 view -0
 147              		.cfi_startproc
 148              		@ args = 0, pretend = 0, frame = 0
 149              		@ frame_needed = 0, uses_anonymous_args = 0
 111:../Libraries/STM32F4xx_StdPeriph_Driver/src/stm32f4xx_rng.c ****   /* Check the parameters */
 112:../Libraries/STM32F4xx_StdPeriph_Driver/src/stm32f4xx_rng.c ****   assert_param(IS_FUNCTIONAL_STATE(NewState));
 150              		.loc 1 112 3 view .LVU8
 151 0000 0128     		cmp	r0, #1	@ NewState,
 152              	@ ../Libraries/STM32F4xx_StdPeriph_Driver/src/stm32f4xx_rng.c:110: {
 110:../Libraries/STM32F4xx_StdPeriph_Driver/src/stm32f4xx_rng.c ****   /* Check the parameters */
 153              		.loc 1 110 1 is_stmt 0 view .LVU9
 154 0002 10B5     		push	{r4, lr}	@
 155              		.cfi_def_cfa_offset 8
 156              		.cfi_offset 4, -8
 157              		.cfi_offset 14, -4
 158              	@ ../Libraries/STM32F4xx_StdPeriph_Driver/src/stm32f4xx_rng.c:110: {
 110:../Libraries/STM32F4xx_StdPeriph_Driver/src/stm32f4xx_rng.c ****   /* Check the parameters */
 159              		.loc 1 110 1 view .LVU10
 160 0004 0446     		mov	r4, r0	@ NewState, tmp128
 161              	@ ../Libraries/STM32F4xx_StdPeriph_Driver/src/stm32f4xx_rng.c:112:   assert_param(IS_FUNCTIONAL_STA
 162              		.loc 1 112 3 view .LVU11
 163 0006 8CBF     		ite	hi
 164 0008 0020     		movhi	r0, #0	@,
 165              	.LVL3:
 166              		.loc 1 112 3 view .LVU12
 167 000a 0120     		movls	r0, #1	@,
 168 000c FFF7FEFF 		bl	assert_param		@
 169              	.LVL4:
ARM GAS  C:\Users\admin\AppData\Local\Temp\ccObVLJP.s 			page 6


 113:../Libraries/STM32F4xx_StdPeriph_Driver/src/stm32f4xx_rng.c **** 
 114:../Libraries/STM32F4xx_StdPeriph_Driver/src/stm32f4xx_rng.c ****   if (NewState != DISABLE)
 170              		.loc 1 114 3 is_stmt 1 view .LVU13
 171              	@ ../Libraries/STM32F4xx_StdPeriph_Driver/src/stm32f4xx_rng.c:117:     RNG->CR |= RNG_CR_RNGEN;
 115:../Libraries/STM32F4xx_StdPeriph_Driver/src/stm32f4xx_rng.c ****   {
 116:../Libraries/STM32F4xx_StdPeriph_Driver/src/stm32f4xx_rng.c ****     /* Enable the RNG */
 117:../Libraries/STM32F4xx_StdPeriph_Driver/src/stm32f4xx_rng.c ****     RNG->CR |= RNG_CR_RNGEN;
 172              		.loc 1 117 13 is_stmt 0 view .LVU14
 173 0010 054A     		ldr	r2, .L8	@ tmp124,
 174 0012 1368     		ldr	r3, [r2]	@ _3,
 175              	@ ../Libraries/STM32F4xx_StdPeriph_Driver/src/stm32f4xx_rng.c:114:   if (NewState != DISABLE)
 114:../Libraries/STM32F4xx_StdPeriph_Driver/src/stm32f4xx_rng.c ****   {
 176              		.loc 1 114 6 view .LVU15
 177 0014 1CB1     		cbz	r4, .L5	@ NewState,
 178              		.loc 1 117 5 is_stmt 1 view .LVU16
 179              	@ ../Libraries/STM32F4xx_StdPeriph_Driver/src/stm32f4xx_rng.c:117:     RNG->CR |= RNG_CR_RNGEN;
 180              		.loc 1 117 13 is_stmt 0 view .LVU17
 181 0016 43F00403 		orr	r3, r3, #4	@ _4, _3,
 182 001a 1360     		str	r3, [r2]	@ _4,
 183              	@ ../Libraries/STM32F4xx_StdPeriph_Driver/src/stm32f4xx_rng.c:124: }
 118:../Libraries/STM32F4xx_StdPeriph_Driver/src/stm32f4xx_rng.c ****   }
 119:../Libraries/STM32F4xx_StdPeriph_Driver/src/stm32f4xx_rng.c ****   else
 120:../Libraries/STM32F4xx_StdPeriph_Driver/src/stm32f4xx_rng.c ****   {
 121:../Libraries/STM32F4xx_StdPeriph_Driver/src/stm32f4xx_rng.c ****     /* Disable the RNG */
 122:../Libraries/STM32F4xx_StdPeriph_Driver/src/stm32f4xx_rng.c ****     RNG->CR &= ~RNG_CR_RNGEN;
 123:../Libraries/STM32F4xx_StdPeriph_Driver/src/stm32f4xx_rng.c ****   }
 124:../Libraries/STM32F4xx_StdPeriph_Driver/src/stm32f4xx_rng.c **** }
 184              		.loc 1 124 1 view .LVU18
 185 001c 10BD     		pop	{r4, pc}	@
 186              	.L5:
 122:../Libraries/STM32F4xx_StdPeriph_Driver/src/stm32f4xx_rng.c ****   }
 187              		.loc 1 122 5 is_stmt 1 view .LVU19
 188              	@ ../Libraries/STM32F4xx_StdPeriph_Driver/src/stm32f4xx_rng.c:122:     RNG->CR &= ~RNG_CR_RNGEN;
 122:../Libraries/STM32F4xx_StdPeriph_Driver/src/stm32f4xx_rng.c ****   }
 189              		.loc 1 122 13 is_stmt 0 view .LVU20
 190 001e 23F00403 		bic	r3, r3, #4	@ _6, _5,
 191 0022 1360     		str	r3, [r2]	@ _6,
 192              	@ ../Libraries/STM32F4xx_StdPeriph_Driver/src/stm32f4xx_rng.c:124: }
 193              		.loc 1 124 1 view .LVU21
 194 0024 10BD     		pop	{r4, pc}	@
 195              	.L9:
 196 0026 00BF     		.align	2
 197              	.L8:
 198 0028 00080650 		.word	1342572544
 199              		.cfi_endproc
 200              	.LFE111:
 201              		.size	RNG_Cmd, .-RNG_Cmd
 202              		.section	.text.RNG_GetRandomNumber,"ax",%progbits
 203              		.align	1
 204              		.p2align 2,,3
 205              		.global	RNG_GetRandomNumber
 206              		.syntax unified
 207              		.thumb
 208              		.thumb_func
 209              		.type	RNG_GetRandomNumber, %function
 210              	RNG_GetRandomNumber:
 211              	.LFB112:
ARM GAS  C:\Users\admin\AppData\Local\Temp\ccObVLJP.s 			page 7


 125:../Libraries/STM32F4xx_StdPeriph_Driver/src/stm32f4xx_rng.c **** /**
 126:../Libraries/STM32F4xx_StdPeriph_Driver/src/stm32f4xx_rng.c ****   * @}
 127:../Libraries/STM32F4xx_StdPeriph_Driver/src/stm32f4xx_rng.c ****   */
 128:../Libraries/STM32F4xx_StdPeriph_Driver/src/stm32f4xx_rng.c **** 
 129:../Libraries/STM32F4xx_StdPeriph_Driver/src/stm32f4xx_rng.c **** /** @defgroup RNG_Group2 Get 32 bit Random number function
 130:../Libraries/STM32F4xx_StdPeriph_Driver/src/stm32f4xx_rng.c ****  *  @brief    Get 32 bit Random number function 
 131:../Libraries/STM32F4xx_StdPeriph_Driver/src/stm32f4xx_rng.c ****  *
 132:../Libraries/STM32F4xx_StdPeriph_Driver/src/stm32f4xx_rng.c **** 
 133:../Libraries/STM32F4xx_StdPeriph_Driver/src/stm32f4xx_rng.c **** @verbatim    
 134:../Libraries/STM32F4xx_StdPeriph_Driver/src/stm32f4xx_rng.c ****  ===============================================================================
 135:../Libraries/STM32F4xx_StdPeriph_Driver/src/stm32f4xx_rng.c ****                       Get 32 bit Random number function
 136:../Libraries/STM32F4xx_StdPeriph_Driver/src/stm32f4xx_rng.c ****  ===============================================================================  
 137:../Libraries/STM32F4xx_StdPeriph_Driver/src/stm32f4xx_rng.c ****   This section provides a function allowing to get the 32 bit Random number  
 138:../Libraries/STM32F4xx_StdPeriph_Driver/src/stm32f4xx_rng.c ****   
 139:../Libraries/STM32F4xx_StdPeriph_Driver/src/stm32f4xx_rng.c ****   @note  Before to call this function you have to wait till DRDY flag is set,
 140:../Libraries/STM32F4xx_StdPeriph_Driver/src/stm32f4xx_rng.c ****          using RNG_GetFlagStatus(RNG_FLAG_DRDY) function. 
 141:../Libraries/STM32F4xx_StdPeriph_Driver/src/stm32f4xx_rng.c ****    
 142:../Libraries/STM32F4xx_StdPeriph_Driver/src/stm32f4xx_rng.c **** @endverbatim
 143:../Libraries/STM32F4xx_StdPeriph_Driver/src/stm32f4xx_rng.c ****   * @{
 144:../Libraries/STM32F4xx_StdPeriph_Driver/src/stm32f4xx_rng.c ****   */
 145:../Libraries/STM32F4xx_StdPeriph_Driver/src/stm32f4xx_rng.c **** 
 146:../Libraries/STM32F4xx_StdPeriph_Driver/src/stm32f4xx_rng.c **** 
 147:../Libraries/STM32F4xx_StdPeriph_Driver/src/stm32f4xx_rng.c **** /**
 148:../Libraries/STM32F4xx_StdPeriph_Driver/src/stm32f4xx_rng.c ****   * @brief  Returns a 32-bit random number.
 149:../Libraries/STM32F4xx_StdPeriph_Driver/src/stm32f4xx_rng.c ****   *   
 150:../Libraries/STM32F4xx_StdPeriph_Driver/src/stm32f4xx_rng.c ****   * @note   Before to call this function you have to wait till DRDY (data ready)
 151:../Libraries/STM32F4xx_StdPeriph_Driver/src/stm32f4xx_rng.c ****   *         flag is set, using RNG_GetFlagStatus(RNG_FLAG_DRDY) function.
 152:../Libraries/STM32F4xx_StdPeriph_Driver/src/stm32f4xx_rng.c ****   * @note   Each time the the Random number data is read (using RNG_GetRandomNumber()
 153:../Libraries/STM32F4xx_StdPeriph_Driver/src/stm32f4xx_rng.c ****   *         function), the RNG_FLAG_DRDY flag is automatically cleared.
 154:../Libraries/STM32F4xx_StdPeriph_Driver/src/stm32f4xx_rng.c ****   * @note   In the case of a seed error, the generation of random numbers is 
 155:../Libraries/STM32F4xx_StdPeriph_Driver/src/stm32f4xx_rng.c ****   *         interrupted for as long as the SECS bit is '1'. If a number is 
 156:../Libraries/STM32F4xx_StdPeriph_Driver/src/stm32f4xx_rng.c ****   *         available in the RNG_DR register, it must not be used because it may 
 157:../Libraries/STM32F4xx_StdPeriph_Driver/src/stm32f4xx_rng.c ****   *         not have enough entropy. In this case, it is recommended to clear the 
 158:../Libraries/STM32F4xx_StdPeriph_Driver/src/stm32f4xx_rng.c ****   *         SEIS bit(using RNG_ClearFlag(RNG_FLAG_SECS) function), then disable 
 159:../Libraries/STM32F4xx_StdPeriph_Driver/src/stm32f4xx_rng.c ****   *         and enable the RNG peripheral (using RNG_Cmd() function) to 
 160:../Libraries/STM32F4xx_StdPeriph_Driver/src/stm32f4xx_rng.c ****   *         reinitialize and restart the RNG.
 161:../Libraries/STM32F4xx_StdPeriph_Driver/src/stm32f4xx_rng.c ****   * @note   In the case of a clock error, the RNG is no more able to generate 
 162:../Libraries/STM32F4xx_StdPeriph_Driver/src/stm32f4xx_rng.c ****   *         random numbers because the PLL48CLK clock is not correct. User have 
 163:../Libraries/STM32F4xx_StdPeriph_Driver/src/stm32f4xx_rng.c ****   *         to check that the clock controller is correctly configured to provide
 164:../Libraries/STM32F4xx_StdPeriph_Driver/src/stm32f4xx_rng.c ****   *         the RNG clock and clear the CEIS bit (using RNG_ClearFlag(RNG_FLAG_CECS) 
 165:../Libraries/STM32F4xx_StdPeriph_Driver/src/stm32f4xx_rng.c ****   *         function) . The clock error has no impact on the previously generated 
 166:../Libraries/STM32F4xx_StdPeriph_Driver/src/stm32f4xx_rng.c ****   *         random numbers, and the RNG_DR register contents can be used.
 167:../Libraries/STM32F4xx_StdPeriph_Driver/src/stm32f4xx_rng.c ****   *         
 168:../Libraries/STM32F4xx_StdPeriph_Driver/src/stm32f4xx_rng.c ****   * @param  None
 169:../Libraries/STM32F4xx_StdPeriph_Driver/src/stm32f4xx_rng.c ****   * @retval 32-bit random number.
 170:../Libraries/STM32F4xx_StdPeriph_Driver/src/stm32f4xx_rng.c ****   */
 171:../Libraries/STM32F4xx_StdPeriph_Driver/src/stm32f4xx_rng.c **** uint32_t RNG_GetRandomNumber(void)
 172:../Libraries/STM32F4xx_StdPeriph_Driver/src/stm32f4xx_rng.c **** {
 212              		.loc 1 172 1 is_stmt 1 view -0
 213              		.cfi_startproc
 214              		@ args = 0, pretend = 0, frame = 0
 215              		@ frame_needed = 0, uses_anonymous_args = 0
 216              		@ link register save eliminated.
 173:../Libraries/STM32F4xx_StdPeriph_Driver/src/stm32f4xx_rng.c ****   /* Return the 32 bit random number from the DR register */
 174:../Libraries/STM32F4xx_StdPeriph_Driver/src/stm32f4xx_rng.c ****   return RNG->DR;
 217              		.loc 1 174 3 view .LVU23
 218              	@ ../Libraries/STM32F4xx_StdPeriph_Driver/src/stm32f4xx_rng.c:174:   return RNG->DR;
ARM GAS  C:\Users\admin\AppData\Local\Temp\ccObVLJP.s 			page 8


 219              		.loc 1 174 13 is_stmt 0 view .LVU24
 220 0000 014B     		ldr	r3, .L11	@ tmp114,
 221 0002 9868     		ldr	r0, [r3, #8]	@ <retval>, MEM[(struct RNG_TypeDef *)1342572544B].DR
 222              	@ ../Libraries/STM32F4xx_StdPeriph_Driver/src/stm32f4xx_rng.c:175: }
 175:../Libraries/STM32F4xx_StdPeriph_Driver/src/stm32f4xx_rng.c **** }
 223              		.loc 1 175 1 view .LVU25
 224 0004 7047     		bx	lr	@
 225              	.L12:
 226 0006 00BF     		.align	2
 227              	.L11:
 228 0008 00080650 		.word	1342572544
 229              		.cfi_endproc
 230              	.LFE112:
 231              		.size	RNG_GetRandomNumber, .-RNG_GetRandomNumber
 232              		.section	.text.RNG_ITConfig,"ax",%progbits
 233              		.align	1
 234              		.p2align 2,,3
 235              		.global	RNG_ITConfig
 236              		.syntax unified
 237              		.thumb
 238              		.thumb_func
 239              		.type	RNG_ITConfig, %function
 240              	RNG_ITConfig:
 241              	.LVL5:
 242              	.LFB113:
 176:../Libraries/STM32F4xx_StdPeriph_Driver/src/stm32f4xx_rng.c **** 
 177:../Libraries/STM32F4xx_StdPeriph_Driver/src/stm32f4xx_rng.c **** 
 178:../Libraries/STM32F4xx_StdPeriph_Driver/src/stm32f4xx_rng.c **** /**
 179:../Libraries/STM32F4xx_StdPeriph_Driver/src/stm32f4xx_rng.c ****   * @}
 180:../Libraries/STM32F4xx_StdPeriph_Driver/src/stm32f4xx_rng.c ****   */
 181:../Libraries/STM32F4xx_StdPeriph_Driver/src/stm32f4xx_rng.c **** 
 182:../Libraries/STM32F4xx_StdPeriph_Driver/src/stm32f4xx_rng.c **** /** @defgroup RNG_Group3 Interrupts and flags management functions
 183:../Libraries/STM32F4xx_StdPeriph_Driver/src/stm32f4xx_rng.c ****  *  @brief   Interrupts and flags management functions
 184:../Libraries/STM32F4xx_StdPeriph_Driver/src/stm32f4xx_rng.c ****  *
 185:../Libraries/STM32F4xx_StdPeriph_Driver/src/stm32f4xx_rng.c **** @verbatim   
 186:../Libraries/STM32F4xx_StdPeriph_Driver/src/stm32f4xx_rng.c ****  ===============================================================================
 187:../Libraries/STM32F4xx_StdPeriph_Driver/src/stm32f4xx_rng.c ****                    Interrupts and flags management functions
 188:../Libraries/STM32F4xx_StdPeriph_Driver/src/stm32f4xx_rng.c ****  ===============================================================================  
 189:../Libraries/STM32F4xx_StdPeriph_Driver/src/stm32f4xx_rng.c **** 
 190:../Libraries/STM32F4xx_StdPeriph_Driver/src/stm32f4xx_rng.c ****   This section provides functions allowing to configure the RNG Interrupts and 
 191:../Libraries/STM32F4xx_StdPeriph_Driver/src/stm32f4xx_rng.c ****   to get the status and clear flags and Interrupts pending bits.
 192:../Libraries/STM32F4xx_StdPeriph_Driver/src/stm32f4xx_rng.c ****   
 193:../Libraries/STM32F4xx_StdPeriph_Driver/src/stm32f4xx_rng.c ****   The RNG provides 3 Interrupts sources and 3 Flags:
 194:../Libraries/STM32F4xx_StdPeriph_Driver/src/stm32f4xx_rng.c ****   
 195:../Libraries/STM32F4xx_StdPeriph_Driver/src/stm32f4xx_rng.c ****   Flags :
 196:../Libraries/STM32F4xx_StdPeriph_Driver/src/stm32f4xx_rng.c ****   ---------- 
 197:../Libraries/STM32F4xx_StdPeriph_Driver/src/stm32f4xx_rng.c ****      1. RNG_FLAG_DRDY :  In the case of the RNG_DR register contains valid 
 198:../Libraries/STM32F4xx_StdPeriph_Driver/src/stm32f4xx_rng.c ****                          random data. it is cleared by reading the valid data 
 199:../Libraries/STM32F4xx_StdPeriph_Driver/src/stm32f4xx_rng.c ****                          (using RNG_GetRandomNumber() function).
 200:../Libraries/STM32F4xx_StdPeriph_Driver/src/stm32f4xx_rng.c **** 
 201:../Libraries/STM32F4xx_StdPeriph_Driver/src/stm32f4xx_rng.c ****      2. RNG_FLAG_CECS : In the case of a seed error detection. 
 202:../Libraries/STM32F4xx_StdPeriph_Driver/src/stm32f4xx_rng.c ****       
 203:../Libraries/STM32F4xx_StdPeriph_Driver/src/stm32f4xx_rng.c ****      3. RNG_FLAG_SECS : In the case of a clock error detection.
 204:../Libraries/STM32F4xx_StdPeriph_Driver/src/stm32f4xx_rng.c ****               
 205:../Libraries/STM32F4xx_StdPeriph_Driver/src/stm32f4xx_rng.c **** 
 206:../Libraries/STM32F4xx_StdPeriph_Driver/src/stm32f4xx_rng.c ****   Interrupts :
 207:../Libraries/STM32F4xx_StdPeriph_Driver/src/stm32f4xx_rng.c ****   ------------
ARM GAS  C:\Users\admin\AppData\Local\Temp\ccObVLJP.s 			page 9


 208:../Libraries/STM32F4xx_StdPeriph_Driver/src/stm32f4xx_rng.c ****    if enabled, an RNG interrupt is pending :
 209:../Libraries/STM32F4xx_StdPeriph_Driver/src/stm32f4xx_rng.c ****     
 210:../Libraries/STM32F4xx_StdPeriph_Driver/src/stm32f4xx_rng.c ****    1.  In the case of the RNG_DR register contains valid random data. 
 211:../Libraries/STM32F4xx_StdPeriph_Driver/src/stm32f4xx_rng.c ****        This interrupt source is cleared once the RNG_DR register has been read 
 212:../Libraries/STM32F4xx_StdPeriph_Driver/src/stm32f4xx_rng.c ****        (using RNG_GetRandomNumber() function) until a new valid value is 
 213:../Libraries/STM32F4xx_StdPeriph_Driver/src/stm32f4xx_rng.c ****        computed. 
 214:../Libraries/STM32F4xx_StdPeriph_Driver/src/stm32f4xx_rng.c ****    
 215:../Libraries/STM32F4xx_StdPeriph_Driver/src/stm32f4xx_rng.c ****    or 
 216:../Libraries/STM32F4xx_StdPeriph_Driver/src/stm32f4xx_rng.c ****    2. In the case of a seed error : One of the following faulty sequences has 
 217:../Libraries/STM32F4xx_StdPeriph_Driver/src/stm32f4xx_rng.c ****       been detected:
 218:../Libraries/STM32F4xx_StdPeriph_Driver/src/stm32f4xx_rng.c ****       - More than 64 consecutive bits at the same value (0 or 1)
 219:../Libraries/STM32F4xx_StdPeriph_Driver/src/stm32f4xx_rng.c ****       - More than 32 consecutive alternance of 0 and 1 (0101010101...01)
 220:../Libraries/STM32F4xx_StdPeriph_Driver/src/stm32f4xx_rng.c ****       This interrupt source is cleared using RNG_ClearITPendingBit(RNG_IT_SEI)
 221:../Libraries/STM32F4xx_StdPeriph_Driver/src/stm32f4xx_rng.c ****       function.
 222:../Libraries/STM32F4xx_StdPeriph_Driver/src/stm32f4xx_rng.c ****    
 223:../Libraries/STM32F4xx_StdPeriph_Driver/src/stm32f4xx_rng.c ****    or
 224:../Libraries/STM32F4xx_StdPeriph_Driver/src/stm32f4xx_rng.c ****    3. In the case of a clock error : the PLL48CLK (RNG peripheral clock source) 
 225:../Libraries/STM32F4xx_StdPeriph_Driver/src/stm32f4xx_rng.c ****       was not correctly detected (fPLL48CLK< fHCLK/16).
 226:../Libraries/STM32F4xx_StdPeriph_Driver/src/stm32f4xx_rng.c ****       This interrupt source is cleared using RNG_ClearITPendingBit(RNG_IT_CEI)
 227:../Libraries/STM32F4xx_StdPeriph_Driver/src/stm32f4xx_rng.c ****       function.
 228:../Libraries/STM32F4xx_StdPeriph_Driver/src/stm32f4xx_rng.c ****       @note In this case, User have to check that the clock controller is 
 229:../Libraries/STM32F4xx_StdPeriph_Driver/src/stm32f4xx_rng.c ****             correctly configured to provide the RNG clock. 
 230:../Libraries/STM32F4xx_StdPeriph_Driver/src/stm32f4xx_rng.c **** 
 231:../Libraries/STM32F4xx_StdPeriph_Driver/src/stm32f4xx_rng.c ****   Managing the RNG controller events :
 232:../Libraries/STM32F4xx_StdPeriph_Driver/src/stm32f4xx_rng.c ****   ------------------------------------ 
 233:../Libraries/STM32F4xx_StdPeriph_Driver/src/stm32f4xx_rng.c ****   The user should identify which mode will be used in his application to manage 
 234:../Libraries/STM32F4xx_StdPeriph_Driver/src/stm32f4xx_rng.c ****   the RNG controller events: Polling mode or Interrupt mode.
 235:../Libraries/STM32F4xx_StdPeriph_Driver/src/stm32f4xx_rng.c ****   
 236:../Libraries/STM32F4xx_StdPeriph_Driver/src/stm32f4xx_rng.c ****   1.  In the Polling Mode it is advised to use the following functions:
 237:../Libraries/STM32F4xx_StdPeriph_Driver/src/stm32f4xx_rng.c ****       - RNG_GetFlagStatus() : to check if flags events occur. 
 238:../Libraries/STM32F4xx_StdPeriph_Driver/src/stm32f4xx_rng.c ****       - RNG_ClearFlag()     : to clear the flags events.
 239:../Libraries/STM32F4xx_StdPeriph_Driver/src/stm32f4xx_rng.c ****   
 240:../Libraries/STM32F4xx_StdPeriph_Driver/src/stm32f4xx_rng.c ****   @note RNG_FLAG_DRDY can not be cleared by RNG_ClearFlag(). it is cleared only 
 241:../Libraries/STM32F4xx_StdPeriph_Driver/src/stm32f4xx_rng.c ****         by reading the Random number data.      
 242:../Libraries/STM32F4xx_StdPeriph_Driver/src/stm32f4xx_rng.c ****   
 243:../Libraries/STM32F4xx_StdPeriph_Driver/src/stm32f4xx_rng.c ****   2.  In the Interrupt Mode it is advised to use the following functions:
 244:../Libraries/STM32F4xx_StdPeriph_Driver/src/stm32f4xx_rng.c ****       - RNG_ITConfig()       : to enable or disable the interrupt source.
 245:../Libraries/STM32F4xx_StdPeriph_Driver/src/stm32f4xx_rng.c ****       - RNG_GetITStatus()    : to check if Interrupt occurs.
 246:../Libraries/STM32F4xx_StdPeriph_Driver/src/stm32f4xx_rng.c ****       - RNG_ClearITPendingBit() : to clear the Interrupt pending Bit 
 247:../Libraries/STM32F4xx_StdPeriph_Driver/src/stm32f4xx_rng.c ****                                 (corresponding Flag). 
 248:../Libraries/STM32F4xx_StdPeriph_Driver/src/stm32f4xx_rng.c ****   
 249:../Libraries/STM32F4xx_StdPeriph_Driver/src/stm32f4xx_rng.c **** 
 250:../Libraries/STM32F4xx_StdPeriph_Driver/src/stm32f4xx_rng.c **** @endverbatim
 251:../Libraries/STM32F4xx_StdPeriph_Driver/src/stm32f4xx_rng.c ****   * @{
 252:../Libraries/STM32F4xx_StdPeriph_Driver/src/stm32f4xx_rng.c ****   */ 
 253:../Libraries/STM32F4xx_StdPeriph_Driver/src/stm32f4xx_rng.c **** 
 254:../Libraries/STM32F4xx_StdPeriph_Driver/src/stm32f4xx_rng.c **** /**
 255:../Libraries/STM32F4xx_StdPeriph_Driver/src/stm32f4xx_rng.c ****   * @brief  Enables or disables the RNG interrupt.
 256:../Libraries/STM32F4xx_StdPeriph_Driver/src/stm32f4xx_rng.c ****   * @note   The RNG provides 3 interrupt sources,
 257:../Libraries/STM32F4xx_StdPeriph_Driver/src/stm32f4xx_rng.c ****   *           - Computed data is ready event (DRDY), and           
 258:../Libraries/STM32F4xx_StdPeriph_Driver/src/stm32f4xx_rng.c ****   *           - Seed error Interrupt (SEI) and 
 259:../Libraries/STM32F4xx_StdPeriph_Driver/src/stm32f4xx_rng.c ****   *           - Clock error Interrupt (CEI), 
 260:../Libraries/STM32F4xx_StdPeriph_Driver/src/stm32f4xx_rng.c ****   *         all these interrupts sources are enabled by setting the IE bit in 
 261:../Libraries/STM32F4xx_StdPeriph_Driver/src/stm32f4xx_rng.c ****   *         CR register. However, each interrupt have its specific status bit
 262:../Libraries/STM32F4xx_StdPeriph_Driver/src/stm32f4xx_rng.c ****   *         (see RNG_GetITStatus() function) and clear bit except the DRDY event
 263:../Libraries/STM32F4xx_StdPeriph_Driver/src/stm32f4xx_rng.c ****   *         (see RNG_ClearITPendingBit() function).
 264:../Libraries/STM32F4xx_StdPeriph_Driver/src/stm32f4xx_rng.c ****   * @param  NewState: new state of the RNG interrupt.
ARM GAS  C:\Users\admin\AppData\Local\Temp\ccObVLJP.s 			page 10


 265:../Libraries/STM32F4xx_StdPeriph_Driver/src/stm32f4xx_rng.c ****   *          This parameter can be: ENABLE or DISABLE.
 266:../Libraries/STM32F4xx_StdPeriph_Driver/src/stm32f4xx_rng.c ****   * @retval None
 267:../Libraries/STM32F4xx_StdPeriph_Driver/src/stm32f4xx_rng.c ****   */
 268:../Libraries/STM32F4xx_StdPeriph_Driver/src/stm32f4xx_rng.c **** void RNG_ITConfig(FunctionalState NewState)
 269:../Libraries/STM32F4xx_StdPeriph_Driver/src/stm32f4xx_rng.c **** {
 243              		.loc 1 269 1 is_stmt 1 view -0
 244              		.cfi_startproc
 245              		@ args = 0, pretend = 0, frame = 0
 246              		@ frame_needed = 0, uses_anonymous_args = 0
 270:../Libraries/STM32F4xx_StdPeriph_Driver/src/stm32f4xx_rng.c ****   /* Check the parameters */
 271:../Libraries/STM32F4xx_StdPeriph_Driver/src/stm32f4xx_rng.c ****   assert_param(IS_FUNCTIONAL_STATE(NewState));
 247              		.loc 1 271 3 view .LVU27
 248 0000 0128     		cmp	r0, #1	@ NewState,
 249              	@ ../Libraries/STM32F4xx_StdPeriph_Driver/src/stm32f4xx_rng.c:269: {
 269:../Libraries/STM32F4xx_StdPeriph_Driver/src/stm32f4xx_rng.c ****   /* Check the parameters */
 250              		.loc 1 269 1 is_stmt 0 view .LVU28
 251 0002 10B5     		push	{r4, lr}	@
 252              		.cfi_def_cfa_offset 8
 253              		.cfi_offset 4, -8
 254              		.cfi_offset 14, -4
 255              	@ ../Libraries/STM32F4xx_StdPeriph_Driver/src/stm32f4xx_rng.c:269: {
 269:../Libraries/STM32F4xx_StdPeriph_Driver/src/stm32f4xx_rng.c ****   /* Check the parameters */
 256              		.loc 1 269 1 view .LVU29
 257 0004 0446     		mov	r4, r0	@ NewState, tmp128
 258              	@ ../Libraries/STM32F4xx_StdPeriph_Driver/src/stm32f4xx_rng.c:271:   assert_param(IS_FUNCTIONAL_STA
 259              		.loc 1 271 3 view .LVU30
 260 0006 8CBF     		ite	hi
 261 0008 0020     		movhi	r0, #0	@,
 262              	.LVL6:
 263              		.loc 1 271 3 view .LVU31
 264 000a 0120     		movls	r0, #1	@,
 265 000c FFF7FEFF 		bl	assert_param		@
 266              	.LVL7:
 272:../Libraries/STM32F4xx_StdPeriph_Driver/src/stm32f4xx_rng.c **** 
 273:../Libraries/STM32F4xx_StdPeriph_Driver/src/stm32f4xx_rng.c ****   if (NewState != DISABLE)
 267              		.loc 1 273 3 is_stmt 1 view .LVU32
 268              	@ ../Libraries/STM32F4xx_StdPeriph_Driver/src/stm32f4xx_rng.c:276:     RNG->CR |= RNG_CR_IE;
 274:../Libraries/STM32F4xx_StdPeriph_Driver/src/stm32f4xx_rng.c ****   {
 275:../Libraries/STM32F4xx_StdPeriph_Driver/src/stm32f4xx_rng.c ****     /* Enable the RNG interrupt */
 276:../Libraries/STM32F4xx_StdPeriph_Driver/src/stm32f4xx_rng.c ****     RNG->CR |= RNG_CR_IE;
 269              		.loc 1 276 13 is_stmt 0 view .LVU33
 270 0010 054A     		ldr	r2, .L17	@ tmp124,
 271 0012 1368     		ldr	r3, [r2]	@ _3,
 272              	@ ../Libraries/STM32F4xx_StdPeriph_Driver/src/stm32f4xx_rng.c:273:   if (NewState != DISABLE)
 273:../Libraries/STM32F4xx_StdPeriph_Driver/src/stm32f4xx_rng.c ****   {
 273              		.loc 1 273 6 view .LVU34
 274 0014 1CB1     		cbz	r4, .L14	@ NewState,
 275              		.loc 1 276 5 is_stmt 1 view .LVU35
 276              	@ ../Libraries/STM32F4xx_StdPeriph_Driver/src/stm32f4xx_rng.c:276:     RNG->CR |= RNG_CR_IE;
 277              		.loc 1 276 13 is_stmt 0 view .LVU36
 278 0016 43F00803 		orr	r3, r3, #8	@ _4, _3,
 279 001a 1360     		str	r3, [r2]	@ _4,
 280              	@ ../Libraries/STM32F4xx_StdPeriph_Driver/src/stm32f4xx_rng.c:283: }
 277:../Libraries/STM32F4xx_StdPeriph_Driver/src/stm32f4xx_rng.c ****   }
 278:../Libraries/STM32F4xx_StdPeriph_Driver/src/stm32f4xx_rng.c ****   else
 279:../Libraries/STM32F4xx_StdPeriph_Driver/src/stm32f4xx_rng.c ****   {
 280:../Libraries/STM32F4xx_StdPeriph_Driver/src/stm32f4xx_rng.c ****     /* Disable the RNG interrupt */
ARM GAS  C:\Users\admin\AppData\Local\Temp\ccObVLJP.s 			page 11


 281:../Libraries/STM32F4xx_StdPeriph_Driver/src/stm32f4xx_rng.c ****     RNG->CR &= ~RNG_CR_IE;
 282:../Libraries/STM32F4xx_StdPeriph_Driver/src/stm32f4xx_rng.c ****   }
 283:../Libraries/STM32F4xx_StdPeriph_Driver/src/stm32f4xx_rng.c **** }
 281              		.loc 1 283 1 view .LVU37
 282 001c 10BD     		pop	{r4, pc}	@
 283              	.L14:
 281:../Libraries/STM32F4xx_StdPeriph_Driver/src/stm32f4xx_rng.c ****   }
 284              		.loc 1 281 5 is_stmt 1 view .LVU38
 285              	@ ../Libraries/STM32F4xx_StdPeriph_Driver/src/stm32f4xx_rng.c:281:     RNG->CR &= ~RNG_CR_IE;
 281:../Libraries/STM32F4xx_StdPeriph_Driver/src/stm32f4xx_rng.c ****   }
 286              		.loc 1 281 13 is_stmt 0 view .LVU39
 287 001e 23F00803 		bic	r3, r3, #8	@ _6, _5,
 288 0022 1360     		str	r3, [r2]	@ _6,
 289              	@ ../Libraries/STM32F4xx_StdPeriph_Driver/src/stm32f4xx_rng.c:283: }
 290              		.loc 1 283 1 view .LVU40
 291 0024 10BD     		pop	{r4, pc}	@
 292              	.L18:
 293 0026 00BF     		.align	2
 294              	.L17:
 295 0028 00080650 		.word	1342572544
 296              		.cfi_endproc
 297              	.LFE113:
 298              		.size	RNG_ITConfig, .-RNG_ITConfig
 299              		.section	.text.RNG_GetFlagStatus,"ax",%progbits
 300              		.align	1
 301              		.p2align 2,,3
 302              		.global	RNG_GetFlagStatus
 303              		.syntax unified
 304              		.thumb
 305              		.thumb_func
 306              		.type	RNG_GetFlagStatus, %function
 307              	RNG_GetFlagStatus:
 308              	.LVL8:
 309              	.LFB114:
 284:../Libraries/STM32F4xx_StdPeriph_Driver/src/stm32f4xx_rng.c **** 
 285:../Libraries/STM32F4xx_StdPeriph_Driver/src/stm32f4xx_rng.c **** /**
 286:../Libraries/STM32F4xx_StdPeriph_Driver/src/stm32f4xx_rng.c ****   * @brief  Checks whether the specified RNG flag is set or not.
 287:../Libraries/STM32F4xx_StdPeriph_Driver/src/stm32f4xx_rng.c ****   * @param  RNG_FLAG: specifies the RNG flag to check.
 288:../Libraries/STM32F4xx_StdPeriph_Driver/src/stm32f4xx_rng.c ****   *          This parameter can be one of the following values:
 289:../Libraries/STM32F4xx_StdPeriph_Driver/src/stm32f4xx_rng.c ****   *            @arg RNG_FLAG_DRDY: Data Ready flag.
 290:../Libraries/STM32F4xx_StdPeriph_Driver/src/stm32f4xx_rng.c ****   *            @arg RNG_FLAG_CECS: Clock Error Current flag.
 291:../Libraries/STM32F4xx_StdPeriph_Driver/src/stm32f4xx_rng.c ****   *            @arg RNG_FLAG_SECS: Seed Error Current flag.
 292:../Libraries/STM32F4xx_StdPeriph_Driver/src/stm32f4xx_rng.c ****   * @retval The new state of RNG_FLAG (SET or RESET).
 293:../Libraries/STM32F4xx_StdPeriph_Driver/src/stm32f4xx_rng.c ****   */
 294:../Libraries/STM32F4xx_StdPeriph_Driver/src/stm32f4xx_rng.c **** FlagStatus RNG_GetFlagStatus(uint8_t RNG_FLAG)
 295:../Libraries/STM32F4xx_StdPeriph_Driver/src/stm32f4xx_rng.c **** {
 310              		.loc 1 295 1 is_stmt 1 view -0
 311              		.cfi_startproc
 312              		@ args = 0, pretend = 0, frame = 0
 313              		@ frame_needed = 0, uses_anonymous_args = 0
 296:../Libraries/STM32F4xx_StdPeriph_Driver/src/stm32f4xx_rng.c ****   FlagStatus bitstatus = RESET;
 314              		.loc 1 296 3 view .LVU42
 297:../Libraries/STM32F4xx_StdPeriph_Driver/src/stm32f4xx_rng.c ****   /* Check the parameters */
 298:../Libraries/STM32F4xx_StdPeriph_Driver/src/stm32f4xx_rng.c ****   assert_param(IS_RNG_GET_FLAG(RNG_FLAG));
 315              		.loc 1 298 3 view .LVU43
 316 0000 431E     		subs	r3, r0, #1	@ tmp125, RNG_FLAG,
 317 0002 012B     		cmp	r3, #1	@ tmp125,
ARM GAS  C:\Users\admin\AppData\Local\Temp\ccObVLJP.s 			page 12


 318              	@ ../Libraries/STM32F4xx_StdPeriph_Driver/src/stm32f4xx_rng.c:295: {
 295:../Libraries/STM32F4xx_StdPeriph_Driver/src/stm32f4xx_rng.c ****   FlagStatus bitstatus = RESET;
 319              		.loc 1 295 1 is_stmt 0 view .LVU44
 320 0004 10B5     		push	{r4, lr}	@
 321              		.cfi_def_cfa_offset 8
 322              		.cfi_offset 4, -8
 323              		.cfi_offset 14, -4
 324              	@ ../Libraries/STM32F4xx_StdPeriph_Driver/src/stm32f4xx_rng.c:295: {
 295:../Libraries/STM32F4xx_StdPeriph_Driver/src/stm32f4xx_rng.c ****   FlagStatus bitstatus = RESET;
 325              		.loc 1 295 1 view .LVU45
 326 0006 0446     		mov	r4, r0	@ RNG_FLAG, tmp133
 327              	@ ../Libraries/STM32F4xx_StdPeriph_Driver/src/stm32f4xx_rng.c:298:   assert_param(IS_RNG_GET_FLAG(R
 328              		.loc 1 298 3 view .LVU46
 329 0008 83BF     		ittte	hi
 330 000a 0438     		subhi	r0, #4	@ iftmp.0_6,
 331              	.LVL9:
 332              		.loc 1 298 3 view .LVU47
 333 000c B0FA80F0 		clzhi	r0, r0	@ iftmp.0_6, iftmp.0_6
 334 0010 4009     		lsrhi	r0, r0, #5	@ iftmp.0_6, iftmp.0_6,
 335 0012 0120     		movls	r0, #1	@ iftmp.0_6,
 336 0014 FFF7FEFF 		bl	assert_param		@
 337              	.LVL10:
 299:../Libraries/STM32F4xx_StdPeriph_Driver/src/stm32f4xx_rng.c **** 
 300:../Libraries/STM32F4xx_StdPeriph_Driver/src/stm32f4xx_rng.c ****   /* Check the status of the specified RNG flag */
 301:../Libraries/STM32F4xx_StdPeriph_Driver/src/stm32f4xx_rng.c ****   if ((RNG->SR & RNG_FLAG) != (uint8_t)RESET)
 338              		.loc 1 301 3 is_stmt 1 view .LVU48
 339              	@ ../Libraries/STM32F4xx_StdPeriph_Driver/src/stm32f4xx_rng.c:301:   if ((RNG->SR & RNG_FLAG) != (u
 340              		.loc 1 301 11 is_stmt 0 view .LVU49
 341 0018 034B     		ldr	r3, .L23	@ tmp128,
 342 001a 5B68     		ldr	r3, [r3, #4]	@ _2, MEM[(struct RNG_TypeDef *)1342572544B].SR
 343              	.LVL11:
 302:../Libraries/STM32F4xx_StdPeriph_Driver/src/stm32f4xx_rng.c ****   {
 303:../Libraries/STM32F4xx_StdPeriph_Driver/src/stm32f4xx_rng.c ****     /* RNG_FLAG is set */
 304:../Libraries/STM32F4xx_StdPeriph_Driver/src/stm32f4xx_rng.c ****     bitstatus = SET;
 305:../Libraries/STM32F4xx_StdPeriph_Driver/src/stm32f4xx_rng.c ****   }
 306:../Libraries/STM32F4xx_StdPeriph_Driver/src/stm32f4xx_rng.c ****   else
 307:../Libraries/STM32F4xx_StdPeriph_Driver/src/stm32f4xx_rng.c ****   {
 308:../Libraries/STM32F4xx_StdPeriph_Driver/src/stm32f4xx_rng.c ****     /* RNG_FLAG is reset */
 309:../Libraries/STM32F4xx_StdPeriph_Driver/src/stm32f4xx_rng.c ****     bitstatus = RESET;
 310:../Libraries/STM32F4xx_StdPeriph_Driver/src/stm32f4xx_rng.c ****   }
 311:../Libraries/STM32F4xx_StdPeriph_Driver/src/stm32f4xx_rng.c ****   /* Return the RNG_FLAG status */
 312:../Libraries/STM32F4xx_StdPeriph_Driver/src/stm32f4xx_rng.c ****   return  bitstatus;
 344              		.loc 1 312 3 is_stmt 1 view .LVU50
 345              	@ ../Libraries/STM32F4xx_StdPeriph_Driver/src/stm32f4xx_rng.c:301:   if ((RNG->SR & RNG_FLAG) != (u
 301:../Libraries/STM32F4xx_StdPeriph_Driver/src/stm32f4xx_rng.c ****   {
 346              		.loc 1 301 6 is_stmt 0 view .LVU51
 347 001c 1C42     		tst	r4, r3	@ RNG_FLAG, _2
 348              	@ ../Libraries/STM32F4xx_StdPeriph_Driver/src/stm32f4xx_rng.c:313: }
 313:../Libraries/STM32F4xx_StdPeriph_Driver/src/stm32f4xx_rng.c **** }
 349              		.loc 1 313 1 view .LVU52
 350 001e 14BF     		ite	ne
 351 0020 0120     		movne	r0, #1	@,
 352 0022 0020     		moveq	r0, #0	@,
 353 0024 10BD     		pop	{r4, pc}	@
 354              	.LVL12:
 355              	.L24:
 356              		.loc 1 313 1 view .LVU53
ARM GAS  C:\Users\admin\AppData\Local\Temp\ccObVLJP.s 			page 13


 357 0026 00BF     		.align	2
 358              	.L23:
 359 0028 00080650 		.word	1342572544
 360              		.cfi_endproc
 361              	.LFE114:
 362              		.size	RNG_GetFlagStatus, .-RNG_GetFlagStatus
 363              		.section	.text.RNG_ClearFlag,"ax",%progbits
 364              		.align	1
 365              		.p2align 2,,3
 366              		.global	RNG_ClearFlag
 367              		.syntax unified
 368              		.thumb
 369              		.thumb_func
 370              		.type	RNG_ClearFlag, %function
 371              	RNG_ClearFlag:
 372              	.LVL13:
 373              	.LFB115:
 314:../Libraries/STM32F4xx_StdPeriph_Driver/src/stm32f4xx_rng.c **** 
 315:../Libraries/STM32F4xx_StdPeriph_Driver/src/stm32f4xx_rng.c **** 
 316:../Libraries/STM32F4xx_StdPeriph_Driver/src/stm32f4xx_rng.c **** /**
 317:../Libraries/STM32F4xx_StdPeriph_Driver/src/stm32f4xx_rng.c ****   * @brief  Clears the RNG flags.
 318:../Libraries/STM32F4xx_StdPeriph_Driver/src/stm32f4xx_rng.c ****   * @param  RNG_FLAG: specifies the flag to clear. 
 319:../Libraries/STM32F4xx_StdPeriph_Driver/src/stm32f4xx_rng.c ****   *          This parameter can be any combination of the following values:
 320:../Libraries/STM32F4xx_StdPeriph_Driver/src/stm32f4xx_rng.c ****   *            @arg RNG_FLAG_CECS: Clock Error Current flag.
 321:../Libraries/STM32F4xx_StdPeriph_Driver/src/stm32f4xx_rng.c ****   *            @arg RNG_FLAG_SECS: Seed Error Current flag.
 322:../Libraries/STM32F4xx_StdPeriph_Driver/src/stm32f4xx_rng.c ****   * @note   RNG_FLAG_DRDY can not be cleared by RNG_ClearFlag() function. 
 323:../Libraries/STM32F4xx_StdPeriph_Driver/src/stm32f4xx_rng.c ****   *         This flag is cleared only by reading the Random number data (using 
 324:../Libraries/STM32F4xx_StdPeriph_Driver/src/stm32f4xx_rng.c ****   *         RNG_GetRandomNumber() function).                           
 325:../Libraries/STM32F4xx_StdPeriph_Driver/src/stm32f4xx_rng.c ****   * @retval None
 326:../Libraries/STM32F4xx_StdPeriph_Driver/src/stm32f4xx_rng.c ****   */
 327:../Libraries/STM32F4xx_StdPeriph_Driver/src/stm32f4xx_rng.c **** void RNG_ClearFlag(uint8_t RNG_FLAG)
 328:../Libraries/STM32F4xx_StdPeriph_Driver/src/stm32f4xx_rng.c **** {
 374              		.loc 1 328 1 is_stmt 1 view -0
 375              		.cfi_startproc
 376              		@ args = 0, pretend = 0, frame = 0
 377              		@ frame_needed = 0, uses_anonymous_args = 0
 329:../Libraries/STM32F4xx_StdPeriph_Driver/src/stm32f4xx_rng.c ****   /* Check the parameters */
 330:../Libraries/STM32F4xx_StdPeriph_Driver/src/stm32f4xx_rng.c ****   assert_param(IS_RNG_CLEAR_FLAG(RNG_FLAG));
 378              		.loc 1 330 3 view .LVU55
 379 0000 0228     		cmp	r0, #2	@ RNG_FLAG,
 380              	@ ../Libraries/STM32F4xx_StdPeriph_Driver/src/stm32f4xx_rng.c:328: {
 328:../Libraries/STM32F4xx_StdPeriph_Driver/src/stm32f4xx_rng.c ****   /* Check the parameters */
 381              		.loc 1 328 1 is_stmt 0 view .LVU56
 382 0002 10B5     		push	{r4, lr}	@
 383              		.cfi_def_cfa_offset 8
 384              		.cfi_offset 4, -8
 385              		.cfi_offset 14, -4
 386              	@ ../Libraries/STM32F4xx_StdPeriph_Driver/src/stm32f4xx_rng.c:328: {
 328:../Libraries/STM32F4xx_StdPeriph_Driver/src/stm32f4xx_rng.c ****   /* Check the parameters */
 387              		.loc 1 328 1 view .LVU57
 388 0004 0446     		mov	r4, r0	@ RNG_FLAG, tmp123
 389              	@ ../Libraries/STM32F4xx_StdPeriph_Driver/src/stm32f4xx_rng.c:330:   assert_param(IS_RNG_CLEAR_FLAG
 390              		.loc 1 330 3 view .LVU58
 391 0006 1DBF     		ittte	ne
 392 0008 0438     		subne	r0, #4	@ iftmp.1_4,
 393              	.LVL14:
 394              		.loc 1 330 3 view .LVU59
ARM GAS  C:\Users\admin\AppData\Local\Temp\ccObVLJP.s 			page 14


 395 000a B0FA80F0 		clzne	r0, r0	@ iftmp.1_4, iftmp.1_4
 396 000e 4009     		lsrne	r0, r0, #5	@ iftmp.1_4, iftmp.1_4,
 397 0010 0120     		moveq	r0, #1	@ iftmp.1_4,
 398 0012 FFF7FEFF 		bl	assert_param		@
 399              	.LVL15:
 331:../Libraries/STM32F4xx_StdPeriph_Driver/src/stm32f4xx_rng.c ****   /* Clear the selected RNG flags */
 332:../Libraries/STM32F4xx_StdPeriph_Driver/src/stm32f4xx_rng.c ****   RNG->SR = ~(uint32_t)(((uint32_t)RNG_FLAG) << 4);
 400              		.loc 1 332 3 is_stmt 1 view .LVU60
 401              	@ ../Libraries/STM32F4xx_StdPeriph_Driver/src/stm32f4xx_rng.c:332:   RNG->SR = ~(uint32_t)(((uint32
 402              		.loc 1 332 11 is_stmt 0 view .LVU61
 403 0016 024B     		ldr	r3, .L29	@ tmp122,
 404              	@ ../Libraries/STM32F4xx_StdPeriph_Driver/src/stm32f4xx_rng.c:332:   RNG->SR = ~(uint32_t)(((uint32
 405              		.loc 1 332 13 view .LVU62
 406 0018 6FEA0414 		mvn	r4, r4, lsl #4	@ _3, RNG_FLAG,
 407              	@ ../Libraries/STM32F4xx_StdPeriph_Driver/src/stm32f4xx_rng.c:332:   RNG->SR = ~(uint32_t)(((uint32
 408              		.loc 1 332 11 view .LVU63
 409 001c 5C60     		str	r4, [r3, #4]	@ _3, MEM[(struct RNG_TypeDef *)1342572544B].SR
 410              	@ ../Libraries/STM32F4xx_StdPeriph_Driver/src/stm32f4xx_rng.c:333: }
 333:../Libraries/STM32F4xx_StdPeriph_Driver/src/stm32f4xx_rng.c **** }
 411              		.loc 1 333 1 view .LVU64
 412 001e 10BD     		pop	{r4, pc}	@
 413              	.L30:
 414              		.align	2
 415              	.L29:
 416 0020 00080650 		.word	1342572544
 417              		.cfi_endproc
 418              	.LFE115:
 419              		.size	RNG_ClearFlag, .-RNG_ClearFlag
 420              		.section	.text.RNG_GetITStatus,"ax",%progbits
 421              		.align	1
 422              		.p2align 2,,3
 423              		.global	RNG_GetITStatus
 424              		.syntax unified
 425              		.thumb
 426              		.thumb_func
 427              		.type	RNG_GetITStatus, %function
 428              	RNG_GetITStatus:
 429              	.LVL16:
 430              	.LFB116:
 334:../Libraries/STM32F4xx_StdPeriph_Driver/src/stm32f4xx_rng.c **** 
 335:../Libraries/STM32F4xx_StdPeriph_Driver/src/stm32f4xx_rng.c **** /**
 336:../Libraries/STM32F4xx_StdPeriph_Driver/src/stm32f4xx_rng.c ****   * @brief  Checks whether the specified RNG interrupt has occurred or not.
 337:../Libraries/STM32F4xx_StdPeriph_Driver/src/stm32f4xx_rng.c ****   * @param  RNG_IT: specifies the RNG interrupt source to check.
 338:../Libraries/STM32F4xx_StdPeriph_Driver/src/stm32f4xx_rng.c ****   *          This parameter can be one of the following values:
 339:../Libraries/STM32F4xx_StdPeriph_Driver/src/stm32f4xx_rng.c ****   *            @arg RNG_IT_CEI: Clock Error Interrupt.
 340:../Libraries/STM32F4xx_StdPeriph_Driver/src/stm32f4xx_rng.c ****   *            @arg RNG_IT_SEI: Seed Error Interrupt.                   
 341:../Libraries/STM32F4xx_StdPeriph_Driver/src/stm32f4xx_rng.c ****   * @retval The new state of RNG_IT (SET or RESET).
 342:../Libraries/STM32F4xx_StdPeriph_Driver/src/stm32f4xx_rng.c ****   */
 343:../Libraries/STM32F4xx_StdPeriph_Driver/src/stm32f4xx_rng.c **** ITStatus RNG_GetITStatus(uint8_t RNG_IT)
 344:../Libraries/STM32F4xx_StdPeriph_Driver/src/stm32f4xx_rng.c **** {
 431              		.loc 1 344 1 is_stmt 1 view -0
 432              		.cfi_startproc
 433              		@ args = 0, pretend = 0, frame = 0
 434              		@ frame_needed = 0, uses_anonymous_args = 0
 345:../Libraries/STM32F4xx_StdPeriph_Driver/src/stm32f4xx_rng.c ****   ITStatus bitstatus = RESET;
 435              		.loc 1 345 3 view .LVU66
 346:../Libraries/STM32F4xx_StdPeriph_Driver/src/stm32f4xx_rng.c ****   /* Check the parameters */
ARM GAS  C:\Users\admin\AppData\Local\Temp\ccObVLJP.s 			page 15


 347:../Libraries/STM32F4xx_StdPeriph_Driver/src/stm32f4xx_rng.c ****   assert_param(IS_RNG_GET_IT(RNG_IT));
 436              		.loc 1 347 3 view .LVU67
 437 0000 2028     		cmp	r0, #32	@ RNG_IT,
 438              	@ ../Libraries/STM32F4xx_StdPeriph_Driver/src/stm32f4xx_rng.c:344: {
 344:../Libraries/STM32F4xx_StdPeriph_Driver/src/stm32f4xx_rng.c ****   ITStatus bitstatus = RESET;
 439              		.loc 1 344 1 is_stmt 0 view .LVU68
 440 0002 10B5     		push	{r4, lr}	@
 441              		.cfi_def_cfa_offset 8
 442              		.cfi_offset 4, -8
 443              		.cfi_offset 14, -4
 444              	@ ../Libraries/STM32F4xx_StdPeriph_Driver/src/stm32f4xx_rng.c:344: {
 344:../Libraries/STM32F4xx_StdPeriph_Driver/src/stm32f4xx_rng.c ****   ITStatus bitstatus = RESET;
 445              		.loc 1 344 1 view .LVU69
 446 0004 0446     		mov	r4, r0	@ RNG_IT, tmp128
 447              	@ ../Libraries/STM32F4xx_StdPeriph_Driver/src/stm32f4xx_rng.c:347:   assert_param(IS_RNG_GET_IT(RNG
 448              		.loc 1 347 3 view .LVU70
 449 0006 1DBF     		ittte	ne
 450 0008 4038     		subne	r0, #64	@ iftmp.2_5,
 451              	.LVL17:
 452              		.loc 1 347 3 view .LVU71
 453 000a B0FA80F0 		clzne	r0, r0	@ iftmp.2_5, iftmp.2_5
 454 000e 4009     		lsrne	r0, r0, #5	@ iftmp.2_5, iftmp.2_5,
 455 0010 0120     		moveq	r0, #1	@ iftmp.2_5,
 456 0012 FFF7FEFF 		bl	assert_param		@
 457              	.LVL18:
 348:../Libraries/STM32F4xx_StdPeriph_Driver/src/stm32f4xx_rng.c **** 
 349:../Libraries/STM32F4xx_StdPeriph_Driver/src/stm32f4xx_rng.c ****   /* Check the status of the specified RNG interrupt */
 350:../Libraries/STM32F4xx_StdPeriph_Driver/src/stm32f4xx_rng.c ****   if ((RNG->SR & RNG_IT) != (uint8_t)RESET)
 458              		.loc 1 350 3 is_stmt 1 view .LVU72
 459              	@ ../Libraries/STM32F4xx_StdPeriph_Driver/src/stm32f4xx_rng.c:350:   if ((RNG->SR & RNG_IT) != (uin
 460              		.loc 1 350 11 is_stmt 0 view .LVU73
 461 0016 034B     		ldr	r3, .L35	@ tmp123,
 462 0018 5B68     		ldr	r3, [r3, #4]	@ _1, MEM[(struct RNG_TypeDef *)1342572544B].SR
 463              	.LVL19:
 351:../Libraries/STM32F4xx_StdPeriph_Driver/src/stm32f4xx_rng.c ****   {
 352:../Libraries/STM32F4xx_StdPeriph_Driver/src/stm32f4xx_rng.c ****     /* RNG_IT is set */
 353:../Libraries/STM32F4xx_StdPeriph_Driver/src/stm32f4xx_rng.c ****     bitstatus = SET;
 354:../Libraries/STM32F4xx_StdPeriph_Driver/src/stm32f4xx_rng.c ****   }
 355:../Libraries/STM32F4xx_StdPeriph_Driver/src/stm32f4xx_rng.c ****   else
 356:../Libraries/STM32F4xx_StdPeriph_Driver/src/stm32f4xx_rng.c ****   {
 357:../Libraries/STM32F4xx_StdPeriph_Driver/src/stm32f4xx_rng.c ****     /* RNG_IT is reset */
 358:../Libraries/STM32F4xx_StdPeriph_Driver/src/stm32f4xx_rng.c ****     bitstatus = RESET;
 359:../Libraries/STM32F4xx_StdPeriph_Driver/src/stm32f4xx_rng.c ****   }
 360:../Libraries/STM32F4xx_StdPeriph_Driver/src/stm32f4xx_rng.c ****   /* Return the RNG_IT status */
 361:../Libraries/STM32F4xx_StdPeriph_Driver/src/stm32f4xx_rng.c ****   return bitstatus;
 464              		.loc 1 361 3 is_stmt 1 view .LVU74
 465              	@ ../Libraries/STM32F4xx_StdPeriph_Driver/src/stm32f4xx_rng.c:350:   if ((RNG->SR & RNG_IT) != (uin
 350:../Libraries/STM32F4xx_StdPeriph_Driver/src/stm32f4xx_rng.c ****   {
 466              		.loc 1 350 6 is_stmt 0 view .LVU75
 467 001a 1C42     		tst	r4, r3	@ RNG_IT, _1
 468              	@ ../Libraries/STM32F4xx_StdPeriph_Driver/src/stm32f4xx_rng.c:362: }
 362:../Libraries/STM32F4xx_StdPeriph_Driver/src/stm32f4xx_rng.c **** }
 469              		.loc 1 362 1 view .LVU76
 470 001c 14BF     		ite	ne
 471 001e 0120     		movne	r0, #1	@,
 472 0020 0020     		moveq	r0, #0	@,
 473 0022 10BD     		pop	{r4, pc}	@
ARM GAS  C:\Users\admin\AppData\Local\Temp\ccObVLJP.s 			page 16


 474              	.LVL20:
 475              	.L36:
 476              		.loc 1 362 1 view .LVU77
 477              		.align	2
 478              	.L35:
 479 0024 00080650 		.word	1342572544
 480              		.cfi_endproc
 481              	.LFE116:
 482              		.size	RNG_GetITStatus, .-RNG_GetITStatus
 483              		.section	.text.RNG_ClearITPendingBit,"ax",%progbits
 484              		.align	1
 485              		.p2align 2,,3
 486              		.global	RNG_ClearITPendingBit
 487              		.syntax unified
 488              		.thumb
 489              		.thumb_func
 490              		.type	RNG_ClearITPendingBit, %function
 491              	RNG_ClearITPendingBit:
 492              	.LVL21:
 493              	.LFB117:
 363:../Libraries/STM32F4xx_StdPeriph_Driver/src/stm32f4xx_rng.c **** 
 364:../Libraries/STM32F4xx_StdPeriph_Driver/src/stm32f4xx_rng.c **** 
 365:../Libraries/STM32F4xx_StdPeriph_Driver/src/stm32f4xx_rng.c **** /**
 366:../Libraries/STM32F4xx_StdPeriph_Driver/src/stm32f4xx_rng.c ****   * @brief  Clears the RNG interrupt pending bit(s).
 367:../Libraries/STM32F4xx_StdPeriph_Driver/src/stm32f4xx_rng.c ****   * @param  RNG_IT: specifies the RNG interrupt pending bit(s) to clear.
 368:../Libraries/STM32F4xx_StdPeriph_Driver/src/stm32f4xx_rng.c ****   *          This parameter can be any combination of the following values:
 369:../Libraries/STM32F4xx_StdPeriph_Driver/src/stm32f4xx_rng.c ****   *            @arg RNG_IT_CEI: Clock Error Interrupt.
 370:../Libraries/STM32F4xx_StdPeriph_Driver/src/stm32f4xx_rng.c ****   *            @arg RNG_IT_SEI: Seed Error Interrupt.
 371:../Libraries/STM32F4xx_StdPeriph_Driver/src/stm32f4xx_rng.c ****   * @retval None
 372:../Libraries/STM32F4xx_StdPeriph_Driver/src/stm32f4xx_rng.c ****   */
 373:../Libraries/STM32F4xx_StdPeriph_Driver/src/stm32f4xx_rng.c **** void RNG_ClearITPendingBit(uint8_t RNG_IT)
 374:../Libraries/STM32F4xx_StdPeriph_Driver/src/stm32f4xx_rng.c **** {
 494              		.loc 1 374 1 is_stmt 1 view -0
 495              		.cfi_startproc
 496              		@ args = 0, pretend = 0, frame = 0
 497              		@ frame_needed = 0, uses_anonymous_args = 0
 375:../Libraries/STM32F4xx_StdPeriph_Driver/src/stm32f4xx_rng.c ****   /* Check the parameters */
 376:../Libraries/STM32F4xx_StdPeriph_Driver/src/stm32f4xx_rng.c ****   assert_param(IS_RNG_IT(RNG_IT));
 498              		.loc 1 376 3 view .LVU79
 499 0000 10F09F0F 		tst	r0, #159	@ RNG_IT,
 500              	@ ../Libraries/STM32F4xx_StdPeriph_Driver/src/stm32f4xx_rng.c:374: {
 374:../Libraries/STM32F4xx_StdPeriph_Driver/src/stm32f4xx_rng.c ****   /* Check the parameters */
 501              		.loc 1 374 1 is_stmt 0 view .LVU80
 502 0004 10B5     		push	{r4, lr}	@
 503              		.cfi_def_cfa_offset 8
 504              		.cfi_offset 4, -8
 505              		.cfi_offset 14, -4
 506              	@ ../Libraries/STM32F4xx_StdPeriph_Driver/src/stm32f4xx_rng.c:374: {
 374:../Libraries/STM32F4xx_StdPeriph_Driver/src/stm32f4xx_rng.c ****   /* Check the parameters */
 507              		.loc 1 374 1 view .LVU81
 508 0006 0446     		mov	r4, r0	@ RNG_IT, tmp126
 509              	@ ../Libraries/STM32F4xx_StdPeriph_Driver/src/stm32f4xx_rng.c:376:   assert_param(IS_RNG_IT(RNG_IT)
 510              		.loc 1 376 3 view .LVU82
 511 0008 09D1     		bne	.L39		@,
 512              	@ ../Libraries/STM32F4xx_StdPeriph_Driver/src/stm32f4xx_rng.c:376:   assert_param(IS_RNG_IT(RNG_IT)
 513              		.loc 1 376 3 discriminator 1 view .LVU83
 514 000a 0038     		subs	r0, r0, #0	@ iftmp.3_3, RNG_IT,
ARM GAS  C:\Users\admin\AppData\Local\Temp\ccObVLJP.s 			page 17


 515              	.LVL22:
 516              		.loc 1 376 3 discriminator 1 view .LVU84
 517 000c 18BF     		it	ne
 518 000e 0120     		movne	r0, #1	@ iftmp.3_3,
 519              	.L38:
 520              	@ ../Libraries/STM32F4xx_StdPeriph_Driver/src/stm32f4xx_rng.c:376:   assert_param(IS_RNG_IT(RNG_IT)
 521              		.loc 1 376 3 discriminator 6 view .LVU85
 522 0010 FFF7FEFF 		bl	assert_param		@
 523              	.LVL23:
 377:../Libraries/STM32F4xx_StdPeriph_Driver/src/stm32f4xx_rng.c **** 
 378:../Libraries/STM32F4xx_StdPeriph_Driver/src/stm32f4xx_rng.c ****   /* Clear the selected RNG interrupt pending bit */
 379:../Libraries/STM32F4xx_StdPeriph_Driver/src/stm32f4xx_rng.c ****   RNG->SR = (uint8_t)~RNG_IT;
 524              		.loc 1 379 3 is_stmt 1 discriminator 6 view .LVU86
 525              	@ ../Libraries/STM32F4xx_StdPeriph_Driver/src/stm32f4xx_rng.c:379:   RNG->SR = (uint8_t)~RNG_IT;
 526              		.loc 1 379 13 is_stmt 0 discriminator 6 view .LVU87
 527 0014 E443     		mvns	r4, r4	@ tmp124, RNG_IT
 528              	@ ../Libraries/STM32F4xx_StdPeriph_Driver/src/stm32f4xx_rng.c:379:   RNG->SR = (uint8_t)~RNG_IT;
 529              		.loc 1 379 11 discriminator 6 view .LVU88
 530 0016 034B     		ldr	r3, .L41	@ tmp125,
 531              	@ ../Libraries/STM32F4xx_StdPeriph_Driver/src/stm32f4xx_rng.c:379:   RNG->SR = (uint8_t)~RNG_IT;
 532              		.loc 1 379 13 discriminator 6 view .LVU89
 533 0018 E4B2     		uxtb	r4, r4	@ _2, tmp124
 534              	@ ../Libraries/STM32F4xx_StdPeriph_Driver/src/stm32f4xx_rng.c:379:   RNG->SR = (uint8_t)~RNG_IT;
 535              		.loc 1 379 11 discriminator 6 view .LVU90
 536 001a 5C60     		str	r4, [r3, #4]	@ _2, MEM[(struct RNG_TypeDef *)1342572544B].SR
 537              	@ ../Libraries/STM32F4xx_StdPeriph_Driver/src/stm32f4xx_rng.c:380: }
 380:../Libraries/STM32F4xx_StdPeriph_Driver/src/stm32f4xx_rng.c **** }
 538              		.loc 1 380 1 discriminator 6 view .LVU91
 539 001c 10BD     		pop	{r4, pc}	@
 540              	.LVL24:
 541              	.L39:
 542              	@ ../Libraries/STM32F4xx_StdPeriph_Driver/src/stm32f4xx_rng.c:376:   assert_param(IS_RNG_IT(RNG_IT)
 376:../Libraries/STM32F4xx_StdPeriph_Driver/src/stm32f4xx_rng.c **** 
 543              		.loc 1 376 3 view .LVU92
 544 001e 0020     		movs	r0, #0	@ iftmp.3_3,
 545              	.LVL25:
 376:../Libraries/STM32F4xx_StdPeriph_Driver/src/stm32f4xx_rng.c **** 
 546              		.loc 1 376 3 view .LVU93
 547 0020 F6E7     		b	.L38		@
 548              	.L42:
 549 0022 00BF     		.align	2
 550              	.L41:
 551 0024 00080650 		.word	1342572544
 552              		.cfi_endproc
 553              	.LFE117:
 554              		.size	RNG_ClearITPendingBit, .-RNG_ClearITPendingBit
 555              		.text
 556              	.Letext0:
 557              		.file 2 "c:\\program files (x86)\\gnu arm embedded toolchain\\10 2021.10\\arm-none-eabi\\include\\
 558              		.file 3 "c:\\program files (x86)\\gnu arm embedded toolchain\\10 2021.10\\arm-none-eabi\\include\\
 559              		.file 4 "../Libraries/CMSIS/ST/STM32F4xx/Include/stm32f4xx.h"
 560              		.file 5 "../Libraries/STM32F4xx_StdPeriph_Driver/inc/stm32f4xx_rcc.h"