ARM GAS  C:\Users\admin\AppData\Local\Temp\ccqywAa9.s 			page 1


   1              		.cpu cortex-m4
   2              		.arch armv7e-m
   3              		.fpu fpv4-sp-d16
   4              		.eabi_attribute 27, 1	@ Tag_ABI_HardFP_use
   5              		.eabi_attribute 28, 1	@ Tag_ABI_VFP_args
   6              		.eabi_attribute 23, 1	@ Tag_ABI_FP_number_model
   7              		.eabi_attribute 24, 1	@ Tag_ABI_align8_needed
   8              		.eabi_attribute 25, 1	@ Tag_ABI_align8_preserved
   9              		.eabi_attribute 26, 1	@ Tag_ABI_enum_size
  10              		.eabi_attribute 30, 2	@ Tag_ABI_optimization_goals
  11              		.eabi_attribute 34, 1	@ Tag_CPU_unaligned_access
  12              		.eabi_attribute 18, 4	@ Tag_ABI_PCS_wchar_t
  13              		.file	"stm32f4xx_can.c"
  14              	@ GNU C89 (GNU Arm Embedded Toolchain 10.3-2021.10) version 10.3.1 20210824 (release) (arm-none-eab
  15              	@	compiled by GNU C version 7.3-win32 20180312, GMP version 6.1.0, MPFR version 3.1.4, MPC version 
  16              	
  17              	@ GGC heuristics: --param ggc-min-expand=100 --param ggc-min-heapsize=131072
  18              	@ options passed:  -I . -I . -I ../Utilities/STM32F4-Discovery/
  19              	@ -I ../Libraries/STM32_USB_Device_Library/Class/audio/inc/
  20              	@ -I ../Libraries/STM32_USB_Device_Library/Core/inc/
  21              	@ -I ../Libraries/STM32_USB_OTG_Driver/inc/
  22              	@ -I ../Utilities/STM32F4-Discovery/
  23              	@ -I ../Libraries/STM32F4xx_StdPeriph_Driver/inc/
  24              	@ -I ../Utilities/STM32F4-Discovery/
  25              	@ -I ../Libraries/CMSIS/ST/STM32F4xx/Include/
  26              	@ -I ../Libraries/CMSIS/Include/ -imultilib thumb/v7e-m+fp/hard
  27              	@ -iprefix c:\program files (x86)\gnu arm embedded toolchain\10 2021.10\bin\../lib/gcc/arm-none-eab
  28              	@ -isysroot c:\program files (x86)\gnu arm embedded toolchain\10 2021.10\bin\../arm-none-eabi
  29              	@ -MD out/stm32f4xx_can.d -MF out/stm32f4xx_can.d -MP
  30              	@ -MQ out/stm32f4xx_can.o -D__USES_INITFINI__ -D STM32F4XX -D __VFP_FP__
  31              	@ -D USE_USB_OTG_FS
  32              	@ ../Libraries/STM32F4xx_StdPeriph_Driver/src/stm32f4xx_can.c
  33              	@ -mcpu=cortex-m4 -mthumb -mfloat-abi=hard -mfpu=fpv4-sp-d16
  34              	@ -mlibarch=armv7e-m+fp -march=armv7e-m+fp
  35              	@ -auxbase-strip out/stm32f4xx_can.o -g -ggdb3 -O3 -Wall
  36              	@ -Wstrict-prototypes -Wextra -std=gnu90 -ffast-math -ffunction-sections
  37              	@ -fdata-sections -fverbose-asm
  38              	@ options enabled:  -faggressive-loop-optimizations -falign-functions
  39              	@ -falign-jumps -falign-labels -falign-loops -fallocation-dce
  40              	@ -fassociative-math -fauto-inc-dec -fbranch-count-reg -fcaller-saves
  41              	@ -fcombine-stack-adjustments -fcompare-elim -fcprop-registers
  42              	@ -fcrossjumping -fcse-follow-jumps -fcx-limited-range -fdata-sections
  43              	@ -fdefer-pop -fdelete-null-pointer-checks -fdevirtualize
  44              	@ -fdevirtualize-speculatively -fdwarf2-cfi-asm -fearly-inlining
  45              	@ -feliminate-unused-debug-symbols -feliminate-unused-debug-types
  46              	@ -fexpensive-optimizations -ffinite-math-only -fforward-propagate
  47              	@ -ffp-int-builtin-inexact -ffunction-cse -ffunction-sections -fgcse
  48              	@ -fgcse-after-reload -fgcse-lm -fgnu-unique -fguess-branch-probability
  49              	@ -fhoist-adjacent-loads -fident -fif-conversion -fif-conversion2
  50              	@ -findirect-inlining -finline -finline-atomics -finline-functions
  51              	@ -finline-functions-called-once -finline-small-functions -fipa-bit-cp
  52              	@ -fipa-cp -fipa-cp-clone -fipa-icf -fipa-icf-functions -fipa-icf-variables
  53              	@ -fipa-profile -fipa-pure-const -fipa-ra -fipa-reference
  54              	@ -fipa-reference-addressable -fipa-sra -fipa-stack-alignment -fipa-vrp
  55              	@ -fira-hoist-pressure -fira-share-save-slots -fira-share-spill-slots
  56              	@ -fisolate-erroneous-paths-dereference -fivopts -fkeep-static-consts
  57              	@ -fleading-underscore -flifetime-dse -floop-interchange
ARM GAS  C:\Users\admin\AppData\Local\Temp\ccqywAa9.s 			page 2


  58              	@ -floop-unroll-and-jam -flra-remat -fmerge-constants -fmerge-debug-strings
  59              	@ -fmove-loop-invariants -fomit-frame-pointer -foptimize-sibling-calls
  60              	@ -foptimize-strlen -fpartial-inlining -fpeel-loops -fpeephole -fpeephole2
  61              	@ -fplt -fpredictive-commoning -fprefetch-loop-arrays -freciprocal-math
  62              	@ -freg-struct-return -freorder-blocks -freorder-functions
  63              	@ -frerun-cse-after-loop -fsched-critical-path-heuristic
  64              	@ -fsched-dep-count-heuristic -fsched-group-heuristic -fsched-interblock
  65              	@ -fsched-last-insn-heuristic -fsched-pressure -fsched-rank-heuristic
  66              	@ -fsched-spec -fsched-spec-insn-heuristic -fsched-stalled-insns-dep
  67              	@ -fschedule-insns -fschedule-insns2 -fsection-anchors
  68              	@ -fsemantic-interposition -fshow-column -fshrink-wrap
  69              	@ -fshrink-wrap-separate -fsplit-ivs-in-unroller -fsplit-loops
  70              	@ -fsplit-paths -fsplit-wide-types -fssa-backprop -fssa-phiopt -fstdarg-opt
  71              	@ -fstore-merging -fstrict-aliasing -fstrict-volatile-bitfields
  72              	@ -fsync-libcalls -fthread-jumps -ftoplevel-reorder -ftree-bit-ccp
  73              	@ -ftree-builtin-call-dce -ftree-ccp -ftree-ch -ftree-coalesce-vars
  74              	@ -ftree-copy-prop -ftree-cselim -ftree-dce -ftree-dominator-opts
  75              	@ -ftree-dse -ftree-forwprop -ftree-fre -ftree-loop-distribute-patterns
  76              	@ -ftree-loop-distribution -ftree-loop-if-convert -ftree-loop-im
  77              	@ -ftree-loop-ivcanon -ftree-loop-optimize -ftree-loop-vectorize
  78              	@ -ftree-parallelize-loops= -ftree-partial-pre -ftree-phiprop -ftree-pre
  79              	@ -ftree-pta -ftree-reassoc -ftree-scev-cprop -ftree-sink
  80              	@ -ftree-slp-vectorize -ftree-slsr -ftree-sra -ftree-switch-conversion
  81              	@ -ftree-tail-merge -ftree-ter -ftree-vrp -funit-at-a-time
  82              	@ -funsafe-math-optimizations -funswitch-loops -fvar-tracking
  83              	@ -fvar-tracking-assignments -fverbose-asm -fversion-loops-for-strides
  84              	@ -fzero-initialized-in-bss -masm-syntax-unified -mbe32 -mlittle-endian
  85              	@ -mpic-data-is-text-relative -msched-prolog -mthumb -munaligned-access
  86              	@ -mvectorize-with-neon-quad
  87              	
  88              		.text
  89              	.Ltext0:
  90              		.cfi_sections	.debug_frame
  91              		.section	.text.CAN_DeInit,"ax",%progbits
  92              		.align	1
  93              		.p2align 2,,3
  94              		.global	CAN_DeInit
  95              		.syntax unified
  96              		.thumb
  97              		.thumb_func
  98              		.type	CAN_DeInit, %function
  99              	CAN_DeInit:
 100              	.LVL0:
 101              	.LFB110:
 102              		.file 1 "../Libraries/STM32F4xx_StdPeriph_Driver/src/stm32f4xx_can.c"
   1:../Libraries/STM32F4xx_StdPeriph_Driver/src/stm32f4xx_can.c **** /**
   2:../Libraries/STM32F4xx_StdPeriph_Driver/src/stm32f4xx_can.c ****   ******************************************************************************
   3:../Libraries/STM32F4xx_StdPeriph_Driver/src/stm32f4xx_can.c ****   * @file    stm32f4xx_can.c
   4:../Libraries/STM32F4xx_StdPeriph_Driver/src/stm32f4xx_can.c ****   * @author  MCD Application Team
   5:../Libraries/STM32F4xx_StdPeriph_Driver/src/stm32f4xx_can.c ****   * @version V1.0.0
   6:../Libraries/STM32F4xx_StdPeriph_Driver/src/stm32f4xx_can.c ****   * @date    30-September-2011
   7:../Libraries/STM32F4xx_StdPeriph_Driver/src/stm32f4xx_can.c ****   * @brief   This file provides firmware functions to manage the following 
   8:../Libraries/STM32F4xx_StdPeriph_Driver/src/stm32f4xx_can.c ****   *          functionalities of the Controller area network (CAN) peripheral:           
   9:../Libraries/STM32F4xx_StdPeriph_Driver/src/stm32f4xx_can.c ****   *           - Initialization and Configuration 
  10:../Libraries/STM32F4xx_StdPeriph_Driver/src/stm32f4xx_can.c ****   *           - CAN Frames Transmission 
  11:../Libraries/STM32F4xx_StdPeriph_Driver/src/stm32f4xx_can.c ****   *           - CAN Frames Reception    
  12:../Libraries/STM32F4xx_StdPeriph_Driver/src/stm32f4xx_can.c ****   *           - Operation modes switch  
ARM GAS  C:\Users\admin\AppData\Local\Temp\ccqywAa9.s 			page 3


  13:../Libraries/STM32F4xx_StdPeriph_Driver/src/stm32f4xx_can.c ****   *           - Error management          
  14:../Libraries/STM32F4xx_StdPeriph_Driver/src/stm32f4xx_can.c ****   *           - Interrupts and flags        
  15:../Libraries/STM32F4xx_StdPeriph_Driver/src/stm32f4xx_can.c ****   *         
  16:../Libraries/STM32F4xx_StdPeriph_Driver/src/stm32f4xx_can.c ****   *  @verbatim
  17:../Libraries/STM32F4xx_StdPeriph_Driver/src/stm32f4xx_can.c ****   *                               
  18:../Libraries/STM32F4xx_StdPeriph_Driver/src/stm32f4xx_can.c ****   *          ===================================================================      
  19:../Libraries/STM32F4xx_StdPeriph_Driver/src/stm32f4xx_can.c ****   *                                   How to use this driver
  20:../Libraries/STM32F4xx_StdPeriph_Driver/src/stm32f4xx_can.c ****   *          ===================================================================
  21:../Libraries/STM32F4xx_StdPeriph_Driver/src/stm32f4xx_can.c ****                 
  22:../Libraries/STM32F4xx_StdPeriph_Driver/src/stm32f4xx_can.c ****   *          1.  Enable the CAN controller interface clock using 
  23:../Libraries/STM32F4xx_StdPeriph_Driver/src/stm32f4xx_can.c ****   *                  RCC_APB1PeriphClockCmd(RCC_APB1Periph_CAN1, ENABLE); for CAN1 
  24:../Libraries/STM32F4xx_StdPeriph_Driver/src/stm32f4xx_can.c ****   *              and RCC_APB1PeriphClockCmd(RCC_APB1Periph_CAN2, ENABLE); for CAN2
  25:../Libraries/STM32F4xx_StdPeriph_Driver/src/stm32f4xx_can.c ****   *  @note   In case you are using CAN2 only, you have to enable the CAN1 clock.
  26:../Libraries/STM32F4xx_StdPeriph_Driver/src/stm32f4xx_can.c ****   *     
  27:../Libraries/STM32F4xx_StdPeriph_Driver/src/stm32f4xx_can.c ****   *          2. CAN pins configuration
  28:../Libraries/STM32F4xx_StdPeriph_Driver/src/stm32f4xx_can.c ****   *               - Enable the clock for the CAN GPIOs using the following function:
  29:../Libraries/STM32F4xx_StdPeriph_Driver/src/stm32f4xx_can.c ****   *                   RCC_AHB1PeriphClockCmd(RCC_AHB1Periph_GPIOx, ENABLE);   
  30:../Libraries/STM32F4xx_StdPeriph_Driver/src/stm32f4xx_can.c ****   *               - Connect the involved CAN pins to AF9 using the following function 
  31:../Libraries/STM32F4xx_StdPeriph_Driver/src/stm32f4xx_can.c ****   *                   GPIO_PinAFConfig(GPIOx, GPIO_PinSourcex, GPIO_AF_CANx); 
  32:../Libraries/STM32F4xx_StdPeriph_Driver/src/stm32f4xx_can.c ****   *                - Configure these CAN pins in alternate function mode by calling
  33:../Libraries/STM32F4xx_StdPeriph_Driver/src/stm32f4xx_can.c ****   *                  the function  GPIO_Init();
  34:../Libraries/STM32F4xx_StdPeriph_Driver/src/stm32f4xx_can.c ****   *    
  35:../Libraries/STM32F4xx_StdPeriph_Driver/src/stm32f4xx_can.c ****   *          3.  Initialise and configure the CAN using CAN_Init() and 
  36:../Libraries/STM32F4xx_StdPeriph_Driver/src/stm32f4xx_can.c ****   *               CAN_FilterInit() functions.   
  37:../Libraries/STM32F4xx_StdPeriph_Driver/src/stm32f4xx_can.c ****   *               
  38:../Libraries/STM32F4xx_StdPeriph_Driver/src/stm32f4xx_can.c ****   *          4.  Transmit the desired CAN frame using CAN_Transmit() function.
  39:../Libraries/STM32F4xx_StdPeriph_Driver/src/stm32f4xx_can.c ****   *         
  40:../Libraries/STM32F4xx_StdPeriph_Driver/src/stm32f4xx_can.c ****   *          5.  Check the transmission of a CAN frame using CAN_TransmitStatus()
  41:../Libraries/STM32F4xx_StdPeriph_Driver/src/stm32f4xx_can.c ****   *              function.
  42:../Libraries/STM32F4xx_StdPeriph_Driver/src/stm32f4xx_can.c ****   *               
  43:../Libraries/STM32F4xx_StdPeriph_Driver/src/stm32f4xx_can.c ****   *          6.  Cancel the transmission of a CAN frame using CAN_CancelTransmit()
  44:../Libraries/STM32F4xx_StdPeriph_Driver/src/stm32f4xx_can.c ****   *              function.  
  45:../Libraries/STM32F4xx_StdPeriph_Driver/src/stm32f4xx_can.c ****   *            
  46:../Libraries/STM32F4xx_StdPeriph_Driver/src/stm32f4xx_can.c ****   *          7.  Receive a CAN frame using CAN_Recieve() function.
  47:../Libraries/STM32F4xx_StdPeriph_Driver/src/stm32f4xx_can.c ****   *         
  48:../Libraries/STM32F4xx_StdPeriph_Driver/src/stm32f4xx_can.c ****   *          8.  Release the receive FIFOs using CAN_FIFORelease() function.
  49:../Libraries/STM32F4xx_StdPeriph_Driver/src/stm32f4xx_can.c ****   *               
  50:../Libraries/STM32F4xx_StdPeriph_Driver/src/stm32f4xx_can.c ****   *          9. Return the number of pending received frames using 
  51:../Libraries/STM32F4xx_StdPeriph_Driver/src/stm32f4xx_can.c ****   *              CAN_MessagePending() function.            
  52:../Libraries/STM32F4xx_StdPeriph_Driver/src/stm32f4xx_can.c ****   *                   
  53:../Libraries/STM32F4xx_StdPeriph_Driver/src/stm32f4xx_can.c ****   *          10. To control CAN events you can use one of the following two methods:
  54:../Libraries/STM32F4xx_StdPeriph_Driver/src/stm32f4xx_can.c ****   *               - Check on CAN flags using the CAN_GetFlagStatus() function.  
  55:../Libraries/STM32F4xx_StdPeriph_Driver/src/stm32f4xx_can.c ****   *               - Use CAN interrupts through the function CAN_ITConfig() at 
  56:../Libraries/STM32F4xx_StdPeriph_Driver/src/stm32f4xx_can.c ****   *                 initialization phase and CAN_GetITStatus() function into 
  57:../Libraries/STM32F4xx_StdPeriph_Driver/src/stm32f4xx_can.c ****   *                 interrupt routines to check if the event has occurred or not.
  58:../Libraries/STM32F4xx_StdPeriph_Driver/src/stm32f4xx_can.c ****   *             After checking on a flag you should clear it using CAN_ClearFlag()
  59:../Libraries/STM32F4xx_StdPeriph_Driver/src/stm32f4xx_can.c ****   *             function. And after checking on an interrupt event you should 
  60:../Libraries/STM32F4xx_StdPeriph_Driver/src/stm32f4xx_can.c ****   *             clear it using CAN_ClearITPendingBit() function.            
  61:../Libraries/STM32F4xx_StdPeriph_Driver/src/stm32f4xx_can.c ****   *               
  62:../Libraries/STM32F4xx_StdPeriph_Driver/src/stm32f4xx_can.c ****   *              
  63:../Libraries/STM32F4xx_StdPeriph_Driver/src/stm32f4xx_can.c ****   *  @endverbatim
  64:../Libraries/STM32F4xx_StdPeriph_Driver/src/stm32f4xx_can.c ****   *         
  65:../Libraries/STM32F4xx_StdPeriph_Driver/src/stm32f4xx_can.c ****   ******************************************************************************
  66:../Libraries/STM32F4xx_StdPeriph_Driver/src/stm32f4xx_can.c ****   * @attention
  67:../Libraries/STM32F4xx_StdPeriph_Driver/src/stm32f4xx_can.c ****   *
  68:../Libraries/STM32F4xx_StdPeriph_Driver/src/stm32f4xx_can.c ****   * THE PRESENT FIRMWARE WHICH IS FOR GUIDANCE ONLY AIMS AT PROVIDING CUSTOMERS
  69:../Libraries/STM32F4xx_StdPeriph_Driver/src/stm32f4xx_can.c ****   * WITH CODING INFORMATION REGARDING THEIR PRODUCTS IN ORDER FOR THEM TO SAVE
ARM GAS  C:\Users\admin\AppData\Local\Temp\ccqywAa9.s 			page 4


  70:../Libraries/STM32F4xx_StdPeriph_Driver/src/stm32f4xx_can.c ****   * TIME. AS A RESULT, STMICROELECTRONICS SHALL NOT BE HELD LIABLE FOR ANY
  71:../Libraries/STM32F4xx_StdPeriph_Driver/src/stm32f4xx_can.c ****   * DIRECT, INDIRECT OR CONSEQUENTIAL DAMAGES WITH RESPECT TO ANY CLAIMS ARISING
  72:../Libraries/STM32F4xx_StdPeriph_Driver/src/stm32f4xx_can.c ****   * FROM THE CONTENT OF SUCH FIRMWARE AND/OR THE USE MADE BY CUSTOMERS OF THE
  73:../Libraries/STM32F4xx_StdPeriph_Driver/src/stm32f4xx_can.c ****   * CODING INFORMATION CONTAINED HEREIN IN CONNECTION WITH THEIR PRODUCTS.
  74:../Libraries/STM32F4xx_StdPeriph_Driver/src/stm32f4xx_can.c ****   *
  75:../Libraries/STM32F4xx_StdPeriph_Driver/src/stm32f4xx_can.c ****   * <h2><center>&copy; COPYRIGHT 2011 STMicroelectronics</center></h2>
  76:../Libraries/STM32F4xx_StdPeriph_Driver/src/stm32f4xx_can.c ****   ******************************************************************************  
  77:../Libraries/STM32F4xx_StdPeriph_Driver/src/stm32f4xx_can.c ****   */
  78:../Libraries/STM32F4xx_StdPeriph_Driver/src/stm32f4xx_can.c **** 
  79:../Libraries/STM32F4xx_StdPeriph_Driver/src/stm32f4xx_can.c **** /* Includes ------------------------------------------------------------------*/
  80:../Libraries/STM32F4xx_StdPeriph_Driver/src/stm32f4xx_can.c **** #include "stm32f4xx_can.h"
  81:../Libraries/STM32F4xx_StdPeriph_Driver/src/stm32f4xx_can.c **** #include "stm32f4xx_rcc.h"
  82:../Libraries/STM32F4xx_StdPeriph_Driver/src/stm32f4xx_can.c **** 
  83:../Libraries/STM32F4xx_StdPeriph_Driver/src/stm32f4xx_can.c **** /** @addtogroup STM32F4xx_StdPeriph_Driver
  84:../Libraries/STM32F4xx_StdPeriph_Driver/src/stm32f4xx_can.c ****   * @{
  85:../Libraries/STM32F4xx_StdPeriph_Driver/src/stm32f4xx_can.c ****   */
  86:../Libraries/STM32F4xx_StdPeriph_Driver/src/stm32f4xx_can.c **** 
  87:../Libraries/STM32F4xx_StdPeriph_Driver/src/stm32f4xx_can.c **** /** @defgroup CAN 
  88:../Libraries/STM32F4xx_StdPeriph_Driver/src/stm32f4xx_can.c ****   * @brief CAN driver modules
  89:../Libraries/STM32F4xx_StdPeriph_Driver/src/stm32f4xx_can.c ****   * @{
  90:../Libraries/STM32F4xx_StdPeriph_Driver/src/stm32f4xx_can.c ****   */ 
  91:../Libraries/STM32F4xx_StdPeriph_Driver/src/stm32f4xx_can.c **** /* Private typedef -----------------------------------------------------------*/
  92:../Libraries/STM32F4xx_StdPeriph_Driver/src/stm32f4xx_can.c **** /* Private define ------------------------------------------------------------*/
  93:../Libraries/STM32F4xx_StdPeriph_Driver/src/stm32f4xx_can.c **** 
  94:../Libraries/STM32F4xx_StdPeriph_Driver/src/stm32f4xx_can.c **** /* CAN Master Control Register bits */
  95:../Libraries/STM32F4xx_StdPeriph_Driver/src/stm32f4xx_can.c **** #define MCR_DBF           ((uint32_t)0x00010000) /* software master reset */
  96:../Libraries/STM32F4xx_StdPeriph_Driver/src/stm32f4xx_can.c **** 
  97:../Libraries/STM32F4xx_StdPeriph_Driver/src/stm32f4xx_can.c **** /* CAN Mailbox Transmit Request */
  98:../Libraries/STM32F4xx_StdPeriph_Driver/src/stm32f4xx_can.c **** #define TMIDxR_TXRQ       ((uint32_t)0x00000001) /* Transmit mailbox request */
  99:../Libraries/STM32F4xx_StdPeriph_Driver/src/stm32f4xx_can.c **** 
 100:../Libraries/STM32F4xx_StdPeriph_Driver/src/stm32f4xx_can.c **** /* CAN Filter Master Register bits */
 101:../Libraries/STM32F4xx_StdPeriph_Driver/src/stm32f4xx_can.c **** #define FMR_FINIT         ((uint32_t)0x00000001) /* Filter init mode */
 102:../Libraries/STM32F4xx_StdPeriph_Driver/src/stm32f4xx_can.c **** 
 103:../Libraries/STM32F4xx_StdPeriph_Driver/src/stm32f4xx_can.c **** /* Time out for INAK bit */
 104:../Libraries/STM32F4xx_StdPeriph_Driver/src/stm32f4xx_can.c **** #define INAK_TIMEOUT      ((uint32_t)0x0000FFFF)
 105:../Libraries/STM32F4xx_StdPeriph_Driver/src/stm32f4xx_can.c **** /* Time out for SLAK bit */
 106:../Libraries/STM32F4xx_StdPeriph_Driver/src/stm32f4xx_can.c **** #define SLAK_TIMEOUT      ((uint32_t)0x0000FFFF)
 107:../Libraries/STM32F4xx_StdPeriph_Driver/src/stm32f4xx_can.c **** 
 108:../Libraries/STM32F4xx_StdPeriph_Driver/src/stm32f4xx_can.c **** /* Flags in TSR register */
 109:../Libraries/STM32F4xx_StdPeriph_Driver/src/stm32f4xx_can.c **** #define CAN_FLAGS_TSR     ((uint32_t)0x08000000) 
 110:../Libraries/STM32F4xx_StdPeriph_Driver/src/stm32f4xx_can.c **** /* Flags in RF1R register */
 111:../Libraries/STM32F4xx_StdPeriph_Driver/src/stm32f4xx_can.c **** #define CAN_FLAGS_RF1R    ((uint32_t)0x04000000) 
 112:../Libraries/STM32F4xx_StdPeriph_Driver/src/stm32f4xx_can.c **** /* Flags in RF0R register */
 113:../Libraries/STM32F4xx_StdPeriph_Driver/src/stm32f4xx_can.c **** #define CAN_FLAGS_RF0R    ((uint32_t)0x02000000) 
 114:../Libraries/STM32F4xx_StdPeriph_Driver/src/stm32f4xx_can.c **** /* Flags in MSR register */
 115:../Libraries/STM32F4xx_StdPeriph_Driver/src/stm32f4xx_can.c **** #define CAN_FLAGS_MSR     ((uint32_t)0x01000000) 
 116:../Libraries/STM32F4xx_StdPeriph_Driver/src/stm32f4xx_can.c **** /* Flags in ESR register */
 117:../Libraries/STM32F4xx_StdPeriph_Driver/src/stm32f4xx_can.c **** #define CAN_FLAGS_ESR     ((uint32_t)0x00F00000) 
 118:../Libraries/STM32F4xx_StdPeriph_Driver/src/stm32f4xx_can.c **** 
 119:../Libraries/STM32F4xx_StdPeriph_Driver/src/stm32f4xx_can.c **** /* Mailboxes definition */
 120:../Libraries/STM32F4xx_StdPeriph_Driver/src/stm32f4xx_can.c **** #define CAN_TXMAILBOX_0   ((uint8_t)0x00)
 121:../Libraries/STM32F4xx_StdPeriph_Driver/src/stm32f4xx_can.c **** #define CAN_TXMAILBOX_1   ((uint8_t)0x01)
 122:../Libraries/STM32F4xx_StdPeriph_Driver/src/stm32f4xx_can.c **** #define CAN_TXMAILBOX_2   ((uint8_t)0x02) 
 123:../Libraries/STM32F4xx_StdPeriph_Driver/src/stm32f4xx_can.c **** 
 124:../Libraries/STM32F4xx_StdPeriph_Driver/src/stm32f4xx_can.c **** #define CAN_MODE_MASK     ((uint32_t) 0x00000003)
 125:../Libraries/STM32F4xx_StdPeriph_Driver/src/stm32f4xx_can.c **** 
 126:../Libraries/STM32F4xx_StdPeriph_Driver/src/stm32f4xx_can.c **** /* Private macro -------------------------------------------------------------*/
ARM GAS  C:\Users\admin\AppData\Local\Temp\ccqywAa9.s 			page 5


 127:../Libraries/STM32F4xx_StdPeriph_Driver/src/stm32f4xx_can.c **** /* Private variables ---------------------------------------------------------*/
 128:../Libraries/STM32F4xx_StdPeriph_Driver/src/stm32f4xx_can.c **** /* Private function prototypes -----------------------------------------------*/
 129:../Libraries/STM32F4xx_StdPeriph_Driver/src/stm32f4xx_can.c **** /* Private functions ---------------------------------------------------------*/
 130:../Libraries/STM32F4xx_StdPeriph_Driver/src/stm32f4xx_can.c **** static ITStatus CheckITStatus(uint32_t CAN_Reg, uint32_t It_Bit);
 131:../Libraries/STM32F4xx_StdPeriph_Driver/src/stm32f4xx_can.c **** 
 132:../Libraries/STM32F4xx_StdPeriph_Driver/src/stm32f4xx_can.c **** /** @defgroup CAN_Private_Functions
 133:../Libraries/STM32F4xx_StdPeriph_Driver/src/stm32f4xx_can.c ****   * @{
 134:../Libraries/STM32F4xx_StdPeriph_Driver/src/stm32f4xx_can.c ****   */
 135:../Libraries/STM32F4xx_StdPeriph_Driver/src/stm32f4xx_can.c **** 
 136:../Libraries/STM32F4xx_StdPeriph_Driver/src/stm32f4xx_can.c **** /** @defgroup CAN_Group1 Initialization and Configuration functions
 137:../Libraries/STM32F4xx_StdPeriph_Driver/src/stm32f4xx_can.c ****  *  @brief    Initialization and Configuration functions 
 138:../Libraries/STM32F4xx_StdPeriph_Driver/src/stm32f4xx_can.c ****  *
 139:../Libraries/STM32F4xx_StdPeriph_Driver/src/stm32f4xx_can.c **** @verbatim    
 140:../Libraries/STM32F4xx_StdPeriph_Driver/src/stm32f4xx_can.c ****  ===============================================================================
 141:../Libraries/STM32F4xx_StdPeriph_Driver/src/stm32f4xx_can.c ****                       Initialization and Configuration functions
 142:../Libraries/STM32F4xx_StdPeriph_Driver/src/stm32f4xx_can.c ****  ===============================================================================  
 143:../Libraries/STM32F4xx_StdPeriph_Driver/src/stm32f4xx_can.c ****   This section provides functions allowing to 
 144:../Libraries/STM32F4xx_StdPeriph_Driver/src/stm32f4xx_can.c ****    - Initialize the CAN peripherals : Prescaler, operating mode, the maximum number 
 145:../Libraries/STM32F4xx_StdPeriph_Driver/src/stm32f4xx_can.c ****      of time quanta to perform resynchronization, the number of time quanta in
 146:../Libraries/STM32F4xx_StdPeriph_Driver/src/stm32f4xx_can.c ****      Bit Segment 1 and 2 and many other modes. 
 147:../Libraries/STM32F4xx_StdPeriph_Driver/src/stm32f4xx_can.c ****      Refer to  @ref CAN_InitTypeDef  for more details.
 148:../Libraries/STM32F4xx_StdPeriph_Driver/src/stm32f4xx_can.c ****    - Configures the CAN reception filter.                                      
 149:../Libraries/STM32F4xx_StdPeriph_Driver/src/stm32f4xx_can.c ****    - Select the start bank filter for slave CAN.
 150:../Libraries/STM32F4xx_StdPeriph_Driver/src/stm32f4xx_can.c ****    - Enables or disables the Debug Freeze mode for CAN
 151:../Libraries/STM32F4xx_StdPeriph_Driver/src/stm32f4xx_can.c ****    - Enables or disables the CAN Time Trigger Operation communication mode
 152:../Libraries/STM32F4xx_StdPeriph_Driver/src/stm32f4xx_can.c ****    
 153:../Libraries/STM32F4xx_StdPeriph_Driver/src/stm32f4xx_can.c **** @endverbatim
 154:../Libraries/STM32F4xx_StdPeriph_Driver/src/stm32f4xx_can.c ****   * @{
 155:../Libraries/STM32F4xx_StdPeriph_Driver/src/stm32f4xx_can.c ****   */
 156:../Libraries/STM32F4xx_StdPeriph_Driver/src/stm32f4xx_can.c ****   
 157:../Libraries/STM32F4xx_StdPeriph_Driver/src/stm32f4xx_can.c **** /**
 158:../Libraries/STM32F4xx_StdPeriph_Driver/src/stm32f4xx_can.c ****   * @brief  Deinitializes the CAN peripheral registers to their default reset values.
 159:../Libraries/STM32F4xx_StdPeriph_Driver/src/stm32f4xx_can.c ****   * @param  CANx: where x can be 1 or 2 to select the CAN peripheral.
 160:../Libraries/STM32F4xx_StdPeriph_Driver/src/stm32f4xx_can.c ****   * @retval None.
 161:../Libraries/STM32F4xx_StdPeriph_Driver/src/stm32f4xx_can.c ****   */
 162:../Libraries/STM32F4xx_StdPeriph_Driver/src/stm32f4xx_can.c **** void CAN_DeInit(CAN_TypeDef* CANx)
 163:../Libraries/STM32F4xx_StdPeriph_Driver/src/stm32f4xx_can.c **** {
 103              		.loc 1 163 1 view -0
 104              		.cfi_startproc
 105              		@ args = 0, pretend = 0, frame = 0
 106              		@ frame_needed = 0, uses_anonymous_args = 0
 164:../Libraries/STM32F4xx_StdPeriph_Driver/src/stm32f4xx_can.c ****   /* Check the parameters */
 165:../Libraries/STM32F4xx_StdPeriph_Driver/src/stm32f4xx_can.c ****   assert_param(IS_CAN_ALL_PERIPH(CANx));
 107              		.loc 1 165 3 view .LVU1
 108              	@ ../Libraries/STM32F4xx_StdPeriph_Driver/src/stm32f4xx_can.c:163: {
 163:../Libraries/STM32F4xx_StdPeriph_Driver/src/stm32f4xx_can.c ****   /* Check the parameters */
 109              		.loc 1 163 1 is_stmt 0 view .LVU2
 110 0000 08B5     		push	{r3, lr}	@
 111              		.cfi_def_cfa_offset 8
 112              		.cfi_offset 3, -8
 113              		.cfi_offset 14, -4
 114              	@ ../Libraries/STM32F4xx_StdPeriph_Driver/src/stm32f4xx_can.c:165:   assert_param(IS_CAN_ALL_PERIPH
 115              		.loc 1 165 3 view .LVU3
 116 0002 134B     		ldr	r3, .L5	@ tmp116,
 117 0004 9842     		cmp	r0, r3	@ CANx, tmp116
 118 0006 13D0     		beq	.L2		@,
 119              	@ ../Libraries/STM32F4xx_StdPeriph_Driver/src/stm32f4xx_can.c:165:   assert_param(IS_CAN_ALL_PERIPH
ARM GAS  C:\Users\admin\AppData\Local\Temp\ccqywAa9.s 			page 6


 120              		.loc 1 165 3 discriminator 2 view .LVU4
 121 0008 03F58063 		add	r3, r3, #1024	@ tmp119, tmp119,
 122 000c C01A     		subs	r0, r0, r3	@, CANx, tmp119
 123              	.LVL1:
 124              		.loc 1 165 3 discriminator 2 view .LVU5
 125 000e B0FA80F0 		clz	r0, r0	@,
 126              	.LVL2:
 127              		.loc 1 165 3 discriminator 2 view .LVU6
 128 0012 4009     		lsrs	r0, r0, #5	@,,
 129 0014 FFF7FEFF 		bl	assert_param		@
 130              	.LVL3:
 166:../Libraries/STM32F4xx_StdPeriph_Driver/src/stm32f4xx_can.c ****  
 167:../Libraries/STM32F4xx_StdPeriph_Driver/src/stm32f4xx_can.c ****   if (CANx == CAN1)
 131              		.loc 1 167 3 is_stmt 1 discriminator 2 view .LVU7
 168:../Libraries/STM32F4xx_StdPeriph_Driver/src/stm32f4xx_can.c ****   {
 169:../Libraries/STM32F4xx_StdPeriph_Driver/src/stm32f4xx_can.c ****     /* Enable CAN1 reset state */
 170:../Libraries/STM32F4xx_StdPeriph_Driver/src/stm32f4xx_can.c ****     RCC_APB1PeriphResetCmd(RCC_APB1Periph_CAN1, ENABLE);
 171:../Libraries/STM32F4xx_StdPeriph_Driver/src/stm32f4xx_can.c ****     /* Release CAN1 from reset state */
 172:../Libraries/STM32F4xx_StdPeriph_Driver/src/stm32f4xx_can.c ****     RCC_APB1PeriphResetCmd(RCC_APB1Periph_CAN1, DISABLE);
 173:../Libraries/STM32F4xx_StdPeriph_Driver/src/stm32f4xx_can.c ****   }
 174:../Libraries/STM32F4xx_StdPeriph_Driver/src/stm32f4xx_can.c ****   else
 175:../Libraries/STM32F4xx_StdPeriph_Driver/src/stm32f4xx_can.c ****   {  
 176:../Libraries/STM32F4xx_StdPeriph_Driver/src/stm32f4xx_can.c ****     /* Enable CAN2 reset state */
 177:../Libraries/STM32F4xx_StdPeriph_Driver/src/stm32f4xx_can.c ****     RCC_APB1PeriphResetCmd(RCC_APB1Periph_CAN2, ENABLE);
 132              		.loc 1 177 5 discriminator 2 view .LVU8
 133 0018 0121     		movs	r1, #1	@,
 134 001a 4FF08060 		mov	r0, #67108864	@,
 135 001e FFF7FEFF 		bl	RCC_APB1PeriphResetCmd		@
 136              	.LVL4:
 178:../Libraries/STM32F4xx_StdPeriph_Driver/src/stm32f4xx_can.c ****     /* Release CAN2 from reset state */
 179:../Libraries/STM32F4xx_StdPeriph_Driver/src/stm32f4xx_can.c ****     RCC_APB1PeriphResetCmd(RCC_APB1Periph_CAN2, DISABLE);
 137              		.loc 1 179 5 discriminator 2 view .LVU9
 138              	@ ../Libraries/STM32F4xx_StdPeriph_Driver/src/stm32f4xx_can.c:181: }
 180:../Libraries/STM32F4xx_StdPeriph_Driver/src/stm32f4xx_can.c ****   }
 181:../Libraries/STM32F4xx_StdPeriph_Driver/src/stm32f4xx_can.c **** }
 139              		.loc 1 181 1 is_stmt 0 discriminator 2 view .LVU10
 140 0022 BDE80840 		pop	{r3, lr}	@
 141              		.cfi_remember_state
 142              		.cfi_restore 14
 143              		.cfi_restore 3
 144              		.cfi_def_cfa_offset 0
 145              	@ ../Libraries/STM32F4xx_StdPeriph_Driver/src/stm32f4xx_can.c:179:     RCC_APB1PeriphResetCmd(RCC_A
 179:../Libraries/STM32F4xx_StdPeriph_Driver/src/stm32f4xx_can.c ****   }
 146              		.loc 1 179 5 discriminator 2 view .LVU11
 147 0026 0021     		movs	r1, #0	@,
 148 0028 4FF08060 		mov	r0, #67108864	@,
 149 002c FFF7FEBF 		b	RCC_APB1PeriphResetCmd		@
 150              	.LVL5:
 151              	.L2:
 152              		.cfi_restore_state
 153              	@ ../Libraries/STM32F4xx_StdPeriph_Driver/src/stm32f4xx_can.c:165:   assert_param(IS_CAN_ALL_PERIPH
 165:../Libraries/STM32F4xx_StdPeriph_Driver/src/stm32f4xx_can.c ****  
 154              		.loc 1 165 3 view .LVU12
 155 0030 0120     		movs	r0, #1	@,
 156              	.LVL6:
 165:../Libraries/STM32F4xx_StdPeriph_Driver/src/stm32f4xx_can.c ****  
 157              		.loc 1 165 3 view .LVU13
ARM GAS  C:\Users\admin\AppData\Local\Temp\ccqywAa9.s 			page 7


 158 0032 FFF7FEFF 		bl	assert_param		@
 159              	.LVL7:
 167:../Libraries/STM32F4xx_StdPeriph_Driver/src/stm32f4xx_can.c ****   {
 160              		.loc 1 167 3 is_stmt 1 view .LVU14
 170:../Libraries/STM32F4xx_StdPeriph_Driver/src/stm32f4xx_can.c ****     /* Release CAN1 from reset state */
 161              		.loc 1 170 5 view .LVU15
 162 0036 0121     		movs	r1, #1	@,
 163 0038 4FF00070 		mov	r0, #33554432	@,
 164 003c FFF7FEFF 		bl	RCC_APB1PeriphResetCmd		@
 165              	.LVL8:
 172:../Libraries/STM32F4xx_StdPeriph_Driver/src/stm32f4xx_can.c ****   }
 166              		.loc 1 172 5 view .LVU16
 167              	@ ../Libraries/STM32F4xx_StdPeriph_Driver/src/stm32f4xx_can.c:181: }
 168              		.loc 1 181 1 is_stmt 0 view .LVU17
 169 0040 BDE80840 		pop	{r3, lr}	@
 170              		.cfi_restore 14
 171              		.cfi_restore 3
 172              		.cfi_def_cfa_offset 0
 173              	@ ../Libraries/STM32F4xx_StdPeriph_Driver/src/stm32f4xx_can.c:172:     RCC_APB1PeriphResetCmd(RCC_A
 172:../Libraries/STM32F4xx_StdPeriph_Driver/src/stm32f4xx_can.c ****   }
 174              		.loc 1 172 5 view .LVU18
 175 0044 0021     		movs	r1, #0	@,
 176 0046 4FF00070 		mov	r0, #33554432	@,
 177 004a FFF7FEBF 		b	RCC_APB1PeriphResetCmd		@
 178              	.LVL9:
 179              	.L6:
 180 004e 00BF     		.align	2
 181              	.L5:
 182 0050 00640040 		.word	1073767424
 183              		.cfi_endproc
 184              	.LFE110:
 185              		.size	CAN_DeInit, .-CAN_DeInit
 186              		.section	.text.CAN_Init,"ax",%progbits
 187              		.align	1
 188              		.p2align 2,,3
 189              		.global	CAN_Init
 190              		.syntax unified
 191              		.thumb
 192              		.thumb_func
 193              		.type	CAN_Init, %function
 194              	CAN_Init:
 195              	.LVL10:
 196              	.LFB111:
 182:../Libraries/STM32F4xx_StdPeriph_Driver/src/stm32f4xx_can.c **** 
 183:../Libraries/STM32F4xx_StdPeriph_Driver/src/stm32f4xx_can.c **** /**
 184:../Libraries/STM32F4xx_StdPeriph_Driver/src/stm32f4xx_can.c ****   * @brief  Initializes the CAN peripheral according to the specified
 185:../Libraries/STM32F4xx_StdPeriph_Driver/src/stm32f4xx_can.c ****   *         parameters in the CAN_InitStruct.
 186:../Libraries/STM32F4xx_StdPeriph_Driver/src/stm32f4xx_can.c ****   * @param  CANx: where x can be 1 or 2 to select the CAN peripheral.
 187:../Libraries/STM32F4xx_StdPeriph_Driver/src/stm32f4xx_can.c ****   * @param  CAN_InitStruct: pointer to a CAN_InitTypeDef structure that contains
 188:../Libraries/STM32F4xx_StdPeriph_Driver/src/stm32f4xx_can.c ****   *         the configuration information for the CAN peripheral.
 189:../Libraries/STM32F4xx_StdPeriph_Driver/src/stm32f4xx_can.c ****   * @retval Constant indicates initialization succeed which will be 
 190:../Libraries/STM32F4xx_StdPeriph_Driver/src/stm32f4xx_can.c ****   *         CAN_InitStatus_Failed or CAN_InitStatus_Success.
 191:../Libraries/STM32F4xx_StdPeriph_Driver/src/stm32f4xx_can.c ****   */
 192:../Libraries/STM32F4xx_StdPeriph_Driver/src/stm32f4xx_can.c **** uint8_t CAN_Init(CAN_TypeDef* CANx, CAN_InitTypeDef* CAN_InitStruct)
 193:../Libraries/STM32F4xx_StdPeriph_Driver/src/stm32f4xx_can.c **** {
 197              		.loc 1 193 1 is_stmt 1 view -0
 198              		.cfi_startproc
ARM GAS  C:\Users\admin\AppData\Local\Temp\ccqywAa9.s 			page 8


 199              		@ args = 0, pretend = 0, frame = 0
 200              		@ frame_needed = 0, uses_anonymous_args = 0
 194:../Libraries/STM32F4xx_StdPeriph_Driver/src/stm32f4xx_can.c ****   uint8_t InitStatus = CAN_InitStatus_Failed;
 201              		.loc 1 194 3 view .LVU20
 195:../Libraries/STM32F4xx_StdPeriph_Driver/src/stm32f4xx_can.c ****   uint32_t wait_ack = 0x00000000;
 202              		.loc 1 195 3 view .LVU21
 196:../Libraries/STM32F4xx_StdPeriph_Driver/src/stm32f4xx_can.c ****   /* Check the parameters */
 197:../Libraries/STM32F4xx_StdPeriph_Driver/src/stm32f4xx_can.c ****   assert_param(IS_CAN_ALL_PERIPH(CANx));
 203              		.loc 1 197 3 view .LVU22
 204              	@ ../Libraries/STM32F4xx_StdPeriph_Driver/src/stm32f4xx_can.c:193: {
 193:../Libraries/STM32F4xx_StdPeriph_Driver/src/stm32f4xx_can.c ****   uint8_t InitStatus = CAN_InitStatus_Failed;
 205              		.loc 1 193 1 is_stmt 0 view .LVU23
 206 0000 38B5     		push	{r3, r4, r5, lr}	@
 207              		.cfi_def_cfa_offset 16
 208              		.cfi_offset 3, -16
 209              		.cfi_offset 4, -12
 210              		.cfi_offset 5, -8
 211              		.cfi_offset 14, -4
 212              	@ ../Libraries/STM32F4xx_StdPeriph_Driver/src/stm32f4xx_can.c:197:   assert_param(IS_CAN_ALL_PERIPH
 213              		.loc 1 197 3 view .LVU24
 214 0002 674B     		ldr	r3, .L39	@ tmp222,
 215 0004 9842     		cmp	r0, r3	@ CANx, tmp222
 216              	@ ../Libraries/STM32F4xx_StdPeriph_Driver/src/stm32f4xx_can.c:193: {
 193:../Libraries/STM32F4xx_StdPeriph_Driver/src/stm32f4xx_can.c ****   uint8_t InitStatus = CAN_InitStatus_Failed;
 217              		.loc 1 193 1 view .LVU25
 218 0006 0446     		mov	r4, r0	@ CANx, tmp313
 219 0008 0D46     		mov	r5, r1	@ CAN_InitStruct, tmp314
 220              	@ ../Libraries/STM32F4xx_StdPeriph_Driver/src/stm32f4xx_can.c:197:   assert_param(IS_CAN_ALL_PERIPH
 221              		.loc 1 197 3 view .LVU26
 222 000a 00F0C780 		beq	.L26		@,
 223              	@ ../Libraries/STM32F4xx_StdPeriph_Driver/src/stm32f4xx_can.c:197:   assert_param(IS_CAN_ALL_PERIPH
 224              		.loc 1 197 3 discriminator 2 view .LVU27
 225 000e 6548     		ldr	r0, .L39+4	@ tmp225,
 226              	.LVL11:
 227              		.loc 1 197 3 discriminator 2 view .LVU28
 228 0010 201A     		subs	r0, r4, r0	@ iftmp.1_101, CANx, tmp225
 229 0012 B0FA80F0 		clz	r0, r0	@ iftmp.1_101, iftmp.1_101
 230 0016 4009     		lsrs	r0, r0, #5	@ iftmp.1_101, iftmp.1_101,
 231              	.L8:
 232              	@ ../Libraries/STM32F4xx_StdPeriph_Driver/src/stm32f4xx_can.c:197:   assert_param(IS_CAN_ALL_PERIPH
 233              		.loc 1 197 3 discriminator 6 view .LVU29
 234 0018 FFF7FEFF 		bl	assert_param		@
 235              	.LVL12:
 198:../Libraries/STM32F4xx_StdPeriph_Driver/src/stm32f4xx_can.c ****   assert_param(IS_FUNCTIONAL_STATE(CAN_InitStruct->CAN_TTCM));
 236              		.loc 1 198 3 is_stmt 1 discriminator 6 view .LVU30
 237 001c A879     		ldrb	r0, [r5, #6]	@ zero_extendqisi2	@ CAN_InitStruct_113(D)->CAN_TTCM, CAN_InitStruct_113(D)->CAN
 238 001e 0128     		cmp	r0, #1	@ CAN_InitStruct_113(D)->CAN_TTCM,
 239 0020 8CBF     		ite	hi
 240 0022 0020     		movhi	r0, #0	@,
 241 0024 0120     		movls	r0, #1	@,
 242 0026 FFF7FEFF 		bl	assert_param		@
 243              	.LVL13:
 199:../Libraries/STM32F4xx_StdPeriph_Driver/src/stm32f4xx_can.c ****   assert_param(IS_FUNCTIONAL_STATE(CAN_InitStruct->CAN_ABOM));
 244              		.loc 1 199 3 discriminator 6 view .LVU31
 245 002a E879     		ldrb	r0, [r5, #7]	@ zero_extendqisi2	@ CAN_InitStruct_113(D)->CAN_ABOM, CAN_InitStruct_113(D)->CAN
 246 002c 0128     		cmp	r0, #1	@ CAN_InitStruct_113(D)->CAN_ABOM,
 247 002e 8CBF     		ite	hi
ARM GAS  C:\Users\admin\AppData\Local\Temp\ccqywAa9.s 			page 9


 248 0030 0020     		movhi	r0, #0	@,
 249 0032 0120     		movls	r0, #1	@,
 250 0034 FFF7FEFF 		bl	assert_param		@
 251              	.LVL14:
 200:../Libraries/STM32F4xx_StdPeriph_Driver/src/stm32f4xx_can.c ****   assert_param(IS_FUNCTIONAL_STATE(CAN_InitStruct->CAN_AWUM));
 252              		.loc 1 200 3 discriminator 6 view .LVU32
 253 0038 287A     		ldrb	r0, [r5, #8]	@ zero_extendqisi2	@ CAN_InitStruct_113(D)->CAN_AWUM, CAN_InitStruct_113(D)->CAN
 254 003a 0128     		cmp	r0, #1	@ CAN_InitStruct_113(D)->CAN_AWUM,
 255 003c 8CBF     		ite	hi
 256 003e 0020     		movhi	r0, #0	@,
 257 0040 0120     		movls	r0, #1	@,
 258 0042 FFF7FEFF 		bl	assert_param		@
 259              	.LVL15:
 201:../Libraries/STM32F4xx_StdPeriph_Driver/src/stm32f4xx_can.c ****   assert_param(IS_FUNCTIONAL_STATE(CAN_InitStruct->CAN_NART));
 260              		.loc 1 201 3 discriminator 6 view .LVU33
 261 0046 687A     		ldrb	r0, [r5, #9]	@ zero_extendqisi2	@ CAN_InitStruct_113(D)->CAN_NART, CAN_InitStruct_113(D)->CAN
 262 0048 0128     		cmp	r0, #1	@ CAN_InitStruct_113(D)->CAN_NART,
 263 004a 8CBF     		ite	hi
 264 004c 0020     		movhi	r0, #0	@,
 265 004e 0120     		movls	r0, #1	@,
 266 0050 FFF7FEFF 		bl	assert_param		@
 267              	.LVL16:
 202:../Libraries/STM32F4xx_StdPeriph_Driver/src/stm32f4xx_can.c ****   assert_param(IS_FUNCTIONAL_STATE(CAN_InitStruct->CAN_RFLM));
 268              		.loc 1 202 3 discriminator 6 view .LVU34
 269 0054 A87A     		ldrb	r0, [r5, #10]	@ zero_extendqisi2	@ CAN_InitStruct_113(D)->CAN_RFLM, CAN_InitStruct_113(D)->CA
 270 0056 0128     		cmp	r0, #1	@ CAN_InitStruct_113(D)->CAN_RFLM,
 271 0058 8CBF     		ite	hi
 272 005a 0020     		movhi	r0, #0	@,
 273 005c 0120     		movls	r0, #1	@,
 274 005e FFF7FEFF 		bl	assert_param		@
 275              	.LVL17:
 203:../Libraries/STM32F4xx_StdPeriph_Driver/src/stm32f4xx_can.c ****   assert_param(IS_FUNCTIONAL_STATE(CAN_InitStruct->CAN_TXFP));
 276              		.loc 1 203 3 discriminator 6 view .LVU35
 277 0062 E87A     		ldrb	r0, [r5, #11]	@ zero_extendqisi2	@ CAN_InitStruct_113(D)->CAN_TXFP, CAN_InitStruct_113(D)->CA
 278 0064 0128     		cmp	r0, #1	@ CAN_InitStruct_113(D)->CAN_TXFP,
 279 0066 8CBF     		ite	hi
 280 0068 0020     		movhi	r0, #0	@,
 281 006a 0120     		movls	r0, #1	@,
 282 006c FFF7FEFF 		bl	assert_param		@
 283              	.LVL18:
 204:../Libraries/STM32F4xx_StdPeriph_Driver/src/stm32f4xx_can.c ****   assert_param(IS_CAN_MODE(CAN_InitStruct->CAN_Mode));
 284              		.loc 1 204 3 discriminator 6 view .LVU36
 285 0070 A878     		ldrb	r0, [r5, #2]	@ zero_extendqisi2	@ CAN_InitStruct_113(D)->CAN_Mode, CAN_InitStruct_113(D)->CAN
 286 0072 0328     		cmp	r0, #3	@ CAN_InitStruct_113(D)->CAN_Mode,
 287 0074 8CBF     		ite	hi
 288 0076 0020     		movhi	r0, #0	@,
 289 0078 0120     		movls	r0, #1	@,
 290 007a FFF7FEFF 		bl	assert_param		@
 291              	.LVL19:
 205:../Libraries/STM32F4xx_StdPeriph_Driver/src/stm32f4xx_can.c ****   assert_param(IS_CAN_SJW(CAN_InitStruct->CAN_SJW));
 292              		.loc 1 205 3 discriminator 6 view .LVU37
 293 007e E878     		ldrb	r0, [r5, #3]	@ zero_extendqisi2	@ CAN_InitStruct_113(D)->CAN_SJW, CAN_InitStruct_113(D)->CAN_
 294 0080 0328     		cmp	r0, #3	@ CAN_InitStruct_113(D)->CAN_SJW,
 295 0082 8CBF     		ite	hi
 296 0084 0020     		movhi	r0, #0	@,
 297 0086 0120     		movls	r0, #1	@,
 298 0088 FFF7FEFF 		bl	assert_param		@
ARM GAS  C:\Users\admin\AppData\Local\Temp\ccqywAa9.s 			page 10


 299              	.LVL20:
 206:../Libraries/STM32F4xx_StdPeriph_Driver/src/stm32f4xx_can.c ****   assert_param(IS_CAN_BS1(CAN_InitStruct->CAN_BS1));
 300              		.loc 1 206 3 discriminator 6 view .LVU38
 301 008c 2879     		ldrb	r0, [r5, #4]	@ zero_extendqisi2	@ CAN_InitStruct_113(D)->CAN_BS1, CAN_InitStruct_113(D)->CAN_
 302 008e 0F28     		cmp	r0, #15	@ CAN_InitStruct_113(D)->CAN_BS1,
 303 0090 8CBF     		ite	hi
 304 0092 0020     		movhi	r0, #0	@,
 305 0094 0120     		movls	r0, #1	@,
 306 0096 FFF7FEFF 		bl	assert_param		@
 307              	.LVL21:
 207:../Libraries/STM32F4xx_StdPeriph_Driver/src/stm32f4xx_can.c ****   assert_param(IS_CAN_BS2(CAN_InitStruct->CAN_BS2));
 308              		.loc 1 207 3 discriminator 6 view .LVU39
 309 009a 6879     		ldrb	r0, [r5, #5]	@ zero_extendqisi2	@ CAN_InitStruct_113(D)->CAN_BS2, CAN_InitStruct_113(D)->CAN_
 310 009c 0728     		cmp	r0, #7	@ CAN_InitStruct_113(D)->CAN_BS2,
 311 009e 8CBF     		ite	hi
 312 00a0 0020     		movhi	r0, #0	@,
 313 00a2 0120     		movls	r0, #1	@,
 314 00a4 FFF7FEFF 		bl	assert_param		@
 315              	.LVL22:
 208:../Libraries/STM32F4xx_StdPeriph_Driver/src/stm32f4xx_can.c ****   assert_param(IS_CAN_PRESCALER(CAN_InitStruct->CAN_Prescaler));
 316              		.loc 1 208 3 discriminator 6 view .LVU40
 317              	@ ../Libraries/STM32F4xx_StdPeriph_Driver/src/stm32f4xx_can.c:208:   assert_param(IS_CAN_PRESCALER(
 318              		.loc 1 208 16 is_stmt 0 discriminator 6 view .LVU41
 319 00a8 2888     		ldrh	r0, [r5]	@, CAN_InitStruct_113(D)->CAN_Prescaler
 320 00aa 0138     		subs	r0, r0, #1	@ tmp277, CAN_InitStruct_113(D)->CAN_Prescaler,
 321              	@ ../Libraries/STM32F4xx_StdPeriph_Driver/src/stm32f4xx_can.c:208:   assert_param(IS_CAN_PRESCALER(
 322              		.loc 1 208 3 discriminator 6 view .LVU42
 323 00ac 80B2     		uxth	r0, r0	@ tmp281, tmp277
 324 00ae B0F5806F 		cmp	r0, #1024	@ tmp281,
 325 00b2 2CBF     		ite	cs
 326 00b4 0020     		movcs	r0, #0	@,
 327 00b6 0120     		movcc	r0, #1	@,
 328 00b8 FFF7FEFF 		bl	assert_param		@
 329              	.LVL23:
 209:../Libraries/STM32F4xx_StdPeriph_Driver/src/stm32f4xx_can.c **** 
 210:../Libraries/STM32F4xx_StdPeriph_Driver/src/stm32f4xx_can.c ****   /* Exit from sleep mode */
 211:../Libraries/STM32F4xx_StdPeriph_Driver/src/stm32f4xx_can.c ****   CANx->MCR &= (~(uint32_t)CAN_MCR_SLEEP);
 330              		.loc 1 211 3 is_stmt 1 discriminator 6 view .LVU43
 331              	@ ../Libraries/STM32F4xx_StdPeriph_Driver/src/stm32f4xx_can.c:211:   CANx->MCR &= (~(uint32_t)CAN_M
 332              		.loc 1 211 13 is_stmt 0 discriminator 6 view .LVU44
 333 00bc 2368     		ldr	r3, [r4]	@ _35, CANx_110(D)->MCR
 334 00be 23F00203 		bic	r3, r3, #2	@ _36, _35,
 335 00c2 2360     		str	r3, [r4]	@ _36, CANx_110(D)->MCR
 212:../Libraries/STM32F4xx_StdPeriph_Driver/src/stm32f4xx_can.c **** 
 213:../Libraries/STM32F4xx_StdPeriph_Driver/src/stm32f4xx_can.c ****   /* Request initialisation */
 214:../Libraries/STM32F4xx_StdPeriph_Driver/src/stm32f4xx_can.c ****   CANx->MCR |= CAN_MCR_INRQ ;
 336              		.loc 1 214 3 is_stmt 1 discriminator 6 view .LVU45
 337              	@ ../Libraries/STM32F4xx_StdPeriph_Driver/src/stm32f4xx_can.c:214:   CANx->MCR |= CAN_MCR_INRQ ;
 338              		.loc 1 214 13 is_stmt 0 discriminator 6 view .LVU46
 339 00c4 2368     		ldr	r3, [r4]	@ _37, CANx_110(D)->MCR
 340 00c6 43F00103 		orr	r3, r3, #1	@ _38, _37,
 341 00ca 2360     		str	r3, [r4]	@ _38, CANx_110(D)->MCR
 215:../Libraries/STM32F4xx_StdPeriph_Driver/src/stm32f4xx_can.c **** 
 216:../Libraries/STM32F4xx_StdPeriph_Driver/src/stm32f4xx_can.c ****   /* Wait the acknowledge */
 217:../Libraries/STM32F4xx_StdPeriph_Driver/src/stm32f4xx_can.c ****   while (((CANx->MSR & CAN_MSR_INAK) != CAN_MSR_INAK) && (wait_ack != INAK_TIMEOUT))
 342              		.loc 1 217 3 is_stmt 1 discriminator 6 view .LVU47
 343              		.loc 1 217 9 discriminator 6 view .LVU48
ARM GAS  C:\Users\admin\AppData\Local\Temp\ccqywAa9.s 			page 11


 344              	@ ../Libraries/STM32F4xx_StdPeriph_Driver/src/stm32f4xx_can.c:217:   while (((CANx->MSR & CAN_MSR_I
 345              		.loc 1 217 16 is_stmt 0 discriminator 6 view .LVU49
 346 00cc 6368     		ldr	r3, [r4, #4]	@ _159, CANx_110(D)->MSR
 347              	@ ../Libraries/STM32F4xx_StdPeriph_Driver/src/stm32f4xx_can.c:217:   while (((CANx->MSR & CAN_MSR_I
 348              		.loc 1 217 9 discriminator 6 view .LVU50
 349 00ce DB07     		lsls	r3, r3, #31	@, _159,
 350 00d0 07D4     		bmi	.L9		@,
 351              	@ ../Libraries/STM32F4xx_StdPeriph_Driver/src/stm32f4xx_can.c:217:   while (((CANx->MSR & CAN_MSR_I
 352              		.loc 1 217 9 view .LVU51
 353 00d2 4FF6FF73 		movw	r3, #65535	@ ivtmp_160,
 354 00d6 01E0     		b	.L10		@
 355              	.LVL24:
 356              	.L37:
 357              	@ ../Libraries/STM32F4xx_StdPeriph_Driver/src/stm32f4xx_can.c:217:   while (((CANx->MSR & CAN_MSR_I
 358              		.loc 1 217 55 discriminator 1 view .LVU52
 359 00d8 013B     		subs	r3, r3, #1	@ ivtmp_160, ivtmp_160,
 360 00da 02D0     		beq	.L9		@,
 361              	.L10:
 218:../Libraries/STM32F4xx_StdPeriph_Driver/src/stm32f4xx_can.c ****   {
 219:../Libraries/STM32F4xx_StdPeriph_Driver/src/stm32f4xx_can.c ****     wait_ack++;
 362              		.loc 1 219 5 is_stmt 1 view .LVU53
 217:../Libraries/STM32F4xx_StdPeriph_Driver/src/stm32f4xx_can.c ****   {
 363              		.loc 1 217 9 view .LVU54
 364              	@ ../Libraries/STM32F4xx_StdPeriph_Driver/src/stm32f4xx_can.c:217:   while (((CANx->MSR & CAN_MSR_I
 217:../Libraries/STM32F4xx_StdPeriph_Driver/src/stm32f4xx_can.c ****   {
 365              		.loc 1 217 16 is_stmt 0 view .LVU55
 366 00dc 6268     		ldr	r2, [r4, #4]	@ _39, CANx_110(D)->MSR
 367              	@ ../Libraries/STM32F4xx_StdPeriph_Driver/src/stm32f4xx_can.c:217:   while (((CANx->MSR & CAN_MSR_I
 217:../Libraries/STM32F4xx_StdPeriph_Driver/src/stm32f4xx_can.c ****   {
 368              		.loc 1 217 9 view .LVU56
 369 00de D007     		lsls	r0, r2, #31	@, _39,
 370 00e0 FAD5     		bpl	.L37		@,
 371              	.L9:
 220:../Libraries/STM32F4xx_StdPeriph_Driver/src/stm32f4xx_can.c ****   }
 221:../Libraries/STM32F4xx_StdPeriph_Driver/src/stm32f4xx_can.c **** 
 222:../Libraries/STM32F4xx_StdPeriph_Driver/src/stm32f4xx_can.c ****   /* Check acknowledge */
 223:../Libraries/STM32F4xx_StdPeriph_Driver/src/stm32f4xx_can.c ****   if ((CANx->MSR & CAN_MSR_INAK) != CAN_MSR_INAK)
 372              		.loc 1 223 3 is_stmt 1 view .LVU57
 373              	@ ../Libraries/STM32F4xx_StdPeriph_Driver/src/stm32f4xx_can.c:223:   if ((CANx->MSR & CAN_MSR_INAK)
 374              		.loc 1 223 12 is_stmt 0 view .LVU58
 375 00e2 6068     		ldr	r0, [r4, #4]	@ _41, CANx_110(D)->MSR
 376              	@ ../Libraries/STM32F4xx_StdPeriph_Driver/src/stm32f4xx_can.c:223:   if ((CANx->MSR & CAN_MSR_INAK)
 377              		.loc 1 223 6 view .LVU59
 378 00e4 10F00100 		ands	r0, r0, #1	@ tmp286, _41,
 379 00e8 57D0     		beq	.L11		@,
 224:../Libraries/STM32F4xx_StdPeriph_Driver/src/stm32f4xx_can.c ****   {
 225:../Libraries/STM32F4xx_StdPeriph_Driver/src/stm32f4xx_can.c ****     InitStatus = CAN_InitStatus_Failed;
 226:../Libraries/STM32F4xx_StdPeriph_Driver/src/stm32f4xx_can.c ****   }
 227:../Libraries/STM32F4xx_StdPeriph_Driver/src/stm32f4xx_can.c ****   else 
 228:../Libraries/STM32F4xx_StdPeriph_Driver/src/stm32f4xx_can.c ****   {
 229:../Libraries/STM32F4xx_StdPeriph_Driver/src/stm32f4xx_can.c ****     /* Set the time triggered communication mode */
 230:../Libraries/STM32F4xx_StdPeriph_Driver/src/stm32f4xx_can.c ****     if (CAN_InitStruct->CAN_TTCM == ENABLE)
 380              		.loc 1 230 5 is_stmt 1 view .LVU60
 381              	@ ../Libraries/STM32F4xx_StdPeriph_Driver/src/stm32f4xx_can.c:230:     if (CAN_InitStruct->CAN_TTCM
 382              		.loc 1 230 8 is_stmt 0 view .LVU61
 383 00ea AB79     		ldrb	r3, [r5, #6]	@ zero_extendqisi2	@ CAN_InitStruct_113(D)->CAN_TTCM, CAN_InitStruct_113(D)->CAN
 384 00ec 012B     		cmp	r3, #1	@ CAN_InitStruct_113(D)->CAN_TTCM,
ARM GAS  C:\Users\admin\AppData\Local\Temp\ccqywAa9.s 			page 12


 385              	@ ../Libraries/STM32F4xx_StdPeriph_Driver/src/stm32f4xx_can.c:232:       CANx->MCR |= CAN_MCR_TTCM;
 231:../Libraries/STM32F4xx_StdPeriph_Driver/src/stm32f4xx_can.c ****     {
 232:../Libraries/STM32F4xx_StdPeriph_Driver/src/stm32f4xx_can.c ****       CANx->MCR |= CAN_MCR_TTCM;
 386              		.loc 1 232 17 view .LVU62
 387 00ee 2368     		ldr	r3, [r4]	@ _44,* CANx
 388              		.loc 1 232 7 is_stmt 1 view .LVU63
 389              	@ ../Libraries/STM32F4xx_StdPeriph_Driver/src/stm32f4xx_can.c:232:       CANx->MCR |= CAN_MCR_TTCM;
 390              		.loc 1 232 17 is_stmt 0 view .LVU64
 391 00f0 0CBF     		ite	eq
 392 00f2 43F08003 		orreq	r3, r3, #128	@ _45, _44,
 233:../Libraries/STM32F4xx_StdPeriph_Driver/src/stm32f4xx_can.c ****     }
 234:../Libraries/STM32F4xx_StdPeriph_Driver/src/stm32f4xx_can.c ****     else
 235:../Libraries/STM32F4xx_StdPeriph_Driver/src/stm32f4xx_can.c ****     {
 236:../Libraries/STM32F4xx_StdPeriph_Driver/src/stm32f4xx_can.c ****       CANx->MCR &= ~(uint32_t)CAN_MCR_TTCM;
 393              		.loc 1 236 7 is_stmt 1 view .LVU65
 394              	@ ../Libraries/STM32F4xx_StdPeriph_Driver/src/stm32f4xx_can.c:236:       CANx->MCR &= ~(uint32_t)CA
 395              		.loc 1 236 17 is_stmt 0 view .LVU66
 396 00f6 23F08003 		bicne	r3, r3, #128	@ _47, _46,
 397 00fa 2360     		str	r3, [r4]	@ _47,* CANx
 237:../Libraries/STM32F4xx_StdPeriph_Driver/src/stm32f4xx_can.c ****     }
 238:../Libraries/STM32F4xx_StdPeriph_Driver/src/stm32f4xx_can.c **** 
 239:../Libraries/STM32F4xx_StdPeriph_Driver/src/stm32f4xx_can.c ****     /* Set the automatic bus-off management */
 240:../Libraries/STM32F4xx_StdPeriph_Driver/src/stm32f4xx_can.c ****     if (CAN_InitStruct->CAN_ABOM == ENABLE)
 398              		.loc 1 240 5 is_stmt 1 view .LVU67
 399              	@ ../Libraries/STM32F4xx_StdPeriph_Driver/src/stm32f4xx_can.c:240:     if (CAN_InitStruct->CAN_ABOM
 400              		.loc 1 240 8 is_stmt 0 view .LVU68
 401 00fc EB79     		ldrb	r3, [r5, #7]	@ zero_extendqisi2	@ CAN_InitStruct_113(D)->CAN_ABOM, CAN_InitStruct_113(D)->CAN
 402 00fe 012B     		cmp	r3, #1	@ CAN_InitStruct_113(D)->CAN_ABOM,
 403              	@ ../Libraries/STM32F4xx_StdPeriph_Driver/src/stm32f4xx_can.c:242:       CANx->MCR |= CAN_MCR_ABOM;
 241:../Libraries/STM32F4xx_StdPeriph_Driver/src/stm32f4xx_can.c ****     {
 242:../Libraries/STM32F4xx_StdPeriph_Driver/src/stm32f4xx_can.c ****       CANx->MCR |= CAN_MCR_ABOM;
 404              		.loc 1 242 17 view .LVU69
 405 0100 2368     		ldr	r3, [r4]	@ _49,* CANx
 406              		.loc 1 242 7 is_stmt 1 view .LVU70
 407              	@ ../Libraries/STM32F4xx_StdPeriph_Driver/src/stm32f4xx_can.c:242:       CANx->MCR |= CAN_MCR_ABOM;
 408              		.loc 1 242 17 is_stmt 0 view .LVU71
 409 0102 0CBF     		ite	eq
 410 0104 43F04003 		orreq	r3, r3, #64	@ _50, _49,
 243:../Libraries/STM32F4xx_StdPeriph_Driver/src/stm32f4xx_can.c ****     }
 244:../Libraries/STM32F4xx_StdPeriph_Driver/src/stm32f4xx_can.c ****     else
 245:../Libraries/STM32F4xx_StdPeriph_Driver/src/stm32f4xx_can.c ****     {
 246:../Libraries/STM32F4xx_StdPeriph_Driver/src/stm32f4xx_can.c ****       CANx->MCR &= ~(uint32_t)CAN_MCR_ABOM;
 411              		.loc 1 246 7 is_stmt 1 view .LVU72
 412              	@ ../Libraries/STM32F4xx_StdPeriph_Driver/src/stm32f4xx_can.c:246:       CANx->MCR &= ~(uint32_t)CA
 413              		.loc 1 246 17 is_stmt 0 view .LVU73
 414 0108 23F04003 		bicne	r3, r3, #64	@ _52, _51,
 415 010c 2360     		str	r3, [r4]	@ _52,* CANx
 247:../Libraries/STM32F4xx_StdPeriph_Driver/src/stm32f4xx_can.c ****     }
 248:../Libraries/STM32F4xx_StdPeriph_Driver/src/stm32f4xx_can.c **** 
 249:../Libraries/STM32F4xx_StdPeriph_Driver/src/stm32f4xx_can.c ****     /* Set the automatic wake-up mode */
 250:../Libraries/STM32F4xx_StdPeriph_Driver/src/stm32f4xx_can.c ****     if (CAN_InitStruct->CAN_AWUM == ENABLE)
 416              		.loc 1 250 5 is_stmt 1 view .LVU74
 417              	@ ../Libraries/STM32F4xx_StdPeriph_Driver/src/stm32f4xx_can.c:250:     if (CAN_InitStruct->CAN_AWUM
 418              		.loc 1 250 8 is_stmt 0 view .LVU75
 419 010e 2B7A     		ldrb	r3, [r5, #8]	@ zero_extendqisi2	@ CAN_InitStruct_113(D)->CAN_AWUM, CAN_InitStruct_113(D)->CAN
 420 0110 012B     		cmp	r3, #1	@ CAN_InitStruct_113(D)->CAN_AWUM,
 421              	@ ../Libraries/STM32F4xx_StdPeriph_Driver/src/stm32f4xx_can.c:252:       CANx->MCR |= CAN_MCR_AWUM;
ARM GAS  C:\Users\admin\AppData\Local\Temp\ccqywAa9.s 			page 13


 251:../Libraries/STM32F4xx_StdPeriph_Driver/src/stm32f4xx_can.c ****     {
 252:../Libraries/STM32F4xx_StdPeriph_Driver/src/stm32f4xx_can.c ****       CANx->MCR |= CAN_MCR_AWUM;
 422              		.loc 1 252 17 view .LVU76
 423 0112 2368     		ldr	r3, [r4]	@ _54,* CANx
 424              		.loc 1 252 7 is_stmt 1 view .LVU77
 425              	@ ../Libraries/STM32F4xx_StdPeriph_Driver/src/stm32f4xx_can.c:252:       CANx->MCR |= CAN_MCR_AWUM;
 426              		.loc 1 252 17 is_stmt 0 view .LVU78
 427 0114 0CBF     		ite	eq
 428 0116 43F02003 		orreq	r3, r3, #32	@ _55, _54,
 253:../Libraries/STM32F4xx_StdPeriph_Driver/src/stm32f4xx_can.c ****     }
 254:../Libraries/STM32F4xx_StdPeriph_Driver/src/stm32f4xx_can.c ****     else
 255:../Libraries/STM32F4xx_StdPeriph_Driver/src/stm32f4xx_can.c ****     {
 256:../Libraries/STM32F4xx_StdPeriph_Driver/src/stm32f4xx_can.c ****       CANx->MCR &= ~(uint32_t)CAN_MCR_AWUM;
 429              		.loc 1 256 7 is_stmt 1 view .LVU79
 430              	@ ../Libraries/STM32F4xx_StdPeriph_Driver/src/stm32f4xx_can.c:256:       CANx->MCR &= ~(uint32_t)CA
 431              		.loc 1 256 17 is_stmt 0 view .LVU80
 432 011a 23F02003 		bicne	r3, r3, #32	@ _57, _56,
 433 011e 2360     		str	r3, [r4]	@ _57,* CANx
 257:../Libraries/STM32F4xx_StdPeriph_Driver/src/stm32f4xx_can.c ****     }
 258:../Libraries/STM32F4xx_StdPeriph_Driver/src/stm32f4xx_can.c **** 
 259:../Libraries/STM32F4xx_StdPeriph_Driver/src/stm32f4xx_can.c ****     /* Set the no automatic retransmission */
 260:../Libraries/STM32F4xx_StdPeriph_Driver/src/stm32f4xx_can.c ****     if (CAN_InitStruct->CAN_NART == ENABLE)
 434              		.loc 1 260 5 is_stmt 1 view .LVU81
 435              	@ ../Libraries/STM32F4xx_StdPeriph_Driver/src/stm32f4xx_can.c:260:     if (CAN_InitStruct->CAN_NART
 436              		.loc 1 260 8 is_stmt 0 view .LVU82
 437 0120 6B7A     		ldrb	r3, [r5, #9]	@ zero_extendqisi2	@ CAN_InitStruct_113(D)->CAN_NART, CAN_InitStruct_113(D)->CAN
 438 0122 012B     		cmp	r3, #1	@ CAN_InitStruct_113(D)->CAN_NART,
 439              	@ ../Libraries/STM32F4xx_StdPeriph_Driver/src/stm32f4xx_can.c:262:       CANx->MCR |= CAN_MCR_NART;
 261:../Libraries/STM32F4xx_StdPeriph_Driver/src/stm32f4xx_can.c ****     {
 262:../Libraries/STM32F4xx_StdPeriph_Driver/src/stm32f4xx_can.c ****       CANx->MCR |= CAN_MCR_NART;
 440              		.loc 1 262 17 view .LVU83
 441 0124 2368     		ldr	r3, [r4]	@ _59,* CANx
 442              		.loc 1 262 7 is_stmt 1 view .LVU84
 443              	@ ../Libraries/STM32F4xx_StdPeriph_Driver/src/stm32f4xx_can.c:262:       CANx->MCR |= CAN_MCR_NART;
 444              		.loc 1 262 17 is_stmt 0 view .LVU85
 445 0126 0CBF     		ite	eq
 446 0128 43F01003 		orreq	r3, r3, #16	@ _60, _59,
 263:../Libraries/STM32F4xx_StdPeriph_Driver/src/stm32f4xx_can.c ****     }
 264:../Libraries/STM32F4xx_StdPeriph_Driver/src/stm32f4xx_can.c ****     else
 265:../Libraries/STM32F4xx_StdPeriph_Driver/src/stm32f4xx_can.c ****     {
 266:../Libraries/STM32F4xx_StdPeriph_Driver/src/stm32f4xx_can.c ****       CANx->MCR &= ~(uint32_t)CAN_MCR_NART;
 447              		.loc 1 266 7 is_stmt 1 view .LVU86
 448              	@ ../Libraries/STM32F4xx_StdPeriph_Driver/src/stm32f4xx_can.c:266:       CANx->MCR &= ~(uint32_t)CA
 449              		.loc 1 266 17 is_stmt 0 view .LVU87
 450 012c 23F01003 		bicne	r3, r3, #16	@ _62, _61,
 451 0130 2360     		str	r3, [r4]	@ _62,* CANx
 267:../Libraries/STM32F4xx_StdPeriph_Driver/src/stm32f4xx_can.c ****     }
 268:../Libraries/STM32F4xx_StdPeriph_Driver/src/stm32f4xx_can.c **** 
 269:../Libraries/STM32F4xx_StdPeriph_Driver/src/stm32f4xx_can.c ****     /* Set the receive FIFO locked mode */
 270:../Libraries/STM32F4xx_StdPeriph_Driver/src/stm32f4xx_can.c ****     if (CAN_InitStruct->CAN_RFLM == ENABLE)
 452              		.loc 1 270 5 is_stmt 1 view .LVU88
 453              	@ ../Libraries/STM32F4xx_StdPeriph_Driver/src/stm32f4xx_can.c:270:     if (CAN_InitStruct->CAN_RFLM
 454              		.loc 1 270 8 is_stmt 0 view .LVU89
 455 0132 AB7A     		ldrb	r3, [r5, #10]	@ zero_extendqisi2	@ CAN_InitStruct_113(D)->CAN_RFLM, CAN_InitStruct_113(D)->CA
 456 0134 012B     		cmp	r3, #1	@ CAN_InitStruct_113(D)->CAN_RFLM,
 457              	@ ../Libraries/STM32F4xx_StdPeriph_Driver/src/stm32f4xx_can.c:272:       CANx->MCR |= CAN_MCR_RFLM;
 271:../Libraries/STM32F4xx_StdPeriph_Driver/src/stm32f4xx_can.c ****     {
ARM GAS  C:\Users\admin\AppData\Local\Temp\ccqywAa9.s 			page 14


 272:../Libraries/STM32F4xx_StdPeriph_Driver/src/stm32f4xx_can.c ****       CANx->MCR |= CAN_MCR_RFLM;
 458              		.loc 1 272 17 view .LVU90
 459 0136 2368     		ldr	r3, [r4]	@ _64,* CANx
 460              		.loc 1 272 7 is_stmt 1 view .LVU91
 461              	@ ../Libraries/STM32F4xx_StdPeriph_Driver/src/stm32f4xx_can.c:272:       CANx->MCR |= CAN_MCR_RFLM;
 462              		.loc 1 272 17 is_stmt 0 view .LVU92
 463 0138 0CBF     		ite	eq
 464 013a 43F00803 		orreq	r3, r3, #8	@ _65, _64,
 273:../Libraries/STM32F4xx_StdPeriph_Driver/src/stm32f4xx_can.c ****     }
 274:../Libraries/STM32F4xx_StdPeriph_Driver/src/stm32f4xx_can.c ****     else
 275:../Libraries/STM32F4xx_StdPeriph_Driver/src/stm32f4xx_can.c ****     {
 276:../Libraries/STM32F4xx_StdPeriph_Driver/src/stm32f4xx_can.c ****       CANx->MCR &= ~(uint32_t)CAN_MCR_RFLM;
 465              		.loc 1 276 7 is_stmt 1 view .LVU93
 466              	@ ../Libraries/STM32F4xx_StdPeriph_Driver/src/stm32f4xx_can.c:276:       CANx->MCR &= ~(uint32_t)CA
 467              		.loc 1 276 17 is_stmt 0 view .LVU94
 468 013e 23F00803 		bicne	r3, r3, #8	@ _67, _66,
 469 0142 2360     		str	r3, [r4]	@ _67,* CANx
 277:../Libraries/STM32F4xx_StdPeriph_Driver/src/stm32f4xx_can.c ****     }
 278:../Libraries/STM32F4xx_StdPeriph_Driver/src/stm32f4xx_can.c **** 
 279:../Libraries/STM32F4xx_StdPeriph_Driver/src/stm32f4xx_can.c ****     /* Set the transmit FIFO priority */
 280:../Libraries/STM32F4xx_StdPeriph_Driver/src/stm32f4xx_can.c ****     if (CAN_InitStruct->CAN_TXFP == ENABLE)
 470              		.loc 1 280 5 is_stmt 1 view .LVU95
 471              	@ ../Libraries/STM32F4xx_StdPeriph_Driver/src/stm32f4xx_can.c:280:     if (CAN_InitStruct->CAN_TXFP
 472              		.loc 1 280 8 is_stmt 0 view .LVU96
 473 0144 EB7A     		ldrb	r3, [r5, #11]	@ zero_extendqisi2	@ CAN_InitStruct_113(D)->CAN_TXFP, CAN_InitStruct_113(D)->CA
 474 0146 012B     		cmp	r3, #1	@ CAN_InitStruct_113(D)->CAN_TXFP,
 475              	@ ../Libraries/STM32F4xx_StdPeriph_Driver/src/stm32f4xx_can.c:282:       CANx->MCR |= CAN_MCR_TXFP;
 281:../Libraries/STM32F4xx_StdPeriph_Driver/src/stm32f4xx_can.c ****     {
 282:../Libraries/STM32F4xx_StdPeriph_Driver/src/stm32f4xx_can.c ****       CANx->MCR |= CAN_MCR_TXFP;
 476              		.loc 1 282 17 view .LVU97
 477 0148 2368     		ldr	r3, [r4]	@ _69,* CANx
 478              		.loc 1 282 7 is_stmt 1 view .LVU98
 479              	@ ../Libraries/STM32F4xx_StdPeriph_Driver/src/stm32f4xx_can.c:282:       CANx->MCR |= CAN_MCR_TXFP;
 480              		.loc 1 282 17 is_stmt 0 view .LVU99
 481 014a 0CBF     		ite	eq
 482 014c 43F00403 		orreq	r3, r3, #4	@ _70, _69,
 283:../Libraries/STM32F4xx_StdPeriph_Driver/src/stm32f4xx_can.c ****     }
 284:../Libraries/STM32F4xx_StdPeriph_Driver/src/stm32f4xx_can.c ****     else
 285:../Libraries/STM32F4xx_StdPeriph_Driver/src/stm32f4xx_can.c ****     {
 286:../Libraries/STM32F4xx_StdPeriph_Driver/src/stm32f4xx_can.c ****       CANx->MCR &= ~(uint32_t)CAN_MCR_TXFP;
 483              		.loc 1 286 7 is_stmt 1 view .LVU100
 287:../Libraries/STM32F4xx_StdPeriph_Driver/src/stm32f4xx_can.c ****     }
 288:../Libraries/STM32F4xx_StdPeriph_Driver/src/stm32f4xx_can.c **** 
 289:../Libraries/STM32F4xx_StdPeriph_Driver/src/stm32f4xx_can.c ****     /* Set the bit timing register */
 290:../Libraries/STM32F4xx_StdPeriph_Driver/src/stm32f4xx_can.c ****     CANx->BTR = (uint32_t)((uint32_t)CAN_InitStruct->CAN_Mode << 30) | \
 484              		.loc 1 290 5 view .LVU101
 485              	@ ../Libraries/STM32F4xx_StdPeriph_Driver/src/stm32f4xx_can.c:286:       CANx->MCR &= ~(uint32_t)CA
 286:../Libraries/STM32F4xx_StdPeriph_Driver/src/stm32f4xx_can.c ****     }
 486              		.loc 1 286 17 is_stmt 0 view .LVU102
 487 0150 23F00403 		bicne	r3, r3, #4	@ _72, _71,
 488 0154 2360     		str	r3, [r4]	@ _72,* CANx
 489              	@ ../Libraries/STM32F4xx_StdPeriph_Driver/src/stm32f4xx_can.c:291:                 ((uint32_t)CAN_I
 291:../Libraries/STM32F4xx_StdPeriph_Driver/src/stm32f4xx_can.c ****                 ((uint32_t)CAN_InitStruct->CAN_SJW << 24) | \
 490              		.loc 1 291 18 view .LVU103
 491 0156 EB78     		ldrb	r3, [r5, #3]	@ zero_extendqisi2	@ CAN_InitStruct_113(D)->CAN_SJW, CAN_InitStruct_113(D)->CAN_
 492              	@ ../Libraries/STM32F4xx_StdPeriph_Driver/src/stm32f4xx_can.c:290:     CANx->BTR = (uint32_t)((uint
 290:../Libraries/STM32F4xx_StdPeriph_Driver/src/stm32f4xx_can.c ****                 ((uint32_t)CAN_InitStruct->CAN_SJW << 24) | \
ARM GAS  C:\Users\admin\AppData\Local\Temp\ccqywAa9.s 			page 15


 493              		.loc 1 290 28 view .LVU104
 494 0158 A978     		ldrb	r1, [r5, #2]	@ zero_extendqisi2	@ CAN_InitStruct_113(D)->CAN_Mode, CAN_InitStruct_113(D)->CAN
 495              	@ ../Libraries/STM32F4xx_StdPeriph_Driver/src/stm32f4xx_can.c:292:                 ((uint32_t)CAN_I
 292:../Libraries/STM32F4xx_StdPeriph_Driver/src/stm32f4xx_can.c ****                 ((uint32_t)CAN_InitStruct->CAN_BS1 << 16) | \
 496              		.loc 1 292 18 view .LVU105
 497 015a 2A79     		ldrb	r2, [r5, #4]	@ zero_extendqisi2	@ CAN_InitStruct_113(D)->CAN_BS1, CAN_InitStruct_113(D)->CAN_
 498              	@ ../Libraries/STM32F4xx_StdPeriph_Driver/src/stm32f4xx_can.c:291:                 ((uint32_t)CAN_I
 291:../Libraries/STM32F4xx_StdPeriph_Driver/src/stm32f4xx_can.c ****                 ((uint32_t)CAN_InitStruct->CAN_SJW << 24) | \
 499              		.loc 1 291 52 view .LVU106
 500 015c 1B06     		lsls	r3, r3, #24	@ tmp296, CAN_InitStruct_113(D)->CAN_SJW,
 501              	@ ../Libraries/STM32F4xx_StdPeriph_Driver/src/stm32f4xx_can.c:290:     CANx->BTR = (uint32_t)((uint
 290:../Libraries/STM32F4xx_StdPeriph_Driver/src/stm32f4xx_can.c ****                 ((uint32_t)CAN_InitStruct->CAN_SJW << 24) | \
 502              		.loc 1 290 70 view .LVU107
 503 015e 43EA8173 		orr	r3, r3, r1, lsl #30	@ tmp297, tmp296, CAN_InitStruct_113(D)->CAN_Mode,
 504              	@ ../Libraries/STM32F4xx_StdPeriph_Driver/src/stm32f4xx_can.c:291:                 ((uint32_t)CAN_I
 291:../Libraries/STM32F4xx_StdPeriph_Driver/src/stm32f4xx_can.c ****                 ((uint32_t)CAN_InitStruct->CAN_SJW << 24) | \
 505              		.loc 1 291 59 view .LVU108
 506 0162 43EA0243 		orr	r3, r3, r2, lsl #16	@ tmp300, tmp297, CAN_InitStruct_113(D)->CAN_BS1,
 507              	@ ../Libraries/STM32F4xx_StdPeriph_Driver/src/stm32f4xx_can.c:293:                 ((uint32_t)CAN_I
 293:../Libraries/STM32F4xx_StdPeriph_Driver/src/stm32f4xx_can.c ****                 ((uint32_t)CAN_InitStruct->CAN_BS2 << 20) | \
 508              		.loc 1 293 18 view .LVU109
 509 0166 6979     		ldrb	r1, [r5, #5]	@ zero_extendqisi2	@ CAN_InitStruct_113(D)->CAN_BS2, CAN_InitStruct_113(D)->CAN_
 510              	@ ../Libraries/STM32F4xx_StdPeriph_Driver/src/stm32f4xx_can.c:294:                ((uint32_t)CAN_In
 294:../Libraries/STM32F4xx_StdPeriph_Driver/src/stm32f4xx_can.c ****                ((uint32_t)CAN_InitStruct->CAN_Prescaler - 1);
 511              		.loc 1 294 17 view .LVU110
 512 0168 2A88     		ldrh	r2, [r5]	@ CAN_InitStruct_113(D)->CAN_Prescaler, CAN_InitStruct_113(D)->CAN_Prescaler
 513              	@ ../Libraries/STM32F4xx_StdPeriph_Driver/src/stm32f4xx_can.c:292:                 ((uint32_t)CAN_I
 292:../Libraries/STM32F4xx_StdPeriph_Driver/src/stm32f4xx_can.c ****                 ((uint32_t)CAN_InitStruct->CAN_BS1 << 16) | \
 514              		.loc 1 292 59 view .LVU111
 515 016a 43EA0153 		orr	r3, r3, r1, lsl #20	@ tmp303, tmp300, CAN_InitStruct_113(D)->CAN_BS2,
 516              	@ ../Libraries/STM32F4xx_StdPeriph_Driver/src/stm32f4xx_can.c:294:                ((uint32_t)CAN_In
 517              		.loc 1 294 57 view .LVU112
 518 016e 013A     		subs	r2, r2, #1	@ tmp305, CAN_InitStruct_113(D)->CAN_Prescaler,
 519              	@ ../Libraries/STM32F4xx_StdPeriph_Driver/src/stm32f4xx_can.c:293:                 ((uint32_t)CAN_I
 293:../Libraries/STM32F4xx_StdPeriph_Driver/src/stm32f4xx_can.c ****                 ((uint32_t)CAN_InitStruct->CAN_BS2 << 20) | \
 520              		.loc 1 293 59 view .LVU113
 521 0170 1343     		orrs	r3, r3, r2	@, _91, tmp303, tmp305
 522              	@ ../Libraries/STM32F4xx_StdPeriph_Driver/src/stm32f4xx_can.c:290:     CANx->BTR = (uint32_t)((uint
 290:../Libraries/STM32F4xx_StdPeriph_Driver/src/stm32f4xx_can.c ****                 ((uint32_t)CAN_InitStruct->CAN_SJW << 24) | \
 523              		.loc 1 290 15 view .LVU114
 524 0172 E361     		str	r3, [r4, #28]	@ _91, CANx_110(D)->BTR
 295:../Libraries/STM32F4xx_StdPeriph_Driver/src/stm32f4xx_can.c **** 
 296:../Libraries/STM32F4xx_StdPeriph_Driver/src/stm32f4xx_can.c ****     /* Request leave initialisation */
 297:../Libraries/STM32F4xx_StdPeriph_Driver/src/stm32f4xx_can.c ****     CANx->MCR &= ~(uint32_t)CAN_MCR_INRQ;
 525              		.loc 1 297 5 is_stmt 1 view .LVU115
 526              	@ ../Libraries/STM32F4xx_StdPeriph_Driver/src/stm32f4xx_can.c:297:     CANx->MCR &= ~(uint32_t)CAN_
 527              		.loc 1 297 15 is_stmt 0 view .LVU116
 528 0174 2368     		ldr	r3, [r4]	@ _92, CANx_110(D)->MCR
 529 0176 23F00103 		bic	r3, r3, #1	@ _93, _92,
 530 017a 2360     		str	r3, [r4]	@ _93, CANx_110(D)->MCR
 298:../Libraries/STM32F4xx_StdPeriph_Driver/src/stm32f4xx_can.c **** 
 299:../Libraries/STM32F4xx_StdPeriph_Driver/src/stm32f4xx_can.c ****    /* Wait the acknowledge */
 300:../Libraries/STM32F4xx_StdPeriph_Driver/src/stm32f4xx_can.c ****    wait_ack = 0;
 531              		.loc 1 300 4 is_stmt 1 view .LVU117
 532              	.LVL25:
 301:../Libraries/STM32F4xx_StdPeriph_Driver/src/stm32f4xx_can.c **** 
 302:../Libraries/STM32F4xx_StdPeriph_Driver/src/stm32f4xx_can.c ****    while (((CANx->MSR & CAN_MSR_INAK) == CAN_MSR_INAK) && (wait_ack != INAK_TIMEOUT))
ARM GAS  C:\Users\admin\AppData\Local\Temp\ccqywAa9.s 			page 16


 533              		.loc 1 302 4 view .LVU118
 534              		.loc 1 302 10 view .LVU119
 535              	@ ../Libraries/STM32F4xx_StdPeriph_Driver/src/stm32f4xx_can.c:302:    while (((CANx->MSR & CAN_MSR_
 536              		.loc 1 302 17 is_stmt 0 view .LVU120
 537 017c 6368     		ldr	r3, [r4, #4]	@ _162, CANx_110(D)->MSR
 538              	@ ../Libraries/STM32F4xx_StdPeriph_Driver/src/stm32f4xx_can.c:302:    while (((CANx->MSR & CAN_MSR_
 539              		.loc 1 302 10 view .LVU121
 540 017e D907     		lsls	r1, r3, #31	@, _162,
 541 0180 07D5     		bpl	.L24		@,
 542 0182 4FF6FF73 		movw	r3, #65535	@ ivtmp_99,
 543 0186 01E0     		b	.L25		@
 544              	.LVL26:
 545              	.L38:
 546              	@ ../Libraries/STM32F4xx_StdPeriph_Driver/src/stm32f4xx_can.c:302:    while (((CANx->MSR & CAN_MSR_
 547              		.loc 1 302 56 discriminator 1 view .LVU122
 548 0188 013B     		subs	r3, r3, #1	@ ivtmp_99, ivtmp_99,
 549 018a 02D0     		beq	.L24		@,
 550              	.L25:
 303:../Libraries/STM32F4xx_StdPeriph_Driver/src/stm32f4xx_can.c ****    {
 304:../Libraries/STM32F4xx_StdPeriph_Driver/src/stm32f4xx_can.c ****      wait_ack++;
 551              		.loc 1 304 6 is_stmt 1 view .LVU123
 302:../Libraries/STM32F4xx_StdPeriph_Driver/src/stm32f4xx_can.c ****    {
 552              		.loc 1 302 10 view .LVU124
 553              	@ ../Libraries/STM32F4xx_StdPeriph_Driver/src/stm32f4xx_can.c:302:    while (((CANx->MSR & CAN_MSR_
 302:../Libraries/STM32F4xx_StdPeriph_Driver/src/stm32f4xx_can.c ****    {
 554              		.loc 1 302 17 is_stmt 0 view .LVU125
 555 018c 6268     		ldr	r2, [r4, #4]	@ _94, CANx_110(D)->MSR
 556              	@ ../Libraries/STM32F4xx_StdPeriph_Driver/src/stm32f4xx_can.c:302:    while (((CANx->MSR & CAN_MSR_
 302:../Libraries/STM32F4xx_StdPeriph_Driver/src/stm32f4xx_can.c ****    {
 557              		.loc 1 302 10 view .LVU126
 558 018e D207     		lsls	r2, r2, #31	@, _94,
 559 0190 FAD4     		bmi	.L38		@,
 560              	.L24:
 305:../Libraries/STM32F4xx_StdPeriph_Driver/src/stm32f4xx_can.c ****    }
 306:../Libraries/STM32F4xx_StdPeriph_Driver/src/stm32f4xx_can.c **** 
 307:../Libraries/STM32F4xx_StdPeriph_Driver/src/stm32f4xx_can.c ****     /* ...and check acknowledged */
 308:../Libraries/STM32F4xx_StdPeriph_Driver/src/stm32f4xx_can.c ****     if ((CANx->MSR & CAN_MSR_INAK) == CAN_MSR_INAK)
 561              		.loc 1 308 5 is_stmt 1 view .LVU127
 562              	@ ../Libraries/STM32F4xx_StdPeriph_Driver/src/stm32f4xx_can.c:308:     if ((CANx->MSR & CAN_MSR_INA
 563              		.loc 1 308 14 is_stmt 0 view .LVU128
 564 0192 6068     		ldr	r0, [r4, #4]	@ _96, CANx_110(D)->MSR
 565              	@ ../Libraries/STM32F4xx_StdPeriph_Driver/src/stm32f4xx_can.c:308:     if ((CANx->MSR & CAN_MSR_INA
 566              		.loc 1 308 8 view .LVU129
 567 0194 C043     		mvns	r0, r0	@ tmp308, _96
 568 0196 00F00100 		and	r0, r0, #1	@ <retval>, tmp308,
 569              	.L11:
 570              	.LVL27:
 309:../Libraries/STM32F4xx_StdPeriph_Driver/src/stm32f4xx_can.c ****     {
 310:../Libraries/STM32F4xx_StdPeriph_Driver/src/stm32f4xx_can.c ****       InitStatus = CAN_InitStatus_Failed;
 311:../Libraries/STM32F4xx_StdPeriph_Driver/src/stm32f4xx_can.c ****     }
 312:../Libraries/STM32F4xx_StdPeriph_Driver/src/stm32f4xx_can.c ****     else
 313:../Libraries/STM32F4xx_StdPeriph_Driver/src/stm32f4xx_can.c ****     {
 314:../Libraries/STM32F4xx_StdPeriph_Driver/src/stm32f4xx_can.c ****       InitStatus = CAN_InitStatus_Success ;
 315:../Libraries/STM32F4xx_StdPeriph_Driver/src/stm32f4xx_can.c ****     }
 316:../Libraries/STM32F4xx_StdPeriph_Driver/src/stm32f4xx_can.c ****   }
 317:../Libraries/STM32F4xx_StdPeriph_Driver/src/stm32f4xx_can.c **** 
 318:../Libraries/STM32F4xx_StdPeriph_Driver/src/stm32f4xx_can.c ****   /* At this step, return the status of initialization */
ARM GAS  C:\Users\admin\AppData\Local\Temp\ccqywAa9.s 			page 17


 319:../Libraries/STM32F4xx_StdPeriph_Driver/src/stm32f4xx_can.c ****   return InitStatus;
 571              		.loc 1 319 3 is_stmt 1 view .LVU130
 572              	@ ../Libraries/STM32F4xx_StdPeriph_Driver/src/stm32f4xx_can.c:320: }
 320:../Libraries/STM32F4xx_StdPeriph_Driver/src/stm32f4xx_can.c **** }
 573              		.loc 1 320 1 is_stmt 0 view .LVU131
 574 019a 38BD     		pop	{r3, r4, r5, pc}	@
 575              	.LVL28:
 576              	.L26:
 577              	@ ../Libraries/STM32F4xx_StdPeriph_Driver/src/stm32f4xx_can.c:197:   assert_param(IS_CAN_ALL_PERIPH
 197:../Libraries/STM32F4xx_StdPeriph_Driver/src/stm32f4xx_can.c ****   assert_param(IS_FUNCTIONAL_STATE(CAN_InitStruct->CAN_TTCM));
 578              		.loc 1 197 3 view .LVU132
 579 019c 0120     		movs	r0, #1	@ iftmp.1_101,
 580              	.LVL29:
 197:../Libraries/STM32F4xx_StdPeriph_Driver/src/stm32f4xx_can.c ****   assert_param(IS_FUNCTIONAL_STATE(CAN_InitStruct->CAN_TTCM));
 581              		.loc 1 197 3 view .LVU133
 582 019e 3BE7     		b	.L8		@
 583              	.L40:
 584              		.align	2
 585              	.L39:
 586 01a0 00640040 		.word	1073767424
 587 01a4 00680040 		.word	1073768448
 588              		.cfi_endproc
 589              	.LFE111:
 590              		.size	CAN_Init, .-CAN_Init
 591              		.section	.text.CAN_FilterInit,"ax",%progbits
 592              		.align	1
 593              		.p2align 2,,3
 594              		.global	CAN_FilterInit
 595              		.syntax unified
 596              		.thumb
 597              		.thumb_func
 598              		.type	CAN_FilterInit, %function
 599              	CAN_FilterInit:
 600              	.LVL30:
 601              	.LFB112:
 321:../Libraries/STM32F4xx_StdPeriph_Driver/src/stm32f4xx_can.c **** 
 322:../Libraries/STM32F4xx_StdPeriph_Driver/src/stm32f4xx_can.c **** /**
 323:../Libraries/STM32F4xx_StdPeriph_Driver/src/stm32f4xx_can.c ****   * @brief  Configures the CAN reception filter according to the specified
 324:../Libraries/STM32F4xx_StdPeriph_Driver/src/stm32f4xx_can.c ****   *         parameters in the CAN_FilterInitStruct.
 325:../Libraries/STM32F4xx_StdPeriph_Driver/src/stm32f4xx_can.c ****   * @param  CAN_FilterInitStruct: pointer to a CAN_FilterInitTypeDef structure that
 326:../Libraries/STM32F4xx_StdPeriph_Driver/src/stm32f4xx_can.c ****   *         contains the configuration information.
 327:../Libraries/STM32F4xx_StdPeriph_Driver/src/stm32f4xx_can.c ****   * @retval None
 328:../Libraries/STM32F4xx_StdPeriph_Driver/src/stm32f4xx_can.c ****   */
 329:../Libraries/STM32F4xx_StdPeriph_Driver/src/stm32f4xx_can.c **** void CAN_FilterInit(CAN_FilterInitTypeDef* CAN_FilterInitStruct)
 330:../Libraries/STM32F4xx_StdPeriph_Driver/src/stm32f4xx_can.c **** {
 602              		.loc 1 330 1 is_stmt 1 view -0
 603              		.cfi_startproc
 604              		@ args = 0, pretend = 0, frame = 0
 605              		@ frame_needed = 0, uses_anonymous_args = 0
 331:../Libraries/STM32F4xx_StdPeriph_Driver/src/stm32f4xx_can.c ****   uint32_t filter_number_bit_pos = 0;
 606              		.loc 1 331 3 view .LVU135
 332:../Libraries/STM32F4xx_StdPeriph_Driver/src/stm32f4xx_can.c ****   /* Check the parameters */
 333:../Libraries/STM32F4xx_StdPeriph_Driver/src/stm32f4xx_can.c ****   assert_param(IS_CAN_FILTER_NUMBER(CAN_FilterInitStruct->CAN_FilterNumber));
 607              		.loc 1 333 3 view .LVU136
 608              	@ ../Libraries/STM32F4xx_StdPeriph_Driver/src/stm32f4xx_can.c:330: {
 330:../Libraries/STM32F4xx_StdPeriph_Driver/src/stm32f4xx_can.c ****   uint32_t filter_number_bit_pos = 0;
 609              		.loc 1 330 1 is_stmt 0 view .LVU137
ARM GAS  C:\Users\admin\AppData\Local\Temp\ccqywAa9.s 			page 18


 610 0000 38B5     		push	{r3, r4, r5, lr}	@
 611              		.cfi_def_cfa_offset 16
 612              		.cfi_offset 3, -16
 613              		.cfi_offset 4, -12
 614              		.cfi_offset 5, -8
 615              		.cfi_offset 14, -4
 616              	@ ../Libraries/STM32F4xx_StdPeriph_Driver/src/stm32f4xx_can.c:330: {
 330:../Libraries/STM32F4xx_StdPeriph_Driver/src/stm32f4xx_can.c ****   uint32_t filter_number_bit_pos = 0;
 617              		.loc 1 330 1 view .LVU138
 618 0002 0446     		mov	r4, r0	@ CAN_FilterInitStruct, tmp255
 619              	@ ../Libraries/STM32F4xx_StdPeriph_Driver/src/stm32f4xx_can.c:333:   assert_param(IS_CAN_FILTER_NUM
 620              		.loc 1 333 3 view .LVU139
 621 0004 807A     		ldrb	r0, [r0, #10]	@ zero_extendqisi2	@ CAN_FilterInitStruct_74(D)->CAN_FilterNumber, CAN_FilterIn
 622              	.LVL31:
 623              		.loc 1 333 3 view .LVU140
 624 0006 1B28     		cmp	r0, #27	@ CAN_FilterInitStruct_74(D)->CAN_FilterNumber,
 625 0008 8CBF     		ite	hi
 626 000a 0020     		movhi	r0, #0	@,
 627 000c 0120     		movls	r0, #1	@,
 628 000e FFF7FEFF 		bl	assert_param		@
 629              	.LVL32:
 334:../Libraries/STM32F4xx_StdPeriph_Driver/src/stm32f4xx_can.c ****   assert_param(IS_CAN_FILTER_MODE(CAN_FilterInitStruct->CAN_FilterMode));
 630              		.loc 1 334 3 is_stmt 1 view .LVU141
 631 0012 E07A     		ldrb	r0, [r4, #11]	@ zero_extendqisi2	@ CAN_FilterInitStruct_74(D)->CAN_FilterMode, CAN_FilterInit
 632 0014 0128     		cmp	r0, #1	@ CAN_FilterInitStruct_74(D)->CAN_FilterMode,
 633 0016 8CBF     		ite	hi
 634 0018 0020     		movhi	r0, #0	@,
 635 001a 0120     		movls	r0, #1	@,
 636 001c FFF7FEFF 		bl	assert_param		@
 637              	.LVL33:
 335:../Libraries/STM32F4xx_StdPeriph_Driver/src/stm32f4xx_can.c ****   assert_param(IS_CAN_FILTER_SCALE(CAN_FilterInitStruct->CAN_FilterScale));
 638              		.loc 1 335 3 view .LVU142
 639 0020 207B     		ldrb	r0, [r4, #12]	@ zero_extendqisi2	@ CAN_FilterInitStruct_74(D)->CAN_FilterScale, CAN_FilterIni
 640 0022 0128     		cmp	r0, #1	@ CAN_FilterInitStruct_74(D)->CAN_FilterScale,
 641 0024 8CBF     		ite	hi
 642 0026 0020     		movhi	r0, #0	@,
 643 0028 0120     		movls	r0, #1	@,
 644 002a FFF7FEFF 		bl	assert_param		@
 645              	.LVL34:
 336:../Libraries/STM32F4xx_StdPeriph_Driver/src/stm32f4xx_can.c ****   assert_param(IS_CAN_FILTER_FIFO(CAN_FilterInitStruct->CAN_FilterFIFOAssignment));
 646              		.loc 1 336 3 view .LVU143
 647 002e 2089     		ldrh	r0, [r4, #8]	@ CAN_FilterInitStruct_74(D)->CAN_FilterFIFOAssignment, CAN_FilterInitStruct_74(
 648 0030 0128     		cmp	r0, #1	@ CAN_FilterInitStruct_74(D)->CAN_FilterFIFOAssignment,
 649 0032 8CBF     		ite	hi
 650 0034 0020     		movhi	r0, #0	@,
 651 0036 0120     		movls	r0, #1	@,
 652 0038 FFF7FEFF 		bl	assert_param		@
 653              	.LVL35:
 337:../Libraries/STM32F4xx_StdPeriph_Driver/src/stm32f4xx_can.c ****   assert_param(IS_FUNCTIONAL_STATE(CAN_FilterInitStruct->CAN_FilterActivation));
 654              		.loc 1 337 3 view .LVU144
 655 003c 607B     		ldrb	r0, [r4, #13]	@ zero_extendqisi2	@ CAN_FilterInitStruct_74(D)->CAN_FilterActivation, CAN_Filt
 656 003e 0128     		cmp	r0, #1	@ CAN_FilterInitStruct_74(D)->CAN_FilterActivation,
 657 0040 8CBF     		ite	hi
 658 0042 0020     		movhi	r0, #0	@,
 659 0044 0120     		movls	r0, #1	@,
 660 0046 FFF7FEFF 		bl	assert_param		@
 661              	.LVL36:
ARM GAS  C:\Users\admin\AppData\Local\Temp\ccqywAa9.s 			page 19


 338:../Libraries/STM32F4xx_StdPeriph_Driver/src/stm32f4xx_can.c **** 
 339:../Libraries/STM32F4xx_StdPeriph_Driver/src/stm32f4xx_can.c ****   filter_number_bit_pos = ((uint32_t)1) << CAN_FilterInitStruct->CAN_FilterNumber;
 662              		.loc 1 339 3 view .LVU145
 663              	@ ../Libraries/STM32F4xx_StdPeriph_Driver/src/stm32f4xx_can.c:342:   CAN1->FMR |= FMR_FINIT;
 340:../Libraries/STM32F4xx_StdPeriph_Driver/src/stm32f4xx_can.c **** 
 341:../Libraries/STM32F4xx_StdPeriph_Driver/src/stm32f4xx_can.c ****   /* Initialisation mode for the filter */
 342:../Libraries/STM32F4xx_StdPeriph_Driver/src/stm32f4xx_can.c ****   CAN1->FMR |= FMR_FINIT;
 664              		.loc 1 342 13 is_stmt 0 view .LVU146
 665 004a 3A4A     		ldr	r2, .L51	@ tmp215,
 666              	@ ../Libraries/STM32F4xx_StdPeriph_Driver/src/stm32f4xx_can.c:339:   filter_number_bit_pos = ((uint
 339:../Libraries/STM32F4xx_StdPeriph_Driver/src/stm32f4xx_can.c **** 
 667              		.loc 1 339 64 view .LVU147
 668 004c A37A     		ldrb	r3, [r4, #10]	@ zero_extendqisi2	@ _16, CAN_FilterInitStruct_74(D)->CAN_FilterNumber
 669              	@ ../Libraries/STM32F4xx_StdPeriph_Driver/src/stm32f4xx_can.c:342:   CAN1->FMR |= FMR_FINIT;
 670              		.loc 1 342 13 view .LVU148
 671 004e D2F80002 		ldr	r0, [r2, #512]	@ _18, MEM[(struct CAN_TypeDef *)1073767424B].FMR
 672              	@ ../Libraries/STM32F4xx_StdPeriph_Driver/src/stm32f4xx_can.c:339:   filter_number_bit_pos = ((uint
 339:../Libraries/STM32F4xx_StdPeriph_Driver/src/stm32f4xx_can.c **** 
 673              		.loc 1 339 25 view .LVU149
 674 0052 0121     		movs	r1, #1	@ tmp214,
 675              	@ ../Libraries/STM32F4xx_StdPeriph_Driver/src/stm32f4xx_can.c:342:   CAN1->FMR |= FMR_FINIT;
 676              		.loc 1 342 13 view .LVU150
 677 0054 0843     		orrs	r0, r0, r1	@, _19, _18,
 678 0056 C2F80002 		str	r0, [r2, #512]	@ _19, MEM[(struct CAN_TypeDef *)1073767424B].FMR
 679              	@ ../Libraries/STM32F4xx_StdPeriph_Driver/src/stm32f4xx_can.c:345:   CAN1->FA1R &= ~(uint32_t)filte
 343:../Libraries/STM32F4xx_StdPeriph_Driver/src/stm32f4xx_can.c **** 
 344:../Libraries/STM32F4xx_StdPeriph_Driver/src/stm32f4xx_can.c ****   /* Filter Deactivation */
 345:../Libraries/STM32F4xx_StdPeriph_Driver/src/stm32f4xx_can.c ****   CAN1->FA1R &= ~(uint32_t)filter_number_bit_pos;
 680              		.loc 1 345 14 view .LVU151
 681 005a D2F81C02 		ldr	r0, [r2, #540]	@ _20, MEM[(struct CAN_TypeDef *)1073767424B].FA1R
 682              	@ ../Libraries/STM32F4xx_StdPeriph_Driver/src/stm32f4xx_can.c:339:   filter_number_bit_pos = ((uint
 339:../Libraries/STM32F4xx_StdPeriph_Driver/src/stm32f4xx_can.c **** 
 683              		.loc 1 339 25 view .LVU152
 684 005e 9940     		lsls	r1, r1, r3	@ filter_number_bit_pos, tmp214, _16
 685              	.LVL37:
 342:../Libraries/STM32F4xx_StdPeriph_Driver/src/stm32f4xx_can.c **** 
 686              		.loc 1 342 3 is_stmt 1 view .LVU153
 687              		.loc 1 345 3 view .LVU154
 688              	@ ../Libraries/STM32F4xx_StdPeriph_Driver/src/stm32f4xx_can.c:345:   CAN1->FA1R &= ~(uint32_t)filte
 689              		.loc 1 345 14 is_stmt 0 view .LVU155
 690 0060 20EA0100 		bic	r0, r0, r1	@ _22, _20, filter_number_bit_pos
 691 0064 C2F81C02 		str	r0, [r2, #540]	@ _22, MEM[(struct CAN_TypeDef *)1073767424B].FA1R
 346:../Libraries/STM32F4xx_StdPeriph_Driver/src/stm32f4xx_can.c **** 
 347:../Libraries/STM32F4xx_StdPeriph_Driver/src/stm32f4xx_can.c ****   /* Filter Scale */
 348:../Libraries/STM32F4xx_StdPeriph_Driver/src/stm32f4xx_can.c ****   if (CAN_FilterInitStruct->CAN_FilterScale == CAN_FilterScale_16bit)
 692              		.loc 1 348 3 is_stmt 1 view .LVU156
 693              	@ ../Libraries/STM32F4xx_StdPeriph_Driver/src/stm32f4xx_can.c:348:   if (CAN_FilterInitStruct->CAN_
 694              		.loc 1 348 27 is_stmt 0 view .LVU157
 695 0068 257B     		ldrb	r5, [r4, #12]	@ zero_extendqisi2	@ _23, CAN_FilterInitStruct_74(D)->CAN_FilterScale
 696              	@ ../Libraries/STM32F4xx_StdPeriph_Driver/src/stm32f4xx_can.c:345:   CAN1->FA1R &= ~(uint32_t)filte
 345:../Libraries/STM32F4xx_StdPeriph_Driver/src/stm32f4xx_can.c **** 
 697              		.loc 1 345 17 view .LVU158
 698 006a C843     		mvns	r0, r1	@ _21, filter_number_bit_pos
 699              	@ ../Libraries/STM32F4xx_StdPeriph_Driver/src/stm32f4xx_can.c:348:   if (CAN_FilterInitStruct->CAN_
 700              		.loc 1 348 6 view .LVU159
 701 006c 002D     		cmp	r5, #0	@ _23
 702 006e 47D1     		bne	.L42	@
ARM GAS  C:\Users\admin\AppData\Local\Temp\ccqywAa9.s 			page 20


 349:../Libraries/STM32F4xx_StdPeriph_Driver/src/stm32f4xx_can.c ****   {
 350:../Libraries/STM32F4xx_StdPeriph_Driver/src/stm32f4xx_can.c ****     /* 16-bit scale for the filter */
 351:../Libraries/STM32F4xx_StdPeriph_Driver/src/stm32f4xx_can.c ****     CAN1->FS1R &= ~(uint32_t)filter_number_bit_pos;
 703              		.loc 1 351 5 is_stmt 1 view .LVU160
 704              	@ ../Libraries/STM32F4xx_StdPeriph_Driver/src/stm32f4xx_can.c:351:     CAN1->FS1R &= ~(uint32_t)fil
 705              		.loc 1 351 16 is_stmt 0 view .LVU161
 706 0070 D2F80C52 		ldr	r5, [r2, #524]	@ _24, MEM[(struct CAN_TypeDef *)1073767424B].FS1R
 707 0074 DB00     		lsls	r3, r3, #3	@ tmp225, _16,
 708 0076 0540     		ands	r5, r5, r0	@, _25, _24, _21
 709 0078 C2F80C52 		str	r5, [r2, #524]	@ _25, MEM[(struct CAN_TypeDef *)1073767424B].FS1R
 352:../Libraries/STM32F4xx_StdPeriph_Driver/src/stm32f4xx_can.c **** 
 353:../Libraries/STM32F4xx_StdPeriph_Driver/src/stm32f4xx_can.c ****     /* First 16-bit identifier and First 16-bit mask */
 354:../Libraries/STM32F4xx_StdPeriph_Driver/src/stm32f4xx_can.c ****     /* Or First 16-bit identifier and Second 16-bit identifier */
 355:../Libraries/STM32F4xx_StdPeriph_Driver/src/stm32f4xx_can.c ****     CAN1->sFilterRegister[CAN_FilterInitStruct->CAN_FilterNumber].FR1 = 
 710              		.loc 1 355 5 is_stmt 1 view .LVU162
 711 007c 03F18043 		add	r3, r3, #1073741824	@ _95, tmp225,
 712              	@ ../Libraries/STM32F4xx_StdPeriph_Driver/src/stm32f4xx_can.c:356:        ((0x0000FFFF & (uint32_t)
 356:../Libraries/STM32F4xx_StdPeriph_Driver/src/stm32f4xx_can.c ****        ((0x0000FFFF & (uint32_t)CAN_FilterInitStruct->CAN_FilterMaskIdLow) << 16) |
 713              		.loc 1 356 21 is_stmt 0 view .LVU163
 714 0080 E588     		ldrh	r5, [r4, #6]	@ CAN_FilterInitStruct_74(D)->CAN_FilterMaskIdLow, CAN_FilterInitStruct_74(D)->C
 715              	@ ../Libraries/STM32F4xx_StdPeriph_Driver/src/stm32f4xx_can.c:357:         (0x0000FFFF & (uint32_t)
 357:../Libraries/STM32F4xx_StdPeriph_Driver/src/stm32f4xx_can.c ****         (0x0000FFFF & (uint32_t)CAN_FilterInitStruct->CAN_FilterIdLow);
 716              		.loc 1 357 21 view .LVU164
 717 0082 6288     		ldrh	r2, [r4, #2]	@ CAN_FilterInitStruct_74(D)->CAN_FilterIdLow, CAN_FilterInitStruct_74(D)->CAN_F
 718 0084 03F5C843 		add	r3, r3, #25600	@ _95, _95,
 719              	@ ../Libraries/STM32F4xx_StdPeriph_Driver/src/stm32f4xx_can.c:356:        ((0x0000FFFF & (uint32_t)
 356:../Libraries/STM32F4xx_StdPeriph_Driver/src/stm32f4xx_can.c ****        ((0x0000FFFF & (uint32_t)CAN_FilterInitStruct->CAN_FilterMaskIdLow) << 16) |
 720              		.loc 1 356 83 view .LVU165
 721 0088 42EA0542 		orr	r2, r2, r5, lsl #16	@ _31, CAN_FilterInitStruct_74(D)->CAN_FilterIdLow, CAN_FilterInitStruct_7
 722              	@ ../Libraries/STM32F4xx_StdPeriph_Driver/src/stm32f4xx_can.c:355:     CAN1->sFilterRegister[CAN_Fi
 355:../Libraries/STM32F4xx_StdPeriph_Driver/src/stm32f4xx_can.c ****        ((0x0000FFFF & (uint32_t)CAN_FilterInitStruct->CAN_FilterMaskIdLow) << 16) |
 723              		.loc 1 355 71 view .LVU166
 724 008c C3F84022 		str	r2, [r3, #576]	@ _31, MEM <volatile uint32_t> [(struct CAN_TypeDef *)_95 + 576B]
 358:../Libraries/STM32F4xx_StdPeriph_Driver/src/stm32f4xx_can.c **** 
 359:../Libraries/STM32F4xx_StdPeriph_Driver/src/stm32f4xx_can.c ****     /* Second 16-bit identifier and Second 16-bit mask */
 360:../Libraries/STM32F4xx_StdPeriph_Driver/src/stm32f4xx_can.c ****     /* Or Third 16-bit identifier and Fourth 16-bit identifier */
 361:../Libraries/STM32F4xx_StdPeriph_Driver/src/stm32f4xx_can.c ****     CAN1->sFilterRegister[CAN_FilterInitStruct->CAN_FilterNumber].FR2 = 
 725              		.loc 1 361 5 is_stmt 1 view .LVU167
 726              	@ ../Libraries/STM32F4xx_StdPeriph_Driver/src/stm32f4xx_can.c:362:        ((0x0000FFFF & (uint32_t)
 362:../Libraries/STM32F4xx_StdPeriph_Driver/src/stm32f4xx_can.c ****        ((0x0000FFFF & (uint32_t)CAN_FilterInitStruct->CAN_FilterMaskIdHigh) << 16) |
 727              		.loc 1 362 21 is_stmt 0 view .LVU168
 728 0090 A588     		ldrh	r5, [r4, #4]	@ CAN_FilterInitStruct_74(D)->CAN_FilterMaskIdHigh, CAN_FilterInitStruct_74(D)->
 729              	@ ../Libraries/STM32F4xx_StdPeriph_Driver/src/stm32f4xx_can.c:363:         (0x0000FFFF & (uint32_t)
 363:../Libraries/STM32F4xx_StdPeriph_Driver/src/stm32f4xx_can.c ****         (0x0000FFFF & (uint32_t)CAN_FilterInitStruct->CAN_FilterIdHigh);
 730              		.loc 1 363 21 view .LVU169
 731 0092 2288     		ldrh	r2, [r4]	@ CAN_FilterInitStruct_74(D)->CAN_FilterIdHigh, CAN_FilterInitStruct_74(D)->CAN_Filt
 732              	@ ../Libraries/STM32F4xx_StdPeriph_Driver/src/stm32f4xx_can.c:362:        ((0x0000FFFF & (uint32_t)
 362:../Libraries/STM32F4xx_StdPeriph_Driver/src/stm32f4xx_can.c ****        ((0x0000FFFF & (uint32_t)CAN_FilterInitStruct->CAN_FilterMaskIdHigh) << 16) |
 733              		.loc 1 362 84 view .LVU170
 734 0094 42EA0542 		orr	r2, r2, r5, lsl #16	@ _37, CAN_FilterInitStruct_74(D)->CAN_FilterIdHigh, CAN_FilterInitStruct_
 735              	@ ../Libraries/STM32F4xx_StdPeriph_Driver/src/stm32f4xx_can.c:361:     CAN1->sFilterRegister[CAN_Fi
 361:../Libraries/STM32F4xx_StdPeriph_Driver/src/stm32f4xx_can.c ****        ((0x0000FFFF & (uint32_t)CAN_FilterInitStruct->CAN_FilterMaskIdHigh) << 16) |
 736              		.loc 1 361 71 view .LVU171
 737 0098 C3F84422 		str	r2, [r3, #580]	@ _37,
 364:../Libraries/STM32F4xx_StdPeriph_Driver/src/stm32f4xx_can.c ****   }
 365:../Libraries/STM32F4xx_StdPeriph_Driver/src/stm32f4xx_can.c **** 
 366:../Libraries/STM32F4xx_StdPeriph_Driver/src/stm32f4xx_can.c ****   if (CAN_FilterInitStruct->CAN_FilterScale == CAN_FilterScale_32bit)
ARM GAS  C:\Users\admin\AppData\Local\Temp\ccqywAa9.s 			page 21


 738              		.loc 1 366 3 is_stmt 1 view .LVU172
 739              	.L43:
 367:../Libraries/STM32F4xx_StdPeriph_Driver/src/stm32f4xx_can.c ****   {
 368:../Libraries/STM32F4xx_StdPeriph_Driver/src/stm32f4xx_can.c ****     /* 32-bit scale for the filter */
 369:../Libraries/STM32F4xx_StdPeriph_Driver/src/stm32f4xx_can.c ****     CAN1->FS1R |= filter_number_bit_pos;
 370:../Libraries/STM32F4xx_StdPeriph_Driver/src/stm32f4xx_can.c ****     /* 32-bit identifier or First 32-bit identifier */
 371:../Libraries/STM32F4xx_StdPeriph_Driver/src/stm32f4xx_can.c ****     CAN1->sFilterRegister[CAN_FilterInitStruct->CAN_FilterNumber].FR1 = 
 372:../Libraries/STM32F4xx_StdPeriph_Driver/src/stm32f4xx_can.c ****        ((0x0000FFFF & (uint32_t)CAN_FilterInitStruct->CAN_FilterIdHigh) << 16) |
 373:../Libraries/STM32F4xx_StdPeriph_Driver/src/stm32f4xx_can.c ****         (0x0000FFFF & (uint32_t)CAN_FilterInitStruct->CAN_FilterIdLow);
 374:../Libraries/STM32F4xx_StdPeriph_Driver/src/stm32f4xx_can.c ****     /* 32-bit mask or Second 32-bit identifier */
 375:../Libraries/STM32F4xx_StdPeriph_Driver/src/stm32f4xx_can.c ****     CAN1->sFilterRegister[CAN_FilterInitStruct->CAN_FilterNumber].FR2 = 
 376:../Libraries/STM32F4xx_StdPeriph_Driver/src/stm32f4xx_can.c ****        ((0x0000FFFF & (uint32_t)CAN_FilterInitStruct->CAN_FilterMaskIdHigh) << 16) |
 377:../Libraries/STM32F4xx_StdPeriph_Driver/src/stm32f4xx_can.c ****         (0x0000FFFF & (uint32_t)CAN_FilterInitStruct->CAN_FilterMaskIdLow);
 378:../Libraries/STM32F4xx_StdPeriph_Driver/src/stm32f4xx_can.c ****   }
 379:../Libraries/STM32F4xx_StdPeriph_Driver/src/stm32f4xx_can.c **** 
 380:../Libraries/STM32F4xx_StdPeriph_Driver/src/stm32f4xx_can.c ****   /* Filter Mode */
 381:../Libraries/STM32F4xx_StdPeriph_Driver/src/stm32f4xx_can.c ****   if (CAN_FilterInitStruct->CAN_FilterMode == CAN_FilterMode_IdMask)
 740              		.loc 1 381 3 view .LVU173
 741              	@ ../Libraries/STM32F4xx_StdPeriph_Driver/src/stm32f4xx_can.c:381:   if (CAN_FilterInitStruct->CAN_
 742              		.loc 1 381 6 is_stmt 0 view .LVU174
 743 009c E37A     		ldrb	r3, [r4, #11]	@ zero_extendqisi2	@ CAN_FilterInitStruct_74(D)->CAN_FilterMode, CAN_FilterInit
 744              	@ ../Libraries/STM32F4xx_StdPeriph_Driver/src/stm32f4xx_can.c:384:     CAN1->FM1R &= ~(uint32_t)fil
 382:../Libraries/STM32F4xx_StdPeriph_Driver/src/stm32f4xx_can.c ****   {
 383:../Libraries/STM32F4xx_StdPeriph_Driver/src/stm32f4xx_can.c ****     /*Id/Mask mode for the filter*/
 384:../Libraries/STM32F4xx_StdPeriph_Driver/src/stm32f4xx_can.c ****     CAN1->FM1R &= ~(uint32_t)filter_number_bit_pos;
 745              		.loc 1 384 16 view .LVU175
 746 009e 254A     		ldr	r2, .L51	@ tmp242,
 747              	@ ../Libraries/STM32F4xx_StdPeriph_Driver/src/stm32f4xx_can.c:381:   if (CAN_FilterInitStruct->CAN_
 381:../Libraries/STM32F4xx_StdPeriph_Driver/src/stm32f4xx_can.c ****   {
 748              		.loc 1 381 6 view .LVU176
 749 00a0 EBB9     		cbnz	r3, .L44	@ CAN_FilterInitStruct_74(D)->CAN_FilterMode,
 750              		.loc 1 384 5 is_stmt 1 view .LVU177
 385:../Libraries/STM32F4xx_StdPeriph_Driver/src/stm32f4xx_can.c ****   }
 386:../Libraries/STM32F4xx_StdPeriph_Driver/src/stm32f4xx_can.c ****   else /* CAN_FilterInitStruct->CAN_FilterMode == CAN_FilterMode_IdList */
 387:../Libraries/STM32F4xx_StdPeriph_Driver/src/stm32f4xx_can.c ****   {
 388:../Libraries/STM32F4xx_StdPeriph_Driver/src/stm32f4xx_can.c ****     /*Identifier list mode for the filter*/
 389:../Libraries/STM32F4xx_StdPeriph_Driver/src/stm32f4xx_can.c ****     CAN1->FM1R |= (uint32_t)filter_number_bit_pos;
 390:../Libraries/STM32F4xx_StdPeriph_Driver/src/stm32f4xx_can.c ****   }
 391:../Libraries/STM32F4xx_StdPeriph_Driver/src/stm32f4xx_can.c **** 
 392:../Libraries/STM32F4xx_StdPeriph_Driver/src/stm32f4xx_can.c ****   /* Filter FIFO assignment */
 393:../Libraries/STM32F4xx_StdPeriph_Driver/src/stm32f4xx_can.c ****   if (CAN_FilterInitStruct->CAN_FilterFIFOAssignment == CAN_Filter_FIFO0)
 751              		.loc 1 393 3 view .LVU178
 752              	@ ../Libraries/STM32F4xx_StdPeriph_Driver/src/stm32f4xx_can.c:384:     CAN1->FM1R &= ~(uint32_t)fil
 384:../Libraries/STM32F4xx_StdPeriph_Driver/src/stm32f4xx_can.c ****   }
 753              		.loc 1 384 16 is_stmt 0 view .LVU179
 754 00a2 D2F80432 		ldr	r3, [r2, #516]	@ _53,
 755 00a6 0340     		ands	r3, r3, r0	@, _54, _53, _21
 756 00a8 C2F80432 		str	r3, [r2, #516]	@ _54,
 757              	@ ../Libraries/STM32F4xx_StdPeriph_Driver/src/stm32f4xx_can.c:393:   if (CAN_FilterInitStruct->CAN_
 758              		.loc 1 393 27 view .LVU180
 759 00ac 2389     		ldrh	r3, [r4, #8]	@ _57, CAN_FilterInitStruct_74(D)->CAN_FilterFIFOAssignment
 760              	@ ../Libraries/STM32F4xx_StdPeriph_Driver/src/stm32f4xx_can.c:393:   if (CAN_FilterInitStruct->CAN_
 761              		.loc 1 393 6 view .LVU181
 762 00ae F3B9     		cbnz	r3, .L46	@ _57,
 763              	.L50:
 394:../Libraries/STM32F4xx_StdPeriph_Driver/src/stm32f4xx_can.c ****   {
 395:../Libraries/STM32F4xx_StdPeriph_Driver/src/stm32f4xx_can.c ****     /* FIFO 0 assignation for the filter */
ARM GAS  C:\Users\admin\AppData\Local\Temp\ccqywAa9.s 			page 22


 396:../Libraries/STM32F4xx_StdPeriph_Driver/src/stm32f4xx_can.c ****     CAN1->FFA1R &= ~(uint32_t)filter_number_bit_pos;
 764              		.loc 1 396 5 is_stmt 1 view .LVU182
 765              	@ ../Libraries/STM32F4xx_StdPeriph_Driver/src/stm32f4xx_can.c:396:     CAN1->FFA1R &= ~(uint32_t)fi
 766              		.loc 1 396 17 is_stmt 0 view .LVU183
 767 00b0 204B     		ldr	r3, .L51	@ tmp246,
 768 00b2 D3F81422 		ldr	r2, [r3, #532]	@ _58, MEM[(struct CAN_TypeDef *)1073767424B].FFA1R
 769 00b6 1040     		ands	r0, r0, r2	@, _59, _21, _58
 770 00b8 C3F81402 		str	r0, [r3, #532]	@ _59, MEM[(struct CAN_TypeDef *)1073767424B].FFA1R
 397:../Libraries/STM32F4xx_StdPeriph_Driver/src/stm32f4xx_can.c ****   }
 398:../Libraries/STM32F4xx_StdPeriph_Driver/src/stm32f4xx_can.c **** 
 399:../Libraries/STM32F4xx_StdPeriph_Driver/src/stm32f4xx_can.c ****   if (CAN_FilterInitStruct->CAN_FilterFIFOAssignment == CAN_Filter_FIFO1)
 771              		.loc 1 399 3 is_stmt 1 view .LVU184
 772              	.L47:
 400:../Libraries/STM32F4xx_StdPeriph_Driver/src/stm32f4xx_can.c ****   {
 401:../Libraries/STM32F4xx_StdPeriph_Driver/src/stm32f4xx_can.c ****     /* FIFO 1 assignation for the filter */
 402:../Libraries/STM32F4xx_StdPeriph_Driver/src/stm32f4xx_can.c ****     CAN1->FFA1R |= (uint32_t)filter_number_bit_pos;
 403:../Libraries/STM32F4xx_StdPeriph_Driver/src/stm32f4xx_can.c ****   }
 404:../Libraries/STM32F4xx_StdPeriph_Driver/src/stm32f4xx_can.c ****   
 405:../Libraries/STM32F4xx_StdPeriph_Driver/src/stm32f4xx_can.c ****   /* Filter activation */
 406:../Libraries/STM32F4xx_StdPeriph_Driver/src/stm32f4xx_can.c ****   if (CAN_FilterInitStruct->CAN_FilterActivation == ENABLE)
 773              		.loc 1 406 3 view .LVU185
 774              	@ ../Libraries/STM32F4xx_StdPeriph_Driver/src/stm32f4xx_can.c:406:   if (CAN_FilterInitStruct->CAN_
 775              		.loc 1 406 6 is_stmt 0 view .LVU186
 776 00bc 637B     		ldrb	r3, [r4, #13]	@ zero_extendqisi2	@ CAN_FilterInitStruct_74(D)->CAN_FilterActivation, CAN_Filt
 777 00be 012B     		cmp	r3, #1	@ CAN_FilterInitStruct_74(D)->CAN_FilterActivation,
 778 00c0 05D1     		bne	.L48		@,
 407:../Libraries/STM32F4xx_StdPeriph_Driver/src/stm32f4xx_can.c ****   {
 408:../Libraries/STM32F4xx_StdPeriph_Driver/src/stm32f4xx_can.c ****     CAN1->FA1R |= filter_number_bit_pos;
 779              		.loc 1 408 5 is_stmt 1 view .LVU187
 780              	@ ../Libraries/STM32F4xx_StdPeriph_Driver/src/stm32f4xx_can.c:408:     CAN1->FA1R |= filter_number_
 781              		.loc 1 408 16 is_stmt 0 view .LVU188
 782 00c2 1C4A     		ldr	r2, .L51	@ tmp251,
 783 00c4 D2F81C32 		ldr	r3, [r2, #540]	@ _63, MEM[(struct CAN_TypeDef *)1073767424B].FA1R
 784 00c8 1943     		orrs	r1, r1, r3	@, _64, filter_number_bit_pos, _63
 785              	.LVL38:
 786              		.loc 1 408 16 view .LVU189
 787 00ca C2F81C12 		str	r1, [r2, #540]	@ _64, MEM[(struct CAN_TypeDef *)1073767424B].FA1R
 788              	.L48:
 409:../Libraries/STM32F4xx_StdPeriph_Driver/src/stm32f4xx_can.c ****   }
 410:../Libraries/STM32F4xx_StdPeriph_Driver/src/stm32f4xx_can.c **** 
 411:../Libraries/STM32F4xx_StdPeriph_Driver/src/stm32f4xx_can.c ****   /* Leave the initialisation mode for the filter */
 412:../Libraries/STM32F4xx_StdPeriph_Driver/src/stm32f4xx_can.c ****   CAN1->FMR &= ~FMR_FINIT;
 789              		.loc 1 412 3 is_stmt 1 view .LVU190
 790              	@ ../Libraries/STM32F4xx_StdPeriph_Driver/src/stm32f4xx_can.c:412:   CAN1->FMR &= ~FMR_FINIT;
 791              		.loc 1 412 13 is_stmt 0 view .LVU191
 792 00ce 194A     		ldr	r2, .L51	@ tmp253,
 793 00d0 D2F80032 		ldr	r3, [r2, #512]	@ _65, MEM[(struct CAN_TypeDef *)1073767424B].FMR
 794 00d4 23F00103 		bic	r3, r3, #1	@ _66, _65,
 795 00d8 C2F80032 		str	r3, [r2, #512]	@ _66, MEM[(struct CAN_TypeDef *)1073767424B].FMR
 796              	@ ../Libraries/STM32F4xx_StdPeriph_Driver/src/stm32f4xx_can.c:413: }
 413:../Libraries/STM32F4xx_StdPeriph_Driver/src/stm32f4xx_can.c **** }
 797              		.loc 1 413 1 view .LVU192
 798 00dc 38BD     		pop	{r3, r4, r5, pc}	@
 799              	.LVL39:
 800              	.L44:
 389:../Libraries/STM32F4xx_StdPeriph_Driver/src/stm32f4xx_can.c ****   }
 801              		.loc 1 389 5 is_stmt 1 view .LVU193
ARM GAS  C:\Users\admin\AppData\Local\Temp\ccqywAa9.s 			page 23


 802              	@ ../Libraries/STM32F4xx_StdPeriph_Driver/src/stm32f4xx_can.c:389:     CAN1->FM1R |= (uint32_t)filt
 389:../Libraries/STM32F4xx_StdPeriph_Driver/src/stm32f4xx_can.c ****   }
 803              		.loc 1 389 16 is_stmt 0 view .LVU194
 804 00de D2F80432 		ldr	r3, [r2, #516]	@ _55,
 805 00e2 0B43     		orrs	r3, r3, r1	@, _56, _55, filter_number_bit_pos
 806 00e4 C2F80432 		str	r3, [r2, #516]	@ _56,
 393:../Libraries/STM32F4xx_StdPeriph_Driver/src/stm32f4xx_can.c ****   {
 807              		.loc 1 393 3 is_stmt 1 view .LVU195
 808              	@ ../Libraries/STM32F4xx_StdPeriph_Driver/src/stm32f4xx_can.c:393:   if (CAN_FilterInitStruct->CAN_
 393:../Libraries/STM32F4xx_StdPeriph_Driver/src/stm32f4xx_can.c ****   {
 809              		.loc 1 393 27 is_stmt 0 view .LVU196
 810 00e8 2389     		ldrh	r3, [r4, #8]	@ _57, CAN_FilterInitStruct_74(D)->CAN_FilterFIFOAssignment
 811              	@ ../Libraries/STM32F4xx_StdPeriph_Driver/src/stm32f4xx_can.c:393:   if (CAN_FilterInitStruct->CAN_
 393:../Libraries/STM32F4xx_StdPeriph_Driver/src/stm32f4xx_can.c ****   {
 812              		.loc 1 393 6 view .LVU197
 813 00ea 002B     		cmp	r3, #0	@ _57
 814 00ec E0D0     		beq	.L50	@
 815              	.L46:
 399:../Libraries/STM32F4xx_StdPeriph_Driver/src/stm32f4xx_can.c ****   {
 816              		.loc 1 399 3 is_stmt 1 view .LVU198
 817              	@ ../Libraries/STM32F4xx_StdPeriph_Driver/src/stm32f4xx_can.c:399:   if (CAN_FilterInitStruct->CAN_
 399:../Libraries/STM32F4xx_StdPeriph_Driver/src/stm32f4xx_can.c ****   {
 818              		.loc 1 399 6 is_stmt 0 view .LVU199
 819 00ee 012B     		cmp	r3, #1	@ _57,
 820 00f0 E4D1     		bne	.L47		@,
 402:../Libraries/STM32F4xx_StdPeriph_Driver/src/stm32f4xx_can.c ****   }
 821              		.loc 1 402 5 is_stmt 1 view .LVU200
 822              	@ ../Libraries/STM32F4xx_StdPeriph_Driver/src/stm32f4xx_can.c:402:     CAN1->FFA1R |= (uint32_t)fil
 402:../Libraries/STM32F4xx_StdPeriph_Driver/src/stm32f4xx_can.c ****   }
 823              		.loc 1 402 17 is_stmt 0 view .LVU201
 824 00f2 104A     		ldr	r2, .L51	@ tmp248,
 825 00f4 D2F81432 		ldr	r3, [r2, #532]	@ _60, MEM[(struct CAN_TypeDef *)1073767424B].FFA1R
 826 00f8 0B43     		orrs	r3, r3, r1	@, _61, _60, filter_number_bit_pos
 827 00fa C2F81432 		str	r3, [r2, #532]	@ _61, MEM[(struct CAN_TypeDef *)1073767424B].FFA1R
 828 00fe DDE7     		b	.L47		@
 829              	.L42:
 366:../Libraries/STM32F4xx_StdPeriph_Driver/src/stm32f4xx_can.c ****   {
 830              		.loc 1 366 3 is_stmt 1 view .LVU202
 831              	@ ../Libraries/STM32F4xx_StdPeriph_Driver/src/stm32f4xx_can.c:366:   if (CAN_FilterInitStruct->CAN_
 366:../Libraries/STM32F4xx_StdPeriph_Driver/src/stm32f4xx_can.c ****   {
 832              		.loc 1 366 6 is_stmt 0 view .LVU203
 833 0100 012D     		cmp	r5, #1	@ _23,
 834 0102 CBD1     		bne	.L43		@,
 369:../Libraries/STM32F4xx_StdPeriph_Driver/src/stm32f4xx_can.c ****     /* 32-bit identifier or First 32-bit identifier */
 835              		.loc 1 369 5 is_stmt 1 view .LVU204
 836              	@ ../Libraries/STM32F4xx_StdPeriph_Driver/src/stm32f4xx_can.c:369:     CAN1->FS1R |= filter_number_
 369:../Libraries/STM32F4xx_StdPeriph_Driver/src/stm32f4xx_can.c ****     /* 32-bit identifier or First 32-bit identifier */
 837              		.loc 1 369 16 is_stmt 0 view .LVU205
 838 0104 D2F80C52 		ldr	r5, [r2, #524]	@ _38, MEM[(struct CAN_TypeDef *)1073767424B].FS1R
 839 0108 DB00     		lsls	r3, r3, #3	@ tmp236, _16,
 840 010a 0D43     		orrs	r5, r5, r1	@, _39, _38, filter_number_bit_pos
 841 010c C2F80C52 		str	r5, [r2, #524]	@ _39, MEM[(struct CAN_TypeDef *)1073767424B].FS1R
 371:../Libraries/STM32F4xx_StdPeriph_Driver/src/stm32f4xx_can.c ****        ((0x0000FFFF & (uint32_t)CAN_FilterInitStruct->CAN_FilterIdHigh) << 16) |
 842              		.loc 1 371 5 is_stmt 1 view .LVU206
 843 0110 03F18043 		add	r3, r3, #1073741824	@ _102, tmp236,
 844              	@ ../Libraries/STM32F4xx_StdPeriph_Driver/src/stm32f4xx_can.c:372:        ((0x0000FFFF & (uint32_t)
 372:../Libraries/STM32F4xx_StdPeriph_Driver/src/stm32f4xx_can.c ****         (0x0000FFFF & (uint32_t)CAN_FilterInitStruct->CAN_FilterIdLow);
ARM GAS  C:\Users\admin\AppData\Local\Temp\ccqywAa9.s 			page 24


 845              		.loc 1 372 21 is_stmt 0 view .LVU207
 846 0114 2588     		ldrh	r5, [r4]	@ CAN_FilterInitStruct_74(D)->CAN_FilterIdHigh, CAN_FilterInitStruct_74(D)->CAN_Filt
 847              	@ ../Libraries/STM32F4xx_StdPeriph_Driver/src/stm32f4xx_can.c:373:         (0x0000FFFF & (uint32_t)
 373:../Libraries/STM32F4xx_StdPeriph_Driver/src/stm32f4xx_can.c ****     /* 32-bit mask or Second 32-bit identifier */
 848              		.loc 1 373 21 view .LVU208
 849 0116 6288     		ldrh	r2, [r4, #2]	@ CAN_FilterInitStruct_74(D)->CAN_FilterIdLow, CAN_FilterInitStruct_74(D)->CAN_F
 850 0118 03F5C843 		add	r3, r3, #25600	@ _102, _102,
 851              	@ ../Libraries/STM32F4xx_StdPeriph_Driver/src/stm32f4xx_can.c:372:        ((0x0000FFFF & (uint32_t)
 372:../Libraries/STM32F4xx_StdPeriph_Driver/src/stm32f4xx_can.c ****         (0x0000FFFF & (uint32_t)CAN_FilterInitStruct->CAN_FilterIdLow);
 852              		.loc 1 372 80 view .LVU209
 853 011c 42EA0542 		orr	r2, r2, r5, lsl #16	@ _45, CAN_FilterInitStruct_74(D)->CAN_FilterIdLow, CAN_FilterInitStruct_7
 854              	@ ../Libraries/STM32F4xx_StdPeriph_Driver/src/stm32f4xx_can.c:371:     CAN1->sFilterRegister[CAN_Fi
 371:../Libraries/STM32F4xx_StdPeriph_Driver/src/stm32f4xx_can.c ****        ((0x0000FFFF & (uint32_t)CAN_FilterInitStruct->CAN_FilterIdHigh) << 16) |
 855              		.loc 1 371 71 view .LVU210
 856 0120 C3F84022 		str	r2, [r3, #576]	@ _45, MEM <volatile uint32_t> [(struct CAN_TypeDef *)_102 + 576B]
 375:../Libraries/STM32F4xx_StdPeriph_Driver/src/stm32f4xx_can.c ****        ((0x0000FFFF & (uint32_t)CAN_FilterInitStruct->CAN_FilterMaskIdHigh) << 16) |
 857              		.loc 1 375 5 is_stmt 1 view .LVU211
 858              	@ ../Libraries/STM32F4xx_StdPeriph_Driver/src/stm32f4xx_can.c:376:        ((0x0000FFFF & (uint32_t)
 376:../Libraries/STM32F4xx_StdPeriph_Driver/src/stm32f4xx_can.c ****         (0x0000FFFF & (uint32_t)CAN_FilterInitStruct->CAN_FilterMaskIdLow);
 859              		.loc 1 376 21 is_stmt 0 view .LVU212
 860 0124 A588     		ldrh	r5, [r4, #4]	@ CAN_FilterInitStruct_74(D)->CAN_FilterMaskIdHigh, CAN_FilterInitStruct_74(D)->
 861              	@ ../Libraries/STM32F4xx_StdPeriph_Driver/src/stm32f4xx_can.c:377:         (0x0000FFFF & (uint32_t)
 377:../Libraries/STM32F4xx_StdPeriph_Driver/src/stm32f4xx_can.c ****   }
 862              		.loc 1 377 21 view .LVU213
 863 0126 E288     		ldrh	r2, [r4, #6]	@ CAN_FilterInitStruct_74(D)->CAN_FilterMaskIdLow, CAN_FilterInitStruct_74(D)->C
 864              	@ ../Libraries/STM32F4xx_StdPeriph_Driver/src/stm32f4xx_can.c:376:        ((0x0000FFFF & (uint32_t)
 376:../Libraries/STM32F4xx_StdPeriph_Driver/src/stm32f4xx_can.c ****         (0x0000FFFF & (uint32_t)CAN_FilterInitStruct->CAN_FilterMaskIdLow);
 865              		.loc 1 376 84 view .LVU214
 866 0128 42EA0542 		orr	r2, r2, r5, lsl #16	@ _51, CAN_FilterInitStruct_74(D)->CAN_FilterMaskIdLow, CAN_FilterInitStru
 867              	@ ../Libraries/STM32F4xx_StdPeriph_Driver/src/stm32f4xx_can.c:375:     CAN1->sFilterRegister[CAN_Fi
 375:../Libraries/STM32F4xx_StdPeriph_Driver/src/stm32f4xx_can.c ****        ((0x0000FFFF & (uint32_t)CAN_FilterInitStruct->CAN_FilterMaskIdHigh) << 16) |
 868              		.loc 1 375 71 view .LVU215
 869 012c C3F84422 		str	r2, [r3, #580]	@ _51,
 870 0130 B4E7     		b	.L43		@
 871              	.L52:
 872 0132 00BF     		.align	2
 873              	.L51:
 874 0134 00640040 		.word	1073767424
 875              		.cfi_endproc
 876              	.LFE112:
 877              		.size	CAN_FilterInit, .-CAN_FilterInit
 878              		.section	.text.CAN_StructInit,"ax",%progbits
 879              		.align	1
 880              		.p2align 2,,3
 881              		.global	CAN_StructInit
 882              		.syntax unified
 883              		.thumb
 884              		.thumb_func
 885              		.type	CAN_StructInit, %function
 886              	CAN_StructInit:
 887              	.LVL40:
 888              	.LFB113:
 414:../Libraries/STM32F4xx_StdPeriph_Driver/src/stm32f4xx_can.c **** 
 415:../Libraries/STM32F4xx_StdPeriph_Driver/src/stm32f4xx_can.c **** /**
 416:../Libraries/STM32F4xx_StdPeriph_Driver/src/stm32f4xx_can.c ****   * @brief  Fills each CAN_InitStruct member with its default value.
 417:../Libraries/STM32F4xx_StdPeriph_Driver/src/stm32f4xx_can.c ****   * @param  CAN_InitStruct: pointer to a CAN_InitTypeDef structure which ill be initialized.
 418:../Libraries/STM32F4xx_StdPeriph_Driver/src/stm32f4xx_can.c ****   * @retval None
ARM GAS  C:\Users\admin\AppData\Local\Temp\ccqywAa9.s 			page 25


 419:../Libraries/STM32F4xx_StdPeriph_Driver/src/stm32f4xx_can.c ****   */
 420:../Libraries/STM32F4xx_StdPeriph_Driver/src/stm32f4xx_can.c **** void CAN_StructInit(CAN_InitTypeDef* CAN_InitStruct)
 421:../Libraries/STM32F4xx_StdPeriph_Driver/src/stm32f4xx_can.c **** {
 889              		.loc 1 421 1 is_stmt 1 view -0
 890              		.cfi_startproc
 891              		@ args = 0, pretend = 0, frame = 0
 892              		@ frame_needed = 0, uses_anonymous_args = 0
 893              		@ link register save eliminated.
 422:../Libraries/STM32F4xx_StdPeriph_Driver/src/stm32f4xx_can.c ****   /* Reset CAN init structure parameters values */
 423:../Libraries/STM32F4xx_StdPeriph_Driver/src/stm32f4xx_can.c ****   
 424:../Libraries/STM32F4xx_StdPeriph_Driver/src/stm32f4xx_can.c ****   /* Initialize the time triggered communication mode */
 425:../Libraries/STM32F4xx_StdPeriph_Driver/src/stm32f4xx_can.c ****   CAN_InitStruct->CAN_TTCM = DISABLE;
 894              		.loc 1 425 3 view .LVU217
 426:../Libraries/STM32F4xx_StdPeriph_Driver/src/stm32f4xx_can.c ****   
 427:../Libraries/STM32F4xx_StdPeriph_Driver/src/stm32f4xx_can.c ****   /* Initialize the automatic bus-off management */
 428:../Libraries/STM32F4xx_StdPeriph_Driver/src/stm32f4xx_can.c ****   CAN_InitStruct->CAN_ABOM = DISABLE;
 895              		.loc 1 428 3 view .LVU218
 429:../Libraries/STM32F4xx_StdPeriph_Driver/src/stm32f4xx_can.c ****   
 430:../Libraries/STM32F4xx_StdPeriph_Driver/src/stm32f4xx_can.c ****   /* Initialize the automatic wake-up mode */
 431:../Libraries/STM32F4xx_StdPeriph_Driver/src/stm32f4xx_can.c ****   CAN_InitStruct->CAN_AWUM = DISABLE;
 896              		.loc 1 431 3 view .LVU219
 432:../Libraries/STM32F4xx_StdPeriph_Driver/src/stm32f4xx_can.c ****   
 433:../Libraries/STM32F4xx_StdPeriph_Driver/src/stm32f4xx_can.c ****   /* Initialize the no automatic retransmission */
 434:../Libraries/STM32F4xx_StdPeriph_Driver/src/stm32f4xx_can.c ****   CAN_InitStruct->CAN_NART = DISABLE;
 897              		.loc 1 434 3 view .LVU220
 435:../Libraries/STM32F4xx_StdPeriph_Driver/src/stm32f4xx_can.c ****   
 436:../Libraries/STM32F4xx_StdPeriph_Driver/src/stm32f4xx_can.c ****   /* Initialize the receive FIFO locked mode */
 437:../Libraries/STM32F4xx_StdPeriph_Driver/src/stm32f4xx_can.c ****   CAN_InitStruct->CAN_RFLM = DISABLE;
 898              		.loc 1 437 3 view .LVU221
 438:../Libraries/STM32F4xx_StdPeriph_Driver/src/stm32f4xx_can.c ****   
 439:../Libraries/STM32F4xx_StdPeriph_Driver/src/stm32f4xx_can.c ****   /* Initialize the transmit FIFO priority */
 440:../Libraries/STM32F4xx_StdPeriph_Driver/src/stm32f4xx_can.c ****   CAN_InitStruct->CAN_TXFP = DISABLE;
 899              		.loc 1 440 3 view .LVU222
 441:../Libraries/STM32F4xx_StdPeriph_Driver/src/stm32f4xx_can.c ****   
 442:../Libraries/STM32F4xx_StdPeriph_Driver/src/stm32f4xx_can.c ****   /* Initialize the CAN_Mode member */
 443:../Libraries/STM32F4xx_StdPeriph_Driver/src/stm32f4xx_can.c ****   CAN_InitStruct->CAN_Mode = CAN_Mode_Normal;
 900              		.loc 1 443 3 view .LVU223
 444:../Libraries/STM32F4xx_StdPeriph_Driver/src/stm32f4xx_can.c ****   
 445:../Libraries/STM32F4xx_StdPeriph_Driver/src/stm32f4xx_can.c ****   /* Initialize the CAN_SJW member */
 446:../Libraries/STM32F4xx_StdPeriph_Driver/src/stm32f4xx_can.c ****   CAN_InitStruct->CAN_SJW = CAN_SJW_1tq;
 901              		.loc 1 446 3 view .LVU224
 447:../Libraries/STM32F4xx_StdPeriph_Driver/src/stm32f4xx_can.c ****   
 448:../Libraries/STM32F4xx_StdPeriph_Driver/src/stm32f4xx_can.c ****   /* Initialize the CAN_BS1 member */
 449:../Libraries/STM32F4xx_StdPeriph_Driver/src/stm32f4xx_can.c ****   CAN_InitStruct->CAN_BS1 = CAN_BS1_4tq;
 902              		.loc 1 449 3 view .LVU225
 450:../Libraries/STM32F4xx_StdPeriph_Driver/src/stm32f4xx_can.c ****   
 451:../Libraries/STM32F4xx_StdPeriph_Driver/src/stm32f4xx_can.c ****   /* Initialize the CAN_BS2 member */
 452:../Libraries/STM32F4xx_StdPeriph_Driver/src/stm32f4xx_can.c ****   CAN_InitStruct->CAN_BS2 = CAN_BS2_3tq;
 903              		.loc 1 452 3 view .LVU226
 453:../Libraries/STM32F4xx_StdPeriph_Driver/src/stm32f4xx_can.c ****   
 454:../Libraries/STM32F4xx_StdPeriph_Driver/src/stm32f4xx_can.c ****   /* Initialize the CAN_Prescaler member */
 455:../Libraries/STM32F4xx_StdPeriph_Driver/src/stm32f4xx_can.c ****   CAN_InitStruct->CAN_Prescaler = 1;
 904              		.loc 1 455 3 view .LVU227
 905              	@ ../Libraries/STM32F4xx_StdPeriph_Driver/src/stm32f4xx_can.c:443:   CAN_InitStruct->CAN_Mode = CAN
 443:../Libraries/STM32F4xx_StdPeriph_Driver/src/stm32f4xx_can.c ****   
 906              		.loc 1 443 28 is_stmt 0 view .LVU228
 907 0000 0023     		movs	r3, #0	@ tmp117,
ARM GAS  C:\Users\admin\AppData\Local\Temp\ccqywAa9.s 			page 26


 908 0002 044A     		ldr	r2, .L54	@ tmp116,
 909 0004 C0F80220 		str	r2, [r0, #2]	@ unaligned	@ tmp116, MEM <vector(4) unsigned char> [(unsigned char *)CAN_InitStr
 910              	@ ../Libraries/STM32F4xx_StdPeriph_Driver/src/stm32f4xx_can.c:455:   CAN_InitStruct->CAN_Prescaler 
 911              		.loc 1 455 33 view .LVU229
 912 0008 0121     		movs	r1, #1	@ tmp115,
 913 000a 0180     		strh	r1, [r0]	@ movhi	@ tmp115, CAN_InitStruct_2(D)->CAN_Prescaler
 914              	@ ../Libraries/STM32F4xx_StdPeriph_Driver/src/stm32f4xx_can.c:443:   CAN_InitStruct->CAN_Mode = CAN
 443:../Libraries/STM32F4xx_StdPeriph_Driver/src/stm32f4xx_can.c ****   
 915              		.loc 1 443 28 view .LVU230
 916 000c C0F80630 		str	r3, [r0, #6]	@ unaligned	@ tmp117, MEM <vector(4) unsigned char> [(unsigned char *)CAN_InitStr
 917              	@ ../Libraries/STM32F4xx_StdPeriph_Driver/src/stm32f4xx_can.c:437:   CAN_InitStruct->CAN_RFLM = DIS
 437:../Libraries/STM32F4xx_StdPeriph_Driver/src/stm32f4xx_can.c ****   
 918              		.loc 1 437 28 view .LVU231
 919 0010 4381     		strh	r3, [r0, #10]	@ movhi	@ tmp117, MEM <unsigned short> [(<unnamed type> *)CAN_InitStruct_2(D) +
 920              	@ ../Libraries/STM32F4xx_StdPeriph_Driver/src/stm32f4xx_can.c:456: }
 456:../Libraries/STM32F4xx_StdPeriph_Driver/src/stm32f4xx_can.c **** }
 921              		.loc 1 456 1 view .LVU232
 922 0012 7047     		bx	lr	@
 923              	.L55:
 924              		.align	2
 925              	.L54:
 926 0014 00000302 		.word	33751040
 927              		.cfi_endproc
 928              	.LFE113:
 929              		.size	CAN_StructInit, .-CAN_StructInit
 930              		.section	.text.CAN_SlaveStartBank,"ax",%progbits
 931              		.align	1
 932              		.p2align 2,,3
 933              		.global	CAN_SlaveStartBank
 934              		.syntax unified
 935              		.thumb
 936              		.thumb_func
 937              		.type	CAN_SlaveStartBank, %function
 938              	CAN_SlaveStartBank:
 939              	.LVL41:
 940              	.LFB114:
 457:../Libraries/STM32F4xx_StdPeriph_Driver/src/stm32f4xx_can.c **** 
 458:../Libraries/STM32F4xx_StdPeriph_Driver/src/stm32f4xx_can.c **** /**
 459:../Libraries/STM32F4xx_StdPeriph_Driver/src/stm32f4xx_can.c ****   * @brief  Select the start bank filter for slave CAN.
 460:../Libraries/STM32F4xx_StdPeriph_Driver/src/stm32f4xx_can.c ****   * @param  CAN_BankNumber: Select the start slave bank filter from 1..27.
 461:../Libraries/STM32F4xx_StdPeriph_Driver/src/stm32f4xx_can.c ****   * @retval None
 462:../Libraries/STM32F4xx_StdPeriph_Driver/src/stm32f4xx_can.c ****   */
 463:../Libraries/STM32F4xx_StdPeriph_Driver/src/stm32f4xx_can.c **** void CAN_SlaveStartBank(uint8_t CAN_BankNumber) 
 464:../Libraries/STM32F4xx_StdPeriph_Driver/src/stm32f4xx_can.c **** {
 941              		.loc 1 464 1 is_stmt 1 view -0
 942              		.cfi_startproc
 943              		@ args = 0, pretend = 0, frame = 0
 944              		@ frame_needed = 0, uses_anonymous_args = 0
 465:../Libraries/STM32F4xx_StdPeriph_Driver/src/stm32f4xx_can.c ****   /* Check the parameters */
 466:../Libraries/STM32F4xx_StdPeriph_Driver/src/stm32f4xx_can.c ****   assert_param(IS_CAN_BANKNUMBER(CAN_BankNumber));
 945              		.loc 1 466 3 view .LVU234
 946              	@ ../Libraries/STM32F4xx_StdPeriph_Driver/src/stm32f4xx_can.c:464: {
 464:../Libraries/STM32F4xx_StdPeriph_Driver/src/stm32f4xx_can.c ****   /* Check the parameters */
 947              		.loc 1 464 1 is_stmt 0 view .LVU235
 948 0000 10B5     		push	{r4, lr}	@
 949              		.cfi_def_cfa_offset 8
 950              		.cfi_offset 4, -8
ARM GAS  C:\Users\admin\AppData\Local\Temp\ccqywAa9.s 			page 27


 951              		.cfi_offset 14, -4
 952              	@ ../Libraries/STM32F4xx_StdPeriph_Driver/src/stm32f4xx_can.c:464: {
 464:../Libraries/STM32F4xx_StdPeriph_Driver/src/stm32f4xx_can.c ****   /* Check the parameters */
 953              		.loc 1 464 1 view .LVU236
 954 0002 0446     		mov	r4, r0	@ CAN_BankNumber, tmp143
 955              	@ ../Libraries/STM32F4xx_StdPeriph_Driver/src/stm32f4xx_can.c:466:   assert_param(IS_CAN_BANKNUMBER
 956              		.loc 1 466 3 view .LVU237
 957 0004 0138     		subs	r0, r0, #1	@ tmp131, CAN_BankNumber,
 958              	.LVL42:
 959              		.loc 1 466 3 view .LVU238
 960 0006 1A28     		cmp	r0, #26	@ tmp131,
 961 0008 8CBF     		ite	hi
 962 000a 0020     		movhi	r0, #0	@,
 963 000c 0120     		movls	r0, #1	@,
 964 000e FFF7FEFF 		bl	assert_param		@
 965              	.LVL43:
 467:../Libraries/STM32F4xx_StdPeriph_Driver/src/stm32f4xx_can.c ****   
 468:../Libraries/STM32F4xx_StdPeriph_Driver/src/stm32f4xx_can.c ****   /* Enter Initialisation mode for the filter */
 469:../Libraries/STM32F4xx_StdPeriph_Driver/src/stm32f4xx_can.c ****   CAN1->FMR |= FMR_FINIT;
 966              		.loc 1 469 3 is_stmt 1 view .LVU239
 967              	@ ../Libraries/STM32F4xx_StdPeriph_Driver/src/stm32f4xx_can.c:469:   CAN1->FMR |= FMR_FINIT;
 968              		.loc 1 469 13 is_stmt 0 view .LVU240
 969 0012 0E4B     		ldr	r3, .L58	@ tmp133,
 970 0014 D3F80022 		ldr	r2, [r3, #512]	@ _4, MEM[(struct CAN_TypeDef *)1073767424B].FMR
 971 0018 42F00102 		orr	r2, r2, #1	@ _5, _4,
 972 001c C3F80022 		str	r2, [r3, #512]	@ _5, MEM[(struct CAN_TypeDef *)1073767424B].FMR
 470:../Libraries/STM32F4xx_StdPeriph_Driver/src/stm32f4xx_can.c ****   
 471:../Libraries/STM32F4xx_StdPeriph_Driver/src/stm32f4xx_can.c ****   /* Select the start slave bank */
 472:../Libraries/STM32F4xx_StdPeriph_Driver/src/stm32f4xx_can.c ****   CAN1->FMR &= (uint32_t)0xFFFFC0F1 ;
 973              		.loc 1 472 3 is_stmt 1 view .LVU241
 974              	@ ../Libraries/STM32F4xx_StdPeriph_Driver/src/stm32f4xx_can.c:472:   CAN1->FMR &= (uint32_t)0xFFFFC
 975              		.loc 1 472 13 is_stmt 0 view .LVU242
 976 0020 D3F80022 		ldr	r2, [r3, #512]	@ _6, MEM[(struct CAN_TypeDef *)1073767424B].FMR
 977 0024 22F47C52 		bic	r2, r2, #16128	@ _7, _6,
 978 0028 22F00E02 		bic	r2, r2, #14	@ _7, _7,
 979 002c C3F80022 		str	r2, [r3, #512]	@ _7, MEM[(struct CAN_TypeDef *)1073767424B].FMR
 473:../Libraries/STM32F4xx_StdPeriph_Driver/src/stm32f4xx_can.c ****   CAN1->FMR |= (uint32_t)(CAN_BankNumber)<<8;
 980              		.loc 1 473 3 is_stmt 1 view .LVU243
 981              	@ ../Libraries/STM32F4xx_StdPeriph_Driver/src/stm32f4xx_can.c:473:   CAN1->FMR |= (uint32_t)(CAN_Ba
 982              		.loc 1 473 13 is_stmt 0 view .LVU244
 983 0030 D3F80002 		ldr	r0, [r3, #512]	@ _8, MEM[(struct CAN_TypeDef *)1073767424B].FMR
 984 0034 40EA0424 		orr	r4, r0, r4, lsl #8	@ _11, _8, CAN_BankNumber,
 985 0038 C3F80042 		str	r4, [r3, #512]	@ _11, MEM[(struct CAN_TypeDef *)1073767424B].FMR
 474:../Libraries/STM32F4xx_StdPeriph_Driver/src/stm32f4xx_can.c ****   
 475:../Libraries/STM32F4xx_StdPeriph_Driver/src/stm32f4xx_can.c ****   /* Leave Initialisation mode for the filter */
 476:../Libraries/STM32F4xx_StdPeriph_Driver/src/stm32f4xx_can.c ****   CAN1->FMR &= ~FMR_FINIT;
 986              		.loc 1 476 3 is_stmt 1 view .LVU245
 987              	@ ../Libraries/STM32F4xx_StdPeriph_Driver/src/stm32f4xx_can.c:476:   CAN1->FMR &= ~FMR_FINIT;
 988              		.loc 1 476 13 is_stmt 0 view .LVU246
 989 003c D3F80022 		ldr	r2, [r3, #512]	@ _12, MEM[(struct CAN_TypeDef *)1073767424B].FMR
 990 0040 22F00102 		bic	r2, r2, #1	@ _13, _12,
 991 0044 C3F80022 		str	r2, [r3, #512]	@ _13, MEM[(struct CAN_TypeDef *)1073767424B].FMR
 992              	@ ../Libraries/STM32F4xx_StdPeriph_Driver/src/stm32f4xx_can.c:477: }
 477:../Libraries/STM32F4xx_StdPeriph_Driver/src/stm32f4xx_can.c **** }
 993              		.loc 1 477 1 view .LVU247
 994 0048 10BD     		pop	{r4, pc}	@
 995              	.L59:
ARM GAS  C:\Users\admin\AppData\Local\Temp\ccqywAa9.s 			page 28


 996 004a 00BF     		.align	2
 997              	.L58:
 998 004c 00640040 		.word	1073767424
 999              		.cfi_endproc
 1000              	.LFE114:
 1001              		.size	CAN_SlaveStartBank, .-CAN_SlaveStartBank
 1002              		.section	.text.CAN_DBGFreeze,"ax",%progbits
 1003              		.align	1
 1004              		.p2align 2,,3
 1005              		.global	CAN_DBGFreeze
 1006              		.syntax unified
 1007              		.thumb
 1008              		.thumb_func
 1009              		.type	CAN_DBGFreeze, %function
 1010              	CAN_DBGFreeze:
 1011              	.LVL44:
 1012              	.LFB115:
 478:../Libraries/STM32F4xx_StdPeriph_Driver/src/stm32f4xx_can.c **** 
 479:../Libraries/STM32F4xx_StdPeriph_Driver/src/stm32f4xx_can.c **** /**
 480:../Libraries/STM32F4xx_StdPeriph_Driver/src/stm32f4xx_can.c ****   * @brief  Enables or disables the DBG Freeze for CAN.
 481:../Libraries/STM32F4xx_StdPeriph_Driver/src/stm32f4xx_can.c ****   * @param  CANx: where x can be 1 or 2 to to select the CAN peripheral.
 482:../Libraries/STM32F4xx_StdPeriph_Driver/src/stm32f4xx_can.c ****   * @param  NewState: new state of the CAN peripheral. 
 483:../Libraries/STM32F4xx_StdPeriph_Driver/src/stm32f4xx_can.c ****   *          This parameter can be: ENABLE (CAN reception/transmission is frozen
 484:../Libraries/STM32F4xx_StdPeriph_Driver/src/stm32f4xx_can.c ****   *          during debug. Reception FIFOs can still be accessed/controlled normally) 
 485:../Libraries/STM32F4xx_StdPeriph_Driver/src/stm32f4xx_can.c ****   *          or DISABLE (CAN is working during debug).
 486:../Libraries/STM32F4xx_StdPeriph_Driver/src/stm32f4xx_can.c ****   * @retval None
 487:../Libraries/STM32F4xx_StdPeriph_Driver/src/stm32f4xx_can.c ****   */
 488:../Libraries/STM32F4xx_StdPeriph_Driver/src/stm32f4xx_can.c **** void CAN_DBGFreeze(CAN_TypeDef* CANx, FunctionalState NewState)
 489:../Libraries/STM32F4xx_StdPeriph_Driver/src/stm32f4xx_can.c **** {
 1013              		.loc 1 489 1 is_stmt 1 view -0
 1014              		.cfi_startproc
 1015              		@ args = 0, pretend = 0, frame = 0
 1016              		@ frame_needed = 0, uses_anonymous_args = 0
 490:../Libraries/STM32F4xx_StdPeriph_Driver/src/stm32f4xx_can.c ****   /* Check the parameters */
 491:../Libraries/STM32F4xx_StdPeriph_Driver/src/stm32f4xx_can.c ****   assert_param(IS_CAN_ALL_PERIPH(CANx));
 1017              		.loc 1 491 3 view .LVU249
 1018              	@ ../Libraries/STM32F4xx_StdPeriph_Driver/src/stm32f4xx_can.c:489: {
 489:../Libraries/STM32F4xx_StdPeriph_Driver/src/stm32f4xx_can.c ****   /* Check the parameters */
 1019              		.loc 1 489 1 is_stmt 0 view .LVU250
 1020 0000 38B5     		push	{r3, r4, r5, lr}	@
 1021              		.cfi_def_cfa_offset 16
 1022              		.cfi_offset 3, -16
 1023              		.cfi_offset 4, -12
 1024              		.cfi_offset 5, -8
 1025              		.cfi_offset 14, -4
 1026              	@ ../Libraries/STM32F4xx_StdPeriph_Driver/src/stm32f4xx_can.c:491:   assert_param(IS_CAN_ALL_PERIPH
 1027              		.loc 1 491 3 view .LVU251
 1028 0002 0F4B     		ldr	r3, .L66	@ tmp123,
 1029 0004 9842     		cmp	r0, r3	@ CANx, tmp123
 1030              	@ ../Libraries/STM32F4xx_StdPeriph_Driver/src/stm32f4xx_can.c:489: {
 489:../Libraries/STM32F4xx_StdPeriph_Driver/src/stm32f4xx_can.c ****   /* Check the parameters */
 1031              		.loc 1 489 1 view .LVU252
 1032 0006 0446     		mov	r4, r0	@ CANx, tmp131
 1033 0008 0D46     		mov	r5, r1	@ NewState, tmp132
 1034              	@ ../Libraries/STM32F4xx_StdPeriph_Driver/src/stm32f4xx_can.c:491:   assert_param(IS_CAN_ALL_PERIPH
 1035              		.loc 1 491 3 view .LVU253
 1036 000a 16D0     		beq	.L64		@,
ARM GAS  C:\Users\admin\AppData\Local\Temp\ccqywAa9.s 			page 29


 1037              	@ ../Libraries/STM32F4xx_StdPeriph_Driver/src/stm32f4xx_can.c:491:   assert_param(IS_CAN_ALL_PERIPH
 1038              		.loc 1 491 3 discriminator 2 view .LVU254
 1039 000c 0D48     		ldr	r0, .L66+4	@ tmp126,
 1040              	.LVL45:
 1041              		.loc 1 491 3 discriminator 2 view .LVU255
 1042 000e 201A     		subs	r0, r4, r0	@ iftmp.2_7, CANx, tmp126
 1043 0010 B0FA80F0 		clz	r0, r0	@ iftmp.2_7, iftmp.2_7
 1044 0014 4009     		lsrs	r0, r0, #5	@ iftmp.2_7, iftmp.2_7,
 1045              	.L61:
 1046              	@ ../Libraries/STM32F4xx_StdPeriph_Driver/src/stm32f4xx_can.c:491:   assert_param(IS_CAN_ALL_PERIPH
 1047              		.loc 1 491 3 discriminator 6 view .LVU256
 1048 0016 FFF7FEFF 		bl	assert_param		@
 1049              	.LVL46:
 492:../Libraries/STM32F4xx_StdPeriph_Driver/src/stm32f4xx_can.c ****   assert_param(IS_FUNCTIONAL_STATE(NewState));
 1050              		.loc 1 492 3 is_stmt 1 discriminator 6 view .LVU257
 1051 001a 012D     		cmp	r5, #1	@ NewState,
 1052 001c 8CBF     		ite	hi
 1053 001e 0020     		movhi	r0, #0	@,
 1054 0020 0120     		movls	r0, #1	@,
 1055 0022 FFF7FEFF 		bl	assert_param		@
 1056              	.LVL47:
 493:../Libraries/STM32F4xx_StdPeriph_Driver/src/stm32f4xx_can.c ****   
 494:../Libraries/STM32F4xx_StdPeriph_Driver/src/stm32f4xx_can.c ****   if (NewState != DISABLE)
 1057              		.loc 1 494 3 discriminator 6 view .LVU258
 1058              	@ ../Libraries/STM32F4xx_StdPeriph_Driver/src/stm32f4xx_can.c:497:     CANx->MCR |= MCR_DBF;
 495:../Libraries/STM32F4xx_StdPeriph_Driver/src/stm32f4xx_can.c ****   {
 496:../Libraries/STM32F4xx_StdPeriph_Driver/src/stm32f4xx_can.c ****     /* Enable Debug Freeze  */
 497:../Libraries/STM32F4xx_StdPeriph_Driver/src/stm32f4xx_can.c ****     CANx->MCR |= MCR_DBF;
 1059              		.loc 1 497 15 is_stmt 0 discriminator 6 view .LVU259
 1060 0026 2368     		ldr	r3, [r4]	@ _3,* CANx
 1061              	@ ../Libraries/STM32F4xx_StdPeriph_Driver/src/stm32f4xx_can.c:494:   if (NewState != DISABLE)
 494:../Libraries/STM32F4xx_StdPeriph_Driver/src/stm32f4xx_can.c ****   {
 1062              		.loc 1 494 6 discriminator 6 view .LVU260
 1063 0028 1DB1     		cbz	r5, .L62	@ NewState,
 1064              		.loc 1 497 5 is_stmt 1 view .LVU261
 1065              	@ ../Libraries/STM32F4xx_StdPeriph_Driver/src/stm32f4xx_can.c:497:     CANx->MCR |= MCR_DBF;
 1066              		.loc 1 497 15 is_stmt 0 view .LVU262
 1067 002a 43F48033 		orr	r3, r3, #65536	@ _4, _3,
 1068 002e 2360     		str	r3, [r4]	@ _4,* CANx
 1069              	@ ../Libraries/STM32F4xx_StdPeriph_Driver/src/stm32f4xx_can.c:504: }
 498:../Libraries/STM32F4xx_StdPeriph_Driver/src/stm32f4xx_can.c ****   }
 499:../Libraries/STM32F4xx_StdPeriph_Driver/src/stm32f4xx_can.c ****   else
 500:../Libraries/STM32F4xx_StdPeriph_Driver/src/stm32f4xx_can.c ****   {
 501:../Libraries/STM32F4xx_StdPeriph_Driver/src/stm32f4xx_can.c ****     /* Disable Debug Freeze */
 502:../Libraries/STM32F4xx_StdPeriph_Driver/src/stm32f4xx_can.c ****     CANx->MCR &= ~MCR_DBF;
 503:../Libraries/STM32F4xx_StdPeriph_Driver/src/stm32f4xx_can.c ****   }
 504:../Libraries/STM32F4xx_StdPeriph_Driver/src/stm32f4xx_can.c **** }
 1070              		.loc 1 504 1 view .LVU263
 1071 0030 38BD     		pop	{r3, r4, r5, pc}	@
 1072              	.LVL48:
 1073              	.L62:
 502:../Libraries/STM32F4xx_StdPeriph_Driver/src/stm32f4xx_can.c ****   }
 1074              		.loc 1 502 5 is_stmt 1 view .LVU264
 1075              	@ ../Libraries/STM32F4xx_StdPeriph_Driver/src/stm32f4xx_can.c:502:     CANx->MCR &= ~MCR_DBF;
 502:../Libraries/STM32F4xx_StdPeriph_Driver/src/stm32f4xx_can.c ****   }
 1076              		.loc 1 502 15 is_stmt 0 view .LVU265
 1077 0032 23F48033 		bic	r3, r3, #65536	@ _6, _5,
ARM GAS  C:\Users\admin\AppData\Local\Temp\ccqywAa9.s 			page 30


 1078 0036 2360     		str	r3, [r4]	@ _6,* CANx
 1079              	@ ../Libraries/STM32F4xx_StdPeriph_Driver/src/stm32f4xx_can.c:504: }
 1080              		.loc 1 504 1 view .LVU266
 1081 0038 38BD     		pop	{r3, r4, r5, pc}	@
 1082              	.LVL49:
 1083              	.L64:
 1084              	@ ../Libraries/STM32F4xx_StdPeriph_Driver/src/stm32f4xx_can.c:491:   assert_param(IS_CAN_ALL_PERIPH
 491:../Libraries/STM32F4xx_StdPeriph_Driver/src/stm32f4xx_can.c ****   assert_param(IS_FUNCTIONAL_STATE(NewState));
 1085              		.loc 1 491 3 view .LVU267
 1086 003a 0120     		movs	r0, #1	@ iftmp.2_7,
 1087              	.LVL50:
 491:../Libraries/STM32F4xx_StdPeriph_Driver/src/stm32f4xx_can.c ****   assert_param(IS_FUNCTIONAL_STATE(NewState));
 1088              		.loc 1 491 3 view .LVU268
 1089 003c EBE7     		b	.L61		@
 1090              	.L67:
 1091 003e 00BF     		.align	2
 1092              	.L66:
 1093 0040 00640040 		.word	1073767424
 1094 0044 00680040 		.word	1073768448
 1095              		.cfi_endproc
 1096              	.LFE115:
 1097              		.size	CAN_DBGFreeze, .-CAN_DBGFreeze
 1098              		.section	.text.CAN_TTComModeCmd,"ax",%progbits
 1099              		.align	1
 1100              		.p2align 2,,3
 1101              		.global	CAN_TTComModeCmd
 1102              		.syntax unified
 1103              		.thumb
 1104              		.thumb_func
 1105              		.type	CAN_TTComModeCmd, %function
 1106              	CAN_TTComModeCmd:
 1107              	.LVL51:
 1108              	.LFB116:
 505:../Libraries/STM32F4xx_StdPeriph_Driver/src/stm32f4xx_can.c **** 
 506:../Libraries/STM32F4xx_StdPeriph_Driver/src/stm32f4xx_can.c **** 
 507:../Libraries/STM32F4xx_StdPeriph_Driver/src/stm32f4xx_can.c **** /**
 508:../Libraries/STM32F4xx_StdPeriph_Driver/src/stm32f4xx_can.c ****   * @brief  Enables or disables the CAN Time TriggerOperation communication mode.
 509:../Libraries/STM32F4xx_StdPeriph_Driver/src/stm32f4xx_can.c ****   * @note   DLC must be programmed as 8 in order Time Stamp (2 bytes) to be 
 510:../Libraries/STM32F4xx_StdPeriph_Driver/src/stm32f4xx_can.c ****   *         sent over the CAN bus.  
 511:../Libraries/STM32F4xx_StdPeriph_Driver/src/stm32f4xx_can.c ****   * @param  CANx: where x can be 1 or 2 to to select the CAN peripheral.
 512:../Libraries/STM32F4xx_StdPeriph_Driver/src/stm32f4xx_can.c ****   * @param  NewState: Mode new state. This parameter can be: ENABLE or DISABLE.
 513:../Libraries/STM32F4xx_StdPeriph_Driver/src/stm32f4xx_can.c ****   *         When enabled, Time stamp (TIME[15:0]) value is  sent in the last two
 514:../Libraries/STM32F4xx_StdPeriph_Driver/src/stm32f4xx_can.c ****   *         data bytes of the 8-byte message: TIME[7:0] in data byte 6 and TIME[15:8] 
 515:../Libraries/STM32F4xx_StdPeriph_Driver/src/stm32f4xx_can.c ****   *         in data byte 7. 
 516:../Libraries/STM32F4xx_StdPeriph_Driver/src/stm32f4xx_can.c ****   * @retval None
 517:../Libraries/STM32F4xx_StdPeriph_Driver/src/stm32f4xx_can.c ****   */
 518:../Libraries/STM32F4xx_StdPeriph_Driver/src/stm32f4xx_can.c **** void CAN_TTComModeCmd(CAN_TypeDef* CANx, FunctionalState NewState)
 519:../Libraries/STM32F4xx_StdPeriph_Driver/src/stm32f4xx_can.c **** {
 1109              		.loc 1 519 1 is_stmt 1 view -0
 1110              		.cfi_startproc
 1111              		@ args = 0, pretend = 0, frame = 0
 1112              		@ frame_needed = 0, uses_anonymous_args = 0
 520:../Libraries/STM32F4xx_StdPeriph_Driver/src/stm32f4xx_can.c ****   /* Check the parameters */
 521:../Libraries/STM32F4xx_StdPeriph_Driver/src/stm32f4xx_can.c ****   assert_param(IS_CAN_ALL_PERIPH(CANx));
 1113              		.loc 1 521 3 view .LVU270
 1114              	@ ../Libraries/STM32F4xx_StdPeriph_Driver/src/stm32f4xx_can.c:519: {
 519:../Libraries/STM32F4xx_StdPeriph_Driver/src/stm32f4xx_can.c ****   /* Check the parameters */
ARM GAS  C:\Users\admin\AppData\Local\Temp\ccqywAa9.s 			page 31


 1115              		.loc 1 519 1 is_stmt 0 view .LVU271
 1116 0000 38B5     		push	{r3, r4, r5, lr}	@
 1117              		.cfi_def_cfa_offset 16
 1118              		.cfi_offset 3, -16
 1119              		.cfi_offset 4, -12
 1120              		.cfi_offset 5, -8
 1121              		.cfi_offset 14, -4
 1122              	@ ../Libraries/STM32F4xx_StdPeriph_Driver/src/stm32f4xx_can.c:521:   assert_param(IS_CAN_ALL_PERIPH
 1123              		.loc 1 521 3 view .LVU272
 1124 0002 214B     		ldr	r3, .L74	@ tmp135,
 1125 0004 9842     		cmp	r0, r3	@ CANx, tmp135
 1126              	@ ../Libraries/STM32F4xx_StdPeriph_Driver/src/stm32f4xx_can.c:519: {
 519:../Libraries/STM32F4xx_StdPeriph_Driver/src/stm32f4xx_can.c ****   /* Check the parameters */
 1127              		.loc 1 519 1 view .LVU273
 1128 0006 0446     		mov	r4, r0	@ CANx, tmp143
 1129 0008 0D46     		mov	r5, r1	@ NewState, tmp144
 1130              	@ ../Libraries/STM32F4xx_StdPeriph_Driver/src/stm32f4xx_can.c:521:   assert_param(IS_CAN_ALL_PERIPH
 1131              		.loc 1 521 3 view .LVU274
 1132 000a 3AD0     		beq	.L72		@,
 1133              	@ ../Libraries/STM32F4xx_StdPeriph_Driver/src/stm32f4xx_can.c:521:   assert_param(IS_CAN_ALL_PERIPH
 1134              		.loc 1 521 3 discriminator 2 view .LVU275
 1135 000c 1F48     		ldr	r0, .L74+4	@ tmp138,
 1136              	.LVL52:
 1137              		.loc 1 521 3 discriminator 2 view .LVU276
 1138 000e 201A     		subs	r0, r4, r0	@ iftmp.3_19, CANx, tmp138
 1139 0010 B0FA80F0 		clz	r0, r0	@ iftmp.3_19, iftmp.3_19
 1140 0014 4009     		lsrs	r0, r0, #5	@ iftmp.3_19, iftmp.3_19,
 1141              	.L69:
 1142              	@ ../Libraries/STM32F4xx_StdPeriph_Driver/src/stm32f4xx_can.c:521:   assert_param(IS_CAN_ALL_PERIPH
 1143              		.loc 1 521 3 discriminator 6 view .LVU277
 1144 0016 FFF7FEFF 		bl	assert_param		@
 1145              	.LVL53:
 522:../Libraries/STM32F4xx_StdPeriph_Driver/src/stm32f4xx_can.c ****   assert_param(IS_FUNCTIONAL_STATE(NewState));
 1146              		.loc 1 522 3 is_stmt 1 discriminator 6 view .LVU278
 1147 001a 012D     		cmp	r5, #1	@ NewState,
 1148 001c 8CBF     		ite	hi
 1149 001e 0020     		movhi	r0, #0	@,
 1150 0020 0120     		movls	r0, #1	@,
 1151 0022 FFF7FEFF 		bl	assert_param		@
 1152              	.LVL54:
 523:../Libraries/STM32F4xx_StdPeriph_Driver/src/stm32f4xx_can.c ****   if (NewState != DISABLE)
 1153              		.loc 1 523 3 discriminator 6 view .LVU279
 1154              	@ ../Libraries/STM32F4xx_StdPeriph_Driver/src/stm32f4xx_can.c:526:     CANx->MCR |= CAN_MCR_TTCM;
 524:../Libraries/STM32F4xx_StdPeriph_Driver/src/stm32f4xx_can.c ****   {
 525:../Libraries/STM32F4xx_StdPeriph_Driver/src/stm32f4xx_can.c ****     /* Enable the TTCM mode */
 526:../Libraries/STM32F4xx_StdPeriph_Driver/src/stm32f4xx_can.c ****     CANx->MCR |= CAN_MCR_TTCM;
 1155              		.loc 1 526 15 is_stmt 0 discriminator 6 view .LVU280
 1156 0026 2368     		ldr	r3, [r4]	@ _3,* CANx
 1157              	@ ../Libraries/STM32F4xx_StdPeriph_Driver/src/stm32f4xx_can.c:523:   if (NewState != DISABLE)
 523:../Libraries/STM32F4xx_StdPeriph_Driver/src/stm32f4xx_can.c ****   if (NewState != DISABLE)
 1158              		.loc 1 523 6 discriminator 6 view .LVU281
 1159 0028 ADB1     		cbz	r5, .L70	@ NewState,
 1160              		.loc 1 526 5 is_stmt 1 view .LVU282
 1161              	@ ../Libraries/STM32F4xx_StdPeriph_Driver/src/stm32f4xx_can.c:526:     CANx->MCR |= CAN_MCR_TTCM;
 1162              		.loc 1 526 15 is_stmt 0 view .LVU283
 1163 002a 43F08003 		orr	r3, r3, #128	@ _4, _3,
 1164 002e 2360     		str	r3, [r4]	@ _4, CANx_21(D)->MCR
ARM GAS  C:\Users\admin\AppData\Local\Temp\ccqywAa9.s 			page 32


 527:../Libraries/STM32F4xx_StdPeriph_Driver/src/stm32f4xx_can.c **** 
 528:../Libraries/STM32F4xx_StdPeriph_Driver/src/stm32f4xx_can.c ****     /* Set TGT bits */
 529:../Libraries/STM32F4xx_StdPeriph_Driver/src/stm32f4xx_can.c ****     CANx->sTxMailBox[0].TDTR |= ((uint32_t)CAN_TDT0R_TGT);
 1165              		.loc 1 529 5 is_stmt 1 view .LVU284
 1166              	@ ../Libraries/STM32F4xx_StdPeriph_Driver/src/stm32f4xx_can.c:529:     CANx->sTxMailBox[0].TDTR |= 
 1167              		.loc 1 529 30 is_stmt 0 view .LVU285
 1168 0030 D4F88431 		ldr	r3, [r4, #388]	@ _5, CANx_21(D)->sTxMailBox[0].TDTR
 1169 0034 43F48073 		orr	r3, r3, #256	@ _6, _5,
 1170 0038 C4F88431 		str	r3, [r4, #388]	@ _6, CANx_21(D)->sTxMailBox[0].TDTR
 530:../Libraries/STM32F4xx_StdPeriph_Driver/src/stm32f4xx_can.c ****     CANx->sTxMailBox[1].TDTR |= ((uint32_t)CAN_TDT1R_TGT);
 1171              		.loc 1 530 5 is_stmt 1 view .LVU286
 1172              	@ ../Libraries/STM32F4xx_StdPeriph_Driver/src/stm32f4xx_can.c:530:     CANx->sTxMailBox[1].TDTR |= 
 1173              		.loc 1 530 30 is_stmt 0 view .LVU287
 1174 003c D4F89431 		ldr	r3, [r4, #404]	@ _7, CANx_21(D)->sTxMailBox[1].TDTR
 1175 0040 43F48073 		orr	r3, r3, #256	@ _8, _7,
 1176 0044 C4F89431 		str	r3, [r4, #404]	@ _8, CANx_21(D)->sTxMailBox[1].TDTR
 531:../Libraries/STM32F4xx_StdPeriph_Driver/src/stm32f4xx_can.c ****     CANx->sTxMailBox[2].TDTR |= ((uint32_t)CAN_TDT2R_TGT);
 1177              		.loc 1 531 5 is_stmt 1 view .LVU288
 1178              	@ ../Libraries/STM32F4xx_StdPeriph_Driver/src/stm32f4xx_can.c:531:     CANx->sTxMailBox[2].TDTR |= 
 1179              		.loc 1 531 30 is_stmt 0 view .LVU289
 1180 0048 D4F8A431 		ldr	r3, [r4, #420]	@ _9, CANx_21(D)->sTxMailBox[2].TDTR
 1181 004c 43F48073 		orr	r3, r3, #256	@ _10, _9,
 1182 0050 C4F8A431 		str	r3, [r4, #420]	@ _10,
 1183              	@ ../Libraries/STM32F4xx_StdPeriph_Driver/src/stm32f4xx_can.c:543: }
 532:../Libraries/STM32F4xx_StdPeriph_Driver/src/stm32f4xx_can.c ****   }
 533:../Libraries/STM32F4xx_StdPeriph_Driver/src/stm32f4xx_can.c ****   else
 534:../Libraries/STM32F4xx_StdPeriph_Driver/src/stm32f4xx_can.c ****   {
 535:../Libraries/STM32F4xx_StdPeriph_Driver/src/stm32f4xx_can.c ****     /* Disable the TTCM mode */
 536:../Libraries/STM32F4xx_StdPeriph_Driver/src/stm32f4xx_can.c ****     CANx->MCR &= (uint32_t)(~(uint32_t)CAN_MCR_TTCM);
 537:../Libraries/STM32F4xx_StdPeriph_Driver/src/stm32f4xx_can.c **** 
 538:../Libraries/STM32F4xx_StdPeriph_Driver/src/stm32f4xx_can.c ****     /* Reset TGT bits */
 539:../Libraries/STM32F4xx_StdPeriph_Driver/src/stm32f4xx_can.c ****     CANx->sTxMailBox[0].TDTR &= ((uint32_t)~CAN_TDT0R_TGT);
 540:../Libraries/STM32F4xx_StdPeriph_Driver/src/stm32f4xx_can.c ****     CANx->sTxMailBox[1].TDTR &= ((uint32_t)~CAN_TDT1R_TGT);
 541:../Libraries/STM32F4xx_StdPeriph_Driver/src/stm32f4xx_can.c ****     CANx->sTxMailBox[2].TDTR &= ((uint32_t)~CAN_TDT2R_TGT);
 542:../Libraries/STM32F4xx_StdPeriph_Driver/src/stm32f4xx_can.c ****   }
 543:../Libraries/STM32F4xx_StdPeriph_Driver/src/stm32f4xx_can.c **** }
 1184              		.loc 1 543 1 view .LVU290
 1185 0054 38BD     		pop	{r3, r4, r5, pc}	@
 1186              	.LVL55:
 1187              	.L70:
 536:../Libraries/STM32F4xx_StdPeriph_Driver/src/stm32f4xx_can.c **** 
 1188              		.loc 1 536 5 is_stmt 1 view .LVU291
 1189              	@ ../Libraries/STM32F4xx_StdPeriph_Driver/src/stm32f4xx_can.c:536:     CANx->MCR &= (uint32_t)(~(ui
 536:../Libraries/STM32F4xx_StdPeriph_Driver/src/stm32f4xx_can.c **** 
 1190              		.loc 1 536 15 is_stmt 0 view .LVU292
 1191 0056 23F08003 		bic	r3, r3, #128	@ _12, _11,
 1192 005a 2360     		str	r3, [r4]	@ _12, CANx_21(D)->MCR
 539:../Libraries/STM32F4xx_StdPeriph_Driver/src/stm32f4xx_can.c ****     CANx->sTxMailBox[1].TDTR &= ((uint32_t)~CAN_TDT1R_TGT);
 1193              		.loc 1 539 5 is_stmt 1 view .LVU293
 1194              	@ ../Libraries/STM32F4xx_StdPeriph_Driver/src/stm32f4xx_can.c:539:     CANx->sTxMailBox[0].TDTR &= 
 539:../Libraries/STM32F4xx_StdPeriph_Driver/src/stm32f4xx_can.c ****     CANx->sTxMailBox[1].TDTR &= ((uint32_t)~CAN_TDT1R_TGT);
 1195              		.loc 1 539 30 is_stmt 0 view .LVU294
 1196 005c D4F88431 		ldr	r3, [r4, #388]	@ _13, CANx_21(D)->sTxMailBox[0].TDTR
 1197 0060 23F48073 		bic	r3, r3, #256	@ _14, _13,
 1198 0064 C4F88431 		str	r3, [r4, #388]	@ _14, CANx_21(D)->sTxMailBox[0].TDTR
 540:../Libraries/STM32F4xx_StdPeriph_Driver/src/stm32f4xx_can.c ****     CANx->sTxMailBox[2].TDTR &= ((uint32_t)~CAN_TDT2R_TGT);
 1199              		.loc 1 540 5 is_stmt 1 view .LVU295
ARM GAS  C:\Users\admin\AppData\Local\Temp\ccqywAa9.s 			page 33


 1200              	@ ../Libraries/STM32F4xx_StdPeriph_Driver/src/stm32f4xx_can.c:540:     CANx->sTxMailBox[1].TDTR &= 
 540:../Libraries/STM32F4xx_StdPeriph_Driver/src/stm32f4xx_can.c ****     CANx->sTxMailBox[2].TDTR &= ((uint32_t)~CAN_TDT2R_TGT);
 1201              		.loc 1 540 30 is_stmt 0 view .LVU296
 1202 0068 D4F89431 		ldr	r3, [r4, #404]	@ _15, CANx_21(D)->sTxMailBox[1].TDTR
 1203 006c 23F48073 		bic	r3, r3, #256	@ _16, _15,
 1204 0070 C4F89431 		str	r3, [r4, #404]	@ _16, CANx_21(D)->sTxMailBox[1].TDTR
 541:../Libraries/STM32F4xx_StdPeriph_Driver/src/stm32f4xx_can.c ****   }
 1205              		.loc 1 541 5 is_stmt 1 view .LVU297
 1206              	@ ../Libraries/STM32F4xx_StdPeriph_Driver/src/stm32f4xx_can.c:541:     CANx->sTxMailBox[2].TDTR &= 
 541:../Libraries/STM32F4xx_StdPeriph_Driver/src/stm32f4xx_can.c ****   }
 1207              		.loc 1 541 30 is_stmt 0 view .LVU298
 1208 0074 D4F8A431 		ldr	r3, [r4, #420]	@ _17, CANx_21(D)->sTxMailBox[2].TDTR
 1209 0078 23F48073 		bic	r3, r3, #256	@ _18, _17,
 1210 007c C4F8A431 		str	r3, [r4, #420]	@ _18,
 1211              	@ ../Libraries/STM32F4xx_StdPeriph_Driver/src/stm32f4xx_can.c:543: }
 1212              		.loc 1 543 1 view .LVU299
 1213 0080 38BD     		pop	{r3, r4, r5, pc}	@
 1214              	.LVL56:
 1215              	.L72:
 1216              	@ ../Libraries/STM32F4xx_StdPeriph_Driver/src/stm32f4xx_can.c:521:   assert_param(IS_CAN_ALL_PERIPH
 521:../Libraries/STM32F4xx_StdPeriph_Driver/src/stm32f4xx_can.c ****   assert_param(IS_FUNCTIONAL_STATE(NewState));
 1217              		.loc 1 521 3 view .LVU300
 1218 0082 0120     		movs	r0, #1	@ iftmp.3_19,
 1219              	.LVL57:
 521:../Libraries/STM32F4xx_StdPeriph_Driver/src/stm32f4xx_can.c ****   assert_param(IS_FUNCTIONAL_STATE(NewState));
 1220              		.loc 1 521 3 view .LVU301
 1221 0084 C7E7     		b	.L69		@
 1222              	.L75:
 1223 0086 00BF     		.align	2
 1224              	.L74:
 1225 0088 00640040 		.word	1073767424
 1226 008c 00680040 		.word	1073768448
 1227              		.cfi_endproc
 1228              	.LFE116:
 1229              		.size	CAN_TTComModeCmd, .-CAN_TTComModeCmd
 1230              		.section	.text.CAN_Transmit,"ax",%progbits
 1231              		.align	1
 1232              		.p2align 2,,3
 1233              		.global	CAN_Transmit
 1234              		.syntax unified
 1235              		.thumb
 1236              		.thumb_func
 1237              		.type	CAN_Transmit, %function
 1238              	CAN_Transmit:
 1239              	.LVL58:
 1240              	.LFB117:
 544:../Libraries/STM32F4xx_StdPeriph_Driver/src/stm32f4xx_can.c **** /**
 545:../Libraries/STM32F4xx_StdPeriph_Driver/src/stm32f4xx_can.c ****   * @}
 546:../Libraries/STM32F4xx_StdPeriph_Driver/src/stm32f4xx_can.c ****   */
 547:../Libraries/STM32F4xx_StdPeriph_Driver/src/stm32f4xx_can.c **** 
 548:../Libraries/STM32F4xx_StdPeriph_Driver/src/stm32f4xx_can.c **** 
 549:../Libraries/STM32F4xx_StdPeriph_Driver/src/stm32f4xx_can.c **** /** @defgroup CAN_Group2 CAN Frames Transmission functions
 550:../Libraries/STM32F4xx_StdPeriph_Driver/src/stm32f4xx_can.c ****  *  @brief    CAN Frames Transmission functions 
 551:../Libraries/STM32F4xx_StdPeriph_Driver/src/stm32f4xx_can.c ****  *
 552:../Libraries/STM32F4xx_StdPeriph_Driver/src/stm32f4xx_can.c **** @verbatim    
 553:../Libraries/STM32F4xx_StdPeriph_Driver/src/stm32f4xx_can.c ****  ===============================================================================
 554:../Libraries/STM32F4xx_StdPeriph_Driver/src/stm32f4xx_can.c ****                       CAN Frames Transmission functions
ARM GAS  C:\Users\admin\AppData\Local\Temp\ccqywAa9.s 			page 34


 555:../Libraries/STM32F4xx_StdPeriph_Driver/src/stm32f4xx_can.c ****  ===============================================================================  
 556:../Libraries/STM32F4xx_StdPeriph_Driver/src/stm32f4xx_can.c ****   This section provides functions allowing to 
 557:../Libraries/STM32F4xx_StdPeriph_Driver/src/stm32f4xx_can.c ****    - Initiate and transmit a CAN frame message (if there is an empty mailbox).
 558:../Libraries/STM32F4xx_StdPeriph_Driver/src/stm32f4xx_can.c ****    - Check the transmission status of a CAN Frame
 559:../Libraries/STM32F4xx_StdPeriph_Driver/src/stm32f4xx_can.c ****    - Cancel a transmit request
 560:../Libraries/STM32F4xx_StdPeriph_Driver/src/stm32f4xx_can.c ****    
 561:../Libraries/STM32F4xx_StdPeriph_Driver/src/stm32f4xx_can.c **** @endverbatim
 562:../Libraries/STM32F4xx_StdPeriph_Driver/src/stm32f4xx_can.c ****   * @{
 563:../Libraries/STM32F4xx_StdPeriph_Driver/src/stm32f4xx_can.c ****   */
 564:../Libraries/STM32F4xx_StdPeriph_Driver/src/stm32f4xx_can.c **** 
 565:../Libraries/STM32F4xx_StdPeriph_Driver/src/stm32f4xx_can.c **** /**
 566:../Libraries/STM32F4xx_StdPeriph_Driver/src/stm32f4xx_can.c ****   * @brief  Initiates and transmits a CAN frame message.
 567:../Libraries/STM32F4xx_StdPeriph_Driver/src/stm32f4xx_can.c ****   * @param  CANx: where x can be 1 or 2 to to select the CAN peripheral.
 568:../Libraries/STM32F4xx_StdPeriph_Driver/src/stm32f4xx_can.c ****   * @param  TxMessage: pointer to a structure which contains CAN Id, CAN DLC and CAN data.
 569:../Libraries/STM32F4xx_StdPeriph_Driver/src/stm32f4xx_can.c ****   * @retval The number of the mailbox that is used for transmission or
 570:../Libraries/STM32F4xx_StdPeriph_Driver/src/stm32f4xx_can.c ****   *         CAN_TxStatus_NoMailBox if there is no empty mailbox.
 571:../Libraries/STM32F4xx_StdPeriph_Driver/src/stm32f4xx_can.c ****   */
 572:../Libraries/STM32F4xx_StdPeriph_Driver/src/stm32f4xx_can.c **** uint8_t CAN_Transmit(CAN_TypeDef* CANx, CanTxMsg* TxMessage)
 573:../Libraries/STM32F4xx_StdPeriph_Driver/src/stm32f4xx_can.c **** {
 1241              		.loc 1 573 1 is_stmt 1 view -0
 1242              		.cfi_startproc
 1243              		@ args = 0, pretend = 0, frame = 0
 1244              		@ frame_needed = 0, uses_anonymous_args = 0
 574:../Libraries/STM32F4xx_StdPeriph_Driver/src/stm32f4xx_can.c ****   uint8_t transmit_mailbox = 0;
 1245              		.loc 1 574 3 view .LVU303
 575:../Libraries/STM32F4xx_StdPeriph_Driver/src/stm32f4xx_can.c ****   /* Check the parameters */
 576:../Libraries/STM32F4xx_StdPeriph_Driver/src/stm32f4xx_can.c ****   assert_param(IS_CAN_ALL_PERIPH(CANx));
 1246              		.loc 1 576 3 view .LVU304
 1247 0000 464B     		ldr	r3, .L89	@ tmp176,
 1248 0002 9842     		cmp	r0, r3	@ CANx, tmp176
 1249              	@ ../Libraries/STM32F4xx_StdPeriph_Driver/src/stm32f4xx_can.c:573: {
 573:../Libraries/STM32F4xx_StdPeriph_Driver/src/stm32f4xx_can.c ****   uint8_t transmit_mailbox = 0;
 1250              		.loc 1 573 1 is_stmt 0 view .LVU305
 1251 0004 2DE9F041 		push	{r4, r5, r6, r7, r8, lr}	@
 1252              		.cfi_def_cfa_offset 24
 1253              		.cfi_offset 4, -24
 1254              		.cfi_offset 5, -20
 1255              		.cfi_offset 6, -16
 1256              		.cfi_offset 7, -12
 1257              		.cfi_offset 8, -8
 1258              		.cfi_offset 14, -4
 1259              	@ ../Libraries/STM32F4xx_StdPeriph_Driver/src/stm32f4xx_can.c:573: {
 573:../Libraries/STM32F4xx_StdPeriph_Driver/src/stm32f4xx_can.c ****   uint8_t transmit_mailbox = 0;
 1260              		.loc 1 573 1 view .LVU306
 1261 0008 0646     		mov	r6, r0	@ CANx, tmp234
 1262 000a 0C46     		mov	r4, r1	@ TxMessage, tmp235
 1263              	@ ../Libraries/STM32F4xx_StdPeriph_Driver/src/stm32f4xx_can.c:576:   assert_param(IS_CAN_ALL_PERIPH
 1264              		.loc 1 576 3 view .LVU307
 1265 000c 00F08180 		beq	.L82		@,
 1266              	@ ../Libraries/STM32F4xx_StdPeriph_Driver/src/stm32f4xx_can.c:576:   assert_param(IS_CAN_ALL_PERIPH
 1267              		.loc 1 576 3 discriminator 2 view .LVU308
 1268 0010 4348     		ldr	r0, .L89+4	@ tmp179,
 1269              	.LVL59:
 1270              		.loc 1 576 3 discriminator 2 view .LVU309
 1271 0012 301A     		subs	r0, r6, r0	@ iftmp.4_76, CANx, tmp179
 1272 0014 B0FA80F0 		clz	r0, r0	@ iftmp.4_76, iftmp.4_76
 1273 0018 4009     		lsrs	r0, r0, #5	@ iftmp.4_76, iftmp.4_76,
ARM GAS  C:\Users\admin\AppData\Local\Temp\ccqywAa9.s 			page 35


 1274              	.L77:
 1275              	@ ../Libraries/STM32F4xx_StdPeriph_Driver/src/stm32f4xx_can.c:576:   assert_param(IS_CAN_ALL_PERIPH
 1276              		.loc 1 576 3 discriminator 6 view .LVU310
 1277 001a FFF7FEFF 		bl	assert_param		@
 1278              	.LVL60:
 577:../Libraries/STM32F4xx_StdPeriph_Driver/src/stm32f4xx_can.c ****   assert_param(IS_CAN_IDTYPE(TxMessage->IDE));
 1279              		.loc 1 577 3 is_stmt 1 discriminator 6 view .LVU311
 1280 001e 237A     		ldrb	r3, [r4, #8]	@ zero_extendqisi2	@ TxMessage_84(D)->IDE, TxMessage_84(D)->IDE
 1281 0020 13F0FB0F 		tst	r3, #251	@ TxMessage_84(D)->IDE,
 1282 0024 0CBF     		ite	eq
 1283 0026 0120     		moveq	r0, #1	@,
 1284 0028 0020     		movne	r0, #0	@,
 1285 002a FFF7FEFF 		bl	assert_param		@
 1286              	.LVL61:
 578:../Libraries/STM32F4xx_StdPeriph_Driver/src/stm32f4xx_can.c ****   assert_param(IS_CAN_RTR(TxMessage->RTR));
 1287              		.loc 1 578 3 discriminator 6 view .LVU312
 1288 002e 637A     		ldrb	r3, [r4, #9]	@ zero_extendqisi2	@ TxMessage_84(D)->RTR, TxMessage_84(D)->RTR
 1289 0030 13F0FD0F 		tst	r3, #253	@ TxMessage_84(D)->RTR,
 1290 0034 0CBF     		ite	eq
 1291 0036 0120     		moveq	r0, #1	@,
 1292 0038 0020     		movne	r0, #0	@,
 1293 003a FFF7FEFF 		bl	assert_param		@
 1294              	.LVL62:
 579:../Libraries/STM32F4xx_StdPeriph_Driver/src/stm32f4xx_can.c ****   assert_param(IS_CAN_DLC(TxMessage->DLC));
 1295              		.loc 1 579 3 discriminator 6 view .LVU313
 1296 003e A07A     		ldrb	r0, [r4, #10]	@ zero_extendqisi2	@ TxMessage_84(D)->DLC, TxMessage_84(D)->DLC
 1297 0040 0828     		cmp	r0, #8	@ TxMessage_84(D)->DLC,
 1298 0042 8CBF     		ite	hi
 1299 0044 0020     		movhi	r0, #0	@,
 1300 0046 0120     		movls	r0, #1	@,
 1301 0048 FFF7FEFF 		bl	assert_param		@
 1302              	.LVL63:
 580:../Libraries/STM32F4xx_StdPeriph_Driver/src/stm32f4xx_can.c **** 
 581:../Libraries/STM32F4xx_StdPeriph_Driver/src/stm32f4xx_can.c ****   /* Select one empty transmit mailbox */
 582:../Libraries/STM32F4xx_StdPeriph_Driver/src/stm32f4xx_can.c ****   if ((CANx->TSR&CAN_TSR_TME0) == CAN_TSR_TME0)
 1303              		.loc 1 582 3 discriminator 6 view .LVU314
 1304              	@ ../Libraries/STM32F4xx_StdPeriph_Driver/src/stm32f4xx_can.c:582:   if ((CANx->TSR&CAN_TSR_TME0) =
 1305              		.loc 1 582 12 is_stmt 0 discriminator 6 view .LVU315
 1306 004c B368     		ldr	r3, [r6, #8]	@ _6, CANx_81(D)->TSR
 1307              	@ ../Libraries/STM32F4xx_StdPeriph_Driver/src/stm32f4xx_can.c:582:   if ((CANx->TSR&CAN_TSR_TME0) =
 1308              		.loc 1 582 6 discriminator 6 view .LVU316
 1309 004e 5901     		lsls	r1, r3, #5	@, _6,
 1310 0050 05D4     		bmi	.L83		@,
 583:../Libraries/STM32F4xx_StdPeriph_Driver/src/stm32f4xx_can.c ****   {
 584:../Libraries/STM32F4xx_StdPeriph_Driver/src/stm32f4xx_can.c ****     transmit_mailbox = 0;
 585:../Libraries/STM32F4xx_StdPeriph_Driver/src/stm32f4xx_can.c ****   }
 586:../Libraries/STM32F4xx_StdPeriph_Driver/src/stm32f4xx_can.c ****   else if ((CANx->TSR&CAN_TSR_TME1) == CAN_TSR_TME1)
 1311              		.loc 1 586 8 is_stmt 1 view .LVU317
 1312              	@ ../Libraries/STM32F4xx_StdPeriph_Driver/src/stm32f4xx_can.c:586:   else if ((CANx->TSR&CAN_TSR_TM
 1313              		.loc 1 586 17 is_stmt 0 view .LVU318
 1314 0052 B368     		ldr	r3, [r6, #8]	@ _8, CANx_81(D)->TSR
 1315              	@ ../Libraries/STM32F4xx_StdPeriph_Driver/src/stm32f4xx_can.c:586:   else if ((CANx->TSR&CAN_TSR_TM
 1316              		.loc 1 586 11 view .LVU319
 1317 0054 1A01     		lsls	r2, r3, #4	@, _8,
 1318 0056 56D5     		bpl	.L87		@,
 1319 0058 0125     		movs	r5, #1	@ prephitmp_155,
 1320              	@ ../Libraries/STM32F4xx_StdPeriph_Driver/src/stm32f4xx_can.c:588:     transmit_mailbox = 1;
ARM GAS  C:\Users\admin\AppData\Local\Temp\ccqywAa9.s 			page 36


 587:../Libraries/STM32F4xx_StdPeriph_Driver/src/stm32f4xx_can.c ****   {
 588:../Libraries/STM32F4xx_StdPeriph_Driver/src/stm32f4xx_can.c ****     transmit_mailbox = 1;
 1321              		.loc 1 588 22 view .LVU320
 1322 005a 2F46     		mov	r7, r5	@ <retval>, prephitmp_155
 1323 005c 01E0     		b	.L78		@
 1324              	.L83:
 1325 005e 0025     		movs	r5, #0	@ prephitmp_155,
 1326              	@ ../Libraries/STM32F4xx_StdPeriph_Driver/src/stm32f4xx_can.c:584:     transmit_mailbox = 0;
 584:../Libraries/STM32F4xx_StdPeriph_Driver/src/stm32f4xx_can.c ****   }
 1327              		.loc 1 584 22 view .LVU321
 1328 0060 2F46     		mov	r7, r5	@ <retval>, prephitmp_155
 1329              	.L78:
 1330              	.LVL64:
 589:../Libraries/STM32F4xx_StdPeriph_Driver/src/stm32f4xx_can.c ****   }
 590:../Libraries/STM32F4xx_StdPeriph_Driver/src/stm32f4xx_can.c ****   else if ((CANx->TSR&CAN_TSR_TME2) == CAN_TSR_TME2)
 591:../Libraries/STM32F4xx_StdPeriph_Driver/src/stm32f4xx_can.c ****   {
 592:../Libraries/STM32F4xx_StdPeriph_Driver/src/stm32f4xx_can.c ****     transmit_mailbox = 2;
 593:../Libraries/STM32F4xx_StdPeriph_Driver/src/stm32f4xx_can.c ****   }
 594:../Libraries/STM32F4xx_StdPeriph_Driver/src/stm32f4xx_can.c ****   else
 595:../Libraries/STM32F4xx_StdPeriph_Driver/src/stm32f4xx_can.c ****   {
 596:../Libraries/STM32F4xx_StdPeriph_Driver/src/stm32f4xx_can.c ****     transmit_mailbox = CAN_TxStatus_NoMailBox;
 597:../Libraries/STM32F4xx_StdPeriph_Driver/src/stm32f4xx_can.c ****   }
 598:../Libraries/STM32F4xx_StdPeriph_Driver/src/stm32f4xx_can.c **** 
 599:../Libraries/STM32F4xx_StdPeriph_Driver/src/stm32f4xx_can.c ****   if (transmit_mailbox != CAN_TxStatus_NoMailBox)
 600:../Libraries/STM32F4xx_StdPeriph_Driver/src/stm32f4xx_can.c ****   {
 601:../Libraries/STM32F4xx_StdPeriph_Driver/src/stm32f4xx_can.c ****     /* Set up the Id */
 602:../Libraries/STM32F4xx_StdPeriph_Driver/src/stm32f4xx_can.c ****     CANx->sTxMailBox[transmit_mailbox].TIR &= TMIDxR_TXRQ;
 1331              		.loc 1 602 5 is_stmt 1 view .LVU322
 1332 0062 4FEA0518 		lsl	r8, r5, #4	@ tmp233, prephitmp_155,
 1333 0066 06EB0515 		add	r5, r6, r5, lsl #4	@ _48, CANx, prephitmp_155,
 1334              	@ ../Libraries/STM32F4xx_StdPeriph_Driver/src/stm32f4xx_can.c:602:     CANx->sTxMailBox[transmit_ma
 1335              		.loc 1 602 44 is_stmt 0 view .LVU323
 1336 006a D5F88031 		ldr	r3, [r5, #384]	@ _13, MEM <volatile uint32_t> [(struct CAN_TypeDef *)_48 + 384B]
 1337 006e 03F00103 		and	r3, r3, #1	@ _14, _13,
 1338 0072 C5F88031 		str	r3, [r5, #384]	@ _14, MEM <volatile uint32_t> [(struct CAN_TypeDef *)_48 + 384B]
 603:../Libraries/STM32F4xx_StdPeriph_Driver/src/stm32f4xx_can.c ****     if (TxMessage->IDE == CAN_Id_Standard)
 1339              		.loc 1 603 5 is_stmt 1 view .LVU324
 1340              	@ ../Libraries/STM32F4xx_StdPeriph_Driver/src/stm32f4xx_can.c:603:     if (TxMessage->IDE == CAN_Id
 1341              		.loc 1 603 8 is_stmt 0 view .LVU325
 1342 0076 237A     		ldrb	r3, [r4, #8]	@ zero_extendqisi2	@ TxMessage_84(D)->IDE, TxMessage_84(D)->IDE
 1343 0078 9BB3     		cbz	r3, .L88	@ TxMessage_84(D)->IDE,
 604:../Libraries/STM32F4xx_StdPeriph_Driver/src/stm32f4xx_can.c ****     {
 605:../Libraries/STM32F4xx_StdPeriph_Driver/src/stm32f4xx_can.c ****       assert_param(IS_CAN_STDID(TxMessage->StdId));  
 606:../Libraries/STM32F4xx_StdPeriph_Driver/src/stm32f4xx_can.c ****       CANx->sTxMailBox[transmit_mailbox].TIR |= ((TxMessage->StdId << 21) | \
 607:../Libraries/STM32F4xx_StdPeriph_Driver/src/stm32f4xx_can.c ****                                                   TxMessage->RTR);
 608:../Libraries/STM32F4xx_StdPeriph_Driver/src/stm32f4xx_can.c ****     }
 609:../Libraries/STM32F4xx_StdPeriph_Driver/src/stm32f4xx_can.c ****     else
 610:../Libraries/STM32F4xx_StdPeriph_Driver/src/stm32f4xx_can.c ****     {
 611:../Libraries/STM32F4xx_StdPeriph_Driver/src/stm32f4xx_can.c ****       assert_param(IS_CAN_EXTID(TxMessage->ExtId));
 1344              		.loc 1 611 7 is_stmt 1 view .LVU326
 1345 007a 6068     		ldr	r0, [r4, #4]	@ TxMessage_84(D)->ExtId, TxMessage_84(D)->ExtId
 1346 007c B0F1005F 		cmp	r0, #536870912	@ TxMessage_84(D)->ExtId,
 1347 0080 2CBF     		ite	cs
 1348 0082 0020     		movcs	r0, #0	@,
 1349 0084 0120     		movcc	r0, #1	@,
 1350 0086 FFF7FEFF 		bl	assert_param		@
 1351              	.LVL65:
ARM GAS  C:\Users\admin\AppData\Local\Temp\ccqywAa9.s 			page 37


 612:../Libraries/STM32F4xx_StdPeriph_Driver/src/stm32f4xx_can.c ****       CANx->sTxMailBox[transmit_mailbox].TIR |= ((TxMessage->ExtId << 3) | \
 1352              		.loc 1 612 7 view .LVU327
 1353              	@ ../Libraries/STM32F4xx_StdPeriph_Driver/src/stm32f4xx_can.c:612:       CANx->sTxMailBox[transmit_
 1354              		.loc 1 612 68 is_stmt 0 view .LVU328
 1355 008a 6268     		ldr	r2, [r4, #4]	@ TxMessage_84(D)->ExtId, TxMessage_84(D)->ExtId
 1356              	@ ../Libraries/STM32F4xx_StdPeriph_Driver/src/stm32f4xx_can.c:613:                                 
 613:../Libraries/STM32F4xx_StdPeriph_Driver/src/stm32f4xx_can.c ****                                                   TxMessage->IDE | \
 1357              		.loc 1 613 60 view .LVU329
 1358 008c 237A     		ldrb	r3, [r4, #8]	@ zero_extendqisi2	@ TxMessage_84(D)->IDE, TxMessage_84(D)->IDE
 1359              	@ ../Libraries/STM32F4xx_StdPeriph_Driver/src/stm32f4xx_can.c:612:       CANx->sTxMailBox[transmit_
 612:../Libraries/STM32F4xx_StdPeriph_Driver/src/stm32f4xx_can.c ****       CANx->sTxMailBox[transmit_mailbox].TIR |= ((TxMessage->ExtId << 3) | \
 1360              		.loc 1 612 74 view .LVU330
 1361 008e 43EAC203 		orr	r3, r3, r2, lsl #3	@ tmp217, TxMessage_84(D)->IDE, TxMessage_84(D)->ExtId,
 1362              	@ ../Libraries/STM32F4xx_StdPeriph_Driver/src/stm32f4xx_can.c:614:                                 
 614:../Libraries/STM32F4xx_StdPeriph_Driver/src/stm32f4xx_can.c ****                                                   TxMessage->RTR);
 1363              		.loc 1 614 60 view .LVU331
 1364 0092 627A     		ldrb	r2, [r4, #9]	@ zero_extendqisi2	@ TxMessage_84(D)->RTR, TxMessage_84(D)->RTR
 1365              	@ ../Libraries/STM32F4xx_StdPeriph_Driver/src/stm32f4xx_can.c:613:                                 
 613:../Libraries/STM32F4xx_StdPeriph_Driver/src/stm32f4xx_can.c ****                                                   TxMessage->IDE | \
 1366              		.loc 1 613 66 view .LVU332
 1367 0094 1343     		orrs	r3, r3, r2	@, tmp219, tmp217, TxMessage_84(D)->RTR
 1368              	@ ../Libraries/STM32F4xx_StdPeriph_Driver/src/stm32f4xx_can.c:612:       CANx->sTxMailBox[transmit_
 612:../Libraries/STM32F4xx_StdPeriph_Driver/src/stm32f4xx_can.c ****       CANx->sTxMailBox[transmit_mailbox].TIR |= ((TxMessage->ExtId << 3) | \
 1369              		.loc 1 612 46 view .LVU333
 1370 0096 D5F88021 		ldr	r2, [r5, #384]	@ _29,
 1371 009a 1343     		orrs	r3, r3, r2	@, _38, tmp219, _29
 1372 009c C5F88031 		str	r3, [r5, #384]	@ _38,
 1373              	.L81:
 615:../Libraries/STM32F4xx_StdPeriph_Driver/src/stm32f4xx_can.c ****     }
 616:../Libraries/STM32F4xx_StdPeriph_Driver/src/stm32f4xx_can.c ****     
 617:../Libraries/STM32F4xx_StdPeriph_Driver/src/stm32f4xx_can.c ****     /* Set up the DLC */
 618:../Libraries/STM32F4xx_StdPeriph_Driver/src/stm32f4xx_can.c ****     TxMessage->DLC &= (uint8_t)0x0000000F;
 1374              		.loc 1 618 5 is_stmt 1 view .LVU334
 1375              	@ ../Libraries/STM32F4xx_StdPeriph_Driver/src/stm32f4xx_can.c:618:     TxMessage->DLC &= (uint8_t)0
 1376              		.loc 1 618 20 is_stmt 0 view .LVU335
 1377 00a0 A37A     		ldrb	r3, [r4, #10]	@ zero_extendqisi2	@ TxMessage_84(D)->DLC, TxMessage_84(D)->DLC
 1378 00a2 03F00F03 		and	r3, r3, #15	@ _40, TxMessage_84(D)->DLC,
 1379 00a6 A372     		strb	r3, [r4, #10]	@ _40, TxMessage_84(D)->DLC
 619:../Libraries/STM32F4xx_StdPeriph_Driver/src/stm32f4xx_can.c ****     CANx->sTxMailBox[transmit_mailbox].TDTR &= (uint32_t)0xFFFFFFF0;
 1380              		.loc 1 619 5 is_stmt 1 view .LVU336
 1381              	@ ../Libraries/STM32F4xx_StdPeriph_Driver/src/stm32f4xx_can.c:619:     CANx->sTxMailBox[transmit_ma
 1382              		.loc 1 619 45 is_stmt 0 view .LVU337
 1383 00a8 D5F88421 		ldr	r2, [r5, #388]	@ _41, MEM <volatile uint32_t> [(struct CAN_TypeDef *)_48 + 388B]
 1384 00ac 22F00F02 		bic	r2, r2, #15	@ _42, _41,
 1385 00b0 C5F88421 		str	r2, [r5, #388]	@ _42, MEM <volatile uint32_t> [(struct CAN_TypeDef *)_48 + 388B]
 620:../Libraries/STM32F4xx_StdPeriph_Driver/src/stm32f4xx_can.c ****     CANx->sTxMailBox[transmit_mailbox].TDTR |= TxMessage->DLC;
 1386              		.loc 1 620 5 is_stmt 1 view .LVU338
 1387              	@ ../Libraries/STM32F4xx_StdPeriph_Driver/src/stm32f4xx_can.c:620:     CANx->sTxMailBox[transmit_ma
 1388              		.loc 1 620 45 is_stmt 0 view .LVU339
 1389 00b4 D5F88421 		ldr	r2, [r5, #388]	@ _43, MEM <volatile uint32_t> [(struct CAN_TypeDef *)_48 + 388B]
 1390 00b8 1343     		orrs	r3, r3, r2	@, _45, _40, _43
 1391 00ba C5F88431 		str	r3, [r5, #388]	@ _45, MEM <volatile uint32_t> [(struct CAN_TypeDef *)_48 + 388B]
 621:../Libraries/STM32F4xx_StdPeriph_Driver/src/stm32f4xx_can.c **** 
 622:../Libraries/STM32F4xx_StdPeriph_Driver/src/stm32f4xx_can.c ****     /* Set up the data field */
 623:../Libraries/STM32F4xx_StdPeriph_Driver/src/stm32f4xx_can.c ****     CANx->sTxMailBox[transmit_mailbox].TDLR = (((uint32_t)TxMessage->Data[3] << 24) | 
 1392              		.loc 1 623 5 is_stmt 1 view .LVU340
 1393              	@ ../Libraries/STM32F4xx_StdPeriph_Driver/src/stm32f4xx_can.c:623:     CANx->sTxMailBox[transmit_ma
ARM GAS  C:\Users\admin\AppData\Local\Temp\ccqywAa9.s 			page 38


 1394              		.loc 1 623 45 is_stmt 0 view .LVU341
 1395 00be 4644     		add	r6, r6, r8	@ tmp226, tmp233
 1396              	.LVL66:
 1397              	@ ../Libraries/STM32F4xx_StdPeriph_Driver/src/stm32f4xx_can.c:625:                                 
 624:../Libraries/STM32F4xx_StdPeriph_Driver/src/stm32f4xx_can.c ****                                              ((uint32_t)TxMessage->Data[2] << 16) |
 625:../Libraries/STM32F4xx_StdPeriph_Driver/src/stm32f4xx_can.c ****                                              ((uint32_t)TxMessage->Data[1] << 8) | 
 1398              		.loc 1 625 82 view .LVU342
 1399 00c0 D4F80B30 		ldr	r3, [r4, #11]	@ unaligned	@ tmp224, MEM <long unsigned int> [(unsigned char *)TxMessage_84(D) 
 1400              	@ ../Libraries/STM32F4xx_StdPeriph_Driver/src/stm32f4xx_can.c:623:     CANx->sTxMailBox[transmit_ma
 623:../Libraries/STM32F4xx_StdPeriph_Driver/src/stm32f4xx_can.c ****                                              ((uint32_t)TxMessage->Data[2] << 16) |
 1401              		.loc 1 623 45 view .LVU343
 1402 00c4 C6F88831 		str	r3, [r6, #392]	@ tmp224, CANx_81(D)->sTxMailBox[prephitmp_155].TDLR
 626:../Libraries/STM32F4xx_StdPeriph_Driver/src/stm32f4xx_can.c ****                                              ((uint32_t)TxMessage->Data[0]));
 627:../Libraries/STM32F4xx_StdPeriph_Driver/src/stm32f4xx_can.c ****     CANx->sTxMailBox[transmit_mailbox].TDHR = (((uint32_t)TxMessage->Data[7] << 24) | 
 1403              		.loc 1 627 5 is_stmt 1 view .LVU344
 1404              	@ ../Libraries/STM32F4xx_StdPeriph_Driver/src/stm32f4xx_can.c:629:                                 
 628:../Libraries/STM32F4xx_StdPeriph_Driver/src/stm32f4xx_can.c ****                                              ((uint32_t)TxMessage->Data[6] << 16) |
 629:../Libraries/STM32F4xx_StdPeriph_Driver/src/stm32f4xx_can.c ****                                              ((uint32_t)TxMessage->Data[5] << 8) |
 1405              		.loc 1 629 82 is_stmt 0 view .LVU345
 1406 00c8 D4F80F30 		ldr	r3, [r4, #15]	@ unaligned	@ tmp228, MEM <long unsigned int> [(unsigned char *)TxMessage_84(D) 
 1407              	@ ../Libraries/STM32F4xx_StdPeriph_Driver/src/stm32f4xx_can.c:627:     CANx->sTxMailBox[transmit_ma
 627:../Libraries/STM32F4xx_StdPeriph_Driver/src/stm32f4xx_can.c ****                                              ((uint32_t)TxMessage->Data[6] << 16) |
 1408              		.loc 1 627 45 view .LVU346
 1409 00cc C6F88C31 		str	r3, [r6, #396]	@ tmp228, CANx_81(D)->sTxMailBox[prephitmp_155].TDHR
 630:../Libraries/STM32F4xx_StdPeriph_Driver/src/stm32f4xx_can.c ****                                              ((uint32_t)TxMessage->Data[4]));
 631:../Libraries/STM32F4xx_StdPeriph_Driver/src/stm32f4xx_can.c ****     /* Request transmission */
 632:../Libraries/STM32F4xx_StdPeriph_Driver/src/stm32f4xx_can.c ****     CANx->sTxMailBox[transmit_mailbox].TIR |= TMIDxR_TXRQ;
 1410              		.loc 1 632 5 is_stmt 1 view .LVU347
 1411              	@ ../Libraries/STM32F4xx_StdPeriph_Driver/src/stm32f4xx_can.c:632:     CANx->sTxMailBox[transmit_ma
 1412              		.loc 1 632 44 is_stmt 0 view .LVU348
 1413 00d0 D5F88031 		ldr	r3, [r5, #384]	@ _74, MEM <volatile uint32_t> [(struct CAN_TypeDef *)_48 + 384B]
 1414 00d4 43F00103 		orr	r3, r3, #1	@ _75, _74,
 1415 00d8 C5F88031 		str	r3, [r5, #384]	@ _75, MEM <volatile uint32_t> [(struct CAN_TypeDef *)_48 + 384B]
 1416              	.L79:
 633:../Libraries/STM32F4xx_StdPeriph_Driver/src/stm32f4xx_can.c ****   }
 634:../Libraries/STM32F4xx_StdPeriph_Driver/src/stm32f4xx_can.c ****   return transmit_mailbox;
 1417              		.loc 1 634 3 is_stmt 1 view .LVU349
 1418              	@ ../Libraries/STM32F4xx_StdPeriph_Driver/src/stm32f4xx_can.c:635: }
 635:../Libraries/STM32F4xx_StdPeriph_Driver/src/stm32f4xx_can.c **** }
 1419              		.loc 1 635 1 is_stmt 0 view .LVU350
 1420 00dc 3846     		mov	r0, r7	@, <retval>
 1421 00de BDE8F081 		pop	{r4, r5, r6, r7, r8, pc}	@
 1422              	.LVL67:
 1423              	.L88:
 605:../Libraries/STM32F4xx_StdPeriph_Driver/src/stm32f4xx_can.c ****       CANx->sTxMailBox[transmit_mailbox].TIR |= ((TxMessage->StdId << 21) | \
 1424              		.loc 1 605 7 is_stmt 1 view .LVU351
 1425 00e2 2068     		ldr	r0, [r4]	@ TxMessage_84(D)->StdId, TxMessage_84(D)->StdId
 1426 00e4 B0F5006F 		cmp	r0, #2048	@ TxMessage_84(D)->StdId,
 1427 00e8 2CBF     		ite	cs
 1428 00ea 0020     		movcs	r0, #0	@,
 1429 00ec 0120     		movcc	r0, #1	@,
 1430 00ee FFF7FEFF 		bl	assert_param		@
 1431              	.LVL68:
 606:../Libraries/STM32F4xx_StdPeriph_Driver/src/stm32f4xx_can.c ****                                                   TxMessage->RTR);
 1432              		.loc 1 606 7 view .LVU352
 1433              	@ ../Libraries/STM32F4xx_StdPeriph_Driver/src/stm32f4xx_can.c:606:       CANx->sTxMailBox[transmit_
 606:../Libraries/STM32F4xx_StdPeriph_Driver/src/stm32f4xx_can.c ****                                                   TxMessage->RTR);
ARM GAS  C:\Users\admin\AppData\Local\Temp\ccqywAa9.s 			page 39


 1434              		.loc 1 606 68 is_stmt 0 view .LVU353
 1435 00f2 2268     		ldr	r2, [r4]	@ TxMessage_84(D)->StdId, TxMessage_84(D)->StdId
 1436              	@ ../Libraries/STM32F4xx_StdPeriph_Driver/src/stm32f4xx_can.c:607:                                 
 607:../Libraries/STM32F4xx_StdPeriph_Driver/src/stm32f4xx_can.c ****     }
 1437              		.loc 1 607 60 view .LVU354
 1438 00f4 637A     		ldrb	r3, [r4, #9]	@ zero_extendqisi2	@ TxMessage_84(D)->RTR, TxMessage_84(D)->RTR
 1439              	@ ../Libraries/STM32F4xx_StdPeriph_Driver/src/stm32f4xx_can.c:606:       CANx->sTxMailBox[transmit_
 606:../Libraries/STM32F4xx_StdPeriph_Driver/src/stm32f4xx_can.c ****                                                   TxMessage->RTR);
 1440              		.loc 1 606 75 view .LVU355
 1441 00f6 43EA4253 		orr	r3, r3, r2, lsl #21	@ tmp209, TxMessage_84(D)->RTR, TxMessage_84(D)->StdId,
 1442              	@ ../Libraries/STM32F4xx_StdPeriph_Driver/src/stm32f4xx_can.c:606:       CANx->sTxMailBox[transmit_
 606:../Libraries/STM32F4xx_StdPeriph_Driver/src/stm32f4xx_can.c ****                                                   TxMessage->RTR);
 1443              		.loc 1 606 46 view .LVU356
 1444 00fa D5F88021 		ldr	r2, [r5, #384]	@ _19,
 1445 00fe 1343     		orrs	r3, r3, r2	@, _25, tmp209, _19
 1446 0100 C5F88031 		str	r3, [r5, #384]	@ _25,
 1447 0104 CCE7     		b	.L81		@
 1448              	.LVL69:
 1449              	.L87:
 590:../Libraries/STM32F4xx_StdPeriph_Driver/src/stm32f4xx_can.c ****   {
 1450              		.loc 1 590 8 is_stmt 1 view .LVU357
 1451              	@ ../Libraries/STM32F4xx_StdPeriph_Driver/src/stm32f4xx_can.c:590:   else if ((CANx->TSR&CAN_TSR_TM
 590:../Libraries/STM32F4xx_StdPeriph_Driver/src/stm32f4xx_can.c ****   {
 1452              		.loc 1 590 17 is_stmt 0 view .LVU358
 1453 0106 B368     		ldr	r3, [r6, #8]	@ _10, CANx_81(D)->TSR
 1454              	@ ../Libraries/STM32F4xx_StdPeriph_Driver/src/stm32f4xx_can.c:590:   else if ((CANx->TSR&CAN_TSR_TM
 590:../Libraries/STM32F4xx_StdPeriph_Driver/src/stm32f4xx_can.c ****   {
 1455              		.loc 1 590 11 view .LVU359
 1456 0108 DB00     		lsls	r3, r3, #3	@, _10,
 1457 010a 04D5     		bpl	.L85		@,
 1458 010c 0225     		movs	r5, #2	@ prephitmp_155,
 1459              	@ ../Libraries/STM32F4xx_StdPeriph_Driver/src/stm32f4xx_can.c:592:     transmit_mailbox = 2;
 592:../Libraries/STM32F4xx_StdPeriph_Driver/src/stm32f4xx_can.c ****   }
 1460              		.loc 1 592 22 view .LVU360
 1461 010e 2F46     		mov	r7, r5	@ <retval>, prephitmp_155
 1462 0110 A7E7     		b	.L78		@
 1463              	.LVL70:
 1464              	.L82:
 1465              	@ ../Libraries/STM32F4xx_StdPeriph_Driver/src/stm32f4xx_can.c:576:   assert_param(IS_CAN_ALL_PERIPH
 576:../Libraries/STM32F4xx_StdPeriph_Driver/src/stm32f4xx_can.c ****   assert_param(IS_CAN_IDTYPE(TxMessage->IDE));
 1466              		.loc 1 576 3 view .LVU361
 1467 0112 0120     		movs	r0, #1	@ iftmp.4_76,
 1468              	.LVL71:
 576:../Libraries/STM32F4xx_StdPeriph_Driver/src/stm32f4xx_can.c ****   assert_param(IS_CAN_IDTYPE(TxMessage->IDE));
 1469              		.loc 1 576 3 view .LVU362
 1470 0114 81E7     		b	.L77		@
 1471              	.LVL72:
 1472              	.L85:
 1473              	@ ../Libraries/STM32F4xx_StdPeriph_Driver/src/stm32f4xx_can.c:596:     transmit_mailbox = CAN_TxSta
 596:../Libraries/STM32F4xx_StdPeriph_Driver/src/stm32f4xx_can.c ****   }
 1474              		.loc 1 596 22 view .LVU363
 1475 0116 0427     		movs	r7, #4	@ <retval>,
 1476 0118 E0E7     		b	.L79		@
 1477              	.L90:
 1478 011a 00BF     		.align	2
 1479              	.L89:
 1480 011c 00640040 		.word	1073767424
ARM GAS  C:\Users\admin\AppData\Local\Temp\ccqywAa9.s 			page 40


 1481 0120 00680040 		.word	1073768448
 1482              		.cfi_endproc
 1483              	.LFE117:
 1484              		.size	CAN_Transmit, .-CAN_Transmit
 1485              		.section	.text.CAN_TransmitStatus,"ax",%progbits
 1486              		.align	1
 1487              		.p2align 2,,3
 1488              		.global	CAN_TransmitStatus
 1489              		.syntax unified
 1490              		.thumb
 1491              		.thumb_func
 1492              		.type	CAN_TransmitStatus, %function
 1493              	CAN_TransmitStatus:
 1494              	.LVL73:
 1495              	.LFB118:
 636:../Libraries/STM32F4xx_StdPeriph_Driver/src/stm32f4xx_can.c **** 
 637:../Libraries/STM32F4xx_StdPeriph_Driver/src/stm32f4xx_can.c **** /**
 638:../Libraries/STM32F4xx_StdPeriph_Driver/src/stm32f4xx_can.c ****   * @brief  Checks the transmission status of a CAN Frame.
 639:../Libraries/STM32F4xx_StdPeriph_Driver/src/stm32f4xx_can.c ****   * @param  CANx: where x can be 1 or 2 to select the CAN peripheral.
 640:../Libraries/STM32F4xx_StdPeriph_Driver/src/stm32f4xx_can.c ****   * @param  TransmitMailbox: the number of the mailbox that is used for transmission.
 641:../Libraries/STM32F4xx_StdPeriph_Driver/src/stm32f4xx_can.c ****   * @retval CAN_TxStatus_Ok if the CAN driver transmits the message, 
 642:../Libraries/STM32F4xx_StdPeriph_Driver/src/stm32f4xx_can.c ****   *         CAN_TxStatus_Failed in an other case.
 643:../Libraries/STM32F4xx_StdPeriph_Driver/src/stm32f4xx_can.c ****   */
 644:../Libraries/STM32F4xx_StdPeriph_Driver/src/stm32f4xx_can.c **** uint8_t CAN_TransmitStatus(CAN_TypeDef* CANx, uint8_t TransmitMailbox)
 645:../Libraries/STM32F4xx_StdPeriph_Driver/src/stm32f4xx_can.c **** {
 1496              		.loc 1 645 1 is_stmt 1 view -0
 1497              		.cfi_startproc
 1498              		@ args = 0, pretend = 0, frame = 0
 1499              		@ frame_needed = 0, uses_anonymous_args = 0
 646:../Libraries/STM32F4xx_StdPeriph_Driver/src/stm32f4xx_can.c ****   uint32_t state = 0;
 1500              		.loc 1 646 3 view .LVU365
 647:../Libraries/STM32F4xx_StdPeriph_Driver/src/stm32f4xx_can.c **** 
 648:../Libraries/STM32F4xx_StdPeriph_Driver/src/stm32f4xx_can.c ****   /* Check the parameters */
 649:../Libraries/STM32F4xx_StdPeriph_Driver/src/stm32f4xx_can.c ****   assert_param(IS_CAN_ALL_PERIPH(CANx));
 1501              		.loc 1 649 3 view .LVU366
 1502              	@ ../Libraries/STM32F4xx_StdPeriph_Driver/src/stm32f4xx_can.c:645: {
 645:../Libraries/STM32F4xx_StdPeriph_Driver/src/stm32f4xx_can.c ****   uint32_t state = 0;
 1503              		.loc 1 645 1 is_stmt 0 view .LVU367
 1504 0000 38B5     		push	{r3, r4, r5, lr}	@
 1505              		.cfi_def_cfa_offset 16
 1506              		.cfi_offset 3, -16
 1507              		.cfi_offset 4, -12
 1508              		.cfi_offset 5, -8
 1509              		.cfi_offset 14, -4
 1510              	@ ../Libraries/STM32F4xx_StdPeriph_Driver/src/stm32f4xx_can.c:649:   assert_param(IS_CAN_ALL_PERIPH
 1511              		.loc 1 649 3 view .LVU368
 1512 0002 1C4B     		ldr	r3, .L104	@ tmp126,
 1513 0004 9842     		cmp	r0, r3	@ CANx, tmp126
 1514              	@ ../Libraries/STM32F4xx_StdPeriph_Driver/src/stm32f4xx_can.c:645: {
 645:../Libraries/STM32F4xx_StdPeriph_Driver/src/stm32f4xx_can.c ****   uint32_t state = 0;
 1515              		.loc 1 645 1 view .LVU369
 1516 0006 0546     		mov	r5, r0	@ CANx, tmp146
 1517 0008 0C46     		mov	r4, r1	@ TransmitMailbox, tmp147
 1518              	@ ../Libraries/STM32F4xx_StdPeriph_Driver/src/stm32f4xx_can.c:649:   assert_param(IS_CAN_ALL_PERIPH
 1519              		.loc 1 649 3 view .LVU370
 1520 000a 29D0     		beq	.L98		@,
 1521              	@ ../Libraries/STM32F4xx_StdPeriph_Driver/src/stm32f4xx_can.c:649:   assert_param(IS_CAN_ALL_PERIPH
ARM GAS  C:\Users\admin\AppData\Local\Temp\ccqywAa9.s 			page 41


 1522              		.loc 1 649 3 discriminator 2 view .LVU371
 1523 000c 1A48     		ldr	r0, .L104+4	@ tmp129,
 1524              	.LVL74:
 1525              		.loc 1 649 3 discriminator 2 view .LVU372
 1526 000e 281A     		subs	r0, r5, r0	@ iftmp.7_8, CANx, tmp129
 1527 0010 B0FA80F0 		clz	r0, r0	@ iftmp.7_8, iftmp.7_8
 1528 0014 4009     		lsrs	r0, r0, #5	@ iftmp.7_8, iftmp.7_8,
 1529              	.L92:
 1530              	@ ../Libraries/STM32F4xx_StdPeriph_Driver/src/stm32f4xx_can.c:649:   assert_param(IS_CAN_ALL_PERIPH
 1531              		.loc 1 649 3 discriminator 6 view .LVU373
 1532 0016 FFF7FEFF 		bl	assert_param		@
 1533              	.LVL75:
 650:../Libraries/STM32F4xx_StdPeriph_Driver/src/stm32f4xx_can.c ****   assert_param(IS_CAN_TRANSMITMAILBOX(TransmitMailbox));
 1534              		.loc 1 650 3 is_stmt 1 discriminator 6 view .LVU374
 1535 001a 022C     		cmp	r4, #2	@ TransmitMailbox,
 1536 001c 8CBF     		ite	hi
 1537 001e 0020     		movhi	r0, #0	@,
 1538 0020 0120     		movls	r0, #1	@,
 1539 0022 FFF7FEFF 		bl	assert_param		@
 1540              	.LVL76:
 651:../Libraries/STM32F4xx_StdPeriph_Driver/src/stm32f4xx_can.c ****  
 652:../Libraries/STM32F4xx_StdPeriph_Driver/src/stm32f4xx_can.c ****   switch (TransmitMailbox)
 1541              		.loc 1 652 3 discriminator 6 view .LVU375
 1542 0026 012C     		cmp	r4, #1	@ TransmitMailbox,
 1543 0028 1CD0     		beq	.L93		@,
 1544              	@ ../Libraries/STM32F4xx_StdPeriph_Driver/src/stm32f4xx_can.c:652:   switch (TransmitMailbox)
 1545              		.loc 1 652 3 is_stmt 0 view .LVU376
 1546 002a 022C     		cmp	r4, #2	@ TransmitMailbox,
 1547 002c 02D0     		beq	.L94		@,
 1548 002e 64B1     		cbz	r4, .L103	@ TransmitMailbox,
 1549              	.LVL77:
 1550              	.L101:
 1551              	@ ../Libraries/STM32F4xx_StdPeriph_Driver/src/stm32f4xx_can.c:667:   switch (state)
 653:../Libraries/STM32F4xx_StdPeriph_Driver/src/stm32f4xx_can.c ****   {
 654:../Libraries/STM32F4xx_StdPeriph_Driver/src/stm32f4xx_can.c ****     case (CAN_TXMAILBOX_0): 
 655:../Libraries/STM32F4xx_StdPeriph_Driver/src/stm32f4xx_can.c ****       state =   CANx->TSR &  (CAN_TSR_RQCP0 | CAN_TSR_TXOK0 | CAN_TSR_TME0);
 656:../Libraries/STM32F4xx_StdPeriph_Driver/src/stm32f4xx_can.c ****       break;
 657:../Libraries/STM32F4xx_StdPeriph_Driver/src/stm32f4xx_can.c ****     case (CAN_TXMAILBOX_1): 
 658:../Libraries/STM32F4xx_StdPeriph_Driver/src/stm32f4xx_can.c ****       state =   CANx->TSR &  (CAN_TSR_RQCP1 | CAN_TSR_TXOK1 | CAN_TSR_TME1);
 659:../Libraries/STM32F4xx_StdPeriph_Driver/src/stm32f4xx_can.c ****       break;
 660:../Libraries/STM32F4xx_StdPeriph_Driver/src/stm32f4xx_can.c ****     case (CAN_TXMAILBOX_2): 
 661:../Libraries/STM32F4xx_StdPeriph_Driver/src/stm32f4xx_can.c ****       state =   CANx->TSR &  (CAN_TSR_RQCP2 | CAN_TSR_TXOK2 | CAN_TSR_TME2);
 662:../Libraries/STM32F4xx_StdPeriph_Driver/src/stm32f4xx_can.c ****       break;
 663:../Libraries/STM32F4xx_StdPeriph_Driver/src/stm32f4xx_can.c ****     default:
 664:../Libraries/STM32F4xx_StdPeriph_Driver/src/stm32f4xx_can.c ****       state = CAN_TxStatus_Failed;
 665:../Libraries/STM32F4xx_StdPeriph_Driver/src/stm32f4xx_can.c ****       break;
 666:../Libraries/STM32F4xx_StdPeriph_Driver/src/stm32f4xx_can.c ****   }
 667:../Libraries/STM32F4xx_StdPeriph_Driver/src/stm32f4xx_can.c ****   switch (state)
 1552              		.loc 1 667 3 view .LVU377
 1553 0030 0220     		movs	r0, #2	@ <retval>,
 668:../Libraries/STM32F4xx_StdPeriph_Driver/src/stm32f4xx_can.c ****   {
 669:../Libraries/STM32F4xx_StdPeriph_Driver/src/stm32f4xx_can.c ****       /* transmit pending  */
 670:../Libraries/STM32F4xx_StdPeriph_Driver/src/stm32f4xx_can.c ****     case (0x0): state = CAN_TxStatus_Pending;
 671:../Libraries/STM32F4xx_StdPeriph_Driver/src/stm32f4xx_can.c ****       break;
 672:../Libraries/STM32F4xx_StdPeriph_Driver/src/stm32f4xx_can.c ****       /* transmit failed  */
 673:../Libraries/STM32F4xx_StdPeriph_Driver/src/stm32f4xx_can.c ****      case (CAN_TSR_RQCP0 | CAN_TSR_TME0): state = CAN_TxStatus_Failed;
 674:../Libraries/STM32F4xx_StdPeriph_Driver/src/stm32f4xx_can.c ****       break;
ARM GAS  C:\Users\admin\AppData\Local\Temp\ccqywAa9.s 			page 42


 675:../Libraries/STM32F4xx_StdPeriph_Driver/src/stm32f4xx_can.c ****      case (CAN_TSR_RQCP1 | CAN_TSR_TME1): state = CAN_TxStatus_Failed;
 676:../Libraries/STM32F4xx_StdPeriph_Driver/src/stm32f4xx_can.c ****       break;
 677:../Libraries/STM32F4xx_StdPeriph_Driver/src/stm32f4xx_can.c ****      case (CAN_TSR_RQCP2 | CAN_TSR_TME2): state = CAN_TxStatus_Failed;
 678:../Libraries/STM32F4xx_StdPeriph_Driver/src/stm32f4xx_can.c ****       break;
 679:../Libraries/STM32F4xx_StdPeriph_Driver/src/stm32f4xx_can.c ****       /* transmit succeeded  */
 680:../Libraries/STM32F4xx_StdPeriph_Driver/src/stm32f4xx_can.c ****     case (CAN_TSR_RQCP0 | CAN_TSR_TXOK0 | CAN_TSR_TME0):state = CAN_TxStatus_Ok;
 681:../Libraries/STM32F4xx_StdPeriph_Driver/src/stm32f4xx_can.c ****       break;
 682:../Libraries/STM32F4xx_StdPeriph_Driver/src/stm32f4xx_can.c ****     case (CAN_TSR_RQCP1 | CAN_TSR_TXOK1 | CAN_TSR_TME1):state = CAN_TxStatus_Ok;
 683:../Libraries/STM32F4xx_StdPeriph_Driver/src/stm32f4xx_can.c ****       break;
 684:../Libraries/STM32F4xx_StdPeriph_Driver/src/stm32f4xx_can.c ****     case (CAN_TSR_RQCP2 | CAN_TSR_TXOK2 | CAN_TSR_TME2):state = CAN_TxStatus_Ok;
 685:../Libraries/STM32F4xx_StdPeriph_Driver/src/stm32f4xx_can.c ****       break;
 686:../Libraries/STM32F4xx_StdPeriph_Driver/src/stm32f4xx_can.c ****     default: state = CAN_TxStatus_Failed;
 687:../Libraries/STM32F4xx_StdPeriph_Driver/src/stm32f4xx_can.c ****       break;
 688:../Libraries/STM32F4xx_StdPeriph_Driver/src/stm32f4xx_can.c ****   }
 689:../Libraries/STM32F4xx_StdPeriph_Driver/src/stm32f4xx_can.c ****   return (uint8_t) state;
 1554              		.loc 1 689 3 is_stmt 1 view .LVU378
 1555              	@ ../Libraries/STM32F4xx_StdPeriph_Driver/src/stm32f4xx_can.c:690: }
 690:../Libraries/STM32F4xx_StdPeriph_Driver/src/stm32f4xx_can.c **** }
 1556              		.loc 1 690 1 is_stmt 0 view .LVU379
 1557 0032 38BD     		pop	{r3, r4, r5, pc}	@
 1558              	.LVL78:
 1559              	.L94:
 661:../Libraries/STM32F4xx_StdPeriph_Driver/src/stm32f4xx_can.c ****       break;
 1560              		.loc 1 661 7 is_stmt 1 view .LVU380
 1561              	@ ../Libraries/STM32F4xx_StdPeriph_Driver/src/stm32f4xx_can.c:661:       state =   CANx->TSR &  (CA
 661:../Libraries/STM32F4xx_StdPeriph_Driver/src/stm32f4xx_can.c ****       break;
 1562              		.loc 1 661 21 is_stmt 0 view .LVU381
 1563 0034 AB68     		ldr	r3, [r5, #8]	@ _5, CANx_9(D)->TSR
 1564              	@ ../Libraries/STM32F4xx_StdPeriph_Driver/src/stm32f4xx_can.c:661:       state =   CANx->TSR &  (CA
 661:../Libraries/STM32F4xx_StdPeriph_Driver/src/stm32f4xx_can.c ****       break;
 1565              		.loc 1 661 13 view .LVU382
 1566 0036 1149     		ldr	r1, .L104+8	@ tmp137,
 1567              	@ ../Libraries/STM32F4xx_StdPeriph_Driver/src/stm32f4xx_can.c:667:   switch (state)
 667:../Libraries/STM32F4xx_StdPeriph_Driver/src/stm32f4xx_can.c ****   {
 1568              		.loc 1 667 3 view .LVU383
 1569 0038 114A     		ldr	r2, .L104+12	@ tmp138,
 1570              	@ ../Libraries/STM32F4xx_StdPeriph_Driver/src/stm32f4xx_can.c:661:       state =   CANx->TSR &  (CA
 661:../Libraries/STM32F4xx_StdPeriph_Driver/src/stm32f4xx_can.c ****       break;
 1571              		.loc 1 661 13 view .LVU384
 1572 003a 0B40     		ands	r3, r3, r1	@, state, _5, tmp137
 1573              	.LVL79:
 662:../Libraries/STM32F4xx_StdPeriph_Driver/src/stm32f4xx_can.c ****     default:
 1574              		.loc 1 662 7 is_stmt 1 view .LVU385
 667:../Libraries/STM32F4xx_StdPeriph_Driver/src/stm32f4xx_can.c ****   {
 1575              		.loc 1 667 3 view .LVU386
 667:../Libraries/STM32F4xx_StdPeriph_Driver/src/stm32f4xx_can.c ****   {
 1576              		.loc 1 667 3 is_stmt 0 view .LVU387
 1577 003c 9342     		cmp	r3, r2	@ state, tmp138
 1578 003e 07D9     		bls	.L96		@,
 1579 0040 581A     		subs	r0, r3, r1	@ <retval>, state, tmp137
 1580 0042 B0FA80F0 		clz	r0, r0	@ <retval>, <retval>
 1581 0046 4009     		lsrs	r0, r0, #5	@ <retval>, <retval>,
 1582              	.LVL80:
 689:../Libraries/STM32F4xx_StdPeriph_Driver/src/stm32f4xx_can.c **** }
 1583              		.loc 1 689 3 is_stmt 1 view .LVU388
 1584              	@ ../Libraries/STM32F4xx_StdPeriph_Driver/src/stm32f4xx_can.c:690: }
 1585              		.loc 1 690 1 is_stmt 0 view .LVU389
ARM GAS  C:\Users\admin\AppData\Local\Temp\ccqywAa9.s 			page 43


 1586 0048 38BD     		pop	{r3, r4, r5, pc}	@
 1587              	.LVL81:
 1588              	.L103:
 655:../Libraries/STM32F4xx_StdPeriph_Driver/src/stm32f4xx_can.c ****       break;
 1589              		.loc 1 655 7 is_stmt 1 view .LVU390
 1590              	@ ../Libraries/STM32F4xx_StdPeriph_Driver/src/stm32f4xx_can.c:655:       state =   CANx->TSR &  (CA
 655:../Libraries/STM32F4xx_StdPeriph_Driver/src/stm32f4xx_can.c ****       break;
 1591              		.loc 1 655 21 is_stmt 0 view .LVU391
 1592 004a A868     		ldr	r0, [r5, #8]	@ _3, CANx_9(D)->TSR
 1593              	@ ../Libraries/STM32F4xx_StdPeriph_Driver/src/stm32f4xx_can.c:655:       state =   CANx->TSR &  (CA
 655:../Libraries/STM32F4xx_StdPeriph_Driver/src/stm32f4xx_can.c ****       break;
 1594              		.loc 1 655 13 view .LVU392
 1595 004c 0D4B     		ldr	r3, .L104+16	@ tmp134,
 1596 004e 0340     		ands	r3, r3, r0	@, state, tmp134, _3
 1597              	.LVL82:
 656:../Libraries/STM32F4xx_StdPeriph_Driver/src/stm32f4xx_can.c ****     case (CAN_TXMAILBOX_1): 
 1598              		.loc 1 656 7 is_stmt 1 view .LVU393
 667:../Libraries/STM32F4xx_StdPeriph_Driver/src/stm32f4xx_can.c ****   {
 1599              		.loc 1 667 3 view .LVU394
 1600              	.L96:
 667:../Libraries/STM32F4xx_StdPeriph_Driver/src/stm32f4xx_can.c ****   {
 1601              		.loc 1 667 3 is_stmt 0 view .LVU395
 1602 0050 002B     		cmp	r3, #0	@ state
 1603 0052 EDD0     		beq	.L101	@
 667:../Libraries/STM32F4xx_StdPeriph_Driver/src/stm32f4xx_can.c ****   {
 1604              		.loc 1 667 3 view .LVU396
 1605 0054 0B48     		ldr	r0, .L104+16	@ tmp141,
 1606 0056 181A     		subs	r0, r3, r0	@ <retval>, state, tmp141
 1607 0058 B0FA80F0 		clz	r0, r0	@ <retval>, <retval>
 1608 005c 4009     		lsrs	r0, r0, #5	@ <retval>, <retval>,
 1609              	.LVL83:
 689:../Libraries/STM32F4xx_StdPeriph_Driver/src/stm32f4xx_can.c **** }
 1610              		.loc 1 689 3 is_stmt 1 view .LVU397
 1611              	@ ../Libraries/STM32F4xx_StdPeriph_Driver/src/stm32f4xx_can.c:690: }
 1612              		.loc 1 690 1 is_stmt 0 view .LVU398
 1613 005e 38BD     		pop	{r3, r4, r5, pc}	@
 1614              	.LVL84:
 1615              	.L98:
 1616              	@ ../Libraries/STM32F4xx_StdPeriph_Driver/src/stm32f4xx_can.c:649:   assert_param(IS_CAN_ALL_PERIPH
 649:../Libraries/STM32F4xx_StdPeriph_Driver/src/stm32f4xx_can.c ****   assert_param(IS_CAN_TRANSMITMAILBOX(TransmitMailbox));
 1617              		.loc 1 649 3 view .LVU399
 1618 0060 0120     		movs	r0, #1	@ iftmp.7_8,
 1619              	.LVL85:
 649:../Libraries/STM32F4xx_StdPeriph_Driver/src/stm32f4xx_can.c ****   assert_param(IS_CAN_TRANSMITMAILBOX(TransmitMailbox));
 1620              		.loc 1 649 3 view .LVU400
 1621 0062 D8E7     		b	.L92		@
 1622              	.LVL86:
 1623              	.L93:
 658:../Libraries/STM32F4xx_StdPeriph_Driver/src/stm32f4xx_can.c ****       break;
 1624              		.loc 1 658 7 is_stmt 1 view .LVU401
 1625              	@ ../Libraries/STM32F4xx_StdPeriph_Driver/src/stm32f4xx_can.c:658:       state =   CANx->TSR &  (CA
 658:../Libraries/STM32F4xx_StdPeriph_Driver/src/stm32f4xx_can.c ****       break;
 1626              		.loc 1 658 21 is_stmt 0 view .LVU402
 1627 0064 A968     		ldr	r1, [r5, #8]	@ _4, CANx_9(D)->TSR
 1628              	@ ../Libraries/STM32F4xx_StdPeriph_Driver/src/stm32f4xx_can.c:658:       state =   CANx->TSR &  (CA
 658:../Libraries/STM32F4xx_StdPeriph_Driver/src/stm32f4xx_can.c ****       break;
 1629              		.loc 1 658 13 view .LVU403
ARM GAS  C:\Users\admin\AppData\Local\Temp\ccqywAa9.s 			page 44


 1630 0066 064A     		ldr	r2, .L104+12	@ tmp135,
 1631 0068 01EA0203 		and	r3, r1, r2	@ state, _4, tmp135
 1632              	.LVL87:
 659:../Libraries/STM32F4xx_StdPeriph_Driver/src/stm32f4xx_can.c ****     case (CAN_TXMAILBOX_2): 
 1633              		.loc 1 659 7 is_stmt 1 view .LVU404
 667:../Libraries/STM32F4xx_StdPeriph_Driver/src/stm32f4xx_can.c ****   {
 1634              		.loc 1 667 3 view .LVU405
 1635 006c 8A43     		bics	r2, r2, r1	@ tmp149, tmp135, _4
 1636 006e EFD1     		bne	.L96		@,
 1637 0070 2046     		mov	r0, r4	@ <retval>, TransmitMailbox
 1638              	.LVL88:
 689:../Libraries/STM32F4xx_StdPeriph_Driver/src/stm32f4xx_can.c **** }
 1639              		.loc 1 689 3 view .LVU406
 1640              	@ ../Libraries/STM32F4xx_StdPeriph_Driver/src/stm32f4xx_can.c:690: }
 1641              		.loc 1 690 1 is_stmt 0 view .LVU407
 1642 0072 38BD     		pop	{r3, r4, r5, pc}	@
 1643              	.LVL89:
 1644              	.L105:
 1645              		.loc 1 690 1 view .LVU408
 1646              		.align	2
 1647              	.L104:
 1648 0074 00640040 		.word	1073767424
 1649 0078 00680040 		.word	1073768448
 1650 007c 00000310 		.word	268632064
 1651 0080 00030008 		.word	134218496
 1652 0084 03000004 		.word	67108867
 1653              		.cfi_endproc
 1654              	.LFE118:
 1655              		.size	CAN_TransmitStatus, .-CAN_TransmitStatus
 1656              		.section	.text.CAN_CancelTransmit,"ax",%progbits
 1657              		.align	1
 1658              		.p2align 2,,3
 1659              		.global	CAN_CancelTransmit
 1660              		.syntax unified
 1661              		.thumb
 1662              		.thumb_func
 1663              		.type	CAN_CancelTransmit, %function
 1664              	CAN_CancelTransmit:
 1665              	.LVL90:
 1666              	.LFB119:
 691:../Libraries/STM32F4xx_StdPeriph_Driver/src/stm32f4xx_can.c **** 
 692:../Libraries/STM32F4xx_StdPeriph_Driver/src/stm32f4xx_can.c **** /**
 693:../Libraries/STM32F4xx_StdPeriph_Driver/src/stm32f4xx_can.c ****   * @brief  Cancels a transmit request.
 694:../Libraries/STM32F4xx_StdPeriph_Driver/src/stm32f4xx_can.c ****   * @param  CANx: where x can be 1 or 2 to select the CAN peripheral.
 695:../Libraries/STM32F4xx_StdPeriph_Driver/src/stm32f4xx_can.c ****   * @param  Mailbox: Mailbox number.
 696:../Libraries/STM32F4xx_StdPeriph_Driver/src/stm32f4xx_can.c ****   * @retval None
 697:../Libraries/STM32F4xx_StdPeriph_Driver/src/stm32f4xx_can.c ****   */
 698:../Libraries/STM32F4xx_StdPeriph_Driver/src/stm32f4xx_can.c **** void CAN_CancelTransmit(CAN_TypeDef* CANx, uint8_t Mailbox)
 699:../Libraries/STM32F4xx_StdPeriph_Driver/src/stm32f4xx_can.c **** {
 1667              		.loc 1 699 1 is_stmt 1 view -0
 1668              		.cfi_startproc
 1669              		@ args = 0, pretend = 0, frame = 0
 1670              		@ frame_needed = 0, uses_anonymous_args = 0
 700:../Libraries/STM32F4xx_StdPeriph_Driver/src/stm32f4xx_can.c ****   /* Check the parameters */
 701:../Libraries/STM32F4xx_StdPeriph_Driver/src/stm32f4xx_can.c ****   assert_param(IS_CAN_ALL_PERIPH(CANx));
 1671              		.loc 1 701 3 view .LVU410
 1672              	@ ../Libraries/STM32F4xx_StdPeriph_Driver/src/stm32f4xx_can.c:699: {
ARM GAS  C:\Users\admin\AppData\Local\Temp\ccqywAa9.s 			page 45


 699:../Libraries/STM32F4xx_StdPeriph_Driver/src/stm32f4xx_can.c ****   /* Check the parameters */
 1673              		.loc 1 699 1 is_stmt 0 view .LVU411
 1674 0000 38B5     		push	{r3, r4, r5, lr}	@
 1675              		.cfi_def_cfa_offset 16
 1676              		.cfi_offset 3, -16
 1677              		.cfi_offset 4, -12
 1678              		.cfi_offset 5, -8
 1679              		.cfi_offset 14, -4
 1680              	@ ../Libraries/STM32F4xx_StdPeriph_Driver/src/stm32f4xx_can.c:701:   assert_param(IS_CAN_ALL_PERIPH
 1681              		.loc 1 701 3 view .LVU412
 1682 0002 144B     		ldr	r3, .L114	@ tmp125,
 1683 0004 9842     		cmp	r0, r3	@ CANx, tmp125
 1684              	@ ../Libraries/STM32F4xx_StdPeriph_Driver/src/stm32f4xx_can.c:699: {
 699:../Libraries/STM32F4xx_StdPeriph_Driver/src/stm32f4xx_can.c ****   /* Check the parameters */
 1685              		.loc 1 699 1 view .LVU413
 1686 0006 0546     		mov	r5, r0	@ CANx, tmp133
 1687 0008 0C46     		mov	r4, r1	@ Mailbox, tmp134
 1688              	@ ../Libraries/STM32F4xx_StdPeriph_Driver/src/stm32f4xx_can.c:701:   assert_param(IS_CAN_ALL_PERIPH
 1689              		.loc 1 701 3 view .LVU414
 1690 000a 17D0     		beq	.L111		@,
 1691              	@ ../Libraries/STM32F4xx_StdPeriph_Driver/src/stm32f4xx_can.c:701:   assert_param(IS_CAN_ALL_PERIPH
 1692              		.loc 1 701 3 discriminator 2 view .LVU415
 1693 000c 1248     		ldr	r0, .L114+4	@ tmp128,
 1694              	.LVL91:
 1695              		.loc 1 701 3 discriminator 2 view .LVU416
 1696 000e 281A     		subs	r0, r5, r0	@ iftmp.8_9, CANx, tmp128
 1697 0010 B0FA80F0 		clz	r0, r0	@ iftmp.8_9, iftmp.8_9
 1698 0014 4009     		lsrs	r0, r0, #5	@ iftmp.8_9, iftmp.8_9,
 1699              	.L107:
 1700              	@ ../Libraries/STM32F4xx_StdPeriph_Driver/src/stm32f4xx_can.c:701:   assert_param(IS_CAN_ALL_PERIPH
 1701              		.loc 1 701 3 discriminator 6 view .LVU417
 1702 0016 FFF7FEFF 		bl	assert_param		@
 1703              	.LVL92:
 702:../Libraries/STM32F4xx_StdPeriph_Driver/src/stm32f4xx_can.c ****   assert_param(IS_CAN_TRANSMITMAILBOX(Mailbox));
 1704              		.loc 1 702 3 is_stmt 1 discriminator 6 view .LVU418
 1705 001a 022C     		cmp	r4, #2	@ Mailbox,
 1706 001c 8CBF     		ite	hi
 1707 001e 0020     		movhi	r0, #0	@,
 1708 0020 0120     		movls	r0, #1	@,
 1709 0022 FFF7FEFF 		bl	assert_param		@
 1710              	.LVL93:
 703:../Libraries/STM32F4xx_StdPeriph_Driver/src/stm32f4xx_can.c ****   /* abort transmission */
 704:../Libraries/STM32F4xx_StdPeriph_Driver/src/stm32f4xx_can.c ****   switch (Mailbox)
 1711              		.loc 1 704 3 discriminator 6 view .LVU419
 1712 0026 012C     		cmp	r4, #1	@ Mailbox,
 1713 0028 0FD0     		beq	.L108		@,
 1714              	@ ../Libraries/STM32F4xx_StdPeriph_Driver/src/stm32f4xx_can.c:704:   switch (Mailbox)
 1715              		.loc 1 704 3 is_stmt 0 view .LVU420
 1716 002a 022C     		cmp	r4, #2	@ Mailbox,
 1717 002c 08D0     		beq	.L109		@,
 1718 002e 04B1     		cbz	r4, .L113	@ Mailbox,
 1719              	@ ../Libraries/STM32F4xx_StdPeriph_Driver/src/stm32f4xx_can.c:715: }
 705:../Libraries/STM32F4xx_StdPeriph_Driver/src/stm32f4xx_can.c ****   {
 706:../Libraries/STM32F4xx_StdPeriph_Driver/src/stm32f4xx_can.c ****     case (CAN_TXMAILBOX_0): CANx->TSR |= CAN_TSR_ABRQ0;
 707:../Libraries/STM32F4xx_StdPeriph_Driver/src/stm32f4xx_can.c ****       break;
 708:../Libraries/STM32F4xx_StdPeriph_Driver/src/stm32f4xx_can.c ****     case (CAN_TXMAILBOX_1): CANx->TSR |= CAN_TSR_ABRQ1;
 709:../Libraries/STM32F4xx_StdPeriph_Driver/src/stm32f4xx_can.c ****       break;
ARM GAS  C:\Users\admin\AppData\Local\Temp\ccqywAa9.s 			page 46


 710:../Libraries/STM32F4xx_StdPeriph_Driver/src/stm32f4xx_can.c ****     case (CAN_TXMAILBOX_2): CANx->TSR |= CAN_TSR_ABRQ2;
 711:../Libraries/STM32F4xx_StdPeriph_Driver/src/stm32f4xx_can.c ****       break;
 712:../Libraries/STM32F4xx_StdPeriph_Driver/src/stm32f4xx_can.c ****     default:
 713:../Libraries/STM32F4xx_StdPeriph_Driver/src/stm32f4xx_can.c ****       break;
 714:../Libraries/STM32F4xx_StdPeriph_Driver/src/stm32f4xx_can.c ****   }
 715:../Libraries/STM32F4xx_StdPeriph_Driver/src/stm32f4xx_can.c **** }
 1720              		.loc 1 715 1 view .LVU421
 1721 0030 38BD     		pop	{r3, r4, r5, pc}	@
 1722              	.LVL94:
 1723              	.L113:
 706:../Libraries/STM32F4xx_StdPeriph_Driver/src/stm32f4xx_can.c ****       break;
 1724              		.loc 1 706 29 is_stmt 1 view .LVU422
 1725              	@ ../Libraries/STM32F4xx_StdPeriph_Driver/src/stm32f4xx_can.c:706:     case (CAN_TXMAILBOX_0): CANx
 706:../Libraries/STM32F4xx_StdPeriph_Driver/src/stm32f4xx_can.c ****       break;
 1726              		.loc 1 706 39 is_stmt 0 view .LVU423
 1727 0032 AB68     		ldr	r3, [r5, #8]	@ _3, CANx_11(D)->TSR
 1728 0034 43F08003 		orr	r3, r3, #128	@ _4, _3,
 1729 0038 AB60     		str	r3, [r5, #8]	@ _4,
 707:../Libraries/STM32F4xx_StdPeriph_Driver/src/stm32f4xx_can.c ****     case (CAN_TXMAILBOX_1): CANx->TSR |= CAN_TSR_ABRQ1;
 1730              		.loc 1 707 7 is_stmt 1 view .LVU424
 1731              	@ ../Libraries/STM32F4xx_StdPeriph_Driver/src/stm32f4xx_can.c:715: }
 1732              		.loc 1 715 1 is_stmt 0 view .LVU425
 1733 003a 38BD     		pop	{r3, r4, r5, pc}	@
 1734              	.LVL95:
 1735              	.L111:
 1736              	@ ../Libraries/STM32F4xx_StdPeriph_Driver/src/stm32f4xx_can.c:701:   assert_param(IS_CAN_ALL_PERIPH
 701:../Libraries/STM32F4xx_StdPeriph_Driver/src/stm32f4xx_can.c ****   assert_param(IS_CAN_TRANSMITMAILBOX(Mailbox));
 1737              		.loc 1 701 3 view .LVU426
 1738 003c 0120     		movs	r0, #1	@ iftmp.8_9,
 1739              	.LVL96:
 701:../Libraries/STM32F4xx_StdPeriph_Driver/src/stm32f4xx_can.c ****   assert_param(IS_CAN_TRANSMITMAILBOX(Mailbox));
 1740              		.loc 1 701 3 view .LVU427
 1741 003e EAE7     		b	.L107		@
 1742              	.LVL97:
 1743              	.L109:
 710:../Libraries/STM32F4xx_StdPeriph_Driver/src/stm32f4xx_can.c ****       break;
 1744              		.loc 1 710 29 is_stmt 1 view .LVU428
 1745              	@ ../Libraries/STM32F4xx_StdPeriph_Driver/src/stm32f4xx_can.c:710:     case (CAN_TXMAILBOX_2): CANx
 710:../Libraries/STM32F4xx_StdPeriph_Driver/src/stm32f4xx_can.c ****       break;
 1746              		.loc 1 710 39 is_stmt 0 view .LVU429
 1747 0040 AB68     		ldr	r3, [r5, #8]	@ _7, CANx_11(D)->TSR
 1748 0042 43F40003 		orr	r3, r3, #8388608	@ _8, _7,
 1749 0046 AB60     		str	r3, [r5, #8]	@ _8,
 711:../Libraries/STM32F4xx_StdPeriph_Driver/src/stm32f4xx_can.c ****     default:
 1750              		.loc 1 711 7 is_stmt 1 view .LVU430
 1751              	@ ../Libraries/STM32F4xx_StdPeriph_Driver/src/stm32f4xx_can.c:715: }
 1752              		.loc 1 715 1 is_stmt 0 view .LVU431
 1753 0048 38BD     		pop	{r3, r4, r5, pc}	@
 1754              	.LVL98:
 1755              	.L108:
 708:../Libraries/STM32F4xx_StdPeriph_Driver/src/stm32f4xx_can.c ****       break;
 1756              		.loc 1 708 29 is_stmt 1 view .LVU432
 1757              	@ ../Libraries/STM32F4xx_StdPeriph_Driver/src/stm32f4xx_can.c:708:     case (CAN_TXMAILBOX_1): CANx
 708:../Libraries/STM32F4xx_StdPeriph_Driver/src/stm32f4xx_can.c ****       break;
 1758              		.loc 1 708 39 is_stmt 0 view .LVU433
 1759 004a AB68     		ldr	r3, [r5, #8]	@ _5, CANx_11(D)->TSR
 1760 004c 43F40043 		orr	r3, r3, #32768	@ _6, _5,
ARM GAS  C:\Users\admin\AppData\Local\Temp\ccqywAa9.s 			page 47


 1761 0050 AB60     		str	r3, [r5, #8]	@ _6,
 709:../Libraries/STM32F4xx_StdPeriph_Driver/src/stm32f4xx_can.c ****     case (CAN_TXMAILBOX_2): CANx->TSR |= CAN_TSR_ABRQ2;
 1762              		.loc 1 709 7 is_stmt 1 view .LVU434
 1763              	@ ../Libraries/STM32F4xx_StdPeriph_Driver/src/stm32f4xx_can.c:715: }
 1764              		.loc 1 715 1 is_stmt 0 view .LVU435
 1765 0052 38BD     		pop	{r3, r4, r5, pc}	@
 1766              	.LVL99:
 1767              	.L115:
 1768              		.loc 1 715 1 view .LVU436
 1769              		.align	2
 1770              	.L114:
 1771 0054 00640040 		.word	1073767424
 1772 0058 00680040 		.word	1073768448
 1773              		.cfi_endproc
 1774              	.LFE119:
 1775              		.size	CAN_CancelTransmit, .-CAN_CancelTransmit
 1776              		.section	.text.CAN_Receive,"ax",%progbits
 1777              		.align	1
 1778              		.p2align 2,,3
 1779              		.global	CAN_Receive
 1780              		.syntax unified
 1781              		.thumb
 1782              		.thumb_func
 1783              		.type	CAN_Receive, %function
 1784              	CAN_Receive:
 1785              	.LVL100:
 1786              	.LFB120:
 716:../Libraries/STM32F4xx_StdPeriph_Driver/src/stm32f4xx_can.c **** /**
 717:../Libraries/STM32F4xx_StdPeriph_Driver/src/stm32f4xx_can.c ****   * @}
 718:../Libraries/STM32F4xx_StdPeriph_Driver/src/stm32f4xx_can.c ****   */
 719:../Libraries/STM32F4xx_StdPeriph_Driver/src/stm32f4xx_can.c **** 
 720:../Libraries/STM32F4xx_StdPeriph_Driver/src/stm32f4xx_can.c **** 
 721:../Libraries/STM32F4xx_StdPeriph_Driver/src/stm32f4xx_can.c **** /** @defgroup CAN_Group3 CAN Frames Reception functions
 722:../Libraries/STM32F4xx_StdPeriph_Driver/src/stm32f4xx_can.c ****  *  @brief    CAN Frames Reception functions 
 723:../Libraries/STM32F4xx_StdPeriph_Driver/src/stm32f4xx_can.c ****  *
 724:../Libraries/STM32F4xx_StdPeriph_Driver/src/stm32f4xx_can.c **** @verbatim    
 725:../Libraries/STM32F4xx_StdPeriph_Driver/src/stm32f4xx_can.c ****  ===============================================================================
 726:../Libraries/STM32F4xx_StdPeriph_Driver/src/stm32f4xx_can.c ****                       CAN Frames Reception functions
 727:../Libraries/STM32F4xx_StdPeriph_Driver/src/stm32f4xx_can.c ****  ===============================================================================  
 728:../Libraries/STM32F4xx_StdPeriph_Driver/src/stm32f4xx_can.c ****   This section provides functions allowing to 
 729:../Libraries/STM32F4xx_StdPeriph_Driver/src/stm32f4xx_can.c ****    -  Receive a correct CAN frame
 730:../Libraries/STM32F4xx_StdPeriph_Driver/src/stm32f4xx_can.c ****    -  Release a specified receive FIFO (2 FIFOs are available)
 731:../Libraries/STM32F4xx_StdPeriph_Driver/src/stm32f4xx_can.c ****    -  Return the number of the pending received CAN frames
 732:../Libraries/STM32F4xx_StdPeriph_Driver/src/stm32f4xx_can.c ****    
 733:../Libraries/STM32F4xx_StdPeriph_Driver/src/stm32f4xx_can.c **** @endverbatim
 734:../Libraries/STM32F4xx_StdPeriph_Driver/src/stm32f4xx_can.c ****   * @{
 735:../Libraries/STM32F4xx_StdPeriph_Driver/src/stm32f4xx_can.c ****   */
 736:../Libraries/STM32F4xx_StdPeriph_Driver/src/stm32f4xx_can.c **** 
 737:../Libraries/STM32F4xx_StdPeriph_Driver/src/stm32f4xx_can.c **** /**
 738:../Libraries/STM32F4xx_StdPeriph_Driver/src/stm32f4xx_can.c ****   * @brief  Receives a correct CAN frame.
 739:../Libraries/STM32F4xx_StdPeriph_Driver/src/stm32f4xx_can.c ****   * @param  CANx: where x can be 1 or 2 to select the CAN peripheral.
 740:../Libraries/STM32F4xx_StdPeriph_Driver/src/stm32f4xx_can.c ****   * @param  FIFONumber: Receive FIFO number, CAN_FIFO0 or CAN_FIFO1.
 741:../Libraries/STM32F4xx_StdPeriph_Driver/src/stm32f4xx_can.c ****   * @param  RxMessage: pointer to a structure receive frame which contains CAN Id,
 742:../Libraries/STM32F4xx_StdPeriph_Driver/src/stm32f4xx_can.c ****   *         CAN DLC, CAN data and FMI number.
 743:../Libraries/STM32F4xx_StdPeriph_Driver/src/stm32f4xx_can.c ****   * @retval None
 744:../Libraries/STM32F4xx_StdPeriph_Driver/src/stm32f4xx_can.c ****   */
 745:../Libraries/STM32F4xx_StdPeriph_Driver/src/stm32f4xx_can.c **** void CAN_Receive(CAN_TypeDef* CANx, uint8_t FIFONumber, CanRxMsg* RxMessage)
ARM GAS  C:\Users\admin\AppData\Local\Temp\ccqywAa9.s 			page 48


 746:../Libraries/STM32F4xx_StdPeriph_Driver/src/stm32f4xx_can.c **** {
 1787              		.loc 1 746 1 is_stmt 1 view -0
 1788              		.cfi_startproc
 1789              		@ args = 0, pretend = 0, frame = 0
 1790              		@ frame_needed = 0, uses_anonymous_args = 0
 747:../Libraries/STM32F4xx_StdPeriph_Driver/src/stm32f4xx_can.c ****   /* Check the parameters */
 748:../Libraries/STM32F4xx_StdPeriph_Driver/src/stm32f4xx_can.c ****   assert_param(IS_CAN_ALL_PERIPH(CANx));
 1791              		.loc 1 748 3 view .LVU438
 1792 0000 304B     		ldr	r3, .L124	@ tmp167,
 1793 0002 9842     		cmp	r0, r3	@ CANx, tmp167
 1794              	@ ../Libraries/STM32F4xx_StdPeriph_Driver/src/stm32f4xx_can.c:746: {
 746:../Libraries/STM32F4xx_StdPeriph_Driver/src/stm32f4xx_can.c ****   /* Check the parameters */
 1795              		.loc 1 746 1 is_stmt 0 view .LVU439
 1796 0004 70B5     		push	{r4, r5, r6, lr}	@
 1797              		.cfi_def_cfa_offset 16
 1798              		.cfi_offset 4, -16
 1799              		.cfi_offset 5, -12
 1800              		.cfi_offset 6, -8
 1801              		.cfi_offset 14, -4
 1802              	@ ../Libraries/STM32F4xx_StdPeriph_Driver/src/stm32f4xx_can.c:746: {
 746:../Libraries/STM32F4xx_StdPeriph_Driver/src/stm32f4xx_can.c ****   /* Check the parameters */
 1803              		.loc 1 746 1 view .LVU440
 1804 0006 0546     		mov	r5, r0	@ CANx, tmp228
 1805 0008 0E46     		mov	r6, r1	@ FIFONumber, tmp229
 1806 000a 1446     		mov	r4, r2	@ RxMessage, tmp230
 1807              	@ ../Libraries/STM32F4xx_StdPeriph_Driver/src/stm32f4xx_can.c:748:   assert_param(IS_CAN_ALL_PERIPH
 1808              		.loc 1 748 3 view .LVU441
 1809 000c 57D0     		beq	.L122		@,
 1810              	@ ../Libraries/STM32F4xx_StdPeriph_Driver/src/stm32f4xx_can.c:748:   assert_param(IS_CAN_ALL_PERIPH
 1811              		.loc 1 748 3 discriminator 2 view .LVU442
 1812 000e 2E48     		ldr	r0, .L124+4	@ tmp170,
 1813              	.LVL101:
 1814              		.loc 1 748 3 discriminator 2 view .LVU443
 1815 0010 281A     		subs	r0, r5, r0	@ iftmp.9_46, CANx, tmp170
 1816 0012 B0FA80F0 		clz	r0, r0	@ iftmp.9_46, iftmp.9_46
 1817 0016 4009     		lsrs	r0, r0, #5	@ iftmp.9_46, iftmp.9_46,
 1818              	.L117:
 1819              	@ ../Libraries/STM32F4xx_StdPeriph_Driver/src/stm32f4xx_can.c:748:   assert_param(IS_CAN_ALL_PERIPH
 1820              		.loc 1 748 3 discriminator 6 view .LVU444
 1821 0018 FFF7FEFF 		bl	assert_param		@
 1822              	.LVL102:
 749:../Libraries/STM32F4xx_StdPeriph_Driver/src/stm32f4xx_can.c ****   assert_param(IS_CAN_FIFO(FIFONumber));
 1823              		.loc 1 749 3 is_stmt 1 discriminator 6 view .LVU445
 1824 001c 012E     		cmp	r6, #1	@ FIFONumber,
 1825 001e 8CBF     		ite	hi
 1826 0020 0020     		movhi	r0, #0	@,
 1827 0022 0120     		movls	r0, #1	@,
 1828 0024 FFF7FEFF 		bl	assert_param		@
 1829              	.LVL103:
 750:../Libraries/STM32F4xx_StdPeriph_Driver/src/stm32f4xx_can.c ****   /* Get the Id */
 751:../Libraries/STM32F4xx_StdPeriph_Driver/src/stm32f4xx_can.c ****   RxMessage->IDE = (uint8_t)0x04 & CANx->sFIFOMailBox[FIFONumber].RIR;
 1830              		.loc 1 751 3 discriminator 6 view .LVU446
 1831 0028 05EB0613 		add	r3, r5, r6, lsl #4	@ _76, CANx, FIFONumber,
 1832              	@ ../Libraries/STM32F4xx_StdPeriph_Driver/src/stm32f4xx_can.c:751:   RxMessage->IDE = (uint8_t)0x04
 1833              		.loc 1 751 66 is_stmt 0 discriminator 6 view .LVU447
 1834 002c D3F8B021 		ldr	r2, [r3, #432]	@ _4, MEM <volatile uint32_t> [(struct CAN_TypeDef *)_76 + 432B]
 1835              	@ ../Libraries/STM32F4xx_StdPeriph_Driver/src/stm32f4xx_can.c:751:   RxMessage->IDE = (uint8_t)0x04
ARM GAS  C:\Users\admin\AppData\Local\Temp\ccqywAa9.s 			page 49


 1836              		.loc 1 751 34 discriminator 6 view .LVU448
 1837 0030 02F00402 		and	r2, r2, #4	@ _6, _4,
 1838              	@ ../Libraries/STM32F4xx_StdPeriph_Driver/src/stm32f4xx_can.c:751:   RxMessage->IDE = (uint8_t)0x04
 1839              		.loc 1 751 18 discriminator 6 view .LVU449
 1840 0034 2272     		strb	r2, [r4, #8]	@ _6, RxMessage_54(D)->IDE
 752:../Libraries/STM32F4xx_StdPeriph_Driver/src/stm32f4xx_can.c ****   if (RxMessage->IDE == CAN_Id_Standard)
 1841              		.loc 1 752 3 is_stmt 1 discriminator 6 view .LVU450
 1842              	@ ../Libraries/STM32F4xx_StdPeriph_Driver/src/stm32f4xx_can.c:752:   if (RxMessage->IDE == CAN_Id_S
 1843              		.loc 1 752 6 is_stmt 0 discriminator 6 view .LVU451
 1844 0036 002A     		cmp	r2, #0	@ _6
 1845 0038 3CD1     		bne	.L118	@
 753:../Libraries/STM32F4xx_StdPeriph_Driver/src/stm32f4xx_can.c ****   {
 754:../Libraries/STM32F4xx_StdPeriph_Driver/src/stm32f4xx_can.c ****     RxMessage->StdId = (uint32_t)0x000007FF & (CANx->sFIFOMailBox[FIFONumber].RIR >> 21);
 1846              		.loc 1 754 5 is_stmt 1 view .LVU452
 1847              	@ ../Libraries/STM32F4xx_StdPeriph_Driver/src/stm32f4xx_can.c:754:     RxMessage->StdId = (uint32_t
 1848              		.loc 1 754 78 is_stmt 0 view .LVU453
 1849 003a D3F8B021 		ldr	r2, [r3, #432]	@ _7,
 1850              	@ ../Libraries/STM32F4xx_StdPeriph_Driver/src/stm32f4xx_can.c:754:     RxMessage->StdId = (uint32_t
 1851              		.loc 1 754 83 view .LVU454
 1852 003e 520D     		lsrs	r2, r2, #21	@ tmp180, _7,
 1853              	@ ../Libraries/STM32F4xx_StdPeriph_Driver/src/stm32f4xx_can.c:754:     RxMessage->StdId = (uint32_t
 1854              		.loc 1 754 22 view .LVU455
 1855 0040 2260     		str	r2, [r4]	@ tmp180, RxMessage_54(D)->StdId
 1856              	.L119:
 755:../Libraries/STM32F4xx_StdPeriph_Driver/src/stm32f4xx_can.c ****   }
 756:../Libraries/STM32F4xx_StdPeriph_Driver/src/stm32f4xx_can.c ****   else
 757:../Libraries/STM32F4xx_StdPeriph_Driver/src/stm32f4xx_can.c ****   {
 758:../Libraries/STM32F4xx_StdPeriph_Driver/src/stm32f4xx_can.c ****     RxMessage->ExtId = (uint32_t)0x1FFFFFFF & (CANx->sFIFOMailBox[FIFONumber].RIR >> 3);
 759:../Libraries/STM32F4xx_StdPeriph_Driver/src/stm32f4xx_can.c ****   }
 760:../Libraries/STM32F4xx_StdPeriph_Driver/src/stm32f4xx_can.c ****   
 761:../Libraries/STM32F4xx_StdPeriph_Driver/src/stm32f4xx_can.c ****   RxMessage->RTR = (uint8_t)0x02 & CANx->sFIFOMailBox[FIFONumber].RIR;
 1857              		.loc 1 761 3 is_stmt 1 view .LVU456
 1858              	@ ../Libraries/STM32F4xx_StdPeriph_Driver/src/stm32f4xx_can.c:761:   RxMessage->RTR = (uint8_t)0x02
 1859              		.loc 1 761 66 is_stmt 0 view .LVU457
 1860 0042 D3F8B021 		ldr	r2, [r3, #432]	@ _11, MEM <volatile uint32_t> [(struct CAN_TypeDef *)_76 + 432B]
 1861              	@ ../Libraries/STM32F4xx_StdPeriph_Driver/src/stm32f4xx_can.c:761:   RxMessage->RTR = (uint8_t)0x02
 1862              		.loc 1 761 34 view .LVU458
 1863 0046 02F00202 		and	r2, r2, #2	@ tmp183, _11,
 1864              	@ ../Libraries/STM32F4xx_StdPeriph_Driver/src/stm32f4xx_can.c:761:   RxMessage->RTR = (uint8_t)0x02
 1865              		.loc 1 761 18 view .LVU459
 1866 004a 6272     		strb	r2, [r4, #9]	@ tmp183, RxMessage_54(D)->RTR
 762:../Libraries/STM32F4xx_StdPeriph_Driver/src/stm32f4xx_can.c ****   /* Get the DLC */
 763:../Libraries/STM32F4xx_StdPeriph_Driver/src/stm32f4xx_can.c ****   RxMessage->DLC = (uint8_t)0x0F & CANx->sFIFOMailBox[FIFONumber].RDTR;
 1867              		.loc 1 763 3 is_stmt 1 view .LVU460
 1868              	@ ../Libraries/STM32F4xx_StdPeriph_Driver/src/stm32f4xx_can.c:763:   RxMessage->DLC = (uint8_t)0x0F
 1869              		.loc 1 763 66 is_stmt 0 view .LVU461
 1870 004c D3F8B421 		ldr	r2, [r3, #436]	@ _14, MEM <volatile uint32_t> [(struct CAN_TypeDef *)_76 + 436B]
 1871              	@ ../Libraries/STM32F4xx_StdPeriph_Driver/src/stm32f4xx_can.c:763:   RxMessage->DLC = (uint8_t)0x0F
 1872              		.loc 1 763 34 view .LVU462
 1873 0050 02F00F02 		and	r2, r2, #15	@ tmp186, _14,
 1874              	@ ../Libraries/STM32F4xx_StdPeriph_Driver/src/stm32f4xx_can.c:763:   RxMessage->DLC = (uint8_t)0x0F
 1875              		.loc 1 763 18 view .LVU463
 1876 0054 A272     		strb	r2, [r4, #10]	@ tmp186, RxMessage_54(D)->DLC
 764:../Libraries/STM32F4xx_StdPeriph_Driver/src/stm32f4xx_can.c ****   /* Get the FMI */
 765:../Libraries/STM32F4xx_StdPeriph_Driver/src/stm32f4xx_can.c ****   RxMessage->FMI = (uint8_t)0xFF & (CANx->sFIFOMailBox[FIFONumber].RDTR >> 8);
 1877              		.loc 1 765 3 is_stmt 1 view .LVU464
 1878              	@ ../Libraries/STM32F4xx_StdPeriph_Driver/src/stm32f4xx_can.c:765:   RxMessage->FMI = (uint8_t)0xFF
ARM GAS  C:\Users\admin\AppData\Local\Temp\ccqywAa9.s 			page 50


 1879              		.loc 1 765 67 is_stmt 0 view .LVU465
 1880 0056 D3F8B421 		ldr	r2, [r3, #436]	@ _17, MEM <volatile uint32_t> [(struct CAN_TypeDef *)_76 + 436B]
 1881              	@ ../Libraries/STM32F4xx_StdPeriph_Driver/src/stm32f4xx_can.c:767:   RxMessage->Data[0] = (uint8_t)
 766:../Libraries/STM32F4xx_StdPeriph_Driver/src/stm32f4xx_can.c ****   /* Get the data field */
 767:../Libraries/STM32F4xx_StdPeriph_Driver/src/stm32f4xx_can.c ****   RxMessage->Data[0] = (uint8_t)0xFF & CANx->sFIFOMailBox[FIFONumber].RDLR;
 1882              		.loc 1 767 70 view .LVU466
 1883 005a 05EB0613 		add	r3, r5, r6, lsl #4	@ tmp191, CANx, FIFONumber,
 1884              	@ ../Libraries/STM32F4xx_StdPeriph_Driver/src/stm32f4xx_can.c:765:   RxMessage->FMI = (uint8_t)0xFF
 765:../Libraries/STM32F4xx_StdPeriph_Driver/src/stm32f4xx_can.c ****   /* Get the data field */
 1885              		.loc 1 765 73 view .LVU467
 1886 005e 120A     		lsrs	r2, r2, #8	@ tmp188, _17,
 1887              	@ ../Libraries/STM32F4xx_StdPeriph_Driver/src/stm32f4xx_can.c:765:   RxMessage->FMI = (uint8_t)0xFF
 765:../Libraries/STM32F4xx_StdPeriph_Driver/src/stm32f4xx_can.c ****   /* Get the data field */
 1888              		.loc 1 765 18 view .LVU468
 1889 0060 E274     		strb	r2, [r4, #19]	@ tmp188, RxMessage_54(D)->FMI
 1890              		.loc 1 767 3 is_stmt 1 view .LVU469
 1891              	@ ../Libraries/STM32F4xx_StdPeriph_Driver/src/stm32f4xx_can.c:767:   RxMessage->Data[0] = (uint8_t)
 1892              		.loc 1 767 70 is_stmt 0 view .LVU470
 1893 0062 D3F8B821 		ldr	r2, [r3, #440]	@ _20, CANx_49(D)->sFIFOMailBox[_3].RDLR
 1894              	@ ../Libraries/STM32F4xx_StdPeriph_Driver/src/stm32f4xx_can.c:767:   RxMessage->Data[0] = (uint8_t)
 1895              		.loc 1 767 22 view .LVU471
 1896 0066 E272     		strb	r2, [r4, #11]	@ _20, RxMessage_54(D)->Data[0]
 768:../Libraries/STM32F4xx_StdPeriph_Driver/src/stm32f4xx_can.c ****   RxMessage->Data[1] = (uint8_t)0xFF & (CANx->sFIFOMailBox[FIFONumber].RDLR >> 8);
 1897              		.loc 1 768 3 is_stmt 1 view .LVU472
 1898              	@ ../Libraries/STM32F4xx_StdPeriph_Driver/src/stm32f4xx_can.c:768:   RxMessage->Data[1] = (uint8_t)
 1899              		.loc 1 768 71 is_stmt 0 view .LVU473
 1900 0068 D3F8B821 		ldr	r2, [r3, #440]	@ _22, CANx_49(D)->sFIFOMailBox[_3].RDLR
 1901              	@ ../Libraries/STM32F4xx_StdPeriph_Driver/src/stm32f4xx_can.c:768:   RxMessage->Data[1] = (uint8_t)
 1902              		.loc 1 768 77 view .LVU474
 1903 006c 120A     		lsrs	r2, r2, #8	@ tmp197, _22,
 1904              	@ ../Libraries/STM32F4xx_StdPeriph_Driver/src/stm32f4xx_can.c:768:   RxMessage->Data[1] = (uint8_t)
 1905              		.loc 1 768 22 view .LVU475
 1906 006e 2273     		strb	r2, [r4, #12]	@ tmp197, RxMessage_54(D)->Data[1]
 769:../Libraries/STM32F4xx_StdPeriph_Driver/src/stm32f4xx_can.c ****   RxMessage->Data[2] = (uint8_t)0xFF & (CANx->sFIFOMailBox[FIFONumber].RDLR >> 16);
 1907              		.loc 1 769 3 is_stmt 1 view .LVU476
 1908              	@ ../Libraries/STM32F4xx_StdPeriph_Driver/src/stm32f4xx_can.c:769:   RxMessage->Data[2] = (uint8_t)
 1909              		.loc 1 769 71 is_stmt 0 view .LVU477
 1910 0070 D3F8B821 		ldr	r2, [r3, #440]	@ _25, CANx_49(D)->sFIFOMailBox[_3].RDLR
 1911              	@ ../Libraries/STM32F4xx_StdPeriph_Driver/src/stm32f4xx_can.c:769:   RxMessage->Data[2] = (uint8_t)
 1912              		.loc 1 769 77 view .LVU478
 1913 0074 120C     		lsrs	r2, r2, #16	@ tmp202, _25,
 1914              	@ ../Libraries/STM32F4xx_StdPeriph_Driver/src/stm32f4xx_can.c:769:   RxMessage->Data[2] = (uint8_t)
 1915              		.loc 1 769 22 view .LVU479
 1916 0076 6273     		strb	r2, [r4, #13]	@ tmp202, RxMessage_54(D)->Data[2]
 770:../Libraries/STM32F4xx_StdPeriph_Driver/src/stm32f4xx_can.c ****   RxMessage->Data[3] = (uint8_t)0xFF & (CANx->sFIFOMailBox[FIFONumber].RDLR >> 24);
 1917              		.loc 1 770 3 is_stmt 1 view .LVU480
 1918              	@ ../Libraries/STM32F4xx_StdPeriph_Driver/src/stm32f4xx_can.c:770:   RxMessage->Data[3] = (uint8_t)
 1919              		.loc 1 770 71 is_stmt 0 view .LVU481
 1920 0078 D3F8B821 		ldr	r2, [r3, #440]	@ _28, CANx_49(D)->sFIFOMailBox[_3].RDLR
 1921              	@ ../Libraries/STM32F4xx_StdPeriph_Driver/src/stm32f4xx_can.c:770:   RxMessage->Data[3] = (uint8_t)
 1922              		.loc 1 770 77 view .LVU482
 1923 007c 120E     		lsrs	r2, r2, #24	@ tmp207, _28,
 1924              	@ ../Libraries/STM32F4xx_StdPeriph_Driver/src/stm32f4xx_can.c:770:   RxMessage->Data[3] = (uint8_t)
 1925              		.loc 1 770 22 view .LVU483
 1926 007e A273     		strb	r2, [r4, #14]	@ tmp207, RxMessage_54(D)->Data[3]
 771:../Libraries/STM32F4xx_StdPeriph_Driver/src/stm32f4xx_can.c ****   RxMessage->Data[4] = (uint8_t)0xFF & CANx->sFIFOMailBox[FIFONumber].RDHR;
 1927              		.loc 1 771 3 is_stmt 1 view .LVU484
ARM GAS  C:\Users\admin\AppData\Local\Temp\ccqywAa9.s 			page 51


 1928              	@ ../Libraries/STM32F4xx_StdPeriph_Driver/src/stm32f4xx_can.c:771:   RxMessage->Data[4] = (uint8_t)
 1929              		.loc 1 771 70 is_stmt 0 view .LVU485
 1930 0080 D3F8BC21 		ldr	r2, [r3, #444]	@ _31, CANx_49(D)->sFIFOMailBox[_3].RDHR
 1931              	@ ../Libraries/STM32F4xx_StdPeriph_Driver/src/stm32f4xx_can.c:771:   RxMessage->Data[4] = (uint8_t)
 1932              		.loc 1 771 22 view .LVU486
 1933 0084 E273     		strb	r2, [r4, #15]	@ _31, RxMessage_54(D)->Data[4]
 772:../Libraries/STM32F4xx_StdPeriph_Driver/src/stm32f4xx_can.c ****   RxMessage->Data[5] = (uint8_t)0xFF & (CANx->sFIFOMailBox[FIFONumber].RDHR >> 8);
 1934              		.loc 1 772 3 is_stmt 1 view .LVU487
 1935              	@ ../Libraries/STM32F4xx_StdPeriph_Driver/src/stm32f4xx_can.c:772:   RxMessage->Data[5] = (uint8_t)
 1936              		.loc 1 772 71 is_stmt 0 view .LVU488
 1937 0086 D3F8BC21 		ldr	r2, [r3, #444]	@ _33, CANx_49(D)->sFIFOMailBox[_3].RDHR
 1938              	@ ../Libraries/STM32F4xx_StdPeriph_Driver/src/stm32f4xx_can.c:772:   RxMessage->Data[5] = (uint8_t)
 1939              		.loc 1 772 77 view .LVU489
 1940 008a 120A     		lsrs	r2, r2, #8	@ tmp216, _33,
 1941              	@ ../Libraries/STM32F4xx_StdPeriph_Driver/src/stm32f4xx_can.c:772:   RxMessage->Data[5] = (uint8_t)
 1942              		.loc 1 772 22 view .LVU490
 1943 008c 2274     		strb	r2, [r4, #16]	@ tmp216, RxMessage_54(D)->Data[5]
 773:../Libraries/STM32F4xx_StdPeriph_Driver/src/stm32f4xx_can.c ****   RxMessage->Data[6] = (uint8_t)0xFF & (CANx->sFIFOMailBox[FIFONumber].RDHR >> 16);
 1944              		.loc 1 773 3 is_stmt 1 view .LVU491
 1945              	@ ../Libraries/STM32F4xx_StdPeriph_Driver/src/stm32f4xx_can.c:773:   RxMessage->Data[6] = (uint8_t)
 1946              		.loc 1 773 71 is_stmt 0 view .LVU492
 1947 008e D3F8BC21 		ldr	r2, [r3, #444]	@ _36, CANx_49(D)->sFIFOMailBox[_3].RDHR
 1948              	@ ../Libraries/STM32F4xx_StdPeriph_Driver/src/stm32f4xx_can.c:773:   RxMessage->Data[6] = (uint8_t)
 1949              		.loc 1 773 77 view .LVU493
 1950 0092 120C     		lsrs	r2, r2, #16	@ tmp221, _36,
 1951              	@ ../Libraries/STM32F4xx_StdPeriph_Driver/src/stm32f4xx_can.c:773:   RxMessage->Data[6] = (uint8_t)
 1952              		.loc 1 773 22 view .LVU494
 1953 0094 6274     		strb	r2, [r4, #17]	@ tmp221, RxMessage_54(D)->Data[6]
 774:../Libraries/STM32F4xx_StdPeriph_Driver/src/stm32f4xx_can.c ****   RxMessage->Data[7] = (uint8_t)0xFF & (CANx->sFIFOMailBox[FIFONumber].RDHR >> 24);
 1954              		.loc 1 774 3 is_stmt 1 view .LVU495
 1955              	@ ../Libraries/STM32F4xx_StdPeriph_Driver/src/stm32f4xx_can.c:774:   RxMessage->Data[7] = (uint8_t)
 1956              		.loc 1 774 71 is_stmt 0 view .LVU496
 1957 0096 D3F8BC31 		ldr	r3, [r3, #444]	@ _39, CANx_49(D)->sFIFOMailBox[_3].RDHR
 1958              	@ ../Libraries/STM32F4xx_StdPeriph_Driver/src/stm32f4xx_can.c:774:   RxMessage->Data[7] = (uint8_t)
 1959              		.loc 1 774 77 view .LVU497
 1960 009a 1B0E     		lsrs	r3, r3, #24	@ tmp226, _39,
 1961              	@ ../Libraries/STM32F4xx_StdPeriph_Driver/src/stm32f4xx_can.c:774:   RxMessage->Data[7] = (uint8_t)
 1962              		.loc 1 774 22 view .LVU498
 1963 009c A374     		strb	r3, [r4, #18]	@ tmp226, RxMessage_54(D)->Data[7]
 775:../Libraries/STM32F4xx_StdPeriph_Driver/src/stm32f4xx_can.c ****   /* Release the FIFO */
 776:../Libraries/STM32F4xx_StdPeriph_Driver/src/stm32f4xx_can.c ****   /* Release FIFO0 */
 777:../Libraries/STM32F4xx_StdPeriph_Driver/src/stm32f4xx_can.c ****   if (FIFONumber == CAN_FIFO0)
 1964              		.loc 1 777 3 is_stmt 1 view .LVU499
 1965              	@ ../Libraries/STM32F4xx_StdPeriph_Driver/src/stm32f4xx_can.c:777:   if (FIFONumber == CAN_FIFO0)
 1966              		.loc 1 777 6 is_stmt 0 view .LVU500
 1967 009e 26B9     		cbnz	r6, .L120	@ FIFONumber,
 778:../Libraries/STM32F4xx_StdPeriph_Driver/src/stm32f4xx_can.c ****   {
 779:../Libraries/STM32F4xx_StdPeriph_Driver/src/stm32f4xx_can.c ****     CANx->RF0R |= CAN_RF0R_RFOM0;
 1968              		.loc 1 779 5 is_stmt 1 view .LVU501
 1969              	@ ../Libraries/STM32F4xx_StdPeriph_Driver/src/stm32f4xx_can.c:779:     CANx->RF0R |= CAN_RF0R_RFOM0
 1970              		.loc 1 779 16 is_stmt 0 view .LVU502
 1971 00a0 EB68     		ldr	r3, [r5, #12]	@ _42, CANx_49(D)->RF0R
 1972 00a2 43F02003 		orr	r3, r3, #32	@ _43, _42,
 1973 00a6 EB60     		str	r3, [r5, #12]	@ _43, CANx_49(D)->RF0R
 1974              	@ ../Libraries/STM32F4xx_StdPeriph_Driver/src/stm32f4xx_can.c:786: }
 780:../Libraries/STM32F4xx_StdPeriph_Driver/src/stm32f4xx_can.c ****   }
 781:../Libraries/STM32F4xx_StdPeriph_Driver/src/stm32f4xx_can.c ****   /* Release FIFO1 */
ARM GAS  C:\Users\admin\AppData\Local\Temp\ccqywAa9.s 			page 52


 782:../Libraries/STM32F4xx_StdPeriph_Driver/src/stm32f4xx_can.c ****   else /* FIFONumber == CAN_FIFO1 */
 783:../Libraries/STM32F4xx_StdPeriph_Driver/src/stm32f4xx_can.c ****   {
 784:../Libraries/STM32F4xx_StdPeriph_Driver/src/stm32f4xx_can.c ****     CANx->RF1R |= CAN_RF1R_RFOM1;
 785:../Libraries/STM32F4xx_StdPeriph_Driver/src/stm32f4xx_can.c ****   }
 786:../Libraries/STM32F4xx_StdPeriph_Driver/src/stm32f4xx_can.c **** }
 1975              		.loc 1 786 1 view .LVU503
 1976 00a8 70BD     		pop	{r4, r5, r6, pc}	@
 1977              	.LVL104:
 1978              	.L120:
 784:../Libraries/STM32F4xx_StdPeriph_Driver/src/stm32f4xx_can.c ****   }
 1979              		.loc 1 784 5 is_stmt 1 view .LVU504
 1980              	@ ../Libraries/STM32F4xx_StdPeriph_Driver/src/stm32f4xx_can.c:784:     CANx->RF1R |= CAN_RF1R_RFOM1
 784:../Libraries/STM32F4xx_StdPeriph_Driver/src/stm32f4xx_can.c ****   }
 1981              		.loc 1 784 16 is_stmt 0 view .LVU505
 1982 00aa 2B69     		ldr	r3, [r5, #16]	@ _44, CANx_49(D)->RF1R
 1983 00ac 43F02003 		orr	r3, r3, #32	@ _45, _44,
 1984 00b0 2B61     		str	r3, [r5, #16]	@ _45, CANx_49(D)->RF1R
 1985              	@ ../Libraries/STM32F4xx_StdPeriph_Driver/src/stm32f4xx_can.c:786: }
 1986              		.loc 1 786 1 view .LVU506
 1987 00b2 70BD     		pop	{r4, r5, r6, pc}	@
 1988              	.LVL105:
 1989              	.L118:
 758:../Libraries/STM32F4xx_StdPeriph_Driver/src/stm32f4xx_can.c ****   }
 1990              		.loc 1 758 5 is_stmt 1 view .LVU507
 1991              	@ ../Libraries/STM32F4xx_StdPeriph_Driver/src/stm32f4xx_can.c:758:     RxMessage->ExtId = (uint32_t
 758:../Libraries/STM32F4xx_StdPeriph_Driver/src/stm32f4xx_can.c ****   }
 1992              		.loc 1 758 78 is_stmt 0 view .LVU508
 1993 00b4 D3F8B021 		ldr	r2, [r3, #432]	@ _9,
 1994              	@ ../Libraries/STM32F4xx_StdPeriph_Driver/src/stm32f4xx_can.c:758:     RxMessage->ExtId = (uint32_t
 758:../Libraries/STM32F4xx_StdPeriph_Driver/src/stm32f4xx_can.c ****   }
 1995              		.loc 1 758 83 view .LVU509
 1996 00b8 D208     		lsrs	r2, r2, #3	@ tmp181, _9,
 1997              	@ ../Libraries/STM32F4xx_StdPeriph_Driver/src/stm32f4xx_can.c:758:     RxMessage->ExtId = (uint32_t
 758:../Libraries/STM32F4xx_StdPeriph_Driver/src/stm32f4xx_can.c ****   }
 1998              		.loc 1 758 22 view .LVU510
 1999 00ba 6260     		str	r2, [r4, #4]	@ tmp181, RxMessage_54(D)->ExtId
 2000 00bc C1E7     		b	.L119		@
 2001              	.LVL106:
 2002              	.L122:
 2003              	@ ../Libraries/STM32F4xx_StdPeriph_Driver/src/stm32f4xx_can.c:748:   assert_param(IS_CAN_ALL_PERIPH
 748:../Libraries/STM32F4xx_StdPeriph_Driver/src/stm32f4xx_can.c ****   assert_param(IS_CAN_FIFO(FIFONumber));
 2004              		.loc 1 748 3 view .LVU511
 2005 00be 0120     		movs	r0, #1	@ iftmp.9_46,
 2006              	.LVL107:
 748:../Libraries/STM32F4xx_StdPeriph_Driver/src/stm32f4xx_can.c ****   assert_param(IS_CAN_FIFO(FIFONumber));
 2007              		.loc 1 748 3 view .LVU512
 2008 00c0 AAE7     		b	.L117		@
 2009              	.L125:
 2010 00c2 00BF     		.align	2
 2011              	.L124:
 2012 00c4 00640040 		.word	1073767424
 2013 00c8 00680040 		.word	1073768448
 2014              		.cfi_endproc
 2015              	.LFE120:
 2016              		.size	CAN_Receive, .-CAN_Receive
 2017              		.section	.text.CAN_FIFORelease,"ax",%progbits
 2018              		.align	1
ARM GAS  C:\Users\admin\AppData\Local\Temp\ccqywAa9.s 			page 53


 2019              		.p2align 2,,3
 2020              		.global	CAN_FIFORelease
 2021              		.syntax unified
 2022              		.thumb
 2023              		.thumb_func
 2024              		.type	CAN_FIFORelease, %function
 2025              	CAN_FIFORelease:
 2026              	.LVL108:
 2027              	.LFB121:
 787:../Libraries/STM32F4xx_StdPeriph_Driver/src/stm32f4xx_can.c **** 
 788:../Libraries/STM32F4xx_StdPeriph_Driver/src/stm32f4xx_can.c **** /**
 789:../Libraries/STM32F4xx_StdPeriph_Driver/src/stm32f4xx_can.c ****   * @brief  Releases the specified receive FIFO.
 790:../Libraries/STM32F4xx_StdPeriph_Driver/src/stm32f4xx_can.c ****   * @param  CANx: where x can be 1 or 2 to select the CAN peripheral.
 791:../Libraries/STM32F4xx_StdPeriph_Driver/src/stm32f4xx_can.c ****   * @param  FIFONumber: FIFO to release, CAN_FIFO0 or CAN_FIFO1.
 792:../Libraries/STM32F4xx_StdPeriph_Driver/src/stm32f4xx_can.c ****   * @retval None
 793:../Libraries/STM32F4xx_StdPeriph_Driver/src/stm32f4xx_can.c ****   */
 794:../Libraries/STM32F4xx_StdPeriph_Driver/src/stm32f4xx_can.c **** void CAN_FIFORelease(CAN_TypeDef* CANx, uint8_t FIFONumber)
 795:../Libraries/STM32F4xx_StdPeriph_Driver/src/stm32f4xx_can.c **** {
 2028              		.loc 1 795 1 is_stmt 1 view -0
 2029              		.cfi_startproc
 2030              		@ args = 0, pretend = 0, frame = 0
 2031              		@ frame_needed = 0, uses_anonymous_args = 0
 796:../Libraries/STM32F4xx_StdPeriph_Driver/src/stm32f4xx_can.c ****   /* Check the parameters */
 797:../Libraries/STM32F4xx_StdPeriph_Driver/src/stm32f4xx_can.c ****   assert_param(IS_CAN_ALL_PERIPH(CANx));
 2032              		.loc 1 797 3 view .LVU514
 2033              	@ ../Libraries/STM32F4xx_StdPeriph_Driver/src/stm32f4xx_can.c:795: {
 795:../Libraries/STM32F4xx_StdPeriph_Driver/src/stm32f4xx_can.c ****   /* Check the parameters */
 2034              		.loc 1 795 1 is_stmt 0 view .LVU515
 2035 0000 38B5     		push	{r3, r4, r5, lr}	@
 2036              		.cfi_def_cfa_offset 16
 2037              		.cfi_offset 3, -16
 2038              		.cfi_offset 4, -12
 2039              		.cfi_offset 5, -8
 2040              		.cfi_offset 14, -4
 2041              	@ ../Libraries/STM32F4xx_StdPeriph_Driver/src/stm32f4xx_can.c:797:   assert_param(IS_CAN_ALL_PERIPH
 2042              		.loc 1 797 3 view .LVU516
 2043 0002 0F4B     		ldr	r3, .L132	@ tmp123,
 2044 0004 9842     		cmp	r0, r3	@ CANx, tmp123
 2045              	@ ../Libraries/STM32F4xx_StdPeriph_Driver/src/stm32f4xx_can.c:795: {
 795:../Libraries/STM32F4xx_StdPeriph_Driver/src/stm32f4xx_can.c ****   /* Check the parameters */
 2046              		.loc 1 795 1 view .LVU517
 2047 0006 0446     		mov	r4, r0	@ CANx, tmp131
 2048 0008 0D46     		mov	r5, r1	@ FIFONumber, tmp132
 2049              	@ ../Libraries/STM32F4xx_StdPeriph_Driver/src/stm32f4xx_can.c:797:   assert_param(IS_CAN_ALL_PERIPH
 2050              		.loc 1 797 3 view .LVU518
 2051 000a 17D0     		beq	.L130		@,
 2052              	@ ../Libraries/STM32F4xx_StdPeriph_Driver/src/stm32f4xx_can.c:797:   assert_param(IS_CAN_ALL_PERIPH
 2053              		.loc 1 797 3 discriminator 2 view .LVU519
 2054 000c 0D48     		ldr	r0, .L132+4	@ tmp126,
 2055              	.LVL109:
 2056              		.loc 1 797 3 discriminator 2 view .LVU520
 2057 000e 201A     		subs	r0, r4, r0	@ iftmp.10_7, CANx, tmp126
 2058 0010 B0FA80F0 		clz	r0, r0	@ iftmp.10_7, iftmp.10_7
 2059 0014 4009     		lsrs	r0, r0, #5	@ iftmp.10_7, iftmp.10_7,
 2060              	.L127:
 2061              	@ ../Libraries/STM32F4xx_StdPeriph_Driver/src/stm32f4xx_can.c:797:   assert_param(IS_CAN_ALL_PERIPH
 2062              		.loc 1 797 3 discriminator 6 view .LVU521
ARM GAS  C:\Users\admin\AppData\Local\Temp\ccqywAa9.s 			page 54


 2063 0016 FFF7FEFF 		bl	assert_param		@
 2064              	.LVL110:
 798:../Libraries/STM32F4xx_StdPeriph_Driver/src/stm32f4xx_can.c ****   assert_param(IS_CAN_FIFO(FIFONumber));
 2065              		.loc 1 798 3 is_stmt 1 discriminator 6 view .LVU522
 2066 001a 012D     		cmp	r5, #1	@ FIFONumber,
 2067 001c 8CBF     		ite	hi
 2068 001e 0020     		movhi	r0, #0	@,
 2069 0020 0120     		movls	r0, #1	@,
 2070 0022 FFF7FEFF 		bl	assert_param		@
 2071              	.LVL111:
 799:../Libraries/STM32F4xx_StdPeriph_Driver/src/stm32f4xx_can.c ****   /* Release FIFO0 */
 800:../Libraries/STM32F4xx_StdPeriph_Driver/src/stm32f4xx_can.c ****   if (FIFONumber == CAN_FIFO0)
 2072              		.loc 1 800 3 discriminator 6 view .LVU523
 2073              	@ ../Libraries/STM32F4xx_StdPeriph_Driver/src/stm32f4xx_can.c:800:   if (FIFONumber == CAN_FIFO0)
 2074              		.loc 1 800 6 is_stmt 0 discriminator 6 view .LVU524
 2075 0026 25B9     		cbnz	r5, .L128	@ FIFONumber,
 801:../Libraries/STM32F4xx_StdPeriph_Driver/src/stm32f4xx_can.c ****   {
 802:../Libraries/STM32F4xx_StdPeriph_Driver/src/stm32f4xx_can.c ****     CANx->RF0R |= CAN_RF0R_RFOM0;
 2076              		.loc 1 802 5 is_stmt 1 view .LVU525
 2077              	@ ../Libraries/STM32F4xx_StdPeriph_Driver/src/stm32f4xx_can.c:802:     CANx->RF0R |= CAN_RF0R_RFOM0
 2078              		.loc 1 802 16 is_stmt 0 view .LVU526
 2079 0028 E368     		ldr	r3, [r4, #12]	@ _3, CANx_9(D)->RF0R
 2080 002a 43F02003 		orr	r3, r3, #32	@ _4, _3,
 2081 002e E360     		str	r3, [r4, #12]	@ _4, CANx_9(D)->RF0R
 2082              	@ ../Libraries/STM32F4xx_StdPeriph_Driver/src/stm32f4xx_can.c:809: }
 803:../Libraries/STM32F4xx_StdPeriph_Driver/src/stm32f4xx_can.c ****   }
 804:../Libraries/STM32F4xx_StdPeriph_Driver/src/stm32f4xx_can.c ****   /* Release FIFO1 */
 805:../Libraries/STM32F4xx_StdPeriph_Driver/src/stm32f4xx_can.c ****   else /* FIFONumber == CAN_FIFO1 */
 806:../Libraries/STM32F4xx_StdPeriph_Driver/src/stm32f4xx_can.c ****   {
 807:../Libraries/STM32F4xx_StdPeriph_Driver/src/stm32f4xx_can.c ****     CANx->RF1R |= CAN_RF1R_RFOM1;
 808:../Libraries/STM32F4xx_StdPeriph_Driver/src/stm32f4xx_can.c ****   }
 809:../Libraries/STM32F4xx_StdPeriph_Driver/src/stm32f4xx_can.c **** }
 2083              		.loc 1 809 1 view .LVU527
 2084 0030 38BD     		pop	{r3, r4, r5, pc}	@
 2085              	.LVL112:
 2086              	.L128:
 807:../Libraries/STM32F4xx_StdPeriph_Driver/src/stm32f4xx_can.c ****   }
 2087              		.loc 1 807 5 is_stmt 1 view .LVU528
 2088              	@ ../Libraries/STM32F4xx_StdPeriph_Driver/src/stm32f4xx_can.c:807:     CANx->RF1R |= CAN_RF1R_RFOM1
 807:../Libraries/STM32F4xx_StdPeriph_Driver/src/stm32f4xx_can.c ****   }
 2089              		.loc 1 807 16 is_stmt 0 view .LVU529
 2090 0032 2369     		ldr	r3, [r4, #16]	@ _5, CANx_9(D)->RF1R
 2091 0034 43F02003 		orr	r3, r3, #32	@ _6, _5,
 2092 0038 2361     		str	r3, [r4, #16]	@ _6, CANx_9(D)->RF1R
 2093              	@ ../Libraries/STM32F4xx_StdPeriph_Driver/src/stm32f4xx_can.c:809: }
 2094              		.loc 1 809 1 view .LVU530
 2095 003a 38BD     		pop	{r3, r4, r5, pc}	@
 2096              	.LVL113:
 2097              	.L130:
 2098              	@ ../Libraries/STM32F4xx_StdPeriph_Driver/src/stm32f4xx_can.c:797:   assert_param(IS_CAN_ALL_PERIPH
 797:../Libraries/STM32F4xx_StdPeriph_Driver/src/stm32f4xx_can.c ****   assert_param(IS_CAN_FIFO(FIFONumber));
 2099              		.loc 1 797 3 view .LVU531
 2100 003c 0120     		movs	r0, #1	@ iftmp.10_7,
 2101              	.LVL114:
 797:../Libraries/STM32F4xx_StdPeriph_Driver/src/stm32f4xx_can.c ****   assert_param(IS_CAN_FIFO(FIFONumber));
 2102              		.loc 1 797 3 view .LVU532
 2103 003e EAE7     		b	.L127		@
ARM GAS  C:\Users\admin\AppData\Local\Temp\ccqywAa9.s 			page 55


 2104              	.L133:
 2105              		.align	2
 2106              	.L132:
 2107 0040 00640040 		.word	1073767424
 2108 0044 00680040 		.word	1073768448
 2109              		.cfi_endproc
 2110              	.LFE121:
 2111              		.size	CAN_FIFORelease, .-CAN_FIFORelease
 2112              		.section	.text.CAN_MessagePending,"ax",%progbits
 2113              		.align	1
 2114              		.p2align 2,,3
 2115              		.global	CAN_MessagePending
 2116              		.syntax unified
 2117              		.thumb
 2118              		.thumb_func
 2119              		.type	CAN_MessagePending, %function
 2120              	CAN_MessagePending:
 2121              	.LVL115:
 2122              	.LFB122:
 810:../Libraries/STM32F4xx_StdPeriph_Driver/src/stm32f4xx_can.c **** 
 811:../Libraries/STM32F4xx_StdPeriph_Driver/src/stm32f4xx_can.c **** /**
 812:../Libraries/STM32F4xx_StdPeriph_Driver/src/stm32f4xx_can.c ****   * @brief  Returns the number of pending received messages.
 813:../Libraries/STM32F4xx_StdPeriph_Driver/src/stm32f4xx_can.c ****   * @param  CANx: where x can be 1 or 2 to select the CAN peripheral.
 814:../Libraries/STM32F4xx_StdPeriph_Driver/src/stm32f4xx_can.c ****   * @param  FIFONumber: Receive FIFO number, CAN_FIFO0 or CAN_FIFO1.
 815:../Libraries/STM32F4xx_StdPeriph_Driver/src/stm32f4xx_can.c ****   * @retval NbMessage : which is the number of pending message.
 816:../Libraries/STM32F4xx_StdPeriph_Driver/src/stm32f4xx_can.c ****   */
 817:../Libraries/STM32F4xx_StdPeriph_Driver/src/stm32f4xx_can.c **** uint8_t CAN_MessagePending(CAN_TypeDef* CANx, uint8_t FIFONumber)
 818:../Libraries/STM32F4xx_StdPeriph_Driver/src/stm32f4xx_can.c **** {
 2123              		.loc 1 818 1 is_stmt 1 view -0
 2124              		.cfi_startproc
 2125              		@ args = 0, pretend = 0, frame = 0
 2126              		@ frame_needed = 0, uses_anonymous_args = 0
 819:../Libraries/STM32F4xx_StdPeriph_Driver/src/stm32f4xx_can.c ****   uint8_t message_pending=0;
 2127              		.loc 1 819 3 view .LVU534
 820:../Libraries/STM32F4xx_StdPeriph_Driver/src/stm32f4xx_can.c ****   /* Check the parameters */
 821:../Libraries/STM32F4xx_StdPeriph_Driver/src/stm32f4xx_can.c ****   assert_param(IS_CAN_ALL_PERIPH(CANx));
 2128              		.loc 1 821 3 view .LVU535
 2129              	@ ../Libraries/STM32F4xx_StdPeriph_Driver/src/stm32f4xx_can.c:818: {
 818:../Libraries/STM32F4xx_StdPeriph_Driver/src/stm32f4xx_can.c ****   uint8_t message_pending=0;
 2130              		.loc 1 818 1 is_stmt 0 view .LVU536
 2131 0000 38B5     		push	{r3, r4, r5, lr}	@
 2132              		.cfi_def_cfa_offset 16
 2133              		.cfi_offset 3, -16
 2134              		.cfi_offset 4, -12
 2135              		.cfi_offset 5, -8
 2136              		.cfi_offset 14, -4
 2137              	@ ../Libraries/STM32F4xx_StdPeriph_Driver/src/stm32f4xx_can.c:821:   assert_param(IS_CAN_ALL_PERIPH
 2138              		.loc 1 821 3 view .LVU537
 2139 0002 104B     		ldr	r3, .L141	@ tmp124,
 2140 0004 9842     		cmp	r0, r3	@ CANx, tmp124
 2141              	@ ../Libraries/STM32F4xx_StdPeriph_Driver/src/stm32f4xx_can.c:818: {
 818:../Libraries/STM32F4xx_StdPeriph_Driver/src/stm32f4xx_can.c ****   uint8_t message_pending=0;
 2142              		.loc 1 818 1 view .LVU538
 2143 0006 0546     		mov	r5, r0	@ CANx, tmp137
 2144 0008 0C46     		mov	r4, r1	@ FIFONumber, tmp138
 2145              	@ ../Libraries/STM32F4xx_StdPeriph_Driver/src/stm32f4xx_can.c:821:   assert_param(IS_CAN_ALL_PERIPH
 2146              		.loc 1 821 3 view .LVU539
ARM GAS  C:\Users\admin\AppData\Local\Temp\ccqywAa9.s 			page 56


 2147 000a 18D0     		beq	.L138		@,
 2148              	@ ../Libraries/STM32F4xx_StdPeriph_Driver/src/stm32f4xx_can.c:821:   assert_param(IS_CAN_ALL_PERIPH
 2149              		.loc 1 821 3 discriminator 2 view .LVU540
 2150 000c 0E48     		ldr	r0, .L141+4	@ tmp127,
 2151              	.LVL116:
 2152              		.loc 1 821 3 discriminator 2 view .LVU541
 2153 000e 281A     		subs	r0, r5, r0	@ iftmp.11_8, CANx, tmp127
 2154 0010 B0FA80F0 		clz	r0, r0	@ iftmp.11_8, iftmp.11_8
 2155 0014 4009     		lsrs	r0, r0, #5	@ iftmp.11_8, iftmp.11_8,
 2156              	.L135:
 2157              	@ ../Libraries/STM32F4xx_StdPeriph_Driver/src/stm32f4xx_can.c:821:   assert_param(IS_CAN_ALL_PERIPH
 2158              		.loc 1 821 3 discriminator 6 view .LVU542
 2159 0016 FFF7FEFF 		bl	assert_param		@
 2160              	.LVL117:
 822:../Libraries/STM32F4xx_StdPeriph_Driver/src/stm32f4xx_can.c ****   assert_param(IS_CAN_FIFO(FIFONumber));
 2161              		.loc 1 822 3 is_stmt 1 discriminator 6 view .LVU543
 2162 001a 012C     		cmp	r4, #1	@ FIFONumber,
 2163 001c 8CBF     		ite	hi
 2164 001e 0020     		movhi	r0, #0	@,
 2165 0020 0120     		movls	r0, #1	@,
 2166 0022 FFF7FEFF 		bl	assert_param		@
 2167              	.LVL118:
 823:../Libraries/STM32F4xx_StdPeriph_Driver/src/stm32f4xx_can.c ****   if (FIFONumber == CAN_FIFO0)
 2168              		.loc 1 823 3 discriminator 6 view .LVU544
 2169              	@ ../Libraries/STM32F4xx_StdPeriph_Driver/src/stm32f4xx_can.c:823:   if (FIFONumber == CAN_FIFO0)
 2170              		.loc 1 823 6 is_stmt 0 discriminator 6 view .LVU545
 2171 0026 1CB9     		cbnz	r4, .L136	@ FIFONumber,
 824:../Libraries/STM32F4xx_StdPeriph_Driver/src/stm32f4xx_can.c ****   {
 825:../Libraries/STM32F4xx_StdPeriph_Driver/src/stm32f4xx_can.c ****     message_pending = (uint8_t)(CANx->RF0R&(uint32_t)0x03);
 2172              		.loc 1 825 5 is_stmt 1 view .LVU546
 2173              	@ ../Libraries/STM32F4xx_StdPeriph_Driver/src/stm32f4xx_can.c:825:     message_pending = (uint8_t)(
 2174              		.loc 1 825 37 is_stmt 0 view .LVU547
 2175 0028 E868     		ldr	r0, [r5, #12]	@ _3, CANx_9(D)->RF0R
 2176              	@ ../Libraries/STM32F4xx_StdPeriph_Driver/src/stm32f4xx_can.c:825:     message_pending = (uint8_t)(
 2177              		.loc 1 825 21 view .LVU548
 2178 002a 00F00300 		and	r0, r0, #3	@ <retval>, _3,
 2179              	.LVL119:
 826:../Libraries/STM32F4xx_StdPeriph_Driver/src/stm32f4xx_can.c ****   }
 827:../Libraries/STM32F4xx_StdPeriph_Driver/src/stm32f4xx_can.c ****   else if (FIFONumber == CAN_FIFO1)
 828:../Libraries/STM32F4xx_StdPeriph_Driver/src/stm32f4xx_can.c ****   {
 829:../Libraries/STM32F4xx_StdPeriph_Driver/src/stm32f4xx_can.c ****     message_pending = (uint8_t)(CANx->RF1R&(uint32_t)0x03);
 830:../Libraries/STM32F4xx_StdPeriph_Driver/src/stm32f4xx_can.c ****   }
 831:../Libraries/STM32F4xx_StdPeriph_Driver/src/stm32f4xx_can.c ****   else
 832:../Libraries/STM32F4xx_StdPeriph_Driver/src/stm32f4xx_can.c ****   {
 833:../Libraries/STM32F4xx_StdPeriph_Driver/src/stm32f4xx_can.c ****     message_pending = 0;
 834:../Libraries/STM32F4xx_StdPeriph_Driver/src/stm32f4xx_can.c ****   }
 835:../Libraries/STM32F4xx_StdPeriph_Driver/src/stm32f4xx_can.c ****   return message_pending;
 2180              		.loc 1 835 3 is_stmt 1 view .LVU549
 2181              	@ ../Libraries/STM32F4xx_StdPeriph_Driver/src/stm32f4xx_can.c:836: }
 836:../Libraries/STM32F4xx_StdPeriph_Driver/src/stm32f4xx_can.c **** }
 2182              		.loc 1 836 1 is_stmt 0 view .LVU550
 2183 002e 38BD     		pop	{r3, r4, r5, pc}	@
 2184              	.LVL120:
 2185              	.L136:
 827:../Libraries/STM32F4xx_StdPeriph_Driver/src/stm32f4xx_can.c ****   {
 2186              		.loc 1 827 8 is_stmt 1 view .LVU551
 829:../Libraries/STM32F4xx_StdPeriph_Driver/src/stm32f4xx_can.c ****   }
ARM GAS  C:\Users\admin\AppData\Local\Temp\ccqywAa9.s 			page 57


 2187              		.loc 1 829 5 view .LVU552
 2188              	@ ../Libraries/STM32F4xx_StdPeriph_Driver/src/stm32f4xx_can.c:827:   else if (FIFONumber == CAN_FIF
 827:../Libraries/STM32F4xx_StdPeriph_Driver/src/stm32f4xx_can.c ****   {
 2189              		.loc 1 827 11 is_stmt 0 view .LVU553
 2190 0030 012C     		cmp	r4, #1	@ FIFONumber,
 2191              	@ ../Libraries/STM32F4xx_StdPeriph_Driver/src/stm32f4xx_can.c:829:     message_pending = (uint8_t)(
 829:../Libraries/STM32F4xx_StdPeriph_Driver/src/stm32f4xx_can.c ****   }
 2192              		.loc 1 829 37 view .LVU554
 2193 0032 0ABF     		itet	eq
 2194 0034 2869     		ldreq	r0, [r5, #16]	@ _5, CANx_9(D)->RF1R
 2195              	@ ../Libraries/STM32F4xx_StdPeriph_Driver/src/stm32f4xx_can.c:833:     message_pending = 0;
 833:../Libraries/STM32F4xx_StdPeriph_Driver/src/stm32f4xx_can.c ****   }
 2196              		.loc 1 833 21 view .LVU555
 2197 0036 0020     		movne	r0, #0	@ <retval>,
 2198              	@ ../Libraries/STM32F4xx_StdPeriph_Driver/src/stm32f4xx_can.c:829:     message_pending = (uint8_t)(
 829:../Libraries/STM32F4xx_StdPeriph_Driver/src/stm32f4xx_can.c ****   }
 2199              		.loc 1 829 21 view .LVU556
 2200 0038 00F00300 		andeq	r0, r0, #3	@ <retval>, _5,
 2201              	.LVL121:
 835:../Libraries/STM32F4xx_StdPeriph_Driver/src/stm32f4xx_can.c **** }
 2202              		.loc 1 835 3 is_stmt 1 view .LVU557
 2203              	@ ../Libraries/STM32F4xx_StdPeriph_Driver/src/stm32f4xx_can.c:836: }
 2204              		.loc 1 836 1 is_stmt 0 view .LVU558
 2205 003c 38BD     		pop	{r3, r4, r5, pc}	@
 2206              	.LVL122:
 2207              	.L138:
 2208              	@ ../Libraries/STM32F4xx_StdPeriph_Driver/src/stm32f4xx_can.c:821:   assert_param(IS_CAN_ALL_PERIPH
 821:../Libraries/STM32F4xx_StdPeriph_Driver/src/stm32f4xx_can.c ****   assert_param(IS_CAN_FIFO(FIFONumber));
 2209              		.loc 1 821 3 view .LVU559
 2210 003e 0120     		movs	r0, #1	@ iftmp.11_8,
 2211              	.LVL123:
 821:../Libraries/STM32F4xx_StdPeriph_Driver/src/stm32f4xx_can.c ****   assert_param(IS_CAN_FIFO(FIFONumber));
 2212              		.loc 1 821 3 view .LVU560
 2213 0040 E9E7     		b	.L135		@
 2214              	.L142:
 2215 0042 00BF     		.align	2
 2216              	.L141:
 2217 0044 00640040 		.word	1073767424
 2218 0048 00680040 		.word	1073768448
 2219              		.cfi_endproc
 2220              	.LFE122:
 2221              		.size	CAN_MessagePending, .-CAN_MessagePending
 2222              		.section	.text.CAN_OperatingModeRequest,"ax",%progbits
 2223              		.align	1
 2224              		.p2align 2,,3
 2225              		.global	CAN_OperatingModeRequest
 2226              		.syntax unified
 2227              		.thumb
 2228              		.thumb_func
 2229              		.type	CAN_OperatingModeRequest, %function
 2230              	CAN_OperatingModeRequest:
 2231              	.LVL124:
 2232              	.LFB123:
 837:../Libraries/STM32F4xx_StdPeriph_Driver/src/stm32f4xx_can.c **** /**
 838:../Libraries/STM32F4xx_StdPeriph_Driver/src/stm32f4xx_can.c ****   * @}
 839:../Libraries/STM32F4xx_StdPeriph_Driver/src/stm32f4xx_can.c ****   */
 840:../Libraries/STM32F4xx_StdPeriph_Driver/src/stm32f4xx_can.c **** 
ARM GAS  C:\Users\admin\AppData\Local\Temp\ccqywAa9.s 			page 58


 841:../Libraries/STM32F4xx_StdPeriph_Driver/src/stm32f4xx_can.c **** 
 842:../Libraries/STM32F4xx_StdPeriph_Driver/src/stm32f4xx_can.c **** /** @defgroup CAN_Group4 CAN Operation modes functions
 843:../Libraries/STM32F4xx_StdPeriph_Driver/src/stm32f4xx_can.c ****  *  @brief    CAN Operation modes functions 
 844:../Libraries/STM32F4xx_StdPeriph_Driver/src/stm32f4xx_can.c ****  *
 845:../Libraries/STM32F4xx_StdPeriph_Driver/src/stm32f4xx_can.c **** @verbatim    
 846:../Libraries/STM32F4xx_StdPeriph_Driver/src/stm32f4xx_can.c ****  ===============================================================================
 847:../Libraries/STM32F4xx_StdPeriph_Driver/src/stm32f4xx_can.c ****                       CAN Operation modes functions
 848:../Libraries/STM32F4xx_StdPeriph_Driver/src/stm32f4xx_can.c ****  ===============================================================================  
 849:../Libraries/STM32F4xx_StdPeriph_Driver/src/stm32f4xx_can.c ****   This section provides functions allowing to select the CAN Operation modes
 850:../Libraries/STM32F4xx_StdPeriph_Driver/src/stm32f4xx_can.c ****   - sleep mode
 851:../Libraries/STM32F4xx_StdPeriph_Driver/src/stm32f4xx_can.c ****   - normal mode 
 852:../Libraries/STM32F4xx_StdPeriph_Driver/src/stm32f4xx_can.c ****   - initialization mode
 853:../Libraries/STM32F4xx_StdPeriph_Driver/src/stm32f4xx_can.c ****    
 854:../Libraries/STM32F4xx_StdPeriph_Driver/src/stm32f4xx_can.c **** @endverbatim
 855:../Libraries/STM32F4xx_StdPeriph_Driver/src/stm32f4xx_can.c ****   * @{
 856:../Libraries/STM32F4xx_StdPeriph_Driver/src/stm32f4xx_can.c ****   */
 857:../Libraries/STM32F4xx_StdPeriph_Driver/src/stm32f4xx_can.c ****   
 858:../Libraries/STM32F4xx_StdPeriph_Driver/src/stm32f4xx_can.c ****   
 859:../Libraries/STM32F4xx_StdPeriph_Driver/src/stm32f4xx_can.c **** /**
 860:../Libraries/STM32F4xx_StdPeriph_Driver/src/stm32f4xx_can.c ****   * @brief  Selects the CAN Operation mode.
 861:../Libraries/STM32F4xx_StdPeriph_Driver/src/stm32f4xx_can.c ****   * @param  CAN_OperatingMode: CAN Operating Mode.
 862:../Libraries/STM32F4xx_StdPeriph_Driver/src/stm32f4xx_can.c ****   *         This parameter can be one of @ref CAN_OperatingMode_TypeDef enumeration.
 863:../Libraries/STM32F4xx_StdPeriph_Driver/src/stm32f4xx_can.c ****   * @retval status of the requested mode which can be 
 864:../Libraries/STM32F4xx_StdPeriph_Driver/src/stm32f4xx_can.c ****   *         - CAN_ModeStatus_Failed:  CAN failed entering the specific mode 
 865:../Libraries/STM32F4xx_StdPeriph_Driver/src/stm32f4xx_can.c ****   *         - CAN_ModeStatus_Success: CAN Succeed entering the specific mode 
 866:../Libraries/STM32F4xx_StdPeriph_Driver/src/stm32f4xx_can.c ****   */
 867:../Libraries/STM32F4xx_StdPeriph_Driver/src/stm32f4xx_can.c **** uint8_t CAN_OperatingModeRequest(CAN_TypeDef* CANx, uint8_t CAN_OperatingMode)
 868:../Libraries/STM32F4xx_StdPeriph_Driver/src/stm32f4xx_can.c **** {
 2233              		.loc 1 868 1 is_stmt 1 view -0
 2234              		.cfi_startproc
 2235              		@ args = 0, pretend = 0, frame = 0
 2236              		@ frame_needed = 0, uses_anonymous_args = 0
 869:../Libraries/STM32F4xx_StdPeriph_Driver/src/stm32f4xx_can.c ****   uint8_t status = CAN_ModeStatus_Failed;
 2237              		.loc 1 869 3 view .LVU562
 870:../Libraries/STM32F4xx_StdPeriph_Driver/src/stm32f4xx_can.c ****   
 871:../Libraries/STM32F4xx_StdPeriph_Driver/src/stm32f4xx_can.c ****   /* Timeout for INAK or also for SLAK bits*/
 872:../Libraries/STM32F4xx_StdPeriph_Driver/src/stm32f4xx_can.c ****   uint32_t timeout = INAK_TIMEOUT; 
 2238              		.loc 1 872 3 view .LVU563
 873:../Libraries/STM32F4xx_StdPeriph_Driver/src/stm32f4xx_can.c **** 
 874:../Libraries/STM32F4xx_StdPeriph_Driver/src/stm32f4xx_can.c ****   /* Check the parameters */
 875:../Libraries/STM32F4xx_StdPeriph_Driver/src/stm32f4xx_can.c ****   assert_param(IS_CAN_ALL_PERIPH(CANx));
 2239              		.loc 1 875 3 view .LVU564
 2240              	@ ../Libraries/STM32F4xx_StdPeriph_Driver/src/stm32f4xx_can.c:868: {
 868:../Libraries/STM32F4xx_StdPeriph_Driver/src/stm32f4xx_can.c ****   uint8_t status = CAN_ModeStatus_Failed;
 2241              		.loc 1 868 1 is_stmt 0 view .LVU565
 2242 0000 38B5     		push	{r3, r4, r5, lr}	@
 2243              		.cfi_def_cfa_offset 16
 2244              		.cfi_offset 3, -16
 2245              		.cfi_offset 4, -12
 2246              		.cfi_offset 5, -8
 2247              		.cfi_offset 14, -4
 2248              	@ ../Libraries/STM32F4xx_StdPeriph_Driver/src/stm32f4xx_can.c:875:   assert_param(IS_CAN_ALL_PERIPH
 2249              		.loc 1 875 3 view .LVU566
 2250 0002 364B     		ldr	r3, .L183	@ tmp152,
 2251 0004 9842     		cmp	r0, r3	@ CANx, tmp152
 2252              	@ ../Libraries/STM32F4xx_StdPeriph_Driver/src/stm32f4xx_can.c:868: {
 868:../Libraries/STM32F4xx_StdPeriph_Driver/src/stm32f4xx_can.c ****   uint8_t status = CAN_ModeStatus_Failed;
ARM GAS  C:\Users\admin\AppData\Local\Temp\ccqywAa9.s 			page 59


 2253              		.loc 1 868 1 view .LVU567
 2254 0006 0446     		mov	r4, r0	@ CANx, tmp181
 2255 0008 0D46     		mov	r5, r1	@ CAN_OperatingMode, tmp182
 2256              	@ ../Libraries/STM32F4xx_StdPeriph_Driver/src/stm32f4xx_can.c:875:   assert_param(IS_CAN_ALL_PERIPH
 2257              		.loc 1 875 3 view .LVU568
 2258 000a 31D0     		beq	.L154		@,
 2259              	@ ../Libraries/STM32F4xx_StdPeriph_Driver/src/stm32f4xx_can.c:875:   assert_param(IS_CAN_ALL_PERIPH
 2260              		.loc 1 875 3 discriminator 2 view .LVU569
 2261 000c 3448     		ldr	r0, .L183+4	@ tmp155,
 2262              	.LVL125:
 2263              		.loc 1 875 3 discriminator 2 view .LVU570
 2264 000e 201A     		subs	r0, r4, r0	@ iftmp.12_27, CANx, tmp155
 2265 0010 B0FA80F0 		clz	r0, r0	@ iftmp.12_27, iftmp.12_27
 2266 0014 4009     		lsrs	r0, r0, #5	@ iftmp.12_27, iftmp.12_27,
 2267              	.L144:
 2268              	@ ../Libraries/STM32F4xx_StdPeriph_Driver/src/stm32f4xx_can.c:875:   assert_param(IS_CAN_ALL_PERIPH
 2269              		.loc 1 875 3 discriminator 6 view .LVU571
 2270 0016 FFF7FEFF 		bl	assert_param		@
 2271              	.LVL126:
 876:../Libraries/STM32F4xx_StdPeriph_Driver/src/stm32f4xx_can.c ****   assert_param(IS_CAN_OPERATING_MODE(CAN_OperatingMode));
 2272              		.loc 1 876 3 is_stmt 1 discriminator 6 view .LVU572
