ARM GAS  C:\Users\admin\AppData\Local\Temp\ccNoXWf1.s 			page 1


   1              		.cpu cortex-m4
   2              		.arch armv7e-m
   3              		.fpu fpv4-sp-d16
   4              		.eabi_attribute 27, 1	@ Tag_ABI_HardFP_use
   5              		.eabi_attribute 28, 1	@ Tag_ABI_VFP_args
   6              		.eabi_attribute 23, 1	@ Tag_ABI_FP_number_model
   7              		.eabi_attribute 24, 1	@ Tag_ABI_align8_needed
   8              		.eabi_attribute 25, 1	@ Tag_ABI_align8_preserved
   9              		.eabi_attribute 26, 1	@ Tag_ABI_enum_size
  10              		.eabi_attribute 30, 2	@ Tag_ABI_optimization_goals
  11              		.eabi_attribute 34, 1	@ Tag_CPU_unaligned_access
  12              		.eabi_attribute 18, 4	@ Tag_ABI_PCS_wchar_t
  13              		.file	"stm32f4xx_hash_md5.c"
  14              	@ GNU C89 (GNU Arm Embedded Toolchain 10.3-2021.10) version 10.3.1 20210824 (release) (arm-none-eab
  15              	@	compiled by GNU C version 7.3-win32 20180312, GMP version 6.1.0, MPFR version 3.1.4, MPC version 
  16              	
  17              	@ GGC heuristics: --param ggc-min-expand=100 --param ggc-min-heapsize=131072
  18              	@ options passed:  -I . -I . -I ../Utilities/STM32F4-Discovery/
  19              	@ -I ../Libraries/STM32_USB_Device_Library/Class/audio/inc/
  20              	@ -I ../Libraries/STM32_USB_Device_Library/Core/inc/
  21              	@ -I ../Libraries/STM32_USB_OTG_Driver/inc/
  22              	@ -I ../Utilities/STM32F4-Discovery/
  23              	@ -I ../Libraries/STM32F4xx_StdPeriph_Driver/inc/
  24              	@ -I ../Utilities/STM32F4-Discovery/
  25              	@ -I ../Libraries/CMSIS/ST/STM32F4xx/Include/
  26              	@ -I ../Libraries/CMSIS/Include/ -imultilib thumb/v7e-m+fp/hard
  27              	@ -iprefix c:\program files (x86)\gnu arm embedded toolchain\10 2021.10\bin\../lib/gcc/arm-none-eab
  28              	@ -isysroot c:\program files (x86)\gnu arm embedded toolchain\10 2021.10\bin\../arm-none-eabi
  29              	@ -MD out/stm32f4xx_hash_md5.d -MF out/stm32f4xx_hash_md5.d -MP
  30              	@ -MQ out/stm32f4xx_hash_md5.o -D__USES_INITFINI__ -D STM32F4XX
  31              	@ -D __VFP_FP__ -D USE_USB_OTG_FS
  32              	@ ../Libraries/STM32F4xx_StdPeriph_Driver/src/stm32f4xx_hash_md5.c
  33              	@ -mcpu=cortex-m4 -mthumb -mfloat-abi=hard -mfpu=fpv4-sp-d16
  34              	@ -mlibarch=armv7e-m+fp -march=armv7e-m+fp
  35              	@ -auxbase-strip out/stm32f4xx_hash_md5.o -g -ggdb3 -O3 -Wall
  36              	@ -Wstrict-prototypes -Wextra -std=gnu90 -ffast-math -ffunction-sections
  37              	@ -fdata-sections -fverbose-asm
  38              	@ options enabled:  -faggressive-loop-optimizations -falign-functions
  39              	@ -falign-jumps -falign-labels -falign-loops -fallocation-dce
  40              	@ -fassociative-math -fauto-inc-dec -fbranch-count-reg -fcaller-saves
  41              	@ -fcombine-stack-adjustments -fcompare-elim -fcprop-registers
  42              	@ -fcrossjumping -fcse-follow-jumps -fcx-limited-range -fdata-sections
  43              	@ -fdefer-pop -fdelete-null-pointer-checks -fdevirtualize
  44              	@ -fdevirtualize-speculatively -fdwarf2-cfi-asm -fearly-inlining
  45              	@ -feliminate-unused-debug-symbols -feliminate-unused-debug-types
  46              	@ -fexpensive-optimizations -ffinite-math-only -fforward-propagate
  47              	@ -ffp-int-builtin-inexact -ffunction-cse -ffunction-sections -fgcse
  48              	@ -fgcse-after-reload -fgcse-lm -fgnu-unique -fguess-branch-probability
  49              	@ -fhoist-adjacent-loads -fident -fif-conversion -fif-conversion2
  50              	@ -findirect-inlining -finline -finline-atomics -finline-functions
  51              	@ -finline-functions-called-once -finline-small-functions -fipa-bit-cp
  52              	@ -fipa-cp -fipa-cp-clone -fipa-icf -fipa-icf-functions -fipa-icf-variables
  53              	@ -fipa-profile -fipa-pure-const -fipa-ra -fipa-reference
  54              	@ -fipa-reference-addressable -fipa-sra -fipa-stack-alignment -fipa-vrp
  55              	@ -fira-hoist-pressure -fira-share-save-slots -fira-share-spill-slots
  56              	@ -fisolate-erroneous-paths-dereference -fivopts -fkeep-static-consts
  57              	@ -fleading-underscore -flifetime-dse -floop-interchange
ARM GAS  C:\Users\admin\AppData\Local\Temp\ccNoXWf1.s 			page 2


  58              	@ -floop-unroll-and-jam -flra-remat -fmerge-constants -fmerge-debug-strings
  59              	@ -fmove-loop-invariants -fomit-frame-pointer -foptimize-sibling-calls
  60              	@ -foptimize-strlen -fpartial-inlining -fpeel-loops -fpeephole -fpeephole2
  61              	@ -fplt -fpredictive-commoning -fprefetch-loop-arrays -freciprocal-math
  62              	@ -freg-struct-return -freorder-blocks -freorder-functions
  63              	@ -frerun-cse-after-loop -fsched-critical-path-heuristic
  64              	@ -fsched-dep-count-heuristic -fsched-group-heuristic -fsched-interblock
  65              	@ -fsched-last-insn-heuristic -fsched-pressure -fsched-rank-heuristic
  66              	@ -fsched-spec -fsched-spec-insn-heuristic -fsched-stalled-insns-dep
  67              	@ -fschedule-insns -fschedule-insns2 -fsection-anchors
  68              	@ -fsemantic-interposition -fshow-column -fshrink-wrap
  69              	@ -fshrink-wrap-separate -fsplit-ivs-in-unroller -fsplit-loops
  70              	@ -fsplit-paths -fsplit-wide-types -fssa-backprop -fssa-phiopt -fstdarg-opt
  71              	@ -fstore-merging -fstrict-aliasing -fstrict-volatile-bitfields
  72              	@ -fsync-libcalls -fthread-jumps -ftoplevel-reorder -ftree-bit-ccp
  73              	@ -ftree-builtin-call-dce -ftree-ccp -ftree-ch -ftree-coalesce-vars
  74              	@ -ftree-copy-prop -ftree-cselim -ftree-dce -ftree-dominator-opts
  75              	@ -ftree-dse -ftree-forwprop -ftree-fre -ftree-loop-distribute-patterns
  76              	@ -ftree-loop-distribution -ftree-loop-if-convert -ftree-loop-im
  77              	@ -ftree-loop-ivcanon -ftree-loop-optimize -ftree-loop-vectorize
  78              	@ -ftree-parallelize-loops= -ftree-partial-pre -ftree-phiprop -ftree-pre
  79              	@ -ftree-pta -ftree-reassoc -ftree-scev-cprop -ftree-sink
  80              	@ -ftree-slp-vectorize -ftree-slsr -ftree-sra -ftree-switch-conversion
  81              	@ -ftree-tail-merge -ftree-ter -ftree-vrp -funit-at-a-time
  82              	@ -funsafe-math-optimizations -funswitch-loops -fvar-tracking
  83              	@ -fvar-tracking-assignments -fverbose-asm -fversion-loops-for-strides
  84              	@ -fzero-initialized-in-bss -masm-syntax-unified -mbe32 -mlittle-endian
  85              	@ -mpic-data-is-text-relative -msched-prolog -mthumb -munaligned-access
  86              	@ -mvectorize-with-neon-quad
  87              	
  88              		.text
  89              	.Ltext0:
  90              		.cfi_sections	.debug_frame
  91              		.section	.text.HASH_MD5,"ax",%progbits
  92              		.align	1
  93              		.p2align 2,,3
  94              		.global	HASH_MD5
  95              		.syntax unified
  96              		.thumb
  97              		.thumb_func
  98              		.type	HASH_MD5, %function
  99              	HASH_MD5:
 100              	.LVL0:
 101              	.LFB110:
 102              		.file 1 "../Libraries/STM32F4xx_StdPeriph_Driver/src/stm32f4xx_hash_md5.c"
   1:../Libraries/STM32F4xx_StdPeriph_Driver/src/stm32f4xx_hash_md5.c **** /**
   2:../Libraries/STM32F4xx_StdPeriph_Driver/src/stm32f4xx_hash_md5.c ****   ******************************************************************************
   3:../Libraries/STM32F4xx_StdPeriph_Driver/src/stm32f4xx_hash_md5.c ****   * @file    stm32f4xx_hash_md5.c
   4:../Libraries/STM32F4xx_StdPeriph_Driver/src/stm32f4xx_hash_md5.c ****   * @author  MCD Application Team
   5:../Libraries/STM32F4xx_StdPeriph_Driver/src/stm32f4xx_hash_md5.c ****   * @version V1.0.0
   6:../Libraries/STM32F4xx_StdPeriph_Driver/src/stm32f4xx_hash_md5.c ****   * @date    30-September-2011
   7:../Libraries/STM32F4xx_StdPeriph_Driver/src/stm32f4xx_hash_md5.c ****   * @brief   This file provides high level functions to compute the HASH MD5 and
   8:../Libraries/STM32F4xx_StdPeriph_Driver/src/stm32f4xx_hash_md5.c ****   *          HMAC MD5 Digest of an input message.
   9:../Libraries/STM32F4xx_StdPeriph_Driver/src/stm32f4xx_hash_md5.c ****   *          It uses the stm32f4xx_hash.c/.h drivers to access the STM32F4xx HASH
  10:../Libraries/STM32F4xx_StdPeriph_Driver/src/stm32f4xx_hash_md5.c ****   *          peripheral.
  11:../Libraries/STM32F4xx_StdPeriph_Driver/src/stm32f4xx_hash_md5.c ****   *
  12:../Libraries/STM32F4xx_StdPeriph_Driver/src/stm32f4xx_hash_md5.c ****   *  @verbatim
ARM GAS  C:\Users\admin\AppData\Local\Temp\ccNoXWf1.s 			page 3


  13:../Libraries/STM32F4xx_StdPeriph_Driver/src/stm32f4xx_hash_md5.c ****   *    
  14:../Libraries/STM32F4xx_StdPeriph_Driver/src/stm32f4xx_hash_md5.c ****   *          ===================================================================
  15:../Libraries/STM32F4xx_StdPeriph_Driver/src/stm32f4xx_hash_md5.c ****   *                                   How to use this driver
  16:../Libraries/STM32F4xx_StdPeriph_Driver/src/stm32f4xx_hash_md5.c ****   *          ===================================================================
  17:../Libraries/STM32F4xx_StdPeriph_Driver/src/stm32f4xx_hash_md5.c ****   *          1. Enable The HASH controller clock using 
  18:../Libraries/STM32F4xx_StdPeriph_Driver/src/stm32f4xx_hash_md5.c ****   *            RCC_AHB2PeriphClockCmd(RCC_AHB2Periph_HASH, ENABLE); function.
  19:../Libraries/STM32F4xx_StdPeriph_Driver/src/stm32f4xx_hash_md5.c ****   *
  20:../Libraries/STM32F4xx_StdPeriph_Driver/src/stm32f4xx_hash_md5.c ****   *          2. Calculate the HASH MD5 Digest using HASH_MD5() function.
  21:../Libraries/STM32F4xx_StdPeriph_Driver/src/stm32f4xx_hash_md5.c ****   *
  22:../Libraries/STM32F4xx_StdPeriph_Driver/src/stm32f4xx_hash_md5.c ****   *          3. Calculate the HMAC MD5 Digest using HMAC_MD5() function.
  23:../Libraries/STM32F4xx_StdPeriph_Driver/src/stm32f4xx_hash_md5.c ****   *
  24:../Libraries/STM32F4xx_StdPeriph_Driver/src/stm32f4xx_hash_md5.c ****   *  @endverbatim
  25:../Libraries/STM32F4xx_StdPeriph_Driver/src/stm32f4xx_hash_md5.c ****   *
  26:../Libraries/STM32F4xx_StdPeriph_Driver/src/stm32f4xx_hash_md5.c ****   ******************************************************************************
  27:../Libraries/STM32F4xx_StdPeriph_Driver/src/stm32f4xx_hash_md5.c ****   * @attention
  28:../Libraries/STM32F4xx_StdPeriph_Driver/src/stm32f4xx_hash_md5.c ****   *
  29:../Libraries/STM32F4xx_StdPeriph_Driver/src/stm32f4xx_hash_md5.c ****   * THE PRESENT FIRMWARE WHICH IS FOR GUIDANCE ONLY AIMS AT PROVIDING CUSTOMERS
  30:../Libraries/STM32F4xx_StdPeriph_Driver/src/stm32f4xx_hash_md5.c ****   * WITH CODING INFORMATION REGARDING THEIR PRODUCTS IN ORDER FOR THEM TO SAVE
  31:../Libraries/STM32F4xx_StdPeriph_Driver/src/stm32f4xx_hash_md5.c ****   * TIME. AS A RESULT, STMICROELECTRONICS SHALL NOT BE HELD LIABLE FOR ANY
  32:../Libraries/STM32F4xx_StdPeriph_Driver/src/stm32f4xx_hash_md5.c ****   * DIRECT, INDIRECT OR CONSEQUENTIAL DAMAGES WITH RESPECT TO ANY CLAIMS ARISING
  33:../Libraries/STM32F4xx_StdPeriph_Driver/src/stm32f4xx_hash_md5.c ****   * FROM THE CONTENT OF SUCH FIRMWARE AND/OR THE USE MADE BY CUSTOMERS OF THE
  34:../Libraries/STM32F4xx_StdPeriph_Driver/src/stm32f4xx_hash_md5.c ****   * CODING INFORMATION CONTAINED HEREIN IN CONNECTION WITH THEIR PRODUCTS.
  35:../Libraries/STM32F4xx_StdPeriph_Driver/src/stm32f4xx_hash_md5.c ****   *
  36:../Libraries/STM32F4xx_StdPeriph_Driver/src/stm32f4xx_hash_md5.c ****   * <h2><center>&copy; COPYRIGHT 2011 STMicroelectronics</center></h2>
  37:../Libraries/STM32F4xx_StdPeriph_Driver/src/stm32f4xx_hash_md5.c ****   ******************************************************************************
  38:../Libraries/STM32F4xx_StdPeriph_Driver/src/stm32f4xx_hash_md5.c ****   */
  39:../Libraries/STM32F4xx_StdPeriph_Driver/src/stm32f4xx_hash_md5.c **** 
  40:../Libraries/STM32F4xx_StdPeriph_Driver/src/stm32f4xx_hash_md5.c **** /* Includes ------------------------------------------------------------------*/
  41:../Libraries/STM32F4xx_StdPeriph_Driver/src/stm32f4xx_hash_md5.c **** #include "stm32f4xx_hash.h"
  42:../Libraries/STM32F4xx_StdPeriph_Driver/src/stm32f4xx_hash_md5.c **** 
  43:../Libraries/STM32F4xx_StdPeriph_Driver/src/stm32f4xx_hash_md5.c **** /** @addtogroup STM32F4xx_StdPeriph_Driver
  44:../Libraries/STM32F4xx_StdPeriph_Driver/src/stm32f4xx_hash_md5.c ****   * @{
  45:../Libraries/STM32F4xx_StdPeriph_Driver/src/stm32f4xx_hash_md5.c ****   */
  46:../Libraries/STM32F4xx_StdPeriph_Driver/src/stm32f4xx_hash_md5.c **** 
  47:../Libraries/STM32F4xx_StdPeriph_Driver/src/stm32f4xx_hash_md5.c **** /** @defgroup HASH 
  48:../Libraries/STM32F4xx_StdPeriph_Driver/src/stm32f4xx_hash_md5.c ****   * @brief HASH driver modules
  49:../Libraries/STM32F4xx_StdPeriph_Driver/src/stm32f4xx_hash_md5.c ****   * @{
  50:../Libraries/STM32F4xx_StdPeriph_Driver/src/stm32f4xx_hash_md5.c ****   */
  51:../Libraries/STM32F4xx_StdPeriph_Driver/src/stm32f4xx_hash_md5.c **** 
  52:../Libraries/STM32F4xx_StdPeriph_Driver/src/stm32f4xx_hash_md5.c **** /* Private typedef -----------------------------------------------------------*/
  53:../Libraries/STM32F4xx_StdPeriph_Driver/src/stm32f4xx_hash_md5.c **** /* Private define ------------------------------------------------------------*/
  54:../Libraries/STM32F4xx_StdPeriph_Driver/src/stm32f4xx_hash_md5.c **** #define MD5BUSY_TIMEOUT    ((uint32_t) 0x00010000)
  55:../Libraries/STM32F4xx_StdPeriph_Driver/src/stm32f4xx_hash_md5.c **** 
  56:../Libraries/STM32F4xx_StdPeriph_Driver/src/stm32f4xx_hash_md5.c **** /* Private macro -------------------------------------------------------------*/
  57:../Libraries/STM32F4xx_StdPeriph_Driver/src/stm32f4xx_hash_md5.c **** /* Private variables ---------------------------------------------------------*/
  58:../Libraries/STM32F4xx_StdPeriph_Driver/src/stm32f4xx_hash_md5.c **** /* Private function prototypes -----------------------------------------------*/
  59:../Libraries/STM32F4xx_StdPeriph_Driver/src/stm32f4xx_hash_md5.c **** /* Private functions ---------------------------------------------------------*/
  60:../Libraries/STM32F4xx_StdPeriph_Driver/src/stm32f4xx_hash_md5.c **** 
  61:../Libraries/STM32F4xx_StdPeriph_Driver/src/stm32f4xx_hash_md5.c **** /** @defgroup HASH_Private_Functions
  62:../Libraries/STM32F4xx_StdPeriph_Driver/src/stm32f4xx_hash_md5.c ****   * @{
  63:../Libraries/STM32F4xx_StdPeriph_Driver/src/stm32f4xx_hash_md5.c ****   */ 
  64:../Libraries/STM32F4xx_StdPeriph_Driver/src/stm32f4xx_hash_md5.c **** 
  65:../Libraries/STM32F4xx_StdPeriph_Driver/src/stm32f4xx_hash_md5.c **** /** @defgroup HASH_Group7 High Level MD5 functions
  66:../Libraries/STM32F4xx_StdPeriph_Driver/src/stm32f4xx_hash_md5.c ****  *  @brief   High Level MD5 Hash and HMAC functions 
  67:../Libraries/STM32F4xx_StdPeriph_Driver/src/stm32f4xx_hash_md5.c ****  *
  68:../Libraries/STM32F4xx_StdPeriph_Driver/src/stm32f4xx_hash_md5.c **** @verbatim   
  69:../Libraries/STM32F4xx_StdPeriph_Driver/src/stm32f4xx_hash_md5.c ****  ===============================================================================
ARM GAS  C:\Users\admin\AppData\Local\Temp\ccNoXWf1.s 			page 4


  70:../Libraries/STM32F4xx_StdPeriph_Driver/src/stm32f4xx_hash_md5.c ****                           High Level MD5 Hash and HMAC functions
  71:../Libraries/STM32F4xx_StdPeriph_Driver/src/stm32f4xx_hash_md5.c ****  ===============================================================================
  72:../Libraries/STM32F4xx_StdPeriph_Driver/src/stm32f4xx_hash_md5.c **** 
  73:../Libraries/STM32F4xx_StdPeriph_Driver/src/stm32f4xx_hash_md5.c **** 
  74:../Libraries/STM32F4xx_StdPeriph_Driver/src/stm32f4xx_hash_md5.c **** @endverbatim
  75:../Libraries/STM32F4xx_StdPeriph_Driver/src/stm32f4xx_hash_md5.c ****   * @{
  76:../Libraries/STM32F4xx_StdPeriph_Driver/src/stm32f4xx_hash_md5.c ****   */
  77:../Libraries/STM32F4xx_StdPeriph_Driver/src/stm32f4xx_hash_md5.c **** 
  78:../Libraries/STM32F4xx_StdPeriph_Driver/src/stm32f4xx_hash_md5.c **** /**
  79:../Libraries/STM32F4xx_StdPeriph_Driver/src/stm32f4xx_hash_md5.c ****   * @brief  Compute the HASH MD5 digest.
  80:../Libraries/STM32F4xx_StdPeriph_Driver/src/stm32f4xx_hash_md5.c ****   * @param  Input: pointer to the Input buffer to be treated.
  81:../Libraries/STM32F4xx_StdPeriph_Driver/src/stm32f4xx_hash_md5.c ****   * @param  Ilen: length of the Input buffer.
  82:../Libraries/STM32F4xx_StdPeriph_Driver/src/stm32f4xx_hash_md5.c ****   * @param  Output: the returned digest
  83:../Libraries/STM32F4xx_StdPeriph_Driver/src/stm32f4xx_hash_md5.c ****   * @retval An ErrorStatus enumeration value:
  84:../Libraries/STM32F4xx_StdPeriph_Driver/src/stm32f4xx_hash_md5.c ****   *          - SUCCESS: digest computation done
  85:../Libraries/STM32F4xx_StdPeriph_Driver/src/stm32f4xx_hash_md5.c ****   *          - ERROR: digest computation failed
  86:../Libraries/STM32F4xx_StdPeriph_Driver/src/stm32f4xx_hash_md5.c ****   */
  87:../Libraries/STM32F4xx_StdPeriph_Driver/src/stm32f4xx_hash_md5.c **** ErrorStatus HASH_MD5(uint8_t *Input, uint32_t Ilen, uint8_t Output[16])
  88:../Libraries/STM32F4xx_StdPeriph_Driver/src/stm32f4xx_hash_md5.c **** {
 103              		.loc 1 88 1 view -0
 104              		.cfi_startproc
 105              		@ args = 0, pretend = 0, frame = 48
 106              		@ frame_needed = 0, uses_anonymous_args = 0
 107              		.loc 1 88 1 is_stmt 0 view .LVU1
 108 0000 F0B5     		push	{r4, r5, r6, r7, lr}	@
 109              		.cfi_def_cfa_offset 20
 110              		.cfi_offset 4, -20
 111              		.cfi_offset 5, -16
 112              		.cfi_offset 6, -12
 113              		.cfi_offset 7, -8
 114              		.cfi_offset 14, -4
 115              	@ ../Libraries/STM32F4xx_StdPeriph_Driver/src/stm32f4xx_hash_md5.c:101:   nbvalidbitsdata = 8 * (Il
  89:../Libraries/STM32F4xx_StdPeriph_Driver/src/stm32f4xx_hash_md5.c ****   HASH_InitTypeDef MD5_HASH_InitStructure;
  90:../Libraries/STM32F4xx_StdPeriph_Driver/src/stm32f4xx_hash_md5.c ****   HASH_MsgDigest MD5_MessageDigest;
  91:../Libraries/STM32F4xx_StdPeriph_Driver/src/stm32f4xx_hash_md5.c ****   __IO uint16_t nbvalidbitsdata = 0;
  92:../Libraries/STM32F4xx_StdPeriph_Driver/src/stm32f4xx_hash_md5.c ****   uint32_t i = 0;
  93:../Libraries/STM32F4xx_StdPeriph_Driver/src/stm32f4xx_hash_md5.c ****   __IO uint32_t counter = 0;
  94:../Libraries/STM32F4xx_StdPeriph_Driver/src/stm32f4xx_hash_md5.c ****   uint32_t busystatus = 0;
  95:../Libraries/STM32F4xx_StdPeriph_Driver/src/stm32f4xx_hash_md5.c ****   ErrorStatus status = SUCCESS;
  96:../Libraries/STM32F4xx_StdPeriph_Driver/src/stm32f4xx_hash_md5.c ****   uint32_t inputaddr  = (uint32_t)Input;
  97:../Libraries/STM32F4xx_StdPeriph_Driver/src/stm32f4xx_hash_md5.c ****   uint32_t outputaddr = (uint32_t)Output;
  98:../Libraries/STM32F4xx_StdPeriph_Driver/src/stm32f4xx_hash_md5.c **** 
  99:../Libraries/STM32F4xx_StdPeriph_Driver/src/stm32f4xx_hash_md5.c **** 
 100:../Libraries/STM32F4xx_StdPeriph_Driver/src/stm32f4xx_hash_md5.c ****   /* Number of valid bits in last word of the Input data */
 101:../Libraries/STM32F4xx_StdPeriph_Driver/src/stm32f4xx_hash_md5.c ****   nbvalidbitsdata = 8 * (Ilen % 4);
 116              		.loc 1 101 19 view .LVU2
 117 0002 01F00303 		and	r3, r1, #3	@ tmp149, Ilen,
  89:../Libraries/STM32F4xx_StdPeriph_Driver/src/stm32f4xx_hash_md5.c ****   HASH_InitTypeDef MD5_HASH_InitStructure;
 118              		.loc 1 89 3 is_stmt 1 view .LVU3
  90:../Libraries/STM32F4xx_StdPeriph_Driver/src/stm32f4xx_hash_md5.c ****   __IO uint16_t nbvalidbitsdata = 0;
 119              		.loc 1 90 3 view .LVU4
  91:../Libraries/STM32F4xx_StdPeriph_Driver/src/stm32f4xx_hash_md5.c ****   uint32_t i = 0;
 120              		.loc 1 91 3 view .LVU5
 121              	@ ../Libraries/STM32F4xx_StdPeriph_Driver/src/stm32f4xx_hash_md5.c:88: {
  88:../Libraries/STM32F4xx_StdPeriph_Driver/src/stm32f4xx_hash_md5.c ****   HASH_InitTypeDef MD5_HASH_InitStructure;
 122              		.loc 1 88 1 is_stmt 0 view .LVU6
 123 0006 8DB0     		sub	sp, sp, #52	@,,
ARM GAS  C:\Users\admin\AppData\Local\Temp\ccNoXWf1.s 			page 5


 124              		.cfi_def_cfa_offset 72
 125              	@ ../Libraries/STM32F4xx_StdPeriph_Driver/src/stm32f4xx_hash_md5.c:101:   nbvalidbitsdata = 8 * (Il
 126              		.loc 1 101 19 view .LVU7
 127 0008 DB00     		lsls	r3, r3, #3	@ _3, tmp149,
 128              	@ ../Libraries/STM32F4xx_StdPeriph_Driver/src/stm32f4xx_hash_md5.c:91:   __IO uint16_t nbvalidbitsd
  91:../Libraries/STM32F4xx_StdPeriph_Driver/src/stm32f4xx_hash_md5.c ****   uint32_t i = 0;
 129              		.loc 1 91 17 view .LVU8
 130 000a 0024     		movs	r4, #0	@ tmp146,
 131              	@ ../Libraries/STM32F4xx_StdPeriph_Driver/src/stm32f4xx_hash_md5.c:88: {
  88:../Libraries/STM32F4xx_StdPeriph_Driver/src/stm32f4xx_hash_md5.c ****   HASH_InitTypeDef MD5_HASH_InitStructure;
 132              		.loc 1 88 1 view .LVU9
 133 000c 0F46     		mov	r7, r1	@ Ilen, tmp172
 134              	@ ../Libraries/STM32F4xx_StdPeriph_Driver/src/stm32f4xx_hash_md5.c:91:   __IO uint16_t nbvalidbitsd
  91:../Libraries/STM32F4xx_StdPeriph_Driver/src/stm32f4xx_hash_md5.c ****   uint32_t i = 0;
 135              		.loc 1 91 17 view .LVU10
 136 000e ADF80240 		strh	r4, [sp, #2]	@ movhi	@ tmp146, nbvalidbitsdata
  92:../Libraries/STM32F4xx_StdPeriph_Driver/src/stm32f4xx_hash_md5.c ****   __IO uint32_t counter = 0;
 137              		.loc 1 92 3 is_stmt 1 view .LVU11
 138              	.LVL1:
  93:../Libraries/STM32F4xx_StdPeriph_Driver/src/stm32f4xx_hash_md5.c ****   uint32_t busystatus = 0;
 139              		.loc 1 93 3 view .LVU12
 140              	@ ../Libraries/STM32F4xx_StdPeriph_Driver/src/stm32f4xx_hash_md5.c:88: {
  88:../Libraries/STM32F4xx_StdPeriph_Driver/src/stm32f4xx_hash_md5.c ****   HASH_InitTypeDef MD5_HASH_InitStructure;
 141              		.loc 1 88 1 is_stmt 0 view .LVU13
 142 0012 1646     		mov	r6, r2	@ Output, tmp173
 143              	@ ../Libraries/STM32F4xx_StdPeriph_Driver/src/stm32f4xx_hash_md5.c:93:   __IO uint32_t counter = 0;
  93:../Libraries/STM32F4xx_StdPeriph_Driver/src/stm32f4xx_hash_md5.c ****   uint32_t busystatus = 0;
 144              		.loc 1 93 17 view .LVU14
 145 0014 0194     		str	r4, [sp, #4]	@ tmp146, counter
  94:../Libraries/STM32F4xx_StdPeriph_Driver/src/stm32f4xx_hash_md5.c ****   ErrorStatus status = SUCCESS;
 146              		.loc 1 94 3 is_stmt 1 view .LVU15
 147              	.LVL2:
  95:../Libraries/STM32F4xx_StdPeriph_Driver/src/stm32f4xx_hash_md5.c ****   uint32_t inputaddr  = (uint32_t)Input;
 148              		.loc 1 95 3 view .LVU16
  96:../Libraries/STM32F4xx_StdPeriph_Driver/src/stm32f4xx_hash_md5.c ****   uint32_t outputaddr = (uint32_t)Output;
 149              		.loc 1 96 3 view .LVU17
 150              	@ ../Libraries/STM32F4xx_StdPeriph_Driver/src/stm32f4xx_hash_md5.c:96:   uint32_t inputaddr  = (uin
  96:../Libraries/STM32F4xx_StdPeriph_Driver/src/stm32f4xx_hash_md5.c ****   uint32_t outputaddr = (uint32_t)Output;
 151              		.loc 1 96 12 is_stmt 0 view .LVU18
 152 0016 0546     		mov	r5, r0	@ inputaddr, tmp171
 153              	.LVL3:
  97:../Libraries/STM32F4xx_StdPeriph_Driver/src/stm32f4xx_hash_md5.c **** 
 154              		.loc 1 97 3 is_stmt 1 view .LVU19
 155              		.loc 1 101 3 view .LVU20
 156              	@ ../Libraries/STM32F4xx_StdPeriph_Driver/src/stm32f4xx_hash_md5.c:101:   nbvalidbitsdata = 8 * (Il
 157              		.loc 1 101 19 is_stmt 0 view .LVU21
 158 0018 ADF80230 		strh	r3, [sp, #2]	@ movhi	@ _3, nbvalidbitsdata
 102:../Libraries/STM32F4xx_StdPeriph_Driver/src/stm32f4xx_hash_md5.c **** 
 103:../Libraries/STM32F4xx_StdPeriph_Driver/src/stm32f4xx_hash_md5.c ****   /* HASH peripheral initialization */
 104:../Libraries/STM32F4xx_StdPeriph_Driver/src/stm32f4xx_hash_md5.c ****   HASH_DeInit();
 159              		.loc 1 104 3 is_stmt 1 view .LVU22
 160 001c FFF7FEFF 		bl	HASH_DeInit		@
 161              	.LVL4:
 105:../Libraries/STM32F4xx_StdPeriph_Driver/src/stm32f4xx_hash_md5.c **** 
 106:../Libraries/STM32F4xx_StdPeriph_Driver/src/stm32f4xx_hash_md5.c ****   /* HASH Configuration */
 107:../Libraries/STM32F4xx_StdPeriph_Driver/src/stm32f4xx_hash_md5.c ****   MD5_HASH_InitStructure.HASH_AlgoSelection = HASH_AlgoSelection_MD5;
 162              		.loc 1 107 3 view .LVU23
ARM GAS  C:\Users\admin\AppData\Local\Temp\ccNoXWf1.s 			page 6


 108:../Libraries/STM32F4xx_StdPeriph_Driver/src/stm32f4xx_hash_md5.c ****   MD5_HASH_InitStructure.HASH_AlgoMode = HASH_AlgoMode_HASH;
 163              		.loc 1 108 3 view .LVU24
 164              	@ ../Libraries/STM32F4xx_StdPeriph_Driver/src/stm32f4xx_hash_md5.c:107:   MD5_HASH_InitStructure.HA
 107:../Libraries/STM32F4xx_StdPeriph_Driver/src/stm32f4xx_hash_md5.c ****   MD5_HASH_InitStructure.HASH_AlgoMode = HASH_AlgoMode_HASH;
 165              		.loc 1 107 45 is_stmt 0 view .LVU25
 166 0020 8022     		movs	r2, #128	@ tmp153,
 167 0022 0023     		movs	r3, #0	@,
 168 0024 CDE90223 		strd	r2, [sp, #8]	@ tmp153,,
 109:../Libraries/STM32F4xx_StdPeriph_Driver/src/stm32f4xx_hash_md5.c ****   MD5_HASH_InitStructure.HASH_DataType = HASH_DataType_8b;
 169              		.loc 1 109 3 is_stmt 1 view .LVU26
 170              	@ ../Libraries/STM32F4xx_StdPeriph_Driver/src/stm32f4xx_hash_md5.c:110:   HASH_Init(&MD5_HASH_InitS
 110:../Libraries/STM32F4xx_StdPeriph_Driver/src/stm32f4xx_hash_md5.c ****   HASH_Init(&MD5_HASH_InitStructure);
 171              		.loc 1 110 3 is_stmt 0 view .LVU27
 172 0028 02A8     		add	r0, sp, #8	@,,
 173              	@ ../Libraries/STM32F4xx_StdPeriph_Driver/src/stm32f4xx_hash_md5.c:109:   MD5_HASH_InitStructure.HA
 109:../Libraries/STM32F4xx_StdPeriph_Driver/src/stm32f4xx_hash_md5.c ****   MD5_HASH_InitStructure.HASH_DataType = HASH_DataType_8b;
 174              		.loc 1 109 40 view .LVU28
 175 002a 2023     		movs	r3, #32	@ tmp154,
 176 002c 0493     		str	r3, [sp, #16]	@ tmp154, MD5_HASH_InitStructure.HASH_DataType
 177              		.loc 1 110 3 is_stmt 1 view .LVU29
 178 002e FFF7FEFF 		bl	HASH_Init		@
 179              	.LVL5:
 111:../Libraries/STM32F4xx_StdPeriph_Driver/src/stm32f4xx_hash_md5.c **** 
 112:../Libraries/STM32F4xx_StdPeriph_Driver/src/stm32f4xx_hash_md5.c ****   /* Configure the number of valid bits in last word of the data */
 113:../Libraries/STM32F4xx_StdPeriph_Driver/src/stm32f4xx_hash_md5.c ****   HASH_SetLastWordValidBitsNbr(nbvalidbitsdata);
 180              		.loc 1 113 3 view .LVU30
 181 0032 BDF80200 		ldrh	r0, [sp, #2]	@, nbvalidbitsdata
 182 0036 80B2     		uxth	r0, r0	@, nbvalidbitsdata
 183 0038 FFF7FEFF 		bl	HASH_SetLastWordValidBitsNbr		@
 184              	.LVL6:
 114:../Libraries/STM32F4xx_StdPeriph_Driver/src/stm32f4xx_hash_md5.c **** 
 115:../Libraries/STM32F4xx_StdPeriph_Driver/src/stm32f4xx_hash_md5.c ****   /* Write the Input block in the IN FIFO */
 116:../Libraries/STM32F4xx_StdPeriph_Driver/src/stm32f4xx_hash_md5.c ****   for(i=0; i<Ilen; i+=4)
 185              		.loc 1 116 3 view .LVU31
 186              		.loc 1 116 12 view .LVU32
 187              	@ ../Libraries/STM32F4xx_StdPeriph_Driver/src/stm32f4xx_hash_md5.c:116:   for(i=0; i<Ilen; i+=4)
 188              		.loc 1 116 3 is_stmt 0 view .LVU33
 189 003c 37B1     		cbz	r7, .L2	@ Ilen,
 190              	.LVL7:
 191              	.L3:
 117:../Libraries/STM32F4xx_StdPeriph_Driver/src/stm32f4xx_hash_md5.c ****   {
 118:../Libraries/STM32F4xx_StdPeriph_Driver/src/stm32f4xx_hash_md5.c ****     HASH_DataIn(*(uint32_t*)inputaddr);
 192              		.loc 1 118 5 is_stmt 1 discriminator 3 view .LVU34
 193 003e 55F8040B 		ldr	r0, [r5], #4	@, MEM[base: _35, offset: 0B]
 194              	.LVL8:
 195              	@ ../Libraries/STM32F4xx_StdPeriph_Driver/src/stm32f4xx_hash_md5.c:116:   for(i=0; i<Ilen; i+=4)
 116:../Libraries/STM32F4xx_StdPeriph_Driver/src/stm32f4xx_hash_md5.c ****   {
 196              		.loc 1 116 21 is_stmt 0 discriminator 3 view .LVU35
 197 0042 0434     		adds	r4, r4, #4	@ i, i,
 198              	.LVL9:
 199              	@ ../Libraries/STM32F4xx_StdPeriph_Driver/src/stm32f4xx_hash_md5.c:118:     HASH_DataIn(*(uint32_t*
 200              		.loc 1 118 5 discriminator 3 view .LVU36
 201 0044 FFF7FEFF 		bl	HASH_DataIn		@
 202              	.LVL10:
 119:../Libraries/STM32F4xx_StdPeriph_Driver/src/stm32f4xx_hash_md5.c ****     inputaddr+=4;
 203              		.loc 1 119 5 is_stmt 1 discriminator 3 view .LVU37
 116:../Libraries/STM32F4xx_StdPeriph_Driver/src/stm32f4xx_hash_md5.c ****   {
ARM GAS  C:\Users\admin\AppData\Local\Temp\ccNoXWf1.s 			page 7


 204              		.loc 1 116 20 discriminator 3 view .LVU38
 116:../Libraries/STM32F4xx_StdPeriph_Driver/src/stm32f4xx_hash_md5.c ****   {
 205              		.loc 1 116 12 discriminator 3 view .LVU39
 206              	@ ../Libraries/STM32F4xx_StdPeriph_Driver/src/stm32f4xx_hash_md5.c:116:   for(i=0; i<Ilen; i+=4)
 116:../Libraries/STM32F4xx_StdPeriph_Driver/src/stm32f4xx_hash_md5.c ****   {
 207              		.loc 1 116 3 is_stmt 0 discriminator 3 view .LVU40
 208 0048 A742     		cmp	r7, r4	@ Ilen, i
 209 004a F8D8     		bhi	.L3		@,
 210              	.LVL11:
 211              	.L2:
 120:../Libraries/STM32F4xx_StdPeriph_Driver/src/stm32f4xx_hash_md5.c ****   }
 121:../Libraries/STM32F4xx_StdPeriph_Driver/src/stm32f4xx_hash_md5.c **** 
 122:../Libraries/STM32F4xx_StdPeriph_Driver/src/stm32f4xx_hash_md5.c ****   /* Start the HASH processor */
 123:../Libraries/STM32F4xx_StdPeriph_Driver/src/stm32f4xx_hash_md5.c ****   HASH_StartDigest();
 212              		.loc 1 123 3 is_stmt 1 view .LVU41
 213 004c FFF7FEFF 		bl	HASH_StartDigest		@
 214              	.LVL12:
 215 0050 00E0     		b	.L5		@
 216              	.LVL13:
 217              	.L16:
 218              	@ ../Libraries/STM32F4xx_StdPeriph_Driver/src/stm32f4xx_hash_md5.c:130:   }while ((counter != MD5BU
 124:../Libraries/STM32F4xx_StdPeriph_Driver/src/stm32f4xx_hash_md5.c **** 
 125:../Libraries/STM32F4xx_StdPeriph_Driver/src/stm32f4xx_hash_md5.c ****   /* wait until the Busy flag is RESET */
 126:../Libraries/STM32F4xx_StdPeriph_Driver/src/stm32f4xx_hash_md5.c ****   do
 127:../Libraries/STM32F4xx_StdPeriph_Driver/src/stm32f4xx_hash_md5.c ****   {
 128:../Libraries/STM32F4xx_StdPeriph_Driver/src/stm32f4xx_hash_md5.c ****     busystatus = HASH_GetFlagStatus(HASH_FLAG_BUSY);
 129:../Libraries/STM32F4xx_StdPeriph_Driver/src/stm32f4xx_hash_md5.c ****     counter++;
 130:../Libraries/STM32F4xx_StdPeriph_Driver/src/stm32f4xx_hash_md5.c ****   }while ((counter != MD5BUSY_TIMEOUT) && (busystatus != RESET));
 219              		.loc 1 130 40 is_stmt 0 discriminator 1 view .LVU42
 220 0052 68B1     		cbz	r0, .L6	@ tmp159,
 221              	.LVL14:
 222              	.L5:
 126:../Libraries/STM32F4xx_StdPeriph_Driver/src/stm32f4xx_hash_md5.c ****   {
 223              		.loc 1 126 3 is_stmt 1 discriminator 2 view .LVU43
 128:../Libraries/STM32F4xx_StdPeriph_Driver/src/stm32f4xx_hash_md5.c ****     counter++;
 224              		.loc 1 128 5 discriminator 2 view .LVU44
 225              	@ ../Libraries/STM32F4xx_StdPeriph_Driver/src/stm32f4xx_hash_md5.c:128:     busystatus = HASH_GetFl
 128:../Libraries/STM32F4xx_StdPeriph_Driver/src/stm32f4xx_hash_md5.c ****     counter++;
 226              		.loc 1 128 18 is_stmt 0 discriminator 2 view .LVU45
 227 0054 0820     		movs	r0, #8	@,
 228 0056 FFF7FEFF 		bl	HASH_GetFlagStatus		@
 229              	.LVL15:
 230              	@ ../Libraries/STM32F4xx_StdPeriph_Driver/src/stm32f4xx_hash_md5.c:129:     counter++;
 129:../Libraries/STM32F4xx_StdPeriph_Driver/src/stm32f4xx_hash_md5.c ****   }while ((counter != MD5BUSY_TIMEOUT) && (busystatus != RESET));
 231              		.loc 1 129 12 discriminator 2 view .LVU46
 232 005a 019B     		ldr	r3, [sp, #4]	@ counter.2_8, counter
 233              	.LVL16:
 129:../Libraries/STM32F4xx_StdPeriph_Driver/src/stm32f4xx_hash_md5.c ****   }while ((counter != MD5BUSY_TIMEOUT) && (busystatus != RESET));
 234              		.loc 1 129 5 is_stmt 1 discriminator 2 view .LVU47
 235              	@ ../Libraries/STM32F4xx_StdPeriph_Driver/src/stm32f4xx_hash_md5.c:129:     counter++;
 129:../Libraries/STM32F4xx_StdPeriph_Driver/src/stm32f4xx_hash_md5.c ****   }while ((counter != MD5BUSY_TIMEOUT) && (busystatus != RESET));
 236              		.loc 1 129 12 is_stmt 0 discriminator 2 view .LVU48
 237 005c 0133     		adds	r3, r3, #1	@ _9, counter.2_8,
 238 005e 0193     		str	r3, [sp, #4]	@ _9, counter
 239              		.loc 1 130 10 is_stmt 1 discriminator 2 view .LVU49
 240              	@ ../Libraries/STM32F4xx_StdPeriph_Driver/src/stm32f4xx_hash_md5.c:130:   }while ((counter != MD5BU
 241              		.loc 1 130 20 is_stmt 0 discriminator 2 view .LVU50
ARM GAS  C:\Users\admin\AppData\Local\Temp\ccNoXWf1.s 			page 8


 242 0060 019B     		ldr	r3, [sp, #4]	@ counter.3_10, counter
 243              	@ ../Libraries/STM32F4xx_StdPeriph_Driver/src/stm32f4xx_hash_md5.c:130:   }while ((counter != MD5BU
 244              		.loc 1 130 3 discriminator 2 view .LVU51
 245 0062 B3F5803F 		cmp	r3, #65536	@ counter.3_10,
 246 0066 F4D1     		bne	.L16		@,
 131:../Libraries/STM32F4xx_StdPeriph_Driver/src/stm32f4xx_hash_md5.c **** 
 132:../Libraries/STM32F4xx_StdPeriph_Driver/src/stm32f4xx_hash_md5.c ****   if (busystatus != RESET)
 247              		.loc 1 132 3 is_stmt 1 view .LVU52
 248              	@ ../Libraries/STM32F4xx_StdPeriph_Driver/src/stm32f4xx_hash_md5.c:132:   if (busystatus != RESET)
 249              		.loc 1 132 6 is_stmt 0 view .LVU53
 250 0068 10B1     		cbz	r0, .L6	@ tmp159,
 251              	@ ../Libraries/STM32F4xx_StdPeriph_Driver/src/stm32f4xx_hash_md5.c:134:      status = ERROR;
 133:../Libraries/STM32F4xx_StdPeriph_Driver/src/stm32f4xx_hash_md5.c ****   {
 134:../Libraries/STM32F4xx_StdPeriph_Driver/src/stm32f4xx_hash_md5.c ****      status = ERROR;
 252              		.loc 1 134 13 view .LVU54
 253 006a 0020     		movs	r0, #0	@ <retval>,
 254              	.LVL17:
 135:../Libraries/STM32F4xx_StdPeriph_Driver/src/stm32f4xx_hash_md5.c ****   }
 136:../Libraries/STM32F4xx_StdPeriph_Driver/src/stm32f4xx_hash_md5.c ****   else
 137:../Libraries/STM32F4xx_StdPeriph_Driver/src/stm32f4xx_hash_md5.c ****   {
 138:../Libraries/STM32F4xx_StdPeriph_Driver/src/stm32f4xx_hash_md5.c ****     /* Read the message digest */
 139:../Libraries/STM32F4xx_StdPeriph_Driver/src/stm32f4xx_hash_md5.c ****     HASH_GetDigest(&MD5_MessageDigest);
 140:../Libraries/STM32F4xx_StdPeriph_Driver/src/stm32f4xx_hash_md5.c ****     *(uint32_t*)(outputaddr)  = __REV(MD5_MessageDigest.Data[0]);
 141:../Libraries/STM32F4xx_StdPeriph_Driver/src/stm32f4xx_hash_md5.c ****     outputaddr+=4;
 142:../Libraries/STM32F4xx_StdPeriph_Driver/src/stm32f4xx_hash_md5.c ****     *(uint32_t*)(outputaddr)  = __REV(MD5_MessageDigest.Data[1]);
 143:../Libraries/STM32F4xx_StdPeriph_Driver/src/stm32f4xx_hash_md5.c ****     outputaddr+=4;
 144:../Libraries/STM32F4xx_StdPeriph_Driver/src/stm32f4xx_hash_md5.c ****     *(uint32_t*)(outputaddr)  = __REV(MD5_MessageDigest.Data[2]);
 145:../Libraries/STM32F4xx_StdPeriph_Driver/src/stm32f4xx_hash_md5.c ****     outputaddr+=4;
 146:../Libraries/STM32F4xx_StdPeriph_Driver/src/stm32f4xx_hash_md5.c ****     *(uint32_t*)(outputaddr)  = __REV(MD5_MessageDigest.Data[3]);
 147:../Libraries/STM32F4xx_StdPeriph_Driver/src/stm32f4xx_hash_md5.c ****   }
 148:../Libraries/STM32F4xx_StdPeriph_Driver/src/stm32f4xx_hash_md5.c ****   return status; 
 255              		.loc 1 148 3 is_stmt 1 view .LVU55
 256              	@ ../Libraries/STM32F4xx_StdPeriph_Driver/src/stm32f4xx_hash_md5.c:149: }
 149:../Libraries/STM32F4xx_StdPeriph_Driver/src/stm32f4xx_hash_md5.c **** }
 257              		.loc 1 149 1 is_stmt 0 view .LVU56
 258 006c 0DB0     		add	sp, sp, #52	@,,
 259              		.cfi_remember_state
 260              		.cfi_def_cfa_offset 20
 261              		@ sp needed	@
 262 006e F0BD     		pop	{r4, r5, r6, r7, pc}	@
 263              	.LVL18:
 264              	.L6:
 265              		.cfi_restore_state
 139:../Libraries/STM32F4xx_StdPeriph_Driver/src/stm32f4xx_hash_md5.c ****     *(uint32_t*)(outputaddr)  = __REV(MD5_MessageDigest.Data[0]);
 266              		.loc 1 139 5 is_stmt 1 view .LVU57
 267 0070 07A8     		add	r0, sp, #28	@,,
 268              	.LVL19:
 139:../Libraries/STM32F4xx_StdPeriph_Driver/src/stm32f4xx_hash_md5.c ****     *(uint32_t*)(outputaddr)  = __REV(MD5_MessageDigest.Data[0]);
 269              		.loc 1 139 5 is_stmt 0 view .LVU58
 270 0072 FFF7FEFF 		bl	HASH_GetDigest		@
 271              	.LVL20:
 140:../Libraries/STM32F4xx_StdPeriph_Driver/src/stm32f4xx_hash_md5.c ****     outputaddr+=4;
 272              		.loc 1 140 5 is_stmt 1 view .LVU59
 273              	.LBB18:
 274              	.LBI18:
 275              		.file 2 "../Libraries/CMSIS/Include/core_cmInstr.h"
   1:../Libraries/CMSIS/Include/core_cmInstr.h **** /**************************************************************************//**
ARM GAS  C:\Users\admin\AppData\Local\Temp\ccNoXWf1.s 			page 9


   2:../Libraries/CMSIS/Include/core_cmInstr.h ****  * @file     core_cmInstr.h
   3:../Libraries/CMSIS/Include/core_cmInstr.h ****  * @brief    CMSIS Cortex-M Core Instruction Access Header File
   4:../Libraries/CMSIS/Include/core_cmInstr.h ****  * @version  V2.10
   5:../Libraries/CMSIS/Include/core_cmInstr.h ****  * @date     19. July 2011
   6:../Libraries/CMSIS/Include/core_cmInstr.h ****  *
   7:../Libraries/CMSIS/Include/core_cmInstr.h ****  * @note
   8:../Libraries/CMSIS/Include/core_cmInstr.h ****  * Copyright (C) 2009-2011 ARM Limited. All rights reserved.
   9:../Libraries/CMSIS/Include/core_cmInstr.h ****  *
  10:../Libraries/CMSIS/Include/core_cmInstr.h ****  * @par
  11:../Libraries/CMSIS/Include/core_cmInstr.h ****  * ARM Limited (ARM) is supplying this software for use with Cortex-M 
  12:../Libraries/CMSIS/Include/core_cmInstr.h ****  * processor based microcontrollers.  This file can be freely distributed 
  13:../Libraries/CMSIS/Include/core_cmInstr.h ****  * within development tools that are supporting such ARM based processors. 
  14:../Libraries/CMSIS/Include/core_cmInstr.h ****  *
  15:../Libraries/CMSIS/Include/core_cmInstr.h ****  * @par
  16:../Libraries/CMSIS/Include/core_cmInstr.h ****  * THIS SOFTWARE IS PROVIDED "AS IS".  NO WARRANTIES, WHETHER EXPRESS, IMPLIED
  17:../Libraries/CMSIS/Include/core_cmInstr.h ****  * OR STATUTORY, INCLUDING, BUT NOT LIMITED TO, IMPLIED WARRANTIES OF
  18:../Libraries/CMSIS/Include/core_cmInstr.h ****  * MERCHANTABILITY AND FITNESS FOR A PARTICULAR PURPOSE APPLY TO THIS SOFTWARE.
  19:../Libraries/CMSIS/Include/core_cmInstr.h ****  * ARM SHALL NOT, IN ANY CIRCUMSTANCES, BE LIABLE FOR SPECIAL, INCIDENTAL, OR
  20:../Libraries/CMSIS/Include/core_cmInstr.h ****  * CONSEQUENTIAL DAMAGES, FOR ANY REASON WHATSOEVER.
  21:../Libraries/CMSIS/Include/core_cmInstr.h ****  *
  22:../Libraries/CMSIS/Include/core_cmInstr.h ****  ******************************************************************************/
  23:../Libraries/CMSIS/Include/core_cmInstr.h **** 
  24:../Libraries/CMSIS/Include/core_cmInstr.h **** #ifndef __CORE_CMINSTR_H
  25:../Libraries/CMSIS/Include/core_cmInstr.h **** #define __CORE_CMINSTR_H
  26:../Libraries/CMSIS/Include/core_cmInstr.h **** 
  27:../Libraries/CMSIS/Include/core_cmInstr.h **** 
  28:../Libraries/CMSIS/Include/core_cmInstr.h **** /* ##########################  Core Instruction Access  ######################### */
  29:../Libraries/CMSIS/Include/core_cmInstr.h **** /** \defgroup CMSIS_Core_InstructionInterface CMSIS Core Instruction Interface
  30:../Libraries/CMSIS/Include/core_cmInstr.h ****   Access to dedicated instructions
  31:../Libraries/CMSIS/Include/core_cmInstr.h ****   @{
  32:../Libraries/CMSIS/Include/core_cmInstr.h **** */
  33:../Libraries/CMSIS/Include/core_cmInstr.h **** 
  34:../Libraries/CMSIS/Include/core_cmInstr.h **** #if   defined ( __CC_ARM ) /*------------------RealView Compiler -----------------*/
  35:../Libraries/CMSIS/Include/core_cmInstr.h **** /* ARM armcc specific functions */
  36:../Libraries/CMSIS/Include/core_cmInstr.h **** 
  37:../Libraries/CMSIS/Include/core_cmInstr.h **** #if (__ARMCC_VERSION < 400677)
  38:../Libraries/CMSIS/Include/core_cmInstr.h ****   #error "Please use ARM Compiler Toolchain V4.0.677 or later!"
  39:../Libraries/CMSIS/Include/core_cmInstr.h **** #endif
  40:../Libraries/CMSIS/Include/core_cmInstr.h **** 
  41:../Libraries/CMSIS/Include/core_cmInstr.h **** 
  42:../Libraries/CMSIS/Include/core_cmInstr.h **** /** \brief  No Operation
  43:../Libraries/CMSIS/Include/core_cmInstr.h **** 
  44:../Libraries/CMSIS/Include/core_cmInstr.h ****     No Operation does nothing. This instruction can be used for code alignment purposes.
  45:../Libraries/CMSIS/Include/core_cmInstr.h ****  */
  46:../Libraries/CMSIS/Include/core_cmInstr.h **** #define __NOP                             __nop
  47:../Libraries/CMSIS/Include/core_cmInstr.h **** 
  48:../Libraries/CMSIS/Include/core_cmInstr.h **** 
  49:../Libraries/CMSIS/Include/core_cmInstr.h **** /** \brief  Wait For Interrupt
  50:../Libraries/CMSIS/Include/core_cmInstr.h **** 
  51:../Libraries/CMSIS/Include/core_cmInstr.h ****     Wait For Interrupt is a hint instruction that suspends execution
  52:../Libraries/CMSIS/Include/core_cmInstr.h ****     until one of a number of events occurs.
  53:../Libraries/CMSIS/Include/core_cmInstr.h ****  */
  54:../Libraries/CMSIS/Include/core_cmInstr.h **** #define __WFI                             __wfi
  55:../Libraries/CMSIS/Include/core_cmInstr.h **** 
  56:../Libraries/CMSIS/Include/core_cmInstr.h **** 
  57:../Libraries/CMSIS/Include/core_cmInstr.h **** /** \brief  Wait For Event
  58:../Libraries/CMSIS/Include/core_cmInstr.h **** 
ARM GAS  C:\Users\admin\AppData\Local\Temp\ccNoXWf1.s 			page 10


  59:../Libraries/CMSIS/Include/core_cmInstr.h ****     Wait For Event is a hint instruction that permits the processor to enter
  60:../Libraries/CMSIS/Include/core_cmInstr.h ****     a low-power state until one of a number of events occurs.
  61:../Libraries/CMSIS/Include/core_cmInstr.h ****  */
  62:../Libraries/CMSIS/Include/core_cmInstr.h **** #define __WFE                             __wfe
  63:../Libraries/CMSIS/Include/core_cmInstr.h **** 
  64:../Libraries/CMSIS/Include/core_cmInstr.h **** 
  65:../Libraries/CMSIS/Include/core_cmInstr.h **** /** \brief  Send Event
  66:../Libraries/CMSIS/Include/core_cmInstr.h **** 
  67:../Libraries/CMSIS/Include/core_cmInstr.h ****     Send Event is a hint instruction. It causes an event to be signaled to the CPU.
  68:../Libraries/CMSIS/Include/core_cmInstr.h ****  */
  69:../Libraries/CMSIS/Include/core_cmInstr.h **** #define __SEV                             __sev
  70:../Libraries/CMSIS/Include/core_cmInstr.h **** 
  71:../Libraries/CMSIS/Include/core_cmInstr.h **** 
  72:../Libraries/CMSIS/Include/core_cmInstr.h **** /** \brief  Instruction Synchronization Barrier
  73:../Libraries/CMSIS/Include/core_cmInstr.h **** 
  74:../Libraries/CMSIS/Include/core_cmInstr.h ****     Instruction Synchronization Barrier flushes the pipeline in the processor, 
  75:../Libraries/CMSIS/Include/core_cmInstr.h ****     so that all instructions following the ISB are fetched from cache or 
  76:../Libraries/CMSIS/Include/core_cmInstr.h ****     memory, after the instruction has been completed.
  77:../Libraries/CMSIS/Include/core_cmInstr.h ****  */
  78:../Libraries/CMSIS/Include/core_cmInstr.h **** #define __ISB()                           __isb(0xF)
  79:../Libraries/CMSIS/Include/core_cmInstr.h **** 
  80:../Libraries/CMSIS/Include/core_cmInstr.h **** 
  81:../Libraries/CMSIS/Include/core_cmInstr.h **** /** \brief  Data Synchronization Barrier
  82:../Libraries/CMSIS/Include/core_cmInstr.h **** 
  83:../Libraries/CMSIS/Include/core_cmInstr.h ****     This function acts as a special kind of Data Memory Barrier. 
  84:../Libraries/CMSIS/Include/core_cmInstr.h ****     It completes when all explicit memory accesses before this instruction complete.
  85:../Libraries/CMSIS/Include/core_cmInstr.h ****  */
  86:../Libraries/CMSIS/Include/core_cmInstr.h **** #define __DSB()                           __dsb(0xF)
  87:../Libraries/CMSIS/Include/core_cmInstr.h **** 
  88:../Libraries/CMSIS/Include/core_cmInstr.h **** 
  89:../Libraries/CMSIS/Include/core_cmInstr.h **** /** \brief  Data Memory Barrier
  90:../Libraries/CMSIS/Include/core_cmInstr.h **** 
  91:../Libraries/CMSIS/Include/core_cmInstr.h ****     This function ensures the apparent order of the explicit memory operations before 
  92:../Libraries/CMSIS/Include/core_cmInstr.h ****     and after the instruction, without ensuring their completion.
  93:../Libraries/CMSIS/Include/core_cmInstr.h ****  */
  94:../Libraries/CMSIS/Include/core_cmInstr.h **** #define __DMB()                           __dmb(0xF)
  95:../Libraries/CMSIS/Include/core_cmInstr.h **** 
  96:../Libraries/CMSIS/Include/core_cmInstr.h **** 
  97:../Libraries/CMSIS/Include/core_cmInstr.h **** /** \brief  Reverse byte order (32 bit)
  98:../Libraries/CMSIS/Include/core_cmInstr.h **** 
  99:../Libraries/CMSIS/Include/core_cmInstr.h ****     This function reverses the byte order in integer value.
 100:../Libraries/CMSIS/Include/core_cmInstr.h **** 
 101:../Libraries/CMSIS/Include/core_cmInstr.h ****     \param [in]    value  Value to reverse
 102:../Libraries/CMSIS/Include/core_cmInstr.h ****     \return               Reversed value
 103:../Libraries/CMSIS/Include/core_cmInstr.h ****  */
 104:../Libraries/CMSIS/Include/core_cmInstr.h **** #define __REV                             __rev
 105:../Libraries/CMSIS/Include/core_cmInstr.h **** 
 106:../Libraries/CMSIS/Include/core_cmInstr.h **** 
 107:../Libraries/CMSIS/Include/core_cmInstr.h **** /** \brief  Reverse byte order (16 bit)
 108:../Libraries/CMSIS/Include/core_cmInstr.h **** 
 109:../Libraries/CMSIS/Include/core_cmInstr.h ****     This function reverses the byte order in two unsigned short values.
 110:../Libraries/CMSIS/Include/core_cmInstr.h **** 
 111:../Libraries/CMSIS/Include/core_cmInstr.h ****     \param [in]    value  Value to reverse
 112:../Libraries/CMSIS/Include/core_cmInstr.h ****     \return               Reversed value
 113:../Libraries/CMSIS/Include/core_cmInstr.h ****  */
 114:../Libraries/CMSIS/Include/core_cmInstr.h **** static __INLINE __ASM uint32_t __REV16(uint32_t value)
 115:../Libraries/CMSIS/Include/core_cmInstr.h **** {
ARM GAS  C:\Users\admin\AppData\Local\Temp\ccNoXWf1.s 			page 11


 116:../Libraries/CMSIS/Include/core_cmInstr.h ****   rev16 r0, r0
 117:../Libraries/CMSIS/Include/core_cmInstr.h ****   bx lr
 118:../Libraries/CMSIS/Include/core_cmInstr.h **** }
 119:../Libraries/CMSIS/Include/core_cmInstr.h **** 
 120:../Libraries/CMSIS/Include/core_cmInstr.h **** 
 121:../Libraries/CMSIS/Include/core_cmInstr.h **** /** \brief  Reverse byte order in signed short value
 122:../Libraries/CMSIS/Include/core_cmInstr.h **** 
 123:../Libraries/CMSIS/Include/core_cmInstr.h ****     This function reverses the byte order in a signed short value with sign extension to integer.
 124:../Libraries/CMSIS/Include/core_cmInstr.h **** 
 125:../Libraries/CMSIS/Include/core_cmInstr.h ****     \param [in]    value  Value to reverse
 126:../Libraries/CMSIS/Include/core_cmInstr.h ****     \return               Reversed value
 127:../Libraries/CMSIS/Include/core_cmInstr.h ****  */
 128:../Libraries/CMSIS/Include/core_cmInstr.h **** static __INLINE __ASM int32_t __REVSH(int32_t value)
 129:../Libraries/CMSIS/Include/core_cmInstr.h **** {
 130:../Libraries/CMSIS/Include/core_cmInstr.h ****   revsh r0, r0
 131:../Libraries/CMSIS/Include/core_cmInstr.h ****   bx lr
 132:../Libraries/CMSIS/Include/core_cmInstr.h **** }
 133:../Libraries/CMSIS/Include/core_cmInstr.h **** 
 134:../Libraries/CMSIS/Include/core_cmInstr.h **** 
 135:../Libraries/CMSIS/Include/core_cmInstr.h **** #if       (__CORTEX_M >= 0x03)
 136:../Libraries/CMSIS/Include/core_cmInstr.h **** 
 137:../Libraries/CMSIS/Include/core_cmInstr.h **** /** \brief  Reverse bit order of value
 138:../Libraries/CMSIS/Include/core_cmInstr.h **** 
 139:../Libraries/CMSIS/Include/core_cmInstr.h ****     This function reverses the bit order of the given value.
 140:../Libraries/CMSIS/Include/core_cmInstr.h **** 
 141:../Libraries/CMSIS/Include/core_cmInstr.h ****     \param [in]    value  Value to reverse
 142:../Libraries/CMSIS/Include/core_cmInstr.h ****     \return               Reversed value
 143:../Libraries/CMSIS/Include/core_cmInstr.h ****  */
 144:../Libraries/CMSIS/Include/core_cmInstr.h **** #define __RBIT                            __rbit
 145:../Libraries/CMSIS/Include/core_cmInstr.h **** 
 146:../Libraries/CMSIS/Include/core_cmInstr.h **** 
 147:../Libraries/CMSIS/Include/core_cmInstr.h **** /** \brief  LDR Exclusive (8 bit)
 148:../Libraries/CMSIS/Include/core_cmInstr.h **** 
 149:../Libraries/CMSIS/Include/core_cmInstr.h ****     This function performs a exclusive LDR command for 8 bit value.
 150:../Libraries/CMSIS/Include/core_cmInstr.h **** 
 151:../Libraries/CMSIS/Include/core_cmInstr.h ****     \param [in]    ptr  Pointer to data
 152:../Libraries/CMSIS/Include/core_cmInstr.h ****     \return             value of type uint8_t at (*ptr)
 153:../Libraries/CMSIS/Include/core_cmInstr.h ****  */
 154:../Libraries/CMSIS/Include/core_cmInstr.h **** #define __LDREXB(ptr)                     ((uint8_t ) __ldrex(ptr))
 155:../Libraries/CMSIS/Include/core_cmInstr.h **** 
 156:../Libraries/CMSIS/Include/core_cmInstr.h **** 
 157:../Libraries/CMSIS/Include/core_cmInstr.h **** /** \brief  LDR Exclusive (16 bit)
 158:../Libraries/CMSIS/Include/core_cmInstr.h **** 
 159:../Libraries/CMSIS/Include/core_cmInstr.h ****     This function performs a exclusive LDR command for 16 bit values.
 160:../Libraries/CMSIS/Include/core_cmInstr.h **** 
 161:../Libraries/CMSIS/Include/core_cmInstr.h ****     \param [in]    ptr  Pointer to data
 162:../Libraries/CMSIS/Include/core_cmInstr.h ****     \return        value of type uint16_t at (*ptr)
 163:../Libraries/CMSIS/Include/core_cmInstr.h ****  */
 164:../Libraries/CMSIS/Include/core_cmInstr.h **** #define __LDREXH(ptr)                     ((uint16_t) __ldrex(ptr))
 165:../Libraries/CMSIS/Include/core_cmInstr.h **** 
 166:../Libraries/CMSIS/Include/core_cmInstr.h **** 
 167:../Libraries/CMSIS/Include/core_cmInstr.h **** /** \brief  LDR Exclusive (32 bit)
 168:../Libraries/CMSIS/Include/core_cmInstr.h **** 
 169:../Libraries/CMSIS/Include/core_cmInstr.h ****     This function performs a exclusive LDR command for 32 bit values.
 170:../Libraries/CMSIS/Include/core_cmInstr.h **** 
 171:../Libraries/CMSIS/Include/core_cmInstr.h ****     \param [in]    ptr  Pointer to data
 172:../Libraries/CMSIS/Include/core_cmInstr.h ****     \return        value of type uint32_t at (*ptr)
ARM GAS  C:\Users\admin\AppData\Local\Temp\ccNoXWf1.s 			page 12


 173:../Libraries/CMSIS/Include/core_cmInstr.h ****  */
 174:../Libraries/CMSIS/Include/core_cmInstr.h **** #define __LDREXW(ptr)                     ((uint32_t ) __ldrex(ptr))
 175:../Libraries/CMSIS/Include/core_cmInstr.h **** 
 176:../Libraries/CMSIS/Include/core_cmInstr.h **** 
 177:../Libraries/CMSIS/Include/core_cmInstr.h **** /** \brief  STR Exclusive (8 bit)
 178:../Libraries/CMSIS/Include/core_cmInstr.h **** 
 179:../Libraries/CMSIS/Include/core_cmInstr.h ****     This function performs a exclusive STR command for 8 bit values.
 180:../Libraries/CMSIS/Include/core_cmInstr.h **** 
 181:../Libraries/CMSIS/Include/core_cmInstr.h ****     \param [in]  value  Value to store
 182:../Libraries/CMSIS/Include/core_cmInstr.h ****     \param [in]    ptr  Pointer to location
 183:../Libraries/CMSIS/Include/core_cmInstr.h ****     \return          0  Function succeeded
 184:../Libraries/CMSIS/Include/core_cmInstr.h ****     \return          1  Function failed
 185:../Libraries/CMSIS/Include/core_cmInstr.h ****  */
 186:../Libraries/CMSIS/Include/core_cmInstr.h **** #define __STREXB(value, ptr)              __strex(value, ptr)
 187:../Libraries/CMSIS/Include/core_cmInstr.h **** 
 188:../Libraries/CMSIS/Include/core_cmInstr.h **** 
 189:../Libraries/CMSIS/Include/core_cmInstr.h **** /** \brief  STR Exclusive (16 bit)
 190:../Libraries/CMSIS/Include/core_cmInstr.h **** 
 191:../Libraries/CMSIS/Include/core_cmInstr.h ****     This function performs a exclusive STR command for 16 bit values.
 192:../Libraries/CMSIS/Include/core_cmInstr.h **** 
 193:../Libraries/CMSIS/Include/core_cmInstr.h ****     \param [in]  value  Value to store
 194:../Libraries/CMSIS/Include/core_cmInstr.h ****     \param [in]    ptr  Pointer to location
 195:../Libraries/CMSIS/Include/core_cmInstr.h ****     \return          0  Function succeeded
 196:../Libraries/CMSIS/Include/core_cmInstr.h ****     \return          1  Function failed
 197:../Libraries/CMSIS/Include/core_cmInstr.h ****  */
 198:../Libraries/CMSIS/Include/core_cmInstr.h **** #define __STREXH(value, ptr)              __strex(value, ptr)
 199:../Libraries/CMSIS/Include/core_cmInstr.h **** 
 200:../Libraries/CMSIS/Include/core_cmInstr.h **** 
 201:../Libraries/CMSIS/Include/core_cmInstr.h **** /** \brief  STR Exclusive (32 bit)
 202:../Libraries/CMSIS/Include/core_cmInstr.h **** 
 203:../Libraries/CMSIS/Include/core_cmInstr.h ****     This function performs a exclusive STR command for 32 bit values.
 204:../Libraries/CMSIS/Include/core_cmInstr.h **** 
 205:../Libraries/CMSIS/Include/core_cmInstr.h ****     \param [in]  value  Value to store
 206:../Libraries/CMSIS/Include/core_cmInstr.h ****     \param [in]    ptr  Pointer to location
 207:../Libraries/CMSIS/Include/core_cmInstr.h ****     \return          0  Function succeeded
 208:../Libraries/CMSIS/Include/core_cmInstr.h ****     \return          1  Function failed
 209:../Libraries/CMSIS/Include/core_cmInstr.h ****  */
 210:../Libraries/CMSIS/Include/core_cmInstr.h **** #define __STREXW(value, ptr)              __strex(value, ptr)
 211:../Libraries/CMSIS/Include/core_cmInstr.h **** 
 212:../Libraries/CMSIS/Include/core_cmInstr.h **** 
 213:../Libraries/CMSIS/Include/core_cmInstr.h **** /** \brief  Remove the exclusive lock
 214:../Libraries/CMSIS/Include/core_cmInstr.h **** 
 215:../Libraries/CMSIS/Include/core_cmInstr.h ****     This function removes the exclusive lock which is created by LDREX.
 216:../Libraries/CMSIS/Include/core_cmInstr.h **** 
 217:../Libraries/CMSIS/Include/core_cmInstr.h ****  */
 218:../Libraries/CMSIS/Include/core_cmInstr.h **** #define __CLREX                           __clrex
 219:../Libraries/CMSIS/Include/core_cmInstr.h **** 
 220:../Libraries/CMSIS/Include/core_cmInstr.h **** 
 221:../Libraries/CMSIS/Include/core_cmInstr.h **** /** \brief  Signed Saturate
 222:../Libraries/CMSIS/Include/core_cmInstr.h **** 
 223:../Libraries/CMSIS/Include/core_cmInstr.h ****     This function saturates a signed value.
 224:../Libraries/CMSIS/Include/core_cmInstr.h **** 
 225:../Libraries/CMSIS/Include/core_cmInstr.h ****     \param [in]  value  Value to be saturated
 226:../Libraries/CMSIS/Include/core_cmInstr.h ****     \param [in]    sat  Bit position to saturate to (1..32)
 227:../Libraries/CMSIS/Include/core_cmInstr.h ****     \return             Saturated value
 228:../Libraries/CMSIS/Include/core_cmInstr.h ****  */
 229:../Libraries/CMSIS/Include/core_cmInstr.h **** #define __SSAT                            __ssat
ARM GAS  C:\Users\admin\AppData\Local\Temp\ccNoXWf1.s 			page 13


 230:../Libraries/CMSIS/Include/core_cmInstr.h **** 
 231:../Libraries/CMSIS/Include/core_cmInstr.h **** 
 232:../Libraries/CMSIS/Include/core_cmInstr.h **** /** \brief  Unsigned Saturate
 233:../Libraries/CMSIS/Include/core_cmInstr.h **** 
 234:../Libraries/CMSIS/Include/core_cmInstr.h ****     This function saturates an unsigned value.
 235:../Libraries/CMSIS/Include/core_cmInstr.h **** 
 236:../Libraries/CMSIS/Include/core_cmInstr.h ****     \param [in]  value  Value to be saturated
 237:../Libraries/CMSIS/Include/core_cmInstr.h ****     \param [in]    sat  Bit position to saturate to (0..31)
 238:../Libraries/CMSIS/Include/core_cmInstr.h ****     \return             Saturated value
 239:../Libraries/CMSIS/Include/core_cmInstr.h ****  */
 240:../Libraries/CMSIS/Include/core_cmInstr.h **** #define __USAT                            __usat
 241:../Libraries/CMSIS/Include/core_cmInstr.h **** 
 242:../Libraries/CMSIS/Include/core_cmInstr.h **** 
 243:../Libraries/CMSIS/Include/core_cmInstr.h **** /** \brief  Count leading zeros
 244:../Libraries/CMSIS/Include/core_cmInstr.h **** 
 245:../Libraries/CMSIS/Include/core_cmInstr.h ****     This function counts the number of leading zeros of a data value.
 246:../Libraries/CMSIS/Include/core_cmInstr.h **** 
 247:../Libraries/CMSIS/Include/core_cmInstr.h ****     \param [in]  value  Value to count the leading zeros
 248:../Libraries/CMSIS/Include/core_cmInstr.h ****     \return             number of leading zeros in value
 249:../Libraries/CMSIS/Include/core_cmInstr.h ****  */
 250:../Libraries/CMSIS/Include/core_cmInstr.h **** #define __CLZ                             __clz 
 251:../Libraries/CMSIS/Include/core_cmInstr.h **** 
 252:../Libraries/CMSIS/Include/core_cmInstr.h **** #endif /* (__CORTEX_M >= 0x03) */
 253:../Libraries/CMSIS/Include/core_cmInstr.h **** 
 254:../Libraries/CMSIS/Include/core_cmInstr.h **** 
 255:../Libraries/CMSIS/Include/core_cmInstr.h **** 
 256:../Libraries/CMSIS/Include/core_cmInstr.h **** #elif defined ( __ICCARM__ ) /*------------------ ICC Compiler -------------------*/
 257:../Libraries/CMSIS/Include/core_cmInstr.h **** /* IAR iccarm specific functions */
 258:../Libraries/CMSIS/Include/core_cmInstr.h **** 
 259:../Libraries/CMSIS/Include/core_cmInstr.h **** #include <cmsis_iar.h>
 260:../Libraries/CMSIS/Include/core_cmInstr.h **** 
 261:../Libraries/CMSIS/Include/core_cmInstr.h **** 
 262:../Libraries/CMSIS/Include/core_cmInstr.h **** #elif defined ( __GNUC__ ) /*------------------ GNU Compiler ---------------------*/
 263:../Libraries/CMSIS/Include/core_cmInstr.h **** /* GNU gcc specific functions */
 264:../Libraries/CMSIS/Include/core_cmInstr.h **** 
 265:../Libraries/CMSIS/Include/core_cmInstr.h **** /** \brief  No Operation
 266:../Libraries/CMSIS/Include/core_cmInstr.h **** 
 267:../Libraries/CMSIS/Include/core_cmInstr.h ****     No Operation does nothing. This instruction can be used for code alignment purposes.
 268:../Libraries/CMSIS/Include/core_cmInstr.h ****  */
 269:../Libraries/CMSIS/Include/core_cmInstr.h **** __attribute__( ( always_inline ) ) static __INLINE void __NOP(void)
 270:../Libraries/CMSIS/Include/core_cmInstr.h **** {
 271:../Libraries/CMSIS/Include/core_cmInstr.h ****   __ASM volatile ("nop");
 272:../Libraries/CMSIS/Include/core_cmInstr.h **** }
 273:../Libraries/CMSIS/Include/core_cmInstr.h **** 
 274:../Libraries/CMSIS/Include/core_cmInstr.h **** 
 275:../Libraries/CMSIS/Include/core_cmInstr.h **** /** \brief  Wait For Interrupt
 276:../Libraries/CMSIS/Include/core_cmInstr.h **** 
 277:../Libraries/CMSIS/Include/core_cmInstr.h ****     Wait For Interrupt is a hint instruction that suspends execution
 278:../Libraries/CMSIS/Include/core_cmInstr.h ****     until one of a number of events occurs.
 279:../Libraries/CMSIS/Include/core_cmInstr.h ****  */
 280:../Libraries/CMSIS/Include/core_cmInstr.h **** __attribute__( ( always_inline ) ) static __INLINE void __WFI(void)
 281:../Libraries/CMSIS/Include/core_cmInstr.h **** {
 282:../Libraries/CMSIS/Include/core_cmInstr.h ****   __ASM volatile ("wfi");
 283:../Libraries/CMSIS/Include/core_cmInstr.h **** }
 284:../Libraries/CMSIS/Include/core_cmInstr.h **** 
 285:../Libraries/CMSIS/Include/core_cmInstr.h **** 
 286:../Libraries/CMSIS/Include/core_cmInstr.h **** /** \brief  Wait For Event
ARM GAS  C:\Users\admin\AppData\Local\Temp\ccNoXWf1.s 			page 14


 287:../Libraries/CMSIS/Include/core_cmInstr.h **** 
 288:../Libraries/CMSIS/Include/core_cmInstr.h ****     Wait For Event is a hint instruction that permits the processor to enter
 289:../Libraries/CMSIS/Include/core_cmInstr.h ****     a low-power state until one of a number of events occurs.
 290:../Libraries/CMSIS/Include/core_cmInstr.h ****  */
 291:../Libraries/CMSIS/Include/core_cmInstr.h **** __attribute__( ( always_inline ) ) static __INLINE void __WFE(void)
 292:../Libraries/CMSIS/Include/core_cmInstr.h **** {
 293:../Libraries/CMSIS/Include/core_cmInstr.h ****   __ASM volatile ("wfe");
 294:../Libraries/CMSIS/Include/core_cmInstr.h **** }
 295:../Libraries/CMSIS/Include/core_cmInstr.h **** 
 296:../Libraries/CMSIS/Include/core_cmInstr.h **** 
 297:../Libraries/CMSIS/Include/core_cmInstr.h **** /** \brief  Send Event
 298:../Libraries/CMSIS/Include/core_cmInstr.h **** 
 299:../Libraries/CMSIS/Include/core_cmInstr.h ****     Send Event is a hint instruction. It causes an event to be signaled to the CPU.
 300:../Libraries/CMSIS/Include/core_cmInstr.h ****  */
 301:../Libraries/CMSIS/Include/core_cmInstr.h **** __attribute__( ( always_inline ) ) static __INLINE void __SEV(void)
 302:../Libraries/CMSIS/Include/core_cmInstr.h **** {
 303:../Libraries/CMSIS/Include/core_cmInstr.h ****   __ASM volatile ("sev");
 304:../Libraries/CMSIS/Include/core_cmInstr.h **** }
 305:../Libraries/CMSIS/Include/core_cmInstr.h **** 
 306:../Libraries/CMSIS/Include/core_cmInstr.h **** 
 307:../Libraries/CMSIS/Include/core_cmInstr.h **** /** \brief  Instruction Synchronization Barrier
 308:../Libraries/CMSIS/Include/core_cmInstr.h **** 
 309:../Libraries/CMSIS/Include/core_cmInstr.h ****     Instruction Synchronization Barrier flushes the pipeline in the processor, 
 310:../Libraries/CMSIS/Include/core_cmInstr.h ****     so that all instructions following the ISB are fetched from cache or 
 311:../Libraries/CMSIS/Include/core_cmInstr.h ****     memory, after the instruction has been completed.
 312:../Libraries/CMSIS/Include/core_cmInstr.h ****  */
 313:../Libraries/CMSIS/Include/core_cmInstr.h **** __attribute__( ( always_inline ) ) static __INLINE void __ISB(void)
 314:../Libraries/CMSIS/Include/core_cmInstr.h **** {
 315:../Libraries/CMSIS/Include/core_cmInstr.h ****   __ASM volatile ("isb");
 316:../Libraries/CMSIS/Include/core_cmInstr.h **** }
 317:../Libraries/CMSIS/Include/core_cmInstr.h **** 
 318:../Libraries/CMSIS/Include/core_cmInstr.h **** 
 319:../Libraries/CMSIS/Include/core_cmInstr.h **** /** \brief  Data Synchronization Barrier
 320:../Libraries/CMSIS/Include/core_cmInstr.h **** 
 321:../Libraries/CMSIS/Include/core_cmInstr.h ****     This function acts as a special kind of Data Memory Barrier. 
 322:../Libraries/CMSIS/Include/core_cmInstr.h ****     It completes when all explicit memory accesses before this instruction complete.
 323:../Libraries/CMSIS/Include/core_cmInstr.h ****  */
 324:../Libraries/CMSIS/Include/core_cmInstr.h **** __attribute__( ( always_inline ) ) static __INLINE void __DSB(void)
 325:../Libraries/CMSIS/Include/core_cmInstr.h **** {
 326:../Libraries/CMSIS/Include/core_cmInstr.h ****   __ASM volatile ("dsb");
 327:../Libraries/CMSIS/Include/core_cmInstr.h **** }
 328:../Libraries/CMSIS/Include/core_cmInstr.h **** 
 329:../Libraries/CMSIS/Include/core_cmInstr.h **** 
 330:../Libraries/CMSIS/Include/core_cmInstr.h **** /** \brief  Data Memory Barrier
 331:../Libraries/CMSIS/Include/core_cmInstr.h **** 
 332:../Libraries/CMSIS/Include/core_cmInstr.h ****     This function ensures the apparent order of the explicit memory operations before 
 333:../Libraries/CMSIS/Include/core_cmInstr.h ****     and after the instruction, without ensuring their completion.
 334:../Libraries/CMSIS/Include/core_cmInstr.h ****  */
 335:../Libraries/CMSIS/Include/core_cmInstr.h **** __attribute__( ( always_inline ) ) static __INLINE void __DMB(void)
 336:../Libraries/CMSIS/Include/core_cmInstr.h **** {
 337:../Libraries/CMSIS/Include/core_cmInstr.h ****   __ASM volatile ("dmb");
 338:../Libraries/CMSIS/Include/core_cmInstr.h **** }
 339:../Libraries/CMSIS/Include/core_cmInstr.h **** 
 340:../Libraries/CMSIS/Include/core_cmInstr.h **** 
 341:../Libraries/CMSIS/Include/core_cmInstr.h **** /** \brief  Reverse byte order (32 bit)
 342:../Libraries/CMSIS/Include/core_cmInstr.h **** 
 343:../Libraries/CMSIS/Include/core_cmInstr.h ****     This function reverses the byte order in integer value.
ARM GAS  C:\Users\admin\AppData\Local\Temp\ccNoXWf1.s 			page 15


 344:../Libraries/CMSIS/Include/core_cmInstr.h **** 
 345:../Libraries/CMSIS/Include/core_cmInstr.h ****     \param [in]    value  Value to reverse
 346:../Libraries/CMSIS/Include/core_cmInstr.h ****     \return               Reversed value
 347:../Libraries/CMSIS/Include/core_cmInstr.h ****  */
 348:../Libraries/CMSIS/Include/core_cmInstr.h **** __attribute__( ( always_inline ) ) static __INLINE uint32_t __REV(uint32_t value)
 276              		.loc 2 348 61 view .LVU60
 277              	.LBB19:
 349:../Libraries/CMSIS/Include/core_cmInstr.h **** {
 350:../Libraries/CMSIS/Include/core_cmInstr.h ****   uint32_t result;
 278              		.loc 2 350 3 view .LVU61
 351:../Libraries/CMSIS/Include/core_cmInstr.h ****   
 352:../Libraries/CMSIS/Include/core_cmInstr.h ****   __ASM volatile ("rev %0, %1" : "=r" (result) : "r" (value) );
 279              		.loc 2 352 3 view .LVU62
 280 0076 079B     		ldr	r3, [sp, #28]	@ MD5_MessageDigest.Data[0], MD5_MessageDigest.Data[0]
 281              		.syntax unified
 282              	@ 352 "../Libraries/CMSIS/Include/core_cmInstr.h" 1
 283 0078 1ABA     		rev r2, r3	@ result, MD5_MessageDigest.Data[0]
 284              	@ 0 "" 2
 285              	.LVL21:
 353:../Libraries/CMSIS/Include/core_cmInstr.h ****   return(result);
 286              		.loc 2 353 3 view .LVU63
 287              		.loc 2 353 3 is_stmt 0 view .LVU64
 288              		.thumb
 289              		.syntax unified
 290              	.LBE19:
 291              	.LBE18:
 292              	.LBB20:
 293              	.LBB21:
 294              	@ ../Libraries/CMSIS/Include/core_cmInstr.h:352:   __ASM volatile ("rev %0, %1" : "=r" (result) : "
 352:../Libraries/CMSIS/Include/core_cmInstr.h ****   return(result);
 295              		.loc 2 352 3 view .LVU65
 296 007a 089B     		ldr	r3, [sp, #32]	@ MD5_MessageDigest.Data[1], MD5_MessageDigest.Data[1]
 297              	.LBE21:
 298              	.LBE20:
 299              	@ ../Libraries/STM32F4xx_StdPeriph_Driver/src/stm32f4xx_hash_md5.c:140:     *(uint32_t*)(outputaddr
 140:../Libraries/STM32F4xx_StdPeriph_Driver/src/stm32f4xx_hash_md5.c ****     outputaddr+=4;
 300              		.loc 1 140 31 view .LVU66
 301 007c 3260     		str	r2, [r6]	@ result, MEM[(uint32_t *)Output_29(D)]
 141:../Libraries/STM32F4xx_StdPeriph_Driver/src/stm32f4xx_hash_md5.c ****     *(uint32_t*)(outputaddr)  = __REV(MD5_MessageDigest.Data[1]);
 302              		.loc 1 141 5 is_stmt 1 view .LVU67
 303              	.LVL22:
 142:../Libraries/STM32F4xx_StdPeriph_Driver/src/stm32f4xx_hash_md5.c ****     outputaddr+=4;
 304              		.loc 1 142 5 view .LVU68
 305              	.LBB23:
 306              	.LBI20:
 348:../Libraries/CMSIS/Include/core_cmInstr.h **** {
 307              		.loc 2 348 61 view .LVU69
 308              	.LBB22:
 350:../Libraries/CMSIS/Include/core_cmInstr.h ****   
 309              		.loc 2 350 3 view .LVU70
 352:../Libraries/CMSIS/Include/core_cmInstr.h ****   return(result);
 310              		.loc 2 352 3 view .LVU71
 311              		.syntax unified
 312              	@ 352 "../Libraries/CMSIS/Include/core_cmInstr.h" 1
 313 007e 1BBA     		rev r3, r3	@ result, MD5_MessageDigest.Data[1]
 314              	@ 0 "" 2
 315              	.LVL23:
ARM GAS  C:\Users\admin\AppData\Local\Temp\ccNoXWf1.s 			page 16


 316              		.loc 2 353 3 view .LVU72
 317              		.loc 2 353 3 is_stmt 0 view .LVU73
 318              		.thumb
 319              		.syntax unified
 320              	.LBE22:
 321              	.LBE23:
 322              	.LBB24:
 323              	.LBB25:
 324              	@ ../Libraries/CMSIS/Include/core_cmInstr.h:352:   __ASM volatile ("rev %0, %1" : "=r" (result) : "
 352:../Libraries/CMSIS/Include/core_cmInstr.h ****   return(result);
 325              		.loc 2 352 3 view .LVU74
 326 0080 099A     		ldr	r2, [sp, #36]	@ MD5_MessageDigest.Data[2], MD5_MessageDigest.Data[2]
 327              	.LBE25:
 328              	.LBE24:
 329              	@ ../Libraries/STM32F4xx_StdPeriph_Driver/src/stm32f4xx_hash_md5.c:142:     *(uint32_t*)(outputaddr
 142:../Libraries/STM32F4xx_StdPeriph_Driver/src/stm32f4xx_hash_md5.c ****     outputaddr+=4;
 330              		.loc 1 142 31 view .LVU75
 331 0082 7360     		str	r3, [r6, #4]	@ result, *outputaddr.5_13
 143:../Libraries/STM32F4xx_StdPeriph_Driver/src/stm32f4xx_hash_md5.c ****     *(uint32_t*)(outputaddr)  = __REV(MD5_MessageDigest.Data[2]);
 332              		.loc 1 143 5 is_stmt 1 view .LVU76
 333              	.LVL24:
 144:../Libraries/STM32F4xx_StdPeriph_Driver/src/stm32f4xx_hash_md5.c ****     outputaddr+=4;
 334              		.loc 1 144 5 view .LVU77
 335              	.LBB27:
 336              	.LBI24:
 348:../Libraries/CMSIS/Include/core_cmInstr.h **** {
 337              		.loc 2 348 61 view .LVU78
 338              	.LBB26:
 350:../Libraries/CMSIS/Include/core_cmInstr.h ****   
 339              		.loc 2 350 3 view .LVU79
 352:../Libraries/CMSIS/Include/core_cmInstr.h ****   return(result);
 340              		.loc 2 352 3 view .LVU80
 341              		.syntax unified
 342              	@ 352 "../Libraries/CMSIS/Include/core_cmInstr.h" 1
 343 0084 12BA     		rev r2, r2	@ result, MD5_MessageDigest.Data[2]
 344              	@ 0 "" 2
 345              	.LVL25:
 346              		.loc 2 353 3 view .LVU81
 347              		.loc 2 353 3 is_stmt 0 view .LVU82
 348              		.thumb
 349              		.syntax unified
 350              	.LBE26:
 351              	.LBE27:
 352              	.LBB28:
 353              	.LBB29:
 354              	@ ../Libraries/CMSIS/Include/core_cmInstr.h:352:   __ASM volatile ("rev %0, %1" : "=r" (result) : "
 352:../Libraries/CMSIS/Include/core_cmInstr.h ****   return(result);
 355              		.loc 2 352 3 view .LVU83
 356 0086 0A9B     		ldr	r3, [sp, #40]	@ MD5_MessageDigest.Data[3], MD5_MessageDigest.Data[3]
 357              	.LBE29:
 358              	.LBE28:
 359              	@ ../Libraries/STM32F4xx_StdPeriph_Driver/src/stm32f4xx_hash_md5.c:144:     *(uint32_t*)(outputaddr
 144:../Libraries/STM32F4xx_StdPeriph_Driver/src/stm32f4xx_hash_md5.c ****     outputaddr+=4;
 360              		.loc 1 144 31 view .LVU84
 361 0088 B260     		str	r2, [r6, #8]	@ result, *outputaddr.6_15
 145:../Libraries/STM32F4xx_StdPeriph_Driver/src/stm32f4xx_hash_md5.c ****     *(uint32_t*)(outputaddr)  = __REV(MD5_MessageDigest.Data[3]);
 362              		.loc 1 145 5 is_stmt 1 view .LVU85
ARM GAS  C:\Users\admin\AppData\Local\Temp\ccNoXWf1.s 			page 17


 363              	.LVL26:
 146:../Libraries/STM32F4xx_StdPeriph_Driver/src/stm32f4xx_hash_md5.c ****   }
 364              		.loc 1 146 5 view .LVU86
 365              	.LBB31:
 366              	.LBI28:
 348:../Libraries/CMSIS/Include/core_cmInstr.h **** {
 367              		.loc 2 348 61 view .LVU87
 368              	.LBB30:
 350:../Libraries/CMSIS/Include/core_cmInstr.h ****   
 369              		.loc 2 350 3 view .LVU88
 352:../Libraries/CMSIS/Include/core_cmInstr.h ****   return(result);
 370              		.loc 2 352 3 view .LVU89
 371              		.syntax unified
 372              	@ 352 "../Libraries/CMSIS/Include/core_cmInstr.h" 1
 373 008a 1BBA     		rev r3, r3	@ result, MD5_MessageDigest.Data[3]
 374              	@ 0 "" 2
 375              	.LVL27:
 376              		.loc 2 353 3 view .LVU90
 377              		.loc 2 353 3 is_stmt 0 view .LVU91
 378              		.thumb
 379              		.syntax unified
 380              	.LBE30:
 381              	.LBE31:
 382              	@ ../Libraries/STM32F4xx_StdPeriph_Driver/src/stm32f4xx_hash_md5.c:95:   ErrorStatus status = SUCCE
  95:../Libraries/STM32F4xx_StdPeriph_Driver/src/stm32f4xx_hash_md5.c ****   uint32_t inputaddr  = (uint32_t)Input;
 383              		.loc 1 95 15 view .LVU92
 384 008c 0120     		movs	r0, #1	@ <retval>,
 385              	@ ../Libraries/STM32F4xx_StdPeriph_Driver/src/stm32f4xx_hash_md5.c:146:     *(uint32_t*)(outputaddr
 146:../Libraries/STM32F4xx_StdPeriph_Driver/src/stm32f4xx_hash_md5.c ****   }
 386              		.loc 1 146 31 view .LVU93
 387 008e F360     		str	r3, [r6, #12]	@ result, *outputaddr.7_17
 388              	.LVL28:
 148:../Libraries/STM32F4xx_StdPeriph_Driver/src/stm32f4xx_hash_md5.c **** }
 389              		.loc 1 148 3 is_stmt 1 view .LVU94
 390              	@ ../Libraries/STM32F4xx_StdPeriph_Driver/src/stm32f4xx_hash_md5.c:149: }
 391              		.loc 1 149 1 is_stmt 0 view .LVU95
 392 0090 0DB0     		add	sp, sp, #52	@,,
 393              		.cfi_def_cfa_offset 20
 394              		@ sp needed	@
 395 0092 F0BD     		pop	{r4, r5, r6, r7, pc}	@
 396              		.loc 1 149 1 view .LVU96
 397              		.cfi_endproc
 398              	.LFE110:
 399              		.size	HASH_MD5, .-HASH_MD5
 400              		.section	.text.HMAC_MD5,"ax",%progbits
 401              		.align	1
 402              		.p2align 2,,3
 403              		.global	HMAC_MD5
 404              		.syntax unified
 405              		.thumb
 406              		.thumb_func
 407              		.type	HMAC_MD5, %function
 408              	HMAC_MD5:
 409              	.LVL29:
 410              	.LFB111:
 150:../Libraries/STM32F4xx_StdPeriph_Driver/src/stm32f4xx_hash_md5.c **** 
 151:../Libraries/STM32F4xx_StdPeriph_Driver/src/stm32f4xx_hash_md5.c **** /**
ARM GAS  C:\Users\admin\AppData\Local\Temp\ccNoXWf1.s 			page 18


 152:../Libraries/STM32F4xx_StdPeriph_Driver/src/stm32f4xx_hash_md5.c ****   * @brief  Compute the HMAC MD5 digest.
 153:../Libraries/STM32F4xx_StdPeriph_Driver/src/stm32f4xx_hash_md5.c ****   * @param  Key: pointer to the Key used for HMAC.
 154:../Libraries/STM32F4xx_StdPeriph_Driver/src/stm32f4xx_hash_md5.c ****   * @param  Keylen: length of the Key used for HMAC.
 155:../Libraries/STM32F4xx_StdPeriph_Driver/src/stm32f4xx_hash_md5.c ****   * @param  Input: pointer to the Input buffer to be treated.
 156:../Libraries/STM32F4xx_StdPeriph_Driver/src/stm32f4xx_hash_md5.c ****   * @param  Ilen: length of the Input buffer.
 157:../Libraries/STM32F4xx_StdPeriph_Driver/src/stm32f4xx_hash_md5.c ****   * @param  Output: the returned digest  
 158:../Libraries/STM32F4xx_StdPeriph_Driver/src/stm32f4xx_hash_md5.c ****   * @retval An ErrorStatus enumeration value:
 159:../Libraries/STM32F4xx_StdPeriph_Driver/src/stm32f4xx_hash_md5.c ****   *          - SUCCESS: digest computation done
 160:../Libraries/STM32F4xx_StdPeriph_Driver/src/stm32f4xx_hash_md5.c ****   *          - ERROR: digest computation failed
 161:../Libraries/STM32F4xx_StdPeriph_Driver/src/stm32f4xx_hash_md5.c ****   */
 162:../Libraries/STM32F4xx_StdPeriph_Driver/src/stm32f4xx_hash_md5.c **** ErrorStatus HMAC_MD5(uint8_t *Key, uint32_t Keylen, uint8_t *Input, 
 163:../Libraries/STM32F4xx_StdPeriph_Driver/src/stm32f4xx_hash_md5.c ****                      uint32_t Ilen, uint8_t Output[16])
 164:../Libraries/STM32F4xx_StdPeriph_Driver/src/stm32f4xx_hash_md5.c **** {
 411              		.loc 1 164 1 is_stmt 1 view -0
 412              		.cfi_startproc
 413              		@ args = 4, pretend = 0, frame = 48
 414              		@ frame_needed = 0, uses_anonymous_args = 0
 165:../Libraries/STM32F4xx_StdPeriph_Driver/src/stm32f4xx_hash_md5.c ****   HASH_InitTypeDef MD5_HASH_InitStructure;
 415              		.loc 1 165 3 view .LVU98
 166:../Libraries/STM32F4xx_StdPeriph_Driver/src/stm32f4xx_hash_md5.c ****   HASH_MsgDigest MD5_MessageDigest;
 416              		.loc 1 166 3 view .LVU99
 167:../Libraries/STM32F4xx_StdPeriph_Driver/src/stm32f4xx_hash_md5.c ****   __IO uint16_t nbvalidbitsdata = 0;
 417              		.loc 1 167 3 view .LVU100
 418              	@ ../Libraries/STM32F4xx_StdPeriph_Driver/src/stm32f4xx_hash_md5.c:164: {
 164:../Libraries/STM32F4xx_StdPeriph_Driver/src/stm32f4xx_hash_md5.c ****   HASH_InitTypeDef MD5_HASH_InitStructure;
 419              		.loc 1 164 1 is_stmt 0 view .LVU101
 420 0000 2DE9F043 		push	{r4, r5, r6, r7, r8, r9, lr}	@
 421              		.cfi_def_cfa_offset 28
 422              		.cfi_offset 4, -28
 423              		.cfi_offset 5, -24
 424              		.cfi_offset 6, -20
 425              		.cfi_offset 7, -16
 426              		.cfi_offset 8, -12
 427              		.cfi_offset 9, -8
 428              		.cfi_offset 14, -4
 429 0004 1F46     		mov	r7, r3	@ Ilen, tmp224
 430 0006 8DB0     		sub	sp, sp, #52	@,,
 431              		.cfi_def_cfa_offset 80
 432              	@ ../Libraries/STM32F4xx_StdPeriph_Driver/src/stm32f4xx_hash_md5.c:178:   nbvalidbitsdata = 8 * (Il
 168:../Libraries/STM32F4xx_StdPeriph_Driver/src/stm32f4xx_hash_md5.c ****   __IO uint16_t nbvalidbitskey = 0;
 169:../Libraries/STM32F4xx_StdPeriph_Driver/src/stm32f4xx_hash_md5.c ****   uint32_t i = 0;
 170:../Libraries/STM32F4xx_StdPeriph_Driver/src/stm32f4xx_hash_md5.c ****   __IO uint32_t counter = 0;
 171:../Libraries/STM32F4xx_StdPeriph_Driver/src/stm32f4xx_hash_md5.c ****   uint32_t busystatus = 0;
 172:../Libraries/STM32F4xx_StdPeriph_Driver/src/stm32f4xx_hash_md5.c ****   ErrorStatus status = SUCCESS;
 173:../Libraries/STM32F4xx_StdPeriph_Driver/src/stm32f4xx_hash_md5.c ****   uint32_t keyaddr    = (uint32_t)Key;
 174:../Libraries/STM32F4xx_StdPeriph_Driver/src/stm32f4xx_hash_md5.c ****   uint32_t inputaddr  = (uint32_t)Input;
 175:../Libraries/STM32F4xx_StdPeriph_Driver/src/stm32f4xx_hash_md5.c ****   uint32_t outputaddr = (uint32_t)Output;
 176:../Libraries/STM32F4xx_StdPeriph_Driver/src/stm32f4xx_hash_md5.c **** 
 177:../Libraries/STM32F4xx_StdPeriph_Driver/src/stm32f4xx_hash_md5.c ****   /* Number of valid bits in last word of the Input data */
 178:../Libraries/STM32F4xx_StdPeriph_Driver/src/stm32f4xx_hash_md5.c ****   nbvalidbitsdata = 8 * (Ilen % 4);
 433              		.loc 1 178 19 view .LVU102
 434 0008 03F00303 		and	r3, r3, #3	@ tmp177, Ilen,
 435              	.LVL30:
 436              	@ ../Libraries/STM32F4xx_StdPeriph_Driver/src/stm32f4xx_hash_md5.c:167:   __IO uint16_t nbvalidbits
 167:../Libraries/STM32F4xx_StdPeriph_Driver/src/stm32f4xx_hash_md5.c ****   __IO uint16_t nbvalidbitskey = 0;
 437              		.loc 1 167 17 view .LVU103
 438 000c 0024     		movs	r4, #0	@ tmp172,
ARM GAS  C:\Users\admin\AppData\Local\Temp\ccNoXWf1.s 			page 19


 439              	@ ../Libraries/STM32F4xx_StdPeriph_Driver/src/stm32f4xx_hash_md5.c:178:   nbvalidbitsdata = 8 * (Il
 440              		.loc 1 178 19 view .LVU104
 441 000e DB00     		lsls	r3, r3, #3	@ _3, tmp177,
 442              	@ ../Libraries/STM32F4xx_StdPeriph_Driver/src/stm32f4xx_hash_md5.c:167:   __IO uint16_t nbvalidbits
 167:../Libraries/STM32F4xx_StdPeriph_Driver/src/stm32f4xx_hash_md5.c ****   __IO uint16_t nbvalidbitskey = 0;
 443              		.loc 1 167 17 view .LVU105
 444 0010 ADF80040 		strh	r4, [sp]	@ movhi	@ tmp172, nbvalidbitsdata
 168:../Libraries/STM32F4xx_StdPeriph_Driver/src/stm32f4xx_hash_md5.c ****   __IO uint16_t nbvalidbitskey = 0;
 445              		.loc 1 168 3 is_stmt 1 view .LVU106
 446              	@ ../Libraries/STM32F4xx_StdPeriph_Driver/src/stm32f4xx_hash_md5.c:168:   __IO uint16_t nbvalidbits
 168:../Libraries/STM32F4xx_StdPeriph_Driver/src/stm32f4xx_hash_md5.c ****   __IO uint16_t nbvalidbitskey = 0;
 447              		.loc 1 168 17 is_stmt 0 view .LVU107
 448 0014 ADF80240 		strh	r4, [sp, #2]	@ movhi	@ tmp172, nbvalidbitskey
 169:../Libraries/STM32F4xx_StdPeriph_Driver/src/stm32f4xx_hash_md5.c ****   __IO uint32_t counter = 0;
 449              		.loc 1 169 3 is_stmt 1 view .LVU108
 450              	.LVL31:
 170:../Libraries/STM32F4xx_StdPeriph_Driver/src/stm32f4xx_hash_md5.c ****   uint32_t busystatus = 0;
 451              		.loc 1 170 3 view .LVU109
 452              	@ ../Libraries/STM32F4xx_StdPeriph_Driver/src/stm32f4xx_hash_md5.c:170:   __IO uint32_t counter = 0
 170:../Libraries/STM32F4xx_StdPeriph_Driver/src/stm32f4xx_hash_md5.c ****   uint32_t busystatus = 0;
 453              		.loc 1 170 17 is_stmt 0 view .LVU110
 454 0018 0194     		str	r4, [sp, #4]	@ tmp172, counter
 171:../Libraries/STM32F4xx_StdPeriph_Driver/src/stm32f4xx_hash_md5.c ****   ErrorStatus status = SUCCESS;
 455              		.loc 1 171 3 is_stmt 1 view .LVU111
 456              	.LVL32:
 172:../Libraries/STM32F4xx_StdPeriph_Driver/src/stm32f4xx_hash_md5.c ****   uint32_t keyaddr    = (uint32_t)Key;
 457              		.loc 1 172 3 view .LVU112
 173:../Libraries/STM32F4xx_StdPeriph_Driver/src/stm32f4xx_hash_md5.c ****   uint32_t inputaddr  = (uint32_t)Input;
 458              		.loc 1 173 3 view .LVU113
 459              	@ ../Libraries/STM32F4xx_StdPeriph_Driver/src/stm32f4xx_hash_md5.c:178:   nbvalidbitsdata = 8 * (Il
 460              		.loc 1 178 19 is_stmt 0 view .LVU114
 461 001a ADF80030 		strh	r3, [sp]	@ movhi	@ _3, nbvalidbitsdata
 462              	@ ../Libraries/STM32F4xx_StdPeriph_Driver/src/stm32f4xx_hash_md5.c:181:   nbvalidbitskey = 8 * (Key
 179:../Libraries/STM32F4xx_StdPeriph_Driver/src/stm32f4xx_hash_md5.c **** 
 180:../Libraries/STM32F4xx_StdPeriph_Driver/src/stm32f4xx_hash_md5.c ****   /* Number of valid bits in last word of the Key */
 181:../Libraries/STM32F4xx_StdPeriph_Driver/src/stm32f4xx_hash_md5.c ****   nbvalidbitskey = 8 * (Keylen % 4);
 463              		.loc 1 181 18 view .LVU115
 464 001e 01F00303 		and	r3, r1, #3	@ tmp182, Keylen,
 465 0022 DB00     		lsls	r3, r3, #3	@ _6, tmp182,
 466              	@ ../Libraries/STM32F4xx_StdPeriph_Driver/src/stm32f4xx_hash_md5.c:164: {
 164:../Libraries/STM32F4xx_StdPeriph_Driver/src/stm32f4xx_hash_md5.c ****   HASH_InitTypeDef MD5_HASH_InitStructure;
 467              		.loc 1 164 1 view .LVU116
 468 0024 0D46     		mov	r5, r1	@ Keylen, tmp222
 469 0026 8146     		mov	r9, r0	@ Key, tmp221
 470 0028 1646     		mov	r6, r2	@ Input, tmp223
 471              	@ ../Libraries/STM32F4xx_StdPeriph_Driver/src/stm32f4xx_hash_md5.c:181:   nbvalidbitskey = 8 * (Key
 472              		.loc 1 181 18 view .LVU117
 473 002a ADF80230 		strh	r3, [sp, #2]	@ movhi	@ _6, nbvalidbitskey
 474              	@ ../Libraries/STM32F4xx_StdPeriph_Driver/src/stm32f4xx_hash_md5.c:184:   HASH_DeInit();
 182:../Libraries/STM32F4xx_StdPeriph_Driver/src/stm32f4xx_hash_md5.c ****    
 183:../Libraries/STM32F4xx_StdPeriph_Driver/src/stm32f4xx_hash_md5.c ****   /* HASH peripheral initialization */
 184:../Libraries/STM32F4xx_StdPeriph_Driver/src/stm32f4xx_hash_md5.c ****   HASH_DeInit();
 475              		.loc 1 184 3 view .LVU118
 476 002e FFF7FEFF 		bl	HASH_DeInit		@
 477              	.LVL33:
 478              	@ ../Libraries/STM32F4xx_StdPeriph_Driver/src/stm32f4xx_hash_md5.c:189:   MD5_HASH_InitStructure.HA
 185:../Libraries/STM32F4xx_StdPeriph_Driver/src/stm32f4xx_hash_md5.c **** 
ARM GAS  C:\Users\admin\AppData\Local\Temp\ccNoXWf1.s 			page 20


 186:../Libraries/STM32F4xx_StdPeriph_Driver/src/stm32f4xx_hash_md5.c ****   /* HASH Configuration */
 187:../Libraries/STM32F4xx_StdPeriph_Driver/src/stm32f4xx_hash_md5.c ****   MD5_HASH_InitStructure.HASH_AlgoSelection = HASH_AlgoSelection_MD5;
 188:../Libraries/STM32F4xx_StdPeriph_Driver/src/stm32f4xx_hash_md5.c ****   MD5_HASH_InitStructure.HASH_AlgoMode = HASH_AlgoMode_HMAC;
 189:../Libraries/STM32F4xx_StdPeriph_Driver/src/stm32f4xx_hash_md5.c ****   MD5_HASH_InitStructure.HASH_DataType = HASH_DataType_8b;
 479              		.loc 1 189 40 view .LVU119
 480 0032 2023     		movs	r3, #32	@ tmp187,
 481 0034 0493     		str	r3, [sp, #16]	@ tmp187, MD5_HASH_InitStructure.HASH_DataType
 482              	@ ../Libraries/STM32F4xx_StdPeriph_Driver/src/stm32f4xx_hash_md5.c:187:   MD5_HASH_InitStructure.HA
 187:../Libraries/STM32F4xx_StdPeriph_Driver/src/stm32f4xx_hash_md5.c ****   MD5_HASH_InitStructure.HASH_AlgoMode = HASH_AlgoMode_HMAC;
 483              		.loc 1 187 45 view .LVU120
 484 0036 8022     		movs	r2, #128	@ tmp186,
 485 0038 4023     		movs	r3, #64	@,
 486              	@ ../Libraries/STM32F4xx_StdPeriph_Driver/src/stm32f4xx_hash_md5.c:190:   if(Keylen > 64)
 190:../Libraries/STM32F4xx_StdPeriph_Driver/src/stm32f4xx_hash_md5.c ****   if(Keylen > 64)
 487              		.loc 1 190 5 view .LVU121
 488 003a 402D     		cmp	r5, #64	@ Keylen,
 489              	@ ../Libraries/STM32F4xx_StdPeriph_Driver/src/stm32f4xx_hash_md5.c:187:   MD5_HASH_InitStructure.HA
 187:../Libraries/STM32F4xx_StdPeriph_Driver/src/stm32f4xx_hash_md5.c ****   MD5_HASH_InitStructure.HASH_AlgoMode = HASH_AlgoMode_HMAC;
 490              		.loc 1 187 45 view .LVU122
 491 003c CDE90223 		strd	r2, [sp, #8]	@ tmp186,,
 492              	@ ../Libraries/STM32F4xx_StdPeriph_Driver/src/stm32f4xx_hash_md5.c:173:   uint32_t keyaddr    = (ui
 173:../Libraries/STM32F4xx_StdPeriph_Driver/src/stm32f4xx_hash_md5.c ****   uint32_t inputaddr  = (uint32_t)Input;
 493              		.loc 1 173 12 view .LVU123
 494 0040 C846     		mov	r8, r9	@ keyaddr, Key
 495              	.LVL34:
 174:../Libraries/STM32F4xx_StdPeriph_Driver/src/stm32f4xx_hash_md5.c ****   uint32_t outputaddr = (uint32_t)Output;
 496              		.loc 1 174 3 is_stmt 1 view .LVU124
 175:../Libraries/STM32F4xx_StdPeriph_Driver/src/stm32f4xx_hash_md5.c **** 
 497              		.loc 1 175 3 view .LVU125
 178:../Libraries/STM32F4xx_StdPeriph_Driver/src/stm32f4xx_hash_md5.c **** 
 498              		.loc 1 178 3 view .LVU126
 181:../Libraries/STM32F4xx_StdPeriph_Driver/src/stm32f4xx_hash_md5.c ****    
 499              		.loc 1 181 3 view .LVU127
 184:../Libraries/STM32F4xx_StdPeriph_Driver/src/stm32f4xx_hash_md5.c **** 
 500              		.loc 1 184 3 view .LVU128
 187:../Libraries/STM32F4xx_StdPeriph_Driver/src/stm32f4xx_hash_md5.c ****   MD5_HASH_InitStructure.HASH_AlgoMode = HASH_AlgoMode_HMAC;
 501              		.loc 1 187 3 view .LVU129
 188:../Libraries/STM32F4xx_StdPeriph_Driver/src/stm32f4xx_hash_md5.c ****   MD5_HASH_InitStructure.HASH_DataType = HASH_DataType_8b;
 502              		.loc 1 188 3 view .LVU130
 189:../Libraries/STM32F4xx_StdPeriph_Driver/src/stm32f4xx_hash_md5.c ****   if(Keylen > 64)
 503              		.loc 1 189 3 view .LVU131
 504              		.loc 1 190 3 view .LVU132
 505              	@ ../Libraries/STM32F4xx_StdPeriph_Driver/src/stm32f4xx_hash_md5.c:190:   if(Keylen > 64)
 506              		.loc 1 190 5 is_stmt 0 view .LVU133
 507 0042 24D8     		bhi	.L18		@,
 508              	@ ../Libraries/STM32F4xx_StdPeriph_Driver/src/stm32f4xx_hash_md5.c:200:   HASH_Init(&MD5_HASH_InitS
 191:../Libraries/STM32F4xx_StdPeriph_Driver/src/stm32f4xx_hash_md5.c ****   {
 192:../Libraries/STM32F4xx_StdPeriph_Driver/src/stm32f4xx_hash_md5.c ****     /* HMAC long Key */
 193:../Libraries/STM32F4xx_StdPeriph_Driver/src/stm32f4xx_hash_md5.c ****     MD5_HASH_InitStructure.HASH_HMACKeyType = HASH_HMACKeyType_LongKey;
 194:../Libraries/STM32F4xx_StdPeriph_Driver/src/stm32f4xx_hash_md5.c ****   }
 195:../Libraries/STM32F4xx_StdPeriph_Driver/src/stm32f4xx_hash_md5.c ****   else
 196:../Libraries/STM32F4xx_StdPeriph_Driver/src/stm32f4xx_hash_md5.c ****   {
 197:../Libraries/STM32F4xx_StdPeriph_Driver/src/stm32f4xx_hash_md5.c ****     /* HMAC short Key */
 198:../Libraries/STM32F4xx_StdPeriph_Driver/src/stm32f4xx_hash_md5.c ****     MD5_HASH_InitStructure.HASH_HMACKeyType = HASH_HMACKeyType_ShortKey;
 199:../Libraries/STM32F4xx_StdPeriph_Driver/src/stm32f4xx_hash_md5.c ****   }
 200:../Libraries/STM32F4xx_StdPeriph_Driver/src/stm32f4xx_hash_md5.c ****   HASH_Init(&MD5_HASH_InitStructure);
 509              		.loc 1 200 3 view .LVU134
ARM GAS  C:\Users\admin\AppData\Local\Temp\ccNoXWf1.s 			page 21


 510 0044 02A8     		add	r0, sp, #8	@,,
 511 0046 0594     		str	r4, [sp, #20]	@ tmp172, MD5_HASH_InitStructure.HASH_HMACKeyType
 512              		.loc 1 200 3 is_stmt 1 view .LVU135
 513 0048 FFF7FEFF 		bl	HASH_Init		@
 514              	.LVL35:
 201:../Libraries/STM32F4xx_StdPeriph_Driver/src/stm32f4xx_hash_md5.c **** 
 202:../Libraries/STM32F4xx_StdPeriph_Driver/src/stm32f4xx_hash_md5.c ****   /* Configure the number of valid bits in last word of the Key */
 203:../Libraries/STM32F4xx_StdPeriph_Driver/src/stm32f4xx_hash_md5.c ****   HASH_SetLastWordValidBitsNbr(nbvalidbitskey);
 515              		.loc 1 203 3 view .LVU136
 516 004c BDF80200 		ldrh	r0, [sp, #2]	@, nbvalidbitskey
 517 0050 80B2     		uxth	r0, r0	@, nbvalidbitskey
 518 0052 FFF7FEFF 		bl	HASH_SetLastWordValidBitsNbr		@
 519              	.LVL36:
 204:../Libraries/STM32F4xx_StdPeriph_Driver/src/stm32f4xx_hash_md5.c **** 
 205:../Libraries/STM32F4xx_StdPeriph_Driver/src/stm32f4xx_hash_md5.c ****   /* Write the Key */
 206:../Libraries/STM32F4xx_StdPeriph_Driver/src/stm32f4xx_hash_md5.c ****   for(i=0; i<Keylen; i+=4)
 520              		.loc 1 206 3 view .LVU137
 521              		.loc 1 206 12 view .LVU138
 522              	@ ../Libraries/STM32F4xx_StdPeriph_Driver/src/stm32f4xx_hash_md5.c:206:   for(i=0; i<Keylen; i+=4)
 523              		.loc 1 206 3 is_stmt 0 view .LVU139
 524 0056 3DB1     		cbz	r5, .L19	@ Keylen,
 525              	.L36:
 526              	@ ../Libraries/STM32F4xx_StdPeriph_Driver/src/stm32f4xx_hash_md5.c:164: {
 164:../Libraries/STM32F4xx_StdPeriph_Driver/src/stm32f4xx_hash_md5.c ****   HASH_InitTypeDef MD5_HASH_InitStructure;
 527              		.loc 1 164 1 discriminator 3 view .LVU140
 528 0058 0024     		movs	r4, #0	@ i,
 529              	.LVL37:
 530              	.L20:
 207:../Libraries/STM32F4xx_StdPeriph_Driver/src/stm32f4xx_hash_md5.c ****   {
 208:../Libraries/STM32F4xx_StdPeriph_Driver/src/stm32f4xx_hash_md5.c ****     HASH_DataIn(*(uint32_t*)keyaddr);
 531              		.loc 1 208 5 is_stmt 1 discriminator 3 view .LVU141
 532 005a 59F8040B 		ldr	r0, [r9], #4	@, MEM[base: _36, offset: 0B]
 533              	.LVL38:
 534              	@ ../Libraries/STM32F4xx_StdPeriph_Driver/src/stm32f4xx_hash_md5.c:206:   for(i=0; i<Keylen; i+=4)
 206:../Libraries/STM32F4xx_StdPeriph_Driver/src/stm32f4xx_hash_md5.c ****   {
 535              		.loc 1 206 23 is_stmt 0 discriminator 3 view .LVU142
 536 005e 0434     		adds	r4, r4, #4	@ i, i,
 537              	.LVL39:
 538              	@ ../Libraries/STM32F4xx_StdPeriph_Driver/src/stm32f4xx_hash_md5.c:208:     HASH_DataIn(*(uint32_t*
 539              		.loc 1 208 5 discriminator 3 view .LVU143
 540 0060 FFF7FEFF 		bl	HASH_DataIn		@
 541              	.LVL40:
 209:../Libraries/STM32F4xx_StdPeriph_Driver/src/stm32f4xx_hash_md5.c ****     keyaddr+=4;
 542              		.loc 1 209 5 is_stmt 1 discriminator 3 view .LVU144
 206:../Libraries/STM32F4xx_StdPeriph_Driver/src/stm32f4xx_hash_md5.c ****   {
 543              		.loc 1 206 22 discriminator 3 view .LVU145
 206:../Libraries/STM32F4xx_StdPeriph_Driver/src/stm32f4xx_hash_md5.c ****   {
 544              		.loc 1 206 12 discriminator 3 view .LVU146
 545              	@ ../Libraries/STM32F4xx_StdPeriph_Driver/src/stm32f4xx_hash_md5.c:206:   for(i=0; i<Keylen; i+=4)
 206:../Libraries/STM32F4xx_StdPeriph_Driver/src/stm32f4xx_hash_md5.c ****   {
 546              		.loc 1 206 3 is_stmt 0 discriminator 3 view .LVU147
 547 0064 A542     		cmp	r5, r4	@ Keylen, i
 548 0066 F8D8     		bhi	.L20		@,
 549              	.LVL41:
 550              	.L19:
 210:../Libraries/STM32F4xx_StdPeriph_Driver/src/stm32f4xx_hash_md5.c ****   }
 211:../Libraries/STM32F4xx_StdPeriph_Driver/src/stm32f4xx_hash_md5.c ****   
ARM GAS  C:\Users\admin\AppData\Local\Temp\ccNoXWf1.s 			page 22


 212:../Libraries/STM32F4xx_StdPeriph_Driver/src/stm32f4xx_hash_md5.c ****   /* Start the HASH processor */
 213:../Libraries/STM32F4xx_StdPeriph_Driver/src/stm32f4xx_hash_md5.c ****   HASH_StartDigest();
 551              		.loc 1 213 3 is_stmt 1 view .LVU148
 552 0068 FFF7FEFF 		bl	HASH_StartDigest		@
 553              	.LVL42:
 554 006c 00E0     		b	.L22		@
 555              	.LVL43:
 556              	.L57:
 557              	@ ../Libraries/STM32F4xx_StdPeriph_Driver/src/stm32f4xx_hash_md5.c:220:   }while ((counter != MD5BU
 214:../Libraries/STM32F4xx_StdPeriph_Driver/src/stm32f4xx_hash_md5.c **** 
 215:../Libraries/STM32F4xx_StdPeriph_Driver/src/stm32f4xx_hash_md5.c ****   /* wait until the Busy flag is RESET */
 216:../Libraries/STM32F4xx_StdPeriph_Driver/src/stm32f4xx_hash_md5.c ****   do
 217:../Libraries/STM32F4xx_StdPeriph_Driver/src/stm32f4xx_hash_md5.c ****   {
 218:../Libraries/STM32F4xx_StdPeriph_Driver/src/stm32f4xx_hash_md5.c ****     busystatus = HASH_GetFlagStatus(HASH_FLAG_BUSY);
 219:../Libraries/STM32F4xx_StdPeriph_Driver/src/stm32f4xx_hash_md5.c ****     counter++;
 220:../Libraries/STM32F4xx_StdPeriph_Driver/src/stm32f4xx_hash_md5.c ****   }while ((counter != MD5BUSY_TIMEOUT) && (busystatus != RESET));
 558              		.loc 1 220 40 is_stmt 0 discriminator 1 view .LVU149
 559 006e D0B1     		cbz	r0, .L23	@ tmp193,
 560              	.LVL44:
 561              	.L22:
 216:../Libraries/STM32F4xx_StdPeriph_Driver/src/stm32f4xx_hash_md5.c ****   {
 562              		.loc 1 216 3 is_stmt 1 discriminator 2 view .LVU150
 218:../Libraries/STM32F4xx_StdPeriph_Driver/src/stm32f4xx_hash_md5.c ****     counter++;
 563              		.loc 1 218 5 discriminator 2 view .LVU151
 564              	@ ../Libraries/STM32F4xx_StdPeriph_Driver/src/stm32f4xx_hash_md5.c:218:     busystatus = HASH_GetFl
 218:../Libraries/STM32F4xx_StdPeriph_Driver/src/stm32f4xx_hash_md5.c ****     counter++;
 565              		.loc 1 218 18 is_stmt 0 discriminator 2 view .LVU152
 566 0070 0820     		movs	r0, #8	@,
 567 0072 FFF7FEFF 		bl	HASH_GetFlagStatus		@
 568              	.LVL45:
 569              	@ ../Libraries/STM32F4xx_StdPeriph_Driver/src/stm32f4xx_hash_md5.c:219:     counter++;
 219:../Libraries/STM32F4xx_StdPeriph_Driver/src/stm32f4xx_hash_md5.c ****   }while ((counter != MD5BUSY_TIMEOUT) && (busystatus != RESET));
 570              		.loc 1 219 12 discriminator 2 view .LVU153
 571 0076 019C     		ldr	r4, [sp, #4]	@ counter.10_11, counter
 572              	.LVL46:
 219:../Libraries/STM32F4xx_StdPeriph_Driver/src/stm32f4xx_hash_md5.c ****   }while ((counter != MD5BUSY_TIMEOUT) && (busystatus != RESET));
 573              		.loc 1 219 5 is_stmt 1 discriminator 2 view .LVU154
 574              	@ ../Libraries/STM32F4xx_StdPeriph_Driver/src/stm32f4xx_hash_md5.c:219:     counter++;
 219:../Libraries/STM32F4xx_StdPeriph_Driver/src/stm32f4xx_hash_md5.c ****   }while ((counter != MD5BUSY_TIMEOUT) && (busystatus != RESET));
 575              		.loc 1 219 12 is_stmt 0 discriminator 2 view .LVU155
 576 0078 0134     		adds	r4, r4, #1	@ _12, counter.10_11,
 577 007a 0194     		str	r4, [sp, #4]	@ _12, counter
 578              		.loc 1 220 10 is_stmt 1 discriminator 2 view .LVU156
 579              	@ ../Libraries/STM32F4xx_StdPeriph_Driver/src/stm32f4xx_hash_md5.c:220:   }while ((counter != MD5BU
 580              		.loc 1 220 20 is_stmt 0 discriminator 2 view .LVU157
 581 007c 019B     		ldr	r3, [sp, #4]	@ counter.11_13, counter
 582              	@ ../Libraries/STM32F4xx_StdPeriph_Driver/src/stm32f4xx_hash_md5.c:220:   }while ((counter != MD5BU
 583              		.loc 1 220 3 discriminator 2 view .LVU158
 584 007e B3F5803F 		cmp	r3, #65536	@ counter.11_13,
 585 0082 F4D1     		bne	.L57		@,
 221:../Libraries/STM32F4xx_StdPeriph_Driver/src/stm32f4xx_hash_md5.c **** 
 222:../Libraries/STM32F4xx_StdPeriph_Driver/src/stm32f4xx_hash_md5.c ****   if (busystatus != RESET)
 586              		.loc 1 222 3 is_stmt 1 view .LVU159
 587              	@ ../Libraries/STM32F4xx_StdPeriph_Driver/src/stm32f4xx_hash_md5.c:222:   if (busystatus != RESET)
 588              		.loc 1 222 6 is_stmt 0 view .LVU160
 589 0084 78B1     		cbz	r0, .L23	@ tmp193,
 590              	.LVL47:
ARM GAS  C:\Users\admin\AppData\Local\Temp\ccNoXWf1.s 			page 23


 591              	.L30:
 592              	@ ../Libraries/STM32F4xx_StdPeriph_Driver/src/stm32f4xx_hash_md5.c:224:      status = ERROR;
 223:../Libraries/STM32F4xx_StdPeriph_Driver/src/stm32f4xx_hash_md5.c ****   {
 224:../Libraries/STM32F4xx_StdPeriph_Driver/src/stm32f4xx_hash_md5.c ****      status = ERROR;
 593              		.loc 1 224 13 view .LVU161
 594 0086 0020     		movs	r0, #0	@ <retval>,
 595              	.LVL48:
 596              	.L55:
 597              	@ ../Libraries/STM32F4xx_StdPeriph_Driver/src/stm32f4xx_hash_md5.c:296: }
 225:../Libraries/STM32F4xx_StdPeriph_Driver/src/stm32f4xx_hash_md5.c ****   }
 226:../Libraries/STM32F4xx_StdPeriph_Driver/src/stm32f4xx_hash_md5.c ****   else
 227:../Libraries/STM32F4xx_StdPeriph_Driver/src/stm32f4xx_hash_md5.c ****   {
 228:../Libraries/STM32F4xx_StdPeriph_Driver/src/stm32f4xx_hash_md5.c ****     /* Configure the number of valid bits in last word of the Input data */
 229:../Libraries/STM32F4xx_StdPeriph_Driver/src/stm32f4xx_hash_md5.c ****     HASH_SetLastWordValidBitsNbr(nbvalidbitsdata);
 230:../Libraries/STM32F4xx_StdPeriph_Driver/src/stm32f4xx_hash_md5.c **** 
 231:../Libraries/STM32F4xx_StdPeriph_Driver/src/stm32f4xx_hash_md5.c ****     /* Write the Input block in the IN FIFO */
 232:../Libraries/STM32F4xx_StdPeriph_Driver/src/stm32f4xx_hash_md5.c ****     for(i=0; i<Ilen; i+=4)
 233:../Libraries/STM32F4xx_StdPeriph_Driver/src/stm32f4xx_hash_md5.c ****     {
 234:../Libraries/STM32F4xx_StdPeriph_Driver/src/stm32f4xx_hash_md5.c ****       HASH_DataIn(*(uint32_t*)inputaddr);
 235:../Libraries/STM32F4xx_StdPeriph_Driver/src/stm32f4xx_hash_md5.c ****       inputaddr+=4;
 236:../Libraries/STM32F4xx_StdPeriph_Driver/src/stm32f4xx_hash_md5.c ****     }
 237:../Libraries/STM32F4xx_StdPeriph_Driver/src/stm32f4xx_hash_md5.c **** 
 238:../Libraries/STM32F4xx_StdPeriph_Driver/src/stm32f4xx_hash_md5.c ****     /* Start the HASH processor */
 239:../Libraries/STM32F4xx_StdPeriph_Driver/src/stm32f4xx_hash_md5.c ****     HASH_StartDigest();
 240:../Libraries/STM32F4xx_StdPeriph_Driver/src/stm32f4xx_hash_md5.c **** 
 241:../Libraries/STM32F4xx_StdPeriph_Driver/src/stm32f4xx_hash_md5.c ****     /* wait until the Busy flag is RESET */
 242:../Libraries/STM32F4xx_StdPeriph_Driver/src/stm32f4xx_hash_md5.c ****     counter =0;
 243:../Libraries/STM32F4xx_StdPeriph_Driver/src/stm32f4xx_hash_md5.c ****     do
 244:../Libraries/STM32F4xx_StdPeriph_Driver/src/stm32f4xx_hash_md5.c ****     {
 245:../Libraries/STM32F4xx_StdPeriph_Driver/src/stm32f4xx_hash_md5.c ****        busystatus = HASH_GetFlagStatus(HASH_FLAG_BUSY);
 246:../Libraries/STM32F4xx_StdPeriph_Driver/src/stm32f4xx_hash_md5.c ****        counter++;
 247:../Libraries/STM32F4xx_StdPeriph_Driver/src/stm32f4xx_hash_md5.c ****     }while ((counter != MD5BUSY_TIMEOUT) && (busystatus != RESET));
 248:../Libraries/STM32F4xx_StdPeriph_Driver/src/stm32f4xx_hash_md5.c **** 
 249:../Libraries/STM32F4xx_StdPeriph_Driver/src/stm32f4xx_hash_md5.c ****     if (busystatus != RESET)
 250:../Libraries/STM32F4xx_StdPeriph_Driver/src/stm32f4xx_hash_md5.c ****     {
 251:../Libraries/STM32F4xx_StdPeriph_Driver/src/stm32f4xx_hash_md5.c ****       status = ERROR;
 252:../Libraries/STM32F4xx_StdPeriph_Driver/src/stm32f4xx_hash_md5.c ****     }
 253:../Libraries/STM32F4xx_StdPeriph_Driver/src/stm32f4xx_hash_md5.c ****     else
 254:../Libraries/STM32F4xx_StdPeriph_Driver/src/stm32f4xx_hash_md5.c ****     {  
 255:../Libraries/STM32F4xx_StdPeriph_Driver/src/stm32f4xx_hash_md5.c ****       /* Configure the number of valid bits in last word of the Key */
 256:../Libraries/STM32F4xx_StdPeriph_Driver/src/stm32f4xx_hash_md5.c ****       HASH_SetLastWordValidBitsNbr(nbvalidbitskey);
 257:../Libraries/STM32F4xx_StdPeriph_Driver/src/stm32f4xx_hash_md5.c **** 
 258:../Libraries/STM32F4xx_StdPeriph_Driver/src/stm32f4xx_hash_md5.c ****       /* Write the Key */
 259:../Libraries/STM32F4xx_StdPeriph_Driver/src/stm32f4xx_hash_md5.c ****       keyaddr = (uint32_t)Key;
 260:../Libraries/STM32F4xx_StdPeriph_Driver/src/stm32f4xx_hash_md5.c ****       for(i=0; i<Keylen; i+=4)
 261:../Libraries/STM32F4xx_StdPeriph_Driver/src/stm32f4xx_hash_md5.c ****       {
 262:../Libraries/STM32F4xx_StdPeriph_Driver/src/stm32f4xx_hash_md5.c ****         HASH_DataIn(*(uint32_t*)keyaddr);
 263:../Libraries/STM32F4xx_StdPeriph_Driver/src/stm32f4xx_hash_md5.c ****         keyaddr+=4;
 264:../Libraries/STM32F4xx_StdPeriph_Driver/src/stm32f4xx_hash_md5.c ****       }
 265:../Libraries/STM32F4xx_StdPeriph_Driver/src/stm32f4xx_hash_md5.c ****   
 266:../Libraries/STM32F4xx_StdPeriph_Driver/src/stm32f4xx_hash_md5.c ****        /* Start the HASH processor */
 267:../Libraries/STM32F4xx_StdPeriph_Driver/src/stm32f4xx_hash_md5.c ****        HASH_StartDigest();
 268:../Libraries/STM32F4xx_StdPeriph_Driver/src/stm32f4xx_hash_md5.c **** 
 269:../Libraries/STM32F4xx_StdPeriph_Driver/src/stm32f4xx_hash_md5.c ****        /* wait until the Busy flag is RESET */
 270:../Libraries/STM32F4xx_StdPeriph_Driver/src/stm32f4xx_hash_md5.c ****        counter =0;
 271:../Libraries/STM32F4xx_StdPeriph_Driver/src/stm32f4xx_hash_md5.c ****        do
 272:../Libraries/STM32F4xx_StdPeriph_Driver/src/stm32f4xx_hash_md5.c ****        {
ARM GAS  C:\Users\admin\AppData\Local\Temp\ccNoXWf1.s 			page 24


 273:../Libraries/STM32F4xx_StdPeriph_Driver/src/stm32f4xx_hash_md5.c ****           busystatus = HASH_GetFlagStatus(HASH_FLAG_BUSY);
 274:../Libraries/STM32F4xx_StdPeriph_Driver/src/stm32f4xx_hash_md5.c ****           counter++;
 275:../Libraries/STM32F4xx_StdPeriph_Driver/src/stm32f4xx_hash_md5.c ****       }while ((counter != MD5BUSY_TIMEOUT) && (busystatus != RESET));
 276:../Libraries/STM32F4xx_StdPeriph_Driver/src/stm32f4xx_hash_md5.c **** 
 277:../Libraries/STM32F4xx_StdPeriph_Driver/src/stm32f4xx_hash_md5.c ****       if (busystatus != RESET)
 278:../Libraries/STM32F4xx_StdPeriph_Driver/src/stm32f4xx_hash_md5.c ****       {
 279:../Libraries/STM32F4xx_StdPeriph_Driver/src/stm32f4xx_hash_md5.c ****          status = ERROR;
 280:../Libraries/STM32F4xx_StdPeriph_Driver/src/stm32f4xx_hash_md5.c ****       }
 281:../Libraries/STM32F4xx_StdPeriph_Driver/src/stm32f4xx_hash_md5.c ****       else
 282:../Libraries/STM32F4xx_StdPeriph_Driver/src/stm32f4xx_hash_md5.c ****       {
 283:../Libraries/STM32F4xx_StdPeriph_Driver/src/stm32f4xx_hash_md5.c ****          /* Read the message digest */
 284:../Libraries/STM32F4xx_StdPeriph_Driver/src/stm32f4xx_hash_md5.c ****          HASH_GetDigest(&MD5_MessageDigest);
 285:../Libraries/STM32F4xx_StdPeriph_Driver/src/stm32f4xx_hash_md5.c ****          *(uint32_t*)(outputaddr)  = __REV(MD5_MessageDigest.Data[0]);
 286:../Libraries/STM32F4xx_StdPeriph_Driver/src/stm32f4xx_hash_md5.c ****          outputaddr+=4;
 287:../Libraries/STM32F4xx_StdPeriph_Driver/src/stm32f4xx_hash_md5.c ****          *(uint32_t*)(outputaddr)  = __REV(MD5_MessageDigest.Data[1]);
 288:../Libraries/STM32F4xx_StdPeriph_Driver/src/stm32f4xx_hash_md5.c ****          outputaddr+=4;
 289:../Libraries/STM32F4xx_StdPeriph_Driver/src/stm32f4xx_hash_md5.c ****          *(uint32_t*)(outputaddr)  = __REV(MD5_MessageDigest.Data[2]);
 290:../Libraries/STM32F4xx_StdPeriph_Driver/src/stm32f4xx_hash_md5.c ****          outputaddr+=4;
 291:../Libraries/STM32F4xx_StdPeriph_Driver/src/stm32f4xx_hash_md5.c ****          *(uint32_t*)(outputaddr)  = __REV(MD5_MessageDigest.Data[3]);
 292:../Libraries/STM32F4xx_StdPeriph_Driver/src/stm32f4xx_hash_md5.c ****       }
 293:../Libraries/STM32F4xx_StdPeriph_Driver/src/stm32f4xx_hash_md5.c ****     }
 294:../Libraries/STM32F4xx_StdPeriph_Driver/src/stm32f4xx_hash_md5.c ****   }
 295:../Libraries/STM32F4xx_StdPeriph_Driver/src/stm32f4xx_hash_md5.c ****   return status;  
 296:../Libraries/STM32F4xx_StdPeriph_Driver/src/stm32f4xx_hash_md5.c **** }
 598              		.loc 1 296 1 view .LVU162
 599 0088 0DB0     		add	sp, sp, #52	@,,
 600              		.cfi_remember_state
 601              		.cfi_def_cfa_offset 28
 602              		@ sp needed	@
 603 008a BDE8F083 		pop	{r4, r5, r6, r7, r8, r9, pc}	@
 604              	.LVL49:
 605              	.L18:
 606              		.cfi_restore_state
 607              	@ ../Libraries/STM32F4xx_StdPeriph_Driver/src/stm32f4xx_hash_md5.c:200:   HASH_Init(&MD5_HASH_InitS
 200:../Libraries/STM32F4xx_StdPeriph_Driver/src/stm32f4xx_hash_md5.c **** 
 608              		.loc 1 200 3 view .LVU163
 609 008e 02A8     		add	r0, sp, #8	@,,
 610 0090 4FF48033 		mov	r3, #65536	@ tmp214,
 611 0094 0593     		str	r3, [sp, #20]	@ tmp214, MD5_HASH_InitStructure.HASH_HMACKeyType
 200:../Libraries/STM32F4xx_StdPeriph_Driver/src/stm32f4xx_hash_md5.c **** 
 612              		.loc 1 200 3 is_stmt 1 view .LVU164
 613 0096 FFF7FEFF 		bl	HASH_Init		@
 614              	.LVL50:
 203:../Libraries/STM32F4xx_StdPeriph_Driver/src/stm32f4xx_hash_md5.c **** 
 615              		.loc 1 203 3 view .LVU165
 616 009a BDF80200 		ldrh	r0, [sp, #2]	@, nbvalidbitskey
 617 009e 80B2     		uxth	r0, r0	@, nbvalidbitskey
 618 00a0 FFF7FEFF 		bl	HASH_SetLastWordValidBitsNbr		@
 619              	.LVL51:
 206:../Libraries/STM32F4xx_StdPeriph_Driver/src/stm32f4xx_hash_md5.c ****   {
 620              		.loc 1 206 3 view .LVU166
 206:../Libraries/STM32F4xx_StdPeriph_Driver/src/stm32f4xx_hash_md5.c ****   {
 621              		.loc 1 206 12 view .LVU167
 622 00a4 D8E7     		b	.L36		@
 623              	.LVL52:
 624              	.L23:
 229:../Libraries/STM32F4xx_StdPeriph_Driver/src/stm32f4xx_hash_md5.c **** 
ARM GAS  C:\Users\admin\AppData\Local\Temp\ccNoXWf1.s 			page 25


 625              		.loc 1 229 5 view .LVU168
 626 00a6 BDF80000 		ldrh	r0, [sp]	@, nbvalidbitsdata
 627              	.LVL53:
 229:../Libraries/STM32F4xx_StdPeriph_Driver/src/stm32f4xx_hash_md5.c **** 
 628              		.loc 1 229 5 is_stmt 0 view .LVU169
 629 00aa 80B2     		uxth	r0, r0	@, nbvalidbitsdata
 630 00ac FFF7FEFF 		bl	HASH_SetLastWordValidBitsNbr		@
 631              	.LVL54:
 232:../Libraries/STM32F4xx_StdPeriph_Driver/src/stm32f4xx_hash_md5.c ****     {
 632              		.loc 1 232 5 is_stmt 1 view .LVU170
 232:../Libraries/STM32F4xx_StdPeriph_Driver/src/stm32f4xx_hash_md5.c ****     {
 633              		.loc 1 232 14 view .LVU171
 634              	@ ../Libraries/STM32F4xx_StdPeriph_Driver/src/stm32f4xx_hash_md5.c:232:     for(i=0; i<Ilen; i+=4)
 232:../Libraries/STM32F4xx_StdPeriph_Driver/src/stm32f4xx_hash_md5.c ****     {
 635              		.loc 1 232 5 is_stmt 0 view .LVU172
 636 00b0 3FB1     		cbz	r7, .L25	@ Ilen,
 637              	@ ../Libraries/STM32F4xx_StdPeriph_Driver/src/stm32f4xx_hash_md5.c:232:     for(i=0; i<Ilen; i+=4)
 232:../Libraries/STM32F4xx_StdPeriph_Driver/src/stm32f4xx_hash_md5.c ****     {
 638              		.loc 1 232 10 view .LVU173
 639 00b2 0024     		movs	r4, #0	@ i,
 640              	.LVL55:
 641              	.L26:
 234:../Libraries/STM32F4xx_StdPeriph_Driver/src/stm32f4xx_hash_md5.c ****       inputaddr+=4;
 642              		.loc 1 234 7 is_stmt 1 discriminator 3 view .LVU174
 643 00b4 56F8040B 		ldr	r0, [r6], #4	@, MEM[base: _42, offset: 0B]
 644              	.LVL56:
 645              	@ ../Libraries/STM32F4xx_StdPeriph_Driver/src/stm32f4xx_hash_md5.c:232:     for(i=0; i<Ilen; i+=4)
 232:../Libraries/STM32F4xx_StdPeriph_Driver/src/stm32f4xx_hash_md5.c ****     {
 646              		.loc 1 232 23 is_stmt 0 discriminator 3 view .LVU175
 647 00b8 0434     		adds	r4, r4, #4	@ i, i,
 648              	.LVL57:
 649              	@ ../Libraries/STM32F4xx_StdPeriph_Driver/src/stm32f4xx_hash_md5.c:234:       HASH_DataIn(*(uint32_
 234:../Libraries/STM32F4xx_StdPeriph_Driver/src/stm32f4xx_hash_md5.c ****       inputaddr+=4;
 650              		.loc 1 234 7 discriminator 3 view .LVU176
 651 00ba FFF7FEFF 		bl	HASH_DataIn		@
 652              	.LVL58:
 235:../Libraries/STM32F4xx_StdPeriph_Driver/src/stm32f4xx_hash_md5.c ****     }
 653              		.loc 1 235 7 is_stmt 1 discriminator 3 view .LVU177
 232:../Libraries/STM32F4xx_StdPeriph_Driver/src/stm32f4xx_hash_md5.c ****     {
 654              		.loc 1 232 22 discriminator 3 view .LVU178
 232:../Libraries/STM32F4xx_StdPeriph_Driver/src/stm32f4xx_hash_md5.c ****     {
 655              		.loc 1 232 14 discriminator 3 view .LVU179
 656              	@ ../Libraries/STM32F4xx_StdPeriph_Driver/src/stm32f4xx_hash_md5.c:232:     for(i=0; i<Ilen; i+=4)
 232:../Libraries/STM32F4xx_StdPeriph_Driver/src/stm32f4xx_hash_md5.c ****     {
 657              		.loc 1 232 5 is_stmt 0 discriminator 3 view .LVU180
 658 00be A742     		cmp	r7, r4	@ Ilen, i
 659 00c0 F8D8     		bhi	.L26		@,
 660              	.LVL59:
 661              	.L25:
 239:../Libraries/STM32F4xx_StdPeriph_Driver/src/stm32f4xx_hash_md5.c **** 
 662              		.loc 1 239 5 is_stmt 1 view .LVU181
 663 00c2 FFF7FEFF 		bl	HASH_StartDigest		@
 664              	.LVL60:
 242:../Libraries/STM32F4xx_StdPeriph_Driver/src/stm32f4xx_hash_md5.c ****     do
 665              		.loc 1 242 5 view .LVU182
 666              	@ ../Libraries/STM32F4xx_StdPeriph_Driver/src/stm32f4xx_hash_md5.c:242:     counter =0;
 242:../Libraries/STM32F4xx_StdPeriph_Driver/src/stm32f4xx_hash_md5.c ****     do
ARM GAS  C:\Users\admin\AppData\Local\Temp\ccNoXWf1.s 			page 26


 667              		.loc 1 242 13 is_stmt 0 view .LVU183
 668 00c6 0023     		movs	r3, #0	@ tmp197,
 669 00c8 0193     		str	r3, [sp, #4]	@ tmp197, counter
 670 00ca 00E0     		b	.L28		@
 671              	.LVL61:
 672              	.L58:
 673              	@ ../Libraries/STM32F4xx_StdPeriph_Driver/src/stm32f4xx_hash_md5.c:247:     }while ((counter != MD5
 247:../Libraries/STM32F4xx_StdPeriph_Driver/src/stm32f4xx_hash_md5.c **** 
 674              		.loc 1 247 42 discriminator 1 view .LVU184
 675 00cc 58B1     		cbz	r0, .L29	@ tmp198,
 676              	.LVL62:
 677              	.L28:
 243:../Libraries/STM32F4xx_StdPeriph_Driver/src/stm32f4xx_hash_md5.c ****     {
 678              		.loc 1 243 5 is_stmt 1 discriminator 2 view .LVU185
 245:../Libraries/STM32F4xx_StdPeriph_Driver/src/stm32f4xx_hash_md5.c ****        counter++;
 679              		.loc 1 245 8 discriminator 2 view .LVU186
 680              	@ ../Libraries/STM32F4xx_StdPeriph_Driver/src/stm32f4xx_hash_md5.c:245:        busystatus = HASH_Ge
 245:../Libraries/STM32F4xx_StdPeriph_Driver/src/stm32f4xx_hash_md5.c ****        counter++;
 681              		.loc 1 245 21 is_stmt 0 discriminator 2 view .LVU187
 682 00ce 0820     		movs	r0, #8	@,
 683 00d0 FFF7FEFF 		bl	HASH_GetFlagStatus		@
 684              	.LVL63:
 685              	@ ../Libraries/STM32F4xx_StdPeriph_Driver/src/stm32f4xx_hash_md5.c:246:        counter++;
 246:../Libraries/STM32F4xx_StdPeriph_Driver/src/stm32f4xx_hash_md5.c ****     }while ((counter != MD5BUSY_TIMEOUT) && (busystatus != RESET));
 686              		.loc 1 246 15 discriminator 2 view .LVU188
 687 00d4 019B     		ldr	r3, [sp, #4]	@ counter.14_18, counter
 688              	.LVL64:
 246:../Libraries/STM32F4xx_StdPeriph_Driver/src/stm32f4xx_hash_md5.c ****     }while ((counter != MD5BUSY_TIMEOUT) && (busystatus != RESET));
 689              		.loc 1 246 8 is_stmt 1 discriminator 2 view .LVU189
 690              	@ ../Libraries/STM32F4xx_StdPeriph_Driver/src/stm32f4xx_hash_md5.c:246:        counter++;
 246:../Libraries/STM32F4xx_StdPeriph_Driver/src/stm32f4xx_hash_md5.c ****     }while ((counter != MD5BUSY_TIMEOUT) && (busystatus != RESET));
 691              		.loc 1 246 15 is_stmt 0 discriminator 2 view .LVU190
 692 00d6 0133     		adds	r3, r3, #1	@ _19, counter.14_18,
 693 00d8 0193     		str	r3, [sp, #4]	@ _19, counter
 247:../Libraries/STM32F4xx_StdPeriph_Driver/src/stm32f4xx_hash_md5.c **** 
 694              		.loc 1 247 12 is_stmt 1 discriminator 2 view .LVU191
 695              	@ ../Libraries/STM32F4xx_StdPeriph_Driver/src/stm32f4xx_hash_md5.c:247:     }while ((counter != MD5
 247:../Libraries/STM32F4xx_StdPeriph_Driver/src/stm32f4xx_hash_md5.c **** 
 696              		.loc 1 247 22 is_stmt 0 discriminator 2 view .LVU192
 697 00da 019B     		ldr	r3, [sp, #4]	@ counter.15_20, counter
 698              	@ ../Libraries/STM32F4xx_StdPeriph_Driver/src/stm32f4xx_hash_md5.c:247:     }while ((counter != MD5
 247:../Libraries/STM32F4xx_StdPeriph_Driver/src/stm32f4xx_hash_md5.c **** 
 699              		.loc 1 247 5 discriminator 2 view .LVU193
 700 00dc B3F5803F 		cmp	r3, #65536	@ counter.15_20,
 701 00e0 F4D1     		bne	.L58		@,
 249:../Libraries/STM32F4xx_StdPeriph_Driver/src/stm32f4xx_hash_md5.c ****     {
 702              		.loc 1 249 5 is_stmt 1 view .LVU194
 703              	@ ../Libraries/STM32F4xx_StdPeriph_Driver/src/stm32f4xx_hash_md5.c:249:     if (busystatus != RESET
 249:../Libraries/STM32F4xx_StdPeriph_Driver/src/stm32f4xx_hash_md5.c ****     {
 704              		.loc 1 249 8 is_stmt 0 view .LVU195
 705 00e2 0028     		cmp	r0, #0	@ tmp198
 706 00e4 CFD1     		bne	.L30	@
 707              	.L29:
 256:../Libraries/STM32F4xx_StdPeriph_Driver/src/stm32f4xx_hash_md5.c **** 
 708              		.loc 1 256 7 is_stmt 1 view .LVU196
 709 00e6 BDF80200 		ldrh	r0, [sp, #2]	@, nbvalidbitskey
 710              	.LVL65:
ARM GAS  C:\Users\admin\AppData\Local\Temp\ccNoXWf1.s 			page 27


 256:../Libraries/STM32F4xx_StdPeriph_Driver/src/stm32f4xx_hash_md5.c **** 
 711              		.loc 1 256 7 is_stmt 0 view .LVU197
 712 00ea 80B2     		uxth	r0, r0	@, nbvalidbitskey
 713 00ec FFF7FEFF 		bl	HASH_SetLastWordValidBitsNbr		@
 714              	.LVL66:
 259:../Libraries/STM32F4xx_StdPeriph_Driver/src/stm32f4xx_hash_md5.c ****       for(i=0; i<Keylen; i+=4)
 715              		.loc 1 259 7 is_stmt 1 view .LVU198
 260:../Libraries/STM32F4xx_StdPeriph_Driver/src/stm32f4xx_hash_md5.c ****       {
 716              		.loc 1 260 7 view .LVU199
 260:../Libraries/STM32F4xx_StdPeriph_Driver/src/stm32f4xx_hash_md5.c ****       {
 717              		.loc 1 260 16 view .LVU200
 718              	@ ../Libraries/STM32F4xx_StdPeriph_Driver/src/stm32f4xx_hash_md5.c:260:       for(i=0; i<Keylen; i+
 260:../Libraries/STM32F4xx_StdPeriph_Driver/src/stm32f4xx_hash_md5.c ****       {
 719              		.loc 1 260 7 is_stmt 0 view .LVU201
 720 00f0 3DB1     		cbz	r5, .L31	@ Keylen,
 721              	@ ../Libraries/STM32F4xx_StdPeriph_Driver/src/stm32f4xx_hash_md5.c:260:       for(i=0; i<Keylen; i+
 260:../Libraries/STM32F4xx_StdPeriph_Driver/src/stm32f4xx_hash_md5.c ****       {
 722              		.loc 1 260 12 view .LVU202
 723 00f2 0024     		movs	r4, #0	@ i,
 724              	.LVL67:
 725              	.L32:
 262:../Libraries/STM32F4xx_StdPeriph_Driver/src/stm32f4xx_hash_md5.c ****         keyaddr+=4;
 726              		.loc 1 262 9 is_stmt 1 discriminator 3 view .LVU203
 727 00f4 58F8040B 		ldr	r0, [r8], #4	@, MEM[base: _67, offset: 0B]
 728              	.LVL68:
 729              	@ ../Libraries/STM32F4xx_StdPeriph_Driver/src/stm32f4xx_hash_md5.c:260:       for(i=0; i<Keylen; i+
 260:../Libraries/STM32F4xx_StdPeriph_Driver/src/stm32f4xx_hash_md5.c ****       {
 730              		.loc 1 260 27 is_stmt 0 discriminator 3 view .LVU204
 731 00f8 0434     		adds	r4, r4, #4	@ i, i,
 732              	.LVL69:
 733              	@ ../Libraries/STM32F4xx_StdPeriph_Driver/src/stm32f4xx_hash_md5.c:262:         HASH_DataIn(*(uint3
 262:../Libraries/STM32F4xx_StdPeriph_Driver/src/stm32f4xx_hash_md5.c ****         keyaddr+=4;
 734              		.loc 1 262 9 discriminator 3 view .LVU205
 735 00fa FFF7FEFF 		bl	HASH_DataIn		@
 736              	.LVL70:
 263:../Libraries/STM32F4xx_StdPeriph_Driver/src/stm32f4xx_hash_md5.c ****       }
 737              		.loc 1 263 9 is_stmt 1 discriminator 3 view .LVU206
 260:../Libraries/STM32F4xx_StdPeriph_Driver/src/stm32f4xx_hash_md5.c ****       {
 738              		.loc 1 260 26 discriminator 3 view .LVU207
 260:../Libraries/STM32F4xx_StdPeriph_Driver/src/stm32f4xx_hash_md5.c ****       {
 739              		.loc 1 260 16 discriminator 3 view .LVU208
 740              	@ ../Libraries/STM32F4xx_StdPeriph_Driver/src/stm32f4xx_hash_md5.c:260:       for(i=0; i<Keylen; i+
 260:../Libraries/STM32F4xx_StdPeriph_Driver/src/stm32f4xx_hash_md5.c ****       {
 741              		.loc 1 260 7 is_stmt 0 discriminator 3 view .LVU209
 742 00fe A542     		cmp	r5, r4	@ Keylen, i
 743 0100 F8D8     		bhi	.L32		@,
 744              	.LVL71:
 745              	.L31:
 267:../Libraries/STM32F4xx_StdPeriph_Driver/src/stm32f4xx_hash_md5.c **** 
 746              		.loc 1 267 8 is_stmt 1 view .LVU210
 747 0102 FFF7FEFF 		bl	HASH_StartDigest		@
 748              	.LVL72:
 270:../Libraries/STM32F4xx_StdPeriph_Driver/src/stm32f4xx_hash_md5.c ****        do
 749              		.loc 1 270 8 view .LVU211
 750              	@ ../Libraries/STM32F4xx_StdPeriph_Driver/src/stm32f4xx_hash_md5.c:270:        counter =0;
 270:../Libraries/STM32F4xx_StdPeriph_Driver/src/stm32f4xx_hash_md5.c ****        do
 751              		.loc 1 270 16 is_stmt 0 view .LVU212
ARM GAS  C:\Users\admin\AppData\Local\Temp\ccNoXWf1.s 			page 28


 752 0106 0023     		movs	r3, #0	@ tmp202,
 753 0108 0193     		str	r3, [sp, #4]	@ tmp202, counter
 754 010a 00E0     		b	.L34		@
 755              	.LVL73:
 756              	.L59:
 757              	@ ../Libraries/STM32F4xx_StdPeriph_Driver/src/stm32f4xx_hash_md5.c:275:       }while ((counter != M
 275:../Libraries/STM32F4xx_StdPeriph_Driver/src/stm32f4xx_hash_md5.c **** 
 758              		.loc 1 275 44 discriminator 1 view .LVU213
 759 010c 58B1     		cbz	r0, .L35	@ tmp203,
 760              	.LVL74:
 761              	.L34:
 271:../Libraries/STM32F4xx_StdPeriph_Driver/src/stm32f4xx_hash_md5.c ****        {
 762              		.loc 1 271 8 is_stmt 1 discriminator 2 view .LVU214
 273:../Libraries/STM32F4xx_StdPeriph_Driver/src/stm32f4xx_hash_md5.c ****           counter++;
 763              		.loc 1 273 11 discriminator 2 view .LVU215
 764              	@ ../Libraries/STM32F4xx_StdPeriph_Driver/src/stm32f4xx_hash_md5.c:273:           busystatus = HASH
 273:../Libraries/STM32F4xx_StdPeriph_Driver/src/stm32f4xx_hash_md5.c ****           counter++;
 765              		.loc 1 273 24 is_stmt 0 discriminator 2 view .LVU216
 766 010e 0820     		movs	r0, #8	@,
 767 0110 FFF7FEFF 		bl	HASH_GetFlagStatus		@
 768              	.LVL75:
 769              	@ ../Libraries/STM32F4xx_StdPeriph_Driver/src/stm32f4xx_hash_md5.c:274:           counter++;
 274:../Libraries/STM32F4xx_StdPeriph_Driver/src/stm32f4xx_hash_md5.c ****       }while ((counter != MD5BUSY_TIMEOUT) && (busystatus != RESET));
 770              		.loc 1 274 18 discriminator 2 view .LVU217
 771 0114 019B     		ldr	r3, [sp, #4]	@ counter.18_25, counter
 772              	.LVL76:
 274:../Libraries/STM32F4xx_StdPeriph_Driver/src/stm32f4xx_hash_md5.c ****       }while ((counter != MD5BUSY_TIMEOUT) && (busystatus != RESET));
 773              		.loc 1 274 11 is_stmt 1 discriminator 2 view .LVU218
 774              	@ ../Libraries/STM32F4xx_StdPeriph_Driver/src/stm32f4xx_hash_md5.c:274:           counter++;
 274:../Libraries/STM32F4xx_StdPeriph_Driver/src/stm32f4xx_hash_md5.c ****       }while ((counter != MD5BUSY_TIMEOUT) && (busystatus != RESET));
 775              		.loc 1 274 18 is_stmt 0 discriminator 2 view .LVU219
 776 0116 0133     		adds	r3, r3, #1	@ _26, counter.18_25,
 777 0118 0193     		str	r3, [sp, #4]	@ _26, counter
 275:../Libraries/STM32F4xx_StdPeriph_Driver/src/stm32f4xx_hash_md5.c **** 
 778              		.loc 1 275 14 is_stmt 1 discriminator 2 view .LVU220
 779              	@ ../Libraries/STM32F4xx_StdPeriph_Driver/src/stm32f4xx_hash_md5.c:275:       }while ((counter != M
 275:../Libraries/STM32F4xx_StdPeriph_Driver/src/stm32f4xx_hash_md5.c **** 
 780              		.loc 1 275 24 is_stmt 0 discriminator 2 view .LVU221
 781 011a 019B     		ldr	r3, [sp, #4]	@ counter.19_27, counter
 782              	@ ../Libraries/STM32F4xx_StdPeriph_Driver/src/stm32f4xx_hash_md5.c:275:       }while ((counter != M
 275:../Libraries/STM32F4xx_StdPeriph_Driver/src/stm32f4xx_hash_md5.c **** 
 783              		.loc 1 275 7 discriminator 2 view .LVU222
 784 011c B3F5803F 		cmp	r3, #65536	@ counter.19_27,
 785 0120 F4D1     		bne	.L59		@,
 277:../Libraries/STM32F4xx_StdPeriph_Driver/src/stm32f4xx_hash_md5.c ****       {
 786              		.loc 1 277 7 is_stmt 1 view .LVU223
 787              	@ ../Libraries/STM32F4xx_StdPeriph_Driver/src/stm32f4xx_hash_md5.c:277:       if (busystatus != RES
 277:../Libraries/STM32F4xx_StdPeriph_Driver/src/stm32f4xx_hash_md5.c ****       {
 788              		.loc 1 277 10 is_stmt 0 view .LVU224
 789 0122 0028     		cmp	r0, #0	@ tmp203
 790 0124 AFD1     		bne	.L30	@
 791              	.L35:
 284:../Libraries/STM32F4xx_StdPeriph_Driver/src/stm32f4xx_hash_md5.c ****          *(uint32_t*)(outputaddr)  = __REV(MD5_MessageDigest.Data[0]);
 792              		.loc 1 284 10 is_stmt 1 view .LVU225
 793 0126 07A8     		add	r0, sp, #28	@,,
 794              	.LVL77:
 284:../Libraries/STM32F4xx_StdPeriph_Driver/src/stm32f4xx_hash_md5.c ****          *(uint32_t*)(outputaddr)  = __REV(MD5_MessageDigest.Data[0]);
ARM GAS  C:\Users\admin\AppData\Local\Temp\ccNoXWf1.s 			page 29


 795              		.loc 1 284 10 is_stmt 0 view .LVU226
 796 0128 FFF7FEFF 		bl	HASH_GetDigest		@
 797              	.LVL78:
 285:../Libraries/STM32F4xx_StdPeriph_Driver/src/stm32f4xx_hash_md5.c ****          outputaddr+=4;
 798              		.loc 1 285 10 is_stmt 1 view .LVU227
 799              	.LBB32:
 800              	.LBI32:
 348:../Libraries/CMSIS/Include/core_cmInstr.h **** {
 801              		.loc 2 348 61 view .LVU228
 802              	.LBB33:
 350:../Libraries/CMSIS/Include/core_cmInstr.h ****   
 803              		.loc 2 350 3 view .LVU229
 352:../Libraries/CMSIS/Include/core_cmInstr.h ****   return(result);
 804              		.loc 2 352 3 view .LVU230
 805 012c 079B     		ldr	r3, [sp, #28]	@ MD5_MessageDigest.Data[0], MD5_MessageDigest.Data[0]
 806              		.syntax unified
 807              	@ 352 "../Libraries/CMSIS/Include/core_cmInstr.h" 1
 808 012e 1ABA     		rev r2, r3	@ result, MD5_MessageDigest.Data[0]
 809              	@ 0 "" 2
 810              	.LVL79:
 811              		.loc 2 353 3 view .LVU231
 812              		.loc 2 353 3 is_stmt 0 view .LVU232
 813              		.thumb
 814              		.syntax unified
 815              	.LBE33:
 816              	.LBE32:
 817              	@ ../Libraries/STM32F4xx_StdPeriph_Driver/src/stm32f4xx_hash_md5.c:285:          *(uint32_t*)(outpu
 285:../Libraries/STM32F4xx_StdPeriph_Driver/src/stm32f4xx_hash_md5.c ****          outputaddr+=4;
 818              		.loc 1 285 36 view .LVU233
 819 0130 1499     		ldr	r1, [sp, #80]	@ tmp229, Output
 820              	.LBB34:
 821              	.LBB35:
 822              	@ ../Libraries/CMSIS/Include/core_cmInstr.h:352:   __ASM volatile ("rev %0, %1" : "=r" (result) : "
 352:../Libraries/CMSIS/Include/core_cmInstr.h ****   return(result);
 823              		.loc 2 352 3 view .LVU234
 824 0132 089B     		ldr	r3, [sp, #32]	@ MD5_MessageDigest.Data[1], MD5_MessageDigest.Data[1]
 825              	.LBE35:
 826              	.LBE34:
 827              	@ ../Libraries/STM32F4xx_StdPeriph_Driver/src/stm32f4xx_hash_md5.c:285:          *(uint32_t*)(outpu
 285:../Libraries/STM32F4xx_StdPeriph_Driver/src/stm32f4xx_hash_md5.c ****          outputaddr+=4;
 828              		.loc 1 285 36 view .LVU235
 829 0134 0A60     		str	r2, [r1]	@ result, MEM[(uint32_t *)Output_59(D)]
 286:../Libraries/STM32F4xx_StdPeriph_Driver/src/stm32f4xx_hash_md5.c ****          *(uint32_t*)(outputaddr)  = __REV(MD5_MessageDigest.Data[1]);
 830              		.loc 1 286 10 is_stmt 1 view .LVU236
 831              	.LVL80:
 287:../Libraries/STM32F4xx_StdPeriph_Driver/src/stm32f4xx_hash_md5.c ****          outputaddr+=4;
 832              		.loc 1 287 10 view .LVU237
 833              	.LBB37:
 834              	.LBI34:
 348:../Libraries/CMSIS/Include/core_cmInstr.h **** {
 835              		.loc 2 348 61 view .LVU238
 836              	.LBB36:
 350:../Libraries/CMSIS/Include/core_cmInstr.h ****   
 837              		.loc 2 350 3 view .LVU239
 352:../Libraries/CMSIS/Include/core_cmInstr.h ****   return(result);
 838              		.loc 2 352 3 view .LVU240
 839              		.syntax unified
ARM GAS  C:\Users\admin\AppData\Local\Temp\ccNoXWf1.s 			page 30


 840              	@ 352 "../Libraries/CMSIS/Include/core_cmInstr.h" 1
 841 0136 1BBA     		rev r3, r3	@ result, MD5_MessageDigest.Data[1]
 842              	@ 0 "" 2
 843              	.LVL81:
 844              		.loc 2 353 3 view .LVU241
 845              		.loc 2 353 3 is_stmt 0 view .LVU242
 846              		.thumb
 847              		.syntax unified
 848              	.LBE36:
 849              	.LBE37:
 850              	.LBB38:
 851              	.LBB39:
 852              	@ ../Libraries/CMSIS/Include/core_cmInstr.h:352:   __ASM volatile ("rev %0, %1" : "=r" (result) : "
 352:../Libraries/CMSIS/Include/core_cmInstr.h ****   return(result);
 853              		.loc 2 352 3 view .LVU243
 854 0138 099A     		ldr	r2, [sp, #36]	@ MD5_MessageDigest.Data[2], MD5_MessageDigest.Data[2]
 855              	.LBE39:
 856              	.LBE38:
 857              	@ ../Libraries/STM32F4xx_StdPeriph_Driver/src/stm32f4xx_hash_md5.c:287:          *(uint32_t*)(outpu
 287:../Libraries/STM32F4xx_StdPeriph_Driver/src/stm32f4xx_hash_md5.c ****          outputaddr+=4;
 858              		.loc 1 287 36 view .LVU244
 859 013a 4B60     		str	r3, [r1, #4]	@ result, *outputaddr.21_30
 288:../Libraries/STM32F4xx_StdPeriph_Driver/src/stm32f4xx_hash_md5.c ****          *(uint32_t*)(outputaddr)  = __REV(MD5_MessageDigest.Data[2]);
 860              		.loc 1 288 10 is_stmt 1 view .LVU245
 861              	.LVL82:
 289:../Libraries/STM32F4xx_StdPeriph_Driver/src/stm32f4xx_hash_md5.c ****          outputaddr+=4;
 862              		.loc 1 289 10 view .LVU246
 863              	.LBB41:
 864              	.LBI38:
 348:../Libraries/CMSIS/Include/core_cmInstr.h **** {
 865              		.loc 2 348 61 view .LVU247
 866              	.LBB40:
 350:../Libraries/CMSIS/Include/core_cmInstr.h ****   
 867              		.loc 2 350 3 view .LVU248
 352:../Libraries/CMSIS/Include/core_cmInstr.h ****   return(result);
 868              		.loc 2 352 3 view .LVU249
 869              		.syntax unified
 870              	@ 352 "../Libraries/CMSIS/Include/core_cmInstr.h" 1
 871 013c 12BA     		rev r2, r2	@ result, MD5_MessageDigest.Data[2]
 872              	@ 0 "" 2
 873              	.LVL83:
 874              		.loc 2 353 3 view .LVU250
 875              		.loc 2 353 3 is_stmt 0 view .LVU251
 876              		.thumb
 877              		.syntax unified
 878              	.LBE40:
 879              	.LBE41:
 880              	.LBB42:
 881              	.LBB43:
 882              	@ ../Libraries/CMSIS/Include/core_cmInstr.h:352:   __ASM volatile ("rev %0, %1" : "=r" (result) : "
 352:../Libraries/CMSIS/Include/core_cmInstr.h ****   return(result);
 883              		.loc 2 352 3 view .LVU252
 884 013e 0A9B     		ldr	r3, [sp, #40]	@ MD5_MessageDigest.Data[3], MD5_MessageDigest.Data[3]
 885              	.LBE43:
 886              	.LBE42:
 887              	@ ../Libraries/STM32F4xx_StdPeriph_Driver/src/stm32f4xx_hash_md5.c:289:          *(uint32_t*)(outpu
 289:../Libraries/STM32F4xx_StdPeriph_Driver/src/stm32f4xx_hash_md5.c ****          outputaddr+=4;
ARM GAS  C:\Users\admin\AppData\Local\Temp\ccNoXWf1.s 			page 31


 888              		.loc 1 289 36 view .LVU253
 889 0140 8A60     		str	r2, [r1, #8]	@ result, *outputaddr.22_32
 290:../Libraries/STM32F4xx_StdPeriph_Driver/src/stm32f4xx_hash_md5.c ****          *(uint32_t*)(outputaddr)  = __REV(MD5_MessageDigest.Data[3]);
 890              		.loc 1 290 10 is_stmt 1 view .LVU254
 891              	.LVL84:
 291:../Libraries/STM32F4xx_StdPeriph_Driver/src/stm32f4xx_hash_md5.c ****       }
 892              		.loc 1 291 10 view .LVU255
 893              	.LBB45:
 894              	.LBI42:
 348:../Libraries/CMSIS/Include/core_cmInstr.h **** {
 895              		.loc 2 348 61 view .LVU256
 896              	.LBB44:
 350:../Libraries/CMSIS/Include/core_cmInstr.h ****   
 897              		.loc 2 350 3 view .LVU257
 352:../Libraries/CMSIS/Include/core_cmInstr.h ****   return(result);
 898              		.loc 2 352 3 view .LVU258
 899              		.syntax unified
 900              	@ 352 "../Libraries/CMSIS/Include/core_cmInstr.h" 1
 901 0142 1BBA     		rev r3, r3	@ result, MD5_MessageDigest.Data[3]
 902              	@ 0 "" 2
 903              	.LVL85:
 904              		.loc 2 353 3 view .LVU259
 905              		.loc 2 353 3 is_stmt 0 view .LVU260
 906              		.thumb
 907              		.syntax unified
 908              	.LBE44:
 909              	.LBE45:
 910              	@ ../Libraries/STM32F4xx_StdPeriph_Driver/src/stm32f4xx_hash_md5.c:172:   ErrorStatus status = SUCC
 172:../Libraries/STM32F4xx_StdPeriph_Driver/src/stm32f4xx_hash_md5.c ****   uint32_t keyaddr    = (uint32_t)Key;
 911              		.loc 1 172 15 view .LVU261
 912 0144 0120     		movs	r0, #1	@ <retval>,
 295:../Libraries/STM32F4xx_StdPeriph_Driver/src/stm32f4xx_hash_md5.c **** }
 913              		.loc 1 295 3 is_stmt 1 view .LVU262
 914              	@ ../Libraries/STM32F4xx_StdPeriph_Driver/src/stm32f4xx_hash_md5.c:291:          *(uint32_t*)(outpu
 291:../Libraries/STM32F4xx_StdPeriph_Driver/src/stm32f4xx_hash_md5.c ****       }
 915              		.loc 1 291 36 is_stmt 0 view .LVU263
 916 0146 CB60     		str	r3, [r1, #12]	@ result, *outputaddr.23_34
 917              	@ ../Libraries/STM32F4xx_StdPeriph_Driver/src/stm32f4xx_hash_md5.c:295:   return status;  
 295:../Libraries/STM32F4xx_StdPeriph_Driver/src/stm32f4xx_hash_md5.c **** }
 918              		.loc 1 295 10 view .LVU264
 919 0148 9EE7     		b	.L55		@
 920              		.cfi_endproc
 921              	.LFE111:
 922              		.size	HMAC_MD5, .-HMAC_MD5
 923 014a 00BF     		.text
 924              	.Letext0:
 925              		.file 3 "c:\\program files (x86)\\gnu arm embedded toolchain\\10 2021.10\\arm-none-eabi\\include\\
 926              		.file 4 "c:\\program files (x86)\\gnu arm embedded toolchain\\10 2021.10\\arm-none-eabi\\include\\
 927              		.file 5 "../Libraries/CMSIS/ST/STM32F4xx/Include/stm32f4xx.h"
 928              		.file 6 "../Libraries/STM32F4xx_StdPeriph_Driver/inc/stm32f4xx_hash.h"