ARM GAS  C:\Users\admin\AppData\Local\Temp\ccFXFx3g.s 			page 1


   1              		.cpu cortex-m4
   2              		.arch armv7e-m
   3              		.fpu fpv4-sp-d16
   4              		.eabi_attribute 27, 1	@ Tag_ABI_HardFP_use
   5              		.eabi_attribute 28, 1	@ Tag_ABI_VFP_args
   6              		.eabi_attribute 23, 1	@ Tag_ABI_FP_number_model
   7              		.eabi_attribute 24, 1	@ Tag_ABI_align8_needed
   8              		.eabi_attribute 25, 1	@ Tag_ABI_align8_preserved
   9              		.eabi_attribute 26, 1	@ Tag_ABI_enum_size
  10              		.eabi_attribute 30, 2	@ Tag_ABI_optimization_goals
  11              		.eabi_attribute 34, 1	@ Tag_CPU_unaligned_access
  12              		.eabi_attribute 18, 4	@ Tag_ABI_PCS_wchar_t
  13              		.file	"usb_core.c"
  14              	@ GNU C89 (GNU Arm Embedded Toolchain 10.3-2021.10) version 10.3.1 20210824 (release) (arm-none-eab
  15              	@	compiled by GNU C version 7.3-win32 20180312, GMP version 6.1.0, MPFR version 3.1.4, MPC version 
  16              	
  17              	@ GGC heuristics: --param ggc-min-expand=100 --param ggc-min-heapsize=131072
  18              	@ options passed:  -I . -I . -I ../Utilities/STM32F4-Discovery/
  19              	@ -I ../Libraries/STM32_USB_Device_Library/Class/audio/inc/
  20              	@ -I ../Libraries/STM32_USB_Device_Library/Core/inc/
  21              	@ -I ../Libraries/STM32_USB_OTG_Driver/inc/
  22              	@ -I ../Utilities/STM32F4-Discovery/
  23              	@ -I ../Libraries/STM32F4xx_StdPeriph_Driver/inc/
  24              	@ -I ../Utilities/STM32F4-Discovery/
  25              	@ -I ../Libraries/CMSIS/ST/STM32F4xx/Include/
  26              	@ -I ../Libraries/CMSIS/Include/ -imultilib thumb/v7e-m+fp/hard
  27              	@ -iprefix c:\program files (x86)\gnu arm embedded toolchain\10 2021.10\bin\../lib/gcc/arm-none-eab
  28              	@ -isysroot c:\program files (x86)\gnu arm embedded toolchain\10 2021.10\bin\../arm-none-eabi
  29              	@ -MD out/usb_core.d -MF out/usb_core.d -MP -MQ out/usb_core.o
  30              	@ -D__USES_INITFINI__ -D STM32F4XX -D __VFP_FP__ -D USE_USB_OTG_FS
  31              	@ ../Libraries/STM32_USB_OTG_Driver/src/usb_core.c -mcpu=cortex-m4 -mthumb
  32              	@ -mfloat-abi=hard -mfpu=fpv4-sp-d16 -mlibarch=armv7e-m+fp
  33              	@ -march=armv7e-m+fp -auxbase-strip out/usb_core.o -g -ggdb3 -O3 -Wall
  34              	@ -Wstrict-prototypes -Wextra -std=gnu90 -ffast-math -ffunction-sections
  35              	@ -fdata-sections -fverbose-asm
  36              	@ options enabled:  -faggressive-loop-optimizations -falign-functions
  37              	@ -falign-jumps -falign-labels -falign-loops -fallocation-dce
  38              	@ -fassociative-math -fauto-inc-dec -fbranch-count-reg -fcaller-saves
  39              	@ -fcombine-stack-adjustments -fcompare-elim -fcprop-registers
  40              	@ -fcrossjumping -fcse-follow-jumps -fcx-limited-range -fdata-sections
  41              	@ -fdefer-pop -fdelete-null-pointer-checks -fdevirtualize
  42              	@ -fdevirtualize-speculatively -fdwarf2-cfi-asm -fearly-inlining
  43              	@ -feliminate-unused-debug-symbols -feliminate-unused-debug-types
  44              	@ -fexpensive-optimizations -ffinite-math-only -fforward-propagate
  45              	@ -ffp-int-builtin-inexact -ffunction-cse -ffunction-sections -fgcse
  46              	@ -fgcse-after-reload -fgcse-lm -fgnu-unique -fguess-branch-probability
  47              	@ -fhoist-adjacent-loads -fident -fif-conversion -fif-conversion2
  48              	@ -findirect-inlining -finline -finline-atomics -finline-functions
  49              	@ -finline-functions-called-once -finline-small-functions -fipa-bit-cp
  50              	@ -fipa-cp -fipa-cp-clone -fipa-icf -fipa-icf-functions -fipa-icf-variables
  51              	@ -fipa-profile -fipa-pure-const -fipa-ra -fipa-reference
  52              	@ -fipa-reference-addressable -fipa-sra -fipa-stack-alignment -fipa-vrp
  53              	@ -fira-hoist-pressure -fira-share-save-slots -fira-share-spill-slots
  54              	@ -fisolate-erroneous-paths-dereference -fivopts -fkeep-static-consts
  55              	@ -fleading-underscore -flifetime-dse -floop-interchange
  56              	@ -floop-unroll-and-jam -flra-remat -fmerge-constants -fmerge-debug-strings
  57              	@ -fmove-loop-invariants -fomit-frame-pointer -foptimize-sibling-calls
ARM GAS  C:\Users\admin\AppData\Local\Temp\ccFXFx3g.s 			page 2


  58              	@ -foptimize-strlen -fpartial-inlining -fpeel-loops -fpeephole -fpeephole2
  59              	@ -fplt -fpredictive-commoning -fprefetch-loop-arrays -freciprocal-math
  60              	@ -freg-struct-return -freorder-blocks -freorder-functions
  61              	@ -frerun-cse-after-loop -fsched-critical-path-heuristic
  62              	@ -fsched-dep-count-heuristic -fsched-group-heuristic -fsched-interblock
  63              	@ -fsched-last-insn-heuristic -fsched-pressure -fsched-rank-heuristic
  64              	@ -fsched-spec -fsched-spec-insn-heuristic -fsched-stalled-insns-dep
  65              	@ -fschedule-insns -fschedule-insns2 -fsection-anchors
  66              	@ -fsemantic-interposition -fshow-column -fshrink-wrap
  67              	@ -fshrink-wrap-separate -fsplit-ivs-in-unroller -fsplit-loops
  68              	@ -fsplit-paths -fsplit-wide-types -fssa-backprop -fssa-phiopt -fstdarg-opt
  69              	@ -fstore-merging -fstrict-aliasing -fstrict-volatile-bitfields
  70              	@ -fsync-libcalls -fthread-jumps -ftoplevel-reorder -ftree-bit-ccp
  71              	@ -ftree-builtin-call-dce -ftree-ccp -ftree-ch -ftree-coalesce-vars
  72              	@ -ftree-copy-prop -ftree-cselim -ftree-dce -ftree-dominator-opts
  73              	@ -ftree-dse -ftree-forwprop -ftree-fre -ftree-loop-distribute-patterns
  74              	@ -ftree-loop-distribution -ftree-loop-if-convert -ftree-loop-im
  75              	@ -ftree-loop-ivcanon -ftree-loop-optimize -ftree-loop-vectorize
  76              	@ -ftree-parallelize-loops= -ftree-partial-pre -ftree-phiprop -ftree-pre
  77              	@ -ftree-pta -ftree-reassoc -ftree-scev-cprop -ftree-sink
  78              	@ -ftree-slp-vectorize -ftree-slsr -ftree-sra -ftree-switch-conversion
  79              	@ -ftree-tail-merge -ftree-ter -ftree-vrp -funit-at-a-time
  80              	@ -funsafe-math-optimizations -funswitch-loops -fvar-tracking
  81              	@ -fvar-tracking-assignments -fverbose-asm -fversion-loops-for-strides
  82              	@ -fzero-initialized-in-bss -masm-syntax-unified -mbe32 -mlittle-endian
  83              	@ -mpic-data-is-text-relative -msched-prolog -mthumb -munaligned-access
  84              	@ -mvectorize-with-neon-quad
  85              	
  86              		.text
  87              	.Ltext0:
  88              		.cfi_sections	.debug_frame
  89              		.section	.text.USB_OTG_WritePacket,"ax",%progbits
  90              		.align	1
  91              		.p2align 2,,3
  92              		.global	USB_OTG_WritePacket
  93              		.syntax unified
  94              		.thumb
  95              		.thumb_func
  96              		.type	USB_OTG_WritePacket, %function
  97              	USB_OTG_WritePacket:
  98              	.LVL0:
  99              	.LFB112:
 100              		.file 1 "../Libraries/STM32_USB_OTG_Driver/src/usb_core.c"
   1:../Libraries/STM32_USB_OTG_Driver/src/usb_core.c **** /**
   2:../Libraries/STM32_USB_OTG_Driver/src/usb_core.c ****   ******************************************************************************
   3:../Libraries/STM32_USB_OTG_Driver/src/usb_core.c ****   * @file    usb_core.c
   4:../Libraries/STM32_USB_OTG_Driver/src/usb_core.c ****   * @author  MCD Application Team
   5:../Libraries/STM32_USB_OTG_Driver/src/usb_core.c ****   * @version V2.1.0
   6:../Libraries/STM32_USB_OTG_Driver/src/usb_core.c ****   * @date    19-March-2012
   7:../Libraries/STM32_USB_OTG_Driver/src/usb_core.c ****   * @brief   USB-OTG Core Layer
   8:../Libraries/STM32_USB_OTG_Driver/src/usb_core.c ****   ******************************************************************************
   9:../Libraries/STM32_USB_OTG_Driver/src/usb_core.c ****   * @attention
  10:../Libraries/STM32_USB_OTG_Driver/src/usb_core.c ****   *
  11:../Libraries/STM32_USB_OTG_Driver/src/usb_core.c ****   * <h2><center>&copy; COPYRIGHT 2012 STMicroelectronics</center></h2>
  12:../Libraries/STM32_USB_OTG_Driver/src/usb_core.c ****   *
  13:../Libraries/STM32_USB_OTG_Driver/src/usb_core.c ****   * Licensed under MCD-ST Liberty SW License Agreement V2, (the "License");
  14:../Libraries/STM32_USB_OTG_Driver/src/usb_core.c ****   * You may not use this file except in compliance with the License.
ARM GAS  C:\Users\admin\AppData\Local\Temp\ccFXFx3g.s 			page 3


  15:../Libraries/STM32_USB_OTG_Driver/src/usb_core.c ****   * You may obtain a copy of the License at:
  16:../Libraries/STM32_USB_OTG_Driver/src/usb_core.c ****   *
  17:../Libraries/STM32_USB_OTG_Driver/src/usb_core.c ****   *        http://www.st.com/software_license_agreement_liberty_v2
  18:../Libraries/STM32_USB_OTG_Driver/src/usb_core.c ****   *
  19:../Libraries/STM32_USB_OTG_Driver/src/usb_core.c ****   * Unless required by applicable law or agreed to in writing, software 
  20:../Libraries/STM32_USB_OTG_Driver/src/usb_core.c ****   * distributed under the License is distributed on an "AS IS" BASIS, 
  21:../Libraries/STM32_USB_OTG_Driver/src/usb_core.c ****   * WITHOUT WARRANTIES OR CONDITIONS OF ANY KIND, either express or implied.
  22:../Libraries/STM32_USB_OTG_Driver/src/usb_core.c ****   * See the License for the specific language governing permissions and
  23:../Libraries/STM32_USB_OTG_Driver/src/usb_core.c ****   * limitations under the License.
  24:../Libraries/STM32_USB_OTG_Driver/src/usb_core.c ****   *
  25:../Libraries/STM32_USB_OTG_Driver/src/usb_core.c ****   ******************************************************************************
  26:../Libraries/STM32_USB_OTG_Driver/src/usb_core.c ****   */
  27:../Libraries/STM32_USB_OTG_Driver/src/usb_core.c **** 
  28:../Libraries/STM32_USB_OTG_Driver/src/usb_core.c **** /* Includes ------------------------------------------------------------------*/
  29:../Libraries/STM32_USB_OTG_Driver/src/usb_core.c **** #include "usb_core.h"
  30:../Libraries/STM32_USB_OTG_Driver/src/usb_core.c **** #include "usb_bsp.h"
  31:../Libraries/STM32_USB_OTG_Driver/src/usb_core.c **** 
  32:../Libraries/STM32_USB_OTG_Driver/src/usb_core.c **** 
  33:../Libraries/STM32_USB_OTG_Driver/src/usb_core.c **** /** @addtogroup USB_OTG_DRIVER
  34:../Libraries/STM32_USB_OTG_Driver/src/usb_core.c **** * @{
  35:../Libraries/STM32_USB_OTG_Driver/src/usb_core.c **** */
  36:../Libraries/STM32_USB_OTG_Driver/src/usb_core.c **** 
  37:../Libraries/STM32_USB_OTG_Driver/src/usb_core.c **** /** @defgroup USB_CORE 
  38:../Libraries/STM32_USB_OTG_Driver/src/usb_core.c **** * @brief This file includes the USB-OTG Core Layer
  39:../Libraries/STM32_USB_OTG_Driver/src/usb_core.c **** * @{
  40:../Libraries/STM32_USB_OTG_Driver/src/usb_core.c **** */
  41:../Libraries/STM32_USB_OTG_Driver/src/usb_core.c **** 
  42:../Libraries/STM32_USB_OTG_Driver/src/usb_core.c **** 
  43:../Libraries/STM32_USB_OTG_Driver/src/usb_core.c **** /** @defgroup USB_CORE_Private_Defines
  44:../Libraries/STM32_USB_OTG_Driver/src/usb_core.c **** * @{
  45:../Libraries/STM32_USB_OTG_Driver/src/usb_core.c **** */ 
  46:../Libraries/STM32_USB_OTG_Driver/src/usb_core.c **** 
  47:../Libraries/STM32_USB_OTG_Driver/src/usb_core.c **** /**
  48:../Libraries/STM32_USB_OTG_Driver/src/usb_core.c **** * @}
  49:../Libraries/STM32_USB_OTG_Driver/src/usb_core.c **** */ 
  50:../Libraries/STM32_USB_OTG_Driver/src/usb_core.c **** 
  51:../Libraries/STM32_USB_OTG_Driver/src/usb_core.c **** 
  52:../Libraries/STM32_USB_OTG_Driver/src/usb_core.c **** /** @defgroup USB_CORE_Private_TypesDefinitions
  53:../Libraries/STM32_USB_OTG_Driver/src/usb_core.c **** * @{
  54:../Libraries/STM32_USB_OTG_Driver/src/usb_core.c **** */ 
  55:../Libraries/STM32_USB_OTG_Driver/src/usb_core.c **** /**
  56:../Libraries/STM32_USB_OTG_Driver/src/usb_core.c **** * @}
  57:../Libraries/STM32_USB_OTG_Driver/src/usb_core.c **** */ 
  58:../Libraries/STM32_USB_OTG_Driver/src/usb_core.c **** 
  59:../Libraries/STM32_USB_OTG_Driver/src/usb_core.c **** 
  60:../Libraries/STM32_USB_OTG_Driver/src/usb_core.c **** 
  61:../Libraries/STM32_USB_OTG_Driver/src/usb_core.c **** /** @defgroup USB_CORE_Private_Macros
  62:../Libraries/STM32_USB_OTG_Driver/src/usb_core.c **** * @{
  63:../Libraries/STM32_USB_OTG_Driver/src/usb_core.c **** */ 
  64:../Libraries/STM32_USB_OTG_Driver/src/usb_core.c **** /**
  65:../Libraries/STM32_USB_OTG_Driver/src/usb_core.c **** * @}
  66:../Libraries/STM32_USB_OTG_Driver/src/usb_core.c **** */ 
  67:../Libraries/STM32_USB_OTG_Driver/src/usb_core.c **** 
  68:../Libraries/STM32_USB_OTG_Driver/src/usb_core.c **** 
  69:../Libraries/STM32_USB_OTG_Driver/src/usb_core.c **** /** @defgroup USB_CORE_Private_Variables
  70:../Libraries/STM32_USB_OTG_Driver/src/usb_core.c **** * @{
  71:../Libraries/STM32_USB_OTG_Driver/src/usb_core.c **** */ 
ARM GAS  C:\Users\admin\AppData\Local\Temp\ccFXFx3g.s 			page 4


  72:../Libraries/STM32_USB_OTG_Driver/src/usb_core.c **** /**
  73:../Libraries/STM32_USB_OTG_Driver/src/usb_core.c **** * @}
  74:../Libraries/STM32_USB_OTG_Driver/src/usb_core.c **** */ 
  75:../Libraries/STM32_USB_OTG_Driver/src/usb_core.c **** 
  76:../Libraries/STM32_USB_OTG_Driver/src/usb_core.c **** 
  77:../Libraries/STM32_USB_OTG_Driver/src/usb_core.c **** /** @defgroup USB_CORE_Private_FunctionPrototypes
  78:../Libraries/STM32_USB_OTG_Driver/src/usb_core.c **** * @{
  79:../Libraries/STM32_USB_OTG_Driver/src/usb_core.c **** */ 
  80:../Libraries/STM32_USB_OTG_Driver/src/usb_core.c **** /**
  81:../Libraries/STM32_USB_OTG_Driver/src/usb_core.c **** * @}
  82:../Libraries/STM32_USB_OTG_Driver/src/usb_core.c **** */ 
  83:../Libraries/STM32_USB_OTG_Driver/src/usb_core.c **** 
  84:../Libraries/STM32_USB_OTG_Driver/src/usb_core.c **** 
  85:../Libraries/STM32_USB_OTG_Driver/src/usb_core.c **** /** @defgroup USB_CORE_Private_Functions
  86:../Libraries/STM32_USB_OTG_Driver/src/usb_core.c **** * @{
  87:../Libraries/STM32_USB_OTG_Driver/src/usb_core.c **** */ 
  88:../Libraries/STM32_USB_OTG_Driver/src/usb_core.c **** 
  89:../Libraries/STM32_USB_OTG_Driver/src/usb_core.c **** /**
  90:../Libraries/STM32_USB_OTG_Driver/src/usb_core.c **** * @brief  USB_OTG_EnableCommonInt
  91:../Libraries/STM32_USB_OTG_Driver/src/usb_core.c **** *         Initializes the commmon interrupts, used in both device and modes
  92:../Libraries/STM32_USB_OTG_Driver/src/usb_core.c **** * @param  pdev : Selected device
  93:../Libraries/STM32_USB_OTG_Driver/src/usb_core.c **** * @retval None
  94:../Libraries/STM32_USB_OTG_Driver/src/usb_core.c **** */
  95:../Libraries/STM32_USB_OTG_Driver/src/usb_core.c **** static void USB_OTG_EnableCommonInt(USB_OTG_CORE_HANDLE *pdev)
  96:../Libraries/STM32_USB_OTG_Driver/src/usb_core.c **** {
  97:../Libraries/STM32_USB_OTG_Driver/src/usb_core.c ****   USB_OTG_GINTMSK_TypeDef  int_mask;
  98:../Libraries/STM32_USB_OTG_Driver/src/usb_core.c ****   
  99:../Libraries/STM32_USB_OTG_Driver/src/usb_core.c ****   int_mask.d32 = 0;
 100:../Libraries/STM32_USB_OTG_Driver/src/usb_core.c ****   /* Clear any pending USB_OTG Interrupts */
 101:../Libraries/STM32_USB_OTG_Driver/src/usb_core.c **** #ifndef USE_OTG_MODE
 102:../Libraries/STM32_USB_OTG_Driver/src/usb_core.c ****   USB_OTG_WRITE_REG32( &pdev->regs.GREGS->GOTGINT, 0xFFFFFFFF);
 103:../Libraries/STM32_USB_OTG_Driver/src/usb_core.c **** #endif
 104:../Libraries/STM32_USB_OTG_Driver/src/usb_core.c ****   /* Clear any pending interrupts */
 105:../Libraries/STM32_USB_OTG_Driver/src/usb_core.c ****   USB_OTG_WRITE_REG32( &pdev->regs.GREGS->GINTSTS, 0xBFFFFFFF);
 106:../Libraries/STM32_USB_OTG_Driver/src/usb_core.c ****   /* Enable the interrupts in the INTMSK */
 107:../Libraries/STM32_USB_OTG_Driver/src/usb_core.c ****   int_mask.b.wkupintr = 1;
 108:../Libraries/STM32_USB_OTG_Driver/src/usb_core.c ****   int_mask.b.usbsuspend = 1; 
 109:../Libraries/STM32_USB_OTG_Driver/src/usb_core.c ****   
 110:../Libraries/STM32_USB_OTG_Driver/src/usb_core.c **** #ifdef USE_OTG_MODE
 111:../Libraries/STM32_USB_OTG_Driver/src/usb_core.c ****   int_mask.b.otgintr = 1;
 112:../Libraries/STM32_USB_OTG_Driver/src/usb_core.c ****   int_mask.b.sessreqintr = 1;
 113:../Libraries/STM32_USB_OTG_Driver/src/usb_core.c ****   int_mask.b.conidstschng = 1;
 114:../Libraries/STM32_USB_OTG_Driver/src/usb_core.c **** #endif
 115:../Libraries/STM32_USB_OTG_Driver/src/usb_core.c ****   USB_OTG_WRITE_REG32( &pdev->regs.GREGS->GINTMSK, int_mask.d32);
 116:../Libraries/STM32_USB_OTG_Driver/src/usb_core.c **** }
 117:../Libraries/STM32_USB_OTG_Driver/src/usb_core.c **** 
 118:../Libraries/STM32_USB_OTG_Driver/src/usb_core.c **** /**
 119:../Libraries/STM32_USB_OTG_Driver/src/usb_core.c **** * @brief  USB_OTG_CoreReset : Soft reset of the core
 120:../Libraries/STM32_USB_OTG_Driver/src/usb_core.c **** * @param  pdev : Selected device
 121:../Libraries/STM32_USB_OTG_Driver/src/usb_core.c **** * @retval USB_OTG_STS : status
 122:../Libraries/STM32_USB_OTG_Driver/src/usb_core.c **** */
 123:../Libraries/STM32_USB_OTG_Driver/src/usb_core.c **** static USB_OTG_STS USB_OTG_CoreReset(USB_OTG_CORE_HANDLE *pdev)
 124:../Libraries/STM32_USB_OTG_Driver/src/usb_core.c **** {
 125:../Libraries/STM32_USB_OTG_Driver/src/usb_core.c ****   USB_OTG_STS status = USB_OTG_OK;
 126:../Libraries/STM32_USB_OTG_Driver/src/usb_core.c ****   __IO USB_OTG_GRSTCTL_TypeDef  greset;
 127:../Libraries/STM32_USB_OTG_Driver/src/usb_core.c ****   uint32_t count = 0;
 128:../Libraries/STM32_USB_OTG_Driver/src/usb_core.c ****   
ARM GAS  C:\Users\admin\AppData\Local\Temp\ccFXFx3g.s 			page 5


 129:../Libraries/STM32_USB_OTG_Driver/src/usb_core.c ****   greset.d32 = 0;
 130:../Libraries/STM32_USB_OTG_Driver/src/usb_core.c ****   /* Wait for AHB master IDLE state. */
 131:../Libraries/STM32_USB_OTG_Driver/src/usb_core.c ****   do
 132:../Libraries/STM32_USB_OTG_Driver/src/usb_core.c ****   {
 133:../Libraries/STM32_USB_OTG_Driver/src/usb_core.c ****     USB_OTG_BSP_uDelay(3);
 134:../Libraries/STM32_USB_OTG_Driver/src/usb_core.c ****     greset.d32 = USB_OTG_READ_REG32(&pdev->regs.GREGS->GRSTCTL);
 135:../Libraries/STM32_USB_OTG_Driver/src/usb_core.c ****     if (++count > 200000)
 136:../Libraries/STM32_USB_OTG_Driver/src/usb_core.c ****     {
 137:../Libraries/STM32_USB_OTG_Driver/src/usb_core.c ****       return USB_OTG_OK;
 138:../Libraries/STM32_USB_OTG_Driver/src/usb_core.c ****     }
 139:../Libraries/STM32_USB_OTG_Driver/src/usb_core.c ****   }
 140:../Libraries/STM32_USB_OTG_Driver/src/usb_core.c ****   while (greset.b.ahbidle == 0);
 141:../Libraries/STM32_USB_OTG_Driver/src/usb_core.c ****   /* Core Soft Reset */
 142:../Libraries/STM32_USB_OTG_Driver/src/usb_core.c ****   count = 0;
 143:../Libraries/STM32_USB_OTG_Driver/src/usb_core.c ****   greset.b.csftrst = 1;
 144:../Libraries/STM32_USB_OTG_Driver/src/usb_core.c ****   USB_OTG_WRITE_REG32(&pdev->regs.GREGS->GRSTCTL, greset.d32 );
 145:../Libraries/STM32_USB_OTG_Driver/src/usb_core.c ****   do
 146:../Libraries/STM32_USB_OTG_Driver/src/usb_core.c ****   {
 147:../Libraries/STM32_USB_OTG_Driver/src/usb_core.c ****     greset.d32 = USB_OTG_READ_REG32(&pdev->regs.GREGS->GRSTCTL);
 148:../Libraries/STM32_USB_OTG_Driver/src/usb_core.c ****     if (++count > 200000)
 149:../Libraries/STM32_USB_OTG_Driver/src/usb_core.c ****     {
 150:../Libraries/STM32_USB_OTG_Driver/src/usb_core.c ****       break;
 151:../Libraries/STM32_USB_OTG_Driver/src/usb_core.c ****     }
 152:../Libraries/STM32_USB_OTG_Driver/src/usb_core.c ****   }
 153:../Libraries/STM32_USB_OTG_Driver/src/usb_core.c ****   while (greset.b.csftrst == 1);
 154:../Libraries/STM32_USB_OTG_Driver/src/usb_core.c ****   /* Wait for 3 PHY Clocks*/
 155:../Libraries/STM32_USB_OTG_Driver/src/usb_core.c ****   USB_OTG_BSP_uDelay(3);
 156:../Libraries/STM32_USB_OTG_Driver/src/usb_core.c ****   return status;
 157:../Libraries/STM32_USB_OTG_Driver/src/usb_core.c **** }
 158:../Libraries/STM32_USB_OTG_Driver/src/usb_core.c **** 
 159:../Libraries/STM32_USB_OTG_Driver/src/usb_core.c **** /**
 160:../Libraries/STM32_USB_OTG_Driver/src/usb_core.c **** * @brief  USB_OTG_WritePacket : Writes a packet into the Tx FIFO associated 
 161:../Libraries/STM32_USB_OTG_Driver/src/usb_core.c **** *         with the EP
 162:../Libraries/STM32_USB_OTG_Driver/src/usb_core.c **** * @param  pdev : Selected device
 163:../Libraries/STM32_USB_OTG_Driver/src/usb_core.c **** * @param  src : source pointer
 164:../Libraries/STM32_USB_OTG_Driver/src/usb_core.c **** * @param  ch_ep_num : end point number
 165:../Libraries/STM32_USB_OTG_Driver/src/usb_core.c **** * @param  bytes : No. of bytes
 166:../Libraries/STM32_USB_OTG_Driver/src/usb_core.c **** * @retval USB_OTG_STS : status
 167:../Libraries/STM32_USB_OTG_Driver/src/usb_core.c **** */
 168:../Libraries/STM32_USB_OTG_Driver/src/usb_core.c **** USB_OTG_STS USB_OTG_WritePacket(USB_OTG_CORE_HANDLE *pdev, 
 169:../Libraries/STM32_USB_OTG_Driver/src/usb_core.c ****                                 uint8_t             *src, 
 170:../Libraries/STM32_USB_OTG_Driver/src/usb_core.c ****                                 uint8_t             ch_ep_num, 
 171:../Libraries/STM32_USB_OTG_Driver/src/usb_core.c ****                                 uint16_t            len)
 172:../Libraries/STM32_USB_OTG_Driver/src/usb_core.c **** {
 101              		.loc 1 172 1 view -0
 102              		.cfi_startproc
 103              		@ args = 0, pretend = 0, frame = 0
 104              		@ frame_needed = 0, uses_anonymous_args = 0
 105              		@ link register save eliminated.
 173:../Libraries/STM32_USB_OTG_Driver/src/usb_core.c ****   USB_OTG_STS status = USB_OTG_OK;
 106              		.loc 1 173 3 view .LVU1
 174:../Libraries/STM32_USB_OTG_Driver/src/usb_core.c ****   if (pdev->cfg.dma_enable == 0)
 107              		.loc 1 174 3 view .LVU2
 108              	@ ../Libraries/STM32_USB_OTG_Driver/src/usb_core.c:172: {
 172:../Libraries/STM32_USB_OTG_Driver/src/usb_core.c ****   USB_OTG_STS status = USB_OTG_OK;
 109              		.loc 1 172 1 is_stmt 0 view .LVU3
 110 0000 30B4     		push	{r4, r5}	@
ARM GAS  C:\Users\admin\AppData\Local\Temp\ccFXFx3g.s 			page 6


 111              		.cfi_def_cfa_offset 8
 112              		.cfi_offset 4, -8
 113              		.cfi_offset 5, -4
 114              	@ ../Libraries/STM32_USB_OTG_Driver/src/usb_core.c:174:   if (pdev->cfg.dma_enable == 0)
 115              		.loc 1 174 6 view .LVU4
 116 0002 C478     		ldrb	r4, [r0, #3]	@ zero_extendqisi2	@ pdev_4(D)->cfg.dma_enable, pdev_4(D)->cfg.dma_enable
 117 0004 6CB9     		cbnz	r4, .L2	@ pdev_4(D)->cfg.dma_enable,
 118              	.LVL1:
 119              	.LBB23:
 120              	.LBI23:
 168:../Libraries/STM32_USB_OTG_Driver/src/usb_core.c ****                                 uint8_t             *src, 
 121              		.loc 1 168 13 is_stmt 1 view .LVU5
 122              	.LBB24:
 123              	.LBB25:
 175:../Libraries/STM32_USB_OTG_Driver/src/usb_core.c ****   {
 176:../Libraries/STM32_USB_OTG_Driver/src/usb_core.c ****     uint32_t count32b= 0 , i= 0;
 124              		.loc 1 176 5 view .LVU6
 177:../Libraries/STM32_USB_OTG_Driver/src/usb_core.c ****     __IO uint32_t *fifo;
 125              		.loc 1 177 5 view .LVU7
 178:../Libraries/STM32_USB_OTG_Driver/src/usb_core.c ****     
 179:../Libraries/STM32_USB_OTG_Driver/src/usb_core.c ****     count32b =  (len + 3) / 4;
 126              		.loc 1 179 5 view .LVU8
 127              	@ ../Libraries/STM32_USB_OTG_Driver/src/usb_core.c:180:     fifo = pdev->regs.DFIFO[ch_ep_num];
 180:../Libraries/STM32_USB_OTG_Driver/src/usb_core.c ****     fifo = pdev->regs.DFIFO[ch_ep_num];
 128              		.loc 1 180 10 is_stmt 0 view .LVU9
 129 0006 00EB8200 		add	r0, r0, r2, lsl #2	@ tmp130, pdev, ch_ep_num,
 130              	.LVL2:
 131              	@ ../Libraries/STM32_USB_OTG_Driver/src/usb_core.c:179:     count32b =  (len + 3) / 4;
 179:../Libraries/STM32_USB_OTG_Driver/src/usb_core.c ****     fifo = pdev->regs.DFIFO[ch_ep_num];
 132              		.loc 1 179 22 view .LVU10
 133 000a DA1C     		adds	r2, r3, #3	@ tmp128, len,
 134              	.LVL3:
 135              		.loc 1 180 5 is_stmt 1 view .LVU11
 136              	@ ../Libraries/STM32_USB_OTG_Driver/src/usb_core.c:181:     for (i = 0; i < count32b; i++, src+=4)
 181:../Libraries/STM32_USB_OTG_Driver/src/usb_core.c ****     for (i = 0; i < count32b; i++, src+=4)
 137              		.loc 1 181 5 is_stmt 0 view .LVU12
 138 000c 9210     		asrs	r2, r2, #2	@ count32b, tmp128,
 139              	.LVL4:
 140              	@ ../Libraries/STM32_USB_OTG_Driver/src/usb_core.c:180:     fifo = pdev->regs.DFIFO[ch_ep_num];
 180:../Libraries/STM32_USB_OTG_Driver/src/usb_core.c ****     fifo = pdev->regs.DFIFO[ch_ep_num];
 141              		.loc 1 180 10 view .LVU13
 142 000e D0F8D050 		ldr	r5, [r0, #208]	@ fifo, pdev_4(D)->regs.DFIFO[_13]
 143              	.LVL5:
 144              		.loc 1 181 5 is_stmt 1 view .LVU14
 145              		.loc 1 181 17 view .LVU15
 146              	@ ../Libraries/STM32_USB_OTG_Driver/src/usb_core.c:181:     for (i = 0; i < count32b; i++, src+=4)
 147              		.loc 1 181 5 is_stmt 0 view .LVU16
 148 0012 06D0     		beq	.L2		@,
 149              	@ ../Libraries/STM32_USB_OTG_Driver/src/usb_core.c:181:     for (i = 0; i < count32b; i++, src+=4)
 150              		.loc 1 181 12 view .LVU17
 151 0014 2346     		mov	r3, r4	@ i, pdev_4(D)->cfg.dma_enable
 152              	.LVL6:
 153              	.L3:
 182:../Libraries/STM32_USB_OTG_Driver/src/usb_core.c ****     {
 183:../Libraries/STM32_USB_OTG_Driver/src/usb_core.c ****       USB_OTG_WRITE_REG32( fifo, *((__packed uint32_t *)src) );
 154              		.loc 1 183 7 is_stmt 1 view .LVU18
 155              	@ ../Libraries/STM32_USB_OTG_Driver/src/usb_core.c:181:     for (i = 0; i < count32b; i++, src+=4)
ARM GAS  C:\Users\admin\AppData\Local\Temp\ccFXFx3g.s 			page 7


 181:../Libraries/STM32_USB_OTG_Driver/src/usb_core.c ****     for (i = 0; i < count32b; i++, src+=4)
 156              		.loc 1 181 32 is_stmt 0 view .LVU19
 157 0016 0133     		adds	r3, r3, #1	@ i, i,
 158              	.LVL7:
 159              	@ ../Libraries/STM32_USB_OTG_Driver/src/usb_core.c:183:       USB_OTG_WRITE_REG32( fifo, *((__packe
 160              		.loc 1 183 7 view .LVU20
 161 0018 51F8040B 		ldr	r0, [r1], #4	@ _16, MEM[base: src_24, offset: 0B]
 162              	.LVL8:
 163              		.loc 1 183 7 view .LVU21
 164 001c 2860     		str	r0, [r5]	@ _16, *fifo_14
 181:../Libraries/STM32_USB_OTG_Driver/src/usb_core.c ****     for (i = 0; i < count32b; i++, src+=4)
 165              		.loc 1 181 31 is_stmt 1 view .LVU22
 166              	.LVL9:
 181:../Libraries/STM32_USB_OTG_Driver/src/usb_core.c ****     for (i = 0; i < count32b; i++, src+=4)
 167              		.loc 1 181 17 view .LVU23
 168              	@ ../Libraries/STM32_USB_OTG_Driver/src/usb_core.c:181:     for (i = 0; i < count32b; i++, src+=4)
 181:../Libraries/STM32_USB_OTG_Driver/src/usb_core.c ****     for (i = 0; i < count32b; i++, src+=4)
 169              		.loc 1 181 5 is_stmt 0 view .LVU24
 170 001e 9A42     		cmp	r2, r3	@ count32b, i
 171 0020 F9D1     		bne	.L3		@,
 172              	.LVL10:
 173              	.L2:
 181:../Libraries/STM32_USB_OTG_Driver/src/usb_core.c ****     for (i = 0; i < count32b; i++, src+=4)
 174              		.loc 1 181 5 view .LVU25
 175              	.LBE25:
 176              	.LBE24:
 177              	.LBE23:
 184:../Libraries/STM32_USB_OTG_Driver/src/usb_core.c ****     }
 185:../Libraries/STM32_USB_OTG_Driver/src/usb_core.c ****   }
 186:../Libraries/STM32_USB_OTG_Driver/src/usb_core.c ****   return status;
 178              		.loc 1 186 3 is_stmt 1 view .LVU26
 179              	@ ../Libraries/STM32_USB_OTG_Driver/src/usb_core.c:187: }
 187:../Libraries/STM32_USB_OTG_Driver/src/usb_core.c **** }
 180              		.loc 1 187 1 is_stmt 0 view .LVU27
 181 0022 0020     		movs	r0, #0	@,
 182 0024 30BC     		pop	{r4, r5}	@
 183              		.cfi_restore 5
 184              		.cfi_restore 4
 185              		.cfi_def_cfa_offset 0
 186 0026 7047     		bx	lr	@
 187              		.cfi_endproc
 188              	.LFE112:
 189              		.size	USB_OTG_WritePacket, .-USB_OTG_WritePacket
 190              		.section	.text.USB_OTG_ReadPacket,"ax",%progbits
 191              		.align	1
 192              		.p2align 2,,3
 193              		.global	USB_OTG_ReadPacket
 194              		.syntax unified
 195              		.thumb
 196              		.thumb_func
 197              		.type	USB_OTG_ReadPacket, %function
 198              	USB_OTG_ReadPacket:
 199              	.LVL11:
 200              	.LFB113:
 188:../Libraries/STM32_USB_OTG_Driver/src/usb_core.c **** 
 189:../Libraries/STM32_USB_OTG_Driver/src/usb_core.c **** 
 190:../Libraries/STM32_USB_OTG_Driver/src/usb_core.c **** /**
ARM GAS  C:\Users\admin\AppData\Local\Temp\ccFXFx3g.s 			page 8


 191:../Libraries/STM32_USB_OTG_Driver/src/usb_core.c **** * @brief  USB_OTG_ReadPacket : Reads a packet from the Rx FIFO
 192:../Libraries/STM32_USB_OTG_Driver/src/usb_core.c **** * @param  pdev : Selected device
 193:../Libraries/STM32_USB_OTG_Driver/src/usb_core.c **** * @param  dest : Destination Pointer
 194:../Libraries/STM32_USB_OTG_Driver/src/usb_core.c **** * @param  bytes : No. of bytes
 195:../Libraries/STM32_USB_OTG_Driver/src/usb_core.c **** * @retval None
 196:../Libraries/STM32_USB_OTG_Driver/src/usb_core.c **** */
 197:../Libraries/STM32_USB_OTG_Driver/src/usb_core.c **** void *USB_OTG_ReadPacket(USB_OTG_CORE_HANDLE *pdev, 
 198:../Libraries/STM32_USB_OTG_Driver/src/usb_core.c ****                          uint8_t *dest, 
 199:../Libraries/STM32_USB_OTG_Driver/src/usb_core.c ****                          uint16_t len)
 200:../Libraries/STM32_USB_OTG_Driver/src/usb_core.c **** {
 201              		.loc 1 200 1 is_stmt 1 view -0
 202              		.cfi_startproc
 203              		@ args = 0, pretend = 0, frame = 0
 204              		@ frame_needed = 0, uses_anonymous_args = 0
 205              		@ link register save eliminated.
 201:../Libraries/STM32_USB_OTG_Driver/src/usb_core.c ****   uint32_t i=0;
 206              		.loc 1 201 3 view .LVU29
 202:../Libraries/STM32_USB_OTG_Driver/src/usb_core.c ****   uint32_t count32b = (len + 3) / 4;
 207              		.loc 1 202 3 view .LVU30
 208              	@ ../Libraries/STM32_USB_OTG_Driver/src/usb_core.c:202:   uint32_t count32b = (len + 3) / 4;
 209              		.loc 1 202 28 is_stmt 0 view .LVU31
 210 0000 0332     		adds	r2, r2, #3	@ tmp126, tmp132,
 211              	.LVL12:
 203:../Libraries/STM32_USB_OTG_Driver/src/usb_core.c ****   
 204:../Libraries/STM32_USB_OTG_Driver/src/usb_core.c ****   __IO uint32_t *fifo = pdev->regs.DFIFO[0];
 212              		.loc 1 204 3 is_stmt 1 view .LVU32
 213              	@ ../Libraries/STM32_USB_OTG_Driver/src/usb_core.c:206:   for ( i = 0; i < count32b; i++, dest += 4
 205:../Libraries/STM32_USB_OTG_Driver/src/usb_core.c ****   
 206:../Libraries/STM32_USB_OTG_Driver/src/usb_core.c ****   for ( i = 0; i < count32b; i++, dest += 4 )
 214              		.loc 1 206 3 is_stmt 0 view .LVU33
 215 0002 5FEAA20C 		asrs	ip, r2, #2	@ count32b, tmp126,
 216              	.LVL13:
 217              	@ ../Libraries/STM32_USB_OTG_Driver/src/usb_core.c:200: {
 200:../Libraries/STM32_USB_OTG_Driver/src/usb_core.c ****   uint32_t i=0;
 218              		.loc 1 200 1 view .LVU34
 219 0006 30B4     		push	{r4, r5}	@
 220              		.cfi_def_cfa_offset 8
 221              		.cfi_offset 4, -8
 222              		.cfi_offset 5, -4
 223              	@ ../Libraries/STM32_USB_OTG_Driver/src/usb_core.c:204:   __IO uint32_t *fifo = pdev->regs.DFIFO[0]
 204:../Libraries/STM32_USB_OTG_Driver/src/usb_core.c ****   
 224              		.loc 1 204 18 view .LVU35
 225 0008 D0F8D050 		ldr	r5, [r0, #208]	@ fifo, pdev_11(D)->regs.DFIFO[0]
 226              	.LVL14:
 227              		.loc 1 206 3 is_stmt 1 view .LVU36
 228              		.loc 1 206 16 view .LVU37
 229              	@ ../Libraries/STM32_USB_OTG_Driver/src/usb_core.c:206:   for ( i = 0; i < count32b; i++, dest += 4
 230              		.loc 1 206 3 is_stmt 0 view .LVU38
 231 000c 0BD0     		beq	.L13		@,
 232 000e 0A46     		mov	r2, r1	@ dest, dest
 233              	@ ../Libraries/STM32_USB_OTG_Driver/src/usb_core.c:206:   for ( i = 0; i < count32b; i++, dest += 4
 234              		.loc 1 206 11 view .LVU39
 235 0010 0023     		movs	r3, #0	@ i,
 236              	.LVL15:
 237              	.L12:
 207:../Libraries/STM32_USB_OTG_Driver/src/usb_core.c ****   {
 208:../Libraries/STM32_USB_OTG_Driver/src/usb_core.c ****     *(__packed uint32_t *)dest = USB_OTG_READ_REG32(fifo);
ARM GAS  C:\Users\admin\AppData\Local\Temp\ccFXFx3g.s 			page 9


 238              		.loc 1 208 5 is_stmt 1 discriminator 3 view .LVU40
 239              	@ ../Libraries/STM32_USB_OTG_Driver/src/usb_core.c:206:   for ( i = 0; i < count32b; i++, dest += 4
 206:../Libraries/STM32_USB_OTG_Driver/src/usb_core.c ****   {
 240              		.loc 1 206 31 is_stmt 0 discriminator 3 view .LVU41
 241 0012 0133     		adds	r3, r3, #1	@ i, i,
 242              	.LVL16:
 243              	@ ../Libraries/STM32_USB_OTG_Driver/src/usb_core.c:208:     *(__packed uint32_t *)dest = USB_OTG_RE
 244              		.loc 1 208 34 discriminator 3 view .LVU42
 245 0014 2C68     		ldr	r4, [r5]	@ _4, *fifo_12
 246              	@ ../Libraries/STM32_USB_OTG_Driver/src/usb_core.c:208:     *(__packed uint32_t *)dest = USB_OTG_RE
 247              		.loc 1 208 32 discriminator 3 view .LVU43
 248 0016 42F8044B 		str	r4, [r2], #4	@ _4, MEM[base: dest_20, offset: 0B]
 249              	.LVL17:
 206:../Libraries/STM32_USB_OTG_Driver/src/usb_core.c ****   {
 250              		.loc 1 206 30 is_stmt 1 discriminator 3 view .LVU44
 206:../Libraries/STM32_USB_OTG_Driver/src/usb_core.c ****   {
 251              		.loc 1 206 16 discriminator 3 view .LVU45
 252              	@ ../Libraries/STM32_USB_OTG_Driver/src/usb_core.c:206:   for ( i = 0; i < count32b; i++, dest += 4
 206:../Libraries/STM32_USB_OTG_Driver/src/usb_core.c ****   {
 253              		.loc 1 206 3 is_stmt 0 discriminator 3 view .LVU46
 254 001a 9C45     		cmp	ip, r3	@ count32b, i
 255 001c F9D1     		bne	.L12		@,
 256              	@ ../Libraries/STM32_USB_OTG_Driver/src/usb_core.c:206:   for ( i = 0; i < count32b; i++, dest += 4
 206:../Libraries/STM32_USB_OTG_Driver/src/usb_core.c ****   {
 257              		.loc 1 206 40 view .LVU47
 258 001e 01EB8C00 		add	r0, r1, ip, lsl #2	@ <retval>, dest, count32b,
 259              	.LVL18:
 260              	@ ../Libraries/STM32_USB_OTG_Driver/src/usb_core.c:212: }
 209:../Libraries/STM32_USB_OTG_Driver/src/usb_core.c ****     
 210:../Libraries/STM32_USB_OTG_Driver/src/usb_core.c ****   }
 211:../Libraries/STM32_USB_OTG_Driver/src/usb_core.c ****   return ((void *)dest);
 212:../Libraries/STM32_USB_OTG_Driver/src/usb_core.c **** }
 261              		.loc 1 212 1 view .LVU48
 262 0022 30BC     		pop	{r4, r5}	@
 263              		.cfi_remember_state
 264              		.cfi_restore 5
 265              		.cfi_restore 4
 266              		.cfi_def_cfa_offset 0
 267              	.LVL19:
 268              		.loc 1 212 1 view .LVU49
 269 0024 7047     		bx	lr	@
 270              	.LVL20:
 271              	.L13:
 272              		.cfi_restore_state
 273              	@ ../Libraries/STM32_USB_OTG_Driver/src/usb_core.c:206:   for ( i = 0; i < count32b; i++, dest += 4
 206:../Libraries/STM32_USB_OTG_Driver/src/usb_core.c ****   {
 274              		.loc 1 206 3 view .LVU50
 275 0026 0846     		mov	r0, r1	@ <retval>, dest
 276              	.LVL21:
 211:../Libraries/STM32_USB_OTG_Driver/src/usb_core.c **** }
 277              		.loc 1 211 3 is_stmt 1 view .LVU51
 278              	@ ../Libraries/STM32_USB_OTG_Driver/src/usb_core.c:212: }
 279              		.loc 1 212 1 is_stmt 0 view .LVU52
 280 0028 30BC     		pop	{r4, r5}	@
 281              		.cfi_restore 5
 282              		.cfi_restore 4
 283              		.cfi_def_cfa_offset 0
ARM GAS  C:\Users\admin\AppData\Local\Temp\ccFXFx3g.s 			page 10


 284              	.LVL22:
 285              		.loc 1 212 1 view .LVU53
 286 002a 7047     		bx	lr	@
 287              		.cfi_endproc
 288              	.LFE113:
 289              		.size	USB_OTG_ReadPacket, .-USB_OTG_ReadPacket
 290              		.section	.text.USB_OTG_SelectCore,"ax",%progbits
 291              		.align	1
 292              		.p2align 2,,3
 293              		.global	USB_OTG_SelectCore
 294              		.syntax unified
 295              		.thumb
 296              		.thumb_func
 297              		.type	USB_OTG_SelectCore, %function
 298              	USB_OTG_SelectCore:
 299              	.LVL23:
 300              	.LFB114:
 213:../Libraries/STM32_USB_OTG_Driver/src/usb_core.c **** 
 214:../Libraries/STM32_USB_OTG_Driver/src/usb_core.c **** /**
 215:../Libraries/STM32_USB_OTG_Driver/src/usb_core.c **** * @brief  USB_OTG_SelectCore 
 216:../Libraries/STM32_USB_OTG_Driver/src/usb_core.c **** *         Initialize core registers address.
 217:../Libraries/STM32_USB_OTG_Driver/src/usb_core.c **** * @param  pdev : Selected device
 218:../Libraries/STM32_USB_OTG_Driver/src/usb_core.c **** * @param  coreID : USB OTG Core ID
 219:../Libraries/STM32_USB_OTG_Driver/src/usb_core.c **** * @retval USB_OTG_STS : status
 220:../Libraries/STM32_USB_OTG_Driver/src/usb_core.c **** */
 221:../Libraries/STM32_USB_OTG_Driver/src/usb_core.c **** USB_OTG_STS USB_OTG_SelectCore(USB_OTG_CORE_HANDLE *pdev, 
 222:../Libraries/STM32_USB_OTG_Driver/src/usb_core.c ****                                USB_OTG_CORE_ID_TypeDef coreID)
 223:../Libraries/STM32_USB_OTG_Driver/src/usb_core.c **** {
 301              		.loc 1 223 1 is_stmt 1 view -0
 302              		.cfi_startproc
 303              		@ args = 0, pretend = 0, frame = 0
 304              		@ frame_needed = 0, uses_anonymous_args = 0
 305              		@ link register save eliminated.
 224:../Libraries/STM32_USB_OTG_Driver/src/usb_core.c ****   uint32_t i , baseAddress = 0;
 306              		.loc 1 224 3 view .LVU55
 225:../Libraries/STM32_USB_OTG_Driver/src/usb_core.c ****   USB_OTG_STS status = USB_OTG_OK;
 307              		.loc 1 225 3 view .LVU56
 226:../Libraries/STM32_USB_OTG_Driver/src/usb_core.c ****   
 227:../Libraries/STM32_USB_OTG_Driver/src/usb_core.c ****   pdev->cfg.dma_enable       = 0;
 308              		.loc 1 227 3 view .LVU57
 228:../Libraries/STM32_USB_OTG_Driver/src/usb_core.c ****   
 229:../Libraries/STM32_USB_OTG_Driver/src/usb_core.c ****   /* at startup the core is in FS mode */
 230:../Libraries/STM32_USB_OTG_Driver/src/usb_core.c ****   pdev->cfg.speed            = USB_OTG_SPEED_FULL;
 309              		.loc 1 230 3 view .LVU58
 310              	@ ../Libraries/STM32_USB_OTG_Driver/src/usb_core.c:230:   pdev->cfg.speed            = USB_OTG_SPEE
 311              		.loc 1 230 30 is_stmt 0 view .LVU59
 312 0000 0122     		movs	r2, #1	@ tmp249,
 313              	@ ../Libraries/STM32_USB_OTG_Driver/src/usb_core.c:231:   pdev->cfg.mps              = USB_OTG_FS_M
 231:../Libraries/STM32_USB_OTG_Driver/src/usb_core.c ****   pdev->cfg.mps              = USB_OTG_FS_MAX_PACKET_SIZE ;    
 314              		.loc 1 231 30 view .LVU60
 315 0002 4023     		movs	r3, #64	@ tmp251,
 316              	@ ../Libraries/STM32_USB_OTG_Driver/src/usb_core.c:234:   if (coreID == USB_OTG_FS_CORE_ID)
 232:../Libraries/STM32_USB_OTG_Driver/src/usb_core.c ****   
 233:../Libraries/STM32_USB_OTG_Driver/src/usb_core.c ****   /* initialize device cfg following its address */
 234:../Libraries/STM32_USB_OTG_Driver/src/usb_core.c ****   if (coreID == USB_OTG_FS_CORE_ID)
 317              		.loc 1 234 6 view .LVU61
 318 0004 9142     		cmp	r1, r2	@ coreID,
ARM GAS  C:\Users\admin\AppData\Local\Temp\ccFXFx3g.s 			page 11


 319              	@ ../Libraries/STM32_USB_OTG_Driver/src/usb_core.c:223: {
 223:../Libraries/STM32_USB_OTG_Driver/src/usb_core.c ****   uint32_t i , baseAddress = 0;
 320              		.loc 1 223 1 view .LVU62
 321 0006 F0B4     		push	{r4, r5, r6, r7}	@
 322              		.cfi_def_cfa_offset 16
 323              		.cfi_offset 4, -16
 324              		.cfi_offset 5, -12
 325              		.cfi_offset 6, -8
 326              		.cfi_offset 7, -4
 327              	@ ../Libraries/STM32_USB_OTG_Driver/src/usb_core.c:230:   pdev->cfg.speed            = USB_OTG_SPEE
 230:../Libraries/STM32_USB_OTG_Driver/src/usb_core.c ****   pdev->cfg.mps              = USB_OTG_FS_MAX_PACKET_SIZE ;    
 328              		.loc 1 230 30 view .LVU63
 329 0008 4280     		strh	r2, [r0, #2]	@ movhi	@ tmp249, MEM <vector(2) unsigned char> [(unsigned char *)pdev_38(D) + 2
 231:../Libraries/STM32_USB_OTG_Driver/src/usb_core.c ****   
 330              		.loc 1 231 3 is_stmt 1 view .LVU64
 331              	@ ../Libraries/STM32_USB_OTG_Driver/src/usb_core.c:231:   pdev->cfg.mps              = USB_OTG_FS_M
 231:../Libraries/STM32_USB_OTG_Driver/src/usb_core.c ****   
 332              		.loc 1 231 30 is_stmt 0 view .LVU65
 333 000a 8380     		strh	r3, [r0, #4]	@ movhi	@ tmp251, pdev_38(D)->cfg.mps
 334              		.loc 1 234 3 is_stmt 1 view .LVU66
 335              	@ ../Libraries/STM32_USB_OTG_Driver/src/usb_core.c:234:   if (coreID == USB_OTG_FS_CORE_ID)
 336              		.loc 1 234 6 is_stmt 0 view .LVU67
 337 000c 00F05F81 		beq	.L147		@,
 235:../Libraries/STM32_USB_OTG_Driver/src/usb_core.c ****   {
 236:../Libraries/STM32_USB_OTG_Driver/src/usb_core.c ****     baseAddress                = USB_OTG_FS_BASE_ADDR;
 237:../Libraries/STM32_USB_OTG_Driver/src/usb_core.c ****     pdev->cfg.coreID           = USB_OTG_FS_CORE_ID;
 238:../Libraries/STM32_USB_OTG_Driver/src/usb_core.c ****     pdev->cfg.host_channels    = 8 ;
 239:../Libraries/STM32_USB_OTG_Driver/src/usb_core.c ****     pdev->cfg.dev_endpoints    = 4 ;
 240:../Libraries/STM32_USB_OTG_Driver/src/usb_core.c ****     pdev->cfg.TotalFifoSize    = 320; /* in 32-bits */
 241:../Libraries/STM32_USB_OTG_Driver/src/usb_core.c ****     pdev->cfg.phy_itface       = USB_OTG_EMBEDDED_PHY;     
 242:../Libraries/STM32_USB_OTG_Driver/src/usb_core.c ****     
 243:../Libraries/STM32_USB_OTG_Driver/src/usb_core.c **** #ifdef USB_OTG_FS_SOF_OUTPUT_ENABLED    
 244:../Libraries/STM32_USB_OTG_Driver/src/usb_core.c ****     pdev->cfg.Sof_output       = 1;    
 245:../Libraries/STM32_USB_OTG_Driver/src/usb_core.c **** #endif 
 246:../Libraries/STM32_USB_OTG_Driver/src/usb_core.c ****     
 247:../Libraries/STM32_USB_OTG_Driver/src/usb_core.c **** #ifdef USB_OTG_FS_LOW_PWR_MGMT_SUPPORT    
 248:../Libraries/STM32_USB_OTG_Driver/src/usb_core.c ****     pdev->cfg.low_power        = 1;    
 249:../Libraries/STM32_USB_OTG_Driver/src/usb_core.c **** #endif     
 250:../Libraries/STM32_USB_OTG_Driver/src/usb_core.c ****   }
 251:../Libraries/STM32_USB_OTG_Driver/src/usb_core.c ****   else if (coreID == USB_OTG_HS_CORE_ID)
 338              		.loc 1 251 8 is_stmt 1 view .LVU68
 339              	@ ../Libraries/STM32_USB_OTG_Driver/src/usb_core.c:251:   else if (coreID == USB_OTG_HS_CORE_ID)
 340              		.loc 1 251 11 is_stmt 0 view .LVU69
 341 0010 0029     		cmp	r1, #0	@ coreID
 342 0012 40F04481 		bne	.L148	@
 252:../Libraries/STM32_USB_OTG_Driver/src/usb_core.c ****   {
 253:../Libraries/STM32_USB_OTG_Driver/src/usb_core.c ****     baseAddress                = USB_OTG_HS_BASE_ADDR;
 343              		.loc 1 253 5 is_stmt 1 view .LVU70
 344              	.LVL24:
 254:../Libraries/STM32_USB_OTG_Driver/src/usb_core.c ****     pdev->cfg.coreID           = USB_OTG_HS_CORE_ID;    
 345              		.loc 1 254 5 view .LVU71
 346              	@ ../Libraries/STM32_USB_OTG_Driver/src/usb_core.c:257:     pdev->cfg.TotalFifoSize    = 1280;/* in
 255:../Libraries/STM32_USB_OTG_Driver/src/usb_core.c ****     pdev->cfg.host_channels    = 12 ;
 256:../Libraries/STM32_USB_OTG_Driver/src/usb_core.c ****     pdev->cfg.dev_endpoints    = 6 ;
 257:../Libraries/STM32_USB_OTG_Driver/src/usb_core.c ****     pdev->cfg.TotalFifoSize    = 1280;/* in 32-bits */
 347              		.loc 1 257 32 is_stmt 0 view .LVU72
 348 0016 BC4C     		ldr	r4, .L150	@ prephitmp_269,
ARM GAS  C:\Users\admin\AppData\Local\Temp\ccFXFx3g.s 			page 12


 349 0018 BC4E     		ldr	r6, .L150+4	@ prephitmp_390,
 350 001a BD4F     		ldr	r7, .L150+8	@ prephitmp_459,
 351 001c BD4D     		ldr	r5, .L150+12	@ prephitmp_371,
 352 001e DFF804C3 		ldr	ip, .L150+28	@ prephitmp_270,
 353              	@ ../Libraries/STM32_USB_OTG_Driver/src/usb_core.c:254:     pdev->cfg.coreID           = USB_OTG_HS
 254:../Libraries/STM32_USB_OTG_Driver/src/usb_core.c ****     pdev->cfg.coreID           = USB_OTG_HS_CORE_ID;    
 354              		.loc 1 254 32 view .LVU73
 355 0022 C172     		strb	r1, [r0, #11]	@ coreID, pdev_38(D)->cfg.coreID
 255:../Libraries/STM32_USB_OTG_Driver/src/usb_core.c ****     pdev->cfg.host_channels    = 12 ;
 356              		.loc 1 255 5 is_stmt 1 view .LVU74
 256:../Libraries/STM32_USB_OTG_Driver/src/usb_core.c ****     pdev->cfg.TotalFifoSize    = 1280;/* in 32-bits */
 357              		.loc 1 256 5 view .LVU75
 358              	@ ../Libraries/STM32_USB_OTG_Driver/src/usb_core.c:255:     pdev->cfg.host_channels    = 12 ;
 255:../Libraries/STM32_USB_OTG_Driver/src/usb_core.c ****     pdev->cfg.host_channels    = 12 ;
 359              		.loc 1 255 32 is_stmt 0 view .LVU76
 360 0024 40F20C62 		movw	r2, #1548	@ tmp265,
 361              	@ ../Libraries/STM32_USB_OTG_Driver/src/usb_core.c:257:     pdev->cfg.TotalFifoSize    = 1280;/* in
 362              		.loc 1 257 32 view .LVU77
 363 0028 4FF4A063 		mov	r3, #1280	@ tmp267,
 364              	@ ../Libraries/STM32_USB_OTG_Driver/src/usb_core.c:255:     pdev->cfg.host_channels    = 12 ;
 255:../Libraries/STM32_USB_OTG_Driver/src/usb_core.c ****     pdev->cfg.host_channels    = 12 ;
 365              		.loc 1 255 32 view .LVU78
 366 002c 0280     		strh	r2, [r0]	@ movhi	@ tmp265, MEM <vector(2) unsigned char> [(unsigned char *)pdev_38(D)]
 367              		.loc 1 257 5 is_stmt 1 view .LVU79
 368              	@ ../Libraries/STM32_USB_OTG_Driver/src/usb_core.c:257:     pdev->cfg.TotalFifoSize    = 1280;/* in
 369              		.loc 1 257 32 is_stmt 0 view .LVU80
 370 002e C380     		strh	r3, [r0, #6]	@ movhi	@ tmp267, pdev_38(D)->cfg.TotalFifoSize
 371 0030 0621     		movs	r1, #6	@ prephitmp_280,
 372              	.LVL25:
 373              		.loc 1 257 32 view .LVU81
 374 0032 0C22     		movs	r2, #12	@ prephitmp_457,
 375              	@ ../Libraries/STM32_USB_OTG_Driver/src/usb_core.c:253:     baseAddress                = USB_OTG_HS
 253:../Libraries/STM32_USB_OTG_Driver/src/usb_core.c ****     pdev->cfg.coreID           = USB_OTG_HS_CORE_ID;    
 376              		.loc 1 253 32 view .LVU82
 377 0034 2346     		mov	r3, r4	@ baseAddress, prephitmp_269
 378              	.LVL26:
 379              	.L18:
 258:../Libraries/STM32_USB_OTG_Driver/src/usb_core.c ****     
 259:../Libraries/STM32_USB_OTG_Driver/src/usb_core.c **** #ifdef USB_OTG_ULPI_PHY_ENABLED
 260:../Libraries/STM32_USB_OTG_Driver/src/usb_core.c ****     pdev->cfg.phy_itface       = USB_OTG_ULPI_PHY;
 261:../Libraries/STM32_USB_OTG_Driver/src/usb_core.c **** #else    
 262:../Libraries/STM32_USB_OTG_Driver/src/usb_core.c **** #ifdef USB_OTG_EMBEDDED_PHY_ENABLED
 263:../Libraries/STM32_USB_OTG_Driver/src/usb_core.c ****     pdev->cfg.phy_itface       = USB_OTG_EMBEDDED_PHY;
 264:../Libraries/STM32_USB_OTG_Driver/src/usb_core.c **** #endif  
 265:../Libraries/STM32_USB_OTG_Driver/src/usb_core.c **** #endif      
 266:../Libraries/STM32_USB_OTG_Driver/src/usb_core.c ****     
 267:../Libraries/STM32_USB_OTG_Driver/src/usb_core.c **** #ifdef USB_OTG_HS_INTERNAL_DMA_ENABLED    
 268:../Libraries/STM32_USB_OTG_Driver/src/usb_core.c ****     pdev->cfg.dma_enable       = 1;    
 269:../Libraries/STM32_USB_OTG_Driver/src/usb_core.c **** #endif
 270:../Libraries/STM32_USB_OTG_Driver/src/usb_core.c ****     
 271:../Libraries/STM32_USB_OTG_Driver/src/usb_core.c **** #ifdef USB_OTG_HS_SOF_OUTPUT_ENABLED    
 272:../Libraries/STM32_USB_OTG_Driver/src/usb_core.c ****     pdev->cfg.Sof_output       = 1;    
 273:../Libraries/STM32_USB_OTG_Driver/src/usb_core.c **** #endif 
 274:../Libraries/STM32_USB_OTG_Driver/src/usb_core.c ****     
 275:../Libraries/STM32_USB_OTG_Driver/src/usb_core.c **** #ifdef USB_OTG_HS_LOW_PWR_MGMT_SUPPORT    
 276:../Libraries/STM32_USB_OTG_Driver/src/usb_core.c ****     pdev->cfg.low_power        = 1;    
 277:../Libraries/STM32_USB_OTG_Driver/src/usb_core.c **** #endif 
ARM GAS  C:\Users\admin\AppData\Local\Temp\ccFXFx3g.s 			page 13


 278:../Libraries/STM32_USB_OTG_Driver/src/usb_core.c ****     
 279:../Libraries/STM32_USB_OTG_Driver/src/usb_core.c ****   }
 280:../Libraries/STM32_USB_OTG_Driver/src/usb_core.c ****   
 281:../Libraries/STM32_USB_OTG_Driver/src/usb_core.c ****   pdev->regs.GREGS = (USB_OTG_GREGS *)(baseAddress + \
 380              		.loc 1 281 3 is_stmt 1 view .LVU83
 381              	@ ../Libraries/STM32_USB_OTG_Driver/src/usb_core.c:283:   pdev->regs.DREGS =  (USB_OTG_DREGS  *)  (
 282:../Libraries/STM32_USB_OTG_Driver/src/usb_core.c ****     USB_OTG_CORE_GLOBAL_REGS_OFFSET);
 283:../Libraries/STM32_USB_OTG_Driver/src/usb_core.c ****   pdev->regs.DREGS =  (USB_OTG_DREGS  *)  (baseAddress + \
 382              		.loc 1 283 20 is_stmt 0 view .LVU84
 383 0036 C0E9034C 		strd	r4, ip, [r0, #12]	@ prephitmp_269, prephitmp_270, pdev,
 284:../Libraries/STM32_USB_OTG_Driver/src/usb_core.c ****     USB_OTG_DEV_GLOBAL_REG_OFFSET);
 285:../Libraries/STM32_USB_OTG_Driver/src/usb_core.c ****   
 286:../Libraries/STM32_USB_OTG_Driver/src/usb_core.c ****   for (i = 0; i < pdev->cfg.dev_endpoints; i++)
 384              		.loc 1 286 3 is_stmt 1 view .LVU85
 385              	.LVL27:
 386              		.loc 1 286 15 view .LVU86
 287:../Libraries/STM32_USB_OTG_Driver/src/usb_core.c ****   {
 288:../Libraries/STM32_USB_OTG_Driver/src/usb_core.c ****     pdev->regs.INEP_REGS[i]  = (USB_OTG_INEPREGS *)  \
 387              		.loc 1 288 5 view .LVU87
 388              	@ ../Libraries/STM32_USB_OTG_Driver/src/usb_core.c:289:       (baseAddress + USB_OTG_DEV_IN_EP_REG_
 289:../Libraries/STM32_USB_OTG_Driver/src/usb_core.c ****       (baseAddress + USB_OTG_DEV_IN_EP_REG_OFFSET + \
 389              		.loc 1 289 51 is_stmt 0 view .LVU88
 390 003a 03F51064 		add	r4, r3, #2304	@ tmp330, baseAddress,
 391              	@ ../Libraries/STM32_USB_OTG_Driver/src/usb_core.c:288:     pdev->regs.INEP_REGS[i]  = (USB_OTG_INE
 288:../Libraries/STM32_USB_OTG_Driver/src/usb_core.c ****       (baseAddress + USB_OTG_DEV_IN_EP_REG_OFFSET + \
 392              		.loc 1 288 30 view .LVU89
 393 003e 8461     		str	r4, [r0, #24]	@ tmp330, MEM <struct USB_OTG_INEPREGS *> [(struct USB_OTG_CORE_HANDLE *)pdev_38
 290:../Libraries/STM32_USB_OTG_Driver/src/usb_core.c ****         (i * USB_OTG_EP_REG_OFFSET));
 291:../Libraries/STM32_USB_OTG_Driver/src/usb_core.c ****     pdev->regs.OUTEP_REGS[i] = (USB_OTG_OUTEPREGS *) \
 394              		.loc 1 291 5 is_stmt 1 view .LVU90
 395              	@ ../Libraries/STM32_USB_OTG_Driver/src/usb_core.c:292:       (baseAddress + USB_OTG_DEV_OUT_EP_REG
 292:../Libraries/STM32_USB_OTG_Driver/src/usb_core.c ****       (baseAddress + USB_OTG_DEV_OUT_EP_REG_OFFSET + \
 396              		.loc 1 292 52 is_stmt 0 view .LVU91
 397 0040 03F53064 		add	r4, r3, #2816	@ tmp331, baseAddress,
 398              	@ ../Libraries/STM32_USB_OTG_Driver/src/usb_core.c:291:     pdev->regs.OUTEP_REGS[i] = (USB_OTG_OUT
 291:../Libraries/STM32_USB_OTG_Driver/src/usb_core.c ****       (baseAddress + USB_OTG_DEV_OUT_EP_REG_OFFSET + \
 399              		.loc 1 291 30 view .LVU92
 400 0044 4465     		str	r4, [r0, #84]	@ tmp331, MEM <struct USB_OTG_OUTEPREGS *> [(struct USB_OTG_CORE_HANDLE *)pdev_3
 286:../Libraries/STM32_USB_OTG_Driver/src/usb_core.c ****   {
 401              		.loc 1 286 44 is_stmt 1 view .LVU93
 402              	.LVL28:
 286:../Libraries/STM32_USB_OTG_Driver/src/usb_core.c ****   {
 403              		.loc 1 286 15 view .LVU94
 404              	.L29:
 288:../Libraries/STM32_USB_OTG_Driver/src/usb_core.c ****       (baseAddress + USB_OTG_DEV_IN_EP_REG_OFFSET + \
 405              		.loc 1 288 5 view .LVU95
 406              	@ ../Libraries/STM32_USB_OTG_Driver/src/usb_core.c:289:       (baseAddress + USB_OTG_DEV_IN_EP_REG_
 289:../Libraries/STM32_USB_OTG_Driver/src/usb_core.c ****         (i * USB_OTG_EP_REG_OFFSET));
 407              		.loc 1 289 51 is_stmt 0 view .LVU96
 408 0046 03F51264 		add	r4, r3, #2336	@ tmp270, baseAddress,
 409              	@ ../Libraries/STM32_USB_OTG_Driver/src/usb_core.c:288:     pdev->regs.INEP_REGS[i]  = (USB_OTG_INE
 288:../Libraries/STM32_USB_OTG_Driver/src/usb_core.c ****       (baseAddress + USB_OTG_DEV_IN_EP_REG_OFFSET + \
 410              		.loc 1 288 30 view .LVU97
 411 004a C461     		str	r4, [r0, #28]	@ tmp270, MEM <struct USB_OTG_INEPREGS *> [(struct USB_OTG_CORE_HANDLE *)pdev_38
 291:../Libraries/STM32_USB_OTG_Driver/src/usb_core.c ****       (baseAddress + USB_OTG_DEV_OUT_EP_REG_OFFSET + \
 412              		.loc 1 291 5 is_stmt 1 view .LVU98
 413              	@ ../Libraries/STM32_USB_OTG_Driver/src/usb_core.c:286:   for (i = 0; i < pdev->cfg.dev_endpoints; 
ARM GAS  C:\Users\admin\AppData\Local\Temp\ccFXFx3g.s 			page 14


 286:../Libraries/STM32_USB_OTG_Driver/src/usb_core.c ****   {
 414              		.loc 1 286 3 is_stmt 0 view .LVU99
 415 004c 0229     		cmp	r1, #2	@ prephitmp_280,
 416              	@ ../Libraries/STM32_USB_OTG_Driver/src/usb_core.c:292:       (baseAddress + USB_OTG_DEV_OUT_EP_REG
 417              		.loc 1 292 52 view .LVU100
 418 004e 03F53264 		add	r4, r3, #2848	@ tmp271, baseAddress,
 419              	@ ../Libraries/STM32_USB_OTG_Driver/src/usb_core.c:291:     pdev->regs.OUTEP_REGS[i] = (USB_OTG_OUT
 291:../Libraries/STM32_USB_OTG_Driver/src/usb_core.c ****       (baseAddress + USB_OTG_DEV_OUT_EP_REG_OFFSET + \
 420              		.loc 1 291 30 view .LVU101
 421 0052 8465     		str	r4, [r0, #88]	@ tmp271, MEM <struct USB_OTG_OUTEPREGS *> [(struct USB_OTG_CORE_HANDLE *)pdev_3
 286:../Libraries/STM32_USB_OTG_Driver/src/usb_core.c ****   {
 422              		.loc 1 286 44 is_stmt 1 view .LVU102
 423              	.LVL29:
 286:../Libraries/STM32_USB_OTG_Driver/src/usb_core.c ****   {
 424              		.loc 1 286 15 view .LVU103
 425              	@ ../Libraries/STM32_USB_OTG_Driver/src/usb_core.c:286:   for (i = 0; i < pdev->cfg.dev_endpoints; 
 286:../Libraries/STM32_USB_OTG_Driver/src/usb_core.c ****   {
 426              		.loc 1 286 3 is_stmt 0 view .LVU104
 427 0054 69D0     		beq	.L21		@,
 288:../Libraries/STM32_USB_OTG_Driver/src/usb_core.c ****       (baseAddress + USB_OTG_DEV_IN_EP_REG_OFFSET + \
 428              		.loc 1 288 5 is_stmt 1 view .LVU105
 429              	@ ../Libraries/STM32_USB_OTG_Driver/src/usb_core.c:289:       (baseAddress + USB_OTG_DEV_IN_EP_REG_
 289:../Libraries/STM32_USB_OTG_Driver/src/usb_core.c ****         (i * USB_OTG_EP_REG_OFFSET));
 430              		.loc 1 289 51 is_stmt 0 view .LVU106
 431 0056 03F51464 		add	r4, r3, #2368	@ tmp272, baseAddress,
 432              	@ ../Libraries/STM32_USB_OTG_Driver/src/usb_core.c:288:     pdev->regs.INEP_REGS[i]  = (USB_OTG_INE
 288:../Libraries/STM32_USB_OTG_Driver/src/usb_core.c ****       (baseAddress + USB_OTG_DEV_IN_EP_REG_OFFSET + \
 433              		.loc 1 288 30 view .LVU107
 434 005a 0462     		str	r4, [r0, #32]	@ tmp272, MEM <struct USB_OTG_INEPREGS *> [(struct USB_OTG_CORE_HANDLE *)pdev_38
 291:../Libraries/STM32_USB_OTG_Driver/src/usb_core.c ****       (baseAddress + USB_OTG_DEV_OUT_EP_REG_OFFSET + \
 435              		.loc 1 291 5 is_stmt 1 view .LVU108
 436              	@ ../Libraries/STM32_USB_OTG_Driver/src/usb_core.c:286:   for (i = 0; i < pdev->cfg.dev_endpoints; 
 286:../Libraries/STM32_USB_OTG_Driver/src/usb_core.c ****   {
 437              		.loc 1 286 3 is_stmt 0 view .LVU109
 438 005c 0329     		cmp	r1, #3	@ prephitmp_280,
 439              	@ ../Libraries/STM32_USB_OTG_Driver/src/usb_core.c:292:       (baseAddress + USB_OTG_DEV_OUT_EP_REG
 440              		.loc 1 292 52 view .LVU110
 441 005e 03F53464 		add	r4, r3, #2880	@ tmp273, baseAddress,
 442              	@ ../Libraries/STM32_USB_OTG_Driver/src/usb_core.c:291:     pdev->regs.OUTEP_REGS[i] = (USB_OTG_OUT
 291:../Libraries/STM32_USB_OTG_Driver/src/usb_core.c ****       (baseAddress + USB_OTG_DEV_OUT_EP_REG_OFFSET + \
 443              		.loc 1 291 30 view .LVU111
 444 0062 C465     		str	r4, [r0, #92]	@ tmp273, MEM <struct USB_OTG_OUTEPREGS *> [(struct USB_OTG_CORE_HANDLE *)pdev_3
 286:../Libraries/STM32_USB_OTG_Driver/src/usb_core.c ****   {
 445              		.loc 1 286 44 is_stmt 1 view .LVU112
 446              	.LVL30:
 286:../Libraries/STM32_USB_OTG_Driver/src/usb_core.c ****   {
 447              		.loc 1 286 15 view .LVU113
 448              	@ ../Libraries/STM32_USB_OTG_Driver/src/usb_core.c:286:   for (i = 0; i < pdev->cfg.dev_endpoints; 
 286:../Libraries/STM32_USB_OTG_Driver/src/usb_core.c ****   {
 449              		.loc 1 286 3 is_stmt 0 view .LVU114
 450 0064 61D0     		beq	.L21		@,
 288:../Libraries/STM32_USB_OTG_Driver/src/usb_core.c ****       (baseAddress + USB_OTG_DEV_IN_EP_REG_OFFSET + \
 451              		.loc 1 288 5 is_stmt 1 view .LVU115
 452              	@ ../Libraries/STM32_USB_OTG_Driver/src/usb_core.c:289:       (baseAddress + USB_OTG_DEV_IN_EP_REG_
 289:../Libraries/STM32_USB_OTG_Driver/src/usb_core.c ****         (i * USB_OTG_EP_REG_OFFSET));
 453              		.loc 1 289 51 is_stmt 0 view .LVU116
 454 0066 03F51664 		add	r4, r3, #2400	@ tmp274, baseAddress,
ARM GAS  C:\Users\admin\AppData\Local\Temp\ccFXFx3g.s 			page 15


 455              	@ ../Libraries/STM32_USB_OTG_Driver/src/usb_core.c:288:     pdev->regs.INEP_REGS[i]  = (USB_OTG_INE
 288:../Libraries/STM32_USB_OTG_Driver/src/usb_core.c ****       (baseAddress + USB_OTG_DEV_IN_EP_REG_OFFSET + \
 456              		.loc 1 288 30 view .LVU117
 457 006a 4462     		str	r4, [r0, #36]	@ tmp274, MEM <struct USB_OTG_INEPREGS *> [(struct USB_OTG_CORE_HANDLE *)pdev_38
 291:../Libraries/STM32_USB_OTG_Driver/src/usb_core.c ****       (baseAddress + USB_OTG_DEV_OUT_EP_REG_OFFSET + \
 458              		.loc 1 291 5 is_stmt 1 view .LVU118
 459              	@ ../Libraries/STM32_USB_OTG_Driver/src/usb_core.c:286:   for (i = 0; i < pdev->cfg.dev_endpoints; 
 286:../Libraries/STM32_USB_OTG_Driver/src/usb_core.c ****   {
 460              		.loc 1 286 3 is_stmt 0 view .LVU119
 461 006c 0429     		cmp	r1, #4	@ prephitmp_280,
 462              	@ ../Libraries/STM32_USB_OTG_Driver/src/usb_core.c:292:       (baseAddress + USB_OTG_DEV_OUT_EP_REG
 463              		.loc 1 292 52 view .LVU120
 464 006e 03F53664 		add	r4, r3, #2912	@ tmp275, baseAddress,
 465              	@ ../Libraries/STM32_USB_OTG_Driver/src/usb_core.c:291:     pdev->regs.OUTEP_REGS[i] = (USB_OTG_OUT
 291:../Libraries/STM32_USB_OTG_Driver/src/usb_core.c ****       (baseAddress + USB_OTG_DEV_OUT_EP_REG_OFFSET + \
 466              		.loc 1 291 30 view .LVU121
 467 0072 0466     		str	r4, [r0, #96]	@ tmp275, MEM <struct USB_OTG_OUTEPREGS *> [(struct USB_OTG_CORE_HANDLE *)pdev_3
 286:../Libraries/STM32_USB_OTG_Driver/src/usb_core.c ****   {
 468              		.loc 1 286 44 is_stmt 1 view .LVU122
 469              	.LVL31:
 286:../Libraries/STM32_USB_OTG_Driver/src/usb_core.c ****   {
 470              		.loc 1 286 15 view .LVU123
 471              	@ ../Libraries/STM32_USB_OTG_Driver/src/usb_core.c:286:   for (i = 0; i < pdev->cfg.dev_endpoints; 
 286:../Libraries/STM32_USB_OTG_Driver/src/usb_core.c ****   {
 472              		.loc 1 286 3 is_stmt 0 view .LVU124
 473 0074 59D0     		beq	.L21		@,
 288:../Libraries/STM32_USB_OTG_Driver/src/usb_core.c ****       (baseAddress + USB_OTG_DEV_IN_EP_REG_OFFSET + \
 474              		.loc 1 288 5 is_stmt 1 view .LVU125
 475              	@ ../Libraries/STM32_USB_OTG_Driver/src/usb_core.c:289:       (baseAddress + USB_OTG_DEV_IN_EP_REG_
 289:../Libraries/STM32_USB_OTG_Driver/src/usb_core.c ****         (i * USB_OTG_EP_REG_OFFSET));
 476              		.loc 1 289 51 is_stmt 0 view .LVU126
 477 0076 03F51864 		add	r4, r3, #2432	@ tmp276, baseAddress,
 478              	@ ../Libraries/STM32_USB_OTG_Driver/src/usb_core.c:288:     pdev->regs.INEP_REGS[i]  = (USB_OTG_INE
 288:../Libraries/STM32_USB_OTG_Driver/src/usb_core.c ****       (baseAddress + USB_OTG_DEV_IN_EP_REG_OFFSET + \
 479              		.loc 1 288 30 view .LVU127
 480 007a 8462     		str	r4, [r0, #40]	@ tmp276, MEM <struct USB_OTG_INEPREGS *> [(struct USB_OTG_CORE_HANDLE *)pdev_38
 291:../Libraries/STM32_USB_OTG_Driver/src/usb_core.c ****       (baseAddress + USB_OTG_DEV_OUT_EP_REG_OFFSET + \
 481              		.loc 1 291 5 is_stmt 1 view .LVU128
 482              	@ ../Libraries/STM32_USB_OTG_Driver/src/usb_core.c:286:   for (i = 0; i < pdev->cfg.dev_endpoints; 
 286:../Libraries/STM32_USB_OTG_Driver/src/usb_core.c ****   {
 483              		.loc 1 286 3 is_stmt 0 view .LVU129
 484 007c 0529     		cmp	r1, #5	@ prephitmp_280,
 485              	@ ../Libraries/STM32_USB_OTG_Driver/src/usb_core.c:292:       (baseAddress + USB_OTG_DEV_OUT_EP_REG
 486              		.loc 1 292 52 view .LVU130
 487 007e 03F53864 		add	r4, r3, #2944	@ tmp277, baseAddress,
 488              	@ ../Libraries/STM32_USB_OTG_Driver/src/usb_core.c:291:     pdev->regs.OUTEP_REGS[i] = (USB_OTG_OUT
 291:../Libraries/STM32_USB_OTG_Driver/src/usb_core.c ****       (baseAddress + USB_OTG_DEV_OUT_EP_REG_OFFSET + \
 489              		.loc 1 291 30 view .LVU131
 490 0082 4466     		str	r4, [r0, #100]	@ tmp277, MEM <struct USB_OTG_OUTEPREGS *> [(struct USB_OTG_CORE_HANDLE *)pdev_
 286:../Libraries/STM32_USB_OTG_Driver/src/usb_core.c ****   {
 491              		.loc 1 286 44 is_stmt 1 view .LVU132
 492              	.LVL32:
 286:../Libraries/STM32_USB_OTG_Driver/src/usb_core.c ****   {
 493              		.loc 1 286 15 view .LVU133
 494              	@ ../Libraries/STM32_USB_OTG_Driver/src/usb_core.c:286:   for (i = 0; i < pdev->cfg.dev_endpoints; 
 286:../Libraries/STM32_USB_OTG_Driver/src/usb_core.c ****   {
 495              		.loc 1 286 3 is_stmt 0 view .LVU134
ARM GAS  C:\Users\admin\AppData\Local\Temp\ccFXFx3g.s 			page 16


 496 0084 51D0     		beq	.L21		@,
 288:../Libraries/STM32_USB_OTG_Driver/src/usb_core.c ****       (baseAddress + USB_OTG_DEV_IN_EP_REG_OFFSET + \
 497              		.loc 1 288 5 is_stmt 1 view .LVU135
 498              	@ ../Libraries/STM32_USB_OTG_Driver/src/usb_core.c:289:       (baseAddress + USB_OTG_DEV_IN_EP_REG_
 289:../Libraries/STM32_USB_OTG_Driver/src/usb_core.c ****         (i * USB_OTG_EP_REG_OFFSET));
 499              		.loc 1 289 51 is_stmt 0 view .LVU136
 500 0086 03F51A64 		add	r4, r3, #2464	@ tmp278, baseAddress,
 501              	@ ../Libraries/STM32_USB_OTG_Driver/src/usb_core.c:288:     pdev->regs.INEP_REGS[i]  = (USB_OTG_INE
 288:../Libraries/STM32_USB_OTG_Driver/src/usb_core.c ****       (baseAddress + USB_OTG_DEV_IN_EP_REG_OFFSET + \
 502              		.loc 1 288 30 view .LVU137
 503 008a C462     		str	r4, [r0, #44]	@ tmp278, MEM <struct USB_OTG_INEPREGS *> [(struct USB_OTG_CORE_HANDLE *)pdev_38
 291:../Libraries/STM32_USB_OTG_Driver/src/usb_core.c ****       (baseAddress + USB_OTG_DEV_OUT_EP_REG_OFFSET + \
 504              		.loc 1 291 5 is_stmt 1 view .LVU138
 505              	@ ../Libraries/STM32_USB_OTG_Driver/src/usb_core.c:286:   for (i = 0; i < pdev->cfg.dev_endpoints; 
 286:../Libraries/STM32_USB_OTG_Driver/src/usb_core.c ****   {
 506              		.loc 1 286 3 is_stmt 0 view .LVU139
 507 008c 0629     		cmp	r1, #6	@ prephitmp_280,
 508              	@ ../Libraries/STM32_USB_OTG_Driver/src/usb_core.c:292:       (baseAddress + USB_OTG_DEV_OUT_EP_REG
 509              		.loc 1 292 52 view .LVU140
 510 008e 03F53A64 		add	r4, r3, #2976	@ tmp279, baseAddress,
 511              	@ ../Libraries/STM32_USB_OTG_Driver/src/usb_core.c:291:     pdev->regs.OUTEP_REGS[i] = (USB_OTG_OUT
 291:../Libraries/STM32_USB_OTG_Driver/src/usb_core.c ****       (baseAddress + USB_OTG_DEV_OUT_EP_REG_OFFSET + \
 512              		.loc 1 291 30 view .LVU141
 513 0092 8466     		str	r4, [r0, #104]	@ tmp279, MEM <struct USB_OTG_OUTEPREGS *> [(struct USB_OTG_CORE_HANDLE *)pdev_
 286:../Libraries/STM32_USB_OTG_Driver/src/usb_core.c ****   {
 514              		.loc 1 286 44 is_stmt 1 view .LVU142
 515              	.LVL33:
 286:../Libraries/STM32_USB_OTG_Driver/src/usb_core.c ****   {
 516              		.loc 1 286 15 view .LVU143
 517              	@ ../Libraries/STM32_USB_OTG_Driver/src/usb_core.c:286:   for (i = 0; i < pdev->cfg.dev_endpoints; 
 286:../Libraries/STM32_USB_OTG_Driver/src/usb_core.c ****   {
 518              		.loc 1 286 3 is_stmt 0 view .LVU144
 519 0094 49D0     		beq	.L21		@,
 288:../Libraries/STM32_USB_OTG_Driver/src/usb_core.c ****       (baseAddress + USB_OTG_DEV_IN_EP_REG_OFFSET + \
 520              		.loc 1 288 5 is_stmt 1 view .LVU145
 521              	@ ../Libraries/STM32_USB_OTG_Driver/src/usb_core.c:289:       (baseAddress + USB_OTG_DEV_IN_EP_REG_
 289:../Libraries/STM32_USB_OTG_Driver/src/usb_core.c ****         (i * USB_OTG_EP_REG_OFFSET));
 522              		.loc 1 289 51 is_stmt 0 view .LVU146
 523 0096 03F51C64 		add	r4, r3, #2496	@ tmp280, baseAddress,
 524              	@ ../Libraries/STM32_USB_OTG_Driver/src/usb_core.c:288:     pdev->regs.INEP_REGS[i]  = (USB_OTG_INE
 288:../Libraries/STM32_USB_OTG_Driver/src/usb_core.c ****       (baseAddress + USB_OTG_DEV_IN_EP_REG_OFFSET + \
 525              		.loc 1 288 30 view .LVU147
 526 009a 0463     		str	r4, [r0, #48]	@ tmp280, MEM <struct USB_OTG_INEPREGS *> [(struct USB_OTG_CORE_HANDLE *)pdev_38
 291:../Libraries/STM32_USB_OTG_Driver/src/usb_core.c ****       (baseAddress + USB_OTG_DEV_OUT_EP_REG_OFFSET + \
 527              		.loc 1 291 5 is_stmt 1 view .LVU148
 528              	@ ../Libraries/STM32_USB_OTG_Driver/src/usb_core.c:286:   for (i = 0; i < pdev->cfg.dev_endpoints; 
 286:../Libraries/STM32_USB_OTG_Driver/src/usb_core.c ****   {
 529              		.loc 1 286 3 is_stmt 0 view .LVU149
 530 009c 0729     		cmp	r1, #7	@ prephitmp_280,
 531              	@ ../Libraries/STM32_USB_OTG_Driver/src/usb_core.c:292:       (baseAddress + USB_OTG_DEV_OUT_EP_REG
 532              		.loc 1 292 52 view .LVU150
 533 009e 03F53C64 		add	r4, r3, #3008	@ tmp281, baseAddress,
 534              	@ ../Libraries/STM32_USB_OTG_Driver/src/usb_core.c:291:     pdev->regs.OUTEP_REGS[i] = (USB_OTG_OUT
 291:../Libraries/STM32_USB_OTG_Driver/src/usb_core.c ****       (baseAddress + USB_OTG_DEV_OUT_EP_REG_OFFSET + \
 535              		.loc 1 291 30 view .LVU151
 536 00a2 C466     		str	r4, [r0, #108]	@ tmp281, MEM <struct USB_OTG_OUTEPREGS *> [(struct USB_OTG_CORE_HANDLE *)pdev_
 286:../Libraries/STM32_USB_OTG_Driver/src/usb_core.c ****   {
ARM GAS  C:\Users\admin\AppData\Local\Temp\ccFXFx3g.s 			page 17


 537              		.loc 1 286 44 is_stmt 1 view .LVU152
 538              	.LVL34:
 286:../Libraries/STM32_USB_OTG_Driver/src/usb_core.c ****   {
 539              		.loc 1 286 15 view .LVU153
 540              	@ ../Libraries/STM32_USB_OTG_Driver/src/usb_core.c:286:   for (i = 0; i < pdev->cfg.dev_endpoints; 
 286:../Libraries/STM32_USB_OTG_Driver/src/usb_core.c ****   {
 541              		.loc 1 286 3 is_stmt 0 view .LVU154
 542 00a4 41D0     		beq	.L21		@,
 288:../Libraries/STM32_USB_OTG_Driver/src/usb_core.c ****       (baseAddress + USB_OTG_DEV_IN_EP_REG_OFFSET + \
 543              		.loc 1 288 5 is_stmt 1 view .LVU155
 544              	@ ../Libraries/STM32_USB_OTG_Driver/src/usb_core.c:289:       (baseAddress + USB_OTG_DEV_IN_EP_REG_
 289:../Libraries/STM32_USB_OTG_Driver/src/usb_core.c ****         (i * USB_OTG_EP_REG_OFFSET));
 545              		.loc 1 289 51 is_stmt 0 view .LVU156
 546 00a6 03F51E64 		add	r4, r3, #2528	@ tmp282, baseAddress,
 547              	@ ../Libraries/STM32_USB_OTG_Driver/src/usb_core.c:288:     pdev->regs.INEP_REGS[i]  = (USB_OTG_INE
 288:../Libraries/STM32_USB_OTG_Driver/src/usb_core.c ****       (baseAddress + USB_OTG_DEV_IN_EP_REG_OFFSET + \
 548              		.loc 1 288 30 view .LVU157
 549 00aa 4463     		str	r4, [r0, #52]	@ tmp282, MEM <struct USB_OTG_INEPREGS *> [(struct USB_OTG_CORE_HANDLE *)pdev_38
 291:../Libraries/STM32_USB_OTG_Driver/src/usb_core.c ****       (baseAddress + USB_OTG_DEV_OUT_EP_REG_OFFSET + \
 550              		.loc 1 291 5 is_stmt 1 view .LVU158
 551              	@ ../Libraries/STM32_USB_OTG_Driver/src/usb_core.c:286:   for (i = 0; i < pdev->cfg.dev_endpoints; 
 286:../Libraries/STM32_USB_OTG_Driver/src/usb_core.c ****   {
 552              		.loc 1 286 3 is_stmt 0 view .LVU159
 553 00ac 0829     		cmp	r1, #8	@ prephitmp_280,
 554              	@ ../Libraries/STM32_USB_OTG_Driver/src/usb_core.c:292:       (baseAddress + USB_OTG_DEV_OUT_EP_REG
 555              		.loc 1 292 52 view .LVU160
 556 00ae 03F53E64 		add	r4, r3, #3040	@ tmp283, baseAddress,
 557              	@ ../Libraries/STM32_USB_OTG_Driver/src/usb_core.c:291:     pdev->regs.OUTEP_REGS[i] = (USB_OTG_OUT
 291:../Libraries/STM32_USB_OTG_Driver/src/usb_core.c ****       (baseAddress + USB_OTG_DEV_OUT_EP_REG_OFFSET + \
 558              		.loc 1 291 30 view .LVU161
 559 00b2 0467     		str	r4, [r0, #112]	@ tmp283, MEM <struct USB_OTG_OUTEPREGS *> [(struct USB_OTG_CORE_HANDLE *)pdev_
 286:../Libraries/STM32_USB_OTG_Driver/src/usb_core.c ****   {
 560              		.loc 1 286 44 is_stmt 1 view .LVU162
 561              	.LVL35:
 286:../Libraries/STM32_USB_OTG_Driver/src/usb_core.c ****   {
 562              		.loc 1 286 15 view .LVU163
 563              	@ ../Libraries/STM32_USB_OTG_Driver/src/usb_core.c:286:   for (i = 0; i < pdev->cfg.dev_endpoints; 
 286:../Libraries/STM32_USB_OTG_Driver/src/usb_core.c ****   {
 564              		.loc 1 286 3 is_stmt 0 view .LVU164
 565 00b4 39D0     		beq	.L21		@,
 288:../Libraries/STM32_USB_OTG_Driver/src/usb_core.c ****       (baseAddress + USB_OTG_DEV_IN_EP_REG_OFFSET + \
 566              		.loc 1 288 5 is_stmt 1 view .LVU165
 567              	@ ../Libraries/STM32_USB_OTG_Driver/src/usb_core.c:289:       (baseAddress + USB_OTG_DEV_IN_EP_REG_
 289:../Libraries/STM32_USB_OTG_Driver/src/usb_core.c ****         (i * USB_OTG_EP_REG_OFFSET));
 568              		.loc 1 289 51 is_stmt 0 view .LVU166
 569 00b6 03F52064 		add	r4, r3, #2560	@ tmp284, baseAddress,
 570              	@ ../Libraries/STM32_USB_OTG_Driver/src/usb_core.c:288:     pdev->regs.INEP_REGS[i]  = (USB_OTG_INE
 288:../Libraries/STM32_USB_OTG_Driver/src/usb_core.c ****       (baseAddress + USB_OTG_DEV_IN_EP_REG_OFFSET + \
 571              		.loc 1 288 30 view .LVU167
 572 00ba 8463     		str	r4, [r0, #56]	@ tmp284, MEM <struct USB_OTG_INEPREGS *> [(struct USB_OTG_CORE_HANDLE *)pdev_38
 291:../Libraries/STM32_USB_OTG_Driver/src/usb_core.c ****       (baseAddress + USB_OTG_DEV_OUT_EP_REG_OFFSET + \
 573              		.loc 1 291 5 is_stmt 1 view .LVU168
 574              	@ ../Libraries/STM32_USB_OTG_Driver/src/usb_core.c:286:   for (i = 0; i < pdev->cfg.dev_endpoints; 
 286:../Libraries/STM32_USB_OTG_Driver/src/usb_core.c ****   {
 575              		.loc 1 286 3 is_stmt 0 view .LVU169
 576 00bc 0929     		cmp	r1, #9	@ prephitmp_280,
 577              	@ ../Libraries/STM32_USB_OTG_Driver/src/usb_core.c:292:       (baseAddress + USB_OTG_DEV_OUT_EP_REG
ARM GAS  C:\Users\admin\AppData\Local\Temp\ccFXFx3g.s 			page 18


 578              		.loc 1 292 52 view .LVU170
 579 00be 03F54064 		add	r4, r3, #3072	@ tmp285, baseAddress,
 580              	@ ../Libraries/STM32_USB_OTG_Driver/src/usb_core.c:291:     pdev->regs.OUTEP_REGS[i] = (USB_OTG_OUT
 291:../Libraries/STM32_USB_OTG_Driver/src/usb_core.c ****       (baseAddress + USB_OTG_DEV_OUT_EP_REG_OFFSET + \
 581              		.loc 1 291 30 view .LVU171
 582 00c2 4467     		str	r4, [r0, #116]	@ tmp285, MEM <struct USB_OTG_OUTEPREGS *> [(struct USB_OTG_CORE_HANDLE *)pdev_
 286:../Libraries/STM32_USB_OTG_Driver/src/usb_core.c ****   {
 583              		.loc 1 286 44 is_stmt 1 view .LVU172
 584              	.LVL36:
 286:../Libraries/STM32_USB_OTG_Driver/src/usb_core.c ****   {
 585              		.loc 1 286 15 view .LVU173
 586              	@ ../Libraries/STM32_USB_OTG_Driver/src/usb_core.c:286:   for (i = 0; i < pdev->cfg.dev_endpoints; 
 286:../Libraries/STM32_USB_OTG_Driver/src/usb_core.c ****   {
 587              		.loc 1 286 3 is_stmt 0 view .LVU174
 588 00c4 31D0     		beq	.L21		@,
 288:../Libraries/STM32_USB_OTG_Driver/src/usb_core.c ****       (baseAddress + USB_OTG_DEV_IN_EP_REG_OFFSET + \
 589              		.loc 1 288 5 is_stmt 1 view .LVU175
 590              	@ ../Libraries/STM32_USB_OTG_Driver/src/usb_core.c:289:       (baseAddress + USB_OTG_DEV_IN_EP_REG_
 289:../Libraries/STM32_USB_OTG_Driver/src/usb_core.c ****         (i * USB_OTG_EP_REG_OFFSET));
 591              		.loc 1 289 51 is_stmt 0 view .LVU176
 592 00c6 03F52264 		add	r4, r3, #2592	@ tmp286, baseAddress,
 593              	@ ../Libraries/STM32_USB_OTG_Driver/src/usb_core.c:288:     pdev->regs.INEP_REGS[i]  = (USB_OTG_INE
 288:../Libraries/STM32_USB_OTG_Driver/src/usb_core.c ****       (baseAddress + USB_OTG_DEV_IN_EP_REG_OFFSET + \
 594              		.loc 1 288 30 view .LVU177
 595 00ca C463     		str	r4, [r0, #60]	@ tmp286, MEM <struct USB_OTG_INEPREGS *> [(struct USB_OTG_CORE_HANDLE *)pdev_38
 291:../Libraries/STM32_USB_OTG_Driver/src/usb_core.c ****       (baseAddress + USB_OTG_DEV_OUT_EP_REG_OFFSET + \
 596              		.loc 1 291 5 is_stmt 1 view .LVU178
 597              	@ ../Libraries/STM32_USB_OTG_Driver/src/usb_core.c:286:   for (i = 0; i < pdev->cfg.dev_endpoints; 
 286:../Libraries/STM32_USB_OTG_Driver/src/usb_core.c ****   {
 598              		.loc 1 286 3 is_stmt 0 view .LVU179
 599 00cc 0A29     		cmp	r1, #10	@ prephitmp_280,
 600              	@ ../Libraries/STM32_USB_OTG_Driver/src/usb_core.c:292:       (baseAddress + USB_OTG_DEV_OUT_EP_REG
 601              		.loc 1 292 52 view .LVU180
 602 00ce 03F54264 		add	r4, r3, #3104	@ tmp287, baseAddress,
 603              	@ ../Libraries/STM32_USB_OTG_Driver/src/usb_core.c:291:     pdev->regs.OUTEP_REGS[i] = (USB_OTG_OUT
 291:../Libraries/STM32_USB_OTG_Driver/src/usb_core.c ****       (baseAddress + USB_OTG_DEV_OUT_EP_REG_OFFSET + \
 604              		.loc 1 291 30 view .LVU181
 605 00d2 8467     		str	r4, [r0, #120]	@ tmp287, MEM <struct USB_OTG_OUTEPREGS *> [(struct USB_OTG_CORE_HANDLE *)pdev_
 286:../Libraries/STM32_USB_OTG_Driver/src/usb_core.c ****   {
 606              		.loc 1 286 44 is_stmt 1 view .LVU182
 607              	.LVL37:
 286:../Libraries/STM32_USB_OTG_Driver/src/usb_core.c ****   {
 608              		.loc 1 286 15 view .LVU183
 609              	@ ../Libraries/STM32_USB_OTG_Driver/src/usb_core.c:286:   for (i = 0; i < pdev->cfg.dev_endpoints; 
 286:../Libraries/STM32_USB_OTG_Driver/src/usb_core.c ****   {
 610              		.loc 1 286 3 is_stmt 0 view .LVU184
 611 00d4 29D0     		beq	.L21		@,
 288:../Libraries/STM32_USB_OTG_Driver/src/usb_core.c ****       (baseAddress + USB_OTG_DEV_IN_EP_REG_OFFSET + \
 612              		.loc 1 288 5 is_stmt 1 view .LVU185
 613              	@ ../Libraries/STM32_USB_OTG_Driver/src/usb_core.c:289:       (baseAddress + USB_OTG_DEV_IN_EP_REG_
 289:../Libraries/STM32_USB_OTG_Driver/src/usb_core.c ****         (i * USB_OTG_EP_REG_OFFSET));
 614              		.loc 1 289 51 is_stmt 0 view .LVU186
 615 00d6 03F52464 		add	r4, r3, #2624	@ tmp288, baseAddress,
 616              	@ ../Libraries/STM32_USB_OTG_Driver/src/usb_core.c:288:     pdev->regs.INEP_REGS[i]  = (USB_OTG_INE
 288:../Libraries/STM32_USB_OTG_Driver/src/usb_core.c ****       (baseAddress + USB_OTG_DEV_IN_EP_REG_OFFSET + \
 617              		.loc 1 288 30 view .LVU187
 618 00da 0464     		str	r4, [r0, #64]	@ tmp288, MEM <struct USB_OTG_INEPREGS *> [(struct USB_OTG_CORE_HANDLE *)pdev_38
ARM GAS  C:\Users\admin\AppData\Local\Temp\ccFXFx3g.s 			page 19


 291:../Libraries/STM32_USB_OTG_Driver/src/usb_core.c ****       (baseAddress + USB_OTG_DEV_OUT_EP_REG_OFFSET + \
 619              		.loc 1 291 5 is_stmt 1 view .LVU188
 620              	@ ../Libraries/STM32_USB_OTG_Driver/src/usb_core.c:286:   for (i = 0; i < pdev->cfg.dev_endpoints; 
 286:../Libraries/STM32_USB_OTG_Driver/src/usb_core.c ****   {
 621              		.loc 1 286 3 is_stmt 0 view .LVU189
 622 00dc 0B29     		cmp	r1, #11	@ prephitmp_280,
 623              	@ ../Libraries/STM32_USB_OTG_Driver/src/usb_core.c:292:       (baseAddress + USB_OTG_DEV_OUT_EP_REG
 624              		.loc 1 292 52 view .LVU190
 625 00de 03F54464 		add	r4, r3, #3136	@ tmp289, baseAddress,
 626              	@ ../Libraries/STM32_USB_OTG_Driver/src/usb_core.c:291:     pdev->regs.OUTEP_REGS[i] = (USB_OTG_OUT
 291:../Libraries/STM32_USB_OTG_Driver/src/usb_core.c ****       (baseAddress + USB_OTG_DEV_OUT_EP_REG_OFFSET + \
 627              		.loc 1 291 30 view .LVU191
 628 00e2 C467     		str	r4, [r0, #124]	@ tmp289, MEM <struct USB_OTG_OUTEPREGS *> [(struct USB_OTG_CORE_HANDLE *)pdev_
 286:../Libraries/STM32_USB_OTG_Driver/src/usb_core.c ****   {
 629              		.loc 1 286 44 is_stmt 1 view .LVU192
 630              	.LVL38:
 286:../Libraries/STM32_USB_OTG_Driver/src/usb_core.c ****   {
 631              		.loc 1 286 15 view .LVU193
 632              	@ ../Libraries/STM32_USB_OTG_Driver/src/usb_core.c:286:   for (i = 0; i < pdev->cfg.dev_endpoints; 
 286:../Libraries/STM32_USB_OTG_Driver/src/usb_core.c ****   {
 633              		.loc 1 286 3 is_stmt 0 view .LVU194
 634 00e4 21D0     		beq	.L21		@,
 288:../Libraries/STM32_USB_OTG_Driver/src/usb_core.c ****       (baseAddress + USB_OTG_DEV_IN_EP_REG_OFFSET + \
 635              		.loc 1 288 5 is_stmt 1 view .LVU195
 636              	@ ../Libraries/STM32_USB_OTG_Driver/src/usb_core.c:289:       (baseAddress + USB_OTG_DEV_IN_EP_REG_
 289:../Libraries/STM32_USB_OTG_Driver/src/usb_core.c ****         (i * USB_OTG_EP_REG_OFFSET));
 637              		.loc 1 289 51 is_stmt 0 view .LVU196
 638 00e6 03F52664 		add	r4, r3, #2656	@ tmp290, baseAddress,
 639              	@ ../Libraries/STM32_USB_OTG_Driver/src/usb_core.c:288:     pdev->regs.INEP_REGS[i]  = (USB_OTG_INE
 288:../Libraries/STM32_USB_OTG_Driver/src/usb_core.c ****       (baseAddress + USB_OTG_DEV_IN_EP_REG_OFFSET + \
 640              		.loc 1 288 30 view .LVU197
 641 00ea 4464     		str	r4, [r0, #68]	@ tmp290, MEM <struct USB_OTG_INEPREGS *> [(struct USB_OTG_CORE_HANDLE *)pdev_38
 291:../Libraries/STM32_USB_OTG_Driver/src/usb_core.c ****       (baseAddress + USB_OTG_DEV_OUT_EP_REG_OFFSET + \
 642              		.loc 1 291 5 is_stmt 1 view .LVU198
 643              	@ ../Libraries/STM32_USB_OTG_Driver/src/usb_core.c:286:   for (i = 0; i < pdev->cfg.dev_endpoints; 
 286:../Libraries/STM32_USB_OTG_Driver/src/usb_core.c ****   {
 644              		.loc 1 286 3 is_stmt 0 view .LVU199
 645 00ec 0C29     		cmp	r1, #12	@ prephitmp_280,
 646              	@ ../Libraries/STM32_USB_OTG_Driver/src/usb_core.c:292:       (baseAddress + USB_OTG_DEV_OUT_EP_REG
 647              		.loc 1 292 52 view .LVU200
 648 00ee 03F54664 		add	r4, r3, #3168	@ tmp291, baseAddress,
 649              	@ ../Libraries/STM32_USB_OTG_Driver/src/usb_core.c:291:     pdev->regs.OUTEP_REGS[i] = (USB_OTG_OUT
 291:../Libraries/STM32_USB_OTG_Driver/src/usb_core.c ****       (baseAddress + USB_OTG_DEV_OUT_EP_REG_OFFSET + \
 650              		.loc 1 291 30 view .LVU201
 651 00f2 C0F88040 		str	r4, [r0, #128]	@ tmp291, MEM <struct USB_OTG_OUTEPREGS *> [(struct USB_OTG_CORE_HANDLE *)pdev_
 286:../Libraries/STM32_USB_OTG_Driver/src/usb_core.c ****   {
 652              		.loc 1 286 44 is_stmt 1 view .LVU202
 653              	.LVL39:
 286:../Libraries/STM32_USB_OTG_Driver/src/usb_core.c ****   {
 654              		.loc 1 286 15 view .LVU203
 655              	@ ../Libraries/STM32_USB_OTG_Driver/src/usb_core.c:286:   for (i = 0; i < pdev->cfg.dev_endpoints; 
 286:../Libraries/STM32_USB_OTG_Driver/src/usb_core.c ****   {
 656              		.loc 1 286 3 is_stmt 0 view .LVU204
 657 00f6 18D0     		beq	.L21		@,
 288:../Libraries/STM32_USB_OTG_Driver/src/usb_core.c ****       (baseAddress + USB_OTG_DEV_IN_EP_REG_OFFSET + \
 658              		.loc 1 288 5 is_stmt 1 view .LVU205
 659              	@ ../Libraries/STM32_USB_OTG_Driver/src/usb_core.c:289:       (baseAddress + USB_OTG_DEV_IN_EP_REG_
ARM GAS  C:\Users\admin\AppData\Local\Temp\ccFXFx3g.s 			page 20


 289:../Libraries/STM32_USB_OTG_Driver/src/usb_core.c ****         (i * USB_OTG_EP_REG_OFFSET));
 660              		.loc 1 289 51 is_stmt 0 view .LVU206
 661 00f8 03F52864 		add	r4, r3, #2688	@ tmp292, baseAddress,
 662              	@ ../Libraries/STM32_USB_OTG_Driver/src/usb_core.c:288:     pdev->regs.INEP_REGS[i]  = (USB_OTG_INE
 288:../Libraries/STM32_USB_OTG_Driver/src/usb_core.c ****       (baseAddress + USB_OTG_DEV_IN_EP_REG_OFFSET + \
 663              		.loc 1 288 30 view .LVU207
 664 00fc 8464     		str	r4, [r0, #72]	@ tmp292, MEM <struct USB_OTG_INEPREGS *> [(struct USB_OTG_CORE_HANDLE *)pdev_38
 291:../Libraries/STM32_USB_OTG_Driver/src/usb_core.c ****       (baseAddress + USB_OTG_DEV_OUT_EP_REG_OFFSET + \
 665              		.loc 1 291 5 is_stmt 1 view .LVU208
 666              	@ ../Libraries/STM32_USB_OTG_Driver/src/usb_core.c:286:   for (i = 0; i < pdev->cfg.dev_endpoints; 
 286:../Libraries/STM32_USB_OTG_Driver/src/usb_core.c ****   {
 667              		.loc 1 286 3 is_stmt 0 view .LVU209
 668 00fe 0D29     		cmp	r1, #13	@ prephitmp_280,
 669              	@ ../Libraries/STM32_USB_OTG_Driver/src/usb_core.c:292:       (baseAddress + USB_OTG_DEV_OUT_EP_REG
 670              		.loc 1 292 52 view .LVU210
 671 0100 03F54864 		add	r4, r3, #3200	@ tmp293, baseAddress,
 672              	@ ../Libraries/STM32_USB_OTG_Driver/src/usb_core.c:291:     pdev->regs.OUTEP_REGS[i] = (USB_OTG_OUT
 291:../Libraries/STM32_USB_OTG_Driver/src/usb_core.c ****       (baseAddress + USB_OTG_DEV_OUT_EP_REG_OFFSET + \
 673              		.loc 1 291 30 view .LVU211
 674 0104 C0F88440 		str	r4, [r0, #132]	@ tmp293, MEM <struct USB_OTG_OUTEPREGS *> [(struct USB_OTG_CORE_HANDLE *)pdev_
 286:../Libraries/STM32_USB_OTG_Driver/src/usb_core.c ****   {
 675              		.loc 1 286 44 is_stmt 1 view .LVU212
 676              	.LVL40:
 286:../Libraries/STM32_USB_OTG_Driver/src/usb_core.c ****   {
 677              		.loc 1 286 15 view .LVU213
 678              	@ ../Libraries/STM32_USB_OTG_Driver/src/usb_core.c:286:   for (i = 0; i < pdev->cfg.dev_endpoints; 
 286:../Libraries/STM32_USB_OTG_Driver/src/usb_core.c ****   {
 679              		.loc 1 286 3 is_stmt 0 view .LVU214
 680 0108 0FD0     		beq	.L21		@,
 288:../Libraries/STM32_USB_OTG_Driver/src/usb_core.c ****       (baseAddress + USB_OTG_DEV_IN_EP_REG_OFFSET + \
 681              		.loc 1 288 5 is_stmt 1 view .LVU215
 682              	@ ../Libraries/STM32_USB_OTG_Driver/src/usb_core.c:289:       (baseAddress + USB_OTG_DEV_IN_EP_REG_
 289:../Libraries/STM32_USB_OTG_Driver/src/usb_core.c ****         (i * USB_OTG_EP_REG_OFFSET));
 683              		.loc 1 289 51 is_stmt 0 view .LVU216
 684 010a 03F52A64 		add	r4, r3, #2720	@ tmp294, baseAddress,
 685              	@ ../Libraries/STM32_USB_OTG_Driver/src/usb_core.c:288:     pdev->regs.INEP_REGS[i]  = (USB_OTG_INE
 288:../Libraries/STM32_USB_OTG_Driver/src/usb_core.c ****       (baseAddress + USB_OTG_DEV_IN_EP_REG_OFFSET + \
 686              		.loc 1 288 30 view .LVU217
 687 010e C464     		str	r4, [r0, #76]	@ tmp294, MEM <struct USB_OTG_INEPREGS *> [(struct USB_OTG_CORE_HANDLE *)pdev_38
 291:../Libraries/STM32_USB_OTG_Driver/src/usb_core.c ****       (baseAddress + USB_OTG_DEV_OUT_EP_REG_OFFSET + \
 688              		.loc 1 291 5 is_stmt 1 view .LVU218
 689              	@ ../Libraries/STM32_USB_OTG_Driver/src/usb_core.c:286:   for (i = 0; i < pdev->cfg.dev_endpoints; 
 286:../Libraries/STM32_USB_OTG_Driver/src/usb_core.c ****   {
 690              		.loc 1 286 3 is_stmt 0 view .LVU219
 691 0110 0E29     		cmp	r1, #14	@ prephitmp_280,
 692              	@ ../Libraries/STM32_USB_OTG_Driver/src/usb_core.c:292:       (baseAddress + USB_OTG_DEV_OUT_EP_REG
 693              		.loc 1 292 52 view .LVU220
 694 0112 03F54A64 		add	r4, r3, #3232	@ tmp295, baseAddress,
 695              	@ ../Libraries/STM32_USB_OTG_Driver/src/usb_core.c:291:     pdev->regs.OUTEP_REGS[i] = (USB_OTG_OUT
 291:../Libraries/STM32_USB_OTG_Driver/src/usb_core.c ****       (baseAddress + USB_OTG_DEV_OUT_EP_REG_OFFSET + \
 696              		.loc 1 291 30 view .LVU221
 697 0116 C0F88840 		str	r4, [r0, #136]	@ tmp295, MEM <struct USB_OTG_OUTEPREGS *> [(struct USB_OTG_CORE_HANDLE *)pdev_
 286:../Libraries/STM32_USB_OTG_Driver/src/usb_core.c ****   {
 698              		.loc 1 286 44 is_stmt 1 view .LVU222
 699              	.LVL41:
 286:../Libraries/STM32_USB_OTG_Driver/src/usb_core.c ****   {
 700              		.loc 1 286 15 view .LVU223
ARM GAS  C:\Users\admin\AppData\Local\Temp\ccFXFx3g.s 			page 21


 701              	@ ../Libraries/STM32_USB_OTG_Driver/src/usb_core.c:286:   for (i = 0; i < pdev->cfg.dev_endpoints; 
 286:../Libraries/STM32_USB_OTG_Driver/src/usb_core.c ****   {
 702              		.loc 1 286 3 is_stmt 0 view .LVU224
 703 011a 06D0     		beq	.L21		@,
 288:../Libraries/STM32_USB_OTG_Driver/src/usb_core.c ****       (baseAddress + USB_OTG_DEV_IN_EP_REG_OFFSET + \
 704              		.loc 1 288 5 is_stmt 1 discriminator 3 view .LVU225
 705              	@ ../Libraries/STM32_USB_OTG_Driver/src/usb_core.c:289:       (baseAddress + USB_OTG_DEV_IN_EP_REG_
 289:../Libraries/STM32_USB_OTG_Driver/src/usb_core.c ****         (i * USB_OTG_EP_REG_OFFSET));
 706              		.loc 1 289 51 is_stmt 0 discriminator 3 view .LVU226
 707 011c 03F52C61 		add	r1, r3, #2752	@ tmp296, baseAddress,
 708              	@ ../Libraries/STM32_USB_OTG_Driver/src/usb_core.c:288:     pdev->regs.INEP_REGS[i]  = (USB_OTG_INE
 288:../Libraries/STM32_USB_OTG_Driver/src/usb_core.c ****       (baseAddress + USB_OTG_DEV_IN_EP_REG_OFFSET + \
 709              		.loc 1 288 30 discriminator 3 view .LVU227
 710 0120 0165     		str	r1, [r0, #80]	@ tmp296, MEM <struct USB_OTG_INEPREGS *> [(struct USB_OTG_CORE_HANDLE *)pdev_38
 291:../Libraries/STM32_USB_OTG_Driver/src/usb_core.c ****       (baseAddress + USB_OTG_DEV_OUT_EP_REG_OFFSET + \
 711              		.loc 1 291 5 is_stmt 1 discriminator 3 view .LVU228
 712              	@ ../Libraries/STM32_USB_OTG_Driver/src/usb_core.c:292:       (baseAddress + USB_OTG_DEV_OUT_EP_REG
 713              		.loc 1 292 52 is_stmt 0 discriminator 3 view .LVU229
 714 0122 03F54C61 		add	r1, r3, #3264	@ tmp297, baseAddress,
 715              	@ ../Libraries/STM32_USB_OTG_Driver/src/usb_core.c:291:     pdev->regs.OUTEP_REGS[i] = (USB_OTG_OUT
 291:../Libraries/STM32_USB_OTG_Driver/src/usb_core.c ****       (baseAddress + USB_OTG_DEV_OUT_EP_REG_OFFSET + \
 716              		.loc 1 291 30 discriminator 3 view .LVU230
 717 0126 C0F88C10 		str	r1, [r0, #140]	@ tmp297, MEM <struct USB_OTG_OUTEPREGS *> [(struct USB_OTG_CORE_HANDLE *)pdev_
 286:../Libraries/STM32_USB_OTG_Driver/src/usb_core.c ****   {
 718              		.loc 1 286 44 is_stmt 1 discriminator 3 view .LVU231
 719              	.LVL42:
 286:../Libraries/STM32_USB_OTG_Driver/src/usb_core.c ****   {
 720              		.loc 1 286 15 discriminator 3 view .LVU232
 721              	.L21:
 293:../Libraries/STM32_USB_OTG_Driver/src/usb_core.c ****         (i * USB_OTG_EP_REG_OFFSET));
 294:../Libraries/STM32_USB_OTG_Driver/src/usb_core.c ****   }
 295:../Libraries/STM32_USB_OTG_Driver/src/usb_core.c ****   pdev->regs.HREGS = (USB_OTG_HREGS *)(baseAddress + \
 722              		.loc 1 295 3 view .LVU233
 723              	@ ../Libraries/STM32_USB_OTG_Driver/src/usb_core.c:295:   pdev->regs.HREGS = (USB_OTG_HREGS *)(base
 724              		.loc 1 295 20 is_stmt 0 view .LVU234
 725 012a 4561     		str	r5, [r0, #20]	@ prephitmp_371, pdev_38(D)->regs.HREGS
 296:../Libraries/STM32_USB_OTG_Driver/src/usb_core.c ****     USB_OTG_HOST_GLOBAL_REG_OFFSET);
 297:../Libraries/STM32_USB_OTG_Driver/src/usb_core.c ****   pdev->regs.HPRT0 = (uint32_t *)(baseAddress + USB_OTG_HOST_PORT_REGS_OFFSET);
 726              		.loc 1 297 3 is_stmt 1 view .LVU235
 727              	@ ../Libraries/STM32_USB_OTG_Driver/src/usb_core.c:297:   pdev->regs.HPRT0 = (uint32_t *)(baseAddre
 728              		.loc 1 297 20 is_stmt 0 view .LVU236
 729 012c C0F8CC70 		str	r7, [r0, #204]	@ prephitmp_459, pdev_38(D)->regs.HPRT0
 298:../Libraries/STM32_USB_OTG_Driver/src/usb_core.c ****   
 299:../Libraries/STM32_USB_OTG_Driver/src/usb_core.c ****   for (i = 0; i < pdev->cfg.host_channels; i++)
 730              		.loc 1 299 3 is_stmt 1 view .LVU237
 731              	.LVL43:
 732              		.loc 1 299 15 view .LVU238
 733              	@ ../Libraries/STM32_USB_OTG_Driver/src/usb_core.c:299:   for (i = 0; i < pdev->cfg.host_channels; 
 734              		.loc 1 299 3 is_stmt 0 view .LVU239
 735 0130 002A     		cmp	r2, #0	@ prephitmp_457
 736 0132 00F0AF80 		beq	.L23	@
 300:../Libraries/STM32_USB_OTG_Driver/src/usb_core.c ****   {
 301:../Libraries/STM32_USB_OTG_Driver/src/usb_core.c ****     pdev->regs.HC_REGS[i] = (USB_OTG_HC_REGS *)(baseAddress + \
 737              		.loc 1 301 5 is_stmt 1 view .LVU240
 738              	@ ../Libraries/STM32_USB_OTG_Driver/src/usb_core.c:301:     pdev->regs.HC_REGS[i] = (USB_OTG_HC_REG
 739              		.loc 1 301 29 is_stmt 0 view .LVU241
 740 0136 03F5A061 		add	r1, r3, #1280	@ tmp299, baseAddress,
ARM GAS  C:\Users\admin\AppData\Local\Temp\ccFXFx3g.s 			page 22


 741              	@ ../Libraries/STM32_USB_OTG_Driver/src/usb_core.c:299:   for (i = 0; i < pdev->cfg.host_channels; 
 299:../Libraries/STM32_USB_OTG_Driver/src/usb_core.c ****   {
 742              		.loc 1 299 3 view .LVU242
 743 013a 012A     		cmp	r2, #1	@ prephitmp_457,
 744              	@ ../Libraries/STM32_USB_OTG_Driver/src/usb_core.c:301:     pdev->regs.HC_REGS[i] = (USB_OTG_HC_REG
 745              		.loc 1 301 27 view .LVU243
 746 013c C0F89010 		str	r1, [r0, #144]	@ tmp299, pdev_38(D)->regs.HC_REGS[0]
 299:../Libraries/STM32_USB_OTG_Driver/src/usb_core.c ****   {
 747              		.loc 1 299 44 is_stmt 1 view .LVU244
 748              	.LVL44:
 299:../Libraries/STM32_USB_OTG_Driver/src/usb_core.c ****   {
 749              		.loc 1 299 15 view .LVU245
 750              	@ ../Libraries/STM32_USB_OTG_Driver/src/usb_core.c:299:   for (i = 0; i < pdev->cfg.host_channels; 
 299:../Libraries/STM32_USB_OTG_Driver/src/usb_core.c ****   {
 751              		.loc 1 299 3 is_stmt 0 view .LVU246
 752 0140 00F0F480 		beq	.L25		@,
 753              		.loc 1 301 5 is_stmt 1 view .LVU247
 754              	@ ../Libraries/STM32_USB_OTG_Driver/src/usb_core.c:302:       USB_OTG_HOST_CHAN_REGS_OFFSET + \
 302:../Libraries/STM32_USB_OTG_Driver/src/usb_core.c ****       USB_OTG_HOST_CHAN_REGS_OFFSET + \
 755              		.loc 1 302 37 is_stmt 0 view .LVU248
 756 0144 03F5A461 		add	r1, r3, #1312	@ tmp300, baseAddress,
 757              	@ ../Libraries/STM32_USB_OTG_Driver/src/usb_core.c:299:   for (i = 0; i < pdev->cfg.host_channels; 
 299:../Libraries/STM32_USB_OTG_Driver/src/usb_core.c ****   {
 758              		.loc 1 299 3 view .LVU249
 759 0148 022A     		cmp	r2, #2	@ prephitmp_457,
 760              	@ ../Libraries/STM32_USB_OTG_Driver/src/usb_core.c:301:     pdev->regs.HC_REGS[i] = (USB_OTG_HC_REG
 301:../Libraries/STM32_USB_OTG_Driver/src/usb_core.c ****       USB_OTG_HOST_CHAN_REGS_OFFSET + \
 761              		.loc 1 301 27 view .LVU250
 762 014a C0F89410 		str	r1, [r0, #148]	@ tmp300, pdev_38(D)->regs.HC_REGS[1]
 299:../Libraries/STM32_USB_OTG_Driver/src/usb_core.c ****   {
 763              		.loc 1 299 44 is_stmt 1 view .LVU251
 764              	.LVL45:
 299:../Libraries/STM32_USB_OTG_Driver/src/usb_core.c ****   {
 765              		.loc 1 299 15 view .LVU252
 766              	@ ../Libraries/STM32_USB_OTG_Driver/src/usb_core.c:299:   for (i = 0; i < pdev->cfg.host_channels; 
 299:../Libraries/STM32_USB_OTG_Driver/src/usb_core.c ****   {
 767              		.loc 1 299 3 is_stmt 0 view .LVU253
 768 014e 4BD0     		beq	.L26		@,
 301:../Libraries/STM32_USB_OTG_Driver/src/usb_core.c ****       USB_OTG_HOST_CHAN_REGS_OFFSET + \
 769              		.loc 1 301 5 is_stmt 1 view .LVU254
 770              	@ ../Libraries/STM32_USB_OTG_Driver/src/usb_core.c:302:       USB_OTG_HOST_CHAN_REGS_OFFSET + \
 771              		.loc 1 302 37 is_stmt 0 view .LVU255
 772 0150 03F5A861 		add	r1, r3, #1344	@ tmp301, baseAddress,
 773              	@ ../Libraries/STM32_USB_OTG_Driver/src/usb_core.c:299:   for (i = 0; i < pdev->cfg.host_channels; 
 299:../Libraries/STM32_USB_OTG_Driver/src/usb_core.c ****   {
 774              		.loc 1 299 3 view .LVU256
 775 0154 032A     		cmp	r2, #3	@ prephitmp_457,
 776              	@ ../Libraries/STM32_USB_OTG_Driver/src/usb_core.c:301:     pdev->regs.HC_REGS[i] = (USB_OTG_HC_REG
 301:../Libraries/STM32_USB_OTG_Driver/src/usb_core.c ****       USB_OTG_HOST_CHAN_REGS_OFFSET + \
 777              		.loc 1 301 27 view .LVU257
 778 0156 C0F89810 		str	r1, [r0, #152]	@ tmp301, pdev_38(D)->regs.HC_REGS[2]
 299:../Libraries/STM32_USB_OTG_Driver/src/usb_core.c ****   {
 779              		.loc 1 299 44 is_stmt 1 view .LVU258
 780              	.LVL46:
 299:../Libraries/STM32_USB_OTG_Driver/src/usb_core.c ****   {
 781              		.loc 1 299 15 view .LVU259
 782              	@ ../Libraries/STM32_USB_OTG_Driver/src/usb_core.c:299:   for (i = 0; i < pdev->cfg.host_channels; 
ARM GAS  C:\Users\admin\AppData\Local\Temp\ccFXFx3g.s 			page 23


 299:../Libraries/STM32_USB_OTG_Driver/src/usb_core.c ****   {
 783              		.loc 1 299 3 is_stmt 0 view .LVU260
 784 015a 45D0     		beq	.L26		@,
 301:../Libraries/STM32_USB_OTG_Driver/src/usb_core.c ****       USB_OTG_HOST_CHAN_REGS_OFFSET + \
 785              		.loc 1 301 5 is_stmt 1 view .LVU261
 786              	@ ../Libraries/STM32_USB_OTG_Driver/src/usb_core.c:302:       USB_OTG_HOST_CHAN_REGS_OFFSET + \
 787              		.loc 1 302 37 is_stmt 0 view .LVU262
 788 015c 03F5AC61 		add	r1, r3, #1376	@ tmp302, baseAddress,
 789              	@ ../Libraries/STM32_USB_OTG_Driver/src/usb_core.c:299:   for (i = 0; i < pdev->cfg.host_channels; 
 299:../Libraries/STM32_USB_OTG_Driver/src/usb_core.c ****   {
 790              		.loc 1 299 3 view .LVU263
 791 0160 042A     		cmp	r2, #4	@ prephitmp_457,
 792              	@ ../Libraries/STM32_USB_OTG_Driver/src/usb_core.c:301:     pdev->regs.HC_REGS[i] = (USB_OTG_HC_REG
 301:../Libraries/STM32_USB_OTG_Driver/src/usb_core.c ****       USB_OTG_HOST_CHAN_REGS_OFFSET + \
 793              		.loc 1 301 27 view .LVU264
 794 0162 C0F89C10 		str	r1, [r0, #156]	@ tmp302, pdev_38(D)->regs.HC_REGS[3]
 299:../Libraries/STM32_USB_OTG_Driver/src/usb_core.c ****   {
 795              		.loc 1 299 44 is_stmt 1 view .LVU265
 796              	.LVL47:
 299:../Libraries/STM32_USB_OTG_Driver/src/usb_core.c ****   {
 797              		.loc 1 299 15 view .LVU266
 798              	@ ../Libraries/STM32_USB_OTG_Driver/src/usb_core.c:299:   for (i = 0; i < pdev->cfg.host_channels; 
 299:../Libraries/STM32_USB_OTG_Driver/src/usb_core.c ****   {
 799              		.loc 1 299 3 is_stmt 0 view .LVU267
 800 0166 3FD0     		beq	.L26		@,
 301:../Libraries/STM32_USB_OTG_Driver/src/usb_core.c ****       USB_OTG_HOST_CHAN_REGS_OFFSET + \
 801              		.loc 1 301 5 is_stmt 1 view .LVU268
 802              	@ ../Libraries/STM32_USB_OTG_Driver/src/usb_core.c:302:       USB_OTG_HOST_CHAN_REGS_OFFSET + \
 803              		.loc 1 302 37 is_stmt 0 view .LVU269
 804 0168 03F5B061 		add	r1, r3, #1408	@ tmp303, baseAddress,
 805              	@ ../Libraries/STM32_USB_OTG_Driver/src/usb_core.c:299:   for (i = 0; i < pdev->cfg.host_channels; 
 299:../Libraries/STM32_USB_OTG_Driver/src/usb_core.c ****   {
 806              		.loc 1 299 3 view .LVU270
 807 016c 052A     		cmp	r2, #5	@ prephitmp_457,
 808              	@ ../Libraries/STM32_USB_OTG_Driver/src/usb_core.c:301:     pdev->regs.HC_REGS[i] = (USB_OTG_HC_REG
 301:../Libraries/STM32_USB_OTG_Driver/src/usb_core.c ****       USB_OTG_HOST_CHAN_REGS_OFFSET + \
 809              		.loc 1 301 27 view .LVU271
 810 016e C0F8A010 		str	r1, [r0, #160]	@ tmp303, pdev_38(D)->regs.HC_REGS[4]
 299:../Libraries/STM32_USB_OTG_Driver/src/usb_core.c ****   {
 811              		.loc 1 299 44 is_stmt 1 view .LVU272
 812              	.LVL48:
 299:../Libraries/STM32_USB_OTG_Driver/src/usb_core.c ****   {
 813              		.loc 1 299 15 view .LVU273
 814              	@ ../Libraries/STM32_USB_OTG_Driver/src/usb_core.c:299:   for (i = 0; i < pdev->cfg.host_channels; 
 299:../Libraries/STM32_USB_OTG_Driver/src/usb_core.c ****   {
 815              		.loc 1 299 3 is_stmt 0 view .LVU274
 816 0172 39D0     		beq	.L26		@,
 301:../Libraries/STM32_USB_OTG_Driver/src/usb_core.c ****       USB_OTG_HOST_CHAN_REGS_OFFSET + \
 817              		.loc 1 301 5 is_stmt 1 view .LVU275
 818              	@ ../Libraries/STM32_USB_OTG_Driver/src/usb_core.c:302:       USB_OTG_HOST_CHAN_REGS_OFFSET + \
 819              		.loc 1 302 37 is_stmt 0 view .LVU276
 820 0174 03F5B461 		add	r1, r3, #1440	@ tmp304, baseAddress,
 821              	@ ../Libraries/STM32_USB_OTG_Driver/src/usb_core.c:299:   for (i = 0; i < pdev->cfg.host_channels; 
 299:../Libraries/STM32_USB_OTG_Driver/src/usb_core.c ****   {
 822              		.loc 1 299 3 view .LVU277
 823 0178 062A     		cmp	r2, #6	@ prephitmp_457,
 824              	@ ../Libraries/STM32_USB_OTG_Driver/src/usb_core.c:301:     pdev->regs.HC_REGS[i] = (USB_OTG_HC_REG
ARM GAS  C:\Users\admin\AppData\Local\Temp\ccFXFx3g.s 			page 24


 301:../Libraries/STM32_USB_OTG_Driver/src/usb_core.c ****       USB_OTG_HOST_CHAN_REGS_OFFSET + \
 825              		.loc 1 301 27 view .LVU278
 826 017a C0F8A410 		str	r1, [r0, #164]	@ tmp304, pdev_38(D)->regs.HC_REGS[5]
 299:../Libraries/STM32_USB_OTG_Driver/src/usb_core.c ****   {
 827              		.loc 1 299 44 is_stmt 1 view .LVU279
 828              	.LVL49:
 299:../Libraries/STM32_USB_OTG_Driver/src/usb_core.c ****   {
 829              		.loc 1 299 15 view .LVU280
 830              	@ ../Libraries/STM32_USB_OTG_Driver/src/usb_core.c:299:   for (i = 0; i < pdev->cfg.host_channels; 
 299:../Libraries/STM32_USB_OTG_Driver/src/usb_core.c ****   {
 831              		.loc 1 299 3 is_stmt 0 view .LVU281
 832 017e 33D0     		beq	.L26		@,
 301:../Libraries/STM32_USB_OTG_Driver/src/usb_core.c ****       USB_OTG_HOST_CHAN_REGS_OFFSET + \
 833              		.loc 1 301 5 is_stmt 1 view .LVU282
 834              	@ ../Libraries/STM32_USB_OTG_Driver/src/usb_core.c:302:       USB_OTG_HOST_CHAN_REGS_OFFSET + \
 835              		.loc 1 302 37 is_stmt 0 view .LVU283
 836 0180 03F5B861 		add	r1, r3, #1472	@ tmp305, baseAddress,
 837              	@ ../Libraries/STM32_USB_OTG_Driver/src/usb_core.c:299:   for (i = 0; i < pdev->cfg.host_channels; 
 299:../Libraries/STM32_USB_OTG_Driver/src/usb_core.c ****   {
 838              		.loc 1 299 3 view .LVU284
 839 0184 072A     		cmp	r2, #7	@ prephitmp_457,
 840              	@ ../Libraries/STM32_USB_OTG_Driver/src/usb_core.c:301:     pdev->regs.HC_REGS[i] = (USB_OTG_HC_REG
 301:../Libraries/STM32_USB_OTG_Driver/src/usb_core.c ****       USB_OTG_HOST_CHAN_REGS_OFFSET + \
 841              		.loc 1 301 27 view .LVU285
 842 0186 C0F8A810 		str	r1, [r0, #168]	@ tmp305, pdev_38(D)->regs.HC_REGS[6]
 299:../Libraries/STM32_USB_OTG_Driver/src/usb_core.c ****   {
 843              		.loc 1 299 44 is_stmt 1 view .LVU286
 844              	.LVL50:
 299:../Libraries/STM32_USB_OTG_Driver/src/usb_core.c ****   {
 845              		.loc 1 299 15 view .LVU287
 846              	@ ../Libraries/STM32_USB_OTG_Driver/src/usb_core.c:299:   for (i = 0; i < pdev->cfg.host_channels; 
 299:../Libraries/STM32_USB_OTG_Driver/src/usb_core.c ****   {
 847              		.loc 1 299 3 is_stmt 0 view .LVU288
 848 018a 2DD0     		beq	.L26		@,
 301:../Libraries/STM32_USB_OTG_Driver/src/usb_core.c ****       USB_OTG_HOST_CHAN_REGS_OFFSET + \
 849              		.loc 1 301 5 is_stmt 1 view .LVU289
 850              	@ ../Libraries/STM32_USB_OTG_Driver/src/usb_core.c:302:       USB_OTG_HOST_CHAN_REGS_OFFSET + \
 851              		.loc 1 302 37 is_stmt 0 view .LVU290
 852 018c 03F5BC61 		add	r1, r3, #1504	@ tmp306, baseAddress,
 853              	@ ../Libraries/STM32_USB_OTG_Driver/src/usb_core.c:299:   for (i = 0; i < pdev->cfg.host_channels; 
 299:../Libraries/STM32_USB_OTG_Driver/src/usb_core.c ****   {
 854              		.loc 1 299 3 view .LVU291
 855 0190 082A     		cmp	r2, #8	@ prephitmp_457,
 856              	@ ../Libraries/STM32_USB_OTG_Driver/src/usb_core.c:301:     pdev->regs.HC_REGS[i] = (USB_OTG_HC_REG
 301:../Libraries/STM32_USB_OTG_Driver/src/usb_core.c ****       USB_OTG_HOST_CHAN_REGS_OFFSET + \
 857              		.loc 1 301 27 view .LVU292
 858 0192 C0F8AC10 		str	r1, [r0, #172]	@ tmp306, pdev_38(D)->regs.HC_REGS[7]
 299:../Libraries/STM32_USB_OTG_Driver/src/usb_core.c ****   {
 859              		.loc 1 299 44 is_stmt 1 view .LVU293
 860              	.LVL51:
 299:../Libraries/STM32_USB_OTG_Driver/src/usb_core.c ****   {
 861              		.loc 1 299 15 view .LVU294
 862              	@ ../Libraries/STM32_USB_OTG_Driver/src/usb_core.c:299:   for (i = 0; i < pdev->cfg.host_channels; 
 299:../Libraries/STM32_USB_OTG_Driver/src/usb_core.c ****   {
 863              		.loc 1 299 3 is_stmt 0 view .LVU295
 864 0196 27D0     		beq	.L26		@,
 301:../Libraries/STM32_USB_OTG_Driver/src/usb_core.c ****       USB_OTG_HOST_CHAN_REGS_OFFSET + \
ARM GAS  C:\Users\admin\AppData\Local\Temp\ccFXFx3g.s 			page 25


 865              		.loc 1 301 5 is_stmt 1 view .LVU296
 866              	@ ../Libraries/STM32_USB_OTG_Driver/src/usb_core.c:302:       USB_OTG_HOST_CHAN_REGS_OFFSET + \
 867              		.loc 1 302 37 is_stmt 0 view .LVU297
 868 0198 03F5C061 		add	r1, r3, #1536	@ tmp307, baseAddress,
 869              	@ ../Libraries/STM32_USB_OTG_Driver/src/usb_core.c:299:   for (i = 0; i < pdev->cfg.host_channels; 
 299:../Libraries/STM32_USB_OTG_Driver/src/usb_core.c ****   {
 870              		.loc 1 299 3 view .LVU298
 871 019c 092A     		cmp	r2, #9	@ prephitmp_457,
 872              	@ ../Libraries/STM32_USB_OTG_Driver/src/usb_core.c:301:     pdev->regs.HC_REGS[i] = (USB_OTG_HC_REG
 301:../Libraries/STM32_USB_OTG_Driver/src/usb_core.c ****       USB_OTG_HOST_CHAN_REGS_OFFSET + \
 873              		.loc 1 301 27 view .LVU299
 874 019e C0F8B010 		str	r1, [r0, #176]	@ tmp307, pdev_38(D)->regs.HC_REGS[8]
 299:../Libraries/STM32_USB_OTG_Driver/src/usb_core.c ****   {
 875              		.loc 1 299 44 is_stmt 1 view .LVU300
 876              	.LVL52:
 299:../Libraries/STM32_USB_OTG_Driver/src/usb_core.c ****   {
 877              		.loc 1 299 15 view .LVU301
 878              	@ ../Libraries/STM32_USB_OTG_Driver/src/usb_core.c:299:   for (i = 0; i < pdev->cfg.host_channels; 
 299:../Libraries/STM32_USB_OTG_Driver/src/usb_core.c ****   {
 879              		.loc 1 299 3 is_stmt 0 view .LVU302
 880 01a2 21D0     		beq	.L26		@,
 301:../Libraries/STM32_USB_OTG_Driver/src/usb_core.c ****       USB_OTG_HOST_CHAN_REGS_OFFSET + \
 881              		.loc 1 301 5 is_stmt 1 view .LVU303
 882              	@ ../Libraries/STM32_USB_OTG_Driver/src/usb_core.c:302:       USB_OTG_HOST_CHAN_REGS_OFFSET + \
 883              		.loc 1 302 37 is_stmt 0 view .LVU304
 884 01a4 03F5C461 		add	r1, r3, #1568	@ tmp308, baseAddress,
 885              	@ ../Libraries/STM32_USB_OTG_Driver/src/usb_core.c:299:   for (i = 0; i < pdev->cfg.host_channels; 
 299:../Libraries/STM32_USB_OTG_Driver/src/usb_core.c ****   {
 886              		.loc 1 299 3 view .LVU305
 887 01a8 0A2A     		cmp	r2, #10	@ prephitmp_457,
 888              	@ ../Libraries/STM32_USB_OTG_Driver/src/usb_core.c:301:     pdev->regs.HC_REGS[i] = (USB_OTG_HC_REG
 301:../Libraries/STM32_USB_OTG_Driver/src/usb_core.c ****       USB_OTG_HOST_CHAN_REGS_OFFSET + \
 889              		.loc 1 301 27 view .LVU306
 890 01aa C0F8B410 		str	r1, [r0, #180]	@ tmp308, pdev_38(D)->regs.HC_REGS[9]
 299:../Libraries/STM32_USB_OTG_Driver/src/usb_core.c ****   {
 891              		.loc 1 299 44 is_stmt 1 view .LVU307
 892              	.LVL53:
 299:../Libraries/STM32_USB_OTG_Driver/src/usb_core.c ****   {
 893              		.loc 1 299 15 view .LVU308
 894              	@ ../Libraries/STM32_USB_OTG_Driver/src/usb_core.c:299:   for (i = 0; i < pdev->cfg.host_channels; 
 299:../Libraries/STM32_USB_OTG_Driver/src/usb_core.c ****   {
 895              		.loc 1 299 3 is_stmt 0 view .LVU309
 896 01ae 1BD0     		beq	.L26		@,
 301:../Libraries/STM32_USB_OTG_Driver/src/usb_core.c ****       USB_OTG_HOST_CHAN_REGS_OFFSET + \
 897              		.loc 1 301 5 is_stmt 1 view .LVU310
 898              	@ ../Libraries/STM32_USB_OTG_Driver/src/usb_core.c:302:       USB_OTG_HOST_CHAN_REGS_OFFSET + \
 899              		.loc 1 302 37 is_stmt 0 view .LVU311
 900 01b0 03F5C861 		add	r1, r3, #1600	@ tmp309, baseAddress,
 901              	@ ../Libraries/STM32_USB_OTG_Driver/src/usb_core.c:299:   for (i = 0; i < pdev->cfg.host_channels; 
 299:../Libraries/STM32_USB_OTG_Driver/src/usb_core.c ****   {
 902              		.loc 1 299 3 view .LVU312
 903 01b4 0B2A     		cmp	r2, #11	@ prephitmp_457,
 904              	@ ../Libraries/STM32_USB_OTG_Driver/src/usb_core.c:301:     pdev->regs.HC_REGS[i] = (USB_OTG_HC_REG
 301:../Libraries/STM32_USB_OTG_Driver/src/usb_core.c ****       USB_OTG_HOST_CHAN_REGS_OFFSET + \
 905              		.loc 1 301 27 view .LVU313
 906 01b6 C0F8B810 		str	r1, [r0, #184]	@ tmp309, pdev_38(D)->regs.HC_REGS[10]
 299:../Libraries/STM32_USB_OTG_Driver/src/usb_core.c ****   {
ARM GAS  C:\Users\admin\AppData\Local\Temp\ccFXFx3g.s 			page 26


 907              		.loc 1 299 44 is_stmt 1 view .LVU314
 908              	.LVL54:
 299:../Libraries/STM32_USB_OTG_Driver/src/usb_core.c ****   {
 909              		.loc 1 299 15 view .LVU315
 910              	@ ../Libraries/STM32_USB_OTG_Driver/src/usb_core.c:299:   for (i = 0; i < pdev->cfg.host_channels; 
 299:../Libraries/STM32_USB_OTG_Driver/src/usb_core.c ****   {
 911              		.loc 1 299 3 is_stmt 0 view .LVU316
 912 01ba 15D0     		beq	.L26		@,
 301:../Libraries/STM32_USB_OTG_Driver/src/usb_core.c ****       USB_OTG_HOST_CHAN_REGS_OFFSET + \
 913              		.loc 1 301 5 is_stmt 1 view .LVU317
 914              	@ ../Libraries/STM32_USB_OTG_Driver/src/usb_core.c:302:       USB_OTG_HOST_CHAN_REGS_OFFSET + \
 915              		.loc 1 302 37 is_stmt 0 view .LVU318
 916 01bc 03F5CC61 		add	r1, r3, #1632	@ tmp310, baseAddress,
 917              	@ ../Libraries/STM32_USB_OTG_Driver/src/usb_core.c:299:   for (i = 0; i < pdev->cfg.host_channels; 
 299:../Libraries/STM32_USB_OTG_Driver/src/usb_core.c ****   {
 918              		.loc 1 299 3 view .LVU319
 919 01c0 0C2A     		cmp	r2, #12	@ prephitmp_457,
 920              	@ ../Libraries/STM32_USB_OTG_Driver/src/usb_core.c:301:     pdev->regs.HC_REGS[i] = (USB_OTG_HC_REG
 301:../Libraries/STM32_USB_OTG_Driver/src/usb_core.c ****       USB_OTG_HOST_CHAN_REGS_OFFSET + \
 921              		.loc 1 301 27 view .LVU320
 922 01c2 C0F8BC10 		str	r1, [r0, #188]	@ tmp310, pdev_38(D)->regs.HC_REGS[11]
 299:../Libraries/STM32_USB_OTG_Driver/src/usb_core.c ****   {
 923              		.loc 1 299 44 is_stmt 1 view .LVU321
 924              	.LVL55:
 299:../Libraries/STM32_USB_OTG_Driver/src/usb_core.c ****   {
 925              		.loc 1 299 15 view .LVU322
 926              	@ ../Libraries/STM32_USB_OTG_Driver/src/usb_core.c:299:   for (i = 0; i < pdev->cfg.host_channels; 
 299:../Libraries/STM32_USB_OTG_Driver/src/usb_core.c ****   {
 927              		.loc 1 299 3 is_stmt 0 view .LVU323
 928 01c6 0FD0     		beq	.L26		@,
 301:../Libraries/STM32_USB_OTG_Driver/src/usb_core.c ****       USB_OTG_HOST_CHAN_REGS_OFFSET + \
 929              		.loc 1 301 5 is_stmt 1 view .LVU324
 930              	@ ../Libraries/STM32_USB_OTG_Driver/src/usb_core.c:302:       USB_OTG_HOST_CHAN_REGS_OFFSET + \
 931              		.loc 1 302 37 is_stmt 0 view .LVU325
 932 01c8 03F5D061 		add	r1, r3, #1664	@ tmp311, baseAddress,
 933              	@ ../Libraries/STM32_USB_OTG_Driver/src/usb_core.c:299:   for (i = 0; i < pdev->cfg.host_channels; 
 299:../Libraries/STM32_USB_OTG_Driver/src/usb_core.c ****   {
 934              		.loc 1 299 3 view .LVU326
 935 01cc 0D2A     		cmp	r2, #13	@ prephitmp_457,
 936              	@ ../Libraries/STM32_USB_OTG_Driver/src/usb_core.c:301:     pdev->regs.HC_REGS[i] = (USB_OTG_HC_REG
 301:../Libraries/STM32_USB_OTG_Driver/src/usb_core.c ****       USB_OTG_HOST_CHAN_REGS_OFFSET + \
 937              		.loc 1 301 27 view .LVU327
 938 01ce C0F8C010 		str	r1, [r0, #192]	@ tmp311, pdev_38(D)->regs.HC_REGS[12]
 299:../Libraries/STM32_USB_OTG_Driver/src/usb_core.c ****   {
 939              		.loc 1 299 44 is_stmt 1 view .LVU328
 940              	.LVL56:
 299:../Libraries/STM32_USB_OTG_Driver/src/usb_core.c ****   {
 941              		.loc 1 299 15 view .LVU329
 942              	@ ../Libraries/STM32_USB_OTG_Driver/src/usb_core.c:299:   for (i = 0; i < pdev->cfg.host_channels; 
 299:../Libraries/STM32_USB_OTG_Driver/src/usb_core.c ****   {
 943              		.loc 1 299 3 is_stmt 0 view .LVU330
 944 01d2 09D0     		beq	.L26		@,
 301:../Libraries/STM32_USB_OTG_Driver/src/usb_core.c ****       USB_OTG_HOST_CHAN_REGS_OFFSET + \
 945              		.loc 1 301 5 is_stmt 1 view .LVU331
 946              	@ ../Libraries/STM32_USB_OTG_Driver/src/usb_core.c:302:       USB_OTG_HOST_CHAN_REGS_OFFSET + \
 947              		.loc 1 302 37 is_stmt 0 view .LVU332
 948 01d4 03F5D461 		add	r1, r3, #1696	@ tmp312, baseAddress,
ARM GAS  C:\Users\admin\AppData\Local\Temp\ccFXFx3g.s 			page 27


 949              	@ ../Libraries/STM32_USB_OTG_Driver/src/usb_core.c:299:   for (i = 0; i < pdev->cfg.host_channels; 
 299:../Libraries/STM32_USB_OTG_Driver/src/usb_core.c ****   {
 950              		.loc 1 299 3 view .LVU333
 951 01d8 0E2A     		cmp	r2, #14	@ prephitmp_457,
 952              	@ ../Libraries/STM32_USB_OTG_Driver/src/usb_core.c:301:     pdev->regs.HC_REGS[i] = (USB_OTG_HC_REG
 301:../Libraries/STM32_USB_OTG_Driver/src/usb_core.c ****       USB_OTG_HOST_CHAN_REGS_OFFSET + \
 953              		.loc 1 301 27 view .LVU334
 954 01da C0F8C410 		str	r1, [r0, #196]	@ tmp312, pdev_38(D)->regs.HC_REGS[13]
 299:../Libraries/STM32_USB_OTG_Driver/src/usb_core.c ****   {
 955              		.loc 1 299 44 is_stmt 1 view .LVU335
 956              	.LVL57:
 299:../Libraries/STM32_USB_OTG_Driver/src/usb_core.c ****   {
 957              		.loc 1 299 15 view .LVU336
 958              	@ ../Libraries/STM32_USB_OTG_Driver/src/usb_core.c:299:   for (i = 0; i < pdev->cfg.host_channels; 
 299:../Libraries/STM32_USB_OTG_Driver/src/usb_core.c ****   {
 959              		.loc 1 299 3 is_stmt 0 view .LVU337
 960 01de 03D0     		beq	.L26		@,
 301:../Libraries/STM32_USB_OTG_Driver/src/usb_core.c ****       USB_OTG_HOST_CHAN_REGS_OFFSET + \
 961              		.loc 1 301 5 is_stmt 1 discriminator 3 view .LVU338
 962              	@ ../Libraries/STM32_USB_OTG_Driver/src/usb_core.c:302:       USB_OTG_HOST_CHAN_REGS_OFFSET + \
 963              		.loc 1 302 37 is_stmt 0 discriminator 3 view .LVU339
 964 01e0 03F5D861 		add	r1, r3, #1728	@ tmp313, baseAddress,
 965              	@ ../Libraries/STM32_USB_OTG_Driver/src/usb_core.c:301:     pdev->regs.HC_REGS[i] = (USB_OTG_HC_REG
 301:../Libraries/STM32_USB_OTG_Driver/src/usb_core.c ****       USB_OTG_HOST_CHAN_REGS_OFFSET + \
 966              		.loc 1 301 27 discriminator 3 view .LVU340
 967 01e4 C0F8C810 		str	r1, [r0, #200]	@ tmp313, pdev_38(D)->regs.HC_REGS[14]
 299:../Libraries/STM32_USB_OTG_Driver/src/usb_core.c ****   {
 968              		.loc 1 299 44 is_stmt 1 discriminator 3 view .LVU341
 969              	.LVL58:
 299:../Libraries/STM32_USB_OTG_Driver/src/usb_core.c ****   {
 970              		.loc 1 299 15 discriminator 3 view .LVU342
 971              	.L26:
 303:../Libraries/STM32_USB_OTG_Driver/src/usb_core.c ****         (i * USB_OTG_CHAN_REGS_OFFSET));
 304:../Libraries/STM32_USB_OTG_Driver/src/usb_core.c ****   }
 305:../Libraries/STM32_USB_OTG_Driver/src/usb_core.c ****   for (i = 0; i < pdev->cfg.host_channels; i++)
 306:../Libraries/STM32_USB_OTG_Driver/src/usb_core.c ****   {
 307:../Libraries/STM32_USB_OTG_Driver/src/usb_core.c ****     pdev->regs.DFIFO[i] = (uint32_t *)(baseAddress + USB_OTG_DATA_FIFO_OFFSET +\
 972              		.loc 1 307 5 view .LVU343
 973              	@ ../Libraries/STM32_USB_OTG_Driver/src/usb_core.c:307:     pdev->regs.DFIFO[i] = (uint32_t *)(base
 974              		.loc 1 307 27 is_stmt 0 view .LVU344
 975 01e8 03F58051 		add	r1, r3, #4096	@ tmp327, baseAddress,
 976              	@ ../Libraries/STM32_USB_OTG_Driver/src/usb_core.c:307:     pdev->regs.DFIFO[i] = (uint32_t *)(base
 977              		.loc 1 307 25 view .LVU345
 978 01ec C0F8D010 		str	r1, [r0, #208]	@ tmp327, pdev_38(D)->regs.DFIFO[0]
 305:../Libraries/STM32_USB_OTG_Driver/src/usb_core.c ****   {
 979              		.loc 1 305 44 is_stmt 1 view .LVU346
 980              	.LVL59:
 305:../Libraries/STM32_USB_OTG_Driver/src/usb_core.c ****   {
 981              		.loc 1 305 15 view .LVU347
 982              		.loc 1 307 5 view .LVU348
 983              	@ ../Libraries/STM32_USB_OTG_Driver/src/usb_core.c:305:   for (i = 0; i < pdev->cfg.host_channels; 
 305:../Libraries/STM32_USB_OTG_Driver/src/usb_core.c ****   {
 984              		.loc 1 305 3 is_stmt 0 view .LVU349
 985 01f0 022A     		cmp	r2, #2	@ prephitmp_457,
 986              	@ ../Libraries/STM32_USB_OTG_Driver/src/usb_core.c:307:     pdev->regs.DFIFO[i] = (uint32_t *)(base
 987              		.loc 1 307 79 view .LVU350
 988 01f2 03F50051 		add	r1, r3, #8192	@ tmp328, baseAddress,
ARM GAS  C:\Users\admin\AppData\Local\Temp\ccFXFx3g.s 			page 28


 989              	@ ../Libraries/STM32_USB_OTG_Driver/src/usb_core.c:307:     pdev->regs.DFIFO[i] = (uint32_t *)(base
 990              		.loc 1 307 25 view .LVU351
 991 01f6 C0F8D410 		str	r1, [r0, #212]	@ tmp328, pdev_38(D)->regs.DFIFO[1]
 305:../Libraries/STM32_USB_OTG_Driver/src/usb_core.c ****   {
 992              		.loc 1 305 44 is_stmt 1 view .LVU352
 993              	.LVL60:
 305:../Libraries/STM32_USB_OTG_Driver/src/usb_core.c ****   {
 994              		.loc 1 305 15 view .LVU353
 995              	@ ../Libraries/STM32_USB_OTG_Driver/src/usb_core.c:305:   for (i = 0; i < pdev->cfg.host_channels; 
 305:../Libraries/STM32_USB_OTG_Driver/src/usb_core.c ****   {
 996              		.loc 1 305 3 is_stmt 0 view .LVU354
 997 01fa 4BD0     		beq	.L23		@,
 998              		.loc 1 307 5 is_stmt 1 view .LVU355
 999              	@ ../Libraries/STM32_USB_OTG_Driver/src/usb_core.c:307:     pdev->regs.DFIFO[i] = (uint32_t *)(base
 1000              		.loc 1 307 79 is_stmt 0 view .LVU356
 1001 01fc 03F54051 		add	r1, r3, #12288	@ tmp314, baseAddress,
 1002              	@ ../Libraries/STM32_USB_OTG_Driver/src/usb_core.c:305:   for (i = 0; i < pdev->cfg.host_channels; 
 305:../Libraries/STM32_USB_OTG_Driver/src/usb_core.c ****   {
 1003              		.loc 1 305 3 view .LVU357
 1004 0200 032A     		cmp	r2, #3	@ prephitmp_457,
 1005              	@ ../Libraries/STM32_USB_OTG_Driver/src/usb_core.c:307:     pdev->regs.DFIFO[i] = (uint32_t *)(base
 1006              		.loc 1 307 25 view .LVU358
 1007 0202 C0F8D810 		str	r1, [r0, #216]	@ tmp314, pdev_38(D)->regs.DFIFO[2]
 305:../Libraries/STM32_USB_OTG_Driver/src/usb_core.c ****   {
 1008              		.loc 1 305 44 is_stmt 1 view .LVU359
 1009              	.LVL61:
 305:../Libraries/STM32_USB_OTG_Driver/src/usb_core.c ****   {
 1010              		.loc 1 305 15 view .LVU360
 1011              	@ ../Libraries/STM32_USB_OTG_Driver/src/usb_core.c:305:   for (i = 0; i < pdev->cfg.host_channels; 
 305:../Libraries/STM32_USB_OTG_Driver/src/usb_core.c ****   {
 1012              		.loc 1 305 3 is_stmt 0 view .LVU361
 1013 0206 45D0     		beq	.L23		@,
 1014              		.loc 1 307 5 is_stmt 1 view .LVU362
 1015              	@ ../Libraries/STM32_USB_OTG_Driver/src/usb_core.c:307:     pdev->regs.DFIFO[i] = (uint32_t *)(base
 1016              		.loc 1 307 79 is_stmt 0 view .LVU363
 1017 0208 03F58041 		add	r1, r3, #16384	@ tmp315, baseAddress,
 1018              	@ ../Libraries/STM32_USB_OTG_Driver/src/usb_core.c:305:   for (i = 0; i < pdev->cfg.host_channels; 
 305:../Libraries/STM32_USB_OTG_Driver/src/usb_core.c ****   {
 1019              		.loc 1 305 3 view .LVU364
 1020 020c 042A     		cmp	r2, #4	@ prephitmp_457,
 1021              	@ ../Libraries/STM32_USB_OTG_Driver/src/usb_core.c:307:     pdev->regs.DFIFO[i] = (uint32_t *)(base
 1022              		.loc 1 307 25 view .LVU365
 1023 020e C0F8DC10 		str	r1, [r0, #220]	@ tmp315, pdev_38(D)->regs.DFIFO[3]
 305:../Libraries/STM32_USB_OTG_Driver/src/usb_core.c ****   {
 1024              		.loc 1 305 44 is_stmt 1 view .LVU366
 1025              	.LVL62:
 305:../Libraries/STM32_USB_OTG_Driver/src/usb_core.c ****   {
 1026              		.loc 1 305 15 view .LVU367
 1027              	@ ../Libraries/STM32_USB_OTG_Driver/src/usb_core.c:305:   for (i = 0; i < pdev->cfg.host_channels; 
 305:../Libraries/STM32_USB_OTG_Driver/src/usb_core.c ****   {
 1028              		.loc 1 305 3 is_stmt 0 view .LVU368
 1029 0212 3FD0     		beq	.L23		@,
 1030              		.loc 1 307 5 is_stmt 1 view .LVU369
 1031              	@ ../Libraries/STM32_USB_OTG_Driver/src/usb_core.c:307:     pdev->regs.DFIFO[i] = (uint32_t *)(base
 1032              		.loc 1 307 79 is_stmt 0 view .LVU370
 1033 0214 03F5A041 		add	r1, r3, #20480	@ tmp316, baseAddress,
 1034              	@ ../Libraries/STM32_USB_OTG_Driver/src/usb_core.c:305:   for (i = 0; i < pdev->cfg.host_channels; 
ARM GAS  C:\Users\admin\AppData\Local\Temp\ccFXFx3g.s 			page 29


 305:../Libraries/STM32_USB_OTG_Driver/src/usb_core.c ****   {
 1035              		.loc 1 305 3 view .LVU371
 1036 0218 052A     		cmp	r2, #5	@ prephitmp_457,
 1037              	@ ../Libraries/STM32_USB_OTG_Driver/src/usb_core.c:307:     pdev->regs.DFIFO[i] = (uint32_t *)(base
 1038              		.loc 1 307 25 view .LVU372
 1039 021a C0F8E010 		str	r1, [r0, #224]	@ tmp316, pdev_38(D)->regs.DFIFO[4]
 305:../Libraries/STM32_USB_OTG_Driver/src/usb_core.c ****   {
 1040              		.loc 1 305 44 is_stmt 1 view .LVU373
 1041              	.LVL63:
 305:../Libraries/STM32_USB_OTG_Driver/src/usb_core.c ****   {
 1042              		.loc 1 305 15 view .LVU374
 1043              	@ ../Libraries/STM32_USB_OTG_Driver/src/usb_core.c:305:   for (i = 0; i < pdev->cfg.host_channels; 
 305:../Libraries/STM32_USB_OTG_Driver/src/usb_core.c ****   {
 1044              		.loc 1 305 3 is_stmt 0 view .LVU375
 1045 021e 39D0     		beq	.L23		@,
 1046              		.loc 1 307 5 is_stmt 1 view .LVU376
 1047              	@ ../Libraries/STM32_USB_OTG_Driver/src/usb_core.c:307:     pdev->regs.DFIFO[i] = (uint32_t *)(base
 1048              		.loc 1 307 79 is_stmt 0 view .LVU377
 1049 0220 03F5C041 		add	r1, r3, #24576	@ tmp317, baseAddress,
 1050              	@ ../Libraries/STM32_USB_OTG_Driver/src/usb_core.c:305:   for (i = 0; i < pdev->cfg.host_channels; 
 305:../Libraries/STM32_USB_OTG_Driver/src/usb_core.c ****   {
 1051              		.loc 1 305 3 view .LVU378
 1052 0224 062A     		cmp	r2, #6	@ prephitmp_457,
 1053              	@ ../Libraries/STM32_USB_OTG_Driver/src/usb_core.c:307:     pdev->regs.DFIFO[i] = (uint32_t *)(base
 1054              		.loc 1 307 25 view .LVU379
 1055 0226 C0F8E410 		str	r1, [r0, #228]	@ tmp317, pdev_38(D)->regs.DFIFO[5]
 305:../Libraries/STM32_USB_OTG_Driver/src/usb_core.c ****   {
 1056              		.loc 1 305 44 is_stmt 1 view .LVU380
 1057              	.LVL64:
 305:../Libraries/STM32_USB_OTG_Driver/src/usb_core.c ****   {
 1058              		.loc 1 305 15 view .LVU381
 1059              	@ ../Libraries/STM32_USB_OTG_Driver/src/usb_core.c:305:   for (i = 0; i < pdev->cfg.host_channels; 
 305:../Libraries/STM32_USB_OTG_Driver/src/usb_core.c ****   {
 1060              		.loc 1 305 3 is_stmt 0 view .LVU382
 1061 022a 33D0     		beq	.L23		@,
 1062              		.loc 1 307 5 is_stmt 1 view .LVU383
 1063              	@ ../Libraries/STM32_USB_OTG_Driver/src/usb_core.c:307:     pdev->regs.DFIFO[i] = (uint32_t *)(base
 1064              		.loc 1 307 79 is_stmt 0 view .LVU384
 1065 022c 03F5E041 		add	r1, r3, #28672	@ tmp318, baseAddress,
 1066              	@ ../Libraries/STM32_USB_OTG_Driver/src/usb_core.c:305:   for (i = 0; i < pdev->cfg.host_channels; 
 305:../Libraries/STM32_USB_OTG_Driver/src/usb_core.c ****   {
 1067              		.loc 1 305 3 view .LVU385
 1068 0230 072A     		cmp	r2, #7	@ prephitmp_457,
 1069              	@ ../Libraries/STM32_USB_OTG_Driver/src/usb_core.c:307:     pdev->regs.DFIFO[i] = (uint32_t *)(base
 1070              		.loc 1 307 25 view .LVU386
 1071 0232 C0F8E810 		str	r1, [r0, #232]	@ tmp318, pdev_38(D)->regs.DFIFO[6]
 305:../Libraries/STM32_USB_OTG_Driver/src/usb_core.c ****   {
 1072              		.loc 1 305 44 is_stmt 1 view .LVU387
 1073              	.LVL65:
 305:../Libraries/STM32_USB_OTG_Driver/src/usb_core.c ****   {
 1074              		.loc 1 305 15 view .LVU388
 1075              	@ ../Libraries/STM32_USB_OTG_Driver/src/usb_core.c:305:   for (i = 0; i < pdev->cfg.host_channels; 
 305:../Libraries/STM32_USB_OTG_Driver/src/usb_core.c ****   {
 1076              		.loc 1 305 3 is_stmt 0 view .LVU389
 1077 0236 2DD0     		beq	.L23		@,
 1078              		.loc 1 307 5 is_stmt 1 view .LVU390
 1079              	@ ../Libraries/STM32_USB_OTG_Driver/src/usb_core.c:307:     pdev->regs.DFIFO[i] = (uint32_t *)(base
ARM GAS  C:\Users\admin\AppData\Local\Temp\ccFXFx3g.s 			page 30


 1080              		.loc 1 307 79 is_stmt 0 view .LVU391
 1081 0238 03F50041 		add	r1, r3, #32768	@ tmp319, baseAddress,
 1082              	@ ../Libraries/STM32_USB_OTG_Driver/src/usb_core.c:305:   for (i = 0; i < pdev->cfg.host_channels; 
 305:../Libraries/STM32_USB_OTG_Driver/src/usb_core.c ****   {
 1083              		.loc 1 305 3 view .LVU392
 1084 023c 082A     		cmp	r2, #8	@ prephitmp_457,
 1085              	@ ../Libraries/STM32_USB_OTG_Driver/src/usb_core.c:307:     pdev->regs.DFIFO[i] = (uint32_t *)(base
 1086              		.loc 1 307 25 view .LVU393
 1087 023e C0F8EC10 		str	r1, [r0, #236]	@ tmp319, pdev_38(D)->regs.DFIFO[7]
 305:../Libraries/STM32_USB_OTG_Driver/src/usb_core.c ****   {
 1088              		.loc 1 305 44 is_stmt 1 view .LVU394
 1089              	.LVL66:
 305:../Libraries/STM32_USB_OTG_Driver/src/usb_core.c ****   {
 1090              		.loc 1 305 15 view .LVU395
 1091              	@ ../Libraries/STM32_USB_OTG_Driver/src/usb_core.c:305:   for (i = 0; i < pdev->cfg.host_channels; 
 305:../Libraries/STM32_USB_OTG_Driver/src/usb_core.c ****   {
 1092              		.loc 1 305 3 is_stmt 0 view .LVU396
 1093 0242 27D0     		beq	.L23		@,
 1094              		.loc 1 307 5 is_stmt 1 view .LVU397
 1095              	@ ../Libraries/STM32_USB_OTG_Driver/src/usb_core.c:307:     pdev->regs.DFIFO[i] = (uint32_t *)(base
 1096              		.loc 1 307 79 is_stmt 0 view .LVU398
 1097 0244 03F51041 		add	r1, r3, #36864	@ tmp320, baseAddress,
 1098              	@ ../Libraries/STM32_USB_OTG_Driver/src/usb_core.c:305:   for (i = 0; i < pdev->cfg.host_channels; 
 305:../Libraries/STM32_USB_OTG_Driver/src/usb_core.c ****   {
 1099              		.loc 1 305 3 view .LVU399
 1100 0248 092A     		cmp	r2, #9	@ prephitmp_457,
 1101              	@ ../Libraries/STM32_USB_OTG_Driver/src/usb_core.c:307:     pdev->regs.DFIFO[i] = (uint32_t *)(base
 1102              		.loc 1 307 25 view .LVU400
 1103 024a C0F8F010 		str	r1, [r0, #240]	@ tmp320, pdev_38(D)->regs.DFIFO[8]
 305:../Libraries/STM32_USB_OTG_Driver/src/usb_core.c ****   {
 1104              		.loc 1 305 44 is_stmt 1 view .LVU401
 1105              	.LVL67:
 305:../Libraries/STM32_USB_OTG_Driver/src/usb_core.c ****   {
 1106              		.loc 1 305 15 view .LVU402
 1107              	@ ../Libraries/STM32_USB_OTG_Driver/src/usb_core.c:305:   for (i = 0; i < pdev->cfg.host_channels; 
 305:../Libraries/STM32_USB_OTG_Driver/src/usb_core.c ****   {
 1108              		.loc 1 305 3 is_stmt 0 view .LVU403
 1109 024e 21D0     		beq	.L23		@,
 1110              		.loc 1 307 5 is_stmt 1 view .LVU404
 1111              	@ ../Libraries/STM32_USB_OTG_Driver/src/usb_core.c:307:     pdev->regs.DFIFO[i] = (uint32_t *)(base
 1112              		.loc 1 307 79 is_stmt 0 view .LVU405
 1113 0250 03F52041 		add	r1, r3, #40960	@ tmp321, baseAddress,
 1114              	@ ../Libraries/STM32_USB_OTG_Driver/src/usb_core.c:305:   for (i = 0; i < pdev->cfg.host_channels; 
 305:../Libraries/STM32_USB_OTG_Driver/src/usb_core.c ****   {
 1115              		.loc 1 305 3 view .LVU406
 1116 0254 0A2A     		cmp	r2, #10	@ prephitmp_457,
 1117              	@ ../Libraries/STM32_USB_OTG_Driver/src/usb_core.c:307:     pdev->regs.DFIFO[i] = (uint32_t *)(base
 1118              		.loc 1 307 25 view .LVU407
 1119 0256 C0F8F410 		str	r1, [r0, #244]	@ tmp321, pdev_38(D)->regs.DFIFO[9]
 305:../Libraries/STM32_USB_OTG_Driver/src/usb_core.c ****   {
 1120              		.loc 1 305 44 is_stmt 1 view .LVU408
 1121              	.LVL68:
 305:../Libraries/STM32_USB_OTG_Driver/src/usb_core.c ****   {
 1122              		.loc 1 305 15 view .LVU409
 1123              	@ ../Libraries/STM32_USB_OTG_Driver/src/usb_core.c:305:   for (i = 0; i < pdev->cfg.host_channels; 
 305:../Libraries/STM32_USB_OTG_Driver/src/usb_core.c ****   {
 1124              		.loc 1 305 3 is_stmt 0 view .LVU410
ARM GAS  C:\Users\admin\AppData\Local\Temp\ccFXFx3g.s 			page 31


 1125 025a 1BD0     		beq	.L23		@,
 1126              		.loc 1 307 5 is_stmt 1 view .LVU411
 1127              	@ ../Libraries/STM32_USB_OTG_Driver/src/usb_core.c:307:     pdev->regs.DFIFO[i] = (uint32_t *)(base
 1128              		.loc 1 307 79 is_stmt 0 view .LVU412
 1129 025c 03F53041 		add	r1, r3, #45056	@ tmp322, baseAddress,
 1130              	@ ../Libraries/STM32_USB_OTG_Driver/src/usb_core.c:305:   for (i = 0; i < pdev->cfg.host_channels; 
 305:../Libraries/STM32_USB_OTG_Driver/src/usb_core.c ****   {
 1131              		.loc 1 305 3 view .LVU413
 1132 0260 0B2A     		cmp	r2, #11	@ prephitmp_457,
 1133              	@ ../Libraries/STM32_USB_OTG_Driver/src/usb_core.c:307:     pdev->regs.DFIFO[i] = (uint32_t *)(base
 1134              		.loc 1 307 25 view .LVU414
 1135 0262 C0F8F810 		str	r1, [r0, #248]	@ tmp322, pdev_38(D)->regs.DFIFO[10]
 305:../Libraries/STM32_USB_OTG_Driver/src/usb_core.c ****   {
 1136              		.loc 1 305 44 is_stmt 1 view .LVU415
 1137              	.LVL69:
 305:../Libraries/STM32_USB_OTG_Driver/src/usb_core.c ****   {
 1138              		.loc 1 305 15 view .LVU416
 1139              	@ ../Libraries/STM32_USB_OTG_Driver/src/usb_core.c:305:   for (i = 0; i < pdev->cfg.host_channels; 
 305:../Libraries/STM32_USB_OTG_Driver/src/usb_core.c ****   {
 1140              		.loc 1 305 3 is_stmt 0 view .LVU417
 1141 0266 15D0     		beq	.L23		@,
 1142              		.loc 1 307 5 is_stmt 1 view .LVU418
 1143              	@ ../Libraries/STM32_USB_OTG_Driver/src/usb_core.c:307:     pdev->regs.DFIFO[i] = (uint32_t *)(base
 1144              		.loc 1 307 79 is_stmt 0 view .LVU419
 1145 0268 03F54041 		add	r1, r3, #49152	@ tmp323, baseAddress,
 1146              	@ ../Libraries/STM32_USB_OTG_Driver/src/usb_core.c:305:   for (i = 0; i < pdev->cfg.host_channels; 
 305:../Libraries/STM32_USB_OTG_Driver/src/usb_core.c ****   {
 1147              		.loc 1 305 3 view .LVU420
 1148 026c 0C2A     		cmp	r2, #12	@ prephitmp_457,
 1149              	@ ../Libraries/STM32_USB_OTG_Driver/src/usb_core.c:307:     pdev->regs.DFIFO[i] = (uint32_t *)(base
 1150              		.loc 1 307 25 view .LVU421
 1151 026e C0F8FC10 		str	r1, [r0, #252]	@ tmp323, pdev_38(D)->regs.DFIFO[11]
 305:../Libraries/STM32_USB_OTG_Driver/src/usb_core.c ****   {
 1152              		.loc 1 305 44 is_stmt 1 view .LVU422
 1153              	.LVL70:
 305:../Libraries/STM32_USB_OTG_Driver/src/usb_core.c ****   {
 1154              		.loc 1 305 15 view .LVU423
 1155              	@ ../Libraries/STM32_USB_OTG_Driver/src/usb_core.c:305:   for (i = 0; i < pdev->cfg.host_channels; 
 305:../Libraries/STM32_USB_OTG_Driver/src/usb_core.c ****   {
 1156              		.loc 1 305 3 is_stmt 0 view .LVU424
 1157 0272 0FD0     		beq	.L23		@,
 1158              		.loc 1 307 5 is_stmt 1 view .LVU425
 1159              	@ ../Libraries/STM32_USB_OTG_Driver/src/usb_core.c:307:     pdev->regs.DFIFO[i] = (uint32_t *)(base
 1160              		.loc 1 307 79 is_stmt 0 view .LVU426
 1161 0274 03F55041 		add	r1, r3, #53248	@ tmp324, baseAddress,
 1162              	@ ../Libraries/STM32_USB_OTG_Driver/src/usb_core.c:305:   for (i = 0; i < pdev->cfg.host_channels; 
 305:../Libraries/STM32_USB_OTG_Driver/src/usb_core.c ****   {
 1163              		.loc 1 305 3 view .LVU427
 1164 0278 0D2A     		cmp	r2, #13	@ prephitmp_457,
 1165              	@ ../Libraries/STM32_USB_OTG_Driver/src/usb_core.c:307:     pdev->regs.DFIFO[i] = (uint32_t *)(base
 1166              		.loc 1 307 25 view .LVU428
 1167 027a C0F80011 		str	r1, [r0, #256]	@ tmp324, pdev_38(D)->regs.DFIFO[12]
 305:../Libraries/STM32_USB_OTG_Driver/src/usb_core.c ****   {
 1168              		.loc 1 305 44 is_stmt 1 view .LVU429
 1169              	.LVL71:
 305:../Libraries/STM32_USB_OTG_Driver/src/usb_core.c ****   {
 1170              		.loc 1 305 15 view .LVU430
ARM GAS  C:\Users\admin\AppData\Local\Temp\ccFXFx3g.s 			page 32


 1171              	@ ../Libraries/STM32_USB_OTG_Driver/src/usb_core.c:305:   for (i = 0; i < pdev->cfg.host_channels; 
 305:../Libraries/STM32_USB_OTG_Driver/src/usb_core.c ****   {
 1172              		.loc 1 305 3 is_stmt 0 view .LVU431
 1173 027e 09D0     		beq	.L23		@,
 1174              		.loc 1 307 5 is_stmt 1 view .LVU432
 1175              	@ ../Libraries/STM32_USB_OTG_Driver/src/usb_core.c:307:     pdev->regs.DFIFO[i] = (uint32_t *)(base
 1176              		.loc 1 307 79 is_stmt 0 view .LVU433
 1177 0280 03F56041 		add	r1, r3, #57344	@ tmp325, baseAddress,
 1178              	@ ../Libraries/STM32_USB_OTG_Driver/src/usb_core.c:305:   for (i = 0; i < pdev->cfg.host_channels; 
 305:../Libraries/STM32_USB_OTG_Driver/src/usb_core.c ****   {
 1179              		.loc 1 305 3 view .LVU434
 1180 0284 0E2A     		cmp	r2, #14	@ prephitmp_457,
 1181              	@ ../Libraries/STM32_USB_OTG_Driver/src/usb_core.c:307:     pdev->regs.DFIFO[i] = (uint32_t *)(base
 1182              		.loc 1 307 25 view .LVU435
 1183 0286 C0F80411 		str	r1, [r0, #260]	@ tmp325, pdev_38(D)->regs.DFIFO[13]
 305:../Libraries/STM32_USB_OTG_Driver/src/usb_core.c ****   {
 1184              		.loc 1 305 44 is_stmt 1 view .LVU436
 1185              	.LVL72:
 305:../Libraries/STM32_USB_OTG_Driver/src/usb_core.c ****   {
 1186              		.loc 1 305 15 view .LVU437
 1187              	@ ../Libraries/STM32_USB_OTG_Driver/src/usb_core.c:305:   for (i = 0; i < pdev->cfg.host_channels; 
 305:../Libraries/STM32_USB_OTG_Driver/src/usb_core.c ****   {
 1188              		.loc 1 305 3 is_stmt 0 view .LVU438
 1189 028a 03D0     		beq	.L23		@,
 1190              		.loc 1 307 5 is_stmt 1 discriminator 3 view .LVU439
 1191              	@ ../Libraries/STM32_USB_OTG_Driver/src/usb_core.c:307:     pdev->regs.DFIFO[i] = (uint32_t *)(base
 1192              		.loc 1 307 79 is_stmt 0 discriminator 3 view .LVU440
 1193 028c 03F57043 		add	r3, r3, #61440	@ tmp326, baseAddress,
 1194              	@ ../Libraries/STM32_USB_OTG_Driver/src/usb_core.c:307:     pdev->regs.DFIFO[i] = (uint32_t *)(base
 1195              		.loc 1 307 25 discriminator 3 view .LVU441
 1196 0290 C0F80831 		str	r3, [r0, #264]	@ tmp326, pdev_38(D)->regs.DFIFO[14]
 305:../Libraries/STM32_USB_OTG_Driver/src/usb_core.c ****   {
 1197              		.loc 1 305 44 is_stmt 1 discriminator 3 view .LVU442
 1198              	.LVL73:
 305:../Libraries/STM32_USB_OTG_Driver/src/usb_core.c ****   {
 1199              		.loc 1 305 15 discriminator 3 view .LVU443
 1200              	.L23:
 308:../Libraries/STM32_USB_OTG_Driver/src/usb_core.c ****       (i * USB_OTG_DATA_FIFO_SIZE));
 309:../Libraries/STM32_USB_OTG_Driver/src/usb_core.c ****   }
 310:../Libraries/STM32_USB_OTG_Driver/src/usb_core.c ****   pdev->regs.PCGCCTL = (uint32_t *)(baseAddress + USB_OTG_PCGCCTL_OFFSET);
 1201              		.loc 1 310 3 view .LVU444
 1202              	@ ../Libraries/STM32_USB_OTG_Driver/src/usb_core.c:310:   pdev->regs.PCGCCTL = (uint32_t *)(baseAdd
 1203              		.loc 1 310 22 is_stmt 0 view .LVU445
 1204 0294 C0F80C61 		str	r6, [r0, #268]	@ prephitmp_390, pdev_38(D)->regs.PCGCCTL
 311:../Libraries/STM32_USB_OTG_Driver/src/usb_core.c ****   
 312:../Libraries/STM32_USB_OTG_Driver/src/usb_core.c ****   return status;
 1205              		.loc 1 312 3 is_stmt 1 view .LVU446
 1206              	@ ../Libraries/STM32_USB_OTG_Driver/src/usb_core.c:313: }
 313:../Libraries/STM32_USB_OTG_Driver/src/usb_core.c **** }
 1207              		.loc 1 313 1 is_stmt 0 view .LVU447
 1208 0298 0020     		movs	r0, #0	@,
 1209              	.LVL74:
 1210              		.loc 1 313 1 view .LVU448
 1211 029a F0BC     		pop	{r4, r5, r6, r7}	@
 1212              		.cfi_remember_state
 1213              		.cfi_restore 7
 1214              		.cfi_restore 6
ARM GAS  C:\Users\admin\AppData\Local\Temp\ccFXFx3g.s 			page 33


 1215              		.cfi_restore 5
 1216              		.cfi_restore 4
 1217              		.cfi_def_cfa_offset 0
 1218 029c 7047     		bx	lr	@
 1219              	.LVL75:
 1220              	.L148:
 1221              		.cfi_restore_state
 1222              	@ ../Libraries/STM32_USB_OTG_Driver/src/usb_core.c:286:   for (i = 0; i < pdev->cfg.dev_endpoints; 
 286:../Libraries/STM32_USB_OTG_Driver/src/usb_core.c ****   {
 1223              		.loc 1 286 28 view .LVU449
 1224 029e 4178     		ldrb	r1, [r0, #1]	@ zero_extendqisi2	@ prephitmp_280, pdev_38(D)->cfg.dev_endpoints
 1225              	.LVL76:
 281:../Libraries/STM32_USB_OTG_Driver/src/usb_core.c ****     USB_OTG_CORE_GLOBAL_REGS_OFFSET);
 1226              		.loc 1 281 3 is_stmt 1 view .LVU450
 1227              	@ ../Libraries/STM32_USB_OTG_Driver/src/usb_core.c:299:   for (i = 0; i < pdev->cfg.host_channels; 
 299:../Libraries/STM32_USB_OTG_Driver/src/usb_core.c ****   {
 1228              		.loc 1 299 28 is_stmt 0 view .LVU451
 1229 02a0 0278     		ldrb	r2, [r0]	@ zero_extendqisi2	@ prephitmp_457, pdev_38(D)->cfg.host_channels
 1230              	@ ../Libraries/STM32_USB_OTG_Driver/src/usb_core.c:281:   pdev->regs.GREGS = (USB_OTG_GREGS *)(base
 281:../Libraries/STM32_USB_OTG_Driver/src/usb_core.c ****     USB_OTG_CORE_GLOBAL_REGS_OFFSET);
 1231              		.loc 1 281 20 view .LVU452
 1232 02a2 0023     		movs	r3, #0	@ tmp260,
 1233              	@ ../Libraries/STM32_USB_OTG_Driver/src/usb_core.c:283:   pdev->regs.DREGS =  (USB_OTG_DREGS  *)  (
 283:../Libraries/STM32_USB_OTG_Driver/src/usb_core.c ****     USB_OTG_DEV_GLOBAL_REG_OFFSET);
 1234              		.loc 1 283 20 view .LVU453
 1235 02a4 4FF40064 		mov	r4, #2048	@ tmp261,
 1236 02a8 C0E90334 		strd	r3, r4, [r0, #12]	@ tmp260, tmp261, pdev,
 286:../Libraries/STM32_USB_OTG_Driver/src/usb_core.c ****   {
 1237              		.loc 1 286 3 is_stmt 1 view .LVU454
 1238              	.LVL77:
 286:../Libraries/STM32_USB_OTG_Driver/src/usb_core.c ****   {
 1239              		.loc 1 286 15 view .LVU455
 1240              	@ ../Libraries/STM32_USB_OTG_Driver/src/usb_core.c:286:   for (i = 0; i < pdev->cfg.dev_endpoints; 
 286:../Libraries/STM32_USB_OTG_Driver/src/usb_core.c ****   {
 1241              		.loc 1 286 3 is_stmt 0 view .LVU456
 1242 02ac 19B3     		cbz	r1, .L149	@ prephitmp_280,
 288:../Libraries/STM32_USB_OTG_Driver/src/usb_core.c ****       (baseAddress + USB_OTG_DEV_IN_EP_REG_OFFSET + \
 1243              		.loc 1 288 5 is_stmt 1 view .LVU457
 1244              	@ ../Libraries/STM32_USB_OTG_Driver/src/usb_core.c:288:     pdev->regs.INEP_REGS[i]  = (USB_OTG_INE
 288:../Libraries/STM32_USB_OTG_Driver/src/usb_core.c ****       (baseAddress + USB_OTG_DEV_IN_EP_REG_OFFSET + \
 1245              		.loc 1 288 30 is_stmt 0 view .LVU458
 1246 02ae 4FF41064 		mov	r4, #2304	@ tmp268,
 1247 02b2 8461     		str	r4, [r0, #24]	@ tmp268, MEM <struct USB_OTG_INEPREGS *> [(struct USB_OTG_CORE_HANDLE *)pdev_38
 291:../Libraries/STM32_USB_OTG_Driver/src/usb_core.c ****       (baseAddress + USB_OTG_DEV_OUT_EP_REG_OFFSET + \
 1248              		.loc 1 291 5 is_stmt 1 view .LVU459
 1249              	@ ../Libraries/STM32_USB_OTG_Driver/src/usb_core.c:286:   for (i = 0; i < pdev->cfg.dev_endpoints; 
 286:../Libraries/STM32_USB_OTG_Driver/src/usb_core.c ****   {
 1250              		.loc 1 286 3 is_stmt 0 view .LVU460
 1251 02b4 0129     		cmp	r1, #1	@ prephitmp_280,
 1252              	@ ../Libraries/STM32_USB_OTG_Driver/src/usb_core.c:291:     pdev->regs.OUTEP_REGS[i] = (USB_OTG_OUT
 291:../Libraries/STM32_USB_OTG_Driver/src/usb_core.c ****       (baseAddress + USB_OTG_DEV_OUT_EP_REG_OFFSET + \
 1253              		.loc 1 291 30 view .LVU461
 1254 02b6 4FF43064 		mov	r4, #2816	@ tmp269,
 1255 02ba 4465     		str	r4, [r0, #84]	@ tmp269, MEM <struct USB_OTG_OUTEPREGS *> [(struct USB_OTG_CORE_HANDLE *)pdev_3
 286:../Libraries/STM32_USB_OTG_Driver/src/usb_core.c ****   {
 1256              		.loc 1 286 44 is_stmt 1 view .LVU462
 1257              	.LVL78:
ARM GAS  C:\Users\admin\AppData\Local\Temp\ccFXFx3g.s 			page 34


 286:../Libraries/STM32_USB_OTG_Driver/src/usb_core.c ****   {
 1258              		.loc 1 286 15 view .LVU463
 1259              	@ ../Libraries/STM32_USB_OTG_Driver/src/usb_core.c:286:   for (i = 0; i < pdev->cfg.dev_endpoints; 
 286:../Libraries/STM32_USB_OTG_Driver/src/usb_core.c ****   {
 1260              		.loc 1 286 3 is_stmt 0 view .LVU464
 1261 02bc 4FF46066 		mov	r6, #3584	@ prephitmp_390,
 1262 02c0 4FF48867 		mov	r7, #1088	@ prephitmp_459,
 1263 02c4 4FF48065 		mov	r5, #1024	@ prephitmp_371,
 1264 02c8 7FF4BDAE 		bne	.L29		@,
 1265 02cc 2DE7     		b	.L21		@
 1266              	.LVL79:
 1267              	.L147:
 236:../Libraries/STM32_USB_OTG_Driver/src/usb_core.c ****     pdev->cfg.coreID           = USB_OTG_FS_CORE_ID;
 1268              		.loc 1 236 5 is_stmt 1 view .LVU465
 237:../Libraries/STM32_USB_OTG_Driver/src/usb_core.c ****     pdev->cfg.host_channels    = 8 ;
 1269              		.loc 1 237 5 view .LVU466
 1270              	@ ../Libraries/STM32_USB_OTG_Driver/src/usb_core.c:238:     pdev->cfg.host_channels    = 8 ;
 238:../Libraries/STM32_USB_OTG_Driver/src/usb_core.c ****     pdev->cfg.dev_endpoints    = 4 ;
 1271              		.loc 1 238 32 is_stmt 0 view .LVU467
 1272 02ce 4FF48164 		mov	r4, #1032	@ tmp255,
 1273              	@ ../Libraries/STM32_USB_OTG_Driver/src/usb_core.c:240:     pdev->cfg.TotalFifoSize    = 320; /* in
 240:../Libraries/STM32_USB_OTG_Driver/src/usb_core.c ****     pdev->cfg.phy_itface       = USB_OTG_EMBEDDED_PHY;     
 1274              		.loc 1 240 32 view .LVU468
 1275 02d2 4FF4A072 		mov	r2, #320	@ tmp257,
 1276              	@ ../Libraries/STM32_USB_OTG_Driver/src/usb_core.c:241:     pdev->cfg.phy_itface       = USB_OTG_EM
 241:../Libraries/STM32_USB_OTG_Driver/src/usb_core.c ****     
 1277              		.loc 1 241 32 view .LVU469
 1278 02d6 0223     		movs	r3, #2	@ tmp258,
 1279              	@ ../Libraries/STM32_USB_OTG_Driver/src/usb_core.c:238:     pdev->cfg.host_channels    = 8 ;
 238:../Libraries/STM32_USB_OTG_Driver/src/usb_core.c ****     pdev->cfg.dev_endpoints    = 4 ;
 1280              		.loc 1 238 32 view .LVU470
 1281 02d8 0480     		strh	r4, [r0]	@ movhi	@ tmp255, MEM <vector(2) unsigned char> [(unsigned char *)pdev_38(D)]
 1282 02da 4FF0A044 		mov	r4, #1342177280	@ prephitmp_269,
 1283              	@ ../Libraries/STM32_USB_OTG_Driver/src/usb_core.c:237:     pdev->cfg.coreID           = USB_OTG_FS
 237:../Libraries/STM32_USB_OTG_Driver/src/usb_core.c ****     pdev->cfg.host_channels    = 8 ;
 1284              		.loc 1 237 32 view .LVU471
 1285 02de C172     		strb	r1, [r0, #11]	@ coreID, pdev_38(D)->cfg.coreID
 238:../Libraries/STM32_USB_OTG_Driver/src/usb_core.c ****     pdev->cfg.dev_endpoints    = 4 ;
 1286              		.loc 1 238 5 is_stmt 1 view .LVU472
 239:../Libraries/STM32_USB_OTG_Driver/src/usb_core.c ****     pdev->cfg.TotalFifoSize    = 320; /* in 32-bits */
 1287              		.loc 1 239 5 view .LVU473
 240:../Libraries/STM32_USB_OTG_Driver/src/usb_core.c ****     pdev->cfg.phy_itface       = USB_OTG_EMBEDDED_PHY;     
 1288              		.loc 1 240 5 view .LVU474
 1289              	@ ../Libraries/STM32_USB_OTG_Driver/src/usb_core.c:240:     pdev->cfg.TotalFifoSize    = 320; /* in
 240:../Libraries/STM32_USB_OTG_Driver/src/usb_core.c ****     pdev->cfg.phy_itface       = USB_OTG_EMBEDDED_PHY;     
 1290              		.loc 1 240 32 is_stmt 0 view .LVU475
 1291 02e0 C280     		strh	r2, [r0, #6]	@ movhi	@ tmp257, pdev_38(D)->cfg.TotalFifoSize
 241:../Libraries/STM32_USB_OTG_Driver/src/usb_core.c ****     
 1292              		.loc 1 241 5 is_stmt 1 view .LVU476
 1293              	@ ../Libraries/STM32_USB_OTG_Driver/src/usb_core.c:241:     pdev->cfg.phy_itface       = USB_OTG_EM
 241:../Libraries/STM32_USB_OTG_Driver/src/usb_core.c ****     
 1294              		.loc 1 241 32 is_stmt 0 view .LVU477
 1295 02e2 0372     		strb	r3, [r0, #8]	@ tmp258, pdev_38(D)->cfg.phy_itface
 1296 02e4 0C4E     		ldr	r6, .L150+16	@ prephitmp_390,
 1297 02e6 0D4F     		ldr	r7, .L150+20	@ prephitmp_459,
 1298 02e8 0D4D     		ldr	r5, .L150+24	@ prephitmp_371,
 1299 02ea DFF83CC0 		ldr	ip, .L150+32	@ prephitmp_270,
ARM GAS  C:\Users\admin\AppData\Local\Temp\ccFXFx3g.s 			page 35


 1300 02ee 0421     		movs	r1, #4	@ prephitmp_280,
 1301              	.LVL80:
 241:../Libraries/STM32_USB_OTG_Driver/src/usb_core.c ****     
 1302              		.loc 1 241 32 view .LVU478
 1303 02f0 0822     		movs	r2, #8	@ prephitmp_457,
 1304              	@ ../Libraries/STM32_USB_OTG_Driver/src/usb_core.c:236:     baseAddress                = USB_OTG_FS
 236:../Libraries/STM32_USB_OTG_Driver/src/usb_core.c ****     pdev->cfg.coreID           = USB_OTG_FS_CORE_ID;
 1305              		.loc 1 236 32 view .LVU479
 1306 02f2 2346     		mov	r3, r4	@ baseAddress, prephitmp_269
 1307 02f4 9FE6     		b	.L18		@
 1308              	.LVL81:
 1309              	.L149:
 1310              	@ ../Libraries/STM32_USB_OTG_Driver/src/usb_core.c:224:   uint32_t i , baseAddress = 0;
 224:../Libraries/STM32_USB_OTG_Driver/src/usb_core.c ****   USB_OTG_STS status = USB_OTG_OK;
 1311              		.loc 1 224 16 view .LVU480
 1312 02f6 0B46     		mov	r3, r1	@ baseAddress, prephitmp_280
 1313              	@ ../Libraries/STM32_USB_OTG_Driver/src/usb_core.c:286:   for (i = 0; i < pdev->cfg.dev_endpoints; 
 286:../Libraries/STM32_USB_OTG_Driver/src/usb_core.c ****   {
 1314              		.loc 1 286 3 view .LVU481
 1315 02f8 4FF46066 		mov	r6, #3584	@ prephitmp_390,
 1316 02fc 4FF48867 		mov	r7, #1088	@ prephitmp_459,
 1317 0300 4FF48065 		mov	r5, #1024	@ prephitmp_371,
 1318 0304 11E7     		b	.L21		@
 1319              	.L151:
 1320 0306 00BF     		.align	2
 1321              	.L150:
 1322 0308 00000440 		.word	1074003968
 1323 030c 000E0440 		.word	1074007552
 1324 0310 40040440 		.word	1074005056
 1325 0314 00040440 		.word	1074004992
 1326 0318 000E0050 		.word	1342180864
 1327 031c 40040050 		.word	1342178368
 1328 0320 00040050 		.word	1342178304
 1329 0324 00080440 		.word	1074006016
 1330 0328 00080050 		.word	1342179328
 1331              	.LVL82:
 1332              	.L25:
 307:../Libraries/STM32_USB_OTG_Driver/src/usb_core.c ****       (i * USB_OTG_DATA_FIFO_SIZE));
 1333              		.loc 1 307 5 is_stmt 1 view .LVU482
 1334              	@ ../Libraries/STM32_USB_OTG_Driver/src/usb_core.c:307:     pdev->regs.DFIFO[i] = (uint32_t *)(base
 307:../Libraries/STM32_USB_OTG_Driver/src/usb_core.c ****       (i * USB_OTG_DATA_FIFO_SIZE));
 1335              		.loc 1 307 27 is_stmt 0 view .LVU483
 1336 032c 03F58053 		add	r3, r3, #4096	@ tmp329, baseAddress,
 1337              	@ ../Libraries/STM32_USB_OTG_Driver/src/usb_core.c:307:     pdev->regs.DFIFO[i] = (uint32_t *)(base
 307:../Libraries/STM32_USB_OTG_Driver/src/usb_core.c ****       (i * USB_OTG_DATA_FIFO_SIZE));
 1338              		.loc 1 307 25 view .LVU484
 1339 0330 C0F8D030 		str	r3, [r0, #208]	@ tmp329, pdev_38(D)->regs.DFIFO[0]
 305:../Libraries/STM32_USB_OTG_Driver/src/usb_core.c ****   {
 1340              		.loc 1 305 44 is_stmt 1 view .LVU485
 1341              	.LVL83:
 305:../Libraries/STM32_USB_OTG_Driver/src/usb_core.c ****   {
 1342              		.loc 1 305 15 view .LVU486
 1343 0334 AEE7     		b	.L23		@
 1344              		.cfi_endproc
 1345              	.LFE114:
 1346              		.size	USB_OTG_SelectCore, .-USB_OTG_SelectCore
 1347 0336 00BF     		.section	.text.USB_OTG_CoreInit,"ax",%progbits
ARM GAS  C:\Users\admin\AppData\Local\Temp\ccFXFx3g.s 			page 36


 1348              		.align	1
 1349              		.p2align 2,,3
 1350              		.global	USB_OTG_CoreInit
 1351              		.syntax unified
 1352              		.thumb
 1353              		.thumb_func
 1354              		.type	USB_OTG_CoreInit, %function
 1355              	USB_OTG_CoreInit:
 1356              	.LVL84:
 1357              	.LFB115:
 314:../Libraries/STM32_USB_OTG_Driver/src/usb_core.c **** 
 315:../Libraries/STM32_USB_OTG_Driver/src/usb_core.c **** 
 316:../Libraries/STM32_USB_OTG_Driver/src/usb_core.c **** /**
 317:../Libraries/STM32_USB_OTG_Driver/src/usb_core.c **** * @brief  USB_OTG_CoreInit
 318:../Libraries/STM32_USB_OTG_Driver/src/usb_core.c **** *         Initializes the USB_OTG controller registers and prepares the core
 319:../Libraries/STM32_USB_OTG_Driver/src/usb_core.c **** *         device mode or host mode operation.
 320:../Libraries/STM32_USB_OTG_Driver/src/usb_core.c **** * @param  pdev : Selected device
 321:../Libraries/STM32_USB_OTG_Driver/src/usb_core.c **** * @retval USB_OTG_STS : status
 322:../Libraries/STM32_USB_OTG_Driver/src/usb_core.c **** */
 323:../Libraries/STM32_USB_OTG_Driver/src/usb_core.c **** USB_OTG_STS USB_OTG_CoreInit(USB_OTG_CORE_HANDLE *pdev)
 324:../Libraries/STM32_USB_OTG_Driver/src/usb_core.c **** {
 1358              		.loc 1 324 1 view -0
 1359              		.cfi_startproc
 1360              		@ args = 0, pretend = 0, frame = 8
 1361              		@ frame_needed = 0, uses_anonymous_args = 0
 325:../Libraries/STM32_USB_OTG_Driver/src/usb_core.c ****   USB_OTG_STS status = USB_OTG_OK;
 1362              		.loc 1 325 3 view .LVU488
 326:../Libraries/STM32_USB_OTG_Driver/src/usb_core.c ****   USB_OTG_GUSBCFG_TypeDef  usbcfg;
 1363              		.loc 1 326 3 view .LVU489
 327:../Libraries/STM32_USB_OTG_Driver/src/usb_core.c ****   USB_OTG_GCCFG_TypeDef    gccfg;
 1364              		.loc 1 327 3 view .LVU490
 328:../Libraries/STM32_USB_OTG_Driver/src/usb_core.c ****   USB_OTG_GAHBCFG_TypeDef  ahbcfg;
 1365              		.loc 1 328 3 view .LVU491
 329:../Libraries/STM32_USB_OTG_Driver/src/usb_core.c ****   
 330:../Libraries/STM32_USB_OTG_Driver/src/usb_core.c ****   usbcfg.d32 = 0;
 1366              		.loc 1 330 3 view .LVU492
 331:../Libraries/STM32_USB_OTG_Driver/src/usb_core.c ****   gccfg.d32 = 0;
 1367              		.loc 1 331 3 view .LVU493
 1368              	@ ../Libraries/STM32_USB_OTG_Driver/src/usb_core.c:324: {
 324:../Libraries/STM32_USB_OTG_Driver/src/usb_core.c ****   USB_OTG_STS status = USB_OTG_OK;
 1369              		.loc 1 324 1 is_stmt 0 view .LVU494
 1370 0000 70B5     		push	{r4, r5, r6, lr}	@
 1371              		.cfi_def_cfa_offset 16
 1372              		.cfi_offset 4, -16
 1373              		.cfi_offset 5, -12
 1374              		.cfi_offset 6, -8
 1375              		.cfi_offset 14, -4
 1376              	@ ../Libraries/STM32_USB_OTG_Driver/src/usb_core.c:336:   if (pdev->cfg.phy_itface == USB_OTG_ULPI_
 332:../Libraries/STM32_USB_OTG_Driver/src/usb_core.c ****   ahbcfg.d32 = 0;
 333:../Libraries/STM32_USB_OTG_Driver/src/usb_core.c ****   
 334:../Libraries/STM32_USB_OTG_Driver/src/usb_core.c ****   
 335:../Libraries/STM32_USB_OTG_Driver/src/usb_core.c ****   
 336:../Libraries/STM32_USB_OTG_Driver/src/usb_core.c ****   if (pdev->cfg.phy_itface == USB_OTG_ULPI_PHY)
 1377              		.loc 1 336 6 view .LVU495
 1378 0002 037A     		ldrb	r3, [r0, #8]	@ zero_extendqisi2	@ pdev_26(D)->cfg.phy_itface, pdev_26(D)->cfg.phy_itface
 1379 0004 012B     		cmp	r3, #1	@ pdev_26(D)->cfg.phy_itface,
 1380              	@ ../Libraries/STM32_USB_OTG_Driver/src/usb_core.c:324: {
ARM GAS  C:\Users\admin\AppData\Local\Temp\ccFXFx3g.s 			page 37


 324:../Libraries/STM32_USB_OTG_Driver/src/usb_core.c ****   USB_OTG_STS status = USB_OTG_OK;
 1381              		.loc 1 324 1 view .LVU496
 1382 0006 82B0     		sub	sp, sp, #8	@,,
 1383              		.cfi_def_cfa_offset 24
 1384              	@ ../Libraries/STM32_USB_OTG_Driver/src/usb_core.c:324: {
 324:../Libraries/STM32_USB_OTG_Driver/src/usb_core.c ****   USB_OTG_STS status = USB_OTG_OK;
 1385              		.loc 1 324 1 view .LVU497
 1386 0008 0446     		mov	r4, r0	@ pdev, tmp216
 332:../Libraries/STM32_USB_OTG_Driver/src/usb_core.c ****   ahbcfg.d32 = 0;
 1387              		.loc 1 332 3 is_stmt 1 view .LVU498
 1388              		.loc 1 336 3 view .LVU499
 1389              	@ ../Libraries/STM32_USB_OTG_Driver/src/usb_core.c:336:   if (pdev->cfg.phy_itface == USB_OTG_ULPI_
 1390              		.loc 1 336 6 is_stmt 0 view .LVU500
 1391 000a 42D1     		bne	.L153		@,
 337:../Libraries/STM32_USB_OTG_Driver/src/usb_core.c ****   {
 338:../Libraries/STM32_USB_OTG_Driver/src/usb_core.c ****     gccfg.d32 = USB_OTG_READ_REG32(&pdev->regs.GREGS->GCCFG);
 1392              		.loc 1 338 5 is_stmt 1 view .LVU501
 1393              	@ ../Libraries/STM32_USB_OTG_Driver/src/usb_core.c:338:     gccfg.d32 = USB_OTG_READ_REG32(&pdev->r
 1394              		.loc 1 338 17 is_stmt 0 view .LVU502
 1395 000c C268     		ldr	r2, [r0, #12]	@ _2, pdev_26(D)->regs.GREGS
 1396              	@ ../Libraries/STM32_USB_OTG_Driver/src/usb_core.c:341:     if (pdev->cfg.Sof_output)
 339:../Libraries/STM32_USB_OTG_Driver/src/usb_core.c ****     gccfg.b.pwdn = 0;
 340:../Libraries/STM32_USB_OTG_Driver/src/usb_core.c ****     
 341:../Libraries/STM32_USB_OTG_Driver/src/usb_core.c ****     if (pdev->cfg.Sof_output)
 1397              		.loc 1 341 8 view .LVU503
 1398 000e 417A     		ldrb	r1, [r0, #9]	@ zero_extendqisi2	@ pdev_26(D)->cfg.Sof_output, pdev_26(D)->cfg.Sof_output
 1399              	@ ../Libraries/STM32_USB_OTG_Driver/src/usb_core.c:338:     gccfg.d32 = USB_OTG_READ_REG32(&pdev->r
 338:../Libraries/STM32_USB_OTG_Driver/src/usb_core.c ****     gccfg.b.pwdn = 0;
 1400              		.loc 1 338 17 view .LVU504
 1401 0010 966B     		ldr	r6, [r2, #56]	@ gccfg, _2->GCCFG
 1402              	.LVL85:
 339:../Libraries/STM32_USB_OTG_Driver/src/usb_core.c ****     gccfg.b.pwdn = 0;
 1403              		.loc 1 339 5 is_stmt 1 view .LVU505
 1404              	@ ../Libraries/STM32_USB_OTG_Driver/src/usb_core.c:339:     gccfg.b.pwdn = 0;
 339:../Libraries/STM32_USB_OTG_Driver/src/usb_core.c ****     gccfg.b.pwdn = 0;
 1405              		.loc 1 339 18 is_stmt 0 view .LVU506
 1406 0012 6FF31046 		bfc	r6, #16, #1	@ gccfg,,
 1407              		.loc 1 341 5 is_stmt 1 view .LVU507
 1408              	@ ../Libraries/STM32_USB_OTG_Driver/src/usb_core.c:341:     if (pdev->cfg.Sof_output)
 1409              		.loc 1 341 8 is_stmt 0 view .LVU508
 1410 0016 0029     		cmp	r1, #0	@ pdev_26(D)->cfg.Sof_output
 1411 0018 38D0     		beq	.L181	@
 1412              	.L154:
 1413 001a 63F31456 		bfi	r6, r3, #20, #1	@ gccfg, cstore_105,,
 342:../Libraries/STM32_USB_OTG_Driver/src/usb_core.c ****     {
 343:../Libraries/STM32_USB_OTG_Driver/src/usb_core.c ****       gccfg.b.sofouten = 1;   
 344:../Libraries/STM32_USB_OTG_Driver/src/usb_core.c ****     }
 345:../Libraries/STM32_USB_OTG_Driver/src/usb_core.c ****     USB_OTG_WRITE_REG32 (&pdev->regs.GREGS->GCCFG, gccfg.d32);
 1414              		.loc 1 345 5 is_stmt 1 view .LVU509
 1415 001e 9663     		str	r6, [r2, #56]	@ gccfg, _2->GCCFG
 346:../Libraries/STM32_USB_OTG_Driver/src/usb_core.c ****     
 347:../Libraries/STM32_USB_OTG_Driver/src/usb_core.c ****     /* Init The ULPI Interface */
 348:../Libraries/STM32_USB_OTG_Driver/src/usb_core.c ****     usbcfg.d32 = 0;
 1416              		.loc 1 348 5 view .LVU510
 349:../Libraries/STM32_USB_OTG_Driver/src/usb_core.c ****     usbcfg.d32 = USB_OTG_READ_REG32(&pdev->regs.GREGS->GUSBCFG);
 1417              		.loc 1 349 5 view .LVU511
 1418              	@ ../Libraries/STM32_USB_OTG_Driver/src/usb_core.c:349:     usbcfg.d32 = USB_OTG_READ_REG32(&pdev->
ARM GAS  C:\Users\admin\AppData\Local\Temp\ccFXFx3g.s 			page 38


 1419              		.loc 1 349 18 is_stmt 0 view .LVU512
 1420 0020 D368     		ldr	r3, [r2, #12]	@ _6, _2->GUSBCFG
 350:../Libraries/STM32_USB_OTG_Driver/src/usb_core.c ****     
 351:../Libraries/STM32_USB_OTG_Driver/src/usb_core.c ****     usbcfg.b.physel            = 0; /* HS Interface */
 1421              		.loc 1 351 5 is_stmt 1 view .LVU513
 352:../Libraries/STM32_USB_OTG_Driver/src/usb_core.c **** #ifdef USB_OTG_INTERNAL_VBUS_ENABLED
 353:../Libraries/STM32_USB_OTG_Driver/src/usb_core.c ****     usbcfg.b.ulpi_ext_vbus_drv = 0; /* Use internal VBUS */
 354:../Libraries/STM32_USB_OTG_Driver/src/usb_core.c **** #else
 355:../Libraries/STM32_USB_OTG_Driver/src/usb_core.c **** #ifdef USB_OTG_EXTERNAL_VBUS_ENABLED    
 356:../Libraries/STM32_USB_OTG_Driver/src/usb_core.c ****     usbcfg.b.ulpi_ext_vbus_drv = 1; /* Use external VBUS */
 357:../Libraries/STM32_USB_OTG_Driver/src/usb_core.c **** #endif
 358:../Libraries/STM32_USB_OTG_Driver/src/usb_core.c **** #endif 
 359:../Libraries/STM32_USB_OTG_Driver/src/usb_core.c ****     usbcfg.b.term_sel_dl_pulse = 0; /* Data line pulsing using utmi_txvalid */    
 1422              		.loc 1 359 5 view .LVU514
 360:../Libraries/STM32_USB_OTG_Driver/src/usb_core.c ****     
 361:../Libraries/STM32_USB_OTG_Driver/src/usb_core.c ****     usbcfg.b.ulpi_fsls = 0;
 1423              		.loc 1 361 5 view .LVU515
 362:../Libraries/STM32_USB_OTG_Driver/src/usb_core.c ****     usbcfg.b.ulpi_clk_sus_m = 0;
 1424              		.loc 1 362 5 view .LVU516
 1425              	.LBB30:
 1426              	.LBB31:
 1427              	@ ../Libraries/STM32_USB_OTG_Driver/src/usb_core.c:134:     greset.d32 = USB_OTG_READ_REG32(&pdev->
 134:../Libraries/STM32_USB_OTG_Driver/src/usb_core.c ****     if (++count > 200000)
 1428              		.loc 1 134 16 is_stmt 0 view .LVU517
 1429 0022 444D     		ldr	r5, .L183	@ ivtmp_119,
 1430              	.LBE31:
 1431              	.LBE30:
 1432              	@ ../Libraries/STM32_USB_OTG_Driver/src/usb_core.c:351:     usbcfg.b.physel            = 0; /* HS I
 351:../Libraries/STM32_USB_OTG_Driver/src/usb_core.c **** #ifdef USB_OTG_INTERNAL_VBUS_ENABLED
 1433              		.loc 1 351 32 view .LVU518
 1434 0024 23F49403 		bic	r3, r3, #4849664	@ tmp173, _6,
 1435 0028 23F04003 		bic	r3, r3, #64	@ tmp173, tmp173,
 363:../Libraries/STM32_USB_OTG_Driver/src/usb_core.c ****     USB_OTG_WRITE_REG32 (&pdev->regs.GREGS->GUSBCFG, usbcfg.d32);
 1436              		.loc 1 363 5 is_stmt 1 view .LVU519
 1437 002c D360     		str	r3, [r2, #12]	@ tmp173, _2->GUSBCFG
 364:../Libraries/STM32_USB_OTG_Driver/src/usb_core.c ****     
 365:../Libraries/STM32_USB_OTG_Driver/src/usb_core.c ****     /* Reset after a PHY select  */
 366:../Libraries/STM32_USB_OTG_Driver/src/usb_core.c ****     USB_OTG_CoreReset(pdev);
 1438              		.loc 1 366 5 view .LVU520
 1439              	.LVL86:
 1440              	.LBB33:
 1441              	.LBI30:
 123:../Libraries/STM32_USB_OTG_Driver/src/usb_core.c **** {
 1442              		.loc 1 123 20 view .LVU521
 1443              	.LBB32:
 125:../Libraries/STM32_USB_OTG_Driver/src/usb_core.c ****   __IO USB_OTG_GRSTCTL_TypeDef  greset;
 1444              		.loc 1 125 3 view .LVU522
 126:../Libraries/STM32_USB_OTG_Driver/src/usb_core.c ****   uint32_t count = 0;
 1445              		.loc 1 126 3 view .LVU523
 127:../Libraries/STM32_USB_OTG_Driver/src/usb_core.c ****   
 1446              		.loc 1 127 3 view .LVU524
 129:../Libraries/STM32_USB_OTG_Driver/src/usb_core.c ****   /* Wait for AHB master IDLE state. */
 1447              		.loc 1 129 3 view .LVU525
 1448              	@ ../Libraries/STM32_USB_OTG_Driver/src/usb_core.c:129:   greset.d32 = 0;
 129:../Libraries/STM32_USB_OTG_Driver/src/usb_core.c ****   /* Wait for AHB master IDLE state. */
 1449              		.loc 1 129 14 is_stmt 0 view .LVU526
 1450 002e 0021     		movs	r1, #0	@ tmp176,
ARM GAS  C:\Users\admin\AppData\Local\Temp\ccFXFx3g.s 			page 39


 1451              	@ ../Libraries/STM32_USB_OTG_Driver/src/usb_core.c:133:     USB_OTG_BSP_uDelay(3);
 133:../Libraries/STM32_USB_OTG_Driver/src/usb_core.c ****     greset.d32 = USB_OTG_READ_REG32(&pdev->regs.GREGS->GRSTCTL);
 1452              		.loc 1 133 5 view .LVU527
 1453 0030 0320     		movs	r0, #3	@,
 1454              	.LVL87:
 1455              	@ ../Libraries/STM32_USB_OTG_Driver/src/usb_core.c:129:   greset.d32 = 0;
 129:../Libraries/STM32_USB_OTG_Driver/src/usb_core.c ****   /* Wait for AHB master IDLE state. */
 1456              		.loc 1 129 14 view .LVU528
 1457 0032 0091     		str	r1, [sp]	@ tmp176, greset.d32
 131:../Libraries/STM32_USB_OTG_Driver/src/usb_core.c ****   {
 1458              		.loc 1 131 3 is_stmt 1 view .LVU529
 133:../Libraries/STM32_USB_OTG_Driver/src/usb_core.c ****     greset.d32 = USB_OTG_READ_REG32(&pdev->regs.GREGS->GRSTCTL);
 1459              		.loc 1 133 5 view .LVU530
 1460 0034 FFF7FEFF 		bl	USB_OTG_BSP_uDelay		@
 1461              	.LVL88:
 134:../Libraries/STM32_USB_OTG_Driver/src/usb_core.c ****     if (++count > 200000)
 1462              		.loc 1 134 5 view .LVU531
 1463              	@ ../Libraries/STM32_USB_OTG_Driver/src/usb_core.c:134:     greset.d32 = USB_OTG_READ_REG32(&pdev->
 134:../Libraries/STM32_USB_OTG_Driver/src/usb_core.c ****     if (++count > 200000)
 1464              		.loc 1 134 18 is_stmt 0 view .LVU532
 1465 0038 E368     		ldr	r3, [r4, #12]	@ _57, pdev_26(D)->regs.GREGS
 1466 003a 1A69     		ldr	r2, [r3, #16]	@ _112, _111->GRSTCTL
 1467              	@ ../Libraries/STM32_USB_OTG_Driver/src/usb_core.c:134:     greset.d32 = USB_OTG_READ_REG32(&pdev->
 134:../Libraries/STM32_USB_OTG_Driver/src/usb_core.c ****     if (++count > 200000)
 1468              		.loc 1 134 16 view .LVU533
 1469 003c 0092     		str	r2, [sp]	@ _112, greset.d32
 135:../Libraries/STM32_USB_OTG_Driver/src/usb_core.c ****     {
 1470              		.loc 1 135 5 is_stmt 1 view .LVU534
 1471              	.LVL89:
 135:../Libraries/STM32_USB_OTG_Driver/src/usb_core.c ****     {
 1472              		.loc 1 135 5 is_stmt 0 view .LVU535
 1473 003e 06E0     		b	.L155		@
 1474              	.LVL90:
 1475              	.L157:
 1476              	@ ../Libraries/STM32_USB_OTG_Driver/src/usb_core.c:133:     USB_OTG_BSP_uDelay(3);
 133:../Libraries/STM32_USB_OTG_Driver/src/usb_core.c ****     greset.d32 = USB_OTG_READ_REG32(&pdev->regs.GREGS->GRSTCTL);
 1477              		.loc 1 133 5 view .LVU536
 1478 0040 FFF7FEFF 		bl	USB_OTG_BSP_uDelay		@
 1479              	.LVL91:
 134:../Libraries/STM32_USB_OTG_Driver/src/usb_core.c ****     if (++count > 200000)
 1480              		.loc 1 134 5 is_stmt 1 view .LVU537
 1481              	@ ../Libraries/STM32_USB_OTG_Driver/src/usb_core.c:134:     greset.d32 = USB_OTG_READ_REG32(&pdev->
 134:../Libraries/STM32_USB_OTG_Driver/src/usb_core.c ****     if (++count > 200000)
 1482              		.loc 1 134 18 is_stmt 0 view .LVU538
 1483 0044 E368     		ldr	r3, [r4, #12]	@ _57, pdev_26(D)->regs.GREGS
 1484              	@ ../Libraries/STM32_USB_OTG_Driver/src/usb_core.c:135:     if (++count > 200000)
 135:../Libraries/STM32_USB_OTG_Driver/src/usb_core.c ****     {
 1485              		.loc 1 135 8 view .LVU539
 1486 0046 013D     		subs	r5, r5, #1	@ ivtmp_119, ivtmp_119,
 1487              	@ ../Libraries/STM32_USB_OTG_Driver/src/usb_core.c:134:     greset.d32 = USB_OTG_READ_REG32(&pdev->
 134:../Libraries/STM32_USB_OTG_Driver/src/usb_core.c ****     if (++count > 200000)
 1488              		.loc 1 134 18 view .LVU540
 1489 0048 1A69     		ldr	r2, [r3, #16]	@ _58, _57->GRSTCTL
 1490              	@ ../Libraries/STM32_USB_OTG_Driver/src/usb_core.c:134:     greset.d32 = USB_OTG_READ_REG32(&pdev->
 134:../Libraries/STM32_USB_OTG_Driver/src/usb_core.c ****     if (++count > 200000)
 1491              		.loc 1 134 16 view .LVU541
 1492 004a 0092     		str	r2, [sp]	@ _58, greset.d32
ARM GAS  C:\Users\admin\AppData\Local\Temp\ccFXFx3g.s 			page 40


 135:../Libraries/STM32_USB_OTG_Driver/src/usb_core.c ****     {
 1493              		.loc 1 135 5 is_stmt 1 view .LVU542
 1494              	@ ../Libraries/STM32_USB_OTG_Driver/src/usb_core.c:135:     if (++count > 200000)
 135:../Libraries/STM32_USB_OTG_Driver/src/usb_core.c ****     {
 1495              		.loc 1 135 8 is_stmt 0 view .LVU543
 1496 004c 18D0     		beq	.L156		@,
 1497              	.L155:
 131:../Libraries/STM32_USB_OTG_Driver/src/usb_core.c ****   {
 1498              		.loc 1 131 3 is_stmt 1 view .LVU544
 133:../Libraries/STM32_USB_OTG_Driver/src/usb_core.c ****     greset.d32 = USB_OTG_READ_REG32(&pdev->regs.GREGS->GRSTCTL);
 1499              		.loc 1 133 5 view .LVU545
 140:../Libraries/STM32_USB_OTG_Driver/src/usb_core.c ****   /* Core Soft Reset */
 1500              		.loc 1 140 9 view .LVU546
 1501              	@ ../Libraries/STM32_USB_OTG_Driver/src/usb_core.c:140:   while (greset.b.ahbidle == 0);
 140:../Libraries/STM32_USB_OTG_Driver/src/usb_core.c ****   /* Core Soft Reset */
 1502              		.loc 1 140 18 is_stmt 0 view .LVU547
 1503 004e 009A     		ldr	r2, [sp]	@ greset, greset
 1504              	@ ../Libraries/STM32_USB_OTG_Driver/src/usb_core.c:140:   while (greset.b.ahbidle == 0);
 140:../Libraries/STM32_USB_OTG_Driver/src/usb_core.c ****   /* Core Soft Reset */
 1505              		.loc 1 140 3 view .LVU548
 1506 0050 002A     		cmp	r2, #0	@ greset,
 1507              	@ ../Libraries/STM32_USB_OTG_Driver/src/usb_core.c:133:     USB_OTG_BSP_uDelay(3);
 133:../Libraries/STM32_USB_OTG_Driver/src/usb_core.c ****     greset.d32 = USB_OTG_READ_REG32(&pdev->regs.GREGS->GRSTCTL);
 1508              		.loc 1 133 5 view .LVU549
 1509 0052 4FF00300 		mov	r0, #3	@,
 1510              	@ ../Libraries/STM32_USB_OTG_Driver/src/usb_core.c:140:   while (greset.b.ahbidle == 0);
 140:../Libraries/STM32_USB_OTG_Driver/src/usb_core.c ****   /* Core Soft Reset */
 1511              		.loc 1 140 3 view .LVU550
 1512 0056 F3DA     		bge	.L157		@,
 142:../Libraries/STM32_USB_OTG_Driver/src/usb_core.c ****   greset.b.csftrst = 1;
 1513              		.loc 1 142 3 is_stmt 1 view .LVU551
 1514              	.LVL92:
 143:../Libraries/STM32_USB_OTG_Driver/src/usb_core.c ****   USB_OTG_WRITE_REG32(&pdev->regs.GREGS->GRSTCTL, greset.d32 );
 1515              		.loc 1 143 3 view .LVU552
 1516              	@ ../Libraries/STM32_USB_OTG_Driver/src/usb_core.c:143:   greset.b.csftrst = 1;
 143:../Libraries/STM32_USB_OTG_Driver/src/usb_core.c ****   USB_OTG_WRITE_REG32(&pdev->regs.GREGS->GRSTCTL, greset.d32 );
 1517              		.loc 1 143 20 is_stmt 0 view .LVU553
 1518 0058 0099     		ldr	r1, [sp]	@ tmp179,
 1519              	@ ../Libraries/STM32_USB_OTG_Driver/src/usb_core.c:147:     greset.d32 = USB_OTG_READ_REG32(&pdev->
 147:../Libraries/STM32_USB_OTG_Driver/src/usb_core.c ****     if (++count > 200000)
 1520              		.loc 1 147 16 view .LVU554
 1521 005a 364A     		ldr	r2, .L183	@ ivtmp_14,
 1522              	@ ../Libraries/STM32_USB_OTG_Driver/src/usb_core.c:143:   greset.b.csftrst = 1;
 143:../Libraries/STM32_USB_OTG_Driver/src/usb_core.c ****   USB_OTG_WRITE_REG32(&pdev->regs.GREGS->GRSTCTL, greset.d32 );
 1523              		.loc 1 143 20 view .LVU555
 1524 005c 41F00101 		orr	r1, r1, #1	@ tmp179, tmp179,
 1525 0060 0091     		str	r1, [sp]	@ tmp179,
 144:../Libraries/STM32_USB_OTG_Driver/src/usb_core.c ****   do
 1526              		.loc 1 144 3 is_stmt 1 view .LVU556
 1527 0062 0099     		ldr	r1, [sp]	@ _62, greset.d32
 1528 0064 1961     		str	r1, [r3, #16]	@ _62, _128->GRSTCTL
 145:../Libraries/STM32_USB_OTG_Driver/src/usb_core.c ****   {
 1529              		.loc 1 145 3 view .LVU557
 147:../Libraries/STM32_USB_OTG_Driver/src/usb_core.c ****     if (++count > 200000)
 1530              		.loc 1 147 5 view .LVU558
 1531              	@ ../Libraries/STM32_USB_OTG_Driver/src/usb_core.c:147:     greset.d32 = USB_OTG_READ_REG32(&pdev->
 147:../Libraries/STM32_USB_OTG_Driver/src/usb_core.c ****     if (++count > 200000)
ARM GAS  C:\Users\admin\AppData\Local\Temp\ccFXFx3g.s 			page 41


 1532              		.loc 1 147 18 is_stmt 0 view .LVU559
 1533 0066 1969     		ldr	r1, [r3, #16]	@ _109, _128->GRSTCTL
 1534              	@ ../Libraries/STM32_USB_OTG_Driver/src/usb_core.c:147:     greset.d32 = USB_OTG_READ_REG32(&pdev->
 147:../Libraries/STM32_USB_OTG_Driver/src/usb_core.c ****     if (++count > 200000)
 1535              		.loc 1 147 16 view .LVU560
 1536 0068 0091     		str	r1, [sp]	@ _109, greset.d32
 148:../Libraries/STM32_USB_OTG_Driver/src/usb_core.c ****     {
 1537              		.loc 1 148 5 is_stmt 1 view .LVU561
 1538              	.LVL93:
 148:../Libraries/STM32_USB_OTG_Driver/src/usb_core.c ****     {
 1539              		.loc 1 148 5 is_stmt 0 view .LVU562
 1540 006a 03E0     		b	.L158		@
 1541              	.LVL94:
 1542              	.L159:
 1543              	@ ../Libraries/STM32_USB_OTG_Driver/src/usb_core.c:147:     greset.d32 = USB_OTG_READ_REG32(&pdev->
 147:../Libraries/STM32_USB_OTG_Driver/src/usb_core.c ****     if (++count > 200000)
 1544              		.loc 1 147 18 view .LVU563
 1545 006c 1969     		ldr	r1, [r3, #16]	@ _64, _128->GRSTCTL
 1546              	@ ../Libraries/STM32_USB_OTG_Driver/src/usb_core.c:147:     greset.d32 = USB_OTG_READ_REG32(&pdev->
 147:../Libraries/STM32_USB_OTG_Driver/src/usb_core.c ****     if (++count > 200000)
 1547              		.loc 1 147 16 view .LVU564
 1548 006e 0091     		str	r1, [sp]	@ _64, greset.d32
 148:../Libraries/STM32_USB_OTG_Driver/src/usb_core.c ****     {
 1549              		.loc 1 148 5 is_stmt 1 view .LVU565
 1550              	@ ../Libraries/STM32_USB_OTG_Driver/src/usb_core.c:148:     if (++count > 200000)
 148:../Libraries/STM32_USB_OTG_Driver/src/usb_core.c ****     {
 1551              		.loc 1 148 8 is_stmt 0 view .LVU566
 1552 0070 013A     		subs	r2, r2, #1	@ ivtmp_14, ivtmp_14,
 1553 0072 02D0     		beq	.L160		@,
 1554              	.L158:
 145:../Libraries/STM32_USB_OTG_Driver/src/usb_core.c ****   {
 1555              		.loc 1 145 3 is_stmt 1 view .LVU567
 147:../Libraries/STM32_USB_OTG_Driver/src/usb_core.c ****     if (++count > 200000)
 1556              		.loc 1 147 5 view .LVU568
 153:../Libraries/STM32_USB_OTG_Driver/src/usb_core.c ****   /* Wait for 3 PHY Clocks*/
 1557              		.loc 1 153 9 view .LVU569
 1558              	@ ../Libraries/STM32_USB_OTG_Driver/src/usb_core.c:153:   while (greset.b.csftrst == 1);
 153:../Libraries/STM32_USB_OTG_Driver/src/usb_core.c ****   /* Wait for 3 PHY Clocks*/
 1559              		.loc 1 153 18 is_stmt 0 view .LVU570
 1560 0074 0099     		ldr	r1, [sp]	@ greset, greset
 1561              	@ ../Libraries/STM32_USB_OTG_Driver/src/usb_core.c:153:   while (greset.b.csftrst == 1);
 153:../Libraries/STM32_USB_OTG_Driver/src/usb_core.c ****   /* Wait for 3 PHY Clocks*/
 1562              		.loc 1 153 3 view .LVU571
 1563 0076 C807     		lsls	r0, r1, #31	@, greset,
 1564 0078 F8D4     		bmi	.L159		@,
 1565              	.L160:
 155:../Libraries/STM32_USB_OTG_Driver/src/usb_core.c ****   return status;
 1566              		.loc 1 155 3 is_stmt 1 view .LVU572
 1567 007a 0320     		movs	r0, #3	@,
 1568 007c FFF7FEFF 		bl	USB_OTG_BSP_uDelay		@
 1569              	.LVL95:
 156:../Libraries/STM32_USB_OTG_Driver/src/usb_core.c **** }
 1570              		.loc 1 156 3 view .LVU573
 1571              	.L156:
 156:../Libraries/STM32_USB_OTG_Driver/src/usb_core.c **** }
 1572              		.loc 1 156 3 is_stmt 0 view .LVU574
 1573              	.LBE32:
ARM GAS  C:\Users\admin\AppData\Local\Temp\ccFXFx3g.s 			page 42


 1574              	.LBE33:
 367:../Libraries/STM32_USB_OTG_Driver/src/usb_core.c ****     
 368:../Libraries/STM32_USB_OTG_Driver/src/usb_core.c ****     if(pdev->cfg.dma_enable == 1)
 1575              		.loc 1 368 5 is_stmt 1 view .LVU575
 1576              	@ ../Libraries/STM32_USB_OTG_Driver/src/usb_core.c:368:     if(pdev->cfg.dma_enable == 1)
 1577              		.loc 1 368 7 is_stmt 0 view .LVU576
 1578 0080 E378     		ldrb	r3, [r4, #3]	@ zero_extendqisi2	@ pdev_26(D)->cfg.dma_enable, pdev_26(D)->cfg.dma_enable
 1579 0082 012B     		cmp	r3, #1	@ pdev_26(D)->cfg.dma_enable,
 1580 0084 47D0     		beq	.L182		@,
 1581              	.LVL96:
 1582              	.L162:
 369:../Libraries/STM32_USB_OTG_Driver/src/usb_core.c ****     {
 370:../Libraries/STM32_USB_OTG_Driver/src/usb_core.c ****       
 371:../Libraries/STM32_USB_OTG_Driver/src/usb_core.c ****       ahbcfg.b.hburstlen = 5; /* 64 x 32-bits*/
 372:../Libraries/STM32_USB_OTG_Driver/src/usb_core.c ****       ahbcfg.b.dmaenable = 1;
 373:../Libraries/STM32_USB_OTG_Driver/src/usb_core.c ****       USB_OTG_WRITE_REG32(&pdev->regs.GREGS->GAHBCFG, ahbcfg.d32);
 374:../Libraries/STM32_USB_OTG_Driver/src/usb_core.c ****       
 375:../Libraries/STM32_USB_OTG_Driver/src/usb_core.c ****     }    
 376:../Libraries/STM32_USB_OTG_Driver/src/usb_core.c ****   }
 377:../Libraries/STM32_USB_OTG_Driver/src/usb_core.c ****   else /* FS interface (embedded Phy) */
 378:../Libraries/STM32_USB_OTG_Driver/src/usb_core.c ****   {
 379:../Libraries/STM32_USB_OTG_Driver/src/usb_core.c ****     
 380:../Libraries/STM32_USB_OTG_Driver/src/usb_core.c ****     usbcfg.d32 = USB_OTG_READ_REG32(&pdev->regs.GREGS->GUSBCFG);;
 381:../Libraries/STM32_USB_OTG_Driver/src/usb_core.c ****     usbcfg.b.physel  = 1; /* FS Interface */
 382:../Libraries/STM32_USB_OTG_Driver/src/usb_core.c ****     USB_OTG_WRITE_REG32 (&pdev->regs.GREGS->GUSBCFG, usbcfg.d32);
 383:../Libraries/STM32_USB_OTG_Driver/src/usb_core.c ****     /* Reset after a PHY select and set Host mode */
 384:../Libraries/STM32_USB_OTG_Driver/src/usb_core.c ****     USB_OTG_CoreReset(pdev);
 385:../Libraries/STM32_USB_OTG_Driver/src/usb_core.c ****     /* Deactivate the power down*/
 386:../Libraries/STM32_USB_OTG_Driver/src/usb_core.c ****     gccfg.d32 = 0;
 387:../Libraries/STM32_USB_OTG_Driver/src/usb_core.c ****     gccfg.b.pwdn = 1;
 388:../Libraries/STM32_USB_OTG_Driver/src/usb_core.c ****     
 389:../Libraries/STM32_USB_OTG_Driver/src/usb_core.c ****     gccfg.b.vbussensingA = 1 ;
 390:../Libraries/STM32_USB_OTG_Driver/src/usb_core.c ****     gccfg.b.vbussensingB = 1 ;     
 391:../Libraries/STM32_USB_OTG_Driver/src/usb_core.c **** #ifndef VBUS_SENSING_ENABLED
 392:../Libraries/STM32_USB_OTG_Driver/src/usb_core.c ****     gccfg.b.disablevbussensing = 1; 
 393:../Libraries/STM32_USB_OTG_Driver/src/usb_core.c **** #endif    
 394:../Libraries/STM32_USB_OTG_Driver/src/usb_core.c ****     
 395:../Libraries/STM32_USB_OTG_Driver/src/usb_core.c ****     if(pdev->cfg.Sof_output)
 396:../Libraries/STM32_USB_OTG_Driver/src/usb_core.c ****     {
 397:../Libraries/STM32_USB_OTG_Driver/src/usb_core.c ****       gccfg.b.sofouten = 1;  
 398:../Libraries/STM32_USB_OTG_Driver/src/usb_core.c ****     }
 399:../Libraries/STM32_USB_OTG_Driver/src/usb_core.c ****     
 400:../Libraries/STM32_USB_OTG_Driver/src/usb_core.c ****     USB_OTG_WRITE_REG32 (&pdev->regs.GREGS->GCCFG, gccfg.d32);
 401:../Libraries/STM32_USB_OTG_Driver/src/usb_core.c ****     USB_OTG_BSP_mDelay(20);
 402:../Libraries/STM32_USB_OTG_Driver/src/usb_core.c ****   }
 403:../Libraries/STM32_USB_OTG_Driver/src/usb_core.c ****   /* case the HS core is working in FS mode */
 404:../Libraries/STM32_USB_OTG_Driver/src/usb_core.c ****   if(pdev->cfg.dma_enable == 1)
 405:../Libraries/STM32_USB_OTG_Driver/src/usb_core.c ****   {
 406:../Libraries/STM32_USB_OTG_Driver/src/usb_core.c ****     
 407:../Libraries/STM32_USB_OTG_Driver/src/usb_core.c ****     ahbcfg.d32 = USB_OTG_READ_REG32(&pdev->regs.GREGS->GAHBCFG);
 408:../Libraries/STM32_USB_OTG_Driver/src/usb_core.c ****     ahbcfg.b.hburstlen = 5; /* 64 x 32-bits*/
 409:../Libraries/STM32_USB_OTG_Driver/src/usb_core.c ****     ahbcfg.b.dmaenable = 1;
 410:../Libraries/STM32_USB_OTG_Driver/src/usb_core.c ****     USB_OTG_WRITE_REG32(&pdev->regs.GREGS->GAHBCFG, ahbcfg.d32);
 411:../Libraries/STM32_USB_OTG_Driver/src/usb_core.c ****     
 412:../Libraries/STM32_USB_OTG_Driver/src/usb_core.c ****   }
 413:../Libraries/STM32_USB_OTG_Driver/src/usb_core.c ****   /* initialize OTG features */
 414:../Libraries/STM32_USB_OTG_Driver/src/usb_core.c **** #ifdef  USE_OTG_MODE
ARM GAS  C:\Users\admin\AppData\Local\Temp\ccFXFx3g.s 			page 43


 415:../Libraries/STM32_USB_OTG_Driver/src/usb_core.c ****   usbcfg.d32 = USB_OTG_READ_REG32(&pdev->regs.GREGS->GUSBCFG);
 416:../Libraries/STM32_USB_OTG_Driver/src/usb_core.c ****   usbcfg.b.hnpcap = 1;
 417:../Libraries/STM32_USB_OTG_Driver/src/usb_core.c ****   usbcfg.b.srpcap = 1;
 418:../Libraries/STM32_USB_OTG_Driver/src/usb_core.c ****   USB_OTG_WRITE_REG32(&pdev->regs.GREGS->GUSBCFG, usbcfg.d32);
 419:../Libraries/STM32_USB_OTG_Driver/src/usb_core.c ****   USB_OTG_EnableCommonInt(pdev);
 420:../Libraries/STM32_USB_OTG_Driver/src/usb_core.c **** #endif
 421:../Libraries/STM32_USB_OTG_Driver/src/usb_core.c ****   return status;
 1583              		.loc 1 421 3 is_stmt 1 view .LVU577
 1584              	@ ../Libraries/STM32_USB_OTG_Driver/src/usb_core.c:422: }
 422:../Libraries/STM32_USB_OTG_Driver/src/usb_core.c **** }
 1585              		.loc 1 422 1 is_stmt 0 view .LVU578
 1586 0086 0020     		movs	r0, #0	@,
 1587 0088 02B0     		add	sp, sp, #8	@,,
 1588              		.cfi_remember_state
 1589              		.cfi_def_cfa_offset 16
 1590              		@ sp needed	@
 1591 008a 70BD     		pop	{r4, r5, r6, pc}	@
 1592              	.LVL97:
 1593              	.L181:
 1594              		.cfi_restore_state
 1595              	@ ../Libraries/STM32_USB_OTG_Driver/src/usb_core.c:343:       gccfg.b.sofouten = 1;   
 343:../Libraries/STM32_USB_OTG_Driver/src/usb_core.c ****     }
 1596              		.loc 1 343 24 view .LVU579
 1597 008c C6F30053 		ubfx	r3, r6, #20, #1	@ cstore_105, gccfg,,
 1598 0090 C3E7     		b	.L154		@
 1599              	.LVL98:
 1600              	.L153:
 1601              	@ ../Libraries/STM32_USB_OTG_Driver/src/usb_core.c:380:     usbcfg.d32 = USB_OTG_READ_REG32(&pdev->
 380:../Libraries/STM32_USB_OTG_Driver/src/usb_core.c ****     usbcfg.b.physel  = 1; /* FS Interface */
 1602              		.loc 1 380 18 view .LVU580
 1603 0092 C268     		ldr	r2, [r0, #12]	@ _10, pdev_26(D)->regs.GREGS
 1604              	.LBB34:
 1605              	.LBB35:
 1606              	@ ../Libraries/STM32_USB_OTG_Driver/src/usb_core.c:134:     greset.d32 = USB_OTG_READ_REG32(&pdev->
 134:../Libraries/STM32_USB_OTG_Driver/src/usb_core.c ****     if (++count > 200000)
 1607              		.loc 1 134 16 view .LVU581
 1608 0094 274D     		ldr	r5, .L183	@ ivtmp_103,
 1609              	.LBE35:
 1610              	.LBE34:
 1611              	@ ../Libraries/STM32_USB_OTG_Driver/src/usb_core.c:380:     usbcfg.d32 = USB_OTG_READ_REG32(&pdev->
 380:../Libraries/STM32_USB_OTG_Driver/src/usb_core.c ****     usbcfg.b.physel  = 1; /* FS Interface */
 1612              		.loc 1 380 18 view .LVU582
 1613 0096 D368     		ldr	r3, [r2, #12]	@ _11, _10->GUSBCFG
 1614              	@ ../Libraries/STM32_USB_OTG_Driver/src/usb_core.c:381:     usbcfg.b.physel  = 1; /* FS Interface *
 381:../Libraries/STM32_USB_OTG_Driver/src/usb_core.c ****     USB_OTG_WRITE_REG32 (&pdev->regs.GREGS->GUSBCFG, usbcfg.d32);
 1615              		.loc 1 381 22 view .LVU583
 1616 0098 43F04003 		orr	r3, r3, #64	@ usbcfg, _11,
 1617              	.LVL99:
 1618              	@ ../Libraries/STM32_USB_OTG_Driver/src/usb_core.c:382:     USB_OTG_WRITE_REG32 (&pdev->regs.GREGS-
 382:../Libraries/STM32_USB_OTG_Driver/src/usb_core.c ****     /* Reset after a PHY select and set Host mode */
 1619              		.loc 1 382 5 view .LVU584
 1620 009c D360     		str	r3, [r2, #12]	@ usbcfg, _10->GUSBCFG
 1621 009e 0026     		movs	r6, #0	@ gccfg,
 380:../Libraries/STM32_USB_OTG_Driver/src/usb_core.c ****     usbcfg.b.physel  = 1; /* FS Interface */
 1622              		.loc 1 380 5 is_stmt 1 view .LVU585
 380:../Libraries/STM32_USB_OTG_Driver/src/usb_core.c ****     usbcfg.b.physel  = 1; /* FS Interface */
 1623              		.loc 1 380 65 view .LVU586
ARM GAS  C:\Users\admin\AppData\Local\Temp\ccFXFx3g.s 			page 44


 381:../Libraries/STM32_USB_OTG_Driver/src/usb_core.c ****     USB_OTG_WRITE_REG32 (&pdev->regs.GREGS->GUSBCFG, usbcfg.d32);
 1624              		.loc 1 381 5 view .LVU587
 382:../Libraries/STM32_USB_OTG_Driver/src/usb_core.c ****     /* Reset after a PHY select and set Host mode */
 1625              		.loc 1 382 5 view .LVU588
 384:../Libraries/STM32_USB_OTG_Driver/src/usb_core.c ****     /* Deactivate the power down*/
 1626              		.loc 1 384 5 view .LVU589
 1627              	.LVL100:
 1628              	.LBB37:
 1629              	.LBI34:
 123:../Libraries/STM32_USB_OTG_Driver/src/usb_core.c **** {
 1630              		.loc 1 123 20 view .LVU590
 1631              	.LBB36:
 125:../Libraries/STM32_USB_OTG_Driver/src/usb_core.c ****   __IO USB_OTG_GRSTCTL_TypeDef  greset;
 1632              		.loc 1 125 3 view .LVU591
 126:../Libraries/STM32_USB_OTG_Driver/src/usb_core.c ****   uint32_t count = 0;
 1633              		.loc 1 126 3 view .LVU592
 127:../Libraries/STM32_USB_OTG_Driver/src/usb_core.c ****   
 1634              		.loc 1 127 3 view .LVU593
 129:../Libraries/STM32_USB_OTG_Driver/src/usb_core.c ****   /* Wait for AHB master IDLE state. */
 1635              		.loc 1 129 3 view .LVU594
 1636              	@ ../Libraries/STM32_USB_OTG_Driver/src/usb_core.c:133:     USB_OTG_BSP_uDelay(3);
 133:../Libraries/STM32_USB_OTG_Driver/src/usb_core.c ****     greset.d32 = USB_OTG_READ_REG32(&pdev->regs.GREGS->GRSTCTL);
 1637              		.loc 1 133 5 is_stmt 0 view .LVU595
 1638 00a0 0320     		movs	r0, #3	@,
 1639              	.LVL101:
 1640              	@ ../Libraries/STM32_USB_OTG_Driver/src/usb_core.c:129:   greset.d32 = 0;
 129:../Libraries/STM32_USB_OTG_Driver/src/usb_core.c ****   /* Wait for AHB master IDLE state. */
 1641              		.loc 1 129 14 view .LVU596
 1642 00a2 0196     		str	r6, [sp, #4]	@ gccfg, greset.d32
 131:../Libraries/STM32_USB_OTG_Driver/src/usb_core.c ****   {
 1643              		.loc 1 131 3 is_stmt 1 view .LVU597
 133:../Libraries/STM32_USB_OTG_Driver/src/usb_core.c ****     greset.d32 = USB_OTG_READ_REG32(&pdev->regs.GREGS->GRSTCTL);
 1644              		.loc 1 133 5 view .LVU598
 1645 00a4 FFF7FEFF 		bl	USB_OTG_BSP_uDelay		@
 1646              	.LVL102:
 134:../Libraries/STM32_USB_OTG_Driver/src/usb_core.c ****     if (++count > 200000)
 1647              		.loc 1 134 5 view .LVU599
 1648              	@ ../Libraries/STM32_USB_OTG_Driver/src/usb_core.c:134:     greset.d32 = USB_OTG_READ_REG32(&pdev->
 134:../Libraries/STM32_USB_OTG_Driver/src/usb_core.c ****     if (++count > 200000)
 1649              		.loc 1 134 18 is_stmt 0 view .LVU600
 1650 00a8 E368     		ldr	r3, [r4, #12]	@ _68, pdev_26(D)->regs.GREGS
 1651 00aa 1A69     		ldr	r2, [r3, #16]	@ _124, _123->GRSTCTL
 1652              	@ ../Libraries/STM32_USB_OTG_Driver/src/usb_core.c:134:     greset.d32 = USB_OTG_READ_REG32(&pdev->
 134:../Libraries/STM32_USB_OTG_Driver/src/usb_core.c ****     if (++count > 200000)
 1653              		.loc 1 134 16 view .LVU601
 1654 00ac 0192     		str	r2, [sp, #4]	@ _124, greset.d32
 135:../Libraries/STM32_USB_OTG_Driver/src/usb_core.c ****     {
 1655              		.loc 1 135 5 is_stmt 1 view .LVU602
 1656              	.LVL103:
 135:../Libraries/STM32_USB_OTG_Driver/src/usb_core.c ****     {
 1657              		.loc 1 135 5 is_stmt 0 view .LVU603
 1658 00ae 06E0     		b	.L164		@
 1659              	.LVL104:
 1660              	.L166:
 1661              	@ ../Libraries/STM32_USB_OTG_Driver/src/usb_core.c:133:     USB_OTG_BSP_uDelay(3);
 133:../Libraries/STM32_USB_OTG_Driver/src/usb_core.c ****     greset.d32 = USB_OTG_READ_REG32(&pdev->regs.GREGS->GRSTCTL);
 1662              		.loc 1 133 5 view .LVU604
ARM GAS  C:\Users\admin\AppData\Local\Temp\ccFXFx3g.s 			page 45


 1663 00b0 FFF7FEFF 		bl	USB_OTG_BSP_uDelay		@
 1664              	.LVL105:
 134:../Libraries/STM32_USB_OTG_Driver/src/usb_core.c ****     if (++count > 200000)
 1665              		.loc 1 134 5 is_stmt 1 view .LVU605
 1666              	@ ../Libraries/STM32_USB_OTG_Driver/src/usb_core.c:134:     greset.d32 = USB_OTG_READ_REG32(&pdev->
 134:../Libraries/STM32_USB_OTG_Driver/src/usb_core.c ****     if (++count > 200000)
 1667              		.loc 1 134 18 is_stmt 0 view .LVU606
 1668 00b4 E368     		ldr	r3, [r4, #12]	@ _68, pdev_26(D)->regs.GREGS
 1669              	@ ../Libraries/STM32_USB_OTG_Driver/src/usb_core.c:135:     if (++count > 200000)
 135:../Libraries/STM32_USB_OTG_Driver/src/usb_core.c ****     {
 1670              		.loc 1 135 8 view .LVU607
 1671 00b6 013D     		subs	r5, r5, #1	@ ivtmp_103, ivtmp_103,
 1672              	@ ../Libraries/STM32_USB_OTG_Driver/src/usb_core.c:134:     greset.d32 = USB_OTG_READ_REG32(&pdev->
 134:../Libraries/STM32_USB_OTG_Driver/src/usb_core.c ****     if (++count > 200000)
 1673              		.loc 1 134 18 view .LVU608
 1674 00b8 1A69     		ldr	r2, [r3, #16]	@ _69, _68->GRSTCTL
 1675              	@ ../Libraries/STM32_USB_OTG_Driver/src/usb_core.c:134:     greset.d32 = USB_OTG_READ_REG32(&pdev->
 134:../Libraries/STM32_USB_OTG_Driver/src/usb_core.c ****     if (++count > 200000)
 1676              		.loc 1 134 16 view .LVU609
 1677 00ba 0192     		str	r2, [sp, #4]	@ _69, greset.d32
 135:../Libraries/STM32_USB_OTG_Driver/src/usb_core.c ****     {
 1678              		.loc 1 135 5 is_stmt 1 view .LVU610
 1679              	@ ../Libraries/STM32_USB_OTG_Driver/src/usb_core.c:135:     if (++count > 200000)
 135:../Libraries/STM32_USB_OTG_Driver/src/usb_core.c ****     {
 1680              		.loc 1 135 8 is_stmt 0 view .LVU611
 1681 00bc 19D0     		beq	.L165		@,
 1682              	.L164:
 131:../Libraries/STM32_USB_OTG_Driver/src/usb_core.c ****   {
 1683              		.loc 1 131 3 is_stmt 1 view .LVU612
 133:../Libraries/STM32_USB_OTG_Driver/src/usb_core.c ****     greset.d32 = USB_OTG_READ_REG32(&pdev->regs.GREGS->GRSTCTL);
 1684              		.loc 1 133 5 view .LVU613
 140:../Libraries/STM32_USB_OTG_Driver/src/usb_core.c ****   /* Core Soft Reset */
 1685              		.loc 1 140 9 view .LVU614
 1686              	@ ../Libraries/STM32_USB_OTG_Driver/src/usb_core.c:140:   while (greset.b.ahbidle == 0);
 140:../Libraries/STM32_USB_OTG_Driver/src/usb_core.c ****   /* Core Soft Reset */
 1687              		.loc 1 140 18 is_stmt 0 view .LVU615
 1688 00be 019A     		ldr	r2, [sp, #4]	@ greset, greset
 1689              	@ ../Libraries/STM32_USB_OTG_Driver/src/usb_core.c:140:   while (greset.b.ahbidle == 0);
 140:../Libraries/STM32_USB_OTG_Driver/src/usb_core.c ****   /* Core Soft Reset */
 1690              		.loc 1 140 3 view .LVU616
 1691 00c0 002A     		cmp	r2, #0	@ greset,
 1692              	@ ../Libraries/STM32_USB_OTG_Driver/src/usb_core.c:133:     USB_OTG_BSP_uDelay(3);
 133:../Libraries/STM32_USB_OTG_Driver/src/usb_core.c ****     greset.d32 = USB_OTG_READ_REG32(&pdev->regs.GREGS->GRSTCTL);
 1693              		.loc 1 133 5 view .LVU617
 1694 00c2 4FF00300 		mov	r0, #3	@,
 1695              	@ ../Libraries/STM32_USB_OTG_Driver/src/usb_core.c:140:   while (greset.b.ahbidle == 0);
 140:../Libraries/STM32_USB_OTG_Driver/src/usb_core.c ****   /* Core Soft Reset */
 1696              		.loc 1 140 3 view .LVU618
 1697 00c6 F3DA     		bge	.L166		@,
 142:../Libraries/STM32_USB_OTG_Driver/src/usb_core.c ****   greset.b.csftrst = 1;
 1698              		.loc 1 142 3 is_stmt 1 view .LVU619
 1699              	.LVL106:
 143:../Libraries/STM32_USB_OTG_Driver/src/usb_core.c ****   USB_OTG_WRITE_REG32(&pdev->regs.GREGS->GRSTCTL, greset.d32 );
 1700              		.loc 1 143 3 view .LVU620
 1701              	@ ../Libraries/STM32_USB_OTG_Driver/src/usb_core.c:143:   greset.b.csftrst = 1;
 143:../Libraries/STM32_USB_OTG_Driver/src/usb_core.c ****   USB_OTG_WRITE_REG32(&pdev->regs.GREGS->GRSTCTL, greset.d32 );
 1702              		.loc 1 143 20 is_stmt 0 view .LVU621
ARM GAS  C:\Users\admin\AppData\Local\Temp\ccFXFx3g.s 			page 46


 1703 00c8 0199     		ldr	r1, [sp, #4]	@ tmp189,
 1704              	@ ../Libraries/STM32_USB_OTG_Driver/src/usb_core.c:147:     greset.d32 = USB_OTG_READ_REG32(&pdev->
 147:../Libraries/STM32_USB_OTG_Driver/src/usb_core.c ****     if (++count > 200000)
 1705              		.loc 1 147 16 view .LVU622
 1706 00ca 1A4A     		ldr	r2, .L183	@ ivtmp_70,
 1707              	@ ../Libraries/STM32_USB_OTG_Driver/src/usb_core.c:143:   greset.b.csftrst = 1;
 143:../Libraries/STM32_USB_OTG_Driver/src/usb_core.c ****   USB_OTG_WRITE_REG32(&pdev->regs.GREGS->GRSTCTL, greset.d32 );
 1708              		.loc 1 143 20 view .LVU623
 1709 00cc 41F00101 		orr	r1, r1, #1	@ tmp189, tmp189,
 1710 00d0 0191     		str	r1, [sp, #4]	@ tmp189,
 144:../Libraries/STM32_USB_OTG_Driver/src/usb_core.c ****   do
 1711              		.loc 1 144 3 is_stmt 1 view .LVU624
 1712 00d2 0199     		ldr	r1, [sp, #4]	@ _73, greset.d32
 1713 00d4 1961     		str	r1, [r3, #16]	@ _73, _131->GRSTCTL
 145:../Libraries/STM32_USB_OTG_Driver/src/usb_core.c ****   {
 1714              		.loc 1 145 3 view .LVU625
 147:../Libraries/STM32_USB_OTG_Driver/src/usb_core.c ****     if (++count > 200000)
 1715              		.loc 1 147 5 view .LVU626
 1716              	@ ../Libraries/STM32_USB_OTG_Driver/src/usb_core.c:147:     greset.d32 = USB_OTG_READ_REG32(&pdev->
 147:../Libraries/STM32_USB_OTG_Driver/src/usb_core.c ****     if (++count > 200000)
 1717              		.loc 1 147 18 is_stmt 0 view .LVU627
 1718 00d6 1969     		ldr	r1, [r3, #16]	@ _117, _131->GRSTCTL
 1719              	@ ../Libraries/STM32_USB_OTG_Driver/src/usb_core.c:147:     greset.d32 = USB_OTG_READ_REG32(&pdev->
 147:../Libraries/STM32_USB_OTG_Driver/src/usb_core.c ****     if (++count > 200000)
 1720              		.loc 1 147 16 view .LVU628
 1721 00d8 0191     		str	r1, [sp, #4]	@ _117, greset.d32
 148:../Libraries/STM32_USB_OTG_Driver/src/usb_core.c ****     {
 1722              		.loc 1 148 5 is_stmt 1 view .LVU629
 1723              	.LVL107:
 148:../Libraries/STM32_USB_OTG_Driver/src/usb_core.c ****     {
 1724              		.loc 1 148 5 is_stmt 0 view .LVU630
 1725 00da 03E0     		b	.L167		@
 1726              	.LVL108:
 1727              	.L168:
 1728              	@ ../Libraries/STM32_USB_OTG_Driver/src/usb_core.c:147:     greset.d32 = USB_OTG_READ_REG32(&pdev->
 147:../Libraries/STM32_USB_OTG_Driver/src/usb_core.c ****     if (++count > 200000)
 1729              		.loc 1 147 18 view .LVU631
 1730 00dc 1969     		ldr	r1, [r3, #16]	@ _75, _131->GRSTCTL
 1731              	@ ../Libraries/STM32_USB_OTG_Driver/src/usb_core.c:147:     greset.d32 = USB_OTG_READ_REG32(&pdev->
 147:../Libraries/STM32_USB_OTG_Driver/src/usb_core.c ****     if (++count > 200000)
 1732              		.loc 1 147 16 view .LVU632
 1733 00de 0191     		str	r1, [sp, #4]	@ _75, greset.d32
 148:../Libraries/STM32_USB_OTG_Driver/src/usb_core.c ****     {
 1734              		.loc 1 148 5 is_stmt 1 view .LVU633
 1735              	@ ../Libraries/STM32_USB_OTG_Driver/src/usb_core.c:148:     if (++count > 200000)
 148:../Libraries/STM32_USB_OTG_Driver/src/usb_core.c ****     {
 1736              		.loc 1 148 8 is_stmt 0 view .LVU634
 1737 00e0 013A     		subs	r2, r2, #1	@ ivtmp_70, ivtmp_70,
 1738 00e2 02D0     		beq	.L169		@,
 1739              	.L167:
 145:../Libraries/STM32_USB_OTG_Driver/src/usb_core.c ****   {
 1740              		.loc 1 145 3 is_stmt 1 view .LVU635
 147:../Libraries/STM32_USB_OTG_Driver/src/usb_core.c ****     if (++count > 200000)
 1741              		.loc 1 147 5 view .LVU636
 153:../Libraries/STM32_USB_OTG_Driver/src/usb_core.c ****   /* Wait for 3 PHY Clocks*/
 1742              		.loc 1 153 9 view .LVU637
 1743              	@ ../Libraries/STM32_USB_OTG_Driver/src/usb_core.c:153:   while (greset.b.csftrst == 1);
ARM GAS  C:\Users\admin\AppData\Local\Temp\ccFXFx3g.s 			page 47


 153:../Libraries/STM32_USB_OTG_Driver/src/usb_core.c ****   /* Wait for 3 PHY Clocks*/
 1744              		.loc 1 153 18 is_stmt 0 view .LVU638
 1745 00e4 0199     		ldr	r1, [sp, #4]	@ greset, greset
 1746              	@ ../Libraries/STM32_USB_OTG_Driver/src/usb_core.c:153:   while (greset.b.csftrst == 1);
 153:../Libraries/STM32_USB_OTG_Driver/src/usb_core.c ****   /* Wait for 3 PHY Clocks*/
 1747              		.loc 1 153 3 view .LVU639
 1748 00e6 C907     		lsls	r1, r1, #31	@, greset,
 1749 00e8 F8D4     		bmi	.L168		@,
 1750              	.L169:
 155:../Libraries/STM32_USB_OTG_Driver/src/usb_core.c ****   return status;
 1751              		.loc 1 155 3 is_stmt 1 view .LVU640
 1752 00ea 0320     		movs	r0, #3	@,
 1753 00ec FFF7FEFF 		bl	USB_OTG_BSP_uDelay		@
 1754              	.LVL109:
 156:../Libraries/STM32_USB_OTG_Driver/src/usb_core.c **** }
 1755              		.loc 1 156 3 view .LVU641
 1756              	.LBE36:
 1757              	.LBE37:
 1758              	@ ../Libraries/STM32_USB_OTG_Driver/src/usb_core.c:400:     USB_OTG_WRITE_REG32 (&pdev->regs.GREGS-
 400:../Libraries/STM32_USB_OTG_Driver/src/usb_core.c ****     USB_OTG_BSP_mDelay(20);
 1759              		.loc 1 400 5 is_stmt 0 view .LVU642
 1760 00f0 E368     		ldr	r3, [r4, #12]	@ _68, pdev_26(D)->regs.GREGS
 1761              	.L165:
 1762              	.LVL110:
 386:../Libraries/STM32_USB_OTG_Driver/src/usb_core.c ****     gccfg.b.pwdn = 1;
 1763              		.loc 1 386 5 is_stmt 1 view .LVU643
 387:../Libraries/STM32_USB_OTG_Driver/src/usb_core.c ****     
 1764              		.loc 1 387 5 view .LVU644
 389:../Libraries/STM32_USB_OTG_Driver/src/usb_core.c ****     gccfg.b.vbussensingB = 1 ;     
 1765              		.loc 1 389 5 view .LVU645
 390:../Libraries/STM32_USB_OTG_Driver/src/usb_core.c **** #ifndef VBUS_SENSING_ENABLED
 1766              		.loc 1 390 5 view .LVU646
 392:../Libraries/STM32_USB_OTG_Driver/src/usb_core.c **** #endif    
 1767              		.loc 1 392 5 view .LVU647
 395:../Libraries/STM32_USB_OTG_Driver/src/usb_core.c ****     {
 1768              		.loc 1 395 5 view .LVU648
 1769              	@ ../Libraries/STM32_USB_OTG_Driver/src/usb_core.c:395:     if(pdev->cfg.Sof_output)
 395:../Libraries/STM32_USB_OTG_Driver/src/usb_core.c ****     {
 1770              		.loc 1 395 7 is_stmt 0 view .LVU649
 1771 00f2 627A     		ldrb	r2, [r4, #9]	@ zero_extendqisi2	@ pdev_26(D)->cfg.Sof_output, pdev_26(D)->cfg.Sof_output
 1772 00f4 003A     		subs	r2, r2, #0	@ tmp195, pdev_26(D)->cfg.Sof_output,
 1773 00f6 18BF     		it	ne
 1774 00f8 0122     		movne	r2, #1	@ tmp195,
 1775              	@ ../Libraries/STM32_USB_OTG_Driver/src/usb_core.c:387:     gccfg.b.pwdn = 1;
 387:../Libraries/STM32_USB_OTG_Driver/src/usb_core.c ****     
 1776              		.loc 1 387 18 view .LVU650
 1777 00fa 1201     		lsls	r2, r2, #4	@ tmp196, tmp195,
 1778 00fc 42F02D02 		orr	r2, r2, #45	@ tmp200, tmp196,
 1779 0100 62F31746 		bfi	r6, r2, #16, #8	@ gccfg, tmp200,,
 400:../Libraries/STM32_USB_OTG_Driver/src/usb_core.c ****     USB_OTG_BSP_mDelay(20);
 1780              		.loc 1 400 5 is_stmt 1 view .LVU651
 1781 0104 9E63     		str	r6, [r3, #56]	@ gccfg, prephitmp_79->GCCFG
 401:../Libraries/STM32_USB_OTG_Driver/src/usb_core.c ****   }
 1782              		.loc 1 401 5 view .LVU652
 1783 0106 1420     		movs	r0, #20	@,
 1784 0108 FFF7FEFF 		bl	USB_OTG_BSP_mDelay		@
 1785              	.LVL111:
ARM GAS  C:\Users\admin\AppData\Local\Temp\ccFXFx3g.s 			page 48


 404:../Libraries/STM32_USB_OTG_Driver/src/usb_core.c ****   {
 1786              		.loc 1 404 3 view .LVU653
 1787              	@ ../Libraries/STM32_USB_OTG_Driver/src/usb_core.c:404:   if(pdev->cfg.dma_enable == 1)
 404:../Libraries/STM32_USB_OTG_Driver/src/usb_core.c ****   {
 1788              		.loc 1 404 5 is_stmt 0 view .LVU654
 1789 010c E378     		ldrb	r3, [r4, #3]	@ zero_extendqisi2	@ pdev_26(D)->cfg.dma_enable, pdev_26(D)->cfg.dma_enable
 1790 010e 012B     		cmp	r3, #1	@ pdev_26(D)->cfg.dma_enable,
 1791 0110 B9D1     		bne	.L162		@,
 1792              	@ ../Libraries/STM32_USB_OTG_Driver/src/usb_core.c:407:     ahbcfg.d32 = USB_OTG_READ_REG32(&pdev->
 407:../Libraries/STM32_USB_OTG_Driver/src/usb_core.c ****     ahbcfg.b.hburstlen = 5; /* 64 x 32-bits*/
 1793              		.loc 1 407 18 view .LVU655
 1794 0112 E168     		ldr	r1, [r4, #12]	@ _9, pdev_26(D)->regs.GREGS
 1795 0114 02E0     		b	.L163		@
 1796              	.LVL112:
 1797              	.L182:
 371:../Libraries/STM32_USB_OTG_Driver/src/usb_core.c ****       ahbcfg.b.dmaenable = 1;
 1798              		.loc 1 371 7 is_stmt 1 view .LVU656
 372:../Libraries/STM32_USB_OTG_Driver/src/usb_core.c ****       USB_OTG_WRITE_REG32(&pdev->regs.GREGS->GAHBCFG, ahbcfg.d32);
 1799              		.loc 1 372 7 view .LVU657
 373:../Libraries/STM32_USB_OTG_Driver/src/usb_core.c ****       
 1800              		.loc 1 373 7 view .LVU658
 1801 0116 E168     		ldr	r1, [r4, #12]	@ _9, pdev_26(D)->regs.GREGS
 1802 0118 2A23     		movs	r3, #42	@ tmp184,
 1803 011a 8B60     		str	r3, [r1, #8]	@ tmp184, _9->GAHBCFG
 404:../Libraries/STM32_USB_OTG_Driver/src/usb_core.c ****   {
 1804              		.loc 1 404 3 view .LVU659
 1805              	.LVL113:
 1806              	.L163:
 407:../Libraries/STM32_USB_OTG_Driver/src/usb_core.c ****     ahbcfg.b.hburstlen = 5; /* 64 x 32-bits*/
 1807              		.loc 1 407 5 view .LVU660
 1808              	@ ../Libraries/STM32_USB_OTG_Driver/src/usb_core.c:407:     ahbcfg.d32 = USB_OTG_READ_REG32(&pdev->
 407:../Libraries/STM32_USB_OTG_Driver/src/usb_core.c ****     ahbcfg.b.hburstlen = 5; /* 64 x 32-bits*/
 1809              		.loc 1 407 18 is_stmt 0 view .LVU661
 1810 011c 8B68     		ldr	r3, [r1, #8]	@ _18, prephitmp_40->GAHBCFG
 1811              	@ ../Libraries/STM32_USB_OTG_Driver/src/usb_core.c:408:     ahbcfg.b.hburstlen = 5; /* 64 x 32-bits
 408:../Libraries/STM32_USB_OTG_Driver/src/usb_core.c ****     ahbcfg.b.dmaenable = 1;
 1812              		.loc 1 408 24 view .LVU662
 1813 011e 23F03E02 		bic	r2, r3, #62	@ tmp208, _18,
 408:../Libraries/STM32_USB_OTG_Driver/src/usb_core.c ****     ahbcfg.b.dmaenable = 1;
 1814              		.loc 1 408 5 is_stmt 1 view .LVU663
 409:../Libraries/STM32_USB_OTG_Driver/src/usb_core.c ****     USB_OTG_WRITE_REG32(&pdev->regs.GREGS->GAHBCFG, ahbcfg.d32);
 1815              		.loc 1 409 5 view .LVU664
 1816              	@ ../Libraries/STM32_USB_OTG_Driver/src/usb_core.c:408:     ahbcfg.b.hburstlen = 5; /* 64 x 32-bits
 408:../Libraries/STM32_USB_OTG_Driver/src/usb_core.c ****     ahbcfg.b.dmaenable = 1;
 1817              		.loc 1 408 24 is_stmt 0 view .LVU665
 1818 0122 42F02A02 		orr	r2, r2, #42	@ tmp210, tmp208,
 1819 0126 62F30703 		bfi	r3, r2, #0, #8	@ ahbcfg, tmp210,,
 1820              	.LVL114:
 410:../Libraries/STM32_USB_OTG_Driver/src/usb_core.c ****     
 1821              		.loc 1 410 5 is_stmt 1 view .LVU666
 1822              	@ ../Libraries/STM32_USB_OTG_Driver/src/usb_core.c:422: }
 1823              		.loc 1 422 1 is_stmt 0 view .LVU667
 1824 012a 0020     		movs	r0, #0	@,
 1825              	@ ../Libraries/STM32_USB_OTG_Driver/src/usb_core.c:410:     USB_OTG_WRITE_REG32(&pdev->regs.GREGS->
 410:../Libraries/STM32_USB_OTG_Driver/src/usb_core.c ****     
 1826              		.loc 1 410 5 view .LVU668
 1827 012c 8B60     		str	r3, [r1, #8]	@ ahbcfg, prephitmp_40->GAHBCFG
ARM GAS  C:\Users\admin\AppData\Local\Temp\ccFXFx3g.s 			page 49


 421:../Libraries/STM32_USB_OTG_Driver/src/usb_core.c **** }
 1828              		.loc 1 421 3 is_stmt 1 view .LVU669
 1829              	@ ../Libraries/STM32_USB_OTG_Driver/src/usb_core.c:422: }
 1830              		.loc 1 422 1 is_stmt 0 view .LVU670
 1831 012e 02B0     		add	sp, sp, #8	@,,
 1832              		.cfi_def_cfa_offset 16
 1833              		@ sp needed	@
 1834 0130 70BD     		pop	{r4, r5, r6, pc}	@
 1835              	.LVL115:
 1836              	.L184:
 1837              		.loc 1 422 1 view .LVU671
 1838 0132 00BF     		.align	2
 1839              	.L183:
 1840 0134 400D0300 		.word	200000
 1841              		.cfi_endproc
 1842              	.LFE115:
 1843              		.size	USB_OTG_CoreInit, .-USB_OTG_CoreInit
 1844              		.section	.text.USB_OTG_EnableGlobalInt,"ax",%progbits
 1845              		.align	1
 1846              		.p2align 2,,3
 1847              		.global	USB_OTG_EnableGlobalInt
 1848              		.syntax unified
 1849              		.thumb
 1850              		.thumb_func
 1851              		.type	USB_OTG_EnableGlobalInt, %function
 1852              	USB_OTG_EnableGlobalInt:
 1853              	.LVL116:
 1854              	.LFB116:
 423:../Libraries/STM32_USB_OTG_Driver/src/usb_core.c **** /**
 424:../Libraries/STM32_USB_OTG_Driver/src/usb_core.c **** * @brief  USB_OTG_EnableGlobalInt
 425:../Libraries/STM32_USB_OTG_Driver/src/usb_core.c **** *         Enables the controller's Global Int in the AHB Config reg
 426:../Libraries/STM32_USB_OTG_Driver/src/usb_core.c **** * @param  pdev : Selected device
 427:../Libraries/STM32_USB_OTG_Driver/src/usb_core.c **** * @retval USB_OTG_STS : status
 428:../Libraries/STM32_USB_OTG_Driver/src/usb_core.c **** */
 429:../Libraries/STM32_USB_OTG_Driver/src/usb_core.c **** USB_OTG_STS USB_OTG_EnableGlobalInt(USB_OTG_CORE_HANDLE *pdev)
 430:../Libraries/STM32_USB_OTG_Driver/src/usb_core.c **** {
 1855              		.loc 1 430 1 is_stmt 1 view -0
 1856              		.cfi_startproc
 1857              		@ args = 0, pretend = 0, frame = 0
 1858              		@ frame_needed = 0, uses_anonymous_args = 0
 1859              		@ link register save eliminated.
 431:../Libraries/STM32_USB_OTG_Driver/src/usb_core.c ****   USB_OTG_STS status = USB_OTG_OK;
 1860              		.loc 1 431 3 view .LVU673
 432:../Libraries/STM32_USB_OTG_Driver/src/usb_core.c ****   USB_OTG_GAHBCFG_TypeDef  ahbcfg;
 1861              		.loc 1 432 3 view .LVU674
 433:../Libraries/STM32_USB_OTG_Driver/src/usb_core.c ****   
 434:../Libraries/STM32_USB_OTG_Driver/src/usb_core.c ****   ahbcfg.d32 = 0;
 1862              		.loc 1 434 3 view .LVU675
 435:../Libraries/STM32_USB_OTG_Driver/src/usb_core.c ****   ahbcfg.b.glblintrmsk = 1; /* Enable interrupts */
 1863              		.loc 1 435 3 view .LVU676
 436:../Libraries/STM32_USB_OTG_Driver/src/usb_core.c ****   USB_OTG_MODIFY_REG32(&pdev->regs.GREGS->GAHBCFG, 0, ahbcfg.d32);
 1864              		.loc 1 436 3 view .LVU677
 1865              	@ ../Libraries/STM32_USB_OTG_Driver/src/usb_core.c:430: {
 430:../Libraries/STM32_USB_OTG_Driver/src/usb_core.c ****   USB_OTG_STS status = USB_OTG_OK;
 1866              		.loc 1 430 1 is_stmt 0 view .LVU678
 1867 0000 0346     		mov	r3, r0	@ tmp119, pdev
 1868              	@ ../Libraries/STM32_USB_OTG_Driver/src/usb_core.c:438: }
ARM GAS  C:\Users\admin\AppData\Local\Temp\ccFXFx3g.s 			page 50


 437:../Libraries/STM32_USB_OTG_Driver/src/usb_core.c ****   return status;
 438:../Libraries/STM32_USB_OTG_Driver/src/usb_core.c **** }
 1869              		.loc 1 438 1 view .LVU679
 1870 0002 0020     		movs	r0, #0	@,
 1871              	.LVL117:
 1872              	@ ../Libraries/STM32_USB_OTG_Driver/src/usb_core.c:436:   USB_OTG_MODIFY_REG32(&pdev->regs.GREGS->G
 436:../Libraries/STM32_USB_OTG_Driver/src/usb_core.c ****   return status;
 1873              		.loc 1 436 3 view .LVU680
 1874 0004 DA68     		ldr	r2, [r3, #12]	@ _1, pdev_5(D)->regs.GREGS
 1875 0006 9368     		ldr	r3, [r2, #8]	@ _2, _1->GAHBCFG
 1876              	.LVL118:
 436:../Libraries/STM32_USB_OTG_Driver/src/usb_core.c ****   return status;
 1877              		.loc 1 436 3 view .LVU681
 1878 0008 43F00103 		orr	r3, r3, #1	@ _3, _2,
 1879 000c 9360     		str	r3, [r2, #8]	@ _3, _1->GAHBCFG
 437:../Libraries/STM32_USB_OTG_Driver/src/usb_core.c ****   return status;
 1880              		.loc 1 437 3 is_stmt 1 view .LVU682
 1881              	@ ../Libraries/STM32_USB_OTG_Driver/src/usb_core.c:438: }
 1882              		.loc 1 438 1 is_stmt 0 view .LVU683
 1883 000e 7047     		bx	lr	@
 1884              		.cfi_endproc
 1885              	.LFE116:
 1886              		.size	USB_OTG_EnableGlobalInt, .-USB_OTG_EnableGlobalInt
 1887              		.section	.text.USB_OTG_DisableGlobalInt,"ax",%progbits
 1888              		.align	1
 1889              		.p2align 2,,3
 1890              		.global	USB_OTG_DisableGlobalInt
 1891              		.syntax unified
 1892              		.thumb
 1893              		.thumb_func
 1894              		.type	USB_OTG_DisableGlobalInt, %function
 1895              	USB_OTG_DisableGlobalInt:
 1896              	.LVL119:
 1897              	.LFB117:
 439:../Libraries/STM32_USB_OTG_Driver/src/usb_core.c **** 
 440:../Libraries/STM32_USB_OTG_Driver/src/usb_core.c **** 
 441:../Libraries/STM32_USB_OTG_Driver/src/usb_core.c **** /**
 442:../Libraries/STM32_USB_OTG_Driver/src/usb_core.c **** * @brief  USB_OTG_DisableGlobalInt
 443:../Libraries/STM32_USB_OTG_Driver/src/usb_core.c **** *         Enables the controller's Global Int in the AHB Config reg
 444:../Libraries/STM32_USB_OTG_Driver/src/usb_core.c **** * @param  pdev : Selected device
 445:../Libraries/STM32_USB_OTG_Driver/src/usb_core.c **** * @retval USB_OTG_STS : status
 446:../Libraries/STM32_USB_OTG_Driver/src/usb_core.c **** */
 447:../Libraries/STM32_USB_OTG_Driver/src/usb_core.c **** USB_OTG_STS USB_OTG_DisableGlobalInt(USB_OTG_CORE_HANDLE *pdev)
 448:../Libraries/STM32_USB_OTG_Driver/src/usb_core.c **** {
 1898              		.loc 1 448 1 is_stmt 1 view -0
 1899              		.cfi_startproc
 1900              		@ args = 0, pretend = 0, frame = 0
 1901              		@ frame_needed = 0, uses_anonymous_args = 0
 1902              		@ link register save eliminated.
 449:../Libraries/STM32_USB_OTG_Driver/src/usb_core.c ****   USB_OTG_STS status = USB_OTG_OK;
 1903              		.loc 1 449 3 view .LVU685
 450:../Libraries/STM32_USB_OTG_Driver/src/usb_core.c ****   USB_OTG_GAHBCFG_TypeDef  ahbcfg;
 1904              		.loc 1 450 3 view .LVU686
 451:../Libraries/STM32_USB_OTG_Driver/src/usb_core.c ****   ahbcfg.d32 = 0;
 1905              		.loc 1 451 3 view .LVU687
 452:../Libraries/STM32_USB_OTG_Driver/src/usb_core.c ****   ahbcfg.b.glblintrmsk = 1; /* Enable interrupts */
 1906              		.loc 1 452 3 view .LVU688
ARM GAS  C:\Users\admin\AppData\Local\Temp\ccFXFx3g.s 			page 51


 453:../Libraries/STM32_USB_OTG_Driver/src/usb_core.c ****   USB_OTG_MODIFY_REG32(&pdev->regs.GREGS->GAHBCFG, ahbcfg.d32, 0);
 1907              		.loc 1 453 3 view .LVU689
 1908              	@ ../Libraries/STM32_USB_OTG_Driver/src/usb_core.c:448: {
 448:../Libraries/STM32_USB_OTG_Driver/src/usb_core.c ****   USB_OTG_STS status = USB_OTG_OK;
 1909              		.loc 1 448 1 is_stmt 0 view .LVU690
 1910 0000 0346     		mov	r3, r0	@ tmp119, pdev
 1911              	@ ../Libraries/STM32_USB_OTG_Driver/src/usb_core.c:455: }
 454:../Libraries/STM32_USB_OTG_Driver/src/usb_core.c ****   return status;
 455:../Libraries/STM32_USB_OTG_Driver/src/usb_core.c **** }
 1912              		.loc 1 455 1 view .LVU691
 1913 0002 0020     		movs	r0, #0	@,
 1914              	.LVL120:
 1915              	@ ../Libraries/STM32_USB_OTG_Driver/src/usb_core.c:453:   USB_OTG_MODIFY_REG32(&pdev->regs.GREGS->G
 453:../Libraries/STM32_USB_OTG_Driver/src/usb_core.c ****   return status;
 1916              		.loc 1 453 3 view .LVU692
 1917 0004 DA68     		ldr	r2, [r3, #12]	@ _1, pdev_5(D)->regs.GREGS
 1918 0006 9368     		ldr	r3, [r2, #8]	@ _2, _1->GAHBCFG
 1919              	.LVL121:
 453:../Libraries/STM32_USB_OTG_Driver/src/usb_core.c ****   return status;
 1920              		.loc 1 453 3 view .LVU693
 1921 0008 23F00103 		bic	r3, r3, #1	@ _3, _2,
 1922 000c 9360     		str	r3, [r2, #8]	@ _3, _1->GAHBCFG
 454:../Libraries/STM32_USB_OTG_Driver/src/usb_core.c ****   return status;
 1923              		.loc 1 454 3 is_stmt 1 view .LVU694
 1924              	@ ../Libraries/STM32_USB_OTG_Driver/src/usb_core.c:455: }
 1925              		.loc 1 455 1 is_stmt 0 view .LVU695
 1926 000e 7047     		bx	lr	@
 1927              		.cfi_endproc
 1928              	.LFE117:
 1929              		.size	USB_OTG_DisableGlobalInt, .-USB_OTG_DisableGlobalInt
 1930              		.section	.text.USB_OTG_FlushTxFifo,"ax",%progbits
 1931              		.align	1
 1932              		.p2align 2,,3
 1933              		.global	USB_OTG_FlushTxFifo
 1934              		.syntax unified
 1935              		.thumb
 1936              		.thumb_func
 1937              		.type	USB_OTG_FlushTxFifo, %function
 1938              	USB_OTG_FlushTxFifo:
 1939              	.LVL122:
 1940              	.LFB118:
 456:../Libraries/STM32_USB_OTG_Driver/src/usb_core.c **** 
 457:../Libraries/STM32_USB_OTG_Driver/src/usb_core.c **** 
 458:../Libraries/STM32_USB_OTG_Driver/src/usb_core.c **** /**
 459:../Libraries/STM32_USB_OTG_Driver/src/usb_core.c **** * @brief  USB_OTG_FlushTxFifo : Flush a Tx FIFO
 460:../Libraries/STM32_USB_OTG_Driver/src/usb_core.c **** * @param  pdev : Selected device
 461:../Libraries/STM32_USB_OTG_Driver/src/usb_core.c **** * @param  num : FO num
 462:../Libraries/STM32_USB_OTG_Driver/src/usb_core.c **** * @retval USB_OTG_STS : status
 463:../Libraries/STM32_USB_OTG_Driver/src/usb_core.c **** */
 464:../Libraries/STM32_USB_OTG_Driver/src/usb_core.c **** USB_OTG_STS USB_OTG_FlushTxFifo (USB_OTG_CORE_HANDLE *pdev , uint32_t num )
 465:../Libraries/STM32_USB_OTG_Driver/src/usb_core.c **** {
 1941              		.loc 1 465 1 is_stmt 1 view -0
 1942              		.cfi_startproc
 1943              		@ args = 0, pretend = 0, frame = 8
 1944              		@ frame_needed = 0, uses_anonymous_args = 0
 466:../Libraries/STM32_USB_OTG_Driver/src/usb_core.c ****   USB_OTG_STS status = USB_OTG_OK;
 1945              		.loc 1 466 3 view .LVU697
ARM GAS  C:\Users\admin\AppData\Local\Temp\ccFXFx3g.s 			page 52


 467:../Libraries/STM32_USB_OTG_Driver/src/usb_core.c ****   __IO USB_OTG_GRSTCTL_TypeDef  greset;
 1946              		.loc 1 467 3 view .LVU698
 468:../Libraries/STM32_USB_OTG_Driver/src/usb_core.c ****   
 469:../Libraries/STM32_USB_OTG_Driver/src/usb_core.c ****   uint32_t count = 0;
 1947              		.loc 1 469 3 view .LVU699
 470:../Libraries/STM32_USB_OTG_Driver/src/usb_core.c ****   greset.d32 = 0;
 1948              		.loc 1 470 3 view .LVU700
 1949              	@ ../Libraries/STM32_USB_OTG_Driver/src/usb_core.c:465: {
 465:../Libraries/STM32_USB_OTG_Driver/src/usb_core.c ****   USB_OTG_STS status = USB_OTG_OK;
 1950              		.loc 1 465 1 is_stmt 0 view .LVU701
 1951 0000 00B5     		push	{lr}	@
 1952              		.cfi_def_cfa_offset 4
 1953              		.cfi_offset 14, -4
 1954 0002 83B0     		sub	sp, sp, #12	@,,
 1955              		.cfi_def_cfa_offset 16
 1956              	@ ../Libraries/STM32_USB_OTG_Driver/src/usb_core.c:470:   greset.d32 = 0;
 1957              		.loc 1 470 14 view .LVU702
 1958 0004 0023     		movs	r3, #0	@ tmp123,
 1959 0006 0193     		str	r3, [sp, #4]	@ tmp123, greset.d32
 471:../Libraries/STM32_USB_OTG_Driver/src/usb_core.c ****   greset.b.txfflsh = 1;
 1960              		.loc 1 471 3 is_stmt 1 view .LVU703
 1961              	@ ../Libraries/STM32_USB_OTG_Driver/src/usb_core.c:471:   greset.b.txfflsh = 1;
 1962              		.loc 1 471 20 is_stmt 0 view .LVU704
 1963 0008 019B     		ldr	r3, [sp, #4]	@ tmp124,
 1964 000a 43F02003 		orr	r3, r3, #32	@ tmp124, tmp124,
 1965 000e 0193     		str	r3, [sp, #4]	@ tmp124,
 472:../Libraries/STM32_USB_OTG_Driver/src/usb_core.c ****   greset.b.txfnum  = num;
 1966              		.loc 1 472 3 is_stmt 1 view .LVU705
 1967              	@ ../Libraries/STM32_USB_OTG_Driver/src/usb_core.c:472:   greset.b.txfnum  = num;
 1968              		.loc 1 472 20 is_stmt 0 view .LVU706
 1969 0010 019B     		ldr	r3, [sp, #4]	@ _1,
 1970 0012 61F38A13 		bfi	r3, r1, #6, #5	@ _1, tmp134,,
 1971 0016 0193     		str	r3, [sp, #4]	@ _1,
 473:../Libraries/STM32_USB_OTG_Driver/src/usb_core.c ****   USB_OTG_WRITE_REG32( &pdev->regs.GREGS->GRSTCTL, greset.d32 );
 1972              		.loc 1 473 3 is_stmt 1 view .LVU707
 1973 0018 C168     		ldr	r1, [r0, #12]	@ _2, pdev_13(D)->regs.GREGS
 1974              	.LVL123:
 1975              		.loc 1 473 3 is_stmt 0 view .LVU708
 1976 001a 019B     		ldr	r3, [sp, #4]	@ _3, greset.d32
 1977 001c 0B61     		str	r3, [r1, #16]	@ _3, _2->GRSTCTL
 474:../Libraries/STM32_USB_OTG_Driver/src/usb_core.c ****   do
 1978              		.loc 1 474 3 is_stmt 1 view .LVU709
 475:../Libraries/STM32_USB_OTG_Driver/src/usb_core.c ****   {
 476:../Libraries/STM32_USB_OTG_Driver/src/usb_core.c ****     greset.d32 = USB_OTG_READ_REG32( &pdev->regs.GREGS->GRSTCTL);
 1979              		.loc 1 476 5 view .LVU710
 1980              	@ ../Libraries/STM32_USB_OTG_Driver/src/usb_core.c:476:     greset.d32 = USB_OTG_READ_REG32( &pdev-
 1981              		.loc 1 476 18 is_stmt 0 view .LVU711
 1982 001e 0A69     		ldr	r2, [r1, #16]	@ _20, _2->GRSTCTL
 1983              	@ ../Libraries/STM32_USB_OTG_Driver/src/usb_core.c:476:     greset.d32 = USB_OTG_READ_REG32( &pdev-
 1984              		.loc 1 476 16 view .LVU712
 1985 0020 084B     		ldr	r3, .L194	@ ivtmp_22,
 1986 0022 0192     		str	r2, [sp, #4]	@ _20, greset.d32
 477:../Libraries/STM32_USB_OTG_Driver/src/usb_core.c ****     if (++count > 200000)
 1987              		.loc 1 477 5 is_stmt 1 view .LVU713
 1988              	.LVL124:
 1989              		.loc 1 477 5 is_stmt 0 view .LVU714
 1990 0024 03E0     		b	.L188		@
ARM GAS  C:\Users\admin\AppData\Local\Temp\ccFXFx3g.s 			page 53


 1991              	.LVL125:
 1992              	.L189:
 1993              	@ ../Libraries/STM32_USB_OTG_Driver/src/usb_core.c:476:     greset.d32 = USB_OTG_READ_REG32( &pdev-
 476:../Libraries/STM32_USB_OTG_Driver/src/usb_core.c ****     if (++count > 200000)
 1994              		.loc 1 476 18 view .LVU715
 1995 0026 0A69     		ldr	r2, [r1, #16]	@ _4, _2->GRSTCTL
 1996              	@ ../Libraries/STM32_USB_OTG_Driver/src/usb_core.c:476:     greset.d32 = USB_OTG_READ_REG32( &pdev-
 476:../Libraries/STM32_USB_OTG_Driver/src/usb_core.c ****     if (++count > 200000)
 1997              		.loc 1 476 16 view .LVU716
 1998 0028 0192     		str	r2, [sp, #4]	@ _4, greset.d32
 1999              		.loc 1 477 5 is_stmt 1 view .LVU717
 2000              	@ ../Libraries/STM32_USB_OTG_Driver/src/usb_core.c:477:     if (++count > 200000)
 2001              		.loc 1 477 8 is_stmt 0 view .LVU718
 2002 002a 013B     		subs	r3, r3, #1	@ ivtmp_22, ivtmp_22,
 2003 002c 02D0     		beq	.L190		@,
 2004              	.L188:
 474:../Libraries/STM32_USB_OTG_Driver/src/usb_core.c ****   {
 2005              		.loc 1 474 3 is_stmt 1 view .LVU719
 476:../Libraries/STM32_USB_OTG_Driver/src/usb_core.c ****     if (++count > 200000)
 2006              		.loc 1 476 5 view .LVU720
 478:../Libraries/STM32_USB_OTG_Driver/src/usb_core.c ****     {
 479:../Libraries/STM32_USB_OTG_Driver/src/usb_core.c ****       break;
 480:../Libraries/STM32_USB_OTG_Driver/src/usb_core.c ****     }
 481:../Libraries/STM32_USB_OTG_Driver/src/usb_core.c ****   }
 482:../Libraries/STM32_USB_OTG_Driver/src/usb_core.c ****   while (greset.b.txfflsh == 1);
 2007              		.loc 1 482 9 view .LVU721
 2008              	@ ../Libraries/STM32_USB_OTG_Driver/src/usb_core.c:482:   while (greset.b.txfflsh == 1);
 2009              		.loc 1 482 18 is_stmt 0 view .LVU722
 2010 002e 019A     		ldr	r2, [sp, #4]	@ greset, greset
 2011              	@ ../Libraries/STM32_USB_OTG_Driver/src/usb_core.c:482:   while (greset.b.txfflsh == 1);
 2012              		.loc 1 482 3 view .LVU723
 2013 0030 9206     		lsls	r2, r2, #26	@, greset,
 2014 0032 F8D4     		bmi	.L189		@,
 2015              	.L190:
 483:../Libraries/STM32_USB_OTG_Driver/src/usb_core.c ****   /* Wait for 3 PHY Clocks*/
 484:../Libraries/STM32_USB_OTG_Driver/src/usb_core.c ****   USB_OTG_BSP_uDelay(3);
 2016              		.loc 1 484 3 is_stmt 1 view .LVU724
 2017 0034 0320     		movs	r0, #3	@,
 2018              	.LVL126:
 2019              		.loc 1 484 3 is_stmt 0 view .LVU725
 2020 0036 FFF7FEFF 		bl	USB_OTG_BSP_uDelay		@
 2021              	.LVL127:
 485:../Libraries/STM32_USB_OTG_Driver/src/usb_core.c ****   return status;
 2022              		.loc 1 485 3 is_stmt 1 view .LVU726
 2023              	@ ../Libraries/STM32_USB_OTG_Driver/src/usb_core.c:486: }
 486:../Libraries/STM32_USB_OTG_Driver/src/usb_core.c **** }
 2024              		.loc 1 486 1 is_stmt 0 view .LVU727
 2025 003a 0020     		movs	r0, #0	@,
 2026 003c 03B0     		add	sp, sp, #12	@,,
 2027              		.cfi_def_cfa_offset 4
 2028              		@ sp needed	@
 2029 003e 5DF804FB 		ldr	pc, [sp], #4	@
 2030              	.L195:
 2031 0042 00BF     		.align	2
 2032              	.L194:
 2033 0044 400D0300 		.word	200000
 2034              		.cfi_endproc
ARM GAS  C:\Users\admin\AppData\Local\Temp\ccFXFx3g.s 			page 54


 2035              	.LFE118:
 2036              		.size	USB_OTG_FlushTxFifo, .-USB_OTG_FlushTxFifo
 2037              		.section	.text.USB_OTG_FlushRxFifo,"ax",%progbits
 2038              		.align	1
 2039              		.p2align 2,,3
 2040              		.global	USB_OTG_FlushRxFifo
 2041              		.syntax unified
 2042              		.thumb
 2043              		.thumb_func
 2044              		.type	USB_OTG_FlushRxFifo, %function
 2045              	USB_OTG_FlushRxFifo:
 2046              	.LVL128:
 2047              	.LFB119:
 487:../Libraries/STM32_USB_OTG_Driver/src/usb_core.c **** 
 488:../Libraries/STM32_USB_OTG_Driver/src/usb_core.c **** 
 489:../Libraries/STM32_USB_OTG_Driver/src/usb_core.c **** /**
 490:../Libraries/STM32_USB_OTG_Driver/src/usb_core.c **** * @brief  USB_OTG_FlushRxFifo : Flush a Rx FIFO
 491:../Libraries/STM32_USB_OTG_Driver/src/usb_core.c **** * @param  pdev : Selected device
 492:../Libraries/STM32_USB_OTG_Driver/src/usb_core.c **** * @retval USB_OTG_STS : status
 493:../Libraries/STM32_USB_OTG_Driver/src/usb_core.c **** */
 494:../Libraries/STM32_USB_OTG_Driver/src/usb_core.c **** USB_OTG_STS USB_OTG_FlushRxFifo( USB_OTG_CORE_HANDLE *pdev )
 495:../Libraries/STM32_USB_OTG_Driver/src/usb_core.c **** {
 2048              		.loc 1 495 1 is_stmt 1 view -0
 2049              		.cfi_startproc
 2050              		@ args = 0, pretend = 0, frame = 8
 2051              		@ frame_needed = 0, uses_anonymous_args = 0
 496:../Libraries/STM32_USB_OTG_Driver/src/usb_core.c ****   USB_OTG_STS status = USB_OTG_OK;
 2052              		.loc 1 496 3 view .LVU729
 497:../Libraries/STM32_USB_OTG_Driver/src/usb_core.c ****   __IO USB_OTG_GRSTCTL_TypeDef  greset;
 2053              		.loc 1 497 3 view .LVU730
 498:../Libraries/STM32_USB_OTG_Driver/src/usb_core.c ****   uint32_t count = 0;
 2054              		.loc 1 498 3 view .LVU731
 499:../Libraries/STM32_USB_OTG_Driver/src/usb_core.c ****   
 500:../Libraries/STM32_USB_OTG_Driver/src/usb_core.c ****   greset.d32 = 0;
 2055              		.loc 1 500 3 view .LVU732
 2056              	@ ../Libraries/STM32_USB_OTG_Driver/src/usb_core.c:495: {
 495:../Libraries/STM32_USB_OTG_Driver/src/usb_core.c ****   USB_OTG_STS status = USB_OTG_OK;
 2057              		.loc 1 495 1 is_stmt 0 view .LVU733
 2058 0000 00B5     		push	{lr}	@
 2059              		.cfi_def_cfa_offset 4
 2060              		.cfi_offset 14, -4
 2061 0002 83B0     		sub	sp, sp, #12	@,,
 2062              		.cfi_def_cfa_offset 16
 2063              	@ ../Libraries/STM32_USB_OTG_Driver/src/usb_core.c:500:   greset.d32 = 0;
 2064              		.loc 1 500 14 view .LVU734
 2065 0004 0023     		movs	r3, #0	@ tmp121,
 2066 0006 0193     		str	r3, [sp, #4]	@ tmp121, greset.d32
 501:../Libraries/STM32_USB_OTG_Driver/src/usb_core.c ****   greset.b.rxfflsh = 1;
 2067              		.loc 1 501 3 is_stmt 1 view .LVU735
 2068              	@ ../Libraries/STM32_USB_OTG_Driver/src/usb_core.c:501:   greset.b.rxfflsh = 1;
 2069              		.loc 1 501 20 is_stmt 0 view .LVU736
 2070 0008 019B     		ldr	r3, [sp, #4]	@ tmp122,
 2071 000a 43F01003 		orr	r3, r3, #16	@ tmp122, tmp122,
 2072 000e 0193     		str	r3, [sp, #4]	@ tmp122,
 502:../Libraries/STM32_USB_OTG_Driver/src/usb_core.c ****   USB_OTG_WRITE_REG32( &pdev->regs.GREGS->GRSTCTL, greset.d32 );
 2073              		.loc 1 502 3 is_stmt 1 view .LVU737
 2074 0010 C168     		ldr	r1, [r0, #12]	@ _1, pdev_10(D)->regs.GREGS
ARM GAS  C:\Users\admin\AppData\Local\Temp\ccFXFx3g.s 			page 55


 2075 0012 019B     		ldr	r3, [sp, #4]	@ _2, greset.d32
 2076 0014 0B61     		str	r3, [r1, #16]	@ _2, _1->GRSTCTL
 503:../Libraries/STM32_USB_OTG_Driver/src/usb_core.c ****   do
 2077              		.loc 1 503 3 view .LVU738
 504:../Libraries/STM32_USB_OTG_Driver/src/usb_core.c ****   {
 505:../Libraries/STM32_USB_OTG_Driver/src/usb_core.c ****     greset.d32 = USB_OTG_READ_REG32( &pdev->regs.GREGS->GRSTCTL);
 2078              		.loc 1 505 5 view .LVU739
 2079              	@ ../Libraries/STM32_USB_OTG_Driver/src/usb_core.c:505:     greset.d32 = USB_OTG_READ_REG32( &pdev-
 2080              		.loc 1 505 18 is_stmt 0 view .LVU740
 2081 0016 0A69     		ldr	r2, [r1, #16]	@ _17, _1->GRSTCTL
 2082              	@ ../Libraries/STM32_USB_OTG_Driver/src/usb_core.c:505:     greset.d32 = USB_OTG_READ_REG32( &pdev-
 2083              		.loc 1 505 16 view .LVU741
 2084 0018 084B     		ldr	r3, .L203	@ ivtmp_19,
 2085 001a 0192     		str	r2, [sp, #4]	@ _17, greset.d32
 506:../Libraries/STM32_USB_OTG_Driver/src/usb_core.c ****     if (++count > 200000)
 2086              		.loc 1 506 5 is_stmt 1 view .LVU742
 2087              	.LVL129:
 2088              		.loc 1 506 5 is_stmt 0 view .LVU743
 2089 001c 03E0     		b	.L197		@
 2090              	.LVL130:
 2091              	.L198:
 2092              	@ ../Libraries/STM32_USB_OTG_Driver/src/usb_core.c:505:     greset.d32 = USB_OTG_READ_REG32( &pdev-
 505:../Libraries/STM32_USB_OTG_Driver/src/usb_core.c ****     if (++count > 200000)
 2093              		.loc 1 505 18 view .LVU744
 2094 001e 0A69     		ldr	r2, [r1, #16]	@ _3, _1->GRSTCTL
 2095              	@ ../Libraries/STM32_USB_OTG_Driver/src/usb_core.c:505:     greset.d32 = USB_OTG_READ_REG32( &pdev-
 505:../Libraries/STM32_USB_OTG_Driver/src/usb_core.c ****     if (++count > 200000)
 2096              		.loc 1 505 16 view .LVU745
 2097 0020 0192     		str	r2, [sp, #4]	@ _3, greset.d32
 2098              		.loc 1 506 5 is_stmt 1 view .LVU746
 2099              	@ ../Libraries/STM32_USB_OTG_Driver/src/usb_core.c:506:     if (++count > 200000)
 2100              		.loc 1 506 8 is_stmt 0 view .LVU747
 2101 0022 013B     		subs	r3, r3, #1	@ ivtmp_19, ivtmp_19,
 2102 0024 02D0     		beq	.L199		@,
 2103              	.L197:
 503:../Libraries/STM32_USB_OTG_Driver/src/usb_core.c ****   {
 2104              		.loc 1 503 3 is_stmt 1 view .LVU748
 505:../Libraries/STM32_USB_OTG_Driver/src/usb_core.c ****     if (++count > 200000)
 2105              		.loc 1 505 5 view .LVU749
 507:../Libraries/STM32_USB_OTG_Driver/src/usb_core.c ****     {
 508:../Libraries/STM32_USB_OTG_Driver/src/usb_core.c ****       break;
 509:../Libraries/STM32_USB_OTG_Driver/src/usb_core.c ****     }
 510:../Libraries/STM32_USB_OTG_Driver/src/usb_core.c ****   }
 511:../Libraries/STM32_USB_OTG_Driver/src/usb_core.c ****   while (greset.b.rxfflsh == 1);
 2106              		.loc 1 511 9 view .LVU750
 2107              	@ ../Libraries/STM32_USB_OTG_Driver/src/usb_core.c:511:   while (greset.b.rxfflsh == 1);
 2108              		.loc 1 511 18 is_stmt 0 view .LVU751
 2109 0026 019A     		ldr	r2, [sp, #4]	@ greset, greset
 2110              	@ ../Libraries/STM32_USB_OTG_Driver/src/usb_core.c:511:   while (greset.b.rxfflsh == 1);
 2111              		.loc 1 511 3 view .LVU752
 2112 0028 D206     		lsls	r2, r2, #27	@, greset,
 2113 002a F8D4     		bmi	.L198		@,
 2114              	.L199:
 512:../Libraries/STM32_USB_OTG_Driver/src/usb_core.c ****   /* Wait for 3 PHY Clocks*/
 513:../Libraries/STM32_USB_OTG_Driver/src/usb_core.c ****   USB_OTG_BSP_uDelay(3);
 2115              		.loc 1 513 3 is_stmt 1 view .LVU753
 2116 002c 0320     		movs	r0, #3	@,
ARM GAS  C:\Users\admin\AppData\Local\Temp\ccFXFx3g.s 			page 56


 2117              	.LVL131:
 2118              		.loc 1 513 3 is_stmt 0 view .LVU754
 2119 002e FFF7FEFF 		bl	USB_OTG_BSP_uDelay		@
 2120              	.LVL132:
 514:../Libraries/STM32_USB_OTG_Driver/src/usb_core.c ****   return status;
 2121              		.loc 1 514 3 is_stmt 1 view .LVU755
 2122              	@ ../Libraries/STM32_USB_OTG_Driver/src/usb_core.c:515: }
 515:../Libraries/STM32_USB_OTG_Driver/src/usb_core.c **** }
 2123              		.loc 1 515 1 is_stmt 0 view .LVU756
 2124 0032 0020     		movs	r0, #0	@,
 2125 0034 03B0     		add	sp, sp, #12	@,,
 2126              		.cfi_def_cfa_offset 4
 2127              		@ sp needed	@
 2128 0036 5DF804FB 		ldr	pc, [sp], #4	@
 2129              	.L204:
 2130 003a 00BF     		.align	2
 2131              	.L203:
 2132 003c 400D0300 		.word	200000
 2133              		.cfi_endproc
 2134              	.LFE119:
 2135              		.size	USB_OTG_FlushRxFifo, .-USB_OTG_FlushRxFifo
 2136              		.section	.text.USB_OTG_SetCurrentMode,"ax",%progbits
 2137              		.align	1
 2138              		.p2align 2,,3
 2139              		.global	USB_OTG_SetCurrentMode
 2140              		.syntax unified
 2141              		.thumb
 2142              		.thumb_func
 2143              		.type	USB_OTG_SetCurrentMode, %function
 2144              	USB_OTG_SetCurrentMode:
 2145              	.LVL133:
 2146              	.LFB120:
 516:../Libraries/STM32_USB_OTG_Driver/src/usb_core.c **** 
 517:../Libraries/STM32_USB_OTG_Driver/src/usb_core.c **** 
 518:../Libraries/STM32_USB_OTG_Driver/src/usb_core.c **** /**
 519:../Libraries/STM32_USB_OTG_Driver/src/usb_core.c **** * @brief  USB_OTG_SetCurrentMode : Set ID line
 520:../Libraries/STM32_USB_OTG_Driver/src/usb_core.c **** * @param  pdev : Selected device
 521:../Libraries/STM32_USB_OTG_Driver/src/usb_core.c **** * @param  mode :  (Host/device)
 522:../Libraries/STM32_USB_OTG_Driver/src/usb_core.c **** * @retval USB_OTG_STS : status
 523:../Libraries/STM32_USB_OTG_Driver/src/usb_core.c **** */
 524:../Libraries/STM32_USB_OTG_Driver/src/usb_core.c **** USB_OTG_STS USB_OTG_SetCurrentMode(USB_OTG_CORE_HANDLE *pdev , uint8_t mode)
 525:../Libraries/STM32_USB_OTG_Driver/src/usb_core.c **** {
 2147              		.loc 1 525 1 is_stmt 1 view -0
 2148              		.cfi_startproc
 2149              		@ args = 0, pretend = 0, frame = 0
 2150              		@ frame_needed = 0, uses_anonymous_args = 0
 526:../Libraries/STM32_USB_OTG_Driver/src/usb_core.c ****   USB_OTG_STS status = USB_OTG_OK;
 2151              		.loc 1 526 3 view .LVU758
 527:../Libraries/STM32_USB_OTG_Driver/src/usb_core.c ****   USB_OTG_GUSBCFG_TypeDef  usbcfg;
 2152              		.loc 1 527 3 view .LVU759
 528:../Libraries/STM32_USB_OTG_Driver/src/usb_core.c ****   
 529:../Libraries/STM32_USB_OTG_Driver/src/usb_core.c ****   usbcfg.d32 = USB_OTG_READ_REG32(&pdev->regs.GREGS->GUSBCFG);
 2153              		.loc 1 529 3 view .LVU760
 2154              	@ ../Libraries/STM32_USB_OTG_Driver/src/usb_core.c:525: {
 525:../Libraries/STM32_USB_OTG_Driver/src/usb_core.c ****   USB_OTG_STS status = USB_OTG_OK;
 2155              		.loc 1 525 1 is_stmt 0 view .LVU761
 2156 0000 10B5     		push	{r4, lr}	@
ARM GAS  C:\Users\admin\AppData\Local\Temp\ccFXFx3g.s 			page 57


 2157              		.cfi_def_cfa_offset 8
 2158              		.cfi_offset 4, -8
 2159              		.cfi_offset 14, -4
 2160              	@ ../Libraries/STM32_USB_OTG_Driver/src/usb_core.c:529:   usbcfg.d32 = USB_OTG_READ_REG32(&pdev->re
 2161              		.loc 1 529 16 view .LVU762
 2162 0002 C468     		ldr	r4, [r0, #12]	@ _1, pdev_6(D)->regs.GREGS
 2163 0004 E368     		ldr	r3, [r4, #12]	@ usbcfg, _1->GUSBCFG
 2164              	.LVL134:
 530:../Libraries/STM32_USB_OTG_Driver/src/usb_core.c ****   
 531:../Libraries/STM32_USB_OTG_Driver/src/usb_core.c ****   usbcfg.b.force_host = 0;
 2165              		.loc 1 531 3 is_stmt 1 view .LVU763
 532:../Libraries/STM32_USB_OTG_Driver/src/usb_core.c ****   usbcfg.b.force_dev = 0;
 2166              		.loc 1 532 3 view .LVU764
 2167              	@ ../Libraries/STM32_USB_OTG_Driver/src/usb_core.c:531:   usbcfg.b.force_host = 0;
 531:../Libraries/STM32_USB_OTG_Driver/src/usb_core.c ****   usbcfg.b.force_dev = 0;
 2168              		.loc 1 531 23 is_stmt 0 view .LVU765
 2169 0006 C3F30762 		ubfx	r2, r3, #24, #8	@ tmp123, usbcfg,,
 2170 000a 22F06002 		bic	r2, r2, #96	@ tmp124, tmp123,
 2171              	@ ../Libraries/STM32_USB_OTG_Driver/src/usb_core.c:534:   if ( mode == HOST_MODE)
 533:../Libraries/STM32_USB_OTG_Driver/src/usb_core.c ****   
 534:../Libraries/STM32_USB_OTG_Driver/src/usb_core.c ****   if ( mode == HOST_MODE)
 2172              		.loc 1 534 6 view .LVU766
 2173 000e 0129     		cmp	r1, #1	@ mode,
 2174              	@ ../Libraries/STM32_USB_OTG_Driver/src/usb_core.c:531:   usbcfg.b.force_host = 0;
 531:../Libraries/STM32_USB_OTG_Driver/src/usb_core.c ****   usbcfg.b.force_dev = 0;
 2175              		.loc 1 531 23 view .LVU767
 2176 0010 62F31F63 		bfi	r3, r2, #24, #8	@ usbcfg, tmp124,,
 2177              		.loc 1 534 3 is_stmt 1 view .LVU768
 2178              	@ ../Libraries/STM32_USB_OTG_Driver/src/usb_core.c:534:   if ( mode == HOST_MODE)
 2179              		.loc 1 534 6 is_stmt 0 view .LVU769
 2180 0014 08D0     		beq	.L209		@,
 535:../Libraries/STM32_USB_OTG_Driver/src/usb_core.c ****   {
 536:../Libraries/STM32_USB_OTG_Driver/src/usb_core.c ****     usbcfg.b.force_host = 1;
 537:../Libraries/STM32_USB_OTG_Driver/src/usb_core.c ****   }
 538:../Libraries/STM32_USB_OTG_Driver/src/usb_core.c ****   else if ( mode == DEVICE_MODE)
 2181              		.loc 1 538 8 is_stmt 1 view .LVU770
 2182              	@ ../Libraries/STM32_USB_OTG_Driver/src/usb_core.c:538:   else if ( mode == DEVICE_MODE)
 2183              		.loc 1 538 11 is_stmt 0 view .LVU771
 2184 0016 09B9     		cbnz	r1, .L207	@ mode,
 539:../Libraries/STM32_USB_OTG_Driver/src/usb_core.c ****   {
 540:../Libraries/STM32_USB_OTG_Driver/src/usb_core.c ****     usbcfg.b.force_dev = 1;
 2185              		.loc 1 540 5 is_stmt 1 view .LVU772
 2186              	@ ../Libraries/STM32_USB_OTG_Driver/src/usb_core.c:540:     usbcfg.b.force_dev = 1;
 2187              		.loc 1 540 24 is_stmt 0 view .LVU773
 2188 0018 43F08043 		orr	r3, r3, #1073741824	@ usbcfg, usbcfg,
 2189              	.LVL135:
 2190              	.L207:
 541:../Libraries/STM32_USB_OTG_Driver/src/usb_core.c ****   }
 542:../Libraries/STM32_USB_OTG_Driver/src/usb_core.c ****   
 543:../Libraries/STM32_USB_OTG_Driver/src/usb_core.c ****   USB_OTG_WRITE_REG32(&pdev->regs.GREGS->GUSBCFG, usbcfg.d32);
 2191              		.loc 1 543 3 is_stmt 1 view .LVU774
 2192              	@ ../Libraries/STM32_USB_OTG_Driver/src/usb_core.c:544:   USB_OTG_BSP_mDelay(50);
 544:../Libraries/STM32_USB_OTG_Driver/src/usb_core.c ****   USB_OTG_BSP_mDelay(50);
 2193              		.loc 1 544 3 is_stmt 0 view .LVU775
 2194 001c 3220     		movs	r0, #50	@,
 2195              	.LVL136:
 2196              	@ ../Libraries/STM32_USB_OTG_Driver/src/usb_core.c:543:   USB_OTG_WRITE_REG32(&pdev->regs.GREGS->GU
ARM GAS  C:\Users\admin\AppData\Local\Temp\ccFXFx3g.s 			page 58


 543:../Libraries/STM32_USB_OTG_Driver/src/usb_core.c ****   USB_OTG_BSP_mDelay(50);
 2197              		.loc 1 543 3 view .LVU776
 2198 001e E360     		str	r3, [r4, #12]	@ usbcfg, _1->GUSBCFG
 2199              		.loc 1 544 3 is_stmt 1 view .LVU777
 2200 0020 FFF7FEFF 		bl	USB_OTG_BSP_mDelay		@
 2201              	.LVL137:
 545:../Libraries/STM32_USB_OTG_Driver/src/usb_core.c ****   return status;
 2202              		.loc 1 545 3 view .LVU778
 2203              	@ ../Libraries/STM32_USB_OTG_Driver/src/usb_core.c:546: }
 546:../Libraries/STM32_USB_OTG_Driver/src/usb_core.c **** }
 2204              		.loc 1 546 1 is_stmt 0 view .LVU779
 2205 0024 0020     		movs	r0, #0	@,
 2206 0026 10BD     		pop	{r4, pc}	@
 2207              	.LVL138:
 2208              	.L209:
 536:../Libraries/STM32_USB_OTG_Driver/src/usb_core.c ****   }
 2209              		.loc 1 536 5 is_stmt 1 view .LVU780
 2210              	@ ../Libraries/STM32_USB_OTG_Driver/src/usb_core.c:536:     usbcfg.b.force_host = 1;
 536:../Libraries/STM32_USB_OTG_Driver/src/usb_core.c ****   }
 2211              		.loc 1 536 25 is_stmt 0 view .LVU781
 2212 0028 43F00053 		orr	r3, r3, #536870912	@ usbcfg, usbcfg,
 2213              	.LVL139:
 536:../Libraries/STM32_USB_OTG_Driver/src/usb_core.c ****   }
 2214              		.loc 1 536 25 view .LVU782
 2215 002c F6E7     		b	.L207		@
 2216              		.cfi_endproc
 2217              	.LFE120:
 2218              		.size	USB_OTG_SetCurrentMode, .-USB_OTG_SetCurrentMode
 2219 002e 00BF     		.section	.text.USB_OTG_GetMode,"ax",%progbits
 2220              		.align	1
 2221              		.p2align 2,,3
 2222              		.global	USB_OTG_GetMode
 2223              		.syntax unified
 2224              		.thumb
 2225              		.thumb_func
 2226              		.type	USB_OTG_GetMode, %function
 2227              	USB_OTG_GetMode:
 2228              	.LVL140:
 2229              	.LFB121:
 547:../Libraries/STM32_USB_OTG_Driver/src/usb_core.c **** 
 548:../Libraries/STM32_USB_OTG_Driver/src/usb_core.c **** 
 549:../Libraries/STM32_USB_OTG_Driver/src/usb_core.c **** /**
 550:../Libraries/STM32_USB_OTG_Driver/src/usb_core.c **** * @brief  USB_OTG_GetMode : Get current mode
 551:../Libraries/STM32_USB_OTG_Driver/src/usb_core.c **** * @param  pdev : Selected device
 552:../Libraries/STM32_USB_OTG_Driver/src/usb_core.c **** * @retval current mode
 553:../Libraries/STM32_USB_OTG_Driver/src/usb_core.c **** */
 554:../Libraries/STM32_USB_OTG_Driver/src/usb_core.c **** uint32_t USB_OTG_GetMode(USB_OTG_CORE_HANDLE *pdev)
 555:../Libraries/STM32_USB_OTG_Driver/src/usb_core.c **** {
 2230              		.loc 1 555 1 is_stmt 1 view -0
 2231              		.cfi_startproc
 2232              		@ args = 0, pretend = 0, frame = 0
 2233              		@ frame_needed = 0, uses_anonymous_args = 0
 2234              		@ link register save eliminated.
 556:../Libraries/STM32_USB_OTG_Driver/src/usb_core.c ****   return (USB_OTG_READ_REG32(&pdev->regs.GREGS->GINTSTS ) & 0x1);
 2235              		.loc 1 556 3 view .LVU784
 2236              	@ ../Libraries/STM32_USB_OTG_Driver/src/usb_core.c:556:   return (USB_OTG_READ_REG32(&pdev->regs.GR
 2237              		.loc 1 556 11 is_stmt 0 view .LVU785
ARM GAS  C:\Users\admin\AppData\Local\Temp\ccFXFx3g.s 			page 59


 2238 0000 C368     		ldr	r3, [r0, #12]	@ _1, pdev_4(D)->regs.GREGS
 2239 0002 5869     		ldr	r0, [r3, #20]	@ _2, _1->GINTSTS
 2240              	.LVL141:
 2241              	@ ../Libraries/STM32_USB_OTG_Driver/src/usb_core.c:557: }
 557:../Libraries/STM32_USB_OTG_Driver/src/usb_core.c **** }
 2242              		.loc 1 557 1 view .LVU786
 2243 0004 00F00100 		and	r0, r0, #1	@, _2,
 2244 0008 7047     		bx	lr	@
 2245              		.cfi_endproc
 2246              	.LFE121:
 2247              		.size	USB_OTG_GetMode, .-USB_OTG_GetMode
 2248 000a 00BF     		.section	.text.USB_OTG_IsDeviceMode,"ax",%progbits
 2249              		.align	1
 2250              		.p2align 2,,3
 2251              		.global	USB_OTG_IsDeviceMode
 2252              		.syntax unified
 2253              		.thumb
 2254              		.thumb_func
 2255              		.type	USB_OTG_IsDeviceMode, %function
 2256              	USB_OTG_IsDeviceMode:
 2257              	.LVL142:
 2258              	.LFB122:
 558:../Libraries/STM32_USB_OTG_Driver/src/usb_core.c **** 
 559:../Libraries/STM32_USB_OTG_Driver/src/usb_core.c **** 
 560:../Libraries/STM32_USB_OTG_Driver/src/usb_core.c **** /**
 561:../Libraries/STM32_USB_OTG_Driver/src/usb_core.c **** * @brief  USB_OTG_IsDeviceMode : Check if it is device mode
 562:../Libraries/STM32_USB_OTG_Driver/src/usb_core.c **** * @param  pdev : Selected device
 563:../Libraries/STM32_USB_OTG_Driver/src/usb_core.c **** * @retval num_in_ep
 564:../Libraries/STM32_USB_OTG_Driver/src/usb_core.c **** */
 565:../Libraries/STM32_USB_OTG_Driver/src/usb_core.c **** uint8_t USB_OTG_IsDeviceMode(USB_OTG_CORE_HANDLE *pdev)
 566:../Libraries/STM32_USB_OTG_Driver/src/usb_core.c **** {
 2259              		.loc 1 566 1 is_stmt 1 view -0
 2260              		.cfi_startproc
 2261              		@ args = 0, pretend = 0, frame = 0
 2262              		@ frame_needed = 0, uses_anonymous_args = 0
 2263              		@ link register save eliminated.
 567:../Libraries/STM32_USB_OTG_Driver/src/usb_core.c ****   return (USB_OTG_GetMode(pdev) != HOST_MODE);
 2264              		.loc 1 567 3 view .LVU788
 2265              	.LBB38:
 2266              	.LBI38:
 554:../Libraries/STM32_USB_OTG_Driver/src/usb_core.c **** {
 2267              		.loc 1 554 10 view .LVU789
 2268              	.LBB39:
 556:../Libraries/STM32_USB_OTG_Driver/src/usb_core.c **** }
 2269              		.loc 1 556 3 view .LVU790
 2270              	@ ../Libraries/STM32_USB_OTG_Driver/src/usb_core.c:556:   return (USB_OTG_READ_REG32(&pdev->regs.GR
 556:../Libraries/STM32_USB_OTG_Driver/src/usb_core.c **** }
 2271              		.loc 1 556 11 is_stmt 0 view .LVU791
 2272 0000 C368     		ldr	r3, [r0, #12]	@ _4, pdev_2(D)->regs.GREGS
 2273 0002 5869     		ldr	r0, [r3, #20]	@ _5, _4->GINTSTS
 2274              	.LVL143:
 556:../Libraries/STM32_USB_OTG_Driver/src/usb_core.c **** }
 2275              		.loc 1 556 11 view .LVU792
 2276              	.LBE39:
 2277              	.LBE38:
 2278              	@ ../Libraries/STM32_USB_OTG_Driver/src/usb_core.c:567:   return (USB_OTG_GetMode(pdev) != HOST_MOD
 2279              		.loc 1 567 33 view .LVU793
ARM GAS  C:\Users\admin\AppData\Local\Temp\ccFXFx3g.s 			page 60


 2280 0004 C043     		mvns	r0, r0	@ tmp120, _5
 2281              	@ ../Libraries/STM32_USB_OTG_Driver/src/usb_core.c:568: }
 568:../Libraries/STM32_USB_OTG_Driver/src/usb_core.c **** }
 2282              		.loc 1 568 1 view .LVU794
 2283 0006 00F00100 		and	r0, r0, #1	@, tmp120,
 2284 000a 7047     		bx	lr	@
 2285              		.cfi_endproc
 2286              	.LFE122:
 2287              		.size	USB_OTG_IsDeviceMode, .-USB_OTG_IsDeviceMode
 2288              		.section	.text.USB_OTG_IsHostMode,"ax",%progbits
 2289              		.align	1
 2290              		.p2align 2,,3
 2291              		.global	USB_OTG_IsHostMode
 2292              		.syntax unified
 2293              		.thumb
 2294              		.thumb_func
 2295              		.type	USB_OTG_IsHostMode, %function
 2296              	USB_OTG_IsHostMode:
 2297              	.LVL144:
 2298              	.LFB123:
 569:../Libraries/STM32_USB_OTG_Driver/src/usb_core.c **** 
 570:../Libraries/STM32_USB_OTG_Driver/src/usb_core.c **** 
 571:../Libraries/STM32_USB_OTG_Driver/src/usb_core.c **** /**
 572:../Libraries/STM32_USB_OTG_Driver/src/usb_core.c **** * @brief  USB_OTG_IsHostMode : Check if it is host mode
 573:../Libraries/STM32_USB_OTG_Driver/src/usb_core.c **** * @param  pdev : Selected device
 574:../Libraries/STM32_USB_OTG_Driver/src/usb_core.c **** * @retval num_in_ep
 575:../Libraries/STM32_USB_OTG_Driver/src/usb_core.c **** */
 576:../Libraries/STM32_USB_OTG_Driver/src/usb_core.c **** uint8_t USB_OTG_IsHostMode(USB_OTG_CORE_HANDLE *pdev)
 577:../Libraries/STM32_USB_OTG_Driver/src/usb_core.c **** {
 2299              		.loc 1 577 1 is_stmt 1 view -0
 2300              		.cfi_startproc
 2301              		@ args = 0, pretend = 0, frame = 0
 2302              		@ frame_needed = 0, uses_anonymous_args = 0
 2303              		@ link register save eliminated.
 578:../Libraries/STM32_USB_OTG_Driver/src/usb_core.c ****   return (USB_OTG_GetMode(pdev) == HOST_MODE);
 2304              		.loc 1 578 3 view .LVU796
 2305              	.LBB40:
 2306              	.LBI40:
 554:../Libraries/STM32_USB_OTG_Driver/src/usb_core.c **** {
 2307              		.loc 1 554 10 view .LVU797
 2308              	.LBB41:
 556:../Libraries/STM32_USB_OTG_Driver/src/usb_core.c **** }
 2309              		.loc 1 556 3 view .LVU798
 2310              	@ ../Libraries/STM32_USB_OTG_Driver/src/usb_core.c:556:   return (USB_OTG_READ_REG32(&pdev->regs.GR
 556:../Libraries/STM32_USB_OTG_Driver/src/usb_core.c **** }
 2311              		.loc 1 556 11 is_stmt 0 view .LVU799
 2312 0000 C368     		ldr	r3, [r0, #12]	@ _5, pdev_3(D)->regs.GREGS
 2313 0002 5869     		ldr	r0, [r3, #20]	@ _6, _5->GINTSTS
 2314              	.LVL145:
 556:../Libraries/STM32_USB_OTG_Driver/src/usb_core.c **** }
 2315              		.loc 1 556 11 view .LVU800
 2316              	.LBE41:
 2317              	.LBE40:
 2318              	@ ../Libraries/STM32_USB_OTG_Driver/src/usb_core.c:579: }
 579:../Libraries/STM32_USB_OTG_Driver/src/usb_core.c **** }
 2319              		.loc 1 579 1 view .LVU801
 2320 0004 00F00100 		and	r0, r0, #1	@, _6,
ARM GAS  C:\Users\admin\AppData\Local\Temp\ccFXFx3g.s 			page 61


 2321 0008 7047     		bx	lr	@
 2322              		.cfi_endproc
 2323              	.LFE123:
 2324              		.size	USB_OTG_IsHostMode, .-USB_OTG_IsHostMode
 2325 000a 00BF     		.section	.text.USB_OTG_ReadCoreItr,"ax",%progbits
 2326              		.align	1
 2327              		.p2align 2,,3
 2328              		.global	USB_OTG_ReadCoreItr
 2329              		.syntax unified
 2330              		.thumb
 2331              		.thumb_func
 2332              		.type	USB_OTG_ReadCoreItr, %function
 2333              	USB_OTG_ReadCoreItr:
 2334              	.LVL146:
 2335              	.LFB124:
 580:../Libraries/STM32_USB_OTG_Driver/src/usb_core.c **** 
 581:../Libraries/STM32_USB_OTG_Driver/src/usb_core.c **** 
 582:../Libraries/STM32_USB_OTG_Driver/src/usb_core.c **** /**
 583:../Libraries/STM32_USB_OTG_Driver/src/usb_core.c **** * @brief  USB_OTG_ReadCoreItr : returns the Core Interrupt register
 584:../Libraries/STM32_USB_OTG_Driver/src/usb_core.c **** * @param  pdev : Selected device
 585:../Libraries/STM32_USB_OTG_Driver/src/usb_core.c **** * @retval Status
 586:../Libraries/STM32_USB_OTG_Driver/src/usb_core.c **** */
 587:../Libraries/STM32_USB_OTG_Driver/src/usb_core.c **** uint32_t USB_OTG_ReadCoreItr(USB_OTG_CORE_HANDLE *pdev)
 588:../Libraries/STM32_USB_OTG_Driver/src/usb_core.c **** {
 2336              		.loc 1 588 1 is_stmt 1 view -0
 2337              		.cfi_startproc
 2338              		@ args = 0, pretend = 0, frame = 0
 2339              		@ frame_needed = 0, uses_anonymous_args = 0
 2340              		@ link register save eliminated.
 589:../Libraries/STM32_USB_OTG_Driver/src/usb_core.c ****   uint32_t v = 0;
 2341              		.loc 1 589 3 view .LVU803
 590:../Libraries/STM32_USB_OTG_Driver/src/usb_core.c ****   v = USB_OTG_READ_REG32(&pdev->regs.GREGS->GINTSTS);
 2342              		.loc 1 590 3 view .LVU804
 2343              	@ ../Libraries/STM32_USB_OTG_Driver/src/usb_core.c:590:   v = USB_OTG_READ_REG32(&pdev->regs.GREGS-
 2344              		.loc 1 590 7 is_stmt 0 view .LVU805
 2345 0000 C368     		ldr	r3, [r0, #12]	@ _1, pdev_3(D)->regs.GREGS
 2346              	@ ../Libraries/STM32_USB_OTG_Driver/src/usb_core.c:590:   v = USB_OTG_READ_REG32(&pdev->regs.GREGS-
 2347              		.loc 1 590 5 view .LVU806
 2348 0002 5869     		ldr	r0, [r3, #20]	@ v, _1->GINTSTS
 2349              	.LVL147:
 591:../Libraries/STM32_USB_OTG_Driver/src/usb_core.c ****   v &= USB_OTG_READ_REG32(&pdev->regs.GREGS->GINTMSK);
 2350              		.loc 1 591 3 is_stmt 1 view .LVU807
 2351              	@ ../Libraries/STM32_USB_OTG_Driver/src/usb_core.c:591:   v &= USB_OTG_READ_REG32(&pdev->regs.GREGS
 2352              		.loc 1 591 8 is_stmt 0 view .LVU808
 2353 0004 9B69     		ldr	r3, [r3, #24]	@ _5, _1->GINTMSK
 2354              	.LVL148:
 592:../Libraries/STM32_USB_OTG_Driver/src/usb_core.c ****   return v;
 2355              		.loc 1 592 3 is_stmt 1 view .LVU809
 2356              	@ ../Libraries/STM32_USB_OTG_Driver/src/usb_core.c:593: }
 593:../Libraries/STM32_USB_OTG_Driver/src/usb_core.c **** }
 2357              		.loc 1 593 1 is_stmt 0 view .LVU810
 2358 0006 1840     		ands	r0, r0, r3	@,, v, _5
 2359              	.LVL149:
 2360              		.loc 1 593 1 view .LVU811
 2361 0008 7047     		bx	lr	@
 2362              		.cfi_endproc
 2363              	.LFE124:
ARM GAS  C:\Users\admin\AppData\Local\Temp\ccFXFx3g.s 			page 62


 2364              		.size	USB_OTG_ReadCoreItr, .-USB_OTG_ReadCoreItr
 2365 000a 00BF     		.section	.text.USB_OTG_ReadOtgItr,"ax",%progbits
 2366              		.align	1
 2367              		.p2align 2,,3
 2368              		.global	USB_OTG_ReadOtgItr
 2369              		.syntax unified
 2370              		.thumb
 2371              		.thumb_func
 2372              		.type	USB_OTG_ReadOtgItr, %function
 2373              	USB_OTG_ReadOtgItr:
 2374              	.LVL150:
 2375              	.LFB125:
 594:../Libraries/STM32_USB_OTG_Driver/src/usb_core.c **** 
 595:../Libraries/STM32_USB_OTG_Driver/src/usb_core.c **** 
 596:../Libraries/STM32_USB_OTG_Driver/src/usb_core.c **** /**
 597:../Libraries/STM32_USB_OTG_Driver/src/usb_core.c **** * @brief  USB_OTG_ReadOtgItr : returns the USB_OTG Interrupt register
 598:../Libraries/STM32_USB_OTG_Driver/src/usb_core.c **** * @param  pdev : Selected device
 599:../Libraries/STM32_USB_OTG_Driver/src/usb_core.c **** * @retval Status
 600:../Libraries/STM32_USB_OTG_Driver/src/usb_core.c **** */
 601:../Libraries/STM32_USB_OTG_Driver/src/usb_core.c **** uint32_t USB_OTG_ReadOtgItr (USB_OTG_CORE_HANDLE *pdev)
 602:../Libraries/STM32_USB_OTG_Driver/src/usb_core.c **** {
 2376              		.loc 1 602 1 is_stmt 1 view -0
 2377              		.cfi_startproc
 2378              		@ args = 0, pretend = 0, frame = 0
 2379              		@ frame_needed = 0, uses_anonymous_args = 0
 2380              		@ link register save eliminated.
 603:../Libraries/STM32_USB_OTG_Driver/src/usb_core.c ****   return (USB_OTG_READ_REG32 (&pdev->regs.GREGS->GOTGINT));
 2381              		.loc 1 603 3 view .LVU813
 2382              	@ ../Libraries/STM32_USB_OTG_Driver/src/usb_core.c:603:   return (USB_OTG_READ_REG32 (&pdev->regs.G
 2383              		.loc 1 603 11 is_stmt 0 view .LVU814
 2384 0000 C368     		ldr	r3, [r0, #12]	@ _1, pdev_3(D)->regs.GREGS
 2385 0002 5868     		ldr	r0, [r3, #4]	@ <retval>, _1->GOTGINT
 2386              	.LVL151:
 2387              	@ ../Libraries/STM32_USB_OTG_Driver/src/usb_core.c:604: }
 604:../Libraries/STM32_USB_OTG_Driver/src/usb_core.c **** }
 2388              		.loc 1 604 1 view .LVU815
 2389 0004 7047     		bx	lr	@
 2390              		.cfi_endproc
 2391              	.LFE125:
 2392              		.size	USB_OTG_ReadOtgItr, .-USB_OTG_ReadOtgItr
 2393 0006 00BF     		.section	.text.USB_OTG_InitDevSpeed,"ax",%progbits
 2394              		.align	1
 2395              		.p2align 2,,3
 2396              		.global	USB_OTG_InitDevSpeed
 2397              		.syntax unified
 2398              		.thumb
 2399              		.thumb_func
 2400              		.type	USB_OTG_InitDevSpeed, %function
 2401              	USB_OTG_InitDevSpeed:
 2402              	.LVL152:
 2403              	.LFB126:
 605:../Libraries/STM32_USB_OTG_Driver/src/usb_core.c **** 
 606:../Libraries/STM32_USB_OTG_Driver/src/usb_core.c **** #ifdef USE_HOST_MODE
 607:../Libraries/STM32_USB_OTG_Driver/src/usb_core.c **** /**
 608:../Libraries/STM32_USB_OTG_Driver/src/usb_core.c **** * @brief  USB_OTG_CoreInitHost : Initializes USB_OTG controller for host mode
 609:../Libraries/STM32_USB_OTG_Driver/src/usb_core.c **** * @param  pdev : Selected device
 610:../Libraries/STM32_USB_OTG_Driver/src/usb_core.c **** * @retval status
ARM GAS  C:\Users\admin\AppData\Local\Temp\ccFXFx3g.s 			page 63


 611:../Libraries/STM32_USB_OTG_Driver/src/usb_core.c **** */
 612:../Libraries/STM32_USB_OTG_Driver/src/usb_core.c **** USB_OTG_STS USB_OTG_CoreInitHost(USB_OTG_CORE_HANDLE *pdev)
 613:../Libraries/STM32_USB_OTG_Driver/src/usb_core.c **** {
 614:../Libraries/STM32_USB_OTG_Driver/src/usb_core.c ****   USB_OTG_STS                     status = USB_OTG_OK;
 615:../Libraries/STM32_USB_OTG_Driver/src/usb_core.c ****   USB_OTG_FSIZ_TypeDef            nptxfifosize;
 616:../Libraries/STM32_USB_OTG_Driver/src/usb_core.c ****   USB_OTG_FSIZ_TypeDef            ptxfifosize;  
 617:../Libraries/STM32_USB_OTG_Driver/src/usb_core.c ****   USB_OTG_HCFG_TypeDef            hcfg;
 618:../Libraries/STM32_USB_OTG_Driver/src/usb_core.c ****   
 619:../Libraries/STM32_USB_OTG_Driver/src/usb_core.c **** #ifdef USE_OTG_MODE
 620:../Libraries/STM32_USB_OTG_Driver/src/usb_core.c ****   USB_OTG_OTGCTL_TypeDef          gotgctl;
 621:../Libraries/STM32_USB_OTG_Driver/src/usb_core.c **** #endif
 622:../Libraries/STM32_USB_OTG_Driver/src/usb_core.c ****   
 623:../Libraries/STM32_USB_OTG_Driver/src/usb_core.c ****   uint32_t                        i = 0;
 624:../Libraries/STM32_USB_OTG_Driver/src/usb_core.c ****   
 625:../Libraries/STM32_USB_OTG_Driver/src/usb_core.c ****   nptxfifosize.d32 = 0;  
 626:../Libraries/STM32_USB_OTG_Driver/src/usb_core.c ****   ptxfifosize.d32 = 0;
 627:../Libraries/STM32_USB_OTG_Driver/src/usb_core.c **** #ifdef USE_OTG_MODE
 628:../Libraries/STM32_USB_OTG_Driver/src/usb_core.c ****   gotgctl.d32 = 0;
 629:../Libraries/STM32_USB_OTG_Driver/src/usb_core.c **** #endif
 630:../Libraries/STM32_USB_OTG_Driver/src/usb_core.c ****   hcfg.d32 = 0;
 631:../Libraries/STM32_USB_OTG_Driver/src/usb_core.c ****   
 632:../Libraries/STM32_USB_OTG_Driver/src/usb_core.c ****   
 633:../Libraries/STM32_USB_OTG_Driver/src/usb_core.c ****   /* configure charge pump IO */
 634:../Libraries/STM32_USB_OTG_Driver/src/usb_core.c ****   USB_OTG_BSP_ConfigVBUS(pdev);
 635:../Libraries/STM32_USB_OTG_Driver/src/usb_core.c ****   
 636:../Libraries/STM32_USB_OTG_Driver/src/usb_core.c ****   /* Restart the Phy Clock */
 637:../Libraries/STM32_USB_OTG_Driver/src/usb_core.c ****   USB_OTG_WRITE_REG32(pdev->regs.PCGCCTL, 0);
 638:../Libraries/STM32_USB_OTG_Driver/src/usb_core.c ****   
 639:../Libraries/STM32_USB_OTG_Driver/src/usb_core.c ****   /* Initialize Host Configuration Register */
 640:../Libraries/STM32_USB_OTG_Driver/src/usb_core.c ****   if (pdev->cfg.phy_itface == USB_OTG_ULPI_PHY)
 641:../Libraries/STM32_USB_OTG_Driver/src/usb_core.c ****   {
 642:../Libraries/STM32_USB_OTG_Driver/src/usb_core.c ****     USB_OTG_InitFSLSPClkSel(pdev , HCFG_30_60_MHZ); 
 643:../Libraries/STM32_USB_OTG_Driver/src/usb_core.c ****   }
 644:../Libraries/STM32_USB_OTG_Driver/src/usb_core.c ****   else
 645:../Libraries/STM32_USB_OTG_Driver/src/usb_core.c ****   {
 646:../Libraries/STM32_USB_OTG_Driver/src/usb_core.c ****     USB_OTG_InitFSLSPClkSel(pdev , HCFG_48_MHZ); 
 647:../Libraries/STM32_USB_OTG_Driver/src/usb_core.c ****   }
 648:../Libraries/STM32_USB_OTG_Driver/src/usb_core.c ****   USB_OTG_ResetPort(pdev);
 649:../Libraries/STM32_USB_OTG_Driver/src/usb_core.c ****   
 650:../Libraries/STM32_USB_OTG_Driver/src/usb_core.c ****   hcfg.d32 = USB_OTG_READ_REG32(&pdev->regs.HREGS->HCFG);
 651:../Libraries/STM32_USB_OTG_Driver/src/usb_core.c ****   hcfg.b.fslssupp = 0;
 652:../Libraries/STM32_USB_OTG_Driver/src/usb_core.c ****   USB_OTG_WRITE_REG32(&pdev->regs.HREGS->HCFG, hcfg.d32);
 653:../Libraries/STM32_USB_OTG_Driver/src/usb_core.c ****   
 654:../Libraries/STM32_USB_OTG_Driver/src/usb_core.c ****   /* Configure data FIFO sizes */
 655:../Libraries/STM32_USB_OTG_Driver/src/usb_core.c ****   /* Rx FIFO */
 656:../Libraries/STM32_USB_OTG_Driver/src/usb_core.c **** #ifdef USB_OTG_FS_CORE
 657:../Libraries/STM32_USB_OTG_Driver/src/usb_core.c ****   if(pdev->cfg.coreID == USB_OTG_FS_CORE_ID)
 658:../Libraries/STM32_USB_OTG_Driver/src/usb_core.c ****   {
 659:../Libraries/STM32_USB_OTG_Driver/src/usb_core.c ****     /* set Rx FIFO size */
 660:../Libraries/STM32_USB_OTG_Driver/src/usb_core.c ****     USB_OTG_WRITE_REG32(&pdev->regs.GREGS->GRXFSIZ, RX_FIFO_FS_SIZE);
 661:../Libraries/STM32_USB_OTG_Driver/src/usb_core.c ****     nptxfifosize.b.startaddr = RX_FIFO_FS_SIZE;   
 662:../Libraries/STM32_USB_OTG_Driver/src/usb_core.c ****     nptxfifosize.b.depth = TXH_NP_FS_FIFOSIZ;  
 663:../Libraries/STM32_USB_OTG_Driver/src/usb_core.c ****     USB_OTG_WRITE_REG32(&pdev->regs.GREGS->DIEPTXF0_HNPTXFSIZ, nptxfifosize.d32);
 664:../Libraries/STM32_USB_OTG_Driver/src/usb_core.c ****     
