ARM GAS  C:\Users\admin\AppData\Local\Temp\ccpMiuah.s 			page 1


   1              		.cpu cortex-m4
   2              		.arch armv7e-m
   3              		.fpu fpv4-sp-d16
   4              		.eabi_attribute 27, 1	@ Tag_ABI_HardFP_use
   5              		.eabi_attribute 28, 1	@ Tag_ABI_VFP_args
   6              		.eabi_attribute 23, 1	@ Tag_ABI_FP_number_model
   7              		.eabi_attribute 24, 1	@ Tag_ABI_align8_needed
   8              		.eabi_attribute 25, 1	@ Tag_ABI_align8_preserved
   9              		.eabi_attribute 26, 1	@ Tag_ABI_enum_size
  10              		.eabi_attribute 30, 2	@ Tag_ABI_optimization_goals
  11              		.eabi_attribute 34, 1	@ Tag_CPU_unaligned_access
  12              		.eabi_attribute 18, 4	@ Tag_ABI_PCS_wchar_t
  13              		.file	"usb_dcd_int.c"
  14              	@ GNU C89 (GNU Arm Embedded Toolchain 10.3-2021.10) version 10.3.1 20210824 (release) (arm-none-eab
  15              	@	compiled by GNU C version 7.3-win32 20180312, GMP version 6.1.0, MPFR version 3.1.4, MPC version 
  16              	
  17              	@ GGC heuristics: --param ggc-min-expand=100 --param ggc-min-heapsize=131072
  18              	@ options passed:  -I . -I . -I ../Utilities/STM32F4-Discovery/
  19              	@ -I ../Libraries/STM32_USB_Device_Library/Class/audio/inc/
  20              	@ -I ../Libraries/STM32_USB_Device_Library/Core/inc/
  21              	@ -I ../Libraries/STM32_USB_OTG_Driver/inc/
  22              	@ -I ../Utilities/STM32F4-Discovery/
  23              	@ -I ../Libraries/STM32F4xx_StdPeriph_Driver/inc/
  24              	@ -I ../Utilities/STM32F4-Discovery/
  25              	@ -I ../Libraries/CMSIS/ST/STM32F4xx/Include/
  26              	@ -I ../Libraries/CMSIS/Include/ -imultilib thumb/v7e-m+fp/hard
  27              	@ -iprefix c:\program files (x86)\gnu arm embedded toolchain\10 2021.10\bin\../lib/gcc/arm-none-eab
  28              	@ -isysroot c:\program files (x86)\gnu arm embedded toolchain\10 2021.10\bin\../arm-none-eabi
  29              	@ -MD out/usb_dcd_int.d -MF out/usb_dcd_int.d -MP -MQ out/usb_dcd_int.o
  30              	@ -D__USES_INITFINI__ -D STM32F4XX -D __VFP_FP__ -D USE_USB_OTG_FS
  31              	@ ../Libraries/STM32_USB_OTG_Driver/src/usb_dcd_int.c -mcpu=cortex-m4
  32              	@ -mthumb -mfloat-abi=hard -mfpu=fpv4-sp-d16 -mlibarch=armv7e-m+fp
  33              	@ -march=armv7e-m+fp -auxbase-strip out/usb_dcd_int.o -g -ggdb3 -O3 -Wall
  34              	@ -Wstrict-prototypes -Wextra -std=gnu90 -ffast-math -ffunction-sections
  35              	@ -fdata-sections -fverbose-asm
  36              	@ options enabled:  -faggressive-loop-optimizations -falign-functions
  37              	@ -falign-jumps -falign-labels -falign-loops -fallocation-dce
  38              	@ -fassociative-math -fauto-inc-dec -fbranch-count-reg -fcaller-saves
  39              	@ -fcombine-stack-adjustments -fcompare-elim -fcprop-registers
  40              	@ -fcrossjumping -fcse-follow-jumps -fcx-limited-range -fdata-sections
  41              	@ -fdefer-pop -fdelete-null-pointer-checks -fdevirtualize
  42              	@ -fdevirtualize-speculatively -fdwarf2-cfi-asm -fearly-inlining
  43              	@ -feliminate-unused-debug-symbols -feliminate-unused-debug-types
  44              	@ -fexpensive-optimizations -ffinite-math-only -fforward-propagate
  45              	@ -ffp-int-builtin-inexact -ffunction-cse -ffunction-sections -fgcse
  46              	@ -fgcse-after-reload -fgcse-lm -fgnu-unique -fguess-branch-probability
  47              	@ -fhoist-adjacent-loads -fident -fif-conversion -fif-conversion2
  48              	@ -findirect-inlining -finline -finline-atomics -finline-functions
  49              	@ -finline-functions-called-once -finline-small-functions -fipa-bit-cp
  50              	@ -fipa-cp -fipa-cp-clone -fipa-icf -fipa-icf-functions -fipa-icf-variables
  51              	@ -fipa-profile -fipa-pure-const -fipa-ra -fipa-reference
  52              	@ -fipa-reference-addressable -fipa-sra -fipa-stack-alignment -fipa-vrp
  53              	@ -fira-hoist-pressure -fira-share-save-slots -fira-share-spill-slots
  54              	@ -fisolate-erroneous-paths-dereference -fivopts -fkeep-static-consts
  55              	@ -fleading-underscore -flifetime-dse -floop-interchange
  56              	@ -floop-unroll-and-jam -flra-remat -fmerge-constants -fmerge-debug-strings
  57              	@ -fmove-loop-invariants -fomit-frame-pointer -foptimize-sibling-calls
ARM GAS  C:\Users\admin\AppData\Local\Temp\ccpMiuah.s 			page 2


  58              	@ -foptimize-strlen -fpartial-inlining -fpeel-loops -fpeephole -fpeephole2
  59              	@ -fplt -fpredictive-commoning -fprefetch-loop-arrays -freciprocal-math
  60              	@ -freg-struct-return -freorder-blocks -freorder-functions
  61              	@ -frerun-cse-after-loop -fsched-critical-path-heuristic
  62              	@ -fsched-dep-count-heuristic -fsched-group-heuristic -fsched-interblock
  63              	@ -fsched-last-insn-heuristic -fsched-pressure -fsched-rank-heuristic
  64              	@ -fsched-spec -fsched-spec-insn-heuristic -fsched-stalled-insns-dep
  65              	@ -fschedule-insns -fschedule-insns2 -fsection-anchors
  66              	@ -fsemantic-interposition -fshow-column -fshrink-wrap
  67              	@ -fshrink-wrap-separate -fsplit-ivs-in-unroller -fsplit-loops
  68              	@ -fsplit-paths -fsplit-wide-types -fssa-backprop -fssa-phiopt -fstdarg-opt
  69              	@ -fstore-merging -fstrict-aliasing -fstrict-volatile-bitfields
  70              	@ -fsync-libcalls -fthread-jumps -ftoplevel-reorder -ftree-bit-ccp
  71              	@ -ftree-builtin-call-dce -ftree-ccp -ftree-ch -ftree-coalesce-vars
  72              	@ -ftree-copy-prop -ftree-cselim -ftree-dce -ftree-dominator-opts
  73              	@ -ftree-dse -ftree-forwprop -ftree-fre -ftree-loop-distribute-patterns
  74              	@ -ftree-loop-distribution -ftree-loop-if-convert -ftree-loop-im
  75              	@ -ftree-loop-ivcanon -ftree-loop-optimize -ftree-loop-vectorize
  76              	@ -ftree-parallelize-loops= -ftree-partial-pre -ftree-phiprop -ftree-pre
  77              	@ -ftree-pta -ftree-reassoc -ftree-scev-cprop -ftree-sink
  78              	@ -ftree-slp-vectorize -ftree-slsr -ftree-sra -ftree-switch-conversion
  79              	@ -ftree-tail-merge -ftree-ter -ftree-vrp -funit-at-a-time
  80              	@ -funsafe-math-optimizations -funswitch-loops -fvar-tracking
  81              	@ -fvar-tracking-assignments -fverbose-asm -fversion-loops-for-strides
  82              	@ -fzero-initialized-in-bss -masm-syntax-unified -mbe32 -mlittle-endian
  83              	@ -mpic-data-is-text-relative -msched-prolog -mthumb -munaligned-access
  84              	@ -mvectorize-with-neon-quad
  85              	
  86              		.text
  87              	.Ltext0:
  88              		.cfi_sections	.debug_frame
  89              		.section	.text.USBD_OTG_ISR_Handler,"ax",%progbits
  90              		.align	1
  91              		.p2align 2,,3
  92              		.global	USBD_OTG_ISR_Handler
  93              		.syntax unified
  94              		.thumb
  95              		.thumb_func
  96              		.type	USBD_OTG_ISR_Handler, %function
  97              	USBD_OTG_ISR_Handler:
  98              	.LVL0:
  99              	.LFB110:
 100              		.file 1 "../Libraries/STM32_USB_OTG_Driver/src/usb_dcd_int.c"
   1:../Libraries/STM32_USB_OTG_Driver/src/usb_dcd_int.c **** /**
   2:../Libraries/STM32_USB_OTG_Driver/src/usb_dcd_int.c ****   ******************************************************************************
   3:../Libraries/STM32_USB_OTG_Driver/src/usb_dcd_int.c ****   * @file    usb_dcd_int.c
   4:../Libraries/STM32_USB_OTG_Driver/src/usb_dcd_int.c ****   * @author  MCD Application Team
   5:../Libraries/STM32_USB_OTG_Driver/src/usb_dcd_int.c ****   * @version V2.1.0
   6:../Libraries/STM32_USB_OTG_Driver/src/usb_dcd_int.c ****   * @date    19-March-2012
   7:../Libraries/STM32_USB_OTG_Driver/src/usb_dcd_int.c ****   * @brief   Peripheral Device interrupt subroutines
   8:../Libraries/STM32_USB_OTG_Driver/src/usb_dcd_int.c ****   ******************************************************************************
   9:../Libraries/STM32_USB_OTG_Driver/src/usb_dcd_int.c ****   * @attention
  10:../Libraries/STM32_USB_OTG_Driver/src/usb_dcd_int.c ****   *
  11:../Libraries/STM32_USB_OTG_Driver/src/usb_dcd_int.c ****   * <h2><center>&copy; COPYRIGHT 2012 STMicroelectronics</center></h2>
  12:../Libraries/STM32_USB_OTG_Driver/src/usb_dcd_int.c ****   *
  13:../Libraries/STM32_USB_OTG_Driver/src/usb_dcd_int.c ****   * Licensed under MCD-ST Liberty SW License Agreement V2, (the "License");
  14:../Libraries/STM32_USB_OTG_Driver/src/usb_dcd_int.c ****   * You may not use this file except in compliance with the License.
ARM GAS  C:\Users\admin\AppData\Local\Temp\ccpMiuah.s 			page 3


  15:../Libraries/STM32_USB_OTG_Driver/src/usb_dcd_int.c ****   * You may obtain a copy of the License at:
  16:../Libraries/STM32_USB_OTG_Driver/src/usb_dcd_int.c ****   *
  17:../Libraries/STM32_USB_OTG_Driver/src/usb_dcd_int.c ****   *        http://www.st.com/software_license_agreement_liberty_v2
  18:../Libraries/STM32_USB_OTG_Driver/src/usb_dcd_int.c ****   *
  19:../Libraries/STM32_USB_OTG_Driver/src/usb_dcd_int.c ****   * Unless required by applicable law or agreed to in writing, software 
  20:../Libraries/STM32_USB_OTG_Driver/src/usb_dcd_int.c ****   * distributed under the License is distributed on an "AS IS" BASIS, 
  21:../Libraries/STM32_USB_OTG_Driver/src/usb_dcd_int.c ****   * WITHOUT WARRANTIES OR CONDITIONS OF ANY KIND, either express or implied.
  22:../Libraries/STM32_USB_OTG_Driver/src/usb_dcd_int.c ****   * See the License for the specific language governing permissions and
  23:../Libraries/STM32_USB_OTG_Driver/src/usb_dcd_int.c ****   * limitations under the License.
  24:../Libraries/STM32_USB_OTG_Driver/src/usb_dcd_int.c ****   *
  25:../Libraries/STM32_USB_OTG_Driver/src/usb_dcd_int.c ****   ******************************************************************************
  26:../Libraries/STM32_USB_OTG_Driver/src/usb_dcd_int.c ****   */
  27:../Libraries/STM32_USB_OTG_Driver/src/usb_dcd_int.c **** 
  28:../Libraries/STM32_USB_OTG_Driver/src/usb_dcd_int.c **** /* Includes ------------------------------------------------------------------*/
  29:../Libraries/STM32_USB_OTG_Driver/src/usb_dcd_int.c **** #include "usb_dcd_int.h"
  30:../Libraries/STM32_USB_OTG_Driver/src/usb_dcd_int.c **** /** @addtogroup USB_OTG_DRIVER
  31:../Libraries/STM32_USB_OTG_Driver/src/usb_dcd_int.c **** * @{
  32:../Libraries/STM32_USB_OTG_Driver/src/usb_dcd_int.c **** */
  33:../Libraries/STM32_USB_OTG_Driver/src/usb_dcd_int.c **** 
  34:../Libraries/STM32_USB_OTG_Driver/src/usb_dcd_int.c **** /** @defgroup USB_DCD_INT 
  35:../Libraries/STM32_USB_OTG_Driver/src/usb_dcd_int.c **** * @brief This file contains the interrupt subroutines for the Device mode.
  36:../Libraries/STM32_USB_OTG_Driver/src/usb_dcd_int.c **** * @{
  37:../Libraries/STM32_USB_OTG_Driver/src/usb_dcd_int.c **** */
  38:../Libraries/STM32_USB_OTG_Driver/src/usb_dcd_int.c **** 
  39:../Libraries/STM32_USB_OTG_Driver/src/usb_dcd_int.c **** 
  40:../Libraries/STM32_USB_OTG_Driver/src/usb_dcd_int.c **** /** @defgroup USB_DCD_INT_Private_Defines
  41:../Libraries/STM32_USB_OTG_Driver/src/usb_dcd_int.c **** * @{
  42:../Libraries/STM32_USB_OTG_Driver/src/usb_dcd_int.c **** */ 
  43:../Libraries/STM32_USB_OTG_Driver/src/usb_dcd_int.c **** /**
  44:../Libraries/STM32_USB_OTG_Driver/src/usb_dcd_int.c **** * @}
  45:../Libraries/STM32_USB_OTG_Driver/src/usb_dcd_int.c **** */ 
  46:../Libraries/STM32_USB_OTG_Driver/src/usb_dcd_int.c **** 
  47:../Libraries/STM32_USB_OTG_Driver/src/usb_dcd_int.c **** 
  48:../Libraries/STM32_USB_OTG_Driver/src/usb_dcd_int.c **** /** @defgroup USB_DCD_INT_Private_TypesDefinitions
  49:../Libraries/STM32_USB_OTG_Driver/src/usb_dcd_int.c **** * @{
  50:../Libraries/STM32_USB_OTG_Driver/src/usb_dcd_int.c **** */ 
  51:../Libraries/STM32_USB_OTG_Driver/src/usb_dcd_int.c **** /**
  52:../Libraries/STM32_USB_OTG_Driver/src/usb_dcd_int.c **** * @}
  53:../Libraries/STM32_USB_OTG_Driver/src/usb_dcd_int.c **** */ 
  54:../Libraries/STM32_USB_OTG_Driver/src/usb_dcd_int.c **** 
  55:../Libraries/STM32_USB_OTG_Driver/src/usb_dcd_int.c **** 
  56:../Libraries/STM32_USB_OTG_Driver/src/usb_dcd_int.c **** 
  57:../Libraries/STM32_USB_OTG_Driver/src/usb_dcd_int.c **** /** @defgroup USB_DCD_INT_Private_Macros
  58:../Libraries/STM32_USB_OTG_Driver/src/usb_dcd_int.c **** * @{
  59:../Libraries/STM32_USB_OTG_Driver/src/usb_dcd_int.c **** */ 
  60:../Libraries/STM32_USB_OTG_Driver/src/usb_dcd_int.c **** /**
  61:../Libraries/STM32_USB_OTG_Driver/src/usb_dcd_int.c **** * @}
  62:../Libraries/STM32_USB_OTG_Driver/src/usb_dcd_int.c **** */ 
  63:../Libraries/STM32_USB_OTG_Driver/src/usb_dcd_int.c **** 
  64:../Libraries/STM32_USB_OTG_Driver/src/usb_dcd_int.c **** 
  65:../Libraries/STM32_USB_OTG_Driver/src/usb_dcd_int.c **** /** @defgroup USB_DCD_INT_Private_Variables
  66:../Libraries/STM32_USB_OTG_Driver/src/usb_dcd_int.c **** * @{
  67:../Libraries/STM32_USB_OTG_Driver/src/usb_dcd_int.c **** */ 
  68:../Libraries/STM32_USB_OTG_Driver/src/usb_dcd_int.c **** /**
  69:../Libraries/STM32_USB_OTG_Driver/src/usb_dcd_int.c **** * @}
  70:../Libraries/STM32_USB_OTG_Driver/src/usb_dcd_int.c **** */ 
  71:../Libraries/STM32_USB_OTG_Driver/src/usb_dcd_int.c **** 
ARM GAS  C:\Users\admin\AppData\Local\Temp\ccpMiuah.s 			page 4


  72:../Libraries/STM32_USB_OTG_Driver/src/usb_dcd_int.c **** 
  73:../Libraries/STM32_USB_OTG_Driver/src/usb_dcd_int.c **** /** @defgroup USB_DCD_INT_Private_FunctionPrototypes
  74:../Libraries/STM32_USB_OTG_Driver/src/usb_dcd_int.c **** * @{
  75:../Libraries/STM32_USB_OTG_Driver/src/usb_dcd_int.c **** */ 
  76:../Libraries/STM32_USB_OTG_Driver/src/usb_dcd_int.c **** /* static functions */
  77:../Libraries/STM32_USB_OTG_Driver/src/usb_dcd_int.c **** static uint32_t DCD_ReadDevInEP (USB_OTG_CORE_HANDLE *pdev, uint8_t epnum);
  78:../Libraries/STM32_USB_OTG_Driver/src/usb_dcd_int.c **** 
  79:../Libraries/STM32_USB_OTG_Driver/src/usb_dcd_int.c **** /* Interrupt Handlers */
  80:../Libraries/STM32_USB_OTG_Driver/src/usb_dcd_int.c **** static uint32_t DCD_HandleInEP_ISR(USB_OTG_CORE_HANDLE *pdev);
  81:../Libraries/STM32_USB_OTG_Driver/src/usb_dcd_int.c **** static uint32_t DCD_HandleOutEP_ISR(USB_OTG_CORE_HANDLE *pdev);
  82:../Libraries/STM32_USB_OTG_Driver/src/usb_dcd_int.c **** static uint32_t DCD_HandleSof_ISR(USB_OTG_CORE_HANDLE *pdev);
  83:../Libraries/STM32_USB_OTG_Driver/src/usb_dcd_int.c **** 
  84:../Libraries/STM32_USB_OTG_Driver/src/usb_dcd_int.c **** static uint32_t DCD_HandleRxStatusQueueLevel_ISR(USB_OTG_CORE_HANDLE *pdev);
  85:../Libraries/STM32_USB_OTG_Driver/src/usb_dcd_int.c **** static uint32_t DCD_WriteEmptyTxFifo(USB_OTG_CORE_HANDLE *pdev , uint32_t epnum);
  86:../Libraries/STM32_USB_OTG_Driver/src/usb_dcd_int.c **** 
  87:../Libraries/STM32_USB_OTG_Driver/src/usb_dcd_int.c **** static uint32_t DCD_HandleUsbReset_ISR(USB_OTG_CORE_HANDLE *pdev);
  88:../Libraries/STM32_USB_OTG_Driver/src/usb_dcd_int.c **** static uint32_t DCD_HandleEnumDone_ISR(USB_OTG_CORE_HANDLE *pdev);
  89:../Libraries/STM32_USB_OTG_Driver/src/usb_dcd_int.c **** static uint32_t DCD_HandleResume_ISR(USB_OTG_CORE_HANDLE *pdev);
  90:../Libraries/STM32_USB_OTG_Driver/src/usb_dcd_int.c **** static uint32_t DCD_HandleUSBSuspend_ISR(USB_OTG_CORE_HANDLE *pdev);
  91:../Libraries/STM32_USB_OTG_Driver/src/usb_dcd_int.c **** 
  92:../Libraries/STM32_USB_OTG_Driver/src/usb_dcd_int.c **** static uint32_t DCD_IsoINIncomplete_ISR(USB_OTG_CORE_HANDLE *pdev);
  93:../Libraries/STM32_USB_OTG_Driver/src/usb_dcd_int.c **** static uint32_t DCD_IsoOUTIncomplete_ISR(USB_OTG_CORE_HANDLE *pdev);
  94:../Libraries/STM32_USB_OTG_Driver/src/usb_dcd_int.c **** #ifdef VBUS_SENSING_ENABLED
  95:../Libraries/STM32_USB_OTG_Driver/src/usb_dcd_int.c **** static uint32_t DCD_SessionRequest_ISR(USB_OTG_CORE_HANDLE *pdev);
  96:../Libraries/STM32_USB_OTG_Driver/src/usb_dcd_int.c **** static uint32_t DCD_OTG_ISR(USB_OTG_CORE_HANDLE *pdev);
  97:../Libraries/STM32_USB_OTG_Driver/src/usb_dcd_int.c **** #endif
  98:../Libraries/STM32_USB_OTG_Driver/src/usb_dcd_int.c **** 
  99:../Libraries/STM32_USB_OTG_Driver/src/usb_dcd_int.c **** /**
 100:../Libraries/STM32_USB_OTG_Driver/src/usb_dcd_int.c **** * @}
 101:../Libraries/STM32_USB_OTG_Driver/src/usb_dcd_int.c **** */ 
 102:../Libraries/STM32_USB_OTG_Driver/src/usb_dcd_int.c **** 
 103:../Libraries/STM32_USB_OTG_Driver/src/usb_dcd_int.c **** 
 104:../Libraries/STM32_USB_OTG_Driver/src/usb_dcd_int.c **** /** @defgroup USB_DCD_INT_Private_Functions
 105:../Libraries/STM32_USB_OTG_Driver/src/usb_dcd_int.c **** * @{
 106:../Libraries/STM32_USB_OTG_Driver/src/usb_dcd_int.c **** */ 
 107:../Libraries/STM32_USB_OTG_Driver/src/usb_dcd_int.c **** 
 108:../Libraries/STM32_USB_OTG_Driver/src/usb_dcd_int.c **** 
 109:../Libraries/STM32_USB_OTG_Driver/src/usb_dcd_int.c **** #ifdef USB_OTG_HS_DEDICATED_EP1_ENABLED  
 110:../Libraries/STM32_USB_OTG_Driver/src/usb_dcd_int.c **** /**
 111:../Libraries/STM32_USB_OTG_Driver/src/usb_dcd_int.c **** * @brief  USBD_OTG_EP1OUT_ISR_Handler
 112:../Libraries/STM32_USB_OTG_Driver/src/usb_dcd_int.c **** *         handles all USB Interrupts
 113:../Libraries/STM32_USB_OTG_Driver/src/usb_dcd_int.c **** * @param  pdev: device instance
 114:../Libraries/STM32_USB_OTG_Driver/src/usb_dcd_int.c **** * @retval status
 115:../Libraries/STM32_USB_OTG_Driver/src/usb_dcd_int.c **** */
 116:../Libraries/STM32_USB_OTG_Driver/src/usb_dcd_int.c **** uint32_t USBD_OTG_EP1OUT_ISR_Handler (USB_OTG_CORE_HANDLE *pdev)
 117:../Libraries/STM32_USB_OTG_Driver/src/usb_dcd_int.c **** {
 118:../Libraries/STM32_USB_OTG_Driver/src/usb_dcd_int.c ****   
 119:../Libraries/STM32_USB_OTG_Driver/src/usb_dcd_int.c ****   USB_OTG_DOEPINTn_TypeDef  doepint;
 120:../Libraries/STM32_USB_OTG_Driver/src/usb_dcd_int.c ****   USB_OTG_DEPXFRSIZ_TypeDef  deptsiz;  
 121:../Libraries/STM32_USB_OTG_Driver/src/usb_dcd_int.c ****   
 122:../Libraries/STM32_USB_OTG_Driver/src/usb_dcd_int.c ****   doepint.d32 = USB_OTG_READ_REG32(&pdev->regs.OUTEP_REGS[1]->DOEPINT);
 123:../Libraries/STM32_USB_OTG_Driver/src/usb_dcd_int.c ****   doepint.d32&= USB_OTG_READ_REG32(&pdev->regs.DREGS->DOUTEP1MSK);
 124:../Libraries/STM32_USB_OTG_Driver/src/usb_dcd_int.c ****   
 125:../Libraries/STM32_USB_OTG_Driver/src/usb_dcd_int.c ****   /* Transfer complete */
 126:../Libraries/STM32_USB_OTG_Driver/src/usb_dcd_int.c ****   if ( doepint.b.xfercompl )
 127:../Libraries/STM32_USB_OTG_Driver/src/usb_dcd_int.c ****   {
 128:../Libraries/STM32_USB_OTG_Driver/src/usb_dcd_int.c ****     /* Clear the bit in DOEPINTn for this interrupt */
ARM GAS  C:\Users\admin\AppData\Local\Temp\ccpMiuah.s 			page 5


 129:../Libraries/STM32_USB_OTG_Driver/src/usb_dcd_int.c ****     CLEAR_OUT_EP_INTR(1, xfercompl);
 130:../Libraries/STM32_USB_OTG_Driver/src/usb_dcd_int.c ****     if (pdev->cfg.dma_enable == 1)
 131:../Libraries/STM32_USB_OTG_Driver/src/usb_dcd_int.c ****     {
 132:../Libraries/STM32_USB_OTG_Driver/src/usb_dcd_int.c ****       deptsiz.d32 = USB_OTG_READ_REG32(&(pdev->regs.OUTEP_REGS[1]->DOEPTSIZ));
 133:../Libraries/STM32_USB_OTG_Driver/src/usb_dcd_int.c ****       /*ToDo : handle more than one single MPS size packet */
 134:../Libraries/STM32_USB_OTG_Driver/src/usb_dcd_int.c ****       pdev->dev.out_ep[1].xfer_count = pdev->dev.out_ep[1].maxpacket - \
 135:../Libraries/STM32_USB_OTG_Driver/src/usb_dcd_int.c ****         deptsiz.b.xfersize;
 136:../Libraries/STM32_USB_OTG_Driver/src/usb_dcd_int.c ****     }    
 137:../Libraries/STM32_USB_OTG_Driver/src/usb_dcd_int.c ****     /* Inform upper layer: data ready */
 138:../Libraries/STM32_USB_OTG_Driver/src/usb_dcd_int.c ****     /* RX COMPLETE */
 139:../Libraries/STM32_USB_OTG_Driver/src/usb_dcd_int.c ****     USBD_DCD_INT_fops->DataOutStage(pdev , 1);
 140:../Libraries/STM32_USB_OTG_Driver/src/usb_dcd_int.c ****     
 141:../Libraries/STM32_USB_OTG_Driver/src/usb_dcd_int.c ****   }
 142:../Libraries/STM32_USB_OTG_Driver/src/usb_dcd_int.c ****   
 143:../Libraries/STM32_USB_OTG_Driver/src/usb_dcd_int.c ****   /* Endpoint disable  */
 144:../Libraries/STM32_USB_OTG_Driver/src/usb_dcd_int.c ****   if ( doepint.b.epdisabled )
 145:../Libraries/STM32_USB_OTG_Driver/src/usb_dcd_int.c ****   {
 146:../Libraries/STM32_USB_OTG_Driver/src/usb_dcd_int.c ****     /* Clear the bit in DOEPINTn for this interrupt */
 147:../Libraries/STM32_USB_OTG_Driver/src/usb_dcd_int.c ****     CLEAR_OUT_EP_INTR(1, epdisabled);
 148:../Libraries/STM32_USB_OTG_Driver/src/usb_dcd_int.c ****   }
 149:../Libraries/STM32_USB_OTG_Driver/src/usb_dcd_int.c **** 
 150:../Libraries/STM32_USB_OTG_Driver/src/usb_dcd_int.c ****   return 1;
 151:../Libraries/STM32_USB_OTG_Driver/src/usb_dcd_int.c **** }
 152:../Libraries/STM32_USB_OTG_Driver/src/usb_dcd_int.c **** 
 153:../Libraries/STM32_USB_OTG_Driver/src/usb_dcd_int.c **** /**
 154:../Libraries/STM32_USB_OTG_Driver/src/usb_dcd_int.c **** * @brief  USBD_OTG_EP1IN_ISR_Handler
 155:../Libraries/STM32_USB_OTG_Driver/src/usb_dcd_int.c **** *         handles all USB Interrupts
 156:../Libraries/STM32_USB_OTG_Driver/src/usb_dcd_int.c **** * @param  pdev: device instance
 157:../Libraries/STM32_USB_OTG_Driver/src/usb_dcd_int.c **** * @retval status
 158:../Libraries/STM32_USB_OTG_Driver/src/usb_dcd_int.c **** */
 159:../Libraries/STM32_USB_OTG_Driver/src/usb_dcd_int.c **** uint32_t USBD_OTG_EP1IN_ISR_Handler (USB_OTG_CORE_HANDLE *pdev)
 160:../Libraries/STM32_USB_OTG_Driver/src/usb_dcd_int.c **** {
 161:../Libraries/STM32_USB_OTG_Driver/src/usb_dcd_int.c ****   
 162:../Libraries/STM32_USB_OTG_Driver/src/usb_dcd_int.c ****   USB_OTG_DIEPINTn_TypeDef  diepint;
 163:../Libraries/STM32_USB_OTG_Driver/src/usb_dcd_int.c ****   uint32_t fifoemptymsk, msk, emp;
 164:../Libraries/STM32_USB_OTG_Driver/src/usb_dcd_int.c ****   
 165:../Libraries/STM32_USB_OTG_Driver/src/usb_dcd_int.c ****   msk = USB_OTG_READ_REG32(&pdev->regs.DREGS->DINEP1MSK);
 166:../Libraries/STM32_USB_OTG_Driver/src/usb_dcd_int.c ****   emp = USB_OTG_READ_REG32(&pdev->regs.DREGS->DIEPEMPMSK);
 167:../Libraries/STM32_USB_OTG_Driver/src/usb_dcd_int.c ****   msk |= ((emp >> 1 ) & 0x1) << 7;
 168:../Libraries/STM32_USB_OTG_Driver/src/usb_dcd_int.c ****   diepint.d32  = USB_OTG_READ_REG32(&pdev->regs.INEP_REGS[1]->DIEPINT) & msk;  
 169:../Libraries/STM32_USB_OTG_Driver/src/usb_dcd_int.c ****   
 170:../Libraries/STM32_USB_OTG_Driver/src/usb_dcd_int.c ****   if ( diepint.b.xfercompl )
 171:../Libraries/STM32_USB_OTG_Driver/src/usb_dcd_int.c ****   {
 172:../Libraries/STM32_USB_OTG_Driver/src/usb_dcd_int.c ****     fifoemptymsk = 0x1 << 1;
 173:../Libraries/STM32_USB_OTG_Driver/src/usb_dcd_int.c ****     USB_OTG_MODIFY_REG32(&pdev->regs.DREGS->DIEPEMPMSK, fifoemptymsk, 0);
 174:../Libraries/STM32_USB_OTG_Driver/src/usb_dcd_int.c ****     CLEAR_IN_EP_INTR(1, xfercompl);
 175:../Libraries/STM32_USB_OTG_Driver/src/usb_dcd_int.c ****     /* TX COMPLETE */
 176:../Libraries/STM32_USB_OTG_Driver/src/usb_dcd_int.c ****     USBD_DCD_INT_fops->DataInStage(pdev , 1);
 177:../Libraries/STM32_USB_OTG_Driver/src/usb_dcd_int.c ****   }
 178:../Libraries/STM32_USB_OTG_Driver/src/usb_dcd_int.c ****   if ( diepint.b.epdisabled )
 179:../Libraries/STM32_USB_OTG_Driver/src/usb_dcd_int.c ****   {
 180:../Libraries/STM32_USB_OTG_Driver/src/usb_dcd_int.c ****     CLEAR_IN_EP_INTR(1, epdisabled);
 181:../Libraries/STM32_USB_OTG_Driver/src/usb_dcd_int.c ****   }  
 182:../Libraries/STM32_USB_OTG_Driver/src/usb_dcd_int.c ****   if ( diepint.b.timeout )
 183:../Libraries/STM32_USB_OTG_Driver/src/usb_dcd_int.c ****   {
 184:../Libraries/STM32_USB_OTG_Driver/src/usb_dcd_int.c ****     CLEAR_IN_EP_INTR(1, timeout);
 185:../Libraries/STM32_USB_OTG_Driver/src/usb_dcd_int.c ****   }
ARM GAS  C:\Users\admin\AppData\Local\Temp\ccpMiuah.s 			page 6


 186:../Libraries/STM32_USB_OTG_Driver/src/usb_dcd_int.c ****   if (diepint.b.intktxfemp)
 187:../Libraries/STM32_USB_OTG_Driver/src/usb_dcd_int.c ****   {
 188:../Libraries/STM32_USB_OTG_Driver/src/usb_dcd_int.c ****     CLEAR_IN_EP_INTR(1, intktxfemp);
 189:../Libraries/STM32_USB_OTG_Driver/src/usb_dcd_int.c ****   }
 190:../Libraries/STM32_USB_OTG_Driver/src/usb_dcd_int.c ****   if (diepint.b.inepnakeff)
 191:../Libraries/STM32_USB_OTG_Driver/src/usb_dcd_int.c ****   {
 192:../Libraries/STM32_USB_OTG_Driver/src/usb_dcd_int.c ****     CLEAR_IN_EP_INTR(1, inepnakeff);
 193:../Libraries/STM32_USB_OTG_Driver/src/usb_dcd_int.c ****   }
 194:../Libraries/STM32_USB_OTG_Driver/src/usb_dcd_int.c ****   if (diepint.b.emptyintr)
 195:../Libraries/STM32_USB_OTG_Driver/src/usb_dcd_int.c ****   {
 196:../Libraries/STM32_USB_OTG_Driver/src/usb_dcd_int.c ****     DCD_WriteEmptyTxFifo(pdev , 1);
 197:../Libraries/STM32_USB_OTG_Driver/src/usb_dcd_int.c ****     CLEAR_IN_EP_INTR(1, emptyintr);
 198:../Libraries/STM32_USB_OTG_Driver/src/usb_dcd_int.c ****   }
 199:../Libraries/STM32_USB_OTG_Driver/src/usb_dcd_int.c ****   return 1;
 200:../Libraries/STM32_USB_OTG_Driver/src/usb_dcd_int.c **** }
 201:../Libraries/STM32_USB_OTG_Driver/src/usb_dcd_int.c **** #endif
 202:../Libraries/STM32_USB_OTG_Driver/src/usb_dcd_int.c **** 
 203:../Libraries/STM32_USB_OTG_Driver/src/usb_dcd_int.c **** /**
 204:../Libraries/STM32_USB_OTG_Driver/src/usb_dcd_int.c **** * @brief  STM32_USBF_OTG_ISR_Handler
 205:../Libraries/STM32_USB_OTG_Driver/src/usb_dcd_int.c **** *         handles all USB Interrupts
 206:../Libraries/STM32_USB_OTG_Driver/src/usb_dcd_int.c **** * @param  pdev: device instance
 207:../Libraries/STM32_USB_OTG_Driver/src/usb_dcd_int.c **** * @retval status
 208:../Libraries/STM32_USB_OTG_Driver/src/usb_dcd_int.c **** */
 209:../Libraries/STM32_USB_OTG_Driver/src/usb_dcd_int.c **** uint32_t USBD_OTG_ISR_Handler (USB_OTG_CORE_HANDLE *pdev)
 210:../Libraries/STM32_USB_OTG_Driver/src/usb_dcd_int.c **** {
 101              		.loc 1 210 1 view -0
 102              		.cfi_startproc
 103              		@ args = 0, pretend = 0, frame = 16
 104              		@ frame_needed = 0, uses_anonymous_args = 0
 211:../Libraries/STM32_USB_OTG_Driver/src/usb_dcd_int.c **** //    GPIOB->BSRRL = GPIO_Pin_12;
 212:../Libraries/STM32_USB_OTG_Driver/src/usb_dcd_int.c ****   USB_OTG_GINTSTS_TypeDef  gintr_status;
 105              		.loc 1 212 3 view .LVU1
 213:../Libraries/STM32_USB_OTG_Driver/src/usb_dcd_int.c ****   uint32_t retval = 0;
 106              		.loc 1 213 3 view .LVU2
 214:../Libraries/STM32_USB_OTG_Driver/src/usb_dcd_int.c **** 
 215:../Libraries/STM32_USB_OTG_Driver/src/usb_dcd_int.c ****   if (USB_OTG_IsDeviceMode(pdev)) /* ensure that we are in device mode */
 107              		.loc 1 215 3 view .LVU3
 108              	@ ../Libraries/STM32_USB_OTG_Driver/src/usb_dcd_int.c:210: {
 210:../Libraries/STM32_USB_OTG_Driver/src/usb_dcd_int.c **** //    GPIOB->BSRRL = GPIO_Pin_12;
 109              		.loc 1 210 1 is_stmt 0 view .LVU4
 110 0000 2DE9F04F 		push	{r4, r5, r6, r7, r8, r9, r10, fp, lr}	@
 111              		.cfi_def_cfa_offset 36
 112              		.cfi_offset 4, -36
 113              		.cfi_offset 5, -32
 114              		.cfi_offset 6, -28
 115              		.cfi_offset 7, -24
 116              		.cfi_offset 8, -20
 117              		.cfi_offset 9, -16
 118              		.cfi_offset 10, -12
 119              		.cfi_offset 11, -8
 120              		.cfi_offset 14, -4
 121 0004 85B0     		sub	sp, sp, #20	@,,
 122              		.cfi_def_cfa_offset 56
 123              	@ ../Libraries/STM32_USB_OTG_Driver/src/usb_dcd_int.c:210: {
 210:../Libraries/STM32_USB_OTG_Driver/src/usb_dcd_int.c **** //    GPIOB->BSRRL = GPIO_Pin_12;
 124              		.loc 1 210 1 view .LVU5
 125 0006 0446     		mov	r4, r0	@ pdev, tmp589
ARM GAS  C:\Users\admin\AppData\Local\Temp\ccpMiuah.s 			page 7


 126              	@ ../Libraries/STM32_USB_OTG_Driver/src/usb_dcd_int.c:215:   if (USB_OTG_IsDeviceMode(pdev)) /* ens
 127              		.loc 1 215 7 view .LVU6
 128 0008 FFF7FEFF 		bl	USB_OTG_IsDeviceMode		@
 129              	.LVL1:
 130              	@ ../Libraries/STM32_USB_OTG_Driver/src/usb_dcd_int.c:215:   if (USB_OTG_IsDeviceMode(pdev)) /* ens
 131              		.loc 1 215 6 view .LVU7
 132 000c 10B9     		cbnz	r0, .L122	@ tmp341,
 133              	.LVL2:
 134              	.L1:
 135              	@ ../Libraries/STM32_USB_OTG_Driver/src/usb_dcd_int.c:303: }
 216:../Libraries/STM32_USB_OTG_Driver/src/usb_dcd_int.c ****   {
 217:../Libraries/STM32_USB_OTG_Driver/src/usb_dcd_int.c ****     gintr_status.d32 = USB_OTG_ReadCoreItr(pdev);
 218:../Libraries/STM32_USB_OTG_Driver/src/usb_dcd_int.c **** #ifdef original
 219:../Libraries/STM32_USB_OTG_Driver/src/usb_dcd_int.c ****     if (!gintr_status.d32) /* avoid spurious interrupt */
 220:../Libraries/STM32_USB_OTG_Driver/src/usb_dcd_int.c ****     {
 221:../Libraries/STM32_USB_OTG_Driver/src/usb_dcd_int.c ****       return 0;
 222:../Libraries/STM32_USB_OTG_Driver/src/usb_dcd_int.c ****     }
 223:../Libraries/STM32_USB_OTG_Driver/src/usb_dcd_int.c **** #endif
 224:../Libraries/STM32_USB_OTG_Driver/src/usb_dcd_int.c ****     if (gintr_status.b.outepintr)
 225:../Libraries/STM32_USB_OTG_Driver/src/usb_dcd_int.c ****     {
 226:../Libraries/STM32_USB_OTG_Driver/src/usb_dcd_int.c ****       retval |= DCD_HandleOutEP_ISR(pdev);
 227:../Libraries/STM32_USB_OTG_Driver/src/usb_dcd_int.c ****     }    
 228:../Libraries/STM32_USB_OTG_Driver/src/usb_dcd_int.c ****     
 229:../Libraries/STM32_USB_OTG_Driver/src/usb_dcd_int.c ****     if (gintr_status.b.inepint)
 230:../Libraries/STM32_USB_OTG_Driver/src/usb_dcd_int.c ****     {
 231:../Libraries/STM32_USB_OTG_Driver/src/usb_dcd_int.c **** 
 232:../Libraries/STM32_USB_OTG_Driver/src/usb_dcd_int.c ****       retval |= DCD_HandleInEP_ISR(pdev);
 233:../Libraries/STM32_USB_OTG_Driver/src/usb_dcd_int.c ****     }
 234:../Libraries/STM32_USB_OTG_Driver/src/usb_dcd_int.c **** #ifdef original
 235:../Libraries/STM32_USB_OTG_Driver/src/usb_dcd_int.c ****     if (gintr_status.b.modemismatch)
 236:../Libraries/STM32_USB_OTG_Driver/src/usb_dcd_int.c ****     {
 237:../Libraries/STM32_USB_OTG_Driver/src/usb_dcd_int.c ****       USB_OTG_GINTSTS_TypeDef  gintsts;
 238:../Libraries/STM32_USB_OTG_Driver/src/usb_dcd_int.c ****       
 239:../Libraries/STM32_USB_OTG_Driver/src/usb_dcd_int.c ****       /* Clear interrupt */
 240:../Libraries/STM32_USB_OTG_Driver/src/usb_dcd_int.c ****       gintsts.d32 = 0;
 241:../Libraries/STM32_USB_OTG_Driver/src/usb_dcd_int.c ****       gintsts.b.modemismatch = 1;
 242:../Libraries/STM32_USB_OTG_Driver/src/usb_dcd_int.c ****       USB_OTG_WRITE_REG32(&pdev->regs.GREGS->GINTSTS, gintsts.d32);
 243:../Libraries/STM32_USB_OTG_Driver/src/usb_dcd_int.c ****     }
 244:../Libraries/STM32_USB_OTG_Driver/src/usb_dcd_int.c **** #endif	
 245:../Libraries/STM32_USB_OTG_Driver/src/usb_dcd_int.c **** 
 246:../Libraries/STM32_USB_OTG_Driver/src/usb_dcd_int.c ****     if (gintr_status.b.wkupintr)
 247:../Libraries/STM32_USB_OTG_Driver/src/usb_dcd_int.c ****     {
 248:../Libraries/STM32_USB_OTG_Driver/src/usb_dcd_int.c ****       retval |= DCD_HandleResume_ISR(pdev);
 249:../Libraries/STM32_USB_OTG_Driver/src/usb_dcd_int.c ****     }
 250:../Libraries/STM32_USB_OTG_Driver/src/usb_dcd_int.c **** 
 251:../Libraries/STM32_USB_OTG_Driver/src/usb_dcd_int.c **** 
 252:../Libraries/STM32_USB_OTG_Driver/src/usb_dcd_int.c ****      if (gintr_status.b.usbsuspend)
 253:../Libraries/STM32_USB_OTG_Driver/src/usb_dcd_int.c ****     {
 254:../Libraries/STM32_USB_OTG_Driver/src/usb_dcd_int.c ****       retval |= DCD_HandleUSBSuspend_ISR(pdev);
 255:../Libraries/STM32_USB_OTG_Driver/src/usb_dcd_int.c ****     }
 256:../Libraries/STM32_USB_OTG_Driver/src/usb_dcd_int.c ****     
 257:../Libraries/STM32_USB_OTG_Driver/src/usb_dcd_int.c ****     if (gintr_status.b.sofintr)
 258:../Libraries/STM32_USB_OTG_Driver/src/usb_dcd_int.c ****     {
 259:../Libraries/STM32_USB_OTG_Driver/src/usb_dcd_int.c ****       retval |= DCD_HandleSof_ISR(pdev);
 260:../Libraries/STM32_USB_OTG_Driver/src/usb_dcd_int.c **** 
 261:../Libraries/STM32_USB_OTG_Driver/src/usb_dcd_int.c ****     }
 262:../Libraries/STM32_USB_OTG_Driver/src/usb_dcd_int.c ****     
ARM GAS  C:\Users\admin\AppData\Local\Temp\ccpMiuah.s 			page 8


 263:../Libraries/STM32_USB_OTG_Driver/src/usb_dcd_int.c ****     if (gintr_status.b.rxstsqlvl)
 264:../Libraries/STM32_USB_OTG_Driver/src/usb_dcd_int.c ****     {
 265:../Libraries/STM32_USB_OTG_Driver/src/usb_dcd_int.c ****       retval |= DCD_HandleRxStatusQueueLevel_ISR(pdev);
 266:../Libraries/STM32_USB_OTG_Driver/src/usb_dcd_int.c ****       
 267:../Libraries/STM32_USB_OTG_Driver/src/usb_dcd_int.c ****     }
 268:../Libraries/STM32_USB_OTG_Driver/src/usb_dcd_int.c ****     
 269:../Libraries/STM32_USB_OTG_Driver/src/usb_dcd_int.c ****     if (gintr_status.b.usbreset)
 270:../Libraries/STM32_USB_OTG_Driver/src/usb_dcd_int.c ****     {
 271:../Libraries/STM32_USB_OTG_Driver/src/usb_dcd_int.c ****       retval |= DCD_HandleUsbReset_ISR(pdev);
 272:../Libraries/STM32_USB_OTG_Driver/src/usb_dcd_int.c ****       
 273:../Libraries/STM32_USB_OTG_Driver/src/usb_dcd_int.c ****     }
 274:../Libraries/STM32_USB_OTG_Driver/src/usb_dcd_int.c ****     if (gintr_status.b.enumdone)
 275:../Libraries/STM32_USB_OTG_Driver/src/usb_dcd_int.c ****     {
 276:../Libraries/STM32_USB_OTG_Driver/src/usb_dcd_int.c ****       retval |= DCD_HandleEnumDone_ISR(pdev);
 277:../Libraries/STM32_USB_OTG_Driver/src/usb_dcd_int.c ****     }
 278:../Libraries/STM32_USB_OTG_Driver/src/usb_dcd_int.c **** #ifdef original
 279:../Libraries/STM32_USB_OTG_Driver/src/usb_dcd_int.c ****     if (gintr_status.b.incomplisoin)
 280:../Libraries/STM32_USB_OTG_Driver/src/usb_dcd_int.c ****     {
 281:../Libraries/STM32_USB_OTG_Driver/src/usb_dcd_int.c ****       retval |= DCD_IsoINIncomplete_ISR(pdev);
 282:../Libraries/STM32_USB_OTG_Driver/src/usb_dcd_int.c ****     }
 283:../Libraries/STM32_USB_OTG_Driver/src/usb_dcd_int.c **** 
 284:../Libraries/STM32_USB_OTG_Driver/src/usb_dcd_int.c ****     if (gintr_status.b.incomplisoout)
 285:../Libraries/STM32_USB_OTG_Driver/src/usb_dcd_int.c ****     {
 286:../Libraries/STM32_USB_OTG_Driver/src/usb_dcd_int.c ****       retval |= DCD_IsoOUTIncomplete_ISR(pdev);
 287:../Libraries/STM32_USB_OTG_Driver/src/usb_dcd_int.c ****     }
 288:../Libraries/STM32_USB_OTG_Driver/src/usb_dcd_int.c **** #endif
 289:../Libraries/STM32_USB_OTG_Driver/src/usb_dcd_int.c **** #ifdef VBUS_SENSING_ENABLED
 290:../Libraries/STM32_USB_OTG_Driver/src/usb_dcd_int.c ****     if (gintr_status.b.sessreqintr)
 291:../Libraries/STM32_USB_OTG_Driver/src/usb_dcd_int.c ****     {
 292:../Libraries/STM32_USB_OTG_Driver/src/usb_dcd_int.c ****       retval |= DCD_SessionRequest_ISR(pdev);
 293:../Libraries/STM32_USB_OTG_Driver/src/usb_dcd_int.c ****     }
 294:../Libraries/STM32_USB_OTG_Driver/src/usb_dcd_int.c **** 
 295:../Libraries/STM32_USB_OTG_Driver/src/usb_dcd_int.c ****     if (gintr_status.b.otgintr)
 296:../Libraries/STM32_USB_OTG_Driver/src/usb_dcd_int.c ****     {
 297:../Libraries/STM32_USB_OTG_Driver/src/usb_dcd_int.c ****       retval |= DCD_OTG_ISR(pdev);
 298:../Libraries/STM32_USB_OTG_Driver/src/usb_dcd_int.c ****     }   
 299:../Libraries/STM32_USB_OTG_Driver/src/usb_dcd_int.c **** #endif    
 300:../Libraries/STM32_USB_OTG_Driver/src/usb_dcd_int.c ****   }
 301:../Libraries/STM32_USB_OTG_Driver/src/usb_dcd_int.c **** //  GPIOB->BSRRH = GPIO_Pin_12;
 302:../Libraries/STM32_USB_OTG_Driver/src/usb_dcd_int.c ****   return retval;
 303:../Libraries/STM32_USB_OTG_Driver/src/usb_dcd_int.c **** }
 136              		.loc 1 303 1 view .LVU8
 137 000e 05B0     		add	sp, sp, #20	@,,
 138              		.cfi_remember_state
 139              		.cfi_def_cfa_offset 36
 140              		@ sp needed	@
 141 0010 BDE8F08F 		pop	{r4, r5, r6, r7, r8, r9, r10, fp, pc}	@
 142              	.LVL3:
 143              	.L122:
 144              		.cfi_restore_state
 217:../Libraries/STM32_USB_OTG_Driver/src/usb_dcd_int.c **** #ifdef original
 145              		.loc 1 217 5 is_stmt 1 view .LVU9
 146              	@ ../Libraries/STM32_USB_OTG_Driver/src/usb_dcd_int.c:217:     gintr_status.d32 = USB_OTG_ReadCoreI
 217:../Libraries/STM32_USB_OTG_Driver/src/usb_dcd_int.c **** #ifdef original
 147              		.loc 1 217 24 is_stmt 0 view .LVU10
 148 0014 2046     		mov	r0, r4	@, pdev
 149 0016 FFF7FEFF 		bl	USB_OTG_ReadCoreItr		@
ARM GAS  C:\Users\admin\AppData\Local\Temp\ccpMiuah.s 			page 9


 150              	.LVL4:
 151              	@ ../Libraries/STM32_USB_OTG_Driver/src/usb_dcd_int.c:224:     if (gintr_status.b.outepintr)
 224:../Libraries/STM32_USB_OTG_Driver/src/usb_dcd_int.c ****     {
 152              		.loc 1 224 9 view .LVU11
 153 001a C0F30749 		ubfx	r9, r0, #16, #8	@ _3, _2,,
 154              	@ ../Libraries/STM32_USB_OTG_Driver/src/usb_dcd_int.c:217:     gintr_status.d32 = USB_OTG_ReadCoreI
 217:../Libraries/STM32_USB_OTG_Driver/src/usb_dcd_int.c **** #ifdef original
 155              		.loc 1 217 24 view .LVU12
 156 001e 0646     		mov	r6, r0	@ _2, tmp591
 157              	.LVL5:
 224:../Libraries/STM32_USB_OTG_Driver/src/usb_dcd_int.c ****     {
 158              		.loc 1 224 5 is_stmt 1 view .LVU13
 159              	@ ../Libraries/STM32_USB_OTG_Driver/src/usb_dcd_int.c:224:     if (gintr_status.b.outepintr)
 224:../Libraries/STM32_USB_OTG_Driver/src/usb_dcd_int.c ****     {
 160              		.loc 1 224 8 is_stmt 0 view .LVU14
 161 0020 19F00800 		ands	r0, r9, #8	@ tmp345, _3,
 162              	.LVL6:
 224:../Libraries/STM32_USB_OTG_Driver/src/usb_dcd_int.c ****     {
 163              		.loc 1 224 8 view .LVU15
 164 0024 40F09D81 		bne	.L123		@,
 165              	.LVL7:
 166              	.L3:
 229:../Libraries/STM32_USB_OTG_Driver/src/usb_dcd_int.c ****     {
 167              		.loc 1 229 5 is_stmt 1 view .LVU16
 168              	@ ../Libraries/STM32_USB_OTG_Driver/src/usb_dcd_int.c:229:     if (gintr_status.b.inepint)
 229:../Libraries/STM32_USB_OTG_Driver/src/usb_dcd_int.c ****     {
 169              		.loc 1 229 8 is_stmt 0 view .LVU17
 170 0028 19F0040F 		tst	r9, #4	@ _3,
 171 002c 40F0ED80 		bne	.L124		@,
 172              	.LVL8:
 173              	.L16:
 246:../Libraries/STM32_USB_OTG_Driver/src/usb_dcd_int.c ****     {
 174              		.loc 1 246 5 is_stmt 1 view .LVU18
 175              	@ ../Libraries/STM32_USB_OTG_Driver/src/usb_dcd_int.c:246:     if (gintr_status.b.wkupintr)
 246:../Libraries/STM32_USB_OTG_Driver/src/usb_dcd_int.c ****     {
 176              		.loc 1 246 8 is_stmt 0 view .LVU19
 177 0030 002E     		cmp	r6, #0	@ _2,
 178 0032 C0F2ED81 		blt	.L125		@,
 179              	.LVL9:
 180              	.L26:
 252:../Libraries/STM32_USB_OTG_Driver/src/usb_dcd_int.c ****     {
 181              		.loc 1 252 6 is_stmt 1 view .LVU20
 182              	@ ../Libraries/STM32_USB_OTG_Driver/src/usb_dcd_int.c:252:      if (gintr_status.b.usbsuspend)
 252:../Libraries/STM32_USB_OTG_Driver/src/usb_dcd_int.c ****     {
 183              		.loc 1 252 9 is_stmt 0 view .LVU21
 184 0036 3205     		lsls	r2, r6, #20	@, _2,
 185              	@ ../Libraries/STM32_USB_OTG_Driver/src/usb_dcd_int.c:252:      if (gintr_status.b.usbsuspend)
 252:../Libraries/STM32_USB_OTG_Driver/src/usb_dcd_int.c ****     {
 186              		.loc 1 252 10 view .LVU22
 187 0038 C6F30727 		ubfx	r7, r6, #8, #8	@ _7, _2,,
 188              	@ ../Libraries/STM32_USB_OTG_Driver/src/usb_dcd_int.c:252:      if (gintr_status.b.usbsuspend)
 252:../Libraries/STM32_USB_OTG_Driver/src/usb_dcd_int.c ****     {
 189              		.loc 1 252 9 view .LVU23
 190 003c 00F16081 		bmi	.L126		@,
 191              	.LVL10:
 192              	.L28:
 257:../Libraries/STM32_USB_OTG_Driver/src/usb_dcd_int.c ****     {
ARM GAS  C:\Users\admin\AppData\Local\Temp\ccpMiuah.s 			page 10


 193              		.loc 1 257 5 is_stmt 1 view .LVU24
 194              	@ ../Libraries/STM32_USB_OTG_Driver/src/usb_dcd_int.c:257:     if (gintr_status.b.sofintr)
 257:../Libraries/STM32_USB_OTG_Driver/src/usb_dcd_int.c ****     {
 195              		.loc 1 257 9 is_stmt 0 view .LVU25
 196 0040 F5B2     		uxtb	r5, r6	@ _9, _2
 197              	@ ../Libraries/STM32_USB_OTG_Driver/src/usb_dcd_int.c:257:     if (gintr_status.b.sofintr)
 257:../Libraries/STM32_USB_OTG_Driver/src/usb_dcd_int.c ****     {
 198              		.loc 1 257 8 view .LVU26
 199 0042 3607     		lsls	r6, r6, #28	@, _2,
 200 0044 20D4     		bmi	.L127		@,
 263:../Libraries/STM32_USB_OTG_Driver/src/usb_dcd_int.c ****     {
 201              		.loc 1 263 5 is_stmt 1 view .LVU27
 202              	@ ../Libraries/STM32_USB_OTG_Driver/src/usb_dcd_int.c:263:     if (gintr_status.b.rxstsqlvl)
 263:../Libraries/STM32_USB_OTG_Driver/src/usb_dcd_int.c ****     {
 203              		.loc 1 263 8 is_stmt 0 view .LVU28
 204 0046 E906     		lsls	r1, r5, #27	@, _9,
 205 0048 2AD4     		bmi	.L128		@,
 206              	.L30:
 269:../Libraries/STM32_USB_OTG_Driver/src/usb_dcd_int.c ****     {
 207              		.loc 1 269 5 is_stmt 1 view .LVU29
 208              	@ ../Libraries/STM32_USB_OTG_Driver/src/usb_dcd_int.c:269:     if (gintr_status.b.usbreset)
 269:../Libraries/STM32_USB_OTG_Driver/src/usb_dcd_int.c ****     {
 209              		.loc 1 269 8 is_stmt 0 view .LVU30
 210 004a FA06     		lsls	r2, r7, #27	@, _7,
 211 004c 51D4     		bmi	.L129		@,
 212              	.LVL11:
 213              	.L34:
 274:../Libraries/STM32_USB_OTG_Driver/src/usb_dcd_int.c ****     {
 214              		.loc 1 274 5 is_stmt 1 view .LVU31
 215              	@ ../Libraries/STM32_USB_OTG_Driver/src/usb_dcd_int.c:274:     if (gintr_status.b.enumdone)
 274:../Libraries/STM32_USB_OTG_Driver/src/usb_dcd_int.c ****     {
 216              		.loc 1 274 8 is_stmt 0 view .LVU32
 217 004e BB06     		lsls	r3, r7, #26	@, _7,
 218 0050 DDD5     		bpl	.L1		@,
 276:../Libraries/STM32_USB_OTG_Driver/src/usb_dcd_int.c ****     }
 219              		.loc 1 276 7 is_stmt 1 view .LVU33
 220              	.LVL12:
 221              	.LBB28:
 222              	.LBI28:
 304:../Libraries/STM32_USB_OTG_Driver/src/usb_dcd_int.c **** 
 305:../Libraries/STM32_USB_OTG_Driver/src/usb_dcd_int.c **** #ifdef VBUS_SENSING_ENABLED
 306:../Libraries/STM32_USB_OTG_Driver/src/usb_dcd_int.c **** /**
 307:../Libraries/STM32_USB_OTG_Driver/src/usb_dcd_int.c **** * @brief  DCD_SessionRequest_ISR
 308:../Libraries/STM32_USB_OTG_Driver/src/usb_dcd_int.c **** *         Indicates that the USB_OTG controller has detected a connection
 309:../Libraries/STM32_USB_OTG_Driver/src/usb_dcd_int.c **** * @param  pdev: device instance
 310:../Libraries/STM32_USB_OTG_Driver/src/usb_dcd_int.c **** * @retval status
 311:../Libraries/STM32_USB_OTG_Driver/src/usb_dcd_int.c **** */
 312:../Libraries/STM32_USB_OTG_Driver/src/usb_dcd_int.c **** static uint32_t DCD_SessionRequest_ISR(USB_OTG_CORE_HANDLE *pdev)
 313:../Libraries/STM32_USB_OTG_Driver/src/usb_dcd_int.c **** {
 314:../Libraries/STM32_USB_OTG_Driver/src/usb_dcd_int.c ****   USB_OTG_GINTSTS_TypeDef  gintsts;  
 315:../Libraries/STM32_USB_OTG_Driver/src/usb_dcd_int.c ****   USBD_DCD_INT_fops->DevConnected (pdev);
 316:../Libraries/STM32_USB_OTG_Driver/src/usb_dcd_int.c **** 
 317:../Libraries/STM32_USB_OTG_Driver/src/usb_dcd_int.c ****   /* Clear interrupt */
 318:../Libraries/STM32_USB_OTG_Driver/src/usb_dcd_int.c ****   gintsts.d32 = 0;
 319:../Libraries/STM32_USB_OTG_Driver/src/usb_dcd_int.c ****   gintsts.b.sessreqintr = 1;
 320:../Libraries/STM32_USB_OTG_Driver/src/usb_dcd_int.c ****   USB_OTG_WRITE_REG32 (&pdev->regs.GREGS->GINTSTS, gintsts.d32);   
 321:../Libraries/STM32_USB_OTG_Driver/src/usb_dcd_int.c ****   return 1;
ARM GAS  C:\Users\admin\AppData\Local\Temp\ccpMiuah.s 			page 11


 322:../Libraries/STM32_USB_OTG_Driver/src/usb_dcd_int.c **** }
 323:../Libraries/STM32_USB_OTG_Driver/src/usb_dcd_int.c **** 
 324:../Libraries/STM32_USB_OTG_Driver/src/usb_dcd_int.c **** /**
 325:../Libraries/STM32_USB_OTG_Driver/src/usb_dcd_int.c **** * @brief  DCD_OTG_ISR
 326:../Libraries/STM32_USB_OTG_Driver/src/usb_dcd_int.c **** *         Indicates that the USB_OTG controller has detected an OTG event:
 327:../Libraries/STM32_USB_OTG_Driver/src/usb_dcd_int.c **** *                 used to detect the end of session i.e. disconnection
 328:../Libraries/STM32_USB_OTG_Driver/src/usb_dcd_int.c **** * @param  pdev: device instance
 329:../Libraries/STM32_USB_OTG_Driver/src/usb_dcd_int.c **** * @retval status
 330:../Libraries/STM32_USB_OTG_Driver/src/usb_dcd_int.c **** */
 331:../Libraries/STM32_USB_OTG_Driver/src/usb_dcd_int.c **** static uint32_t DCD_OTG_ISR(USB_OTG_CORE_HANDLE *pdev)
 332:../Libraries/STM32_USB_OTG_Driver/src/usb_dcd_int.c **** {
 333:../Libraries/STM32_USB_OTG_Driver/src/usb_dcd_int.c **** 
 334:../Libraries/STM32_USB_OTG_Driver/src/usb_dcd_int.c ****   USB_OTG_GOTGINT_TypeDef  gotgint;
 335:../Libraries/STM32_USB_OTG_Driver/src/usb_dcd_int.c **** 
 336:../Libraries/STM32_USB_OTG_Driver/src/usb_dcd_int.c ****   gotgint.d32 = USB_OTG_READ_REG32(&pdev->regs.GREGS->GOTGINT);
 337:../Libraries/STM32_USB_OTG_Driver/src/usb_dcd_int.c ****   
 338:../Libraries/STM32_USB_OTG_Driver/src/usb_dcd_int.c ****   if (gotgint.b.sesenddet)
 339:../Libraries/STM32_USB_OTG_Driver/src/usb_dcd_int.c ****   {
 340:../Libraries/STM32_USB_OTG_Driver/src/usb_dcd_int.c ****     USBD_DCD_INT_fops->DevDisconnected (pdev);
 341:../Libraries/STM32_USB_OTG_Driver/src/usb_dcd_int.c ****   }
 342:../Libraries/STM32_USB_OTG_Driver/src/usb_dcd_int.c ****   /* Clear OTG interrupt */
 343:../Libraries/STM32_USB_OTG_Driver/src/usb_dcd_int.c ****   USB_OTG_WRITE_REG32(&pdev->regs.GREGS->GOTGINT, gotgint.d32); 
 344:../Libraries/STM32_USB_OTG_Driver/src/usb_dcd_int.c ****   return 1;
 345:../Libraries/STM32_USB_OTG_Driver/src/usb_dcd_int.c **** }
 346:../Libraries/STM32_USB_OTG_Driver/src/usb_dcd_int.c **** #endif
 347:../Libraries/STM32_USB_OTG_Driver/src/usb_dcd_int.c **** /**
 348:../Libraries/STM32_USB_OTG_Driver/src/usb_dcd_int.c **** * @brief  DCD_HandleResume_ISR
 349:../Libraries/STM32_USB_OTG_Driver/src/usb_dcd_int.c **** *         Indicates that the USB_OTG controller has detected a resume or
 350:../Libraries/STM32_USB_OTG_Driver/src/usb_dcd_int.c **** *                 remote Wake-up sequence
 351:../Libraries/STM32_USB_OTG_Driver/src/usb_dcd_int.c **** * @param  pdev: device instance
 352:../Libraries/STM32_USB_OTG_Driver/src/usb_dcd_int.c **** * @retval status
 353:../Libraries/STM32_USB_OTG_Driver/src/usb_dcd_int.c **** */
 354:../Libraries/STM32_USB_OTG_Driver/src/usb_dcd_int.c **** static uint32_t DCD_HandleResume_ISR(USB_OTG_CORE_HANDLE *pdev)
 355:../Libraries/STM32_USB_OTG_Driver/src/usb_dcd_int.c **** {
 356:../Libraries/STM32_USB_OTG_Driver/src/usb_dcd_int.c ****   USB_OTG_GINTSTS_TypeDef  gintsts;
 357:../Libraries/STM32_USB_OTG_Driver/src/usb_dcd_int.c ****   USB_OTG_DCTL_TypeDef     devctl;
 358:../Libraries/STM32_USB_OTG_Driver/src/usb_dcd_int.c ****   USB_OTG_PCGCCTL_TypeDef  power;
 359:../Libraries/STM32_USB_OTG_Driver/src/usb_dcd_int.c ****   
 360:../Libraries/STM32_USB_OTG_Driver/src/usb_dcd_int.c ****   if(pdev->cfg.low_power)
 361:../Libraries/STM32_USB_OTG_Driver/src/usb_dcd_int.c ****   {
 362:../Libraries/STM32_USB_OTG_Driver/src/usb_dcd_int.c ****     /* un-gate USB Core clock */
 363:../Libraries/STM32_USB_OTG_Driver/src/usb_dcd_int.c ****     power.d32 = USB_OTG_READ_REG32(&pdev->regs.PCGCCTL);
 364:../Libraries/STM32_USB_OTG_Driver/src/usb_dcd_int.c ****     power.b.gatehclk = 0;
 365:../Libraries/STM32_USB_OTG_Driver/src/usb_dcd_int.c ****     power.b.stoppclk = 0;
 366:../Libraries/STM32_USB_OTG_Driver/src/usb_dcd_int.c ****     USB_OTG_WRITE_REG32(pdev->regs.PCGCCTL, power.d32);
 367:../Libraries/STM32_USB_OTG_Driver/src/usb_dcd_int.c ****   }
 368:../Libraries/STM32_USB_OTG_Driver/src/usb_dcd_int.c ****   
 369:../Libraries/STM32_USB_OTG_Driver/src/usb_dcd_int.c ****   /* Clear the Remote Wake-up Signaling */
 370:../Libraries/STM32_USB_OTG_Driver/src/usb_dcd_int.c ****   devctl.d32 = 0;
 371:../Libraries/STM32_USB_OTG_Driver/src/usb_dcd_int.c ****   devctl.b.rmtwkupsig = 1;
 372:../Libraries/STM32_USB_OTG_Driver/src/usb_dcd_int.c ****   USB_OTG_MODIFY_REG32(&pdev->regs.DREGS->DCTL, devctl.d32, 0);
 373:../Libraries/STM32_USB_OTG_Driver/src/usb_dcd_int.c ****   
 374:../Libraries/STM32_USB_OTG_Driver/src/usb_dcd_int.c ****   /* Inform upper layer by the Resume Event */
 375:../Libraries/STM32_USB_OTG_Driver/src/usb_dcd_int.c ****   USBD_DCD_INT_fops->Resume (pdev);
 376:../Libraries/STM32_USB_OTG_Driver/src/usb_dcd_int.c ****   
 377:../Libraries/STM32_USB_OTG_Driver/src/usb_dcd_int.c ****   /* Clear interrupt */
 378:../Libraries/STM32_USB_OTG_Driver/src/usb_dcd_int.c ****   gintsts.d32 = 0;
ARM GAS  C:\Users\admin\AppData\Local\Temp\ccpMiuah.s 			page 12


 379:../Libraries/STM32_USB_OTG_Driver/src/usb_dcd_int.c ****   gintsts.b.wkupintr = 1;
 380:../Libraries/STM32_USB_OTG_Driver/src/usb_dcd_int.c ****   USB_OTG_WRITE_REG32 (&pdev->regs.GREGS->GINTSTS, gintsts.d32);
 381:../Libraries/STM32_USB_OTG_Driver/src/usb_dcd_int.c ****   return 1;
 382:../Libraries/STM32_USB_OTG_Driver/src/usb_dcd_int.c **** }
 383:../Libraries/STM32_USB_OTG_Driver/src/usb_dcd_int.c **** 
 384:../Libraries/STM32_USB_OTG_Driver/src/usb_dcd_int.c **** /**
 385:../Libraries/STM32_USB_OTG_Driver/src/usb_dcd_int.c **** * @brief  USB_OTG_HandleUSBSuspend_ISR
 386:../Libraries/STM32_USB_OTG_Driver/src/usb_dcd_int.c **** *         Indicates that SUSPEND state has been detected on the USB
 387:../Libraries/STM32_USB_OTG_Driver/src/usb_dcd_int.c **** * @param  pdev: device instance
 388:../Libraries/STM32_USB_OTG_Driver/src/usb_dcd_int.c **** * @retval status
 389:../Libraries/STM32_USB_OTG_Driver/src/usb_dcd_int.c **** */
 390:../Libraries/STM32_USB_OTG_Driver/src/usb_dcd_int.c **** static uint32_t DCD_HandleUSBSuspend_ISR(USB_OTG_CORE_HANDLE *pdev)
 391:../Libraries/STM32_USB_OTG_Driver/src/usb_dcd_int.c **** {
 392:../Libraries/STM32_USB_OTG_Driver/src/usb_dcd_int.c ****   USB_OTG_GINTSTS_TypeDef  gintsts;
 393:../Libraries/STM32_USB_OTG_Driver/src/usb_dcd_int.c ****   USB_OTG_PCGCCTL_TypeDef  power;
 394:../Libraries/STM32_USB_OTG_Driver/src/usb_dcd_int.c ****   USB_OTG_DSTS_TypeDef     dsts;
 395:../Libraries/STM32_USB_OTG_Driver/src/usb_dcd_int.c ****   __IO uint8_t prev_status = 0;
 396:../Libraries/STM32_USB_OTG_Driver/src/usb_dcd_int.c ****   
 397:../Libraries/STM32_USB_OTG_Driver/src/usb_dcd_int.c ****   prev_status = pdev->dev.device_status;
 398:../Libraries/STM32_USB_OTG_Driver/src/usb_dcd_int.c ****   USBD_DCD_INT_fops->Suspend (pdev);      
 399:../Libraries/STM32_USB_OTG_Driver/src/usb_dcd_int.c ****   
 400:../Libraries/STM32_USB_OTG_Driver/src/usb_dcd_int.c ****   dsts.d32 = USB_OTG_READ_REG32(&pdev->regs.DREGS->DSTS);
 401:../Libraries/STM32_USB_OTG_Driver/src/usb_dcd_int.c ****     
 402:../Libraries/STM32_USB_OTG_Driver/src/usb_dcd_int.c ****   /* Clear interrupt */
 403:../Libraries/STM32_USB_OTG_Driver/src/usb_dcd_int.c ****   gintsts.d32 = 0;
 404:../Libraries/STM32_USB_OTG_Driver/src/usb_dcd_int.c ****   gintsts.b.usbsuspend = 1;
 405:../Libraries/STM32_USB_OTG_Driver/src/usb_dcd_int.c ****   USB_OTG_WRITE_REG32(&pdev->regs.GREGS->GINTSTS, gintsts.d32);
 406:../Libraries/STM32_USB_OTG_Driver/src/usb_dcd_int.c ****   
 407:../Libraries/STM32_USB_OTG_Driver/src/usb_dcd_int.c ****   if((pdev->cfg.low_power) && (dsts.b.suspsts == 1)  && 
 408:../Libraries/STM32_USB_OTG_Driver/src/usb_dcd_int.c ****     (pdev->dev.connection_status == 1) && 
 409:../Libraries/STM32_USB_OTG_Driver/src/usb_dcd_int.c ****     (prev_status  == USB_OTG_CONFIGURED))
 410:../Libraries/STM32_USB_OTG_Driver/src/usb_dcd_int.c ****   {
 411:../Libraries/STM32_USB_OTG_Driver/src/usb_dcd_int.c **** 	/*  switch-off the clocks */
 412:../Libraries/STM32_USB_OTG_Driver/src/usb_dcd_int.c ****     power.d32 = 0;
 413:../Libraries/STM32_USB_OTG_Driver/src/usb_dcd_int.c ****     power.b.stoppclk = 1;
 414:../Libraries/STM32_USB_OTG_Driver/src/usb_dcd_int.c ****     USB_OTG_MODIFY_REG32(pdev->regs.PCGCCTL, 0, power.d32);  
 415:../Libraries/STM32_USB_OTG_Driver/src/usb_dcd_int.c ****     
 416:../Libraries/STM32_USB_OTG_Driver/src/usb_dcd_int.c ****     power.b.gatehclk = 1;
 417:../Libraries/STM32_USB_OTG_Driver/src/usb_dcd_int.c ****     USB_OTG_MODIFY_REG32(pdev->regs.PCGCCTL, 0, power.d32);
 418:../Libraries/STM32_USB_OTG_Driver/src/usb_dcd_int.c ****     
 419:../Libraries/STM32_USB_OTG_Driver/src/usb_dcd_int.c ****     /* Request to enter Sleep mode after exit from current ISR */
 420:../Libraries/STM32_USB_OTG_Driver/src/usb_dcd_int.c ****     SCB->SCR |= (SCB_SCR_SLEEPDEEP_Msk | SCB_SCR_SLEEPONEXIT_Msk);
 421:../Libraries/STM32_USB_OTG_Driver/src/usb_dcd_int.c ****   }
 422:../Libraries/STM32_USB_OTG_Driver/src/usb_dcd_int.c ****   return 1;
 423:../Libraries/STM32_USB_OTG_Driver/src/usb_dcd_int.c **** }
 424:../Libraries/STM32_USB_OTG_Driver/src/usb_dcd_int.c **** 
 425:../Libraries/STM32_USB_OTG_Driver/src/usb_dcd_int.c **** /**
 426:../Libraries/STM32_USB_OTG_Driver/src/usb_dcd_int.c **** * @brief  DCD_HandleInEP_ISR
 427:../Libraries/STM32_USB_OTG_Driver/src/usb_dcd_int.c **** *         Indicates that an IN EP has a pending Interrupt
 428:../Libraries/STM32_USB_OTG_Driver/src/usb_dcd_int.c **** * @param  pdev: device instance
 429:../Libraries/STM32_USB_OTG_Driver/src/usb_dcd_int.c **** * @retval status
 430:../Libraries/STM32_USB_OTG_Driver/src/usb_dcd_int.c **** */
 431:../Libraries/STM32_USB_OTG_Driver/src/usb_dcd_int.c **** static uint32_t DCD_HandleInEP_ISR(USB_OTG_CORE_HANDLE *pdev)
 432:../Libraries/STM32_USB_OTG_Driver/src/usb_dcd_int.c **** {
 433:../Libraries/STM32_USB_OTG_Driver/src/usb_dcd_int.c ****   USB_OTG_DIEPINTn_TypeDef  diepint;
 434:../Libraries/STM32_USB_OTG_Driver/src/usb_dcd_int.c ****   
 435:../Libraries/STM32_USB_OTG_Driver/src/usb_dcd_int.c ****   uint32_t ep_intr;
ARM GAS  C:\Users\admin\AppData\Local\Temp\ccpMiuah.s 			page 13


 436:../Libraries/STM32_USB_OTG_Driver/src/usb_dcd_int.c ****   uint32_t epnum = 0;
 437:../Libraries/STM32_USB_OTG_Driver/src/usb_dcd_int.c ****   uint32_t fifoemptymsk;
 438:../Libraries/STM32_USB_OTG_Driver/src/usb_dcd_int.c ****   diepint.d32 = 0;
 439:../Libraries/STM32_USB_OTG_Driver/src/usb_dcd_int.c ****   ep_intr = USB_OTG_ReadDevAllInEPItr(pdev);
 440:../Libraries/STM32_USB_OTG_Driver/src/usb_dcd_int.c ****   
 441:../Libraries/STM32_USB_OTG_Driver/src/usb_dcd_int.c ****   while ( ep_intr )
 442:../Libraries/STM32_USB_OTG_Driver/src/usb_dcd_int.c ****   {
 443:../Libraries/STM32_USB_OTG_Driver/src/usb_dcd_int.c ****     if (ep_intr&0x1) /* In ITR */
 444:../Libraries/STM32_USB_OTG_Driver/src/usb_dcd_int.c ****     {
 445:../Libraries/STM32_USB_OTG_Driver/src/usb_dcd_int.c ****       diepint.d32 = DCD_ReadDevInEP(pdev , epnum); /* Get In ITR status */
 446:../Libraries/STM32_USB_OTG_Driver/src/usb_dcd_int.c ****       if ( diepint.b.xfercompl )
 447:../Libraries/STM32_USB_OTG_Driver/src/usb_dcd_int.c ****       {
 448:../Libraries/STM32_USB_OTG_Driver/src/usb_dcd_int.c ****         fifoemptymsk = 0x1 << epnum;
 449:../Libraries/STM32_USB_OTG_Driver/src/usb_dcd_int.c ****         USB_OTG_MODIFY_REG32(&pdev->regs.DREGS->DIEPEMPMSK, fifoemptymsk, 0);
 450:../Libraries/STM32_USB_OTG_Driver/src/usb_dcd_int.c ****         CLEAR_IN_EP_INTR(epnum, xfercompl);
 451:../Libraries/STM32_USB_OTG_Driver/src/usb_dcd_int.c ****         /* TX COMPLETE */
 452:../Libraries/STM32_USB_OTG_Driver/src/usb_dcd_int.c ****         USBD_DCD_INT_fops->DataInStage(pdev , epnum);
 453:../Libraries/STM32_USB_OTG_Driver/src/usb_dcd_int.c **** #ifdef original
 454:../Libraries/STM32_USB_OTG_Driver/src/usb_dcd_int.c ****         if (pdev->cfg.dma_enable == 1)
 455:../Libraries/STM32_USB_OTG_Driver/src/usb_dcd_int.c ****         {
 456:../Libraries/STM32_USB_OTG_Driver/src/usb_dcd_int.c ****           if((epnum == 0) && (pdev->dev.device_state == USB_OTG_EP0_STATUS_IN))
 457:../Libraries/STM32_USB_OTG_Driver/src/usb_dcd_int.c ****           {
 458:../Libraries/STM32_USB_OTG_Driver/src/usb_dcd_int.c ****             /* prepare to rx more setup packets */
 459:../Libraries/STM32_USB_OTG_Driver/src/usb_dcd_int.c ****             USB_OTG_EP0_OutStart(pdev);
 460:../Libraries/STM32_USB_OTG_Driver/src/usb_dcd_int.c ****           }
 461:../Libraries/STM32_USB_OTG_Driver/src/usb_dcd_int.c ****         }
 462:../Libraries/STM32_USB_OTG_Driver/src/usb_dcd_int.c **** #endif
 463:../Libraries/STM32_USB_OTG_Driver/src/usb_dcd_int.c ****       }
 464:../Libraries/STM32_USB_OTG_Driver/src/usb_dcd_int.c ****       else
 465:../Libraries/STM32_USB_OTG_Driver/src/usb_dcd_int.c ****       {
 466:../Libraries/STM32_USB_OTG_Driver/src/usb_dcd_int.c **** 
 467:../Libraries/STM32_USB_OTG_Driver/src/usb_dcd_int.c ****         DCD_WriteEmptyTxFifo(pdev , epnum);
 468:../Libraries/STM32_USB_OTG_Driver/src/usb_dcd_int.c **** 
 469:../Libraries/STM32_USB_OTG_Driver/src/usb_dcd_int.c ****         CLEAR_IN_EP_INTR(epnum, emptyintr);
 470:../Libraries/STM32_USB_OTG_Driver/src/usb_dcd_int.c ****       }
 471:../Libraries/STM32_USB_OTG_Driver/src/usb_dcd_int.c **** #ifdef original
 472:../Libraries/STM32_USB_OTG_Driver/src/usb_dcd_int.c ****       if ( diepint.b.timeout )
 473:../Libraries/STM32_USB_OTG_Driver/src/usb_dcd_int.c ****       {
 474:../Libraries/STM32_USB_OTG_Driver/src/usb_dcd_int.c ****         CLEAR_IN_EP_INTR(epnum, timeout);
 475:../Libraries/STM32_USB_OTG_Driver/src/usb_dcd_int.c ****       }
 476:../Libraries/STM32_USB_OTG_Driver/src/usb_dcd_int.c ****       if (diepint.b.intktxfemp)
 477:../Libraries/STM32_USB_OTG_Driver/src/usb_dcd_int.c ****       {
 478:../Libraries/STM32_USB_OTG_Driver/src/usb_dcd_int.c ****         CLEAR_IN_EP_INTR(epnum, intktxfemp);
 479:../Libraries/STM32_USB_OTG_Driver/src/usb_dcd_int.c ****       }
 480:../Libraries/STM32_USB_OTG_Driver/src/usb_dcd_int.c ****       if (diepint.b.inepnakeff)
 481:../Libraries/STM32_USB_OTG_Driver/src/usb_dcd_int.c ****       {
 482:../Libraries/STM32_USB_OTG_Driver/src/usb_dcd_int.c ****         CLEAR_IN_EP_INTR(epnum, inepnakeff);
 483:../Libraries/STM32_USB_OTG_Driver/src/usb_dcd_int.c ****       }
 484:../Libraries/STM32_USB_OTG_Driver/src/usb_dcd_int.c ****       if ( diepint.b.epdisabled )
 485:../Libraries/STM32_USB_OTG_Driver/src/usb_dcd_int.c ****       {
 486:../Libraries/STM32_USB_OTG_Driver/src/usb_dcd_int.c ****         CLEAR_IN_EP_INTR(epnum, epdisabled);
 487:../Libraries/STM32_USB_OTG_Driver/src/usb_dcd_int.c ****       }       
 488:../Libraries/STM32_USB_OTG_Driver/src/usb_dcd_int.c ****       if (diepint.b.emptyintr)
 489:../Libraries/STM32_USB_OTG_Driver/src/usb_dcd_int.c ****       {
 490:../Libraries/STM32_USB_OTG_Driver/src/usb_dcd_int.c ****         DCD_WriteEmptyTxFifo(pdev , epnum);
 491:../Libraries/STM32_USB_OTG_Driver/src/usb_dcd_int.c ****         
 492:../Libraries/STM32_USB_OTG_Driver/src/usb_dcd_int.c ****         CLEAR_IN_EP_INTR(epnum, emptyintr);
ARM GAS  C:\Users\admin\AppData\Local\Temp\ccpMiuah.s 			page 14


 493:../Libraries/STM32_USB_OTG_Driver/src/usb_dcd_int.c ****       }
 494:../Libraries/STM32_USB_OTG_Driver/src/usb_dcd_int.c **** #endif
 495:../Libraries/STM32_USB_OTG_Driver/src/usb_dcd_int.c ****     }
 496:../Libraries/STM32_USB_OTG_Driver/src/usb_dcd_int.c ****     epnum++;
 497:../Libraries/STM32_USB_OTG_Driver/src/usb_dcd_int.c ****     ep_intr >>= 1;
 498:../Libraries/STM32_USB_OTG_Driver/src/usb_dcd_int.c ****   }
 499:../Libraries/STM32_USB_OTG_Driver/src/usb_dcd_int.c ****   
 500:../Libraries/STM32_USB_OTG_Driver/src/usb_dcd_int.c ****   return 1;
 501:../Libraries/STM32_USB_OTG_Driver/src/usb_dcd_int.c **** }
 502:../Libraries/STM32_USB_OTG_Driver/src/usb_dcd_int.c **** 
 503:../Libraries/STM32_USB_OTG_Driver/src/usb_dcd_int.c **** /**
 504:../Libraries/STM32_USB_OTG_Driver/src/usb_dcd_int.c **** * @brief  DCD_HandleOutEP_ISR
 505:../Libraries/STM32_USB_OTG_Driver/src/usb_dcd_int.c **** *         Indicates that an OUT EP has a pending Interrupt
 506:../Libraries/STM32_USB_OTG_Driver/src/usb_dcd_int.c **** * @param  pdev: device instance
 507:../Libraries/STM32_USB_OTG_Driver/src/usb_dcd_int.c **** * @retval status
 508:../Libraries/STM32_USB_OTG_Driver/src/usb_dcd_int.c **** */
 509:../Libraries/STM32_USB_OTG_Driver/src/usb_dcd_int.c **** static uint32_t DCD_HandleOutEP_ISR(USB_OTG_CORE_HANDLE *pdev)
 510:../Libraries/STM32_USB_OTG_Driver/src/usb_dcd_int.c **** {
 511:../Libraries/STM32_USB_OTG_Driver/src/usb_dcd_int.c ****   uint32_t ep_intr;
 512:../Libraries/STM32_USB_OTG_Driver/src/usb_dcd_int.c ****   USB_OTG_DOEPINTn_TypeDef  doepint;
 513:../Libraries/STM32_USB_OTG_Driver/src/usb_dcd_int.c ****   USB_OTG_DEPXFRSIZ_TypeDef  deptsiz;
 514:../Libraries/STM32_USB_OTG_Driver/src/usb_dcd_int.c ****   uint32_t epnum = 0;
 515:../Libraries/STM32_USB_OTG_Driver/src/usb_dcd_int.c ****   
 516:../Libraries/STM32_USB_OTG_Driver/src/usb_dcd_int.c ****   doepint.d32 = 0;
 517:../Libraries/STM32_USB_OTG_Driver/src/usb_dcd_int.c ****   
 518:../Libraries/STM32_USB_OTG_Driver/src/usb_dcd_int.c ****   /* Read in the device interrupt bits */
 519:../Libraries/STM32_USB_OTG_Driver/src/usb_dcd_int.c ****   ep_intr = USB_OTG_ReadDevAllOutEp_itr(pdev);
 520:../Libraries/STM32_USB_OTG_Driver/src/usb_dcd_int.c ****   
 521:../Libraries/STM32_USB_OTG_Driver/src/usb_dcd_int.c ****   while ( ep_intr )
 522:../Libraries/STM32_USB_OTG_Driver/src/usb_dcd_int.c ****   {
 523:../Libraries/STM32_USB_OTG_Driver/src/usb_dcd_int.c ****     if (ep_intr&0x1)
 524:../Libraries/STM32_USB_OTG_Driver/src/usb_dcd_int.c ****     {
 525:../Libraries/STM32_USB_OTG_Driver/src/usb_dcd_int.c ****       
 526:../Libraries/STM32_USB_OTG_Driver/src/usb_dcd_int.c ****       doepint.d32 = USB_OTG_ReadDevOutEP_itr(pdev, epnum);
 527:../Libraries/STM32_USB_OTG_Driver/src/usb_dcd_int.c ****       
 528:../Libraries/STM32_USB_OTG_Driver/src/usb_dcd_int.c ****       /* Transfer complete */
 529:../Libraries/STM32_USB_OTG_Driver/src/usb_dcd_int.c ****       if ( doepint.b.xfercompl )
 530:../Libraries/STM32_USB_OTG_Driver/src/usb_dcd_int.c ****       {
 531:../Libraries/STM32_USB_OTG_Driver/src/usb_dcd_int.c ****         /* Clear the bit in DOEPINTn for this interrupt */
 532:../Libraries/STM32_USB_OTG_Driver/src/usb_dcd_int.c ****         CLEAR_OUT_EP_INTR(epnum, xfercompl);
 533:../Libraries/STM32_USB_OTG_Driver/src/usb_dcd_int.c ****         if (pdev->cfg.dma_enable == 1)
 534:../Libraries/STM32_USB_OTG_Driver/src/usb_dcd_int.c ****         {
 535:../Libraries/STM32_USB_OTG_Driver/src/usb_dcd_int.c ****           deptsiz.d32 = USB_OTG_READ_REG32(&(pdev->regs.OUTEP_REGS[epnum]->DOEPTSIZ));
 536:../Libraries/STM32_USB_OTG_Driver/src/usb_dcd_int.c ****           /*ToDo : handle more than one single MPS size packet */
 537:../Libraries/STM32_USB_OTG_Driver/src/usb_dcd_int.c ****           pdev->dev.out_ep[epnum].xfer_count = pdev->dev.out_ep[epnum].maxpacket - \
 538:../Libraries/STM32_USB_OTG_Driver/src/usb_dcd_int.c ****             deptsiz.b.xfersize;
 539:../Libraries/STM32_USB_OTG_Driver/src/usb_dcd_int.c ****         }
 540:../Libraries/STM32_USB_OTG_Driver/src/usb_dcd_int.c ****         /* Inform upper layer: data ready */
 541:../Libraries/STM32_USB_OTG_Driver/src/usb_dcd_int.c ****         /* RX COMPLETE */
 542:../Libraries/STM32_USB_OTG_Driver/src/usb_dcd_int.c ****         USBD_DCD_INT_fops->DataOutStage(pdev , epnum);
 543:../Libraries/STM32_USB_OTG_Driver/src/usb_dcd_int.c ****         
 544:../Libraries/STM32_USB_OTG_Driver/src/usb_dcd_int.c ****         if (pdev->cfg.dma_enable == 1)
 545:../Libraries/STM32_USB_OTG_Driver/src/usb_dcd_int.c ****         {
 546:../Libraries/STM32_USB_OTG_Driver/src/usb_dcd_int.c ****           if((epnum == 0) && (pdev->dev.device_state == USB_OTG_EP0_STATUS_OUT))
 547:../Libraries/STM32_USB_OTG_Driver/src/usb_dcd_int.c ****           {
 548:../Libraries/STM32_USB_OTG_Driver/src/usb_dcd_int.c ****             /* prepare to rx more setup packets */
 549:../Libraries/STM32_USB_OTG_Driver/src/usb_dcd_int.c ****             USB_OTG_EP0_OutStart(pdev);
ARM GAS  C:\Users\admin\AppData\Local\Temp\ccpMiuah.s 			page 15


 550:../Libraries/STM32_USB_OTG_Driver/src/usb_dcd_int.c ****           }
 551:../Libraries/STM32_USB_OTG_Driver/src/usb_dcd_int.c ****         }        
 552:../Libraries/STM32_USB_OTG_Driver/src/usb_dcd_int.c ****       }
 553:../Libraries/STM32_USB_OTG_Driver/src/usb_dcd_int.c ****       /* Endpoint disable  */
 554:../Libraries/STM32_USB_OTG_Driver/src/usb_dcd_int.c ****       if ( doepint.b.epdisabled )
 555:../Libraries/STM32_USB_OTG_Driver/src/usb_dcd_int.c ****       {
 556:../Libraries/STM32_USB_OTG_Driver/src/usb_dcd_int.c ****         /* Clear the bit in DOEPINTn for this interrupt */
 557:../Libraries/STM32_USB_OTG_Driver/src/usb_dcd_int.c ****         CLEAR_OUT_EP_INTR(epnum, epdisabled);
 558:../Libraries/STM32_USB_OTG_Driver/src/usb_dcd_int.c ****       }
 559:../Libraries/STM32_USB_OTG_Driver/src/usb_dcd_int.c ****       /* Setup Phase Done (control EPs) */
 560:../Libraries/STM32_USB_OTG_Driver/src/usb_dcd_int.c ****       if ( doepint.b.setup )
 561:../Libraries/STM32_USB_OTG_Driver/src/usb_dcd_int.c ****       {
 562:../Libraries/STM32_USB_OTG_Driver/src/usb_dcd_int.c ****         
 563:../Libraries/STM32_USB_OTG_Driver/src/usb_dcd_int.c ****         /* inform the upper layer that a setup packet is available */
 564:../Libraries/STM32_USB_OTG_Driver/src/usb_dcd_int.c ****         /* SETUP COMPLETE */
 565:../Libraries/STM32_USB_OTG_Driver/src/usb_dcd_int.c ****         USBD_DCD_INT_fops->SetupStage(pdev);
 566:../Libraries/STM32_USB_OTG_Driver/src/usb_dcd_int.c ****         CLEAR_OUT_EP_INTR(epnum, setup);
 567:../Libraries/STM32_USB_OTG_Driver/src/usb_dcd_int.c ****       }
 568:../Libraries/STM32_USB_OTG_Driver/src/usb_dcd_int.c ****     }
 569:../Libraries/STM32_USB_OTG_Driver/src/usb_dcd_int.c ****     epnum++;
 570:../Libraries/STM32_USB_OTG_Driver/src/usb_dcd_int.c ****     ep_intr >>= 1;
 571:../Libraries/STM32_USB_OTG_Driver/src/usb_dcd_int.c ****   }
 572:../Libraries/STM32_USB_OTG_Driver/src/usb_dcd_int.c ****   return 1;
 573:../Libraries/STM32_USB_OTG_Driver/src/usb_dcd_int.c **** }
 574:../Libraries/STM32_USB_OTG_Driver/src/usb_dcd_int.c **** 
 575:../Libraries/STM32_USB_OTG_Driver/src/usb_dcd_int.c **** /**
 576:../Libraries/STM32_USB_OTG_Driver/src/usb_dcd_int.c **** * @brief  DCD_HandleSof_ISR
 577:../Libraries/STM32_USB_OTG_Driver/src/usb_dcd_int.c **** *         Handles the SOF Interrupts
 578:../Libraries/STM32_USB_OTG_Driver/src/usb_dcd_int.c **** * @param  pdev: device instance
 579:../Libraries/STM32_USB_OTG_Driver/src/usb_dcd_int.c **** * @retval status
 580:../Libraries/STM32_USB_OTG_Driver/src/usb_dcd_int.c **** */
 581:../Libraries/STM32_USB_OTG_Driver/src/usb_dcd_int.c **** static uint32_t DCD_HandleSof_ISR(USB_OTG_CORE_HANDLE *pdev)
 582:../Libraries/STM32_USB_OTG_Driver/src/usb_dcd_int.c **** {
 583:../Libraries/STM32_USB_OTG_Driver/src/usb_dcd_int.c ****   USB_OTG_GINTSTS_TypeDef  GINTSTS;
 584:../Libraries/STM32_USB_OTG_Driver/src/usb_dcd_int.c ****   
 585:../Libraries/STM32_USB_OTG_Driver/src/usb_dcd_int.c **** 
 586:../Libraries/STM32_USB_OTG_Driver/src/usb_dcd_int.c ****   USBD_DCD_INT_fops->SOF(pdev);
 587:../Libraries/STM32_USB_OTG_Driver/src/usb_dcd_int.c **** 
 588:../Libraries/STM32_USB_OTG_Driver/src/usb_dcd_int.c ****   /* Clear interrupt */
 589:../Libraries/STM32_USB_OTG_Driver/src/usb_dcd_int.c ****   GINTSTS.d32 = 0;
 590:../Libraries/STM32_USB_OTG_Driver/src/usb_dcd_int.c ****   GINTSTS.b.sofintr = 1;
 591:../Libraries/STM32_USB_OTG_Driver/src/usb_dcd_int.c ****   USB_OTG_WRITE_REG32 (&pdev->regs.GREGS->GINTSTS, GINTSTS.d32);
 592:../Libraries/STM32_USB_OTG_Driver/src/usb_dcd_int.c ****   
 593:../Libraries/STM32_USB_OTG_Driver/src/usb_dcd_int.c ****   return 1;
 594:../Libraries/STM32_USB_OTG_Driver/src/usb_dcd_int.c **** }
 595:../Libraries/STM32_USB_OTG_Driver/src/usb_dcd_int.c **** 
 596:../Libraries/STM32_USB_OTG_Driver/src/usb_dcd_int.c **** /**
 597:../Libraries/STM32_USB_OTG_Driver/src/usb_dcd_int.c **** * @brief  DCD_HandleRxStatusQueueLevel_ISR
 598:../Libraries/STM32_USB_OTG_Driver/src/usb_dcd_int.c **** *         Handles the Rx Status Queue Level Interrupt
 599:../Libraries/STM32_USB_OTG_Driver/src/usb_dcd_int.c **** * @param  pdev: device instance
 600:../Libraries/STM32_USB_OTG_Driver/src/usb_dcd_int.c **** * @retval status
 601:../Libraries/STM32_USB_OTG_Driver/src/usb_dcd_int.c **** */
 602:../Libraries/STM32_USB_OTG_Driver/src/usb_dcd_int.c **** static uint32_t DCD_HandleRxStatusQueueLevel_ISR(USB_OTG_CORE_HANDLE *pdev)
 603:../Libraries/STM32_USB_OTG_Driver/src/usb_dcd_int.c **** {
 604:../Libraries/STM32_USB_OTG_Driver/src/usb_dcd_int.c ****   USB_OTG_GINTMSK_TypeDef  int_mask;
 605:../Libraries/STM32_USB_OTG_Driver/src/usb_dcd_int.c ****   USB_OTG_DRXSTS_TypeDef   status;
 606:../Libraries/STM32_USB_OTG_Driver/src/usb_dcd_int.c ****   USB_OTG_EP *ep;
ARM GAS  C:\Users\admin\AppData\Local\Temp\ccpMiuah.s 			page 16


 607:../Libraries/STM32_USB_OTG_Driver/src/usb_dcd_int.c ****   
 608:../Libraries/STM32_USB_OTG_Driver/src/usb_dcd_int.c ****   /* Disable the Rx Status Queue Level interrupt */
 609:../Libraries/STM32_USB_OTG_Driver/src/usb_dcd_int.c ****   int_mask.d32 = 0;
 610:../Libraries/STM32_USB_OTG_Driver/src/usb_dcd_int.c ****   int_mask.b.rxstsqlvl = 1;
 611:../Libraries/STM32_USB_OTG_Driver/src/usb_dcd_int.c ****   USB_OTG_MODIFY_REG32( &pdev->regs.GREGS->GINTMSK, int_mask.d32, 0);
 612:../Libraries/STM32_USB_OTG_Driver/src/usb_dcd_int.c ****   
 613:../Libraries/STM32_USB_OTG_Driver/src/usb_dcd_int.c ****   /* Get the Status from the top of the FIFO */
 614:../Libraries/STM32_USB_OTG_Driver/src/usb_dcd_int.c ****   status.d32 = USB_OTG_READ_REG32( &pdev->regs.GREGS->GRXSTSP );
 615:../Libraries/STM32_USB_OTG_Driver/src/usb_dcd_int.c ****   
 616:../Libraries/STM32_USB_OTG_Driver/src/usb_dcd_int.c ****   ep = &pdev->dev.out_ep[status.b.epnum];
 617:../Libraries/STM32_USB_OTG_Driver/src/usb_dcd_int.c ****   
 618:../Libraries/STM32_USB_OTG_Driver/src/usb_dcd_int.c ****   switch (status.b.pktsts)
 619:../Libraries/STM32_USB_OTG_Driver/src/usb_dcd_int.c ****   {
 620:../Libraries/STM32_USB_OTG_Driver/src/usb_dcd_int.c ****   case STS_GOUT_NAK:
 621:../Libraries/STM32_USB_OTG_Driver/src/usb_dcd_int.c ****     break;
 622:../Libraries/STM32_USB_OTG_Driver/src/usb_dcd_int.c ****   case STS_DATA_UPDT:
 623:../Libraries/STM32_USB_OTG_Driver/src/usb_dcd_int.c ****     if (status.b.bcnt)
 624:../Libraries/STM32_USB_OTG_Driver/src/usb_dcd_int.c ****     {
 625:../Libraries/STM32_USB_OTG_Driver/src/usb_dcd_int.c ****       USB_OTG_ReadPacket(pdev,ep->xfer_buff, status.b.bcnt);
 626:../Libraries/STM32_USB_OTG_Driver/src/usb_dcd_int.c ****       ep->xfer_buff += status.b.bcnt;
 627:../Libraries/STM32_USB_OTG_Driver/src/usb_dcd_int.c ****       ep->xfer_count += status.b.bcnt;
 628:../Libraries/STM32_USB_OTG_Driver/src/usb_dcd_int.c ****     }
 629:../Libraries/STM32_USB_OTG_Driver/src/usb_dcd_int.c ****     break;
 630:../Libraries/STM32_USB_OTG_Driver/src/usb_dcd_int.c ****   case STS_XFER_COMP:
 631:../Libraries/STM32_USB_OTG_Driver/src/usb_dcd_int.c ****     break;
 632:../Libraries/STM32_USB_OTG_Driver/src/usb_dcd_int.c ****   case STS_SETUP_COMP:
 633:../Libraries/STM32_USB_OTG_Driver/src/usb_dcd_int.c ****     break;
 634:../Libraries/STM32_USB_OTG_Driver/src/usb_dcd_int.c ****   case STS_SETUP_UPDT:
 635:../Libraries/STM32_USB_OTG_Driver/src/usb_dcd_int.c ****     /* Copy the setup packet received in FIFO into the setup buffer in RAM */
 636:../Libraries/STM32_USB_OTG_Driver/src/usb_dcd_int.c ****     USB_OTG_ReadPacket(pdev , pdev->dev.setup_packet, 8);
 637:../Libraries/STM32_USB_OTG_Driver/src/usb_dcd_int.c ****     ep->xfer_count += status.b.bcnt;
 638:../Libraries/STM32_USB_OTG_Driver/src/usb_dcd_int.c ****     break;
 639:../Libraries/STM32_USB_OTG_Driver/src/usb_dcd_int.c ****   default:
 640:../Libraries/STM32_USB_OTG_Driver/src/usb_dcd_int.c ****     break;
 641:../Libraries/STM32_USB_OTG_Driver/src/usb_dcd_int.c ****   }
 642:../Libraries/STM32_USB_OTG_Driver/src/usb_dcd_int.c ****   
 643:../Libraries/STM32_USB_OTG_Driver/src/usb_dcd_int.c ****   /* Enable the Rx Status Queue Level interrupt */
 644:../Libraries/STM32_USB_OTG_Driver/src/usb_dcd_int.c ****   USB_OTG_MODIFY_REG32( &pdev->regs.GREGS->GINTMSK, 0, int_mask.d32);
 645:../Libraries/STM32_USB_OTG_Driver/src/usb_dcd_int.c ****   
 646:../Libraries/STM32_USB_OTG_Driver/src/usb_dcd_int.c ****   return 1;
 647:../Libraries/STM32_USB_OTG_Driver/src/usb_dcd_int.c **** }
 648:../Libraries/STM32_USB_OTG_Driver/src/usb_dcd_int.c **** 
 649:../Libraries/STM32_USB_OTG_Driver/src/usb_dcd_int.c **** /**
 650:../Libraries/STM32_USB_OTG_Driver/src/usb_dcd_int.c **** * @brief  DCD_WriteEmptyTxFifo
 651:../Libraries/STM32_USB_OTG_Driver/src/usb_dcd_int.c **** *         check FIFO for the next packet to be loaded
 652:../Libraries/STM32_USB_OTG_Driver/src/usb_dcd_int.c **** * @param  pdev: device instance
 653:../Libraries/STM32_USB_OTG_Driver/src/usb_dcd_int.c **** * @retval status
 654:../Libraries/STM32_USB_OTG_Driver/src/usb_dcd_int.c **** */
 655:../Libraries/STM32_USB_OTG_Driver/src/usb_dcd_int.c **** static uint32_t DCD_WriteEmptyTxFifo(USB_OTG_CORE_HANDLE *pdev, uint32_t epnum)
 656:../Libraries/STM32_USB_OTG_Driver/src/usb_dcd_int.c **** {
 657:../Libraries/STM32_USB_OTG_Driver/src/usb_dcd_int.c ****   USB_OTG_DTXFSTSn_TypeDef  txstatus;
 658:../Libraries/STM32_USB_OTG_Driver/src/usb_dcd_int.c ****   USB_OTG_EP *ep;
 659:../Libraries/STM32_USB_OTG_Driver/src/usb_dcd_int.c ****   uint32_t len = 0;
 660:../Libraries/STM32_USB_OTG_Driver/src/usb_dcd_int.c ****   uint32_t len32b;
 661:../Libraries/STM32_USB_OTG_Driver/src/usb_dcd_int.c ****   txstatus.d32 = 0;
 662:../Libraries/STM32_USB_OTG_Driver/src/usb_dcd_int.c ****   
 663:../Libraries/STM32_USB_OTG_Driver/src/usb_dcd_int.c ****   ep = &pdev->dev.in_ep[epnum];    
ARM GAS  C:\Users\admin\AppData\Local\Temp\ccpMiuah.s 			page 17


 664:../Libraries/STM32_USB_OTG_Driver/src/usb_dcd_int.c ****   
 665:../Libraries/STM32_USB_OTG_Driver/src/usb_dcd_int.c ****   len = ep->xfer_len - ep->xfer_count;
 666:../Libraries/STM32_USB_OTG_Driver/src/usb_dcd_int.c ****   
 667:../Libraries/STM32_USB_OTG_Driver/src/usb_dcd_int.c ****   if (len > ep->maxpacket)
 668:../Libraries/STM32_USB_OTG_Driver/src/usb_dcd_int.c ****   {
 669:../Libraries/STM32_USB_OTG_Driver/src/usb_dcd_int.c ****     len = ep->maxpacket;
 670:../Libraries/STM32_USB_OTG_Driver/src/usb_dcd_int.c ****   }
 671:../Libraries/STM32_USB_OTG_Driver/src/usb_dcd_int.c ****   
 672:../Libraries/STM32_USB_OTG_Driver/src/usb_dcd_int.c ****   len32b = (len + 3) / 4;
 673:../Libraries/STM32_USB_OTG_Driver/src/usb_dcd_int.c ****   txstatus.d32 = USB_OTG_READ_REG32( &pdev->regs.INEP_REGS[epnum]->DTXFSTS);
 674:../Libraries/STM32_USB_OTG_Driver/src/usb_dcd_int.c ****   
 675:../Libraries/STM32_USB_OTG_Driver/src/usb_dcd_int.c ****   
 676:../Libraries/STM32_USB_OTG_Driver/src/usb_dcd_int.c ****   
 677:../Libraries/STM32_USB_OTG_Driver/src/usb_dcd_int.c ****   while  (txstatus.b.txfspcavail > len32b &&
 678:../Libraries/STM32_USB_OTG_Driver/src/usb_dcd_int.c ****           ep->xfer_count < ep->xfer_len &&
 679:../Libraries/STM32_USB_OTG_Driver/src/usb_dcd_int.c ****             ep->xfer_len != 0)
 680:../Libraries/STM32_USB_OTG_Driver/src/usb_dcd_int.c ****   {
 681:../Libraries/STM32_USB_OTG_Driver/src/usb_dcd_int.c ****     /* Write the FIFO */
 682:../Libraries/STM32_USB_OTG_Driver/src/usb_dcd_int.c ****     len = ep->xfer_len - ep->xfer_count;
 683:../Libraries/STM32_USB_OTG_Driver/src/usb_dcd_int.c ****     
 684:../Libraries/STM32_USB_OTG_Driver/src/usb_dcd_int.c ****     if (len > ep->maxpacket)
 685:../Libraries/STM32_USB_OTG_Driver/src/usb_dcd_int.c ****     {
 686:../Libraries/STM32_USB_OTG_Driver/src/usb_dcd_int.c ****       len = ep->maxpacket;
 687:../Libraries/STM32_USB_OTG_Driver/src/usb_dcd_int.c ****     }
 688:../Libraries/STM32_USB_OTG_Driver/src/usb_dcd_int.c ****     len32b = (len + 3) / 4;
 689:../Libraries/STM32_USB_OTG_Driver/src/usb_dcd_int.c ****     
 690:../Libraries/STM32_USB_OTG_Driver/src/usb_dcd_int.c ****     USB_OTG_WritePacket (pdev , ep->xfer_buff, epnum, len);
 691:../Libraries/STM32_USB_OTG_Driver/src/usb_dcd_int.c ****     
 692:../Libraries/STM32_USB_OTG_Driver/src/usb_dcd_int.c ****     ep->xfer_buff  += len;
 693:../Libraries/STM32_USB_OTG_Driver/src/usb_dcd_int.c ****     ep->xfer_count += len;
 694:../Libraries/STM32_USB_OTG_Driver/src/usb_dcd_int.c ****     
 695:../Libraries/STM32_USB_OTG_Driver/src/usb_dcd_int.c ****     if( ep->xfer_count >= ep->xfer_len){
 696:../Libraries/STM32_USB_OTG_Driver/src/usb_dcd_int.c ****             uint32_t fifoemptymsk = 1 << ep->num;
 697:../Libraries/STM32_USB_OTG_Driver/src/usb_dcd_int.c ****             USB_OTG_MODIFY_REG32(&pdev->regs.DREGS->DIEPEMPMSK, fifoemptymsk, 0);
 698:../Libraries/STM32_USB_OTG_Driver/src/usb_dcd_int.c ****             break;
 699:../Libraries/STM32_USB_OTG_Driver/src/usb_dcd_int.c ****     }
 700:../Libraries/STM32_USB_OTG_Driver/src/usb_dcd_int.c **** 
 701:../Libraries/STM32_USB_OTG_Driver/src/usb_dcd_int.c ****     txstatus.d32 = USB_OTG_READ_REG32(&pdev->regs.INEP_REGS[epnum]->DTXFSTS);
 702:../Libraries/STM32_USB_OTG_Driver/src/usb_dcd_int.c ****   }
 703:../Libraries/STM32_USB_OTG_Driver/src/usb_dcd_int.c ****   
 704:../Libraries/STM32_USB_OTG_Driver/src/usb_dcd_int.c ****   return 1;
 705:../Libraries/STM32_USB_OTG_Driver/src/usb_dcd_int.c **** }
 706:../Libraries/STM32_USB_OTG_Driver/src/usb_dcd_int.c **** 
 707:../Libraries/STM32_USB_OTG_Driver/src/usb_dcd_int.c **** /**
 708:../Libraries/STM32_USB_OTG_Driver/src/usb_dcd_int.c **** * @brief  DCD_HandleUsbReset_ISR
 709:../Libraries/STM32_USB_OTG_Driver/src/usb_dcd_int.c **** *         This interrupt occurs when a USB Reset is detected
 710:../Libraries/STM32_USB_OTG_Driver/src/usb_dcd_int.c **** * @param  pdev: device instance
 711:../Libraries/STM32_USB_OTG_Driver/src/usb_dcd_int.c **** * @retval status
 712:../Libraries/STM32_USB_OTG_Driver/src/usb_dcd_int.c **** */
 713:../Libraries/STM32_USB_OTG_Driver/src/usb_dcd_int.c **** static uint32_t DCD_HandleUsbReset_ISR(USB_OTG_CORE_HANDLE *pdev)
 714:../Libraries/STM32_USB_OTG_Driver/src/usb_dcd_int.c **** {
 715:../Libraries/STM32_USB_OTG_Driver/src/usb_dcd_int.c ****   USB_OTG_DAINT_TypeDef    daintmsk;
 716:../Libraries/STM32_USB_OTG_Driver/src/usb_dcd_int.c ****   USB_OTG_DOEPMSK_TypeDef  doepmsk;
 717:../Libraries/STM32_USB_OTG_Driver/src/usb_dcd_int.c ****   USB_OTG_DIEPMSK_TypeDef  diepmsk;
 718:../Libraries/STM32_USB_OTG_Driver/src/usb_dcd_int.c ****   USB_OTG_DCFG_TypeDef     dcfg;
 719:../Libraries/STM32_USB_OTG_Driver/src/usb_dcd_int.c ****   USB_OTG_DCTL_TypeDef     dctl;
 720:../Libraries/STM32_USB_OTG_Driver/src/usb_dcd_int.c ****   USB_OTG_GINTSTS_TypeDef  gintsts;
ARM GAS  C:\Users\admin\AppData\Local\Temp\ccpMiuah.s 			page 18


 721:../Libraries/STM32_USB_OTG_Driver/src/usb_dcd_int.c ****   uint32_t i;
 722:../Libraries/STM32_USB_OTG_Driver/src/usb_dcd_int.c ****   
 723:../Libraries/STM32_USB_OTG_Driver/src/usb_dcd_int.c ****   dctl.d32 = 0;
 724:../Libraries/STM32_USB_OTG_Driver/src/usb_dcd_int.c ****   daintmsk.d32 = 0;
 725:../Libraries/STM32_USB_OTG_Driver/src/usb_dcd_int.c ****   doepmsk.d32 = 0;
 726:../Libraries/STM32_USB_OTG_Driver/src/usb_dcd_int.c ****   diepmsk.d32 = 0;
 727:../Libraries/STM32_USB_OTG_Driver/src/usb_dcd_int.c ****   dcfg.d32 = 0;
 728:../Libraries/STM32_USB_OTG_Driver/src/usb_dcd_int.c ****   gintsts.d32 = 0;
 729:../Libraries/STM32_USB_OTG_Driver/src/usb_dcd_int.c ****   
 730:../Libraries/STM32_USB_OTG_Driver/src/usb_dcd_int.c ****   /* Clear the Remote Wake-up Signaling */
 731:../Libraries/STM32_USB_OTG_Driver/src/usb_dcd_int.c ****   dctl.b.rmtwkupsig = 1;
 732:../Libraries/STM32_USB_OTG_Driver/src/usb_dcd_int.c ****   USB_OTG_MODIFY_REG32(&pdev->regs.DREGS->DCTL, dctl.d32, 0 );
 733:../Libraries/STM32_USB_OTG_Driver/src/usb_dcd_int.c ****   
 734:../Libraries/STM32_USB_OTG_Driver/src/usb_dcd_int.c ****   /* Flush the Tx FIFO */
 735:../Libraries/STM32_USB_OTG_Driver/src/usb_dcd_int.c ****   USB_OTG_FlushTxFifo(pdev ,  0 );
 736:../Libraries/STM32_USB_OTG_Driver/src/usb_dcd_int.c ****   
 737:../Libraries/STM32_USB_OTG_Driver/src/usb_dcd_int.c ****   for (i = 0; i < pdev->cfg.dev_endpoints ; i++)
 738:../Libraries/STM32_USB_OTG_Driver/src/usb_dcd_int.c ****   {
 739:../Libraries/STM32_USB_OTG_Driver/src/usb_dcd_int.c ****     USB_OTG_WRITE_REG32( &pdev->regs.INEP_REGS[i]->DIEPINT, 0xFF);
 740:../Libraries/STM32_USB_OTG_Driver/src/usb_dcd_int.c ****     USB_OTG_WRITE_REG32( &pdev->regs.OUTEP_REGS[i]->DOEPINT, 0xFF);
 741:../Libraries/STM32_USB_OTG_Driver/src/usb_dcd_int.c ****   }
 742:../Libraries/STM32_USB_OTG_Driver/src/usb_dcd_int.c ****   USB_OTG_WRITE_REG32( &pdev->regs.DREGS->DAINT, 0xFFFFFFFF );
 743:../Libraries/STM32_USB_OTG_Driver/src/usb_dcd_int.c ****   
 744:../Libraries/STM32_USB_OTG_Driver/src/usb_dcd_int.c ****   daintmsk.ep.in = 1;
 745:../Libraries/STM32_USB_OTG_Driver/src/usb_dcd_int.c ****   daintmsk.ep.out = 1;
 746:../Libraries/STM32_USB_OTG_Driver/src/usb_dcd_int.c ****   USB_OTG_WRITE_REG32( &pdev->regs.DREGS->DAINTMSK, daintmsk.d32 );
 747:../Libraries/STM32_USB_OTG_Driver/src/usb_dcd_int.c ****   
 748:../Libraries/STM32_USB_OTG_Driver/src/usb_dcd_int.c ****   doepmsk.b.setup = 1;
 749:../Libraries/STM32_USB_OTG_Driver/src/usb_dcd_int.c ****   doepmsk.b.xfercompl = 1;
 750:../Libraries/STM32_USB_OTG_Driver/src/usb_dcd_int.c ****   doepmsk.b.epdisabled = 1;
 751:../Libraries/STM32_USB_OTG_Driver/src/usb_dcd_int.c ****   USB_OTG_WRITE_REG32( &pdev->regs.DREGS->DOEPMSK, doepmsk.d32 );
 752:../Libraries/STM32_USB_OTG_Driver/src/usb_dcd_int.c **** #ifdef USB_OTG_HS_DEDICATED_EP1_ENABLED   
 753:../Libraries/STM32_USB_OTG_Driver/src/usb_dcd_int.c ****   USB_OTG_WRITE_REG32( &pdev->regs.DREGS->DOUTEP1MSK, doepmsk.d32 );
 754:../Libraries/STM32_USB_OTG_Driver/src/usb_dcd_int.c **** #endif
 755:../Libraries/STM32_USB_OTG_Driver/src/usb_dcd_int.c ****   diepmsk.b.xfercompl = 1;
 756:../Libraries/STM32_USB_OTG_Driver/src/usb_dcd_int.c ****   diepmsk.b.timeout = 1;
 757:../Libraries/STM32_USB_OTG_Driver/src/usb_dcd_int.c ****   diepmsk.b.epdisabled = 1;
 758:../Libraries/STM32_USB_OTG_Driver/src/usb_dcd_int.c **** 
 759:../Libraries/STM32_USB_OTG_Driver/src/usb_dcd_int.c ****   USB_OTG_WRITE_REG32( &pdev->regs.DREGS->DIEPMSK, diepmsk.d32 );
 760:../Libraries/STM32_USB_OTG_Driver/src/usb_dcd_int.c **** #ifdef USB_OTG_HS_DEDICATED_EP1_ENABLED  
 761:../Libraries/STM32_USB_OTG_Driver/src/usb_dcd_int.c ****   USB_OTG_WRITE_REG32( &pdev->regs.DREGS->DINEP1MSK, diepmsk.d32 );
 762:../Libraries/STM32_USB_OTG_Driver/src/usb_dcd_int.c **** #endif
 763:../Libraries/STM32_USB_OTG_Driver/src/usb_dcd_int.c ****   /* Reset Device Address */
 764:../Libraries/STM32_USB_OTG_Driver/src/usb_dcd_int.c ****   dcfg.d32 = USB_OTG_READ_REG32( &pdev->regs.DREGS->DCFG);
 765:../Libraries/STM32_USB_OTG_Driver/src/usb_dcd_int.c ****   dcfg.b.devaddr = 0;
 766:../Libraries/STM32_USB_OTG_Driver/src/usb_dcd_int.c ****   USB_OTG_WRITE_REG32( &pdev->regs.DREGS->DCFG, dcfg.d32);
 767:../Libraries/STM32_USB_OTG_Driver/src/usb_dcd_int.c ****   
 768:../Libraries/STM32_USB_OTG_Driver/src/usb_dcd_int.c ****   
 769:../Libraries/STM32_USB_OTG_Driver/src/usb_dcd_int.c ****   /* setup EP0 to receive SETUP packets */
 770:../Libraries/STM32_USB_OTG_Driver/src/usb_dcd_int.c ****   USB_OTG_EP0_OutStart(pdev);
 771:../Libraries/STM32_USB_OTG_Driver/src/usb_dcd_int.c ****   
 772:../Libraries/STM32_USB_OTG_Driver/src/usb_dcd_int.c ****   /* Clear interrupt */
 773:../Libraries/STM32_USB_OTG_Driver/src/usb_dcd_int.c ****   gintsts.d32 = 0;
 774:../Libraries/STM32_USB_OTG_Driver/src/usb_dcd_int.c ****   gintsts.b.usbreset = 1;
 775:../Libraries/STM32_USB_OTG_Driver/src/usb_dcd_int.c ****   USB_OTG_WRITE_REG32 (&pdev->regs.GREGS->GINTSTS, gintsts.d32);
 776:../Libraries/STM32_USB_OTG_Driver/src/usb_dcd_int.c ****   
 777:../Libraries/STM32_USB_OTG_Driver/src/usb_dcd_int.c ****   /*Reset internal state machine */
ARM GAS  C:\Users\admin\AppData\Local\Temp\ccpMiuah.s 			page 19


 778:../Libraries/STM32_USB_OTG_Driver/src/usb_dcd_int.c ****   USBD_DCD_INT_fops->Reset(pdev);
 779:../Libraries/STM32_USB_OTG_Driver/src/usb_dcd_int.c ****   return 1;
 780:../Libraries/STM32_USB_OTG_Driver/src/usb_dcd_int.c **** }
 781:../Libraries/STM32_USB_OTG_Driver/src/usb_dcd_int.c **** 
 782:../Libraries/STM32_USB_OTG_Driver/src/usb_dcd_int.c **** /**
 783:../Libraries/STM32_USB_OTG_Driver/src/usb_dcd_int.c **** * @brief  DCD_HandleEnumDone_ISR
 784:../Libraries/STM32_USB_OTG_Driver/src/usb_dcd_int.c **** *         Read the device status register and set the device speed
 785:../Libraries/STM32_USB_OTG_Driver/src/usb_dcd_int.c **** * @param  pdev: device instance
 786:../Libraries/STM32_USB_OTG_Driver/src/usb_dcd_int.c **** * @retval status
 787:../Libraries/STM32_USB_OTG_Driver/src/usb_dcd_int.c **** */
 788:../Libraries/STM32_USB_OTG_Driver/src/usb_dcd_int.c **** static uint32_t DCD_HandleEnumDone_ISR(USB_OTG_CORE_HANDLE *pdev)
 223              		.loc 1 788 17 view .LVU34
 224              	.LBB29:
 789:../Libraries/STM32_USB_OTG_Driver/src/usb_dcd_int.c **** {
 790:../Libraries/STM32_USB_OTG_Driver/src/usb_dcd_int.c ****   USB_OTG_GINTSTS_TypeDef  gintsts;
 225              		.loc 1 790 3 view .LVU35
 791:../Libraries/STM32_USB_OTG_Driver/src/usb_dcd_int.c ****   USB_OTG_GUSBCFG_TypeDef  gusbcfg;
 226              		.loc 1 791 3 view .LVU36
 792:../Libraries/STM32_USB_OTG_Driver/src/usb_dcd_int.c ****   
 793:../Libraries/STM32_USB_OTG_Driver/src/usb_dcd_int.c ****   USB_OTG_EP0Activate(pdev);
 227              		.loc 1 793 3 view .LVU37
 228 0052 2046     		mov	r0, r4	@, pdev
 229              	.LVL13:
 230              		.loc 1 793 3 is_stmt 0 view .LVU38
 231 0054 FFF7FEFF 		bl	USB_OTG_EP0Activate		@
 232              	.LVL14:
 794:../Libraries/STM32_USB_OTG_Driver/src/usb_dcd_int.c ****   
 795:../Libraries/STM32_USB_OTG_Driver/src/usb_dcd_int.c ****   /* Set USB turn-around time based on device speed and PHY interface. */
 796:../Libraries/STM32_USB_OTG_Driver/src/usb_dcd_int.c ****   gusbcfg.d32 = USB_OTG_READ_REG32(&pdev->regs.GREGS->GUSBCFG);
 233              		.loc 1 796 3 is_stmt 1 view .LVU39
 234              	@ ../Libraries/STM32_USB_OTG_Driver/src/usb_dcd_int.c:796:   gusbcfg.d32 = USB_OTG_READ_REG32(&pdev
 235              		.loc 1 796 17 is_stmt 0 view .LVU40
 236 0058 E368     		ldr	r3, [r4, #12]	@ _227, pdev_32(D)->regs.GREGS
 237              	@ ../Libraries/STM32_USB_OTG_Driver/src/usb_dcd_int.c:799:   if ( USB_OTG_GetDeviceSpeed(pdev) == U
 797:../Libraries/STM32_USB_OTG_Driver/src/usb_dcd_int.c ****   
 798:../Libraries/STM32_USB_OTG_Driver/src/usb_dcd_int.c ****   /* Full or High speed */
 799:../Libraries/STM32_USB_OTG_Driver/src/usb_dcd_int.c ****   if ( USB_OTG_GetDeviceSpeed(pdev) == USB_SPEED_HIGH)
 238              		.loc 1 799 8 view .LVU41
 239 005a 2046     		mov	r0, r4	@, pdev
 240              	@ ../Libraries/STM32_USB_OTG_Driver/src/usb_dcd_int.c:796:   gusbcfg.d32 = USB_OTG_READ_REG32(&pdev
 796:../Libraries/STM32_USB_OTG_Driver/src/usb_dcd_int.c ****   
 241              		.loc 1 796 17 view .LVU42
 242 005c DD68     		ldr	r5, [r3, #12]	@ gusbcfg, _227->GUSBCFG
 243              	.LVL15:
 244              		.loc 1 799 3 is_stmt 1 view .LVU43
 245              	@ ../Libraries/STM32_USB_OTG_Driver/src/usb_dcd_int.c:799:   if ( USB_OTG_GetDeviceSpeed(pdev) == U
 246              		.loc 1 799 8 is_stmt 0 view .LVU44
 247 005e FFF7FEFF 		bl	USB_OTG_GetDeviceSpeed		@
 248              	.LVL16:
 249              	@ ../Libraries/STM32_USB_OTG_Driver/src/usb_dcd_int.c:799:   if ( USB_OTG_GetDeviceSpeed(pdev) == U
 250              		.loc 1 799 6 view .LVU45
 251 0062 0328     		cmp	r0, #3	@ tmp595,
 252 0064 00F0EF81 		beq	.L130		@,
 800:../Libraries/STM32_USB_OTG_Driver/src/usb_dcd_int.c ****   {
 801:../Libraries/STM32_USB_OTG_Driver/src/usb_dcd_int.c ****     pdev->cfg.speed            = USB_OTG_SPEED_HIGH;
 802:../Libraries/STM32_USB_OTG_Driver/src/usb_dcd_int.c ****     pdev->cfg.mps              = USB_OTG_HS_MAX_PACKET_SIZE ;    
 803:../Libraries/STM32_USB_OTG_Driver/src/usb_dcd_int.c ****     gusbcfg.b.usbtrdtim = 9;
ARM GAS  C:\Users\admin\AppData\Local\Temp\ccpMiuah.s 			page 20


 804:../Libraries/STM32_USB_OTG_Driver/src/usb_dcd_int.c ****   }
 805:../Libraries/STM32_USB_OTG_Driver/src/usb_dcd_int.c ****   else
 806:../Libraries/STM32_USB_OTG_Driver/src/usb_dcd_int.c ****   {
 807:../Libraries/STM32_USB_OTG_Driver/src/usb_dcd_int.c ****     pdev->cfg.speed            = USB_OTG_SPEED_FULL;
 253              		.loc 1 807 5 is_stmt 1 view .LVU46
 254              	@ ../Libraries/STM32_USB_OTG_Driver/src/usb_dcd_int.c:807:     pdev->cfg.speed            = USB_OTG
 255              		.loc 1 807 32 is_stmt 0 view .LVU47
 256 0068 0121     		movs	r1, #1	@ tmp576,
 257              	@ ../Libraries/STM32_USB_OTG_Driver/src/usb_dcd_int.c:808:     pdev->cfg.mps              = USB_OTG
 808:../Libraries/STM32_USB_OTG_Driver/src/usb_dcd_int.c ****     pdev->cfg.mps              = USB_OTG_FS_MAX_PACKET_SIZE ;  
 258              		.loc 1 808 32 view .LVU48
 259 006a 4022     		movs	r2, #64	@ tmp579,
 260              	@ ../Libraries/STM32_USB_OTG_Driver/src/usb_dcd_int.c:809:     gusbcfg.b.usbtrdtim = 5;
 809:../Libraries/STM32_USB_OTG_Driver/src/usb_dcd_int.c ****     gusbcfg.b.usbtrdtim = 5;
 261              		.loc 1 809 25 view .LVU49
 262 006c 0523     		movs	r3, #5	@ tmp580,
 263              	@ ../Libraries/STM32_USB_OTG_Driver/src/usb_dcd_int.c:807:     pdev->cfg.speed            = USB_OTG
 807:../Libraries/STM32_USB_OTG_Driver/src/usb_dcd_int.c ****     pdev->cfg.mps              = USB_OTG_FS_MAX_PACKET_SIZE ;  
 264              		.loc 1 807 32 view .LVU50
 265 006e A170     		strb	r1, [r4, #2]	@ tmp576, pdev_32(D)->cfg.speed
 808:../Libraries/STM32_USB_OTG_Driver/src/usb_dcd_int.c ****     pdev->cfg.mps              = USB_OTG_FS_MAX_PACKET_SIZE ;  
 266              		.loc 1 808 5 is_stmt 1 view .LVU51
 267              	@ ../Libraries/STM32_USB_OTG_Driver/src/usb_dcd_int.c:808:     pdev->cfg.mps              = USB_OTG
 808:../Libraries/STM32_USB_OTG_Driver/src/usb_dcd_int.c ****     pdev->cfg.mps              = USB_OTG_FS_MAX_PACKET_SIZE ;  
 268              		.loc 1 808 32 is_stmt 0 view .LVU52
 269 0070 A280     		strh	r2, [r4, #4]	@ movhi	@ tmp579, pdev_32(D)->cfg.mps
 270              		.loc 1 809 5 is_stmt 1 view .LVU53
 271              	@ ../Libraries/STM32_USB_OTG_Driver/src/usb_dcd_int.c:809:     gusbcfg.b.usbtrdtim = 5;
 272              		.loc 1 809 25 is_stmt 0 view .LVU54
 273 0072 63F38D25 		bfi	r5, r3, #10, #4	@ gusbcfg, tmp580,,
 274              	.L38:
 810:../Libraries/STM32_USB_OTG_Driver/src/usb_dcd_int.c ****   }
 811:../Libraries/STM32_USB_OTG_Driver/src/usb_dcd_int.c ****   
 812:../Libraries/STM32_USB_OTG_Driver/src/usb_dcd_int.c ****   USB_OTG_WRITE_REG32(&pdev->regs.GREGS->GUSBCFG, gusbcfg.d32);
 275              		.loc 1 812 3 is_stmt 1 view .LVU55
 276 0076 E368     		ldr	r3, [r4, #12]	@ _230, pdev_32(D)->regs.GREGS
 277              	@ ../Libraries/STM32_USB_OTG_Driver/src/usb_dcd_int.c:817:   USB_OTG_WRITE_REG32( &pdev->regs.GREGS
 813:../Libraries/STM32_USB_OTG_Driver/src/usb_dcd_int.c ****   
 814:../Libraries/STM32_USB_OTG_Driver/src/usb_dcd_int.c ****   /* Clear interrupt */
 815:../Libraries/STM32_USB_OTG_Driver/src/usb_dcd_int.c ****   gintsts.d32 = 0;
 816:../Libraries/STM32_USB_OTG_Driver/src/usb_dcd_int.c ****   gintsts.b.enumdone = 1;
 817:../Libraries/STM32_USB_OTG_Driver/src/usb_dcd_int.c ****   USB_OTG_WRITE_REG32( &pdev->regs.GREGS->GINTSTS, gintsts.d32 );
 278              		.loc 1 817 3 is_stmt 0 view .LVU56
 279 0078 4FF40052 		mov	r2, #8192	@ tmp581,
 280              	.LBE29:
 281              	.LBE28:
 282              	@ ../Libraries/STM32_USB_OTG_Driver/src/usb_dcd_int.c:276:       retval |= DCD_HandleEnumDone_ISR(p
 276:../Libraries/STM32_USB_OTG_Driver/src/usb_dcd_int.c ****     }
 283              		.loc 1 276 14 view .LVU57
 284 007c 0120     		movs	r0, #1	@ <retval>,
 285              	.LBB32:
 286              	.LBB30:
 287              	@ ../Libraries/STM32_USB_OTG_Driver/src/usb_dcd_int.c:812:   USB_OTG_WRITE_REG32(&pdev->regs.GREGS-
 812:../Libraries/STM32_USB_OTG_Driver/src/usb_dcd_int.c ****   
 288              		.loc 1 812 3 view .LVU58
 289 007e DD60     		str	r5, [r3, #12]	@ gusbcfg, _230->GUSBCFG
 815:../Libraries/STM32_USB_OTG_Driver/src/usb_dcd_int.c ****   gintsts.b.enumdone = 1;
ARM GAS  C:\Users\admin\AppData\Local\Temp\ccpMiuah.s 			page 21


 290              		.loc 1 815 3 is_stmt 1 view .LVU59
 816:../Libraries/STM32_USB_OTG_Driver/src/usb_dcd_int.c ****   USB_OTG_WRITE_REG32( &pdev->regs.GREGS->GINTSTS, gintsts.d32 );
 291              		.loc 1 816 3 view .LVU60
 292              		.loc 1 817 3 view .LVU61
 293 0080 5A61     		str	r2, [r3, #20]	@ tmp581, _230->GINTSTS
 818:../Libraries/STM32_USB_OTG_Driver/src/usb_dcd_int.c ****   return 1;
 294              		.loc 1 818 3 view .LVU62
 295              	.LVL17:
 296              		.loc 1 818 3 is_stmt 0 view .LVU63
 297              	.LBE30:
 298              	.LBE32:
 299              	@ ../Libraries/STM32_USB_OTG_Driver/src/usb_dcd_int.c:303: }
 303:../Libraries/STM32_USB_OTG_Driver/src/usb_dcd_int.c **** 
 300              		.loc 1 303 1 view .LVU64
 301 0082 05B0     		add	sp, sp, #20	@,,
 302              		.cfi_remember_state
 303              		.cfi_def_cfa_offset 36
 304              		@ sp needed	@
 305 0084 BDE8F08F 		pop	{r4, r5, r6, r7, r8, r9, r10, fp, pc}	@
 306              	.LVL18:
 307              	.L127:
 308              		.cfi_restore_state
 259:../Libraries/STM32_USB_OTG_Driver/src/usb_dcd_int.c **** 
 309              		.loc 1 259 7 is_stmt 1 view .LVU65
 310              	.LBB33:
 311              	.LBI33:
 581:../Libraries/STM32_USB_OTG_Driver/src/usb_dcd_int.c **** {
 312              		.loc 1 581 17 view .LVU66
 313              	.LBB34:
 583:../Libraries/STM32_USB_OTG_Driver/src/usb_dcd_int.c ****   
 314              		.loc 1 583 3 view .LVU67
 586:../Libraries/STM32_USB_OTG_Driver/src/usb_dcd_int.c **** 
 315              		.loc 1 586 3 view .LVU68
 316              	@ ../Libraries/STM32_USB_OTG_Driver/src/usb_dcd_int.c:586:   USBD_DCD_INT_fops->SOF(pdev);
 586:../Libraries/STM32_USB_OTG_Driver/src/usb_dcd_int.c **** 
 317              		.loc 1 586 20 is_stmt 0 view .LVU69
 318 0088 9C4B     		ldr	r3, .L135	@ tmp453,
 319 008a 1B68     		ldr	r3, [r3]	@ USBD_DCD_INT_fops, USBD_DCD_INT_fops
 320              	@ ../Libraries/STM32_USB_OTG_Driver/src/usb_dcd_int.c:586:   USBD_DCD_INT_fops->SOF(pdev);
 586:../Libraries/STM32_USB_OTG_Driver/src/usb_dcd_int.c **** 
 321              		.loc 1 586 3 view .LVU70
 322 008c 2046     		mov	r0, r4	@, pdev
 323              	.LVL19:
 586:../Libraries/STM32_USB_OTG_Driver/src/usb_dcd_int.c **** 
 324              		.loc 1 586 3 view .LVU71
 325 008e DB68     		ldr	r3, [r3, #12]	@ USBD_DCD_INT_fops.6_56->SOF, USBD_DCD_INT_fops.6_56->SOF
 326 0090 9847     		blx	r3		@ USBD_DCD_INT_fops.6_56->SOF
 327              	.LVL20:
 589:../Libraries/STM32_USB_OTG_Driver/src/usb_dcd_int.c ****   GINTSTS.b.sofintr = 1;
 328              		.loc 1 589 3 is_stmt 1 view .LVU72
 590:../Libraries/STM32_USB_OTG_Driver/src/usb_dcd_int.c ****   USB_OTG_WRITE_REG32 (&pdev->regs.GREGS->GINTSTS, GINTSTS.d32);
 329              		.loc 1 590 3 view .LVU73
 591:../Libraries/STM32_USB_OTG_Driver/src/usb_dcd_int.c ****   
 330              		.loc 1 591 3 view .LVU74
 331 0092 E368     		ldr	r3, [r4, #12]	@ _58, pdev_32(D)->regs.GREGS
 332 0094 0822     		movs	r2, #8	@ tmp455,
 333              	.LBE34:
ARM GAS  C:\Users\admin\AppData\Local\Temp\ccpMiuah.s 			page 22


 334              	.LBE33:
 335              	@ ../Libraries/STM32_USB_OTG_Driver/src/usb_dcd_int.c:263:     if (gintr_status.b.rxstsqlvl)
 263:../Libraries/STM32_USB_OTG_Driver/src/usb_dcd_int.c ****     {
 336              		.loc 1 263 8 is_stmt 0 view .LVU75
 337 0096 E906     		lsls	r1, r5, #27	@, _9,
 338              	.LBB36:
 339              	.LBB35:
 340              	@ ../Libraries/STM32_USB_OTG_Driver/src/usb_dcd_int.c:591:   USB_OTG_WRITE_REG32 (&pdev->regs.GREGS
 591:../Libraries/STM32_USB_OTG_Driver/src/usb_dcd_int.c ****   
 341              		.loc 1 591 3 view .LVU76
 342 0098 5A61     		str	r2, [r3, #20]	@ tmp455, _58->GINTSTS
 593:../Libraries/STM32_USB_OTG_Driver/src/usb_dcd_int.c **** }
 343              		.loc 1 593 3 is_stmt 1 view .LVU77
 344              	.LVL21:
 593:../Libraries/STM32_USB_OTG_Driver/src/usb_dcd_int.c **** }
 345              		.loc 1 593 3 is_stmt 0 view .LVU78
 346              	.LBE35:
 347              	.LBE36:
 348              	@ ../Libraries/STM32_USB_OTG_Driver/src/usb_dcd_int.c:259:       retval |= DCD_HandleSof_ISR(pdev);
 259:../Libraries/STM32_USB_OTG_Driver/src/usb_dcd_int.c **** 
 349              		.loc 1 259 14 view .LVU79
 350 009a 4FF00100 		mov	r0, #1	@ <retval>,
 351              	.LVL22:
 263:../Libraries/STM32_USB_OTG_Driver/src/usb_dcd_int.c ****     {
 352              		.loc 1 263 5 is_stmt 1 view .LVU80
 353              	@ ../Libraries/STM32_USB_OTG_Driver/src/usb_dcd_int.c:263:     if (gintr_status.b.rxstsqlvl)
 263:../Libraries/STM32_USB_OTG_Driver/src/usb_dcd_int.c ****     {
 354              		.loc 1 263 8 is_stmt 0 view .LVU81
 355 009e D4D5     		bpl	.L30		@,
 356              	.L128:
 265:../Libraries/STM32_USB_OTG_Driver/src/usb_dcd_int.c ****       
 357              		.loc 1 265 7 is_stmt 1 view .LVU82
 358              	.LVL23:
 359              	.LBB37:
 360              	.LBI37:
 602:../Libraries/STM32_USB_OTG_Driver/src/usb_dcd_int.c **** {
 361              		.loc 1 602 17 view .LVU83
 362              	.LBB38:
 604:../Libraries/STM32_USB_OTG_Driver/src/usb_dcd_int.c ****   USB_OTG_DRXSTS_TypeDef   status;
 363              		.loc 1 604 3 view .LVU84
 605:../Libraries/STM32_USB_OTG_Driver/src/usb_dcd_int.c ****   USB_OTG_EP *ep;
 364              		.loc 1 605 3 view .LVU85
 606:../Libraries/STM32_USB_OTG_Driver/src/usb_dcd_int.c ****   
 365              		.loc 1 606 3 view .LVU86
 609:../Libraries/STM32_USB_OTG_Driver/src/usb_dcd_int.c ****   int_mask.b.rxstsqlvl = 1;
 366              		.loc 1 609 3 view .LVU87
 610:../Libraries/STM32_USB_OTG_Driver/src/usb_dcd_int.c ****   USB_OTG_MODIFY_REG32( &pdev->regs.GREGS->GINTMSK, int_mask.d32, 0);
 367              		.loc 1 610 3 view .LVU88
 611:../Libraries/STM32_USB_OTG_Driver/src/usb_dcd_int.c ****   
 368              		.loc 1 611 3 view .LVU89
 369 00a0 E168     		ldr	r1, [r4, #12]	@ _185, pdev_32(D)->regs.GREGS
 370 00a2 8B69     		ldr	r3, [r1, #24]	@ _186, _185->GINTMSK
 371 00a4 23F01003 		bic	r3, r3, #16	@ _187, _186,
 372 00a8 8B61     		str	r3, [r1, #24]	@ _187, _185->GINTMSK
 614:../Libraries/STM32_USB_OTG_Driver/src/usb_dcd_int.c ****   
 373              		.loc 1 614 3 view .LVU90
 374              	@ ../Libraries/STM32_USB_OTG_Driver/src/usb_dcd_int.c:614:   status.d32 = USB_OTG_READ_REG32( &pdev
ARM GAS  C:\Users\admin\AppData\Local\Temp\ccpMiuah.s 			page 23


 614:../Libraries/STM32_USB_OTG_Driver/src/usb_dcd_int.c ****   
 375              		.loc 1 614 16 is_stmt 0 view .LVU91
 376 00aa 0E6A     		ldr	r6, [r1, #32]	@ _188, _185->GRXSTSP
 616:../Libraries/STM32_USB_OTG_Driver/src/usb_dcd_int.c ****   
 377              		.loc 1 616 3 is_stmt 1 view .LVU92
 378              	@ ../Libraries/STM32_USB_OTG_Driver/src/usb_dcd_int.c:618:   switch (status.b.pktsts)
 618:../Libraries/STM32_USB_OTG_Driver/src/usb_dcd_int.c ****   {
 379              		.loc 1 618 19 is_stmt 0 view .LVU93
 380 00ac C6F34342 		ubfx	r2, r6, #17, #4	@ _191, _188,,
 381              	@ ../Libraries/STM32_USB_OTG_Driver/src/usb_dcd_int.c:618:   switch (status.b.pktsts)
 618:../Libraries/STM32_USB_OTG_Driver/src/usb_dcd_int.c ****   {
 382              		.loc 1 618 3 view .LVU94
 383 00b0 022A     		cmp	r2, #2	@ _191,
 384              	@ ../Libraries/STM32_USB_OTG_Driver/src/usb_dcd_int.c:616:   ep = &pdev->dev.out_ep[status.b.epnum]
 616:../Libraries/STM32_USB_OTG_Driver/src/usb_dcd_int.c ****   
 385              		.loc 1 616 34 view .LVU95
 386 00b2 06F00F05 		and	r5, r6, #15	@ _190, _188,
 387              	.LVL24:
 618:../Libraries/STM32_USB_OTG_Driver/src/usb_dcd_int.c ****   {
 388              		.loc 1 618 3 is_stmt 1 view .LVU96
 389 00b6 00F0CF81 		beq	.L31		@,
 390 00ba 062A     		cmp	r2, #6	@ _191,
 391 00bc 11D1     		bne	.L33		@,
 636:../Libraries/STM32_USB_OTG_Driver/src/usb_dcd_int.c ****     ep->xfer_count += status.b.bcnt;
 392              		.loc 1 636 5 view .LVU97
 393              	@ ../Libraries/STM32_USB_OTG_Driver/src/usb_dcd_int.c:637:     ep->xfer_count += status.b.bcnt;
 637:../Libraries/STM32_USB_OTG_Driver/src/usb_dcd_int.c ****     break;
 394              		.loc 1 637 20 is_stmt 0 view .LVU98
 395 00be 05EB8505 		add	r5, r5, r5, lsl #2	@ tmp506, _190, _190,
 396              	.LVL25:
 637:../Libraries/STM32_USB_OTG_Driver/src/usb_dcd_int.c ****     break;
 397              		.loc 1 637 20 view .LVU99
 398 00c2 04EBC505 		add	r5, r4, r5, lsl #3	@ tmp508, pdev, tmp506,
 399              	@ ../Libraries/STM32_USB_OTG_Driver/src/usb_dcd_int.c:636:     USB_OTG_ReadPacket(pdev , pdev->dev.
 636:../Libraries/STM32_USB_OTG_Driver/src/usb_dcd_int.c ****     ep->xfer_count += status.b.bcnt;
 400              		.loc 1 636 5 view .LVU100
 401 00c6 0822     		movs	r2, #8	@,
 402 00c8 04F2CC51 		addw	r1, r4, #1484	@, pdev,
 403 00cc 2046     		mov	r0, r4	@, pdev
 404              	.LVL26:
 636:../Libraries/STM32_USB_OTG_Driver/src/usb_dcd_int.c ****     ep->xfer_count += status.b.bcnt;
 405              		.loc 1 636 5 view .LVU101
 406 00ce FFF7FEFF 		bl	USB_OTG_ReadPacket		@
 407              	.LVL27:
 637:../Libraries/STM32_USB_OTG_Driver/src/usb_dcd_int.c ****     break;
 408              		.loc 1 637 5 is_stmt 1 view .LVU102
 409              	@ ../Libraries/STM32_USB_OTG_Driver/src/usb_dcd_int.c:637:     ep->xfer_count += status.b.bcnt;
 637:../Libraries/STM32_USB_OTG_Driver/src/usb_dcd_int.c ****     break;
 410              		.loc 1 637 20 is_stmt 0 view .LVU103
 411 00d2 D5F88C23 		ldr	r2, [r5, #908]	@ MEM <struct USB_OTG_CORE_HANDLE> [(struct USB_OTG_EP *)pdev_32(D)].dev.out_ep
 412              	@ ../Libraries/STM32_USB_OTG_Driver/src/usb_dcd_int.c:644:   USB_OTG_MODIFY_REG32( &pdev->regs.GREG
 644:../Libraries/STM32_USB_OTG_Driver/src/usb_dcd_int.c ****   
 413              		.loc 1 644 3 view .LVU104
 414 00d6 E168     		ldr	r1, [r4, #12]	@ _185, pdev_32(D)->regs.GREGS
 415              	@ ../Libraries/STM32_USB_OTG_Driver/src/usb_dcd_int.c:637:     ep->xfer_count += status.b.bcnt;
 637:../Libraries/STM32_USB_OTG_Driver/src/usb_dcd_int.c ****     break;
 416              		.loc 1 637 31 view .LVU105
ARM GAS  C:\Users\admin\AppData\Local\Temp\ccpMiuah.s 			page 24


 417 00d8 C6F30A13 		ubfx	r3, r6, #4, #11	@ tmp517, _188,,
 418              	@ ../Libraries/STM32_USB_OTG_Driver/src/usb_dcd_int.c:637:     ep->xfer_count += status.b.bcnt;
 637:../Libraries/STM32_USB_OTG_Driver/src/usb_dcd_int.c ****     break;
 419              		.loc 1 637 20 view .LVU106
 420 00dc 1344     		add	r3, r3, r2	@ tmp518, MEM <struct USB_OTG_CORE_HANDLE> [(struct USB_OTG_EP *)pdev_32(D)].dev.ou
 421 00de C5F88C33 		str	r3, [r5, #908]	@ tmp518, MEM <struct USB_OTG_CORE_HANDLE> [(struct USB_OTG_EP *)pdev_32(D)].de
 638:../Libraries/STM32_USB_OTG_Driver/src/usb_dcd_int.c ****   default:
 422              		.loc 1 638 5 is_stmt 1 view .LVU107
 423              	.LVL28:
 424              	.L33:
 644:../Libraries/STM32_USB_OTG_Driver/src/usb_dcd_int.c ****   
 425              		.loc 1 644 3 view .LVU108
 426 00e2 8B69     		ldr	r3, [r1, #24]	@ _208, prephitmp_365->GINTMSK
 427              	.LBE38:
 428              	.LBE37:
 429              	@ ../Libraries/STM32_USB_OTG_Driver/src/usb_dcd_int.c:269:     if (gintr_status.b.usbreset)
 269:../Libraries/STM32_USB_OTG_Driver/src/usb_dcd_int.c ****     {
 430              		.loc 1 269 8 is_stmt 0 view .LVU109
 431 00e4 FA06     		lsls	r2, r7, #27	@, _7,
 432              	.LBB42:
 433              	.LBB39:
 434              	@ ../Libraries/STM32_USB_OTG_Driver/src/usb_dcd_int.c:644:   USB_OTG_MODIFY_REG32( &pdev->regs.GREG
 644:../Libraries/STM32_USB_OTG_Driver/src/usb_dcd_int.c ****   
 435              		.loc 1 644 3 view .LVU110
 436 00e6 43F01003 		orr	r3, r3, #16	@ _209, _208,
 437              	.LBE39:
 438              	.LBE42:
 439              	@ ../Libraries/STM32_USB_OTG_Driver/src/usb_dcd_int.c:265:       retval |= DCD_HandleRxStatusQueueL
 265:../Libraries/STM32_USB_OTG_Driver/src/usb_dcd_int.c ****       
 440              		.loc 1 265 14 view .LVU111
 441 00ea 4FF00100 		mov	r0, #1	@ <retval>,
 442              	.LBB43:
 443              	.LBB40:
 444              	@ ../Libraries/STM32_USB_OTG_Driver/src/usb_dcd_int.c:644:   USB_OTG_MODIFY_REG32( &pdev->regs.GREG
 644:../Libraries/STM32_USB_OTG_Driver/src/usb_dcd_int.c ****   
 445              		.loc 1 644 3 view .LVU112
 446 00ee 8B61     		str	r3, [r1, #24]	@ _209, prephitmp_365->GINTMSK
 646:../Libraries/STM32_USB_OTG_Driver/src/usb_dcd_int.c **** }
 447              		.loc 1 646 3 is_stmt 1 view .LVU113
 448              	.LVL29:
 646:../Libraries/STM32_USB_OTG_Driver/src/usb_dcd_int.c **** }
 449              		.loc 1 646 3 is_stmt 0 view .LVU114
 450              	.LBE40:
 451              	.LBE43:
 269:../Libraries/STM32_USB_OTG_Driver/src/usb_dcd_int.c ****     {
 452              		.loc 1 269 5 is_stmt 1 view .LVU115
 453              	@ ../Libraries/STM32_USB_OTG_Driver/src/usb_dcd_int.c:269:     if (gintr_status.b.usbreset)
 269:../Libraries/STM32_USB_OTG_Driver/src/usb_dcd_int.c ****     {
 454              		.loc 1 269 8 is_stmt 0 view .LVU116
 455 00f0 ADD5     		bpl	.L34		@,
 456              	.L129:
 271:../Libraries/STM32_USB_OTG_Driver/src/usb_dcd_int.c ****       
 457              		.loc 1 271 7 is_stmt 1 view .LVU117
 458              	.LVL30:
 459              	.LBB44:
 460              	.LBI44:
 713:../Libraries/STM32_USB_OTG_Driver/src/usb_dcd_int.c **** {
ARM GAS  C:\Users\admin\AppData\Local\Temp\ccpMiuah.s 			page 25


 461              		.loc 1 713 17 view .LVU118
 462              	.LBB45:
 715:../Libraries/STM32_USB_OTG_Driver/src/usb_dcd_int.c ****   USB_OTG_DOEPMSK_TypeDef  doepmsk;
 463              		.loc 1 715 3 view .LVU119
 716:../Libraries/STM32_USB_OTG_Driver/src/usb_dcd_int.c ****   USB_OTG_DIEPMSK_TypeDef  diepmsk;
 464              		.loc 1 716 3 view .LVU120
 717:../Libraries/STM32_USB_OTG_Driver/src/usb_dcd_int.c ****   USB_OTG_DCFG_TypeDef     dcfg;
 465              		.loc 1 717 3 view .LVU121
 718:../Libraries/STM32_USB_OTG_Driver/src/usb_dcd_int.c ****   USB_OTG_DCTL_TypeDef     dctl;
 466              		.loc 1 718 3 view .LVU122
 719:../Libraries/STM32_USB_OTG_Driver/src/usb_dcd_int.c ****   USB_OTG_GINTSTS_TypeDef  gintsts;
 467              		.loc 1 719 3 view .LVU123
 720:../Libraries/STM32_USB_OTG_Driver/src/usb_dcd_int.c ****   uint32_t i;
 468              		.loc 1 720 3 view .LVU124
 721:../Libraries/STM32_USB_OTG_Driver/src/usb_dcd_int.c ****   
 469              		.loc 1 721 3 view .LVU125
 723:../Libraries/STM32_USB_OTG_Driver/src/usb_dcd_int.c ****   daintmsk.d32 = 0;
 470              		.loc 1 723 3 view .LVU126
 724:../Libraries/STM32_USB_OTG_Driver/src/usb_dcd_int.c ****   doepmsk.d32 = 0;
 471              		.loc 1 724 3 view .LVU127
 725:../Libraries/STM32_USB_OTG_Driver/src/usb_dcd_int.c ****   diepmsk.d32 = 0;
 472              		.loc 1 725 3 view .LVU128
 473              	@ ../Libraries/STM32_USB_OTG_Driver/src/usb_dcd_int.c:732:   USB_OTG_MODIFY_REG32(&pdev->regs.DREGS
 732:../Libraries/STM32_USB_OTG_Driver/src/usb_dcd_int.c ****   
 474              		.loc 1 732 3 is_stmt 0 view .LVU129
 475 00f2 2269     		ldr	r2, [r4, #16]	@ _210, pdev_32(D)->regs.DREGS
 476 00f4 5368     		ldr	r3, [r2, #4]	@ _211, _210->DCTL
 477              	@ ../Libraries/STM32_USB_OTG_Driver/src/usb_dcd_int.c:725:   doepmsk.d32 = 0;
 725:../Libraries/STM32_USB_OTG_Driver/src/usb_dcd_int.c ****   diepmsk.d32 = 0;
 478              		.loc 1 725 15 view .LVU130
 479 00f6 0025     		movs	r5, #0	@ doepmsk,
 726:../Libraries/STM32_USB_OTG_Driver/src/usb_dcd_int.c ****   dcfg.d32 = 0;
 480              		.loc 1 726 3 is_stmt 1 view .LVU131
 481              	@ ../Libraries/STM32_USB_OTG_Driver/src/usb_dcd_int.c:732:   USB_OTG_MODIFY_REG32(&pdev->regs.DREGS
 732:../Libraries/STM32_USB_OTG_Driver/src/usb_dcd_int.c ****   
 482              		.loc 1 732 3 is_stmt 0 view .LVU132
 483 00f8 23F00103 		bic	r3, r3, #1	@ _212, _211,
 484 00fc 5360     		str	r3, [r2, #4]	@ _212, _210->DCTL
 485              	.LVL31:
 486              	@ ../Libraries/STM32_USB_OTG_Driver/src/usb_dcd_int.c:735:   USB_OTG_FlushTxFifo(pdev ,  0 );
 735:../Libraries/STM32_USB_OTG_Driver/src/usb_dcd_int.c ****   
 487              		.loc 1 735 3 view .LVU133
 488 00fe 2946     		mov	r1, r5	@, doepmsk
 489 0100 2046     		mov	r0, r4	@, pdev
 490              	.LVL32:
 735:../Libraries/STM32_USB_OTG_Driver/src/usb_dcd_int.c ****   
 491              		.loc 1 735 3 view .LVU134
 492 0102 FFF7FEFF 		bl	USB_OTG_FlushTxFifo		@
 493              	.LVL33:
 494              	@ ../Libraries/STM32_USB_OTG_Driver/src/usb_dcd_int.c:737:   for (i = 0; i < pdev->cfg.dev_endpoint
 737:../Libraries/STM32_USB_OTG_Driver/src/usb_dcd_int.c ****   {
 495              		.loc 1 737 28 view .LVU135
 496 0106 6278     		ldrb	r2, [r4, #1]	@ zero_extendqisi2	@ _361, pdev_32(D)->cfg.dev_endpoints
 497              	@ ../Libraries/STM32_USB_OTG_Driver/src/usb_dcd_int.c:726:   diepmsk.d32 = 0;
 726:../Libraries/STM32_USB_OTG_Driver/src/usb_dcd_int.c ****   dcfg.d32 = 0;
 498              		.loc 1 726 15 view .LVU136
 499 0108 2E46     		mov	r6, r5	@ diepmsk, doepmsk
ARM GAS  C:\Users\admin\AppData\Local\Temp\ccpMiuah.s 			page 26


 727:../Libraries/STM32_USB_OTG_Driver/src/usb_dcd_int.c ****   gintsts.d32 = 0;
 500              		.loc 1 727 3 is_stmt 1 view .LVU137
 728:../Libraries/STM32_USB_OTG_Driver/src/usb_dcd_int.c ****   
 501              		.loc 1 728 3 view .LVU138
 731:../Libraries/STM32_USB_OTG_Driver/src/usb_dcd_int.c ****   USB_OTG_MODIFY_REG32(&pdev->regs.DREGS->DCTL, dctl.d32, 0 );
 502              		.loc 1 731 3 view .LVU139
 732:../Libraries/STM32_USB_OTG_Driver/src/usb_dcd_int.c ****   
 503              		.loc 1 732 3 view .LVU140
 735:../Libraries/STM32_USB_OTG_Driver/src/usb_dcd_int.c ****   
 504              		.loc 1 735 3 view .LVU141
 737:../Libraries/STM32_USB_OTG_Driver/src/usb_dcd_int.c ****   {
 505              		.loc 1 737 3 view .LVU142
 506              	.LVL34:
 737:../Libraries/STM32_USB_OTG_Driver/src/usb_dcd_int.c ****   {
 507              		.loc 1 737 15 view .LVU143
 508              	@ ../Libraries/STM32_USB_OTG_Driver/src/usb_dcd_int.c:737:   for (i = 0; i < pdev->cfg.dev_endpoint
 737:../Libraries/STM32_USB_OTG_Driver/src/usb_dcd_int.c ****   {
 509              		.loc 1 737 3 is_stmt 0 view .LVU144
 510 010a 002A     		cmp	r2, #0	@ _361
 511 010c 5DD0     		beq	.L36	@
 739:../Libraries/STM32_USB_OTG_Driver/src/usb_dcd_int.c ****     USB_OTG_WRITE_REG32( &pdev->regs.OUTEP_REGS[i]->DOEPINT, 0xFF);
 512              		.loc 1 739 5 is_stmt 1 view .LVU145
 513 010e A069     		ldr	r0, [r4, #24]	@ _251, MEM <struct USB_OTG_INEPREGS *> [(struct USB_OTG_CORE_HANDLE *)pdev_32(D
 514              	@ ../Libraries/STM32_USB_OTG_Driver/src/usb_dcd_int.c:740:     USB_OTG_WRITE_REG32( &pdev->regs.OUT
 740:../Libraries/STM32_USB_OTG_Driver/src/usb_dcd_int.c ****   }
 515              		.loc 1 740 5 is_stmt 0 view .LVU146
 516 0110 616D     		ldr	r1, [r4, #84]	@ _259, MEM <struct USB_OTG_OUTEPREGS *> [(struct USB_OTG_CORE_HANDLE *)pdev_32(
 517              	@ ../Libraries/STM32_USB_OTG_Driver/src/usb_dcd_int.c:739:     USB_OTG_WRITE_REG32( &pdev->regs.INE
 739:../Libraries/STM32_USB_OTG_Driver/src/usb_dcd_int.c ****     USB_OTG_WRITE_REG32( &pdev->regs.OUTEP_REGS[i]->DOEPINT, 0xFF);
 518              		.loc 1 739 5 view .LVU147
 519 0112 FF23     		movs	r3, #255	@ tmp537,
 520              	@ ../Libraries/STM32_USB_OTG_Driver/src/usb_dcd_int.c:737:   for (i = 0; i < pdev->cfg.dev_endpoint
 737:../Libraries/STM32_USB_OTG_Driver/src/usb_dcd_int.c ****   {
 521              		.loc 1 737 3 view .LVU148
 522 0114 012A     		cmp	r2, #1	@ _361,
 523              	@ ../Libraries/STM32_USB_OTG_Driver/src/usb_dcd_int.c:739:     USB_OTG_WRITE_REG32( &pdev->regs.INE
 739:../Libraries/STM32_USB_OTG_Driver/src/usb_dcd_int.c ****     USB_OTG_WRITE_REG32( &pdev->regs.OUTEP_REGS[i]->DOEPINT, 0xFF);
 524              		.loc 1 739 5 view .LVU149
 525 0116 8360     		str	r3, [r0, #8]	@ tmp537, _251->DIEPINT
 740:../Libraries/STM32_USB_OTG_Driver/src/usb_dcd_int.c ****   }
 526              		.loc 1 740 5 is_stmt 1 view .LVU150
 527 0118 8B60     		str	r3, [r1, #8]	@ tmp537, _259->DOEPINT
 737:../Libraries/STM32_USB_OTG_Driver/src/usb_dcd_int.c ****   {
 528              		.loc 1 737 45 view .LVU151
 529              	.LVL35:
 737:../Libraries/STM32_USB_OTG_Driver/src/usb_dcd_int.c ****   {
 530              		.loc 1 737 15 view .LVU152
 531              	@ ../Libraries/STM32_USB_OTG_Driver/src/usb_dcd_int.c:737:   for (i = 0; i < pdev->cfg.dev_endpoint
 737:../Libraries/STM32_USB_OTG_Driver/src/usb_dcd_int.c ****   {
 532              		.loc 1 737 3 is_stmt 0 view .LVU153
 533 011a 56D0     		beq	.L36		@,
 739:../Libraries/STM32_USB_OTG_Driver/src/usb_dcd_int.c ****     USB_OTG_WRITE_REG32( &pdev->regs.OUTEP_REGS[i]->DOEPINT, 0xFF);
 534              		.loc 1 739 5 is_stmt 1 view .LVU154
 535 011c E169     		ldr	r1, [r4, #28]	@ _359, MEM <struct USB_OTG_INEPREGS *> [(struct USB_OTG_CORE_HANDLE *)pdev_32(D
 536 011e 8B60     		str	r3, [r1, #8]	@ tmp537, _359->DIEPINT
 740:../Libraries/STM32_USB_OTG_Driver/src/usb_dcd_int.c ****   }
 537              		.loc 1 740 5 view .LVU155
ARM GAS  C:\Users\admin\AppData\Local\Temp\ccpMiuah.s 			page 27


 538 0120 A16D     		ldr	r1, [r4, #88]	@ _351, MEM <struct USB_OTG_OUTEPREGS *> [(struct USB_OTG_CORE_HANDLE *)pdev_32(
 539              	@ ../Libraries/STM32_USB_OTG_Driver/src/usb_dcd_int.c:737:   for (i = 0; i < pdev->cfg.dev_endpoint
 737:../Libraries/STM32_USB_OTG_Driver/src/usb_dcd_int.c ****   {
 540              		.loc 1 737 3 is_stmt 0 view .LVU156
 541 0122 022A     		cmp	r2, #2	@ _361,
 542              	@ ../Libraries/STM32_USB_OTG_Driver/src/usb_dcd_int.c:740:     USB_OTG_WRITE_REG32( &pdev->regs.OUT
 740:../Libraries/STM32_USB_OTG_Driver/src/usb_dcd_int.c ****   }
 543              		.loc 1 740 5 view .LVU157
 544 0124 8B60     		str	r3, [r1, #8]	@ tmp537, _351->DOEPINT
 737:../Libraries/STM32_USB_OTG_Driver/src/usb_dcd_int.c ****   {
 545              		.loc 1 737 45 is_stmt 1 view .LVU158
 546              	.LVL36:
 737:../Libraries/STM32_USB_OTG_Driver/src/usb_dcd_int.c ****   {
 547              		.loc 1 737 15 view .LVU159
 548              	@ ../Libraries/STM32_USB_OTG_Driver/src/usb_dcd_int.c:737:   for (i = 0; i < pdev->cfg.dev_endpoint
 737:../Libraries/STM32_USB_OTG_Driver/src/usb_dcd_int.c ****   {
 549              		.loc 1 737 3 is_stmt 0 view .LVU160
 550 0126 50D0     		beq	.L36		@,
 739:../Libraries/STM32_USB_OTG_Driver/src/usb_dcd_int.c ****     USB_OTG_WRITE_REG32( &pdev->regs.OUTEP_REGS[i]->DOEPINT, 0xFF);
 551              		.loc 1 739 5 is_stmt 1 view .LVU161
 552 0128 216A     		ldr	r1, [r4, #32]	@ _344, MEM <struct USB_OTG_INEPREGS *> [(struct USB_OTG_CORE_HANDLE *)pdev_32(D
 553 012a 8B60     		str	r3, [r1, #8]	@ tmp537, _344->DIEPINT
 740:../Libraries/STM32_USB_OTG_Driver/src/usb_dcd_int.c ****   }
 554              		.loc 1 740 5 view .LVU162
 555 012c E16D     		ldr	r1, [r4, #92]	@ _303, MEM <struct USB_OTG_OUTEPREGS *> [(struct USB_OTG_CORE_HANDLE *)pdev_32(
 556              	@ ../Libraries/STM32_USB_OTG_Driver/src/usb_dcd_int.c:737:   for (i = 0; i < pdev->cfg.dev_endpoint
 737:../Libraries/STM32_USB_OTG_Driver/src/usb_dcd_int.c ****   {
 557              		.loc 1 737 3 is_stmt 0 view .LVU163
 558 012e 032A     		cmp	r2, #3	@ _361,
 559              	@ ../Libraries/STM32_USB_OTG_Driver/src/usb_dcd_int.c:740:     USB_OTG_WRITE_REG32( &pdev->regs.OUT
 740:../Libraries/STM32_USB_OTG_Driver/src/usb_dcd_int.c ****   }
 560              		.loc 1 740 5 view .LVU164
 561 0130 8B60     		str	r3, [r1, #8]	@ tmp537, _303->DOEPINT
 737:../Libraries/STM32_USB_OTG_Driver/src/usb_dcd_int.c ****   {
 562              		.loc 1 737 45 is_stmt 1 view .LVU165
 563              	.LVL37:
 737:../Libraries/STM32_USB_OTG_Driver/src/usb_dcd_int.c ****   {
 564              		.loc 1 737 15 view .LVU166
 565              	@ ../Libraries/STM32_USB_OTG_Driver/src/usb_dcd_int.c:737:   for (i = 0; i < pdev->cfg.dev_endpoint
 737:../Libraries/STM32_USB_OTG_Driver/src/usb_dcd_int.c ****   {
 566              		.loc 1 737 3 is_stmt 0 view .LVU167
 567 0132 4AD0     		beq	.L36		@,
 739:../Libraries/STM32_USB_OTG_Driver/src/usb_dcd_int.c ****     USB_OTG_WRITE_REG32( &pdev->regs.OUTEP_REGS[i]->DOEPINT, 0xFF);
 568              		.loc 1 739 5 is_stmt 1 view .LVU168
 569 0134 616A     		ldr	r1, [r4, #36]	@ _236, MEM <struct USB_OTG_INEPREGS *> [(struct USB_OTG_CORE_HANDLE *)pdev_32(D
 570 0136 8B60     		str	r3, [r1, #8]	@ tmp537, _236->DIEPINT
 740:../Libraries/STM32_USB_OTG_Driver/src/usb_dcd_int.c ****   }
 571              		.loc 1 740 5 view .LVU169
 572 0138 216E     		ldr	r1, [r4, #96]	@ _217, MEM <struct USB_OTG_OUTEPREGS *> [(struct USB_OTG_CORE_HANDLE *)pdev_32(
 573              	@ ../Libraries/STM32_USB_OTG_Driver/src/usb_dcd_int.c:737:   for (i = 0; i < pdev->cfg.dev_endpoint
 737:../Libraries/STM32_USB_OTG_Driver/src/usb_dcd_int.c ****   {
 574              		.loc 1 737 3 is_stmt 0 view .LVU170
 575 013a 042A     		cmp	r2, #4	@ _361,
 576              	@ ../Libraries/STM32_USB_OTG_Driver/src/usb_dcd_int.c:740:     USB_OTG_WRITE_REG32( &pdev->regs.OUT
 740:../Libraries/STM32_USB_OTG_Driver/src/usb_dcd_int.c ****   }
 577              		.loc 1 740 5 view .LVU171
 578 013c 8B60     		str	r3, [r1, #8]	@ tmp537, _217->DOEPINT
ARM GAS  C:\Users\admin\AppData\Local\Temp\ccpMiuah.s 			page 28


 737:../Libraries/STM32_USB_OTG_Driver/src/usb_dcd_int.c ****   {
 579              		.loc 1 737 45 is_stmt 1 view .LVU172
 580              	.LVL38:
 737:../Libraries/STM32_USB_OTG_Driver/src/usb_dcd_int.c ****   {
 581              		.loc 1 737 15 view .LVU173
 582              	@ ../Libraries/STM32_USB_OTG_Driver/src/usb_dcd_int.c:737:   for (i = 0; i < pdev->cfg.dev_endpoint
 737:../Libraries/STM32_USB_OTG_Driver/src/usb_dcd_int.c ****   {
 583              		.loc 1 737 3 is_stmt 0 view .LVU174
 584 013e 44D0     		beq	.L36		@,
 739:../Libraries/STM32_USB_OTG_Driver/src/usb_dcd_int.c ****     USB_OTG_WRITE_REG32( &pdev->regs.OUTEP_REGS[i]->DOEPINT, 0xFF);
 585              		.loc 1 739 5 is_stmt 1 view .LVU175
 586 0140 A16A     		ldr	r1, [r4, #40]	@ _64, MEM <struct USB_OTG_INEPREGS *> [(struct USB_OTG_CORE_HANDLE *)pdev_32(D)
 587 0142 8B60     		str	r3, [r1, #8]	@ tmp537, _64->DIEPINT
 740:../Libraries/STM32_USB_OTG_Driver/src/usb_dcd_int.c ****   }
 588              		.loc 1 740 5 view .LVU176
 589 0144 616E     		ldr	r1, [r4, #100]	@ _55, MEM <struct USB_OTG_OUTEPREGS *> [(struct USB_OTG_CORE_HANDLE *)pdev_32(
 590              	@ ../Libraries/STM32_USB_OTG_Driver/src/usb_dcd_int.c:737:   for (i = 0; i < pdev->cfg.dev_endpoint
 737:../Libraries/STM32_USB_OTG_Driver/src/usb_dcd_int.c ****   {
 591              		.loc 1 737 3 is_stmt 0 view .LVU177
 592 0146 052A     		cmp	r2, #5	@ _361,
 593              	@ ../Libraries/STM32_USB_OTG_Driver/src/usb_dcd_int.c:740:     USB_OTG_WRITE_REG32( &pdev->regs.OUT
 740:../Libraries/STM32_USB_OTG_Driver/src/usb_dcd_int.c ****   }
 594              		.loc 1 740 5 view .LVU178
 595 0148 8B60     		str	r3, [r1, #8]	@ tmp537, _55->DOEPINT
 737:../Libraries/STM32_USB_OTG_Driver/src/usb_dcd_int.c ****   {
 596              		.loc 1 737 45 is_stmt 1 view .LVU179
 597              	.LVL39:
 737:../Libraries/STM32_USB_OTG_Driver/src/usb_dcd_int.c ****   {
 598              		.loc 1 737 15 view .LVU180
 599              	@ ../Libraries/STM32_USB_OTG_Driver/src/usb_dcd_int.c:737:   for (i = 0; i < pdev->cfg.dev_endpoint
 737:../Libraries/STM32_USB_OTG_Driver/src/usb_dcd_int.c ****   {
 600              		.loc 1 737 3 is_stmt 0 view .LVU181
 601 014a 3ED0     		beq	.L36		@,
 739:../Libraries/STM32_USB_OTG_Driver/src/usb_dcd_int.c ****     USB_OTG_WRITE_REG32( &pdev->regs.OUTEP_REGS[i]->DOEPINT, 0xFF);
 602              		.loc 1 739 5 is_stmt 1 view .LVU182
 603 014c E16A     		ldr	r1, [r4, #44]	@ _47, MEM <struct USB_OTG_INEPREGS *> [(struct USB_OTG_CORE_HANDLE *)pdev_32(D)
 604 014e 8B60     		str	r3, [r1, #8]	@ tmp537, _47->DIEPINT
 740:../Libraries/STM32_USB_OTG_Driver/src/usb_dcd_int.c ****   }
 605              		.loc 1 740 5 view .LVU183
 606 0150 A16E     		ldr	r1, [r4, #104]	@ _40, MEM <struct USB_OTG_OUTEPREGS *> [(struct USB_OTG_CORE_HANDLE *)pdev_32(
 607              	@ ../Libraries/STM32_USB_OTG_Driver/src/usb_dcd_int.c:737:   for (i = 0; i < pdev->cfg.dev_endpoint
 737:../Libraries/STM32_USB_OTG_Driver/src/usb_dcd_int.c ****   {
 608              		.loc 1 737 3 is_stmt 0 view .LVU184
 609 0152 062A     		cmp	r2, #6	@ _361,
 610              	@ ../Libraries/STM32_USB_OTG_Driver/src/usb_dcd_int.c:740:     USB_OTG_WRITE_REG32( &pdev->regs.OUT
 740:../Libraries/STM32_USB_OTG_Driver/src/usb_dcd_int.c ****   }
 611              		.loc 1 740 5 view .LVU185
 612 0154 8B60     		str	r3, [r1, #8]	@ tmp537, _40->DOEPINT
 737:../Libraries/STM32_USB_OTG_Driver/src/usb_dcd_int.c ****   {
 613              		.loc 1 737 45 is_stmt 1 view .LVU186
 614              	.LVL40:
 737:../Libraries/STM32_USB_OTG_Driver/src/usb_dcd_int.c ****   {
 615              		.loc 1 737 15 view .LVU187
 616              	@ ../Libraries/STM32_USB_OTG_Driver/src/usb_dcd_int.c:737:   for (i = 0; i < pdev->cfg.dev_endpoint
 737:../Libraries/STM32_USB_OTG_Driver/src/usb_dcd_int.c ****   {
 617              		.loc 1 737 3 is_stmt 0 view .LVU188
 618 0156 38D0     		beq	.L36		@,
ARM GAS  C:\Users\admin\AppData\Local\Temp\ccpMiuah.s 			page 29


 739:../Libraries/STM32_USB_OTG_Driver/src/usb_dcd_int.c ****     USB_OTG_WRITE_REG32( &pdev->regs.OUTEP_REGS[i]->DOEPINT, 0xFF);
 619              		.loc 1 739 5 is_stmt 1 view .LVU189
 620 0158 216B     		ldr	r1, [r4, #48]	@ _354, MEM <struct USB_OTG_INEPREGS *> [(struct USB_OTG_CORE_HANDLE *)pdev_32(D
 621 015a 8B60     		str	r3, [r1, #8]	@ tmp537, _354->DIEPINT
 740:../Libraries/STM32_USB_OTG_Driver/src/usb_dcd_int.c ****   }
 622              		.loc 1 740 5 view .LVU190
 623 015c E16E     		ldr	r1, [r4, #108]	@ _80, MEM <struct USB_OTG_OUTEPREGS *> [(struct USB_OTG_CORE_HANDLE *)pdev_32(
 624              	@ ../Libraries/STM32_USB_OTG_Driver/src/usb_dcd_int.c:737:   for (i = 0; i < pdev->cfg.dev_endpoint
 737:../Libraries/STM32_USB_OTG_Driver/src/usb_dcd_int.c ****   {
 625              		.loc 1 737 3 is_stmt 0 view .LVU191
 626 015e 072A     		cmp	r2, #7	@ _361,
 627              	@ ../Libraries/STM32_USB_OTG_Driver/src/usb_dcd_int.c:740:     USB_OTG_WRITE_REG32( &pdev->regs.OUT
 740:../Libraries/STM32_USB_OTG_Driver/src/usb_dcd_int.c ****   }
 628              		.loc 1 740 5 view .LVU192
 629 0160 8B60     		str	r3, [r1, #8]	@ tmp537, _80->DOEPINT
 737:../Libraries/STM32_USB_OTG_Driver/src/usb_dcd_int.c ****   {
 630              		.loc 1 737 45 is_stmt 1 view .LVU193
 631              	.LVL41:
 737:../Libraries/STM32_USB_OTG_Driver/src/usb_dcd_int.c ****   {
 632              		.loc 1 737 15 view .LVU194
 633              	@ ../Libraries/STM32_USB_OTG_Driver/src/usb_dcd_int.c:737:   for (i = 0; i < pdev->cfg.dev_endpoint
 737:../Libraries/STM32_USB_OTG_Driver/src/usb_dcd_int.c ****   {
 634              		.loc 1 737 3 is_stmt 0 view .LVU195
 635 0162 32D0     		beq	.L36		@,
 739:../Libraries/STM32_USB_OTG_Driver/src/usb_dcd_int.c ****     USB_OTG_WRITE_REG32( &pdev->regs.OUTEP_REGS[i]->DOEPINT, 0xFF);
 636              		.loc 1 739 5 is_stmt 1 view .LVU196
 637 0164 616B     		ldr	r1, [r4, #52]	@ _130, MEM <struct USB_OTG_INEPREGS *> [(struct USB_OTG_CORE_HANDLE *)pdev_32(D
 638 0166 8B60     		str	r3, [r1, #8]	@ tmp537, _130->DIEPINT
 740:../Libraries/STM32_USB_OTG_Driver/src/usb_dcd_int.c ****   }
 639              		.loc 1 740 5 view .LVU197
 640 0168 216F     		ldr	r1, [r4, #112]	@ _154, MEM <struct USB_OTG_OUTEPREGS *> [(struct USB_OTG_CORE_HANDLE *)pdev_32
 641              	@ ../Libraries/STM32_USB_OTG_Driver/src/usb_dcd_int.c:737:   for (i = 0; i < pdev->cfg.dev_endpoint
 737:../Libraries/STM32_USB_OTG_Driver/src/usb_dcd_int.c ****   {
 642              		.loc 1 737 3 is_stmt 0 view .LVU198
 643 016a 082A     		cmp	r2, #8	@ _361,
 644              	@ ../Libraries/STM32_USB_OTG_Driver/src/usb_dcd_int.c:740:     USB_OTG_WRITE_REG32( &pdev->regs.OUT
 740:../Libraries/STM32_USB_OTG_Driver/src/usb_dcd_int.c ****   }
 645              		.loc 1 740 5 view .LVU199
 646 016c 8B60     		str	r3, [r1, #8]	@ tmp537, _154->DOEPINT
 737:../Libraries/STM32_USB_OTG_Driver/src/usb_dcd_int.c ****   {
 647              		.loc 1 737 45 is_stmt 1 view .LVU200
 648              	.LVL42:
 737:../Libraries/STM32_USB_OTG_Driver/src/usb_dcd_int.c ****   {
 649              		.loc 1 737 15 view .LVU201
 650              	@ ../Libraries/STM32_USB_OTG_Driver/src/usb_dcd_int.c:737:   for (i = 0; i < pdev->cfg.dev_endpoint
 737:../Libraries/STM32_USB_OTG_Driver/src/usb_dcd_int.c ****   {
 651              		.loc 1 737 3 is_stmt 0 view .LVU202
 652 016e 2CD0     		beq	.L36		@,
 739:../Libraries/STM32_USB_OTG_Driver/src/usb_dcd_int.c ****     USB_OTG_WRITE_REG32( &pdev->regs.OUTEP_REGS[i]->DOEPINT, 0xFF);
 653              		.loc 1 739 5 is_stmt 1 view .LVU203
 654 0170 A16B     		ldr	r1, [r4, #56]	@ _375, MEM <struct USB_OTG_INEPREGS *> [(struct USB_OTG_CORE_HANDLE *)pdev_32(D
 655              	@ ../Libraries/STM32_USB_OTG_Driver/src/usb_dcd_int.c:740:     USB_OTG_WRITE_REG32( &pdev->regs.OUT
 740:../Libraries/STM32_USB_OTG_Driver/src/usb_dcd_int.c ****   }
 656              		.loc 1 740 5 is_stmt 0 view .LVU204
 657 0172 636F     		ldr	r3, [r4, #116]	@ _377, MEM <struct USB_OTG_OUTEPREGS *> [(struct USB_OTG_CORE_HANDLE *)pdev_32
 658              	@ ../Libraries/STM32_USB_OTG_Driver/src/usb_dcd_int.c:739:     USB_OTG_WRITE_REG32( &pdev->regs.INE
 739:../Libraries/STM32_USB_OTG_Driver/src/usb_dcd_int.c ****     USB_OTG_WRITE_REG32( &pdev->regs.OUTEP_REGS[i]->DOEPINT, 0xFF);
ARM GAS  C:\Users\admin\AppData\Local\Temp\ccpMiuah.s 			page 30


 659              		.loc 1 739 5 view .LVU205
 660 0174 FF20     		movs	r0, #255	@ tmp553,
 661              	@ ../Libraries/STM32_USB_OTG_Driver/src/usb_dcd_int.c:737:   for (i = 0; i < pdev->cfg.dev_endpoint
 737:../Libraries/STM32_USB_OTG_Driver/src/usb_dcd_int.c ****   {
 662              		.loc 1 737 3 view .LVU206
 663 0176 092A     		cmp	r2, #9	@ _361,
 664              	@ ../Libraries/STM32_USB_OTG_Driver/src/usb_dcd_int.c:739:     USB_OTG_WRITE_REG32( &pdev->regs.INE
 739:../Libraries/STM32_USB_OTG_Driver/src/usb_dcd_int.c ****     USB_OTG_WRITE_REG32( &pdev->regs.OUTEP_REGS[i]->DOEPINT, 0xFF);
 665              		.loc 1 739 5 view .LVU207
 666 0178 8860     		str	r0, [r1, #8]	@ tmp553, _375->DIEPINT
 740:../Libraries/STM32_USB_OTG_Driver/src/usb_dcd_int.c ****   }
 667              		.loc 1 740 5 is_stmt 1 view .LVU208
 668 017a 9860     		str	r0, [r3, #8]	@ tmp553, _377->DOEPINT
 737:../Libraries/STM32_USB_OTG_Driver/src/usb_dcd_int.c ****   {
 669              		.loc 1 737 45 view .LVU209
 670              	.LVL43:
 737:../Libraries/STM32_USB_OTG_Driver/src/usb_dcd_int.c ****   {
 671              		.loc 1 737 15 view .LVU210
 672              	@ ../Libraries/STM32_USB_OTG_Driver/src/usb_dcd_int.c:737:   for (i = 0; i < pdev->cfg.dev_endpoint
 737:../Libraries/STM32_USB_OTG_Driver/src/usb_dcd_int.c ****   {
 673              		.loc 1 737 3 is_stmt 0 view .LVU211
 674 017c 25D0     		beq	.L36		@,
 739:../Libraries/STM32_USB_OTG_Driver/src/usb_dcd_int.c ****     USB_OTG_WRITE_REG32( &pdev->regs.OUTEP_REGS[i]->DOEPINT, 0xFF);
 675              		.loc 1 739 5 is_stmt 1 view .LVU212
 676 017e E36B     		ldr	r3, [r4, #60]	@ _382, MEM <struct USB_OTG_INEPREGS *> [(struct USB_OTG_CORE_HANDLE *)pdev_32(D
 677 0180 9860     		str	r0, [r3, #8]	@ tmp553, _382->DIEPINT
 740:../Libraries/STM32_USB_OTG_Driver/src/usb_dcd_int.c ****   }
 678              		.loc 1 740 5 view .LVU213
 679 0182 A36F     		ldr	r3, [r4, #120]	@ _384, MEM <struct USB_OTG_OUTEPREGS *> [(struct USB_OTG_CORE_HANDLE *)pdev_32
 680              	@ ../Libraries/STM32_USB_OTG_Driver/src/usb_dcd_int.c:737:   for (i = 0; i < pdev->cfg.dev_endpoint
 737:../Libraries/STM32_USB_OTG_Driver/src/usb_dcd_int.c ****   {
 681              		.loc 1 737 3 is_stmt 0 view .LVU214
 682 0184 0A2A     		cmp	r2, #10	@ _361,
 683              	@ ../Libraries/STM32_USB_OTG_Driver/src/usb_dcd_int.c:740:     USB_OTG_WRITE_REG32( &pdev->regs.OUT
 740:../Libraries/STM32_USB_OTG_Driver/src/usb_dcd_int.c ****   }
 684              		.loc 1 740 5 view .LVU215
 685 0186 9860     		str	r0, [r3, #8]	@ tmp553, _384->DOEPINT
 737:../Libraries/STM32_USB_OTG_Driver/src/usb_dcd_int.c ****   {
 686              		.loc 1 737 45 is_stmt 1 view .LVU216
 687              	.LVL44:
 737:../Libraries/STM32_USB_OTG_Driver/src/usb_dcd_int.c ****   {
 688              		.loc 1 737 15 view .LVU217
 689              	@ ../Libraries/STM32_USB_OTG_Driver/src/usb_dcd_int.c:737:   for (i = 0; i < pdev->cfg.dev_endpoint
 737:../Libraries/STM32_USB_OTG_Driver/src/usb_dcd_int.c ****   {
 690              		.loc 1 737 3 is_stmt 0 view .LVU218
 691 0188 1FD0     		beq	.L36		@,
 739:../Libraries/STM32_USB_OTG_Driver/src/usb_dcd_int.c ****     USB_OTG_WRITE_REG32( &pdev->regs.OUTEP_REGS[i]->DOEPINT, 0xFF);
 692              		.loc 1 739 5 is_stmt 1 view .LVU219
 693 018a 236C     		ldr	r3, [r4, #64]	@ _389, MEM <struct USB_OTG_INEPREGS *> [(struct USB_OTG_CORE_HANDLE *)pdev_32(D
 694 018c 9860     		str	r0, [r3, #8]	@ tmp553, _389->DIEPINT
 740:../Libraries/STM32_USB_OTG_Driver/src/usb_dcd_int.c ****   }
 695              		.loc 1 740 5 view .LVU220
 696 018e E36F     		ldr	r3, [r4, #124]	@ _391, MEM <struct USB_OTG_OUTEPREGS *> [(struct USB_OTG_CORE_HANDLE *)pdev_32
 697              	@ ../Libraries/STM32_USB_OTG_Driver/src/usb_dcd_int.c:737:   for (i = 0; i < pdev->cfg.dev_endpoint
 737:../Libraries/STM32_USB_OTG_Driver/src/usb_dcd_int.c ****   {
 698              		.loc 1 737 3 is_stmt 0 view .LVU221
 699 0190 0B2A     		cmp	r2, #11	@ _361,
ARM GAS  C:\Users\admin\AppData\Local\Temp\ccpMiuah.s 			page 31


 700              	@ ../Libraries/STM32_USB_OTG_Driver/src/usb_dcd_int.c:740:     USB_OTG_WRITE_REG32( &pdev->regs.OUT
 740:../Libraries/STM32_USB_OTG_Driver/src/usb_dcd_int.c ****   }
 701              		.loc 1 740 5 view .LVU222
 702 0192 9860     		str	r0, [r3, #8]	@ tmp553, _391->DOEPINT
 737:../Libraries/STM32_USB_OTG_Driver/src/usb_dcd_int.c ****   {
 703              		.loc 1 737 45 is_stmt 1 view .LVU223
 704              	.LVL45:
 737:../Libraries/STM32_USB_OTG_Driver/src/usb_dcd_int.c ****   {
 705              		.loc 1 737 15 view .LVU224
 706              	@ ../Libraries/STM32_USB_OTG_Driver/src/usb_dcd_int.c:737:   for (i = 0; i < pdev->cfg.dev_endpoint
 737:../Libraries/STM32_USB_OTG_Driver/src/usb_dcd_int.c ****   {
 707              		.loc 1 737 3 is_stmt 0 view .LVU225
 708 0194 19D0     		beq	.L36		@,
 739:../Libraries/STM32_USB_OTG_Driver/src/usb_dcd_int.c ****     USB_OTG_WRITE_REG32( &pdev->regs.OUTEP_REGS[i]->DOEPINT, 0xFF);
 709              		.loc 1 739 5 is_stmt 1 view .LVU226
 710 0196 636C     		ldr	r3, [r4, #68]	@ _396, MEM <struct USB_OTG_INEPREGS *> [(struct USB_OTG_CORE_HANDLE *)pdev_32(D
 711 0198 9860     		str	r0, [r3, #8]	@ tmp553, _396->DIEPINT
 740:../Libraries/STM32_USB_OTG_Driver/src/usb_dcd_int.c ****   }
 712              		.loc 1 740 5 view .LVU227
 713 019a D4F88030 		ldr	r3, [r4, #128]	@ _398, MEM <struct USB_OTG_OUTEPREGS *> [(struct USB_OTG_CORE_HANDLE *)pdev_32
 714              	@ ../Libraries/STM32_USB_OTG_Driver/src/usb_dcd_int.c:737:   for (i = 0; i < pdev->cfg.dev_endpoint
 737:../Libraries/STM32_USB_OTG_Driver/src/usb_dcd_int.c ****   {
 715              		.loc 1 737 3 is_stmt 0 view .LVU228
 716 019e 0C2A     		cmp	r2, #12	@ _361,
 717              	@ ../Libraries/STM32_USB_OTG_Driver/src/usb_dcd_int.c:740:     USB_OTG_WRITE_REG32( &pdev->regs.OUT
 740:../Libraries/STM32_USB_OTG_Driver/src/usb_dcd_int.c ****   }
 718              		.loc 1 740 5 view .LVU229
 719 01a0 9860     		str	r0, [r3, #8]	@ tmp553, _398->DOEPINT
 737:../Libraries/STM32_USB_OTG_Driver/src/usb_dcd_int.c ****   {
 720              		.loc 1 737 45 is_stmt 1 view .LVU230
 721              	.LVL46:
 737:../Libraries/STM32_USB_OTG_Driver/src/usb_dcd_int.c ****   {
 722              		.loc 1 737 15 view .LVU231
 723              	@ ../Libraries/STM32_USB_OTG_Driver/src/usb_dcd_int.c:737:   for (i = 0; i < pdev->cfg.dev_endpoint
 737:../Libraries/STM32_USB_OTG_Driver/src/usb_dcd_int.c ****   {
 724              		.loc 1 737 3 is_stmt 0 view .LVU232
 725 01a2 12D0     		beq	.L36		@,
 739:../Libraries/STM32_USB_OTG_Driver/src/usb_dcd_int.c ****     USB_OTG_WRITE_REG32( &pdev->regs.OUTEP_REGS[i]->DOEPINT, 0xFF);
 726              		.loc 1 739 5 is_stmt 1 view .LVU233
 727 01a4 A36C     		ldr	r3, [r4, #72]	@ _403, MEM <struct USB_OTG_INEPREGS *> [(struct USB_OTG_CORE_HANDLE *)pdev_32(D
 728 01a6 9860     		str	r0, [r3, #8]	@ tmp553, _403->DIEPINT
 740:../Libraries/STM32_USB_OTG_Driver/src/usb_dcd_int.c ****   }
 729              		.loc 1 740 5 view .LVU234
 730 01a8 D4F88430 		ldr	r3, [r4, #132]	@ _405, MEM <struct USB_OTG_OUTEPREGS *> [(struct USB_OTG_CORE_HANDLE *)pdev_32
 731              	@ ../Libraries/STM32_USB_OTG_Driver/src/usb_dcd_int.c:737:   for (i = 0; i < pdev->cfg.dev_endpoint
 737:../Libraries/STM32_USB_OTG_Driver/src/usb_dcd_int.c ****   {
 732              		.loc 1 737 3 is_stmt 0 view .LVU235
 733 01ac 0D2A     		cmp	r2, #13	@ _361,
 734              	@ ../Libraries/STM32_USB_OTG_Driver/src/usb_dcd_int.c:740:     USB_OTG_WRITE_REG32( &pdev->regs.OUT
 740:../Libraries/STM32_USB_OTG_Driver/src/usb_dcd_int.c ****   }
 735              		.loc 1 740 5 view .LVU236
 736 01ae 9860     		str	r0, [r3, #8]	@ tmp553, _405->DOEPINT
 737:../Libraries/STM32_USB_OTG_Driver/src/usb_dcd_int.c ****   {
 737              		.loc 1 737 45 is_stmt 1 view .LVU237
 738              	.LVL47:
 737:../Libraries/STM32_USB_OTG_Driver/src/usb_dcd_int.c ****   {
 739              		.loc 1 737 15 view .LVU238
ARM GAS  C:\Users\admin\AppData\Local\Temp\ccpMiuah.s 			page 32


 740              	@ ../Libraries/STM32_USB_OTG_Driver/src/usb_dcd_int.c:737:   for (i = 0; i < pdev->cfg.dev_endpoint
 737:../Libraries/STM32_USB_OTG_Driver/src/usb_dcd_int.c ****   {
 741              		.loc 1 737 3 is_stmt 0 view .LVU239
 742 01b0 0BD0     		beq	.L36		@,
 739:../Libraries/STM32_USB_OTG_Driver/src/usb_dcd_int.c ****     USB_OTG_WRITE_REG32( &pdev->regs.OUTEP_REGS[i]->DOEPINT, 0xFF);
 743              		.loc 1 739 5 is_stmt 1 view .LVU240
 744 01b2 E36C     		ldr	r3, [r4, #76]	@ _410, MEM <struct USB_OTG_INEPREGS *> [(struct USB_OTG_CORE_HANDLE *)pdev_32(D
 745 01b4 9860     		str	r0, [r3, #8]	@ tmp553, _410->DIEPINT
 740:../Libraries/STM32_USB_OTG_Driver/src/usb_dcd_int.c ****   }
 746              		.loc 1 740 5 view .LVU241
 747 01b6 D4F88830 		ldr	r3, [r4, #136]	@ _412, MEM <struct USB_OTG_OUTEPREGS *> [(struct USB_OTG_CORE_HANDLE *)pdev_32
 748              	@ ../Libraries/STM32_USB_OTG_Driver/src/usb_dcd_int.c:737:   for (i = 0; i < pdev->cfg.dev_endpoint
 737:../Libraries/STM32_USB_OTG_Driver/src/usb_dcd_int.c ****   {
 749              		.loc 1 737 3 is_stmt 0 view .LVU242
 750 01ba 0E2A     		cmp	r2, #14	@ _361,
 751              	@ ../Libraries/STM32_USB_OTG_Driver/src/usb_dcd_int.c:740:     USB_OTG_WRITE_REG32( &pdev->regs.OUT
 740:../Libraries/STM32_USB_OTG_Driver/src/usb_dcd_int.c ****   }
 752              		.loc 1 740 5 view .LVU243
 753 01bc 9860     		str	r0, [r3, #8]	@ tmp553, _412->DOEPINT
 737:../Libraries/STM32_USB_OTG_Driver/src/usb_dcd_int.c ****   {
 754              		.loc 1 737 45 is_stmt 1 view .LVU244
 755              	.LVL48:
 737:../Libraries/STM32_USB_OTG_Driver/src/usb_dcd_int.c ****   {
 756              		.loc 1 737 15 view .LVU245
 757              	@ ../Libraries/STM32_USB_OTG_Driver/src/usb_dcd_int.c:737:   for (i = 0; i < pdev->cfg.dev_endpoint
 737:../Libraries/STM32_USB_OTG_Driver/src/usb_dcd_int.c ****   {
 758              		.loc 1 737 3 is_stmt 0 view .LVU246
 759 01be 04D0     		beq	.L36		@,
 739:../Libraries/STM32_USB_OTG_Driver/src/usb_dcd_int.c ****     USB_OTG_WRITE_REG32( &pdev->regs.OUTEP_REGS[i]->DOEPINT, 0xFF);
 760              		.loc 1 739 5 is_stmt 1 view .LVU247
 761 01c0 236D     		ldr	r3, [r4, #80]	@ _214, MEM <struct USB_OTG_INEPREGS *> [(struct USB_OTG_CORE_HANDLE *)pdev_32(D
 762 01c2 9860     		str	r0, [r3, #8]	@ tmp553, _214->DIEPINT
 740:../Libraries/STM32_USB_OTG_Driver/src/usb_dcd_int.c ****   }
 763              		.loc 1 740 5 view .LVU248
 764 01c4 D4F88C30 		ldr	r3, [r4, #140]	@ _215, MEM <struct USB_OTG_OUTEPREGS *> [(struct USB_OTG_CORE_HANDLE *)pdev_32
 765 01c8 9860     		str	r0, [r3, #8]	@ tmp553, _215->DOEPINT
 737:../Libraries/STM32_USB_OTG_Driver/src/usb_dcd_int.c ****   {
 766              		.loc 1 737 45 view .LVU249
 767              	.LVL49:
 737:../Libraries/STM32_USB_OTG_Driver/src/usb_dcd_int.c ****   {
 768              		.loc 1 737 15 view .LVU250
 769              	.L36:
 742:../Libraries/STM32_USB_OTG_Driver/src/usb_dcd_int.c ****   
 770              		.loc 1 742 3 view .LVU251
 771 01ca 2369     		ldr	r3, [r4, #16]	@ _219, pdev_32(D)->regs.DREGS
 772              	@ ../Libraries/STM32_USB_OTG_Driver/src/usb_dcd_int.c:749:   doepmsk.b.xfercompl = 1;
 749:../Libraries/STM32_USB_OTG_Driver/src/usb_dcd_int.c ****   doepmsk.b.epdisabled = 1;
 773              		.loc 1 749 23 is_stmt 0 view .LVU252
 774 01cc 0B22     		movs	r2, #11	@ tmp528,
 775 01ce 62F30705 		bfi	r5, r2, #0, #8	@ doepmsk, tmp528,,
 776              	@ ../Libraries/STM32_USB_OTG_Driver/src/usb_dcd_int.c:755:   diepmsk.b.xfercompl = 1;
 755:../Libraries/STM32_USB_OTG_Driver/src/usb_dcd_int.c ****   diepmsk.b.timeout = 1;
 777              		.loc 1 755 23 view .LVU253
 778 01d2 62F30706 		bfi	r6, r2, #0, #8	@ diepmsk, tmp528,,
 779              	.LVL50:
 780              	@ ../Libraries/STM32_USB_OTG_Driver/src/usb_dcd_int.c:742:   USB_OTG_WRITE_REG32( &pdev->regs.DREGS
 742:../Libraries/STM32_USB_OTG_Driver/src/usb_dcd_int.c ****   
ARM GAS  C:\Users\admin\AppData\Local\Temp\ccpMiuah.s 			page 33


 781              		.loc 1 742 3 view .LVU254
 782 01d6 4FF0FF32 		mov	r2, #-1	@ tmp523,
 783 01da 9A61     		str	r2, [r3, #24]	@ tmp523, _219->DAINT
 744:../Libraries/STM32_USB_OTG_Driver/src/usb_dcd_int.c ****   daintmsk.ep.out = 1;
 784              		.loc 1 744 3 is_stmt 1 view .LVU255
 745:../Libraries/STM32_USB_OTG_Driver/src/usb_dcd_int.c ****   USB_OTG_WRITE_REG32( &pdev->regs.DREGS->DAINTMSK, daintmsk.d32 );
 785              		.loc 1 745 3 view .LVU256
 746:../Libraries/STM32_USB_OTG_Driver/src/usb_dcd_int.c ****   
 786              		.loc 1 746 3 view .LVU257
 787 01dc 4FF00112 		mov	r2, #65537	@ tmp524,
 788 01e0 DA61     		str	r2, [r3, #28]	@ tmp524, _219->DAINTMSK
 748:../Libraries/STM32_USB_OTG_Driver/src/usb_dcd_int.c ****   doepmsk.b.xfercompl = 1;
 789              		.loc 1 748 3 view .LVU258
 749:../Libraries/STM32_USB_OTG_Driver/src/usb_dcd_int.c ****   doepmsk.b.epdisabled = 1;
 790              		.loc 1 749 3 view .LVU259
 750:../Libraries/STM32_USB_OTG_Driver/src/usb_dcd_int.c ****   USB_OTG_WRITE_REG32( &pdev->regs.DREGS->DOEPMSK, doepmsk.d32 );
 791              		.loc 1 750 3 view .LVU260
 751:../Libraries/STM32_USB_OTG_Driver/src/usb_dcd_int.c **** #ifdef USB_OTG_HS_DEDICATED_EP1_ENABLED   
 792              		.loc 1 751 3 view .LVU261
 793 01e2 5D61     		str	r5, [r3, #20]	@ doepmsk, _219->DOEPMSK
 755:../Libraries/STM32_USB_OTG_Driver/src/usb_dcd_int.c ****   diepmsk.b.timeout = 1;
 794              		.loc 1 755 3 view .LVU262
 756:../Libraries/STM32_USB_OTG_Driver/src/usb_dcd_int.c ****   diepmsk.b.epdisabled = 1;
 795              		.loc 1 756 3 view .LVU263
 757:../Libraries/STM32_USB_OTG_Driver/src/usb_dcd_int.c **** 
 796              		.loc 1 757 3 view .LVU264
 759:../Libraries/STM32_USB_OTG_Driver/src/usb_dcd_int.c **** #ifdef USB_OTG_HS_DEDICATED_EP1_ENABLED  
 797              		.loc 1 759 3 view .LVU265
 798 01e4 1E61     		str	r6, [r3, #16]	@ diepmsk, _219->DIEPMSK
 764:../Libraries/STM32_USB_OTG_Driver/src/usb_dcd_int.c ****   dcfg.b.devaddr = 0;
 799              		.loc 1 764 3 view .LVU266
 800              	@ ../Libraries/STM32_USB_OTG_Driver/src/usb_dcd_int.c:764:   dcfg.d32 = USB_OTG_READ_REG32( &pdev->
 764:../Libraries/STM32_USB_OTG_Driver/src/usb_dcd_int.c ****   dcfg.b.devaddr = 0;
 801              		.loc 1 764 14 is_stmt 0 view .LVU267
 802 01e6 1A68     		ldr	r2, [r3]	@ _222, _219->DCFG
 803              	@ ../Libraries/STM32_USB_OTG_Driver/src/usb_dcd_int.c:765:   dcfg.b.devaddr = 0;
 765:../Libraries/STM32_USB_OTG_Driver/src/usb_dcd_int.c ****   USB_OTG_WRITE_REG32( &pdev->regs.DREGS->DCFG, dcfg.d32);
 804              		.loc 1 765 18 view .LVU268
 805 01e8 6FF30A12 		bfc	r2, #4, #7	@ dcfg,,
 806              	.LVL51:
 807              	@ ../Libraries/STM32_USB_OTG_Driver/src/usb_dcd_int.c:766:   USB_OTG_WRITE_REG32( &pdev->regs.DREGS
 766:../Libraries/STM32_USB_OTG_Driver/src/usb_dcd_int.c ****   
 808              		.loc 1 766 3 view .LVU269
 809 01ec 1A60     		str	r2, [r3]	@ dcfg, _219->DCFG
 810              	@ ../Libraries/STM32_USB_OTG_Driver/src/usb_dcd_int.c:770:   USB_OTG_EP0_OutStart(pdev);
 770:../Libraries/STM32_USB_OTG_Driver/src/usb_dcd_int.c ****   
 811              		.loc 1 770 3 view .LVU270
 812 01ee 2046     		mov	r0, r4	@, pdev
 765:../Libraries/STM32_USB_OTG_Driver/src/usb_dcd_int.c ****   USB_OTG_WRITE_REG32( &pdev->regs.DREGS->DCFG, dcfg.d32);
 813              		.loc 1 765 3 is_stmt 1 view .LVU271
 766:../Libraries/STM32_USB_OTG_Driver/src/usb_dcd_int.c ****   
 814              		.loc 1 766 3 view .LVU272
 770:../Libraries/STM32_USB_OTG_Driver/src/usb_dcd_int.c ****   
 815              		.loc 1 770 3 view .LVU273
 816 01f0 FFF7FEFF 		bl	USB_OTG_EP0_OutStart		@
 817              	.LVL52:
 773:../Libraries/STM32_USB_OTG_Driver/src/usb_dcd_int.c ****   gintsts.b.usbreset = 1;
ARM GAS  C:\Users\admin\AppData\Local\Temp\ccpMiuah.s 			page 34


 818              		.loc 1 773 3 view .LVU274
 774:../Libraries/STM32_USB_OTG_Driver/src/usb_dcd_int.c ****   USB_OTG_WRITE_REG32 (&pdev->regs.GREGS->GINTSTS, gintsts.d32);
 819              		.loc 1 774 3 view .LVU275
 775:../Libraries/STM32_USB_OTG_Driver/src/usb_dcd_int.c ****   
 820              		.loc 1 775 3 view .LVU276
 821              	@ ../Libraries/STM32_USB_OTG_Driver/src/usb_dcd_int.c:778:   USBD_DCD_INT_fops->Reset(pdev);
 778:../Libraries/STM32_USB_OTG_Driver/src/usb_dcd_int.c ****   return 1;
 822              		.loc 1 778 20 is_stmt 0 view .LVU277
 823 01f4 414B     		ldr	r3, .L135	@ tmp535,
 824              	@ ../Libraries/STM32_USB_OTG_Driver/src/usb_dcd_int.c:775:   USB_OTG_WRITE_REG32 (&pdev->regs.GREGS
 775:../Libraries/STM32_USB_OTG_Driver/src/usb_dcd_int.c ****   
 825              		.loc 1 775 3 view .LVU278
 826 01f6 E268     		ldr	r2, [r4, #12]	@ _224, pdev_32(D)->regs.GREGS
 827              	@ ../Libraries/STM32_USB_OTG_Driver/src/usb_dcd_int.c:778:   USBD_DCD_INT_fops->Reset(pdev);
 778:../Libraries/STM32_USB_OTG_Driver/src/usb_dcd_int.c ****   return 1;
 828              		.loc 1 778 20 view .LVU279
 829 01f8 1B68     		ldr	r3, [r3]	@ USBD_DCD_INT_fops, USBD_DCD_INT_fops
 830              	@ ../Libraries/STM32_USB_OTG_Driver/src/usb_dcd_int.c:775:   USB_OTG_WRITE_REG32 (&pdev->regs.GREGS
 775:../Libraries/STM32_USB_OTG_Driver/src/usb_dcd_int.c ****   
 831              		.loc 1 775 3 view .LVU280
 832 01fa 4FF48051 		mov	r1, #4096	@ tmp533,
 833              	@ ../Libraries/STM32_USB_OTG_Driver/src/usb_dcd_int.c:778:   USBD_DCD_INT_fops->Reset(pdev);
 778:../Libraries/STM32_USB_OTG_Driver/src/usb_dcd_int.c ****   return 1;
 834              		.loc 1 778 3 view .LVU281
 835 01fe 1B69     		ldr	r3, [r3, #16]	@ USBD_DCD_INT_fops.7_225->Reset, USBD_DCD_INT_fops.7_225->Reset
 836              	@ ../Libraries/STM32_USB_OTG_Driver/src/usb_dcd_int.c:775:   USB_OTG_WRITE_REG32 (&pdev->regs.GREGS
 775:../Libraries/STM32_USB_OTG_Driver/src/usb_dcd_int.c ****   
 837              		.loc 1 775 3 view .LVU282
 838 0200 5161     		str	r1, [r2, #20]	@ tmp533, _224->GINTSTS
 778:../Libraries/STM32_USB_OTG_Driver/src/usb_dcd_int.c ****   return 1;
 839              		.loc 1 778 3 is_stmt 1 view .LVU283
 840 0202 2046     		mov	r0, r4	@, pdev
 841 0204 9847     		blx	r3		@ USBD_DCD_INT_fops.7_225->Reset
 842              	.LVL53:
 779:../Libraries/STM32_USB_OTG_Driver/src/usb_dcd_int.c **** }
 843              		.loc 1 779 3 view .LVU284
 779:../Libraries/STM32_USB_OTG_Driver/src/usb_dcd_int.c **** }
 844              		.loc 1 779 3 is_stmt 0 view .LVU285
 845              	.LBE45:
 846              	.LBE44:
 847              	@ ../Libraries/STM32_USB_OTG_Driver/src/usb_dcd_int.c:271:       retval |= DCD_HandleUsbReset_ISR(p
 271:../Libraries/STM32_USB_OTG_Driver/src/usb_dcd_int.c ****       
 848              		.loc 1 271 14 view .LVU286
 849 0206 0120     		movs	r0, #1	@ <retval>,
 850 0208 21E7     		b	.L34		@
 851              	.LVL54:
 852              	.L124:
 232:../Libraries/STM32_USB_OTG_Driver/src/usb_dcd_int.c ****     }
 853              		.loc 1 232 7 is_stmt 1 view .LVU287
 854              	.LBB46:
 855              	.LBI46:
 431:../Libraries/STM32_USB_OTG_Driver/src/usb_dcd_int.c **** {
 856              		.loc 1 431 17 view .LVU288
 857              	.LBB47:
 433:../Libraries/STM32_USB_OTG_Driver/src/usb_dcd_int.c ****   
 858              		.loc 1 433 3 view .LVU289
 435:../Libraries/STM32_USB_OTG_Driver/src/usb_dcd_int.c ****   uint32_t epnum = 0;
ARM GAS  C:\Users\admin\AppData\Local\Temp\ccpMiuah.s 			page 35


 859              		.loc 1 435 3 view .LVU290
 436:../Libraries/STM32_USB_OTG_Driver/src/usb_dcd_int.c ****   uint32_t fifoemptymsk;
 860              		.loc 1 436 3 view .LVU291
 437:../Libraries/STM32_USB_OTG_Driver/src/usb_dcd_int.c ****   diepint.d32 = 0;
 861              		.loc 1 437 3 view .LVU292
 438:../Libraries/STM32_USB_OTG_Driver/src/usb_dcd_int.c ****   ep_intr = USB_OTG_ReadDevAllInEPItr(pdev);
 862              		.loc 1 438 3 view .LVU293
 439:../Libraries/STM32_USB_OTG_Driver/src/usb_dcd_int.c ****   
 863              		.loc 1 439 3 view .LVU294
 864              	@ ../Libraries/STM32_USB_OTG_Driver/src/usb_dcd_int.c:439:   ep_intr = USB_OTG_ReadDevAllInEPItr(pd
 439:../Libraries/STM32_USB_OTG_Driver/src/usb_dcd_int.c ****   
 865              		.loc 1 439 13 is_stmt 0 view .LVU295
 866 020a 2046     		mov	r0, r4	@, pdev
 867              	.LVL55:
 439:../Libraries/STM32_USB_OTG_Driver/src/usb_dcd_int.c ****   
 868              		.loc 1 439 13 view .LVU296
 869 020c FFF7FEFF 		bl	USB_OTG_ReadDevAllInEPItr		@
 870              	.LVL56:
 441:../Libraries/STM32_USB_OTG_Driver/src/usb_dcd_int.c ****   {
 871              		.loc 1 441 3 is_stmt 1 view .LVU297
 441:../Libraries/STM32_USB_OTG_Driver/src/usb_dcd_int.c ****   {
 872              		.loc 1 441 9 view .LVU298
 873 0210 8146     		mov	r9, r0	@ ep_intr, tmp594
 874 0212 0028     		cmp	r0, #0	@ ep_intr
 875 0214 70D0     		beq	.L25	@
 876 0216 04F1180A 		add	r10, r4, #24	@ ivtmp.29, pdev,
 877 021a 2546     		mov	r5, r4	@ ivtmp.33, pdev
 878              	@ ../Libraries/STM32_USB_OTG_Driver/src/usb_dcd_int.c:436:   uint32_t epnum = 0;
 436:../Libraries/STM32_USB_OTG_Driver/src/usb_dcd_int.c ****   uint32_t fifoemptymsk;
 879              		.loc 1 436 12 is_stmt 0 view .LVU299
 880 021c 4FF0000B 		mov	fp, #0	@ epnum,
 881              	@ ../Libraries/STM32_USB_OTG_Driver/src/usb_dcd_int.c:469:         CLEAR_IN_EP_INTR(epnum, emptyint
 469:../Libraries/STM32_USB_OTG_Driver/src/usb_dcd_int.c ****       }
 882              		.loc 1 469 9 view .LVU300
 883 0220 0196     		str	r6, [sp, #4]	@ _2, %sfp
 884 0222 19E0     		b	.L24		@
 885              	.LVL57:
 886              	.L132:
 448:../Libraries/STM32_USB_OTG_Driver/src/usb_dcd_int.c ****         USB_OTG_MODIFY_REG32(&pdev->regs.DREGS->DIEPEMPMSK, fifoemptymsk, 0);
 887              		.loc 1 448 9 is_stmt 1 view .LVU301
 449:../Libraries/STM32_USB_OTG_Driver/src/usb_dcd_int.c ****         CLEAR_IN_EP_INTR(epnum, xfercompl);
 888              		.loc 1 449 9 view .LVU302
 889              	@ ../Libraries/STM32_USB_OTG_Driver/src/usb_dcd_int.c:452:         USBD_DCD_INT_fops->DataInStage(p
 452:../Libraries/STM32_USB_OTG_Driver/src/usb_dcd_int.c **** #ifdef original
 890              		.loc 1 452 26 is_stmt 0 view .LVU303
 891 0224 3548     		ldr	r0, .L135	@ tmp624,
 892              	@ ../Libraries/STM32_USB_OTG_Driver/src/usb_dcd_int.c:450:         CLEAR_IN_EP_INTR(epnum, xfercomp
 450:../Libraries/STM32_USB_OTG_Driver/src/usb_dcd_int.c ****         /* TX COMPLETE */
 893              		.loc 1 450 9 view .LVU304
 894 0226 DAF80060 		ldr	r6, [r10]	@ _114, MEM[base: _422, offset: 0B]
 895              	@ ../Libraries/STM32_USB_OTG_Driver/src/usb_dcd_int.c:452:         USBD_DCD_INT_fops->DataInStage(p
 452:../Libraries/STM32_USB_OTG_Driver/src/usb_dcd_int.c **** #ifdef original
 896              		.loc 1 452 26 view .LVU305
 897 022a 0068     		ldr	r0, [r0]	@ USBD_DCD_INT_fops, USBD_DCD_INT_fops
 898              	@ ../Libraries/STM32_USB_OTG_Driver/src/usb_dcd_int.c:452:         USBD_DCD_INT_fops->DataInStage(p
 452:../Libraries/STM32_USB_OTG_Driver/src/usb_dcd_int.c **** #ifdef original
 899              		.loc 1 452 9 view .LVU306
ARM GAS  C:\Users\admin\AppData\Local\Temp\ccpMiuah.s 			page 36


 900 022c 1146     		mov	r1, r2	@, _426
 901 022e 4768     		ldr	r7, [r0, #4]	@ USBD_DCD_INT_fops.2_115->DataInStage, USBD_DCD_INT_fops.2_115->DataInStage
 902              	@ ../Libraries/STM32_USB_OTG_Driver/src/usb_dcd_int.c:449:         USB_OTG_MODIFY_REG32(&pdev->regs
 449:../Libraries/STM32_USB_OTG_Driver/src/usb_dcd_int.c ****         CLEAR_IN_EP_INTR(epnum, xfercompl);
 903              		.loc 1 449 9 view .LVU307
 904 0230 5A6B     		ldr	r2, [r3, #52]	@ _111, _95->DIEPEMPMSK
 905              	@ ../Libraries/STM32_USB_OTG_Driver/src/usb_dcd_int.c:448:         fifoemptymsk = 0x1 << epnum;
 448:../Libraries/STM32_USB_OTG_Driver/src/usb_dcd_int.c ****         USB_OTG_MODIFY_REG32(&pdev->regs.DREGS->DIEPEMPMSK, fifoemptymsk, 0);
 906              		.loc 1 448 28 view .LVU308
 907 0232 0120     		movs	r0, #1	@ tmp625,
 908 0234 00FA0BF0 		lsl	r0, r0, fp	@ fifoemptymsk, tmp625, epnum
 909              	.LVL58:
 910              	@ ../Libraries/STM32_USB_OTG_Driver/src/usb_dcd_int.c:449:         USB_OTG_MODIFY_REG32(&pdev->regs
 449:../Libraries/STM32_USB_OTG_Driver/src/usb_dcd_int.c ****         CLEAR_IN_EP_INTR(epnum, xfercompl);
 911              		.loc 1 449 9 view .LVU309
 912 0238 22EA0002 		bic	r2, r2, r0	@ _113, _111, fifoemptymsk
 913 023c 5A63     		str	r2, [r3, #52]	@ _113, _95->DIEPEMPMSK
 450:../Libraries/STM32_USB_OTG_Driver/src/usb_dcd_int.c ****         /* TX COMPLETE */
 914              		.loc 1 450 9 is_stmt 1 view .LVU310
 450:../Libraries/STM32_USB_OTG_Driver/src/usb_dcd_int.c ****         /* TX COMPLETE */
 915              		.loc 1 450 9 view .LVU311
 450:../Libraries/STM32_USB_OTG_Driver/src/usb_dcd_int.c ****         /* TX COMPLETE */
 916              		.loc 1 450 9 view .LVU312
 917 023e 0123     		movs	r3, #1	@ tmp626,
 918 0240 B360     		str	r3, [r6, #8]	@ tmp626, _114->DIEPINT
 450:../Libraries/STM32_USB_OTG_Driver/src/usb_dcd_int.c ****         /* TX COMPLETE */
 919              		.loc 1 450 43 view .LVU313
 452:../Libraries/STM32_USB_OTG_Driver/src/usb_dcd_int.c **** #ifdef original
 920              		.loc 1 452 9 view .LVU314
 921 0242 2046     		mov	r0, r4	@, pdev
 922              	.LVL59:
 452:../Libraries/STM32_USB_OTG_Driver/src/usb_dcd_int.c **** #ifdef original
 923              		.loc 1 452 9 is_stmt 0 view .LVU315
 924 0244 B847     		blx	r7		@ USBD_DCD_INT_fops.2_115->DataInStage
 925              	.LVL60:
 926              	.L18:
 469:../Libraries/STM32_USB_OTG_Driver/src/usb_dcd_int.c ****       }
 927              		.loc 1 469 43 is_stmt 1 view .LVU316
 496:../Libraries/STM32_USB_OTG_Driver/src/usb_dcd_int.c ****     ep_intr >>= 1;
 928              		.loc 1 496 5 view .LVU317
 929              	@ ../Libraries/STM32_USB_OTG_Driver/src/usb_dcd_int.c:441:   while ( ep_intr )
 441:../Libraries/STM32_USB_OTG_Driver/src/usb_dcd_int.c ****   {
 930              		.loc 1 441 9 is_stmt 0 view .LVU318
 931 0246 5FEA5909 		lsrs	r9, r9, #1	@ ep_intr, ep_intr,
 932              	.LVL61:
 933              	@ ../Libraries/STM32_USB_OTG_Driver/src/usb_dcd_int.c:496:     epnum++;
 496:../Libraries/STM32_USB_OTG_Driver/src/usb_dcd_int.c ****     ep_intr >>= 1;
 934              		.loc 1 496 10 view .LVU319
 935 024a 0BF1010B 		add	fp, fp, #1	@ epnum, epnum,
 936              	.LVL62:
 497:../Libraries/STM32_USB_OTG_Driver/src/usb_dcd_int.c ****   }
 937              		.loc 1 497 5 is_stmt 1 view .LVU320
 441:../Libraries/STM32_USB_OTG_Driver/src/usb_dcd_int.c ****   {
 938              		.loc 1 441 9 view .LVU321
 939 024e 0AF1040A 		add	r10, r10, #4	@ ivtmp.29, ivtmp.29,
 940 0252 05F12805 		add	r5, r5, #40	@ ivtmp.33, ivtmp.33,
 941 0256 4ED0     		beq	.L131		@,
ARM GAS  C:\Users\admin\AppData\Local\Temp\ccpMiuah.s 			page 37


 942              	.LVL63:
 943              	.L24:
 443:../Libraries/STM32_USB_OTG_Driver/src/usb_dcd_int.c ****     {
 944              		.loc 1 443 5 view .LVU322
 945              	@ ../Libraries/STM32_USB_OTG_Driver/src/usb_dcd_int.c:443:     if (ep_intr&0x1) /* In ITR */
 443:../Libraries/STM32_USB_OTG_Driver/src/usb_dcd_int.c ****     {
 946              		.loc 1 443 8 is_stmt 0 view .LVU323
 947 0258 19F0010F 		tst	r9, #1	@ ep_intr,
 948 025c F3D0     		beq	.L18		@,
 445:../Libraries/STM32_USB_OTG_Driver/src/usb_dcd_int.c ****       if ( diepint.b.xfercompl )
 949              		.loc 1 445 7 is_stmt 1 view .LVU324
 950 025e 5FFA8BF2 		uxtb	r2, fp	@ _426, epnum
 951              	.LVL64:
 952              	.LBB48:
 953              	.LBI48:
 819:../Libraries/STM32_USB_OTG_Driver/src/usb_dcd_int.c **** }
 820:../Libraries/STM32_USB_OTG_Driver/src/usb_dcd_int.c **** 
 821:../Libraries/STM32_USB_OTG_Driver/src/usb_dcd_int.c **** 
 822:../Libraries/STM32_USB_OTG_Driver/src/usb_dcd_int.c **** /**
 823:../Libraries/STM32_USB_OTG_Driver/src/usb_dcd_int.c **** * @brief  DCD_IsoINIncomplete_ISR
 824:../Libraries/STM32_USB_OTG_Driver/src/usb_dcd_int.c **** *         handle the ISO IN incomplete interrupt
 825:../Libraries/STM32_USB_OTG_Driver/src/usb_dcd_int.c **** * @param  pdev: device instance
 826:../Libraries/STM32_USB_OTG_Driver/src/usb_dcd_int.c **** * @retval status
 827:../Libraries/STM32_USB_OTG_Driver/src/usb_dcd_int.c **** */
 828:../Libraries/STM32_USB_OTG_Driver/src/usb_dcd_int.c **** static uint32_t DCD_IsoINIncomplete_ISR(USB_OTG_CORE_HANDLE *pdev)
 829:../Libraries/STM32_USB_OTG_Driver/src/usb_dcd_int.c **** {
 830:../Libraries/STM32_USB_OTG_Driver/src/usb_dcd_int.c ****   USB_OTG_GINTSTS_TypeDef gintsts;  
 831:../Libraries/STM32_USB_OTG_Driver/src/usb_dcd_int.c ****   
 832:../Libraries/STM32_USB_OTG_Driver/src/usb_dcd_int.c ****   gintsts.d32 = 0;
 833:../Libraries/STM32_USB_OTG_Driver/src/usb_dcd_int.c **** 
 834:../Libraries/STM32_USB_OTG_Driver/src/usb_dcd_int.c ****   USBD_DCD_INT_fops->IsoINIncomplete (pdev); 
 835:../Libraries/STM32_USB_OTG_Driver/src/usb_dcd_int.c ****   
 836:../Libraries/STM32_USB_OTG_Driver/src/usb_dcd_int.c ****   /* Clear interrupt */
 837:../Libraries/STM32_USB_OTG_Driver/src/usb_dcd_int.c ****   gintsts.b.incomplisoin = 1;
 838:../Libraries/STM32_USB_OTG_Driver/src/usb_dcd_int.c ****   USB_OTG_WRITE_REG32(&pdev->regs.GREGS->GINTSTS, gintsts.d32);
 839:../Libraries/STM32_USB_OTG_Driver/src/usb_dcd_int.c ****   
 840:../Libraries/STM32_USB_OTG_Driver/src/usb_dcd_int.c ****   return 1;
 841:../Libraries/STM32_USB_OTG_Driver/src/usb_dcd_int.c **** }
 842:../Libraries/STM32_USB_OTG_Driver/src/usb_dcd_int.c **** 
 843:../Libraries/STM32_USB_OTG_Driver/src/usb_dcd_int.c **** /**
 844:../Libraries/STM32_USB_OTG_Driver/src/usb_dcd_int.c **** * @brief  DCD_IsoOUTIncomplete_ISR
 845:../Libraries/STM32_USB_OTG_Driver/src/usb_dcd_int.c **** *         handle the ISO OUT incomplete interrupt
 846:../Libraries/STM32_USB_OTG_Driver/src/usb_dcd_int.c **** * @param  pdev: device instance
 847:../Libraries/STM32_USB_OTG_Driver/src/usb_dcd_int.c **** * @retval status
 848:../Libraries/STM32_USB_OTG_Driver/src/usb_dcd_int.c **** */
 849:../Libraries/STM32_USB_OTG_Driver/src/usb_dcd_int.c **** static uint32_t DCD_IsoOUTIncomplete_ISR(USB_OTG_CORE_HANDLE *pdev)
 850:../Libraries/STM32_USB_OTG_Driver/src/usb_dcd_int.c **** {
 851:../Libraries/STM32_USB_OTG_Driver/src/usb_dcd_int.c ****   USB_OTG_GINTSTS_TypeDef gintsts;  
 852:../Libraries/STM32_USB_OTG_Driver/src/usb_dcd_int.c ****   
 853:../Libraries/STM32_USB_OTG_Driver/src/usb_dcd_int.c ****   gintsts.d32 = 0;
 854:../Libraries/STM32_USB_OTG_Driver/src/usb_dcd_int.c **** 
 855:../Libraries/STM32_USB_OTG_Driver/src/usb_dcd_int.c ****   USBD_DCD_INT_fops->IsoOUTIncomplete (pdev); 
 856:../Libraries/STM32_USB_OTG_Driver/src/usb_dcd_int.c ****   
 857:../Libraries/STM32_USB_OTG_Driver/src/usb_dcd_int.c ****   /* Clear interrupt */
 858:../Libraries/STM32_USB_OTG_Driver/src/usb_dcd_int.c ****   gintsts.b.incomplisoout = 1;
 859:../Libraries/STM32_USB_OTG_Driver/src/usb_dcd_int.c ****   USB_OTG_WRITE_REG32(&pdev->regs.GREGS->GINTSTS, gintsts.d32);
 860:../Libraries/STM32_USB_OTG_Driver/src/usb_dcd_int.c ****   return 1;
ARM GAS  C:\Users\admin\AppData\Local\Temp\ccpMiuah.s 			page 38


 861:../Libraries/STM32_USB_OTG_Driver/src/usb_dcd_int.c **** }
 862:../Libraries/STM32_USB_OTG_Driver/src/usb_dcd_int.c **** /**
 863:../Libraries/STM32_USB_OTG_Driver/src/usb_dcd_int.c **** * @brief  DCD_ReadDevInEP
 864:../Libraries/STM32_USB_OTG_Driver/src/usb_dcd_int.c **** *         Reads ep flags
 865:../Libraries/STM32_USB_OTG_Driver/src/usb_dcd_int.c **** * @param  pdev: device instance
 866:../Libraries/STM32_USB_OTG_Driver/src/usb_dcd_int.c **** * @retval status
 867:../Libraries/STM32_USB_OTG_Driver/src/usb_dcd_int.c **** */
 868:../Libraries/STM32_USB_OTG_Driver/src/usb_dcd_int.c **** static uint32_t DCD_ReadDevInEP (USB_OTG_CORE_HANDLE *pdev, uint8_t epnum)
 954              		.loc 1 868 17 view .LVU325
 955              	.LBB49:
 869:../Libraries/STM32_USB_OTG_Driver/src/usb_dcd_int.c **** {
 870:../Libraries/STM32_USB_OTG_Driver/src/usb_dcd_int.c ****   uint32_t v, msk, emp;
 956              		.loc 1 870 3 view .LVU326
 871:../Libraries/STM32_USB_OTG_Driver/src/usb_dcd_int.c ****   msk = USB_OTG_READ_REG32(&pdev->regs.DREGS->DIEPMSK);
 957              		.loc 1 871 3 view .LVU327
 958              	@ ../Libraries/STM32_USB_OTG_Driver/src/usb_dcd_int.c:874:   v = USB_OTG_READ_REG32(&pdev->regs.INE
 872:../Libraries/STM32_USB_OTG_Driver/src/usb_dcd_int.c ****   emp = USB_OTG_READ_REG32(&pdev->regs.DREGS->DIEPEMPMSK);
 873:../Libraries/STM32_USB_OTG_Driver/src/usb_dcd_int.c ****   msk |= ((emp >> epnum) & 0x1) << 7;
 874:../Libraries/STM32_USB_OTG_Driver/src/usb_dcd_int.c ****   v = USB_OTG_READ_REG32(&pdev->regs.INEP_REGS[epnum]->DIEPINT) & msk;
 959              		.loc 1 874 7 is_stmt 0 view .LVU328
 960 0262 04EB8203 		add	r3, r4, r2, lsl #2	@ tmp376, pdev, _426,
 961 0266 9869     		ldr	r0, [r3, #24]	@ _104, pdev_32(D)->regs.INEP_REGS[_99]
 962              	@ ../Libraries/STM32_USB_OTG_Driver/src/usb_dcd_int.c:871:   msk = USB_OTG_READ_REG32(&pdev->regs.D
 871:../Libraries/STM32_USB_OTG_Driver/src/usb_dcd_int.c ****   msk = USB_OTG_READ_REG32(&pdev->regs.DREGS->DIEPMSK);
 963              		.loc 1 871 9 view .LVU329
 964 0268 2369     		ldr	r3, [r4, #16]	@ _95, pdev_32(D)->regs.DREGS
 965              	@ ../Libraries/STM32_USB_OTG_Driver/src/usb_dcd_int.c:871:   msk = USB_OTG_READ_REG32(&pdev->regs.D
 871:../Libraries/STM32_USB_OTG_Driver/src/usb_dcd_int.c ****   msk = USB_OTG_READ_REG32(&pdev->regs.DREGS->DIEPMSK);
 966              		.loc 1 871 7 view .LVU330
 967 026a 1969     		ldr	r1, [r3, #16]	@ msk, _95->DIEPMSK
 968              	.LVL65:
 872:../Libraries/STM32_USB_OTG_Driver/src/usb_dcd_int.c ****   emp = USB_OTG_READ_REG32(&pdev->regs.DREGS->DIEPEMPMSK);
 969              		.loc 1 872 3 is_stmt 1 view .LVU331
 970              	@ ../Libraries/STM32_USB_OTG_Driver/src/usb_dcd_int.c:872:   emp = USB_OTG_READ_REG32(&pdev->regs.D
 872:../Libraries/STM32_USB_OTG_Driver/src/usb_dcd_int.c ****   emp = USB_OTG_READ_REG32(&pdev->regs.DREGS->DIEPEMPMSK);
 971              		.loc 1 872 7 is_stmt 0 view .LVU332
 972 026c 5F6B     		ldr	r7, [r3, #52]	@ emp, _95->DIEPEMPMSK
 973              	.LVL66:
 873:../Libraries/STM32_USB_OTG_Driver/src/usb_dcd_int.c ****   v = USB_OTG_READ_REG32(&pdev->regs.INEP_REGS[epnum]->DIEPINT) & msk;
 974              		.loc 1 873 3 is_stmt 1 view .LVU333
 975              		.loc 1 874 3 view .LVU334
 976              	@ ../Libraries/STM32_USB_OTG_Driver/src/usb_dcd_int.c:874:   v = USB_OTG_READ_REG32(&pdev->regs.INE
 977              		.loc 1 874 7 is_stmt 0 view .LVU335
 978 026e 8068     		ldr	r0, [r0, #8]	@ _105, _104->DIEPINT
 979              	.LVL67:
 875:../Libraries/STM32_USB_OTG_Driver/src/usb_dcd_int.c ****   return v;
 980              		.loc 1 875 3 is_stmt 1 view .LVU336
 981              		.loc 1 875 3 is_stmt 0 view .LVU337
 982              	.LBE49:
 983              	.LBE48:
 446:../Libraries/STM32_USB_OTG_Driver/src/usb_dcd_int.c ****       {
 984              		.loc 1 446 7 is_stmt 1 view .LVU338
 985              	.LBB51:
 986              	.LBB50:
 987              	@ ../Libraries/STM32_USB_OTG_Driver/src/usb_dcd_int.c:874:   v = USB_OTG_READ_REG32(&pdev->regs.INE
 874:../Libraries/STM32_USB_OTG_Driver/src/usb_dcd_int.c ****   return v;
 988              		.loc 1 874 5 is_stmt 0 view .LVU339
ARM GAS  C:\Users\admin\AppData\Local\Temp\ccpMiuah.s 			page 39


 989 0270 0140     		ands	r1, r1, r0	@, v, msk, _105
 990              	.LBE50:
 991              	.LBE51:
 992              	@ ../Libraries/STM32_USB_OTG_Driver/src/usb_dcd_int.c:446:       if ( diepint.b.xfercompl )
 446:../Libraries/STM32_USB_OTG_Driver/src/usb_dcd_int.c ****       {
 993              		.loc 1 446 10 view .LVU340
 994 0272 C907     		lsls	r1, r1, #31	@, v,
 995 0274 D6D4     		bmi	.L132		@,
 467:../Libraries/STM32_USB_OTG_Driver/src/usb_dcd_int.c **** 
 996              		.loc 1 467 9 is_stmt 1 view .LVU341
 997              	.LVL68:
 998              	.LBB52:
 999              	.LBI52:
 655:../Libraries/STM32_USB_OTG_Driver/src/usb_dcd_int.c **** {
 1000              		.loc 1 655 17 view .LVU342
 1001              	.LBB53:
 657:../Libraries/STM32_USB_OTG_Driver/src/usb_dcd_int.c ****   USB_OTG_EP *ep;
 1002              		.loc 1 657 3 view .LVU343
 658:../Libraries/STM32_USB_OTG_Driver/src/usb_dcd_int.c ****   uint32_t len = 0;
 1003              		.loc 1 658 3 view .LVU344
 659:../Libraries/STM32_USB_OTG_Driver/src/usb_dcd_int.c ****   uint32_t len32b;
 1004              		.loc 1 659 3 view .LVU345
 660:../Libraries/STM32_USB_OTG_Driver/src/usb_dcd_int.c ****   txstatus.d32 = 0;
 1005              		.loc 1 660 3 view .LVU346
 661:../Libraries/STM32_USB_OTG_Driver/src/usb_dcd_int.c ****   
 1006              		.loc 1 661 3 view .LVU347
 663:../Libraries/STM32_USB_OTG_Driver/src/usb_dcd_int.c ****   
 1007              		.loc 1 663 3 view .LVU348
 665:../Libraries/STM32_USB_OTG_Driver/src/usb_dcd_int.c ****   
 1008              		.loc 1 665 3 view .LVU349
 1009              	@ ../Libraries/STM32_USB_OTG_Driver/src/usb_dcd_int.c:665:   len = ep->xfer_len - ep->xfer_count;
 665:../Libraries/STM32_USB_OTG_Driver/src/usb_dcd_int.c ****   
 1010              		.loc 1 665 26 is_stmt 0 view .LVU350
 1011 0276 D5E94C13 		ldrd	r1, r3, [r5, #304]	@ prephitmp_46, _142, ivtmp.33,
 1012              	@ ../Libraries/STM32_USB_OTG_Driver/src/usb_dcd_int.c:672:   len32b = (len + 3) / 4;
 672:../Libraries/STM32_USB_OTG_Driver/src/usb_dcd_int.c ****   txstatus.d32 = USB_OTG_READ_REG32( &pdev->regs.INEP_REGS[epnum]->DTXFSTS);
 1013              		.loc 1 672 17 view .LVU351
 1014 027a D5F82401 		ldr	r0, [r5, #292]	@ MEM[base: _433, offset: 292B], MEM[base: _433, offset: 292B]
 1015              	@ ../Libraries/STM32_USB_OTG_Driver/src/usb_dcd_int.c:673:   txstatus.d32 = USB_OTG_READ_REG32( &pd
 673:../Libraries/STM32_USB_OTG_Driver/src/usb_dcd_int.c ****   
 1016              		.loc 1 673 18 view .LVU352
 1017 027e DAF80060 		ldr	r6, [r10]	@ _152, MEM[base: _424, offset: 0B]
 1018              	@ ../Libraries/STM32_USB_OTG_Driver/src/usb_dcd_int.c:665:   len = ep->xfer_len - ep->xfer_count;
 665:../Libraries/STM32_USB_OTG_Driver/src/usb_dcd_int.c ****   
 1019              		.loc 1 665 7 view .LVU353
 1020 0282 A1EB030E 		sub	lr, r1, r3	@ len, prephitmp_46, _142
 1021              	.LVL69:
 667:../Libraries/STM32_USB_OTG_Driver/src/usb_dcd_int.c ****   {
 1022              		.loc 1 667 3 is_stmt 1 view .LVU354
 672:../Libraries/STM32_USB_OTG_Driver/src/usb_dcd_int.c ****   txstatus.d32 = USB_OTG_READ_REG32( &pdev->regs.INEP_REGS[epnum]->DTXFSTS);
 1023              		.loc 1 672 3 view .LVU355
 673:../Libraries/STM32_USB_OTG_Driver/src/usb_dcd_int.c ****   
 1024              		.loc 1 673 3 view .LVU356
 677:../Libraries/STM32_USB_OTG_Driver/src/usb_dcd_int.c ****           ep->xfer_count < ep->xfer_len &&
 1025              		.loc 1 677 3 view .LVU357
 677:../Libraries/STM32_USB_OTG_Driver/src/usb_dcd_int.c ****           ep->xfer_count < ep->xfer_len &&
 1026              		.loc 1 677 10 view .LVU358
ARM GAS  C:\Users\admin\AppData\Local\Temp\ccpMiuah.s 			page 40


 1027              	@ ../Libraries/STM32_USB_OTG_Driver/src/usb_dcd_int.c:672:   len32b = (len + 3) / 4;
 672:../Libraries/STM32_USB_OTG_Driver/src/usb_dcd_int.c ****   txstatus.d32 = USB_OTG_READ_REG32( &pdev->regs.INEP_REGS[epnum]->DTXFSTS);
 1028              		.loc 1 672 17 is_stmt 0 view .LVU359
 1029 0286 7045     		cmp	r0, lr	@ MEM[base: _433, offset: 292B], len
 1030              	@ ../Libraries/STM32_USB_OTG_Driver/src/usb_dcd_int.c:673:   txstatus.d32 = USB_OTG_READ_REG32( &pd
 673:../Libraries/STM32_USB_OTG_Driver/src/usb_dcd_int.c ****   
 1031              		.loc 1 673 18 view .LVU360
 1032 0288 B769     		ldr	r7, [r6, #24]	@ _128, _127->DTXFSTS
 1033              	@ ../Libraries/STM32_USB_OTG_Driver/src/usb_dcd_int.c:672:   len32b = (len + 3) / 4;
 672:../Libraries/STM32_USB_OTG_Driver/src/usb_dcd_int.c ****   txstatus.d32 = USB_OTG_READ_REG32( &pdev->regs.INEP_REGS[epnum]->DTXFSTS);
 1034              		.loc 1 672 17 view .LVU361
 1035 028a 28BF     		it	cs
 1036 028c 7046     		movcs	r0, lr	@ len, len
 1037              	.LVL70:
 1038              	@ ../Libraries/STM32_USB_OTG_Driver/src/usb_dcd_int.c:677:   while  (txstatus.b.txfspcavail > len32
 677:../Libraries/STM32_USB_OTG_Driver/src/usb_dcd_int.c ****           ep->xfer_count < ep->xfer_len &&
 1039              		.loc 1 677 10 view .LVU362
 1040 028e BFB2     		uxth	r7, r7	@ tmp398, _128
 1041              	@ ../Libraries/STM32_USB_OTG_Driver/src/usb_dcd_int.c:672:   len32b = (len + 3) / 4;
 672:../Libraries/STM32_USB_OTG_Driver/src/usb_dcd_int.c ****   txstatus.d32 = USB_OTG_READ_REG32( &pdev->regs.INEP_REGS[epnum]->DTXFSTS);
 1042              		.loc 1 672 17 view .LVU363
 1043 0290 0330     		adds	r0, r0, #3	@ tmp396, len,
 1044              	@ ../Libraries/STM32_USB_OTG_Driver/src/usb_dcd_int.c:677:   while  (txstatus.b.txfspcavail > len32
 677:../Libraries/STM32_USB_OTG_Driver/src/usb_dcd_int.c ****           ep->xfer_count < ep->xfer_len &&
 1045              		.loc 1 677 10 view .LVU364
 1046 0292 B7EB900F 		cmp	r7, r0, lsr #2	@ tmp398, tmp396,
 1047 0296 2BD9     		bls	.L21		@,
 1048 0298 3046     		mov	r0, r6	@ _152, _152
 1049 029a 9046     		mov	r8, r2	@ _426, _426
 1050 029c 23E0     		b	.L20		@
 1051              	.LVL71:
 1052              	.L23:
 677:../Libraries/STM32_USB_OTG_Driver/src/usb_dcd_int.c ****           ep->xfer_count < ep->xfer_len &&
 1053              		.loc 1 677 10 view .LVU365
 1054 029e D5F82431 		ldr	r3, [r5, #292]	@ MEM[base: _433, offset: 292B], MEM[base: _433, offset: 292B]
 1055              	@ ../Libraries/STM32_USB_OTG_Driver/src/usb_dcd_int.c:690:     USB_OTG_WritePacket (pdev , ep->xfer
 690:../Libraries/STM32_USB_OTG_Driver/src/usb_dcd_int.c ****     
 1056              		.loc 1 690 5 view .LVU366
 1057 02a2 D5F82811 		ldr	r1, [r5, #296]	@, MEM[base: _433, offset: 296B]
 1058 02a6 9E42     		cmp	r6, r3	@ len, MEM[base: _433, offset: 292B]
 1059 02a8 28BF     		it	cs
 1060 02aa 1E46     		movcs	r6, r3	@ len, MEM[base: _433, offset: 292B]
 1061              	.LVL72:
 688:../Libraries/STM32_USB_OTG_Driver/src/usb_dcd_int.c ****     
 1062              		.loc 1 688 5 is_stmt 1 view .LVU367
 1063              	@ ../Libraries/STM32_USB_OTG_Driver/src/usb_dcd_int.c:690:     USB_OTG_WritePacket (pdev , ep->xfer
 690:../Libraries/STM32_USB_OTG_Driver/src/usb_dcd_int.c ****     
 1064              		.loc 1 690 5 is_stmt 0 view .LVU368
 1065 02ac 4246     		mov	r2, r8	@, _426
 1066 02ae B3B2     		uxth	r3, r6	@, len
 1067 02b0 2046     		mov	r0, r4	@, pdev
 1068 02b2 FFF7FEFF 		bl	USB_OTG_WritePacket		@
 1069              	.LVL73:
 1070              	@ ../Libraries/STM32_USB_OTG_Driver/src/usb_dcd_int.c:693:     ep->xfer_count += len;
 693:../Libraries/STM32_USB_OTG_Driver/src/usb_dcd_int.c ****     
 1071              		.loc 1 693 20 view .LVU369
 1072 02b6 D5F83431 		ldr	r3, [r5, #308]	@ MEM[base: _433, offset: 308B], MEM[base: _433, offset: 308B]
ARM GAS  C:\Users\admin\AppData\Local\Temp\ccpMiuah.s 			page 41


 1073              	@ ../Libraries/STM32_USB_OTG_Driver/src/usb_dcd_int.c:692:     ep->xfer_buff  += len;
 692:../Libraries/STM32_USB_OTG_Driver/src/usb_dcd_int.c ****     ep->xfer_count += len;
 1074              		.loc 1 692 20 view .LVU370
 1075 02ba D5F82821 		ldr	r2, [r5, #296]	@ MEM[base: _433, offset: 296B], MEM[base: _433, offset: 296B]
 1076              	@ ../Libraries/STM32_USB_OTG_Driver/src/usb_dcd_int.c:695:     if( ep->xfer_count >= ep->xfer_len){
 695:../Libraries/STM32_USB_OTG_Driver/src/usb_dcd_int.c ****             uint32_t fifoemptymsk = 1 << ep->num;
 1077              		.loc 1 695 29 view .LVU371
 1078 02be D5F83011 		ldr	r1, [r5, #304]	@ prephitmp_46, MEM[base: _433, offset: 304B]
 1079              	@ ../Libraries/STM32_USB_OTG_Driver/src/usb_dcd_int.c:693:     ep->xfer_count += len;
 693:../Libraries/STM32_USB_OTG_Driver/src/usb_dcd_int.c ****     
 1080              		.loc 1 693 20 view .LVU372
 1081 02c2 3344     		add	r3, r3, r6	@ _142, len
 1082              	@ ../Libraries/STM32_USB_OTG_Driver/src/usb_dcd_int.c:688:     len32b = (len + 3) / 4;
 688:../Libraries/STM32_USB_OTG_Driver/src/usb_dcd_int.c ****     
 1083              		.loc 1 688 19 view .LVU373
 1084 02c4 F71C     		adds	r7, r6, #3	@ tmp401, len,
 1085              	@ ../Libraries/STM32_USB_OTG_Driver/src/usb_dcd_int.c:692:     ep->xfer_buff  += len;
 692:../Libraries/STM32_USB_OTG_Driver/src/usb_dcd_int.c ****     ep->xfer_count += len;
 1086              		.loc 1 692 20 view .LVU374
 1087 02c6 3244     		add	r2, r2, r6	@ tmp404, len
 1088              	@ ../Libraries/STM32_USB_OTG_Driver/src/usb_dcd_int.c:695:     if( ep->xfer_count >= ep->xfer_len){
 695:../Libraries/STM32_USB_OTG_Driver/src/usb_dcd_int.c ****             uint32_t fifoemptymsk = 1 << ep->num;
 1089              		.loc 1 695 7 view .LVU375
 1090 02c8 8B42     		cmp	r3, r1	@ _142, prephitmp_46
 1091              	@ ../Libraries/STM32_USB_OTG_Driver/src/usb_dcd_int.c:688:     len32b = (len + 3) / 4;
 688:../Libraries/STM32_USB_OTG_Driver/src/usb_dcd_int.c ****     
 1092              		.loc 1 688 12 view .LVU376
 1093 02ca 4FEA9707 		lsr	r7, r7, #2	@ len32b, tmp401,
 1094              	.LVL74:
 690:../Libraries/STM32_USB_OTG_Driver/src/usb_dcd_int.c ****     
 1095              		.loc 1 690 5 is_stmt 1 view .LVU377
 692:../Libraries/STM32_USB_OTG_Driver/src/usb_dcd_int.c ****     ep->xfer_count += len;
 1096              		.loc 1 692 5 view .LVU378
 701:../Libraries/STM32_USB_OTG_Driver/src/usb_dcd_int.c ****   }
 1097              		.loc 1 701 5 view .LVU379
 1098              	@ ../Libraries/STM32_USB_OTG_Driver/src/usb_dcd_int.c:692:     ep->xfer_buff  += len;
 692:../Libraries/STM32_USB_OTG_Driver/src/usb_dcd_int.c ****     ep->xfer_count += len;
 1099              		.loc 1 692 20 is_stmt 0 view .LVU380
 1100 02ce C5F82821 		str	r2, [r5, #296]	@ tmp404, MEM[base: _433, offset: 296B]
 693:../Libraries/STM32_USB_OTG_Driver/src/usb_dcd_int.c ****     
 1101              		.loc 1 693 5 is_stmt 1 view .LVU381
 1102              	@ ../Libraries/STM32_USB_OTG_Driver/src/usb_dcd_int.c:693:     ep->xfer_count += len;
 693:../Libraries/STM32_USB_OTG_Driver/src/usb_dcd_int.c ****     
 1103              		.loc 1 693 20 is_stmt 0 view .LVU382
 1104 02d2 C5F83431 		str	r3, [r5, #308]	@ _142, MEM[base: _433, offset: 308B]
 695:../Libraries/STM32_USB_OTG_Driver/src/usb_dcd_int.c ****             uint32_t fifoemptymsk = 1 << ep->num;
 1105              		.loc 1 695 5 is_stmt 1 view .LVU383
 1106              	@ ../Libraries/STM32_USB_OTG_Driver/src/usb_dcd_int.c:695:     if( ep->xfer_count >= ep->xfer_len){
 695:../Libraries/STM32_USB_OTG_Driver/src/usb_dcd_int.c ****             uint32_t fifoemptymsk = 1 << ep->num;
 1107              		.loc 1 695 7 is_stmt 0 view .LVU384
 1108 02d6 80F0DC80 		bcs	.L133		@,
 1109              	@ ../Libraries/STM32_USB_OTG_Driver/src/usb_dcd_int.c:701:     txstatus.d32 = USB_OTG_READ_REG32(&p
 701:../Libraries/STM32_USB_OTG_Driver/src/usb_dcd_int.c ****   }
 1110              		.loc 1 701 20 view .LVU385
 1111 02da DAF80000 		ldr	r0, [r10]	@ _152, MEM[base: _424, offset: 0B]
 1112 02de 8269     		ldr	r2, [r0, #24]	@ _153, _152->DTXFSTS
 677:../Libraries/STM32_USB_OTG_Driver/src/usb_dcd_int.c ****           ep->xfer_count < ep->xfer_len &&
ARM GAS  C:\Users\admin\AppData\Local\Temp\ccpMiuah.s 			page 42


 1113              		.loc 1 677 10 is_stmt 1 view .LVU386
 1114 02e0 92B2     		uxth	r2, r2	@ tmp411, _153
 1115 02e2 9742     		cmp	r7, r2	@ len32b, tmp411
 1116 02e4 03D2     		bcs	.L119		@,
 1117              	.LVL75:
 1118              	.L20:
 682:../Libraries/STM32_USB_OTG_Driver/src/usb_dcd_int.c ****     
 1119              		.loc 1 682 5 view .LVU387
 1120              	@ ../Libraries/STM32_USB_OTG_Driver/src/usb_dcd_int.c:678:           ep->xfer_count < ep->xfer_len 
 678:../Libraries/STM32_USB_OTG_Driver/src/usb_dcd_int.c ****             ep->xfer_len != 0)
 1121              		.loc 1 678 41 is_stmt 0 view .LVU388
 1122 02e6 9942     		cmp	r1, r3	@ prephitmp_46, _142
 1123              	@ ../Libraries/STM32_USB_OTG_Driver/src/usb_dcd_int.c:682:     len = ep->xfer_len - ep->xfer_count;
 682:../Libraries/STM32_USB_OTG_Driver/src/usb_dcd_int.c ****     
 1124              		.loc 1 682 9 view .LVU389
 1125 02e8 A1EB0306 		sub	r6, r1, r3	@ len, prephitmp_46, _142
 1126              	.LVL76:
 684:../Libraries/STM32_USB_OTG_Driver/src/usb_dcd_int.c ****     {
 1127              		.loc 1 684 5 is_stmt 1 view .LVU390
 1128              	@ ../Libraries/STM32_USB_OTG_Driver/src/usb_dcd_int.c:678:           ep->xfer_count < ep->xfer_len 
 678:../Libraries/STM32_USB_OTG_Driver/src/usb_dcd_int.c ****             ep->xfer_len != 0)
 1129              		.loc 1 678 41 is_stmt 0 view .LVU391
 1130 02ec D7D8     		bhi	.L23		@,
 1131              	.L119:
 678:../Libraries/STM32_USB_OTG_Driver/src/usb_dcd_int.c ****             ep->xfer_len != 0)
 1132              		.loc 1 678 41 view .LVU392
 1133 02ee 0646     		mov	r6, r0	@ _152, _152
 1134              	.LVL77:
 1135              	.L21:
 704:../Libraries/STM32_USB_OTG_Driver/src/usb_dcd_int.c **** }
 1136              		.loc 1 704 3 is_stmt 1 view .LVU393
 704:../Libraries/STM32_USB_OTG_Driver/src/usb_dcd_int.c **** }
 1137              		.loc 1 704 3 is_stmt 0 view .LVU394
 1138              	.LBE53:
 1139              	.LBE52:
 469:../Libraries/STM32_USB_OTG_Driver/src/usb_dcd_int.c ****       }
 1140              		.loc 1 469 9 is_stmt 1 view .LVU395
 469:../Libraries/STM32_USB_OTG_Driver/src/usb_dcd_int.c ****       }
 1141              		.loc 1 469 9 view .LVU396
 469:../Libraries/STM32_USB_OTG_Driver/src/usb_dcd_int.c ****       }
 1142              		.loc 1 469 9 view .LVU397
 1143 02f0 8023     		movs	r3, #128	@ tmp629,
 1144 02f2 B360     		str	r3, [r6, #8]	@ tmp629, prephitmp_137->DIEPINT
 1145 02f4 A7E7     		b	.L18		@
 1146              	.LVL78:
 1147              	.L131:
 469:../Libraries/STM32_USB_OTG_Driver/src/usb_dcd_int.c ****       }
 1148              		.loc 1 469 9 is_stmt 0 view .LVU398
 1149 02f6 019E     		ldr	r6, [sp, #4]	@ _2, %sfp
 1150              	.LVL79:
 1151              	.L25:
 469:../Libraries/STM32_USB_OTG_Driver/src/usb_dcd_int.c ****       }
 1152              		.loc 1 469 9 view .LVU399
 1153              	.LBE47:
 1154              	.LBE46:
 1155              	@ ../Libraries/STM32_USB_OTG_Driver/src/usb_dcd_int.c:232:       retval |= DCD_HandleInEP_ISR(pdev)
 232:../Libraries/STM32_USB_OTG_Driver/src/usb_dcd_int.c ****     }
ARM GAS  C:\Users\admin\AppData\Local\Temp\ccpMiuah.s 			page 43


 1156              		.loc 1 232 14 view .LVU400
 1157 02f8 0120     		movs	r0, #1	@ <retval>,
 1158 02fa 99E6     		b	.L16		@
 1159              	.L136:
 1160              		.align	2
 1161              	.L135:
 1162 02fc 00000000 		.word	USBD_DCD_INT_fops
 1163              	.LVL80:
 1164              	.L126:
 254:../Libraries/STM32_USB_OTG_Driver/src/usb_dcd_int.c ****     }
 1165              		.loc 1 254 7 is_stmt 1 view .LVU401
 1166              	.LBB61:
 1167              	.LBI61:
 390:../Libraries/STM32_USB_OTG_Driver/src/usb_dcd_int.c **** {
 1168              		.loc 1 390 17 view .LVU402
 1169              	.LBB62:
 392:../Libraries/STM32_USB_OTG_Driver/src/usb_dcd_int.c ****   USB_OTG_PCGCCTL_TypeDef  power;
 1170              		.loc 1 392 3 view .LVU403
 393:../Libraries/STM32_USB_OTG_Driver/src/usb_dcd_int.c ****   USB_OTG_DSTS_TypeDef     dsts;
 1171              		.loc 1 393 3 view .LVU404
 394:../Libraries/STM32_USB_OTG_Driver/src/usb_dcd_int.c ****   __IO uint8_t prev_status = 0;
 1172              		.loc 1 394 3 view .LVU405
 395:../Libraries/STM32_USB_OTG_Driver/src/usb_dcd_int.c ****   
 1173              		.loc 1 395 3 view .LVU406
 1174              	@ ../Libraries/STM32_USB_OTG_Driver/src/usb_dcd_int.c:398:   USBD_DCD_INT_fops->Suspend (pdev);    
 398:../Libraries/STM32_USB_OTG_Driver/src/usb_dcd_int.c ****   
 1175              		.loc 1 398 20 is_stmt 0 view .LVU407
 1176 0300 6A4B     		ldr	r3, .L137	@ tmp435,
 1177              	@ ../Libraries/STM32_USB_OTG_Driver/src/usb_dcd_int.c:397:   prev_status = pdev->dev.device_status;
 397:../Libraries/STM32_USB_OTG_Driver/src/usb_dcd_int.c ****   USBD_DCD_INT_fops->Suspend (pdev);      
 1178              		.loc 1 397 26 view .LVU408
 1179 0302 94F81221 		ldrb	r2, [r4, #274]	@ zero_extendqisi2	@ _167, pdev_32(D)->dev.device_status
 1180              	@ ../Libraries/STM32_USB_OTG_Driver/src/usb_dcd_int.c:398:   USBD_DCD_INT_fops->Suspend (pdev);    
 398:../Libraries/STM32_USB_OTG_Driver/src/usb_dcd_int.c ****   
 1181              		.loc 1 398 20 view .LVU409
 1182 0306 1B68     		ldr	r3, [r3]	@ USBD_DCD_INT_fops, USBD_DCD_INT_fops
 1183              	@ ../Libraries/STM32_USB_OTG_Driver/src/usb_dcd_int.c:395:   __IO uint8_t prev_status = 0;
 395:../Libraries/STM32_USB_OTG_Driver/src/usb_dcd_int.c ****   
 1184              		.loc 1 395 16 view .LVU410
 1185 0308 0021     		movs	r1, #0	@ tmp431,
 1186              	@ ../Libraries/STM32_USB_OTG_Driver/src/usb_dcd_int.c:398:   USBD_DCD_INT_fops->Suspend (pdev);    
 398:../Libraries/STM32_USB_OTG_Driver/src/usb_dcd_int.c ****   
 1187              		.loc 1 398 3 view .LVU411
 1188 030a 5B69     		ldr	r3, [r3, #20]	@ USBD_DCD_INT_fops.4_168->Suspend, USBD_DCD_INT_fops.4_168->Suspend
 1189              	@ ../Libraries/STM32_USB_OTG_Driver/src/usb_dcd_int.c:395:   __IO uint8_t prev_status = 0;
 395:../Libraries/STM32_USB_OTG_Driver/src/usb_dcd_int.c ****   
 1190              		.loc 1 395 16 view .LVU412
 1191 030c 8DF80F10 		strb	r1, [sp, #15]	@ tmp431, prev_status
 397:../Libraries/STM32_USB_OTG_Driver/src/usb_dcd_int.c ****   USBD_DCD_INT_fops->Suspend (pdev);      
 1192              		.loc 1 397 3 is_stmt 1 view .LVU413
 1193              	@ ../Libraries/STM32_USB_OTG_Driver/src/usb_dcd_int.c:398:   USBD_DCD_INT_fops->Suspend (pdev);    
 398:../Libraries/STM32_USB_OTG_Driver/src/usb_dcd_int.c ****   
 1194              		.loc 1 398 3 is_stmt 0 view .LVU414
 1195 0310 2046     		mov	r0, r4	@, pdev
 1196              	.LVL81:
 1197              	@ ../Libraries/STM32_USB_OTG_Driver/src/usb_dcd_int.c:397:   prev_status = pdev->dev.device_status;
 397:../Libraries/STM32_USB_OTG_Driver/src/usb_dcd_int.c ****   USBD_DCD_INT_fops->Suspend (pdev);      
ARM GAS  C:\Users\admin\AppData\Local\Temp\ccpMiuah.s 			page 44


 1198              		.loc 1 397 15 view .LVU415
 1199 0312 8DF80F20 		strb	r2, [sp, #15]	@ _167, prev_status
 398:../Libraries/STM32_USB_OTG_Driver/src/usb_dcd_int.c ****   
 1200              		.loc 1 398 3 is_stmt 1 view .LVU416
 1201 0316 9847     		blx	r3		@ USBD_DCD_INT_fops.4_168->Suspend
 1202              	.LVL82:
 400:../Libraries/STM32_USB_OTG_Driver/src/usb_dcd_int.c ****     
 1203              		.loc 1 400 3 view .LVU417
 1204              	@ ../Libraries/STM32_USB_OTG_Driver/src/usb_dcd_int.c:405:   USB_OTG_WRITE_REG32(&pdev->regs.GREGS-
 405:../Libraries/STM32_USB_OTG_Driver/src/usb_dcd_int.c ****   
 1205              		.loc 1 405 3 is_stmt 0 view .LVU418
 1206 0318 D4E90332 		ldrd	r3, r2, [r4, #12]	@ _172, _170, pdev,
 1207              	@ ../Libraries/STM32_USB_OTG_Driver/src/usb_dcd_int.c:400:   dsts.d32 = USB_OTG_READ_REG32(&pdev->r
 400:../Libraries/STM32_USB_OTG_Driver/src/usb_dcd_int.c ****     
 1208              		.loc 1 400 14 view .LVU419
 1209 031c 9168     		ldr	r1, [r2, #8]	@ _171, _170->DSTS
 1210              	.LVL83:
 403:../Libraries/STM32_USB_OTG_Driver/src/usb_dcd_int.c ****   gintsts.b.usbsuspend = 1;
 1211              		.loc 1 403 3 is_stmt 1 view .LVU420
 404:../Libraries/STM32_USB_OTG_Driver/src/usb_dcd_int.c ****   USB_OTG_WRITE_REG32(&pdev->regs.GREGS->GINTSTS, gintsts.d32);
 1212              		.loc 1 404 3 view .LVU421
 405:../Libraries/STM32_USB_OTG_Driver/src/usb_dcd_int.c ****   
 1213              		.loc 1 405 3 view .LVU422
 1214 031e 4FF40062 		mov	r2, #2048	@ tmp437,
 1215 0322 5A61     		str	r2, [r3, #20]	@ tmp437, _172->GINTSTS
 407:../Libraries/STM32_USB_OTG_Driver/src/usb_dcd_int.c ****     (pdev->dev.connection_status == 1) && 
 1216              		.loc 1 407 3 view .LVU423
 1217              	@ ../Libraries/STM32_USB_OTG_Driver/src/usb_dcd_int.c:407:   if((pdev->cfg.low_power) && (dsts.b.su
 407:../Libraries/STM32_USB_OTG_Driver/src/usb_dcd_int.c ****     (pdev->dev.connection_status == 1) && 
 1218              		.loc 1 407 5 is_stmt 0 view .LVU424
 1219 0324 A37A     		ldrb	r3, [r4, #10]	@ zero_extendqisi2	@ pdev_32(D)->cfg.low_power, pdev_32(D)->cfg.low_power
 1220 0326 D3B1     		cbz	r3, .L43	@ pdev_32(D)->cfg.low_power,
 1221              	@ ../Libraries/STM32_USB_OTG_Driver/src/usb_dcd_int.c:407:   if((pdev->cfg.low_power) && (dsts.b.su
 407:../Libraries/STM32_USB_OTG_Driver/src/usb_dcd_int.c ****     (pdev->dev.connection_status == 1) && 
 1222              		.loc 1 407 28 view .LVU425
 1223 0328 CB07     		lsls	r3, r1, #31	@, _171,
 1224 032a 18D5     		bpl	.L43		@,
 1225              	@ ../Libraries/STM32_USB_OTG_Driver/src/usb_dcd_int.c:407:   if((pdev->cfg.low_power) && (dsts.b.su
 407:../Libraries/STM32_USB_OTG_Driver/src/usb_dcd_int.c ****     (pdev->dev.connection_status == 1) && 
 1226              		.loc 1 407 54 view .LVU426
 1227 032c 94F81501 		ldrb	r0, [r4, #277]	@ zero_extendqisi2	@ pdev_32(D)->dev.connection_status, pdev_32(D)->dev.connec
 1228 0330 0128     		cmp	r0, #1	@ pdev_32(D)->dev.connection_status,
 1229 0332 14D1     		bne	.L43		@,
 1230              	@ ../Libraries/STM32_USB_OTG_Driver/src/usb_dcd_int.c:409:     (prev_status  == USB_OTG_CONFIGURED)
 409:../Libraries/STM32_USB_OTG_Driver/src/usb_dcd_int.c ****   {
 1231              		.loc 1 409 19 view .LVU427
 1232 0334 9DF80F30 		ldrb	r3, [sp, #15]	@ zero_extendqisi2	@ prev_status, prev_status
 1233              	@ ../Libraries/STM32_USB_OTG_Driver/src/usb_dcd_int.c:408:     (pdev->dev.connection_status == 1) &
 408:../Libraries/STM32_USB_OTG_Driver/src/usb_dcd_int.c ****     (prev_status  == USB_OTG_CONFIGURED))
 1234              		.loc 1 408 40 view .LVU428
 1235 0338 032B     		cmp	r3, #3	@ prev_status,
 1236 033a 7FF481AE 		bne	.L28		@,
 412:../Libraries/STM32_USB_OTG_Driver/src/usb_dcd_int.c ****     power.b.stoppclk = 1;
 1237              		.loc 1 412 5 is_stmt 1 view .LVU429
 413:../Libraries/STM32_USB_OTG_Driver/src/usb_dcd_int.c ****     USB_OTG_MODIFY_REG32(pdev->regs.PCGCCTL, 0, power.d32);  
 1238              		.loc 1 413 5 view .LVU430
 414:../Libraries/STM32_USB_OTG_Driver/src/usb_dcd_int.c ****     
ARM GAS  C:\Users\admin\AppData\Local\Temp\ccpMiuah.s 			page 45


 1239              		.loc 1 414 5 view .LVU431
 1240 033e D4F80C31 		ldr	r3, [r4, #268]	@ _178, pdev_32(D)->regs.PCGCCTL
 1241 0342 1A68     		ldr	r2, [r3]	@ _179, *_178
 1242 0344 42F00102 		orr	r2, r2, #1	@ _180, _179,
 1243 0348 1A60     		str	r2, [r3]	@ _180, *_178
 416:../Libraries/STM32_USB_OTG_Driver/src/usb_dcd_int.c ****     USB_OTG_MODIFY_REG32(pdev->regs.PCGCCTL, 0, power.d32);
 1244              		.loc 1 416 5 view .LVU432
 417:../Libraries/STM32_USB_OTG_Driver/src/usb_dcd_int.c ****     
 1245              		.loc 1 417 5 view .LVU433
 1246 034a 1A68     		ldr	r2, [r3]	@ _181, *_178
 1247 034c 42F00302 		orr	r2, r2, #3	@ _182, _181,
 1248 0350 1A60     		str	r2, [r3]	@ _182, *_178
 420:../Libraries/STM32_USB_OTG_Driver/src/usb_dcd_int.c ****   }
 1249              		.loc 1 420 5 view .LVU434
 1250              	@ ../Libraries/STM32_USB_OTG_Driver/src/usb_dcd_int.c:420:     SCB->SCR |= (SCB_SCR_SLEEPDEEP_Msk |
 420:../Libraries/STM32_USB_OTG_Driver/src/usb_dcd_int.c ****   }
 1251              		.loc 1 420 14 is_stmt 0 view .LVU435
 1252 0352 574A     		ldr	r2, .L137+4	@ tmp447,
 1253 0354 1369     		ldr	r3, [r2, #16]	@ _183, MEM[(struct SCB_Type *)3758157056B].SCR
 1254 0356 43F00603 		orr	r3, r3, #6	@ _184, _183,
 1255 035a 1361     		str	r3, [r2, #16]	@ _184, MEM[(struct SCB_Type *)3758157056B].SCR
 1256 035c 70E6     		b	.L28		@
 1257              	.L43:
 420:../Libraries/STM32_USB_OTG_Driver/src/usb_dcd_int.c ****   }
 1258              		.loc 1 420 14 view .LVU436
 1259              	.LBE62:
 1260              	.LBE61:
 1261              	@ ../Libraries/STM32_USB_OTG_Driver/src/usb_dcd_int.c:254:       retval |= DCD_HandleUSBSuspend_ISR
 254:../Libraries/STM32_USB_OTG_Driver/src/usb_dcd_int.c ****     }
 1262              		.loc 1 254 14 view .LVU437
 1263 035e 0120     		movs	r0, #1	@ <retval>,
 1264 0360 6EE6     		b	.L28		@
 1265              	.LVL84:
 1266              	.L123:
 226:../Libraries/STM32_USB_OTG_Driver/src/usb_dcd_int.c ****     }    
 1267              		.loc 1 226 7 is_stmt 1 view .LVU438
 1268              	.LBB63:
 1269              	.LBI63:
 509:../Libraries/STM32_USB_OTG_Driver/src/usb_dcd_int.c **** {
 1270              		.loc 1 509 17 view .LVU439
 1271              	.LBB64:
 511:../Libraries/STM32_USB_OTG_Driver/src/usb_dcd_int.c ****   USB_OTG_DOEPINTn_TypeDef  doepint;
 1272              		.loc 1 511 3 view .LVU440
 512:../Libraries/STM32_USB_OTG_Driver/src/usb_dcd_int.c ****   USB_OTG_DEPXFRSIZ_TypeDef  deptsiz;
 1273              		.loc 1 512 3 view .LVU441
 513:../Libraries/STM32_USB_OTG_Driver/src/usb_dcd_int.c ****   uint32_t epnum = 0;
 1274              		.loc 1 513 3 view .LVU442
 514:../Libraries/STM32_USB_OTG_Driver/src/usb_dcd_int.c ****   
 1275              		.loc 1 514 3 view .LVU443
 516:../Libraries/STM32_USB_OTG_Driver/src/usb_dcd_int.c ****   
 1276              		.loc 1 516 3 view .LVU444
 519:../Libraries/STM32_USB_OTG_Driver/src/usb_dcd_int.c ****   
 1277              		.loc 1 519 3 view .LVU445
 1278              	@ ../Libraries/STM32_USB_OTG_Driver/src/usb_dcd_int.c:519:   ep_intr = USB_OTG_ReadDevAllOutEp_itr(
 519:../Libraries/STM32_USB_OTG_Driver/src/usb_dcd_int.c ****   
 1279              		.loc 1 519 13 is_stmt 0 view .LVU446
 1280 0362 2046     		mov	r0, r4	@, pdev
ARM GAS  C:\Users\admin\AppData\Local\Temp\ccpMiuah.s 			page 46


 1281 0364 FFF7FEFF 		bl	USB_OTG_ReadDevAllOutEp_itr		@
 1282              	.LVL85:
 521:../Libraries/STM32_USB_OTG_Driver/src/usb_dcd_int.c ****   {
 1283              		.loc 1 521 3 is_stmt 1 view .LVU447
 521:../Libraries/STM32_USB_OTG_Driver/src/usb_dcd_int.c ****   {
 1284              		.loc 1 521 9 view .LVU448
 1285 0368 0546     		mov	r5, r0	@ ep_intr, tmp592
 1286 036a 0028     		cmp	r0, #0	@ ep_intr
 1287 036c 4ED0     		beq	.L15	@
 1288              	@ ../Libraries/STM32_USB_OTG_Driver/src/usb_dcd_int.c:542:         USBD_DCD_INT_fops->DataOutStage(
 542:../Libraries/STM32_USB_OTG_Driver/src/usb_dcd_int.c ****         
 1289              		.loc 1 542 26 is_stmt 0 view .LVU449
 1290 036e DFF83CA1 		ldr	r10, .L137	@ tmp587,
 1291 0372 04F15407 		add	r7, r4, #84	@ ivtmp.39, pdev,
 1292 0376 A346     		mov	fp, r4	@ ivtmp.44, pdev
 1293              	@ ../Libraries/STM32_USB_OTG_Driver/src/usb_dcd_int.c:514:   uint32_t epnum = 0;
 514:../Libraries/STM32_USB_OTG_Driver/src/usb_dcd_int.c ****   
 1294              		.loc 1 514 12 view .LVU450
 1295 0378 4FF00008 		mov	r8, #0	@ epnum,
 1296 037c 07E0     		b	.L14		@
 1297              	.LVL86:
 1298              	.L6:
 566:../Libraries/STM32_USB_OTG_Driver/src/usb_dcd_int.c ****       }
 1299              		.loc 1 566 40 is_stmt 1 view .LVU451
 569:../Libraries/STM32_USB_OTG_Driver/src/usb_dcd_int.c ****     ep_intr >>= 1;
 1300              		.loc 1 569 5 view .LVU452
 1301              	@ ../Libraries/STM32_USB_OTG_Driver/src/usb_dcd_int.c:521:   while ( ep_intr )
 521:../Libraries/STM32_USB_OTG_Driver/src/usb_dcd_int.c ****   {
 1302              		.loc 1 521 9 is_stmt 0 view .LVU453
 1303 037e 6D08     		lsrs	r5, r5, #1	@ ep_intr, ep_intr,
 1304              	.LVL87:
 1305              	@ ../Libraries/STM32_USB_OTG_Driver/src/usb_dcd_int.c:569:     epnum++;
 569:../Libraries/STM32_USB_OTG_Driver/src/usb_dcd_int.c ****     ep_intr >>= 1;
 1306              		.loc 1 569 10 view .LVU454
 1307 0380 08F10108 		add	r8, r8, #1	@ epnum, epnum,
 1308              	.LVL88:
 570:../Libraries/STM32_USB_OTG_Driver/src/usb_dcd_int.c ****   }
 1309              		.loc 1 570 5 is_stmt 1 view .LVU455
 521:../Libraries/STM32_USB_OTG_Driver/src/usb_dcd_int.c ****   {
 1310              		.loc 1 521 9 view .LVU456
 1311 0384 07F10407 		add	r7, r7, #4	@ ivtmp.39, ivtmp.39,
 1312 0388 0BF1280B 		add	fp, fp, #40	@ ivtmp.44, ivtmp.44,
 1313 038c 3ED0     		beq	.L15		@,
 1314              	.LVL89:
 1315              	.L14:
 523:../Libraries/STM32_USB_OTG_Driver/src/usb_dcd_int.c ****     {
 1316              		.loc 1 523 5 view .LVU457
 1317              	@ ../Libraries/STM32_USB_OTG_Driver/src/usb_dcd_int.c:523:     if (ep_intr&0x1)
 523:../Libraries/STM32_USB_OTG_Driver/src/usb_dcd_int.c ****     {
 1318              		.loc 1 523 8 is_stmt 0 view .LVU458
 1319 038e E907     		lsls	r1, r5, #31	@, ep_intr,
 1320 0390 F5D5     		bpl	.L6		@,
 526:../Libraries/STM32_USB_OTG_Driver/src/usb_dcd_int.c ****       
 1321              		.loc 1 526 7 is_stmt 1 view .LVU459
 1322 0392 5FFA88F1 		uxtb	r1, r8	@ _449, epnum
 1323              	@ ../Libraries/STM32_USB_OTG_Driver/src/usb_dcd_int.c:526:       doepint.d32 = USB_OTG_ReadDevOutEP
 526:../Libraries/STM32_USB_OTG_Driver/src/usb_dcd_int.c ****       
ARM GAS  C:\Users\admin\AppData\Local\Temp\ccpMiuah.s 			page 47


 1324              		.loc 1 526 21 is_stmt 0 view .LVU460
 1325 0396 2046     		mov	r0, r4	@, pdev
 1326 0398 0191     		str	r1, [sp, #4]	@ _449, %sfp
 1327 039a FFF7FEFF 		bl	USB_OTG_ReadDevOutEP_itr		@
 1328              	.LVL90:
 529:../Libraries/STM32_USB_OTG_Driver/src/usb_dcd_int.c ****       {
 1329              		.loc 1 529 7 is_stmt 1 view .LVU461
 1330              	@ ../Libraries/STM32_USB_OTG_Driver/src/usb_dcd_int.c:529:       if ( doepint.b.xfercompl )
 529:../Libraries/STM32_USB_OTG_Driver/src/usb_dcd_int.c ****       {
 1331              		.loc 1 529 10 is_stmt 0 view .LVU462
 1332 039e 10F0010F 		tst	r0, #1	@ tmp593,
 1333 03a2 0199     		ldr	r1, [sp, #4]	@ _449, %sfp
 1334 03a4 C3B2     		uxtb	r3, r0	@ _67, tmp593
 1335 03a6 05D1     		bne	.L7		@,
 554:../Libraries/STM32_USB_OTG_Driver/src/usb_dcd_int.c ****       {
 1336              		.loc 1 554 7 is_stmt 1 view .LVU463
 1337              	@ ../Libraries/STM32_USB_OTG_Driver/src/usb_dcd_int.c:554:       if ( doepint.b.epdisabled )
 554:../Libraries/STM32_USB_OTG_Driver/src/usb_dcd_int.c ****       {
 1338              		.loc 1 554 10 is_stmt 0 view .LVU464
 1339 03a8 9A07     		lsls	r2, r3, #30	@, _67,
 1340 03aa 24D5     		bpl	.L134		@,
 557:../Libraries/STM32_USB_OTG_Driver/src/usb_dcd_int.c ****       }
 1341              		.loc 1 557 9 is_stmt 1 view .LVU465
 557:../Libraries/STM32_USB_OTG_Driver/src/usb_dcd_int.c ****       }
 1342              		.loc 1 557 9 view .LVU466
 557:../Libraries/STM32_USB_OTG_Driver/src/usb_dcd_int.c ****       }
 1343              		.loc 1 557 9 view .LVU467
 1344 03ac 3B68     		ldr	r3, [r7]	@ _82, MEM[base: _447, offset: 0B]
 1345 03ae 0222     		movs	r2, #2	@ tmp622,
 1346 03b0 9A60     		str	r2, [r3, #8]	@ tmp622,
 557:../Libraries/STM32_USB_OTG_Driver/src/usb_dcd_int.c ****       }
 1347              		.loc 1 557 45 view .LVU468
 560:../Libraries/STM32_USB_OTG_Driver/src/usb_dcd_int.c ****       {
 1348              		.loc 1 560 7 view .LVU469
 1349 03b2 E4E7     		b	.L6		@
 1350              	.L7:
 532:../Libraries/STM32_USB_OTG_Driver/src/usb_dcd_int.c ****         if (pdev->cfg.dma_enable == 1)
 1351              		.loc 1 532 9 view .LVU470
 532:../Libraries/STM32_USB_OTG_Driver/src/usb_dcd_int.c ****         if (pdev->cfg.dma_enable == 1)
 1352              		.loc 1 532 9 view .LVU471
 532:../Libraries/STM32_USB_OTG_Driver/src/usb_dcd_int.c ****         if (pdev->cfg.dma_enable == 1)
 1353              		.loc 1 532 9 view .LVU472
 1354 03b4 3B68     		ldr	r3, [r7]	@ _69, MEM[base: _448, offset: 0B]
 1355 03b6 0122     		movs	r2, #1	@ tmp620,
 1356 03b8 9A60     		str	r2, [r3, #8]	@ tmp620, _69->DOEPINT
 532:../Libraries/STM32_USB_OTG_Driver/src/usb_dcd_int.c ****         if (pdev->cfg.dma_enable == 1)
 1357              		.loc 1 532 44 view .LVU473
 533:../Libraries/STM32_USB_OTG_Driver/src/usb_dcd_int.c ****         {
 1358              		.loc 1 533 9 view .LVU474
 1359              	@ ../Libraries/STM32_USB_OTG_Driver/src/usb_dcd_int.c:533:         if (pdev->cfg.dma_enable == 1)
 533:../Libraries/STM32_USB_OTG_Driver/src/usb_dcd_int.c ****         {
 1360              		.loc 1 533 12 is_stmt 0 view .LVU475
 1361 03ba E278     		ldrb	r2, [r4, #3]	@ zero_extendqisi2	@ pdev_32(D)->cfg.dma_enable, pdev_32(D)->cfg.dma_enable
 1362 03bc 012A     		cmp	r2, #1	@ pdev_32(D)->cfg.dma_enable,
 1363 03be 07D1     		bne	.L10		@,
 535:../Libraries/STM32_USB_OTG_Driver/src/usb_dcd_int.c ****           /*ToDo : handle more than one single MPS size packet */
 1364              		.loc 1 535 11 is_stmt 1 view .LVU476
ARM GAS  C:\Users\admin\AppData\Local\Temp\ccpMiuah.s 			page 48


 1365              	@ ../Libraries/STM32_USB_OTG_Driver/src/usb_dcd_int.c:535:           deptsiz.d32 = USB_OTG_READ_REG
 535:../Libraries/STM32_USB_OTG_Driver/src/usb_dcd_int.c ****           /*ToDo : handle more than one single MPS size packet */
 1366              		.loc 1 535 25 is_stmt 0 view .LVU477
 1367 03c0 1A69     		ldr	r2, [r3, #16]	@ _71, _69->DOEPTSIZ
 537:../Libraries/STM32_USB_OTG_Driver/src/usb_dcd_int.c ****             deptsiz.b.xfersize;
 1368              		.loc 1 537 11 is_stmt 1 view .LVU478
 1369              	@ ../Libraries/STM32_USB_OTG_Driver/src/usb_dcd_int.c:537:           pdev->dev.out_ep[epnum].xfer_c
 537:../Libraries/STM32_USB_OTG_Driver/src/usb_dcd_int.c ****             deptsiz.b.xfersize;
 1370              		.loc 1 537 82 is_stmt 0 view .LVU479
 1371 03c2 DBF87C33 		ldr	r3, [fp, #892]	@ MEM[base: _450, offset: 892B], MEM[base: _450, offset: 892B]
 1372              	@ ../Libraries/STM32_USB_OTG_Driver/src/usb_dcd_int.c:538:             deptsiz.b.xfersize;
 538:../Libraries/STM32_USB_OTG_Driver/src/usb_dcd_int.c ****         }
 1373              		.loc 1 538 22 view .LVU480
 1374 03c6 C2F31202 		ubfx	r2, r2, #0, #19	@ tmp355, _71,,
 1375              	@ ../Libraries/STM32_USB_OTG_Driver/src/usb_dcd_int.c:537:           pdev->dev.out_ep[epnum].xfer_c
 537:../Libraries/STM32_USB_OTG_Driver/src/usb_dcd_int.c ****             deptsiz.b.xfersize;
 1376              		.loc 1 537 82 view .LVU481
 1377 03ca 9B1A     		subs	r3, r3, r2	@ tmp356, MEM[base: _450, offset: 892B], tmp355
 1378              	@ ../Libraries/STM32_USB_OTG_Driver/src/usb_dcd_int.c:537:           pdev->dev.out_ep[epnum].xfer_c
 537:../Libraries/STM32_USB_OTG_Driver/src/usb_dcd_int.c ****             deptsiz.b.xfersize;
 1379              		.loc 1 537 46 view .LVU482
 1380 03cc CBF88C33 		str	r3, [fp, #908]	@ tmp356, MEM[base: _450, offset: 908B]
 1381              	.L10:
 542:../Libraries/STM32_USB_OTG_Driver/src/usb_dcd_int.c ****         
 1382              		.loc 1 542 9 is_stmt 1 view .LVU483
 1383              	@ ../Libraries/STM32_USB_OTG_Driver/src/usb_dcd_int.c:542:         USBD_DCD_INT_fops->DataOutStage(
 542:../Libraries/STM32_USB_OTG_Driver/src/usb_dcd_int.c ****         
 1384              		.loc 1 542 26 is_stmt 0 view .LVU484
 1385 03d0 DAF80030 		ldr	r3, [r10]	@ USBD_DCD_INT_fops, USBD_DCD_INT_fops
 1386              	@ ../Libraries/STM32_USB_OTG_Driver/src/usb_dcd_int.c:542:         USBD_DCD_INT_fops->DataOutStage(
 542:../Libraries/STM32_USB_OTG_Driver/src/usb_dcd_int.c ****         
 1387              		.loc 1 542 9 view .LVU485
 1388 03d4 2046     		mov	r0, r4	@, pdev
 1389 03d6 1B68     		ldr	r3, [r3]	@ USBD_DCD_INT_fops.0_76->DataOutStage, USBD_DCD_INT_fops.0_76->DataOutStage
 1390 03d8 9847     		blx	r3		@ USBD_DCD_INT_fops.0_76->DataOutStage
 1391              	.LVL91:
 544:../Libraries/STM32_USB_OTG_Driver/src/usb_dcd_int.c ****         {
 1392              		.loc 1 544 9 is_stmt 1 view .LVU486
 1393              	@ ../Libraries/STM32_USB_OTG_Driver/src/usb_dcd_int.c:544:         if (pdev->cfg.dma_enable == 1)
 544:../Libraries/STM32_USB_OTG_Driver/src/usb_dcd_int.c ****         {
 1394              		.loc 1 544 12 is_stmt 0 view .LVU487
 1395 03da E378     		ldrb	r3, [r4, #3]	@ zero_extendqisi2	@ pdev_32(D)->cfg.dma_enable, pdev_32(D)->cfg.dma_enable
 1396 03dc 012B     		cmp	r3, #1	@ pdev_32(D)->cfg.dma_enable,
 1397 03de CED1     		bne	.L6		@,
 546:../Libraries/STM32_USB_OTG_Driver/src/usb_dcd_int.c ****           {
 1398              		.loc 1 546 11 is_stmt 1 view .LVU488
 1399              	@ ../Libraries/STM32_USB_OTG_Driver/src/usb_dcd_int.c:546:           if((epnum == 0) && (pdev->dev.
 546:../Libraries/STM32_USB_OTG_Driver/src/usb_dcd_int.c ****           {
 1400              		.loc 1 546 13 is_stmt 0 view .LVU489
 1401 03e0 B8F1000F 		cmp	r8, #0	@ epnum
 1402 03e4 CBD1     		bne	.L6	@
 1403              	@ ../Libraries/STM32_USB_OTG_Driver/src/usb_dcd_int.c:546:           if((epnum == 0) && (pdev->dev.
 546:../Libraries/STM32_USB_OTG_Driver/src/usb_dcd_int.c ****           {
 1404              		.loc 1 546 27 view .LVU490
 1405 03e6 94F81131 		ldrb	r3, [r4, #273]	@ zero_extendqisi2	@ pdev_32(D)->dev.device_state, pdev_32(D)->dev.device_stat
 1406 03ea 052B     		cmp	r3, #5	@ pdev_32(D)->dev.device_state,
 1407 03ec C7D1     		bne	.L6		@,
ARM GAS  C:\Users\admin\AppData\Local\Temp\ccpMiuah.s 			page 49


 549:../Libraries/STM32_USB_OTG_Driver/src/usb_dcd_int.c ****           }
 1408              		.loc 1 549 13 is_stmt 1 view .LVU491
 1409 03ee 2046     		mov	r0, r4	@, pdev
 1410 03f0 FFF7FEFF 		bl	USB_OTG_EP0_OutStart		@
 1411              	.LVL92:
 554:../Libraries/STM32_USB_OTG_Driver/src/usb_dcd_int.c ****       {
 1412              		.loc 1 554 7 view .LVU492
 1413 03f4 C3E7     		b	.L6		@
 1414              	.L134:
 557:../Libraries/STM32_USB_OTG_Driver/src/usb_dcd_int.c ****       }
 1415              		.loc 1 557 45 view .LVU493
 560:../Libraries/STM32_USB_OTG_Driver/src/usb_dcd_int.c ****       {
 1416              		.loc 1 560 7 view .LVU494
 1417              	@ ../Libraries/STM32_USB_OTG_Driver/src/usb_dcd_int.c:560:       if ( doepint.b.setup )
 560:../Libraries/STM32_USB_OTG_Driver/src/usb_dcd_int.c ****       {
 1418              		.loc 1 560 10 is_stmt 0 view .LVU495
 1419 03f6 1807     		lsls	r0, r3, #28	@, _67,
 1420 03f8 C1D5     		bpl	.L6		@,
 565:../Libraries/STM32_USB_OTG_Driver/src/usb_dcd_int.c ****         CLEAR_OUT_EP_INTR(epnum, setup);
 1421              		.loc 1 565 9 is_stmt 1 view .LVU496
 1422              	@ ../Libraries/STM32_USB_OTG_Driver/src/usb_dcd_int.c:565:         USBD_DCD_INT_fops->SetupStage(pd
 565:../Libraries/STM32_USB_OTG_Driver/src/usb_dcd_int.c ****         CLEAR_OUT_EP_INTR(epnum, setup);
 1423              		.loc 1 565 26 is_stmt 0 view .LVU497
 1424 03fa DAF80030 		ldr	r3, [r10]	@ USBD_DCD_INT_fops, USBD_DCD_INT_fops
 1425              	@ ../Libraries/STM32_USB_OTG_Driver/src/usb_dcd_int.c:565:         USBD_DCD_INT_fops->SetupStage(pd
 565:../Libraries/STM32_USB_OTG_Driver/src/usb_dcd_int.c ****         CLEAR_OUT_EP_INTR(epnum, setup);
 1426              		.loc 1 565 9 view .LVU498
 1427 03fe 2046     		mov	r0, r4	@, pdev
 1428 0400 9B68     		ldr	r3, [r3, #8]	@ USBD_DCD_INT_fops.1_85->SetupStage, USBD_DCD_INT_fops.1_85->SetupStage
 1429 0402 9847     		blx	r3		@ USBD_DCD_INT_fops.1_85->SetupStage
 1430              	.LVL93:
 566:../Libraries/STM32_USB_OTG_Driver/src/usb_dcd_int.c ****       }
 1431              		.loc 1 566 9 is_stmt 1 view .LVU499
 566:../Libraries/STM32_USB_OTG_Driver/src/usb_dcd_int.c ****       }
 1432              		.loc 1 566 9 view .LVU500
 566:../Libraries/STM32_USB_OTG_Driver/src/usb_dcd_int.c ****       }
 1433              		.loc 1 566 9 view .LVU501
 1434 0404 3B68     		ldr	r3, [r7]	@ _87, MEM[base: _446, offset: 0B]
 1435 0406 0822     		movs	r2, #8	@ tmp370,
 1436 0408 9A60     		str	r2, [r3, #8]	@ tmp370,
 1437 040a B8E7     		b	.L6		@
 1438              	.LVL94:
 1439              	.L15:
 572:../Libraries/STM32_USB_OTG_Driver/src/usb_dcd_int.c **** }
 1440              		.loc 1 572 3 view .LVU502
 572:../Libraries/STM32_USB_OTG_Driver/src/usb_dcd_int.c **** }
 1441              		.loc 1 572 3 is_stmt 0 view .LVU503
 1442              	.LBE64:
 1443              	.LBE63:
 1444              	@ ../Libraries/STM32_USB_OTG_Driver/src/usb_dcd_int.c:226:       retval |= DCD_HandleOutEP_ISR(pdev
 226:../Libraries/STM32_USB_OTG_Driver/src/usb_dcd_int.c ****     }    
 1445              		.loc 1 226 14 view .LVU504
 1446 040c 0120     		movs	r0, #1	@ <retval>,
 1447 040e 0BE6     		b	.L3		@
 1448              	.LVL95:
 1449              	.L125:
 248:../Libraries/STM32_USB_OTG_Driver/src/usb_dcd_int.c ****     }
ARM GAS  C:\Users\admin\AppData\Local\Temp\ccpMiuah.s 			page 50


 1450              		.loc 1 248 7 is_stmt 1 view .LVU505
 1451              	.LBB65:
 1452              	.LBI65:
 354:../Libraries/STM32_USB_OTG_Driver/src/usb_dcd_int.c **** {
 1453              		.loc 1 354 17 view .LVU506
 1454              	.LBB66:
 356:../Libraries/STM32_USB_OTG_Driver/src/usb_dcd_int.c ****   USB_OTG_DCTL_TypeDef     devctl;
 1455              		.loc 1 356 3 view .LVU507
 357:../Libraries/STM32_USB_OTG_Driver/src/usb_dcd_int.c ****   USB_OTG_PCGCCTL_TypeDef  power;
 1456              		.loc 1 357 3 view .LVU508
 358:../Libraries/STM32_USB_OTG_Driver/src/usb_dcd_int.c ****   
 1457              		.loc 1 358 3 view .LVU509
 360:../Libraries/STM32_USB_OTG_Driver/src/usb_dcd_int.c ****   {
 1458              		.loc 1 360 3 view .LVU510
 1459              	@ ../Libraries/STM32_USB_OTG_Driver/src/usb_dcd_int.c:360:   if(pdev->cfg.low_power)
 360:../Libraries/STM32_USB_OTG_Driver/src/usb_dcd_int.c ****   {
 1460              		.loc 1 360 5 is_stmt 0 view .LVU511
 1461 0410 A37A     		ldrb	r3, [r4, #10]	@ zero_extendqisi2	@ pdev_32(D)->cfg.low_power, pdev_32(D)->cfg.low_power
 1462 0412 43B1     		cbz	r3, .L27	@ pdev_32(D)->cfg.low_power,
 363:../Libraries/STM32_USB_OTG_Driver/src/usb_dcd_int.c ****     power.b.gatehclk = 0;
 1463              		.loc 1 363 5 is_stmt 1 view .LVU512
 1464              	@ ../Libraries/STM32_USB_OTG_Driver/src/usb_dcd_int.c:363:     power.d32 = USB_OTG_READ_REG32(&pdev
 363:../Libraries/STM32_USB_OTG_Driver/src/usb_dcd_int.c ****     power.b.gatehclk = 0;
 1465              		.loc 1 363 17 is_stmt 0 view .LVU513
 1466 0414 D4F80C31 		ldr	r3, [r4, #268]	@ _158, MEM[(volatile uint32_t *)pdev_32(D) + 268B]
 364:../Libraries/STM32_USB_OTG_Driver/src/usb_dcd_int.c ****     power.b.stoppclk = 0;
 1467              		.loc 1 364 5 is_stmt 1 view .LVU514
 365:../Libraries/STM32_USB_OTG_Driver/src/usb_dcd_int.c ****     USB_OTG_WRITE_REG32(pdev->regs.PCGCCTL, power.d32);
 1468              		.loc 1 365 5 view .LVU515
 1469              	.LVL96:
 1470              	@ ../Libraries/STM32_USB_OTG_Driver/src/usb_dcd_int.c:365:     power.b.stoppclk = 0;
 365:../Libraries/STM32_USB_OTG_Driver/src/usb_dcd_int.c ****     USB_OTG_WRITE_REG32(pdev->regs.PCGCCTL, power.d32);
 1471              		.loc 1 365 22 is_stmt 0 view .LVU516
 1472 0418 23F00302 		bic	r2, r3, #3	@ tmp420, power,
 1473 041c 62F30703 		bfi	r3, r2, #0, #8	@ power, tmp420,,
 366:../Libraries/STM32_USB_OTG_Driver/src/usb_dcd_int.c ****   }
 1474              		.loc 1 366 5 is_stmt 1 view .LVU517
 1475 0420 D4F80C21 		ldr	r2, [r4, #268]	@ _159, pdev_32(D)->regs.PCGCCTL
 1476 0424 1360     		str	r3, [r2]	@ power, *_159
 1477              	.L27:
 370:../Libraries/STM32_USB_OTG_Driver/src/usb_dcd_int.c ****   devctl.b.rmtwkupsig = 1;
 1478              		.loc 1 370 3 view .LVU518
 371:../Libraries/STM32_USB_OTG_Driver/src/usb_dcd_int.c ****   USB_OTG_MODIFY_REG32(&pdev->regs.DREGS->DCTL, devctl.d32, 0);
 1479              		.loc 1 371 3 view .LVU519
 372:../Libraries/STM32_USB_OTG_Driver/src/usb_dcd_int.c ****   
 1480              		.loc 1 372 3 view .LVU520
 1481 0426 2269     		ldr	r2, [r4, #16]	@ _161, pdev_32(D)->regs.DREGS
 1482              	@ ../Libraries/STM32_USB_OTG_Driver/src/usb_dcd_int.c:375:   USBD_DCD_INT_fops->Resume (pdev);
 375:../Libraries/STM32_USB_OTG_Driver/src/usb_dcd_int.c ****   
 1483              		.loc 1 375 20 is_stmt 0 view .LVU521
 1484 0428 2049     		ldr	r1, .L137	@ tmp424,
 1485              	@ ../Libraries/STM32_USB_OTG_Driver/src/usb_dcd_int.c:372:   USB_OTG_MODIFY_REG32(&pdev->regs.DREGS
 372:../Libraries/STM32_USB_OTG_Driver/src/usb_dcd_int.c ****   
 1486              		.loc 1 372 3 view .LVU522
 1487 042a 5368     		ldr	r3, [r2, #4]	@ _162, _161->DCTL
 1488              	.LVL97:
 1489              	@ ../Libraries/STM32_USB_OTG_Driver/src/usb_dcd_int.c:375:   USBD_DCD_INT_fops->Resume (pdev);
ARM GAS  C:\Users\admin\AppData\Local\Temp\ccpMiuah.s 			page 51


 375:../Libraries/STM32_USB_OTG_Driver/src/usb_dcd_int.c ****   
 1490              		.loc 1 375 20 view .LVU523
 1491 042c 0968     		ldr	r1, [r1]	@ USBD_DCD_INT_fops, USBD_DCD_INT_fops
 1492              	@ ../Libraries/STM32_USB_OTG_Driver/src/usb_dcd_int.c:372:   USB_OTG_MODIFY_REG32(&pdev->regs.DREGS
 372:../Libraries/STM32_USB_OTG_Driver/src/usb_dcd_int.c ****   
 1493              		.loc 1 372 3 view .LVU524
 1494 042e 23F00103 		bic	r3, r3, #1	@ _163, _162,
 1495              	@ ../Libraries/STM32_USB_OTG_Driver/src/usb_dcd_int.c:375:   USBD_DCD_INT_fops->Resume (pdev);
 375:../Libraries/STM32_USB_OTG_Driver/src/usb_dcd_int.c ****   
 1496              		.loc 1 375 3 view .LVU525
 1497 0432 8969     		ldr	r1, [r1, #24]	@ USBD_DCD_INT_fops.3_164->Resume, USBD_DCD_INT_fops.3_164->Resume
 1498              	@ ../Libraries/STM32_USB_OTG_Driver/src/usb_dcd_int.c:372:   USB_OTG_MODIFY_REG32(&pdev->regs.DREGS
 372:../Libraries/STM32_USB_OTG_Driver/src/usb_dcd_int.c ****   
 1499              		.loc 1 372 3 view .LVU526
 1500 0434 5360     		str	r3, [r2, #4]	@ _163, _161->DCTL
 375:../Libraries/STM32_USB_OTG_Driver/src/usb_dcd_int.c ****   
 1501              		.loc 1 375 3 is_stmt 1 view .LVU527
 1502 0436 2046     		mov	r0, r4	@, pdev
 1503              	.LVL98:
 375:../Libraries/STM32_USB_OTG_Driver/src/usb_dcd_int.c ****   
 1504              		.loc 1 375 3 is_stmt 0 view .LVU528
 1505 0438 8847     		blx	r1		@ USBD_DCD_INT_fops.3_164->Resume
 1506              	.LVL99:
 378:../Libraries/STM32_USB_OTG_Driver/src/usb_dcd_int.c ****   gintsts.b.wkupintr = 1;
 1507              		.loc 1 378 3 is_stmt 1 view .LVU529
 379:../Libraries/STM32_USB_OTG_Driver/src/usb_dcd_int.c ****   USB_OTG_WRITE_REG32 (&pdev->regs.GREGS->GINTSTS, gintsts.d32);
 1508              		.loc 1 379 3 view .LVU530
 380:../Libraries/STM32_USB_OTG_Driver/src/usb_dcd_int.c ****   return 1;
 1509              		.loc 1 380 3 view .LVU531
 1510 043a E368     		ldr	r3, [r4, #12]	@ _166, pdev_32(D)->regs.GREGS
 1511 043c 4FF00042 		mov	r2, #-2147483648	@ tmp426,
 1512 0440 5A61     		str	r2, [r3, #20]	@ tmp426, _166->GINTSTS
 381:../Libraries/STM32_USB_OTG_Driver/src/usb_dcd_int.c **** }
 1513              		.loc 1 381 3 view .LVU532
 1514              	.LVL100:
 381:../Libraries/STM32_USB_OTG_Driver/src/usb_dcd_int.c **** }
 1515              		.loc 1 381 3 is_stmt 0 view .LVU533
 1516              	.LBE66:
 1517              	.LBE65:
 1518              	@ ../Libraries/STM32_USB_OTG_Driver/src/usb_dcd_int.c:248:       retval |= DCD_HandleResume_ISR(pde
 248:../Libraries/STM32_USB_OTG_Driver/src/usb_dcd_int.c ****     }
 1519              		.loc 1 248 14 view .LVU534
 1520 0442 0120     		movs	r0, #1	@ <retval>,
 1521 0444 F7E5     		b	.L26		@
 1522              	.LVL101:
 1523              	.L130:
 1524              	.LBB67:
 1525              	.LBB31:
 801:../Libraries/STM32_USB_OTG_Driver/src/usb_dcd_int.c ****     pdev->cfg.mps              = USB_OTG_HS_MAX_PACKET_SIZE ;    
 1526              		.loc 1 801 5 is_stmt 1 view .LVU535
 1527              	@ ../Libraries/STM32_USB_OTG_Driver/src/usb_dcd_int.c:801:     pdev->cfg.speed            = USB_OTG
 801:../Libraries/STM32_USB_OTG_Driver/src/usb_dcd_int.c ****     pdev->cfg.mps              = USB_OTG_HS_MAX_PACKET_SIZE ;    
 1528              		.loc 1 801 32 is_stmt 0 view .LVU536
 1529 0446 0021     		movs	r1, #0	@ tmp571,
 1530              	@ ../Libraries/STM32_USB_OTG_Driver/src/usb_dcd_int.c:802:     pdev->cfg.mps              = USB_OTG
 802:../Libraries/STM32_USB_OTG_Driver/src/usb_dcd_int.c ****     gusbcfg.b.usbtrdtim = 9;
 1531              		.loc 1 802 32 view .LVU537
ARM GAS  C:\Users\admin\AppData\Local\Temp\ccpMiuah.s 			page 52


 1532 0448 4FF40072 		mov	r2, #512	@ tmp574,
 1533              	@ ../Libraries/STM32_USB_OTG_Driver/src/usb_dcd_int.c:803:     gusbcfg.b.usbtrdtim = 9;
 803:../Libraries/STM32_USB_OTG_Driver/src/usb_dcd_int.c ****   }
 1534              		.loc 1 803 25 view .LVU538
 1535 044c 0923     		movs	r3, #9	@ tmp575,
 1536              	@ ../Libraries/STM32_USB_OTG_Driver/src/usb_dcd_int.c:801:     pdev->cfg.speed            = USB_OTG
 801:../Libraries/STM32_USB_OTG_Driver/src/usb_dcd_int.c ****     pdev->cfg.mps              = USB_OTG_HS_MAX_PACKET_SIZE ;    
 1537              		.loc 1 801 32 view .LVU539
 1538 044e A170     		strb	r1, [r4, #2]	@ tmp571, pdev_32(D)->cfg.speed
 802:../Libraries/STM32_USB_OTG_Driver/src/usb_dcd_int.c ****     gusbcfg.b.usbtrdtim = 9;
 1539              		.loc 1 802 5 is_stmt 1 view .LVU540
 1540              	@ ../Libraries/STM32_USB_OTG_Driver/src/usb_dcd_int.c:802:     pdev->cfg.mps              = USB_OTG
 802:../Libraries/STM32_USB_OTG_Driver/src/usb_dcd_int.c ****     gusbcfg.b.usbtrdtim = 9;
 1541              		.loc 1 802 32 is_stmt 0 view .LVU541
 1542 0450 A280     		strh	r2, [r4, #4]	@ movhi	@ tmp574, pdev_32(D)->cfg.mps
 803:../Libraries/STM32_USB_OTG_Driver/src/usb_dcd_int.c ****   }
 1543              		.loc 1 803 5 is_stmt 1 view .LVU542
 1544              	@ ../Libraries/STM32_USB_OTG_Driver/src/usb_dcd_int.c:803:     gusbcfg.b.usbtrdtim = 9;
 803:../Libraries/STM32_USB_OTG_Driver/src/usb_dcd_int.c ****   }
 1545              		.loc 1 803 25 is_stmt 0 view .LVU543
 1546 0452 63F38D25 		bfi	r5, r3, #10, #4	@ gusbcfg, tmp575,,
 1547 0456 0EE6     		b	.L38		@
 1548              	.LVL102:
 1549              	.L31:
 803:../Libraries/STM32_USB_OTG_Driver/src/usb_dcd_int.c ****   }
 1550              		.loc 1 803 25 view .LVU544
 1551              	.LBE31:
 1552              	.LBE67:
 1553              	.LBB68:
 1554              	.LBB41:
 623:../Libraries/STM32_USB_OTG_Driver/src/usb_dcd_int.c ****     {
 1555              		.loc 1 623 5 is_stmt 1 view .LVU545
 1556              	@ ../Libraries/STM32_USB_OTG_Driver/src/usb_dcd_int.c:623:     if (status.b.bcnt)
 623:../Libraries/STM32_USB_OTG_Driver/src/usb_dcd_int.c ****     {
 1557              		.loc 1 623 9 is_stmt 0 view .LVU546
 1558 0458 47F6F072 		movw	r2, #32752	@ tmp462,
 1559              	@ ../Libraries/STM32_USB_OTG_Driver/src/usb_dcd_int.c:623:     if (status.b.bcnt)
 623:../Libraries/STM32_USB_OTG_Driver/src/usb_dcd_int.c ****     {
 1560              		.loc 1 623 8 view .LVU547
 1561 045c 3242     		tst	r2, r6	@ tmp462, _188
 1562 045e 3FF440AE 		beq	.L33		@,
 625:../Libraries/STM32_USB_OTG_Driver/src/usb_dcd_int.c ****       ep->xfer_buff += status.b.bcnt;
 1563              		.loc 1 625 7 is_stmt 1 view .LVU548
 1564 0462 05EB8505 		add	r5, r5, r5, lsl #2	@ tmp470, _190, _190,
 1565              	.LVL103:
 625:../Libraries/STM32_USB_OTG_Driver/src/usb_dcd_int.c ****       ep->xfer_buff += status.b.bcnt;
 1566              		.loc 1 625 7 is_stmt 0 view .LVU549
 1567 0466 04EBC505 		add	r5, r4, r5, lsl #3	@ tmp472, pdev, tmp470,
 1568              	@ ../Libraries/STM32_USB_OTG_Driver/src/usb_dcd_int.c:625:       USB_OTG_ReadPacket(pdev,ep->xfer_b
 625:../Libraries/STM32_USB_OTG_Driver/src/usb_dcd_int.c ****       ep->xfer_buff += status.b.bcnt;
 1569              		.loc 1 625 54 view .LVU550
 1570 046a C6F30A16 		ubfx	r6, r6, #4, #11	@ _195, _188,,
 1571              	.LVL104:
 1572              	@ ../Libraries/STM32_USB_OTG_Driver/src/usb_dcd_int.c:625:       USB_OTG_ReadPacket(pdev,ep->xfer_b
 625:../Libraries/STM32_USB_OTG_Driver/src/usb_dcd_int.c ****       ep->xfer_buff += status.b.bcnt;
 1573              		.loc 1 625 7 view .LVU551
 1574 046e D5F88013 		ldr	r1, [r5, #896]	@, MEM <struct USB_OTG_CORE_HANDLE> [(struct USB_OTG_EP *)pdev_32(D)].dev.out_e
ARM GAS  C:\Users\admin\AppData\Local\Temp\ccpMiuah.s 			page 53


 1575 0472 3246     		mov	r2, r6	@, _195
 1576 0474 2046     		mov	r0, r4	@, pdev
 1577              	.LVL105:
 625:../Libraries/STM32_USB_OTG_Driver/src/usb_dcd_int.c ****       ep->xfer_buff += status.b.bcnt;
 1578              		.loc 1 625 7 view .LVU552
 1579 0476 FFF7FEFF 		bl	USB_OTG_ReadPacket		@
 1580              	.LVL106:
 626:../Libraries/STM32_USB_OTG_Driver/src/usb_dcd_int.c ****       ep->xfer_count += status.b.bcnt;
 1581              		.loc 1 626 7 is_stmt 1 view .LVU553
 1582              	@ ../Libraries/STM32_USB_OTG_Driver/src/usb_dcd_int.c:627:       ep->xfer_count += status.b.bcnt;
 627:../Libraries/STM32_USB_OTG_Driver/src/usb_dcd_int.c ****     }
 1583              		.loc 1 627 22 is_stmt 0 view .LVU554
 1584 047a D5F88C13 		ldr	r1, [r5, #908]	@ MEM <struct USB_OTG_CORE_HANDLE> [(struct USB_OTG_EP *)pdev_32(D)].dev.out_ep
 1585              	@ ../Libraries/STM32_USB_OTG_Driver/src/usb_dcd_int.c:626:       ep->xfer_buff += status.b.bcnt;
 626:../Libraries/STM32_USB_OTG_Driver/src/usb_dcd_int.c ****       ep->xfer_count += status.b.bcnt;
 1586              		.loc 1 626 21 view .LVU555
 1587 047e D5F88033 		ldr	r3, [r5, #896]	@ MEM <struct USB_OTG_CORE_HANDLE> [(struct USB_OTG_EP *)pdev_32(D)].dev.out_ep
 1588 0482 3344     		add	r3, r3, r6	@ tmp487, _195
 1589              	@ ../Libraries/STM32_USB_OTG_Driver/src/usb_dcd_int.c:627:       ep->xfer_count += status.b.bcnt;
 627:../Libraries/STM32_USB_OTG_Driver/src/usb_dcd_int.c ****     }
 1590              		.loc 1 627 22 view .LVU556
 1591 0484 0E44     		add	r6, r6, r1	@ tmp501, MEM <struct USB_OTG_CORE_HANDLE> [(struct USB_OTG_EP *)pdev_32(D)].dev.ou
 1592              	@ ../Libraries/STM32_USB_OTG_Driver/src/usb_dcd_int.c:626:       ep->xfer_buff += status.b.bcnt;
 626:../Libraries/STM32_USB_OTG_Driver/src/usb_dcd_int.c ****       ep->xfer_count += status.b.bcnt;
 1593              		.loc 1 626 21 view .LVU557
 1594 0486 C5F88033 		str	r3, [r5, #896]	@ tmp487, MEM <struct USB_OTG_CORE_HANDLE> [(struct USB_OTG_EP *)pdev_32(D)].de
 627:../Libraries/STM32_USB_OTG_Driver/src/usb_dcd_int.c ****     }
 1595              		.loc 1 627 7 is_stmt 1 view .LVU558
 1596              	@ ../Libraries/STM32_USB_OTG_Driver/src/usb_dcd_int.c:644:   USB_OTG_MODIFY_REG32( &pdev->regs.GREG
 644:../Libraries/STM32_USB_OTG_Driver/src/usb_dcd_int.c ****   
 1597              		.loc 1 644 3 is_stmt 0 view .LVU559
 1598 048a E168     		ldr	r1, [r4, #12]	@ _185, pdev_32(D)->regs.GREGS
 1599              	@ ../Libraries/STM32_USB_OTG_Driver/src/usb_dcd_int.c:627:       ep->xfer_count += status.b.bcnt;
 627:../Libraries/STM32_USB_OTG_Driver/src/usb_dcd_int.c ****     }
 1600              		.loc 1 627 22 view .LVU560
 1601 048c C5F88C63 		str	r6, [r5, #908]	@ tmp501, MEM <struct USB_OTG_CORE_HANDLE> [(struct USB_OTG_EP *)pdev_32(D)].de
 1602 0490 27E6     		b	.L33		@
 1603              	.LVL107:
 1604              	.L133:
 627:../Libraries/STM32_USB_OTG_Driver/src/usb_dcd_int.c ****     }
 1605              		.loc 1 627 22 view .LVU561
 1606              	.LBE41:
 1607              	.LBE68:
 1608              	.LBB69:
 1609              	.LBB60:
 1610              	.LBB58:
 1611              	.LBB56:
 1612              	.LBB54:
 696:../Libraries/STM32_USB_OTG_Driver/src/usb_dcd_int.c ****             USB_OTG_MODIFY_REG32(&pdev->regs.DREGS->DIEPEMPMSK, fifoemptymsk, 0);
 1613              		.loc 1 696 13 is_stmt 1 view .LVU562
 697:../Libraries/STM32_USB_OTG_Driver/src/usb_dcd_int.c ****             break;
 1614              		.loc 1 697 13 view .LVU563
 1615              	@ ../Libraries/STM32_USB_OTG_Driver/src/usb_dcd_int.c:696:             uint32_t fifoemptymsk = 1 <<
 696:../Libraries/STM32_USB_OTG_Driver/src/usb_dcd_int.c ****             USB_OTG_MODIFY_REG32(&pdev->regs.DREGS->DIEPEMPMSK, fifoemptymsk, 0);
 1616              		.loc 1 696 44 is_stmt 0 view .LVU564
 1617 0492 95F81C31 		ldrb	r3, [r5, #284]	@ zero_extendqisi2	@ MEM[base: _433, offset: 284B], MEM[base: _433, offset: 28
 1618              	@ ../Libraries/STM32_USB_OTG_Driver/src/usb_dcd_int.c:697:             USB_OTG_MODIFY_REG32(&pdev->
ARM GAS  C:\Users\admin\AppData\Local\Temp\ccpMiuah.s 			page 54


 697:../Libraries/STM32_USB_OTG_Driver/src/usb_dcd_int.c ****             break;
 1619              		.loc 1 697 13 view .LVU565
 1620 0496 2169     		ldr	r1, [r4, #16]	@ _148, pdev_32(D)->regs.DREGS
 1621              	.LBE54:
 1622              	.LBE56:
 1623              	.LBE58:
 1624              	@ ../Libraries/STM32_USB_OTG_Driver/src/usb_dcd_int.c:469:         CLEAR_IN_EP_INTR(epnum, emptyint
 469:../Libraries/STM32_USB_OTG_Driver/src/usb_dcd_int.c ****       }
 1625              		.loc 1 469 9 view .LVU566
 1626 0498 DAF80060 		ldr	r6, [r10]	@ _152, MEM[base: _424, offset: 0B]
 1627              	.LVL108:
 1628              	.LBB59:
 1629              	.LBB57:
 1630              	.LBB55:
 1631              	@ ../Libraries/STM32_USB_OTG_Driver/src/usb_dcd_int.c:696:             uint32_t fifoemptymsk = 1 <<
 696:../Libraries/STM32_USB_OTG_Driver/src/usb_dcd_int.c ****             USB_OTG_MODIFY_REG32(&pdev->regs.DREGS->DIEPEMPMSK, fifoemptymsk, 0);
 1632              		.loc 1 696 39 view .LVU567
 1633 049c 0122     		movs	r2, #1	@ tmp628,
 1634 049e 9A40     		lsls	r2, r2, r3	@ fifoemptymsk, tmp628, MEM[base: _433, offset: 284B]
 1635              	.LVL109:
 1636              	@ ../Libraries/STM32_USB_OTG_Driver/src/usb_dcd_int.c:697:             USB_OTG_MODIFY_REG32(&pdev->
 697:../Libraries/STM32_USB_OTG_Driver/src/usb_dcd_int.c ****             break;
 1637              		.loc 1 697 13 view .LVU568
 1638 04a0 4B6B     		ldr	r3, [r1, #52]	@ _149, _148->DIEPEMPMSK
 1639 04a2 23EA0203 		bic	r3, r3, r2	@ _151, _149, fifoemptymsk
 1640 04a6 4B63     		str	r3, [r1, #52]	@ _151, _148->DIEPEMPMSK
 698:../Libraries/STM32_USB_OTG_Driver/src/usb_dcd_int.c ****     }
 1641              		.loc 1 698 13 is_stmt 1 view .LVU569
 1642 04a8 22E7     		b	.L21		@
 1643              	.L138:
 1644 04aa 00BF     		.align	2
 1645              	.L137:
 1646 04ac 00000000 		.word	USBD_DCD_INT_fops
 1647 04b0 00ED00E0 		.word	-536810240
 1648              	.LBE55:
 1649              	.LBE57:
 1650              	.LBE59:
 1651              	.LBE60:
 1652              	.LBE69:
 1653              		.cfi_endproc
 1654              	.LFE110:
 1655              		.size	USBD_OTG_ISR_Handler, .-USBD_OTG_ISR_Handler
 1656              		.text
 1657              	.Letext0:
 1658              		.file 2 "c:\\program files (x86)\\gnu arm embedded toolchain\\10 2021.10\\arm-none-eabi\\include\\
 1659              		.file 3 "c:\\program files (x86)\\gnu arm embedded toolchain\\10 2021.10\\arm-none-eabi\\include\\
 1660              		.file 4 "../Libraries/CMSIS/Include/core_cm4.h"
 1661              		.file 5 "../Libraries/STM32_USB_OTG_Driver/inc/usb_regs.h"
 1662              		.file 6 "../Libraries/STM32_USB_OTG_Driver/inc/usb_core.h"
 1663              		.file 7 "../Libraries/STM32_USB_OTG_Driver/inc/usb_dcd_int.h"
 1664              		.file 8 "../Libraries/STM32_USB_OTG_Driver/inc/usb_defines.h"