ARM GAS  C:\Users\admin\AppData\Local\Temp\ccZgUtcy.s 			page 1


   1              		.cpu cortex-m4
   2              		.arch armv7e-m
   3              		.fpu fpv4-sp-d16
   4              		.eabi_attribute 27, 1	@ Tag_ABI_HardFP_use
   5              		.eabi_attribute 28, 1	@ Tag_ABI_VFP_args
   6              		.eabi_attribute 23, 1	@ Tag_ABI_FP_number_model
   7              		.eabi_attribute 24, 1	@ Tag_ABI_align8_needed
   8              		.eabi_attribute 25, 1	@ Tag_ABI_align8_preserved
   9              		.eabi_attribute 26, 1	@ Tag_ABI_enum_size
  10              		.eabi_attribute 30, 2	@ Tag_ABI_optimization_goals
  11              		.eabi_attribute 34, 1	@ Tag_CPU_unaligned_access
  12              		.eabi_attribute 18, 4	@ Tag_ABI_PCS_wchar_t
  13              		.file	"usb_bsp.c"
  14              	@ GNU C89 (GNU Arm Embedded Toolchain 10.3-2021.10) version 10.3.1 20210824 (release) (arm-none-eab
  15              	@	compiled by GNU C version 7.3-win32 20180312, GMP version 6.1.0, MPFR version 3.1.4, MPC version 
  16              	
  17              	@ GGC heuristics: --param ggc-min-expand=100 --param ggc-min-heapsize=131072
  18              	@ options passed:  -I . -I . -I ../Utilities/STM32F4-Discovery/
  19              	@ -I ../Libraries/STM32_USB_Device_Library/Class/audio/inc/
  20              	@ -I ../Libraries/STM32_USB_Device_Library/Core/inc/
  21              	@ -I ../Libraries/STM32_USB_OTG_Driver/inc/
  22              	@ -I ../Utilities/STM32F4-Discovery/
  23              	@ -I ../Libraries/STM32F4xx_StdPeriph_Driver/inc/
  24              	@ -I ../Utilities/STM32F4-Discovery/
  25              	@ -I ../Libraries/CMSIS/ST/STM32F4xx/Include/
  26              	@ -I ../Libraries/CMSIS/Include/ -imultilib thumb/v7e-m+fp/hard
  27              	@ -iprefix c:\program files (x86)\gnu arm embedded toolchain\10 2021.10\bin\../lib/gcc/arm-none-eab
  28              	@ -isysroot c:\program files (x86)\gnu arm embedded toolchain\10 2021.10\bin\../arm-none-eabi
  29              	@ -MD out/usb_bsp.d -MF out/usb_bsp.d -MP -MQ out/usb_bsp.o
  30              	@ -D__USES_INITFINI__ -D STM32F4XX -D __VFP_FP__ -D USE_USB_OTG_FS
  31              	@ usb_bsp.c -mcpu=cortex-m4 -mthumb -mfloat-abi=hard -mfpu=fpv4-sp-d16
  32              	@ -mlibarch=armv7e-m+fp -march=armv7e-m+fp -auxbase-strip out/usb_bsp.o -g
  33              	@ -ggdb3 -O3 -Wall -Wstrict-prototypes -Wextra -std=gnu90 -ffast-math
  34              	@ -ffunction-sections -fdata-sections -fverbose-asm
  35              	@ options enabled:  -faggressive-loop-optimizations -falign-functions
  36              	@ -falign-jumps -falign-labels -falign-loops -fallocation-dce
  37              	@ -fassociative-math -fauto-inc-dec -fbranch-count-reg -fcaller-saves
  38              	@ -fcombine-stack-adjustments -fcompare-elim -fcprop-registers
  39              	@ -fcrossjumping -fcse-follow-jumps -fcx-limited-range -fdata-sections
  40              	@ -fdefer-pop -fdelete-null-pointer-checks -fdevirtualize
  41              	@ -fdevirtualize-speculatively -fdwarf2-cfi-asm -fearly-inlining
  42              	@ -feliminate-unused-debug-symbols -feliminate-unused-debug-types
  43              	@ -fexpensive-optimizations -ffinite-math-only -fforward-propagate
  44              	@ -ffp-int-builtin-inexact -ffunction-cse -ffunction-sections -fgcse
  45              	@ -fgcse-after-reload -fgcse-lm -fgnu-unique -fguess-branch-probability
  46              	@ -fhoist-adjacent-loads -fident -fif-conversion -fif-conversion2
  47              	@ -findirect-inlining -finline -finline-atomics -finline-functions
  48              	@ -finline-functions-called-once -finline-small-functions -fipa-bit-cp
  49              	@ -fipa-cp -fipa-cp-clone -fipa-icf -fipa-icf-functions -fipa-icf-variables
  50              	@ -fipa-profile -fipa-pure-const -fipa-ra -fipa-reference
  51              	@ -fipa-reference-addressable -fipa-sra -fipa-stack-alignment -fipa-vrp
  52              	@ -fira-hoist-pressure -fira-share-save-slots -fira-share-spill-slots
  53              	@ -fisolate-erroneous-paths-dereference -fivopts -fkeep-static-consts
  54              	@ -fleading-underscore -flifetime-dse -floop-interchange
  55              	@ -floop-unroll-and-jam -flra-remat -fmerge-constants -fmerge-debug-strings
  56              	@ -fmove-loop-invariants -fomit-frame-pointer -foptimize-sibling-calls
  57              	@ -foptimize-strlen -fpartial-inlining -fpeel-loops -fpeephole -fpeephole2
ARM GAS  C:\Users\admin\AppData\Local\Temp\ccZgUtcy.s 			page 2


  58              	@ -fplt -fpredictive-commoning -fprefetch-loop-arrays -freciprocal-math
  59              	@ -freg-struct-return -freorder-blocks -freorder-functions
  60              	@ -frerun-cse-after-loop -fsched-critical-path-heuristic
  61              	@ -fsched-dep-count-heuristic -fsched-group-heuristic -fsched-interblock
  62              	@ -fsched-last-insn-heuristic -fsched-pressure -fsched-rank-heuristic
  63              	@ -fsched-spec -fsched-spec-insn-heuristic -fsched-stalled-insns-dep
  64              	@ -fschedule-insns -fschedule-insns2 -fsection-anchors
  65              	@ -fsemantic-interposition -fshow-column -fshrink-wrap
  66              	@ -fshrink-wrap-separate -fsplit-ivs-in-unroller -fsplit-loops
  67              	@ -fsplit-paths -fsplit-wide-types -fssa-backprop -fssa-phiopt -fstdarg-opt
  68              	@ -fstore-merging -fstrict-aliasing -fstrict-volatile-bitfields
  69              	@ -fsync-libcalls -fthread-jumps -ftoplevel-reorder -ftree-bit-ccp
  70              	@ -ftree-builtin-call-dce -ftree-ccp -ftree-ch -ftree-coalesce-vars
  71              	@ -ftree-copy-prop -ftree-cselim -ftree-dce -ftree-dominator-opts
  72              	@ -ftree-dse -ftree-forwprop -ftree-fre -ftree-loop-distribute-patterns
  73              	@ -ftree-loop-distribution -ftree-loop-if-convert -ftree-loop-im
  74              	@ -ftree-loop-ivcanon -ftree-loop-optimize -ftree-loop-vectorize
  75              	@ -ftree-parallelize-loops= -ftree-partial-pre -ftree-phiprop -ftree-pre
  76              	@ -ftree-pta -ftree-reassoc -ftree-scev-cprop -ftree-sink
  77              	@ -ftree-slp-vectorize -ftree-slsr -ftree-sra -ftree-switch-conversion
  78              	@ -ftree-tail-merge -ftree-ter -ftree-vrp -funit-at-a-time
  79              	@ -funsafe-math-optimizations -funswitch-loops -fvar-tracking
  80              	@ -fvar-tracking-assignments -fverbose-asm -fversion-loops-for-strides
  81              	@ -fzero-initialized-in-bss -masm-syntax-unified -mbe32 -mlittle-endian
  82              	@ -mpic-data-is-text-relative -msched-prolog -mthumb -munaligned-access
  83              	@ -mvectorize-with-neon-quad
  84              	
  85              		.text
  86              	.Ltext0:
  87              		.cfi_sections	.debug_frame
  88              		.section	.text.USB_OTG_BSP_Init,"ax",%progbits
  89              		.align	1
  90              		.p2align 2,,3
  91              		.global	USB_OTG_BSP_Init
  92              		.syntax unified
  93              		.thumb
  94              		.thumb_func
  95              		.type	USB_OTG_BSP_Init, %function
  96              	USB_OTG_BSP_Init:
  97              	.LVL0:
  98              	.LFB110:
  99              		.file 1 "usb_bsp.c"
   1:usb_bsp.c     **** /**
   2:usb_bsp.c     ****   ******************************************************************************
   3:usb_bsp.c     ****   * @file    usb_bsp.c
   4:usb_bsp.c     ****   * @author  MCD Application Team
   5:usb_bsp.c     ****   * @version V1.1.0
   6:usb_bsp.c     ****   * @date    19-March-2012
   7:usb_bsp.c     ****   * @brief   This file is responsible to offer board support package and is 
   8:usb_bsp.c     ****   *          configurable by user.
   9:usb_bsp.c     ****   ******************************************************************************
  10:usb_bsp.c     ****   * @attention
  11:usb_bsp.c     ****   *
  12:usb_bsp.c     ****   * <h2><center>&copy; COPYRIGHT 2012 STMicroelectronics</center></h2>
  13:usb_bsp.c     ****   *
  14:usb_bsp.c     ****   * Licensed under MCD-ST Liberty SW License Agreement V2, (the "License");
  15:usb_bsp.c     ****   * You may not use this file except in compliance with the License.
ARM GAS  C:\Users\admin\AppData\Local\Temp\ccZgUtcy.s 			page 3


  16:usb_bsp.c     ****   * You may obtain a copy of the License at:
  17:usb_bsp.c     ****   *
  18:usb_bsp.c     ****   *        http://www.st.com/software_license_agreement_liberty_v2
  19:usb_bsp.c     ****   *
  20:usb_bsp.c     ****   * Unless required by applicable law or agreed to in writing, software 
  21:usb_bsp.c     ****   * distributed under the License is distributed on an "AS IS" BASIS, 
  22:usb_bsp.c     ****   * WITHOUT WARRANTIES OR CONDITIONS OF ANY KIND, either express or implied.
  23:usb_bsp.c     ****   * See the License for the specific language governing permissions and
  24:usb_bsp.c     ****   * limitations under the License.
  25:usb_bsp.c     ****   *
  26:usb_bsp.c     ****   ******************************************************************************
  27:usb_bsp.c     ****   */ 
  28:usb_bsp.c     **** 
  29:usb_bsp.c     **** /* Includes ------------------------------------------------------------------*/
  30:usb_bsp.c     **** #include "usb_bsp.h"
  31:usb_bsp.c     **** #include "usbd_conf.h"
  32:usb_bsp.c     **** 
  33:usb_bsp.c     **** /** @addtogroup STM32_USB_OTG_DEVICE_LIBRARY
  34:usb_bsp.c     **** * @{
  35:usb_bsp.c     **** */
  36:usb_bsp.c     **** 
  37:usb_bsp.c     **** /** @defgroup USB_BSP
  38:usb_bsp.c     **** * @brief This file is responsible to offer board support package
  39:usb_bsp.c     **** * @{
  40:usb_bsp.c     **** */ 
  41:usb_bsp.c     **** 
  42:usb_bsp.c     **** /** @defgroup USB_BSP_Private_Defines
  43:usb_bsp.c     **** * @{
  44:usb_bsp.c     **** */ 
  45:usb_bsp.c     **** /**
  46:usb_bsp.c     **** * @}
  47:usb_bsp.c     **** */ 
  48:usb_bsp.c     **** 
  49:usb_bsp.c     **** 
  50:usb_bsp.c     **** /** @defgroup USB_BSP_Private_TypesDefinitions
  51:usb_bsp.c     **** * @{
  52:usb_bsp.c     **** */ 
  53:usb_bsp.c     **** /**
  54:usb_bsp.c     **** * @}
  55:usb_bsp.c     **** */ 
  56:usb_bsp.c     **** 
  57:usb_bsp.c     **** 
  58:usb_bsp.c     **** 
  59:usb_bsp.c     **** 
  60:usb_bsp.c     **** 
  61:usb_bsp.c     **** /** @defgroup USB_BSP_Private_Macros
  62:usb_bsp.c     **** * @{
  63:usb_bsp.c     **** */ 
  64:usb_bsp.c     **** /**
  65:usb_bsp.c     **** * @}
  66:usb_bsp.c     **** */ 
  67:usb_bsp.c     **** 
  68:usb_bsp.c     **** /** @defgroup USBH_BSP_Private_Variables
  69:usb_bsp.c     **** * @{
  70:usb_bsp.c     **** */ 
  71:usb_bsp.c     **** 
  72:usb_bsp.c     **** /**
ARM GAS  C:\Users\admin\AppData\Local\Temp\ccZgUtcy.s 			page 4


  73:usb_bsp.c     **** * @}
  74:usb_bsp.c     **** */ 
  75:usb_bsp.c     **** 
  76:usb_bsp.c     **** /** @defgroup USBH_BSP_Private_FunctionPrototypes
  77:usb_bsp.c     **** * @{
  78:usb_bsp.c     **** */ 
  79:usb_bsp.c     **** /**
  80:usb_bsp.c     **** * @}
  81:usb_bsp.c     **** */ 
  82:usb_bsp.c     **** 
  83:usb_bsp.c     **** /** @defgroup USB_BSP_Private_Functions
  84:usb_bsp.c     **** * @{
  85:usb_bsp.c     **** */ 
  86:usb_bsp.c     **** 
  87:usb_bsp.c     **** 
  88:usb_bsp.c     **** /**
  89:usb_bsp.c     **** * @brief  USB_OTG_BSP_Init
  90:usb_bsp.c     **** *         Initilizes BSP configurations
  91:usb_bsp.c     **** * @param  None
  92:usb_bsp.c     **** * @retval None
  93:usb_bsp.c     **** */
  94:usb_bsp.c     **** 
  95:usb_bsp.c     **** void USB_OTG_BSP_Init(USB_OTG_CORE_HANDLE *pdev)
  96:usb_bsp.c     **** {
 100              		.loc 1 96 1 view -0
 101              		.cfi_startproc
 102              		@ args = 0, pretend = 0, frame = 8
 103              		@ frame_needed = 0, uses_anonymous_args = 0
  97:usb_bsp.c     ****   GPIO_InitTypeDef GPIO_InitStructure;
 104              		.loc 1 97 3 view .LVU1
  98:usb_bsp.c     **** #ifndef USE_ULPI_PHY
  99:usb_bsp.c     **** #if defined(USB_OTG_FS_LOW_PWR_MGMT_SUPPORT) || defined(USB_OTG_HS_LOW_PWR_MGMT_SUPPORT)
 100:usb_bsp.c     ****   EXTI_InitTypeDef EXTI_InitStructure;
 101:usb_bsp.c     ****   NVIC_InitTypeDef NVIC_InitStructure;
 102:usb_bsp.c     **** #endif
 103:usb_bsp.c     **** #endif
 104:usb_bsp.c     **** 
 105:usb_bsp.c     ****  #ifdef USE_USB_OTG_FS
 106:usb_bsp.c     **** 
 107:usb_bsp.c     ****   RCC_AHB1PeriphClockCmd( RCC_AHB1Periph_GPIOA , ENABLE);  
 105              		.loc 1 107 3 view .LVU2
 106              	@ usb_bsp.c:96: {
  96:usb_bsp.c     ****   GPIO_InitTypeDef GPIO_InitStructure;
 107              		.loc 1 96 1 is_stmt 0 view .LVU3
 108 0000 30B5     		push	{r4, r5, lr}	@
 109              		.cfi_def_cfa_offset 12
 110              		.cfi_offset 4, -12
 111              		.cfi_offset 5, -8
 112              		.cfi_offset 14, -4
 113              	@ usb_bsp.c:107:   RCC_AHB1PeriphClockCmd( RCC_AHB1Periph_GPIOA , ENABLE);  
 114              		.loc 1 107 3 view .LVU4
 115 0002 0121     		movs	r1, #1	@,
 116              	@ usb_bsp.c:118:   GPIO_Init(GPIOA, &GPIO_InitStructure);  
 108:usb_bsp.c     ****   
 109:usb_bsp.c     ****   /* Configure SOF ID DM DP Pins */
 110:usb_bsp.c     ****   GPIO_InitStructure.GPIO_Pin = //GPIO_Pin_8  |
 111:usb_bsp.c     ****                                 GPIO_Pin_11 | 
ARM GAS  C:\Users\admin\AppData\Local\Temp\ccZgUtcy.s 			page 5


 112:usb_bsp.c     ****                                 GPIO_Pin_12;
 113:usb_bsp.c     ****   
 114:usb_bsp.c     ****   GPIO_InitStructure.GPIO_Speed = GPIO_Speed_100MHz;
 115:usb_bsp.c     ****   GPIO_InitStructure.GPIO_Mode = GPIO_Mode_AF;
 116:usb_bsp.c     ****   GPIO_InitStructure.GPIO_OType = GPIO_OType_PP;
 117:usb_bsp.c     ****   GPIO_InitStructure.GPIO_PuPd = GPIO_PuPd_NOPULL ;
 118:usb_bsp.c     ****   GPIO_Init(GPIOA, &GPIO_InitStructure);  
 117              		.loc 1 118 3 view .LVU5
 118 0004 1F4C     		ldr	r4, .L4	@ tmp117,
 119              	@ usb_bsp.c:96: {
  96:usb_bsp.c     ****   GPIO_InitTypeDef GPIO_InitStructure;
 120              		.loc 1 96 1 view .LVU6
 121 0006 83B0     		sub	sp, sp, #12	@,,
 122              		.cfi_def_cfa_offset 24
 123              	@ usb_bsp.c:107:   RCC_AHB1PeriphClockCmd( RCC_AHB1Periph_GPIOA , ENABLE);  
 107:usb_bsp.c     ****   
 124              		.loc 1 107 3 view .LVU7
 125 0008 0846     		mov	r0, r1	@,
 126              	.LVL1:
 107:usb_bsp.c     ****   
 127              		.loc 1 107 3 view .LVU8
 128 000a FFF7FEFF 		bl	RCC_AHB1PeriphClockCmd		@
 129              	.LVL2:
 110:usb_bsp.c     ****                                 GPIO_Pin_11 | 
 130              		.loc 1 110 3 is_stmt 1 view .LVU9
 131              	@ usb_bsp.c:115:   GPIO_InitStructure.GPIO_Mode = GPIO_Mode_AF;
 115:usb_bsp.c     ****   GPIO_InitStructure.GPIO_OType = GPIO_OType_PP;
 132              		.loc 1 115 32 is_stmt 0 view .LVU10
 133 000e 40F20233 		movw	r3, #770	@ tmp115,
 134              	@ usb_bsp.c:118:   GPIO_Init(GPIOA, &GPIO_InitStructure);  
 135              		.loc 1 118 3 view .LVU11
 136 0012 6946     		mov	r1, sp	@,
 137 0014 2046     		mov	r0, r4	@, tmp117
 138              	@ usb_bsp.c:115:   GPIO_InitStructure.GPIO_Mode = GPIO_Mode_AF;
 115:usb_bsp.c     ****   GPIO_InitStructure.GPIO_OType = GPIO_OType_PP;
 139              		.loc 1 115 32 view .LVU12
 140 0016 4FF4C052 		mov	r2, #6144	@,
 141 001a CDE90023 		strd	r2, r3, [sp]	@, tmp115,
 142              		.loc 1 118 3 is_stmt 1 view .LVU13
 143 001e FFF7FEFF 		bl	GPIO_Init		@
 144              	.LVL3:
 119:usb_bsp.c     ****   
 120:usb_bsp.c     **** //  GPIO_PinAFConfig(GPIOA,GPIO_PinSource8,GPIO_AF_OTG1_FS) ;
 121:usb_bsp.c     ****   GPIO_PinAFConfig(GPIOA,GPIO_PinSource11,GPIO_AF_OTG1_FS) ; 
 145              		.loc 1 121 3 view .LVU14
 146 0022 2046     		mov	r0, r4	@, tmp117
 147 0024 0A22     		movs	r2, #10	@,
 148 0026 0B21     		movs	r1, #11	@,
 149 0028 FFF7FEFF 		bl	GPIO_PinAFConfig		@
 150              	.LVL4:
 122:usb_bsp.c     ****   GPIO_PinAFConfig(GPIOA,GPIO_PinSource12,GPIO_AF_OTG1_FS) ;
 151              		.loc 1 122 3 view .LVU15
 152 002c 2046     		mov	r0, r4	@, tmp117
 153 002e 0A22     		movs	r2, #10	@,
 154 0030 0C21     		movs	r1, #12	@,
 155 0032 FFF7FEFF 		bl	GPIO_PinAFConfig		@
 156              	.LVL5:
ARM GAS  C:\Users\admin\AppData\Local\Temp\ccZgUtcy.s 			page 6


 123:usb_bsp.c     ****   
 124:usb_bsp.c     ****   /* Configure  VBUS Pin */
 125:usb_bsp.c     ****   GPIO_InitStructure.GPIO_Pin = GPIO_Pin_9;
 157              		.loc 1 125 3 view .LVU16
 158              	@ usb_bsp.c:127:   GPIO_InitStructure.GPIO_Mode = GPIO_Mode_IN;
 126:usb_bsp.c     ****   GPIO_InitStructure.GPIO_Speed = GPIO_Speed_100MHz;
 127:usb_bsp.c     ****   GPIO_InitStructure.GPIO_Mode = GPIO_Mode_IN;
 159              		.loc 1 127 32 is_stmt 0 view .LVU17
 160 0036 144B     		ldr	r3, .L4+4	@ tmp121,
 161              	@ usb_bsp.c:125:   GPIO_InitStructure.GPIO_Pin = GPIO_Pin_9;
 125:usb_bsp.c     ****   GPIO_InitStructure.GPIO_Speed = GPIO_Speed_100MHz;
 162              		.loc 1 125 31 view .LVU18
 163 0038 4FF40072 		mov	r2, #512	@ tmp120,
 164              	@ usb_bsp.c:130:   GPIO_Init(GPIOA, &GPIO_InitStructure);    
 128:usb_bsp.c     ****   GPIO_InitStructure.GPIO_OType = GPIO_OType_OD;
 129:usb_bsp.c     ****   GPIO_InitStructure.GPIO_PuPd = GPIO_PuPd_NOPULL ;
 130:usb_bsp.c     ****   GPIO_Init(GPIOA, &GPIO_InitStructure);    
 165              		.loc 1 130 3 view .LVU19
 166 003c 6946     		mov	r1, sp	@,
 167 003e 2046     		mov	r0, r4	@, tmp117
 168              	@ usb_bsp.c:127:   GPIO_InitStructure.GPIO_Mode = GPIO_Mode_IN;
 127:usb_bsp.c     ****   GPIO_InitStructure.GPIO_OType = GPIO_OType_OD;
 169              		.loc 1 127 32 view .LVU20
 170 0040 CDE90023 		strd	r2, r3, [sp]	@ tmp120, tmp121,
 171              		.loc 1 130 3 is_stmt 1 view .LVU21
 172 0044 FFF7FEFF 		bl	GPIO_Init		@
 173              	.LVL6:
 131:usb_bsp.c     ****   
 132:usb_bsp.c     ****   /* Configure ID pin */
 133:usb_bsp.c     ****   GPIO_InitStructure.GPIO_Pin =  GPIO_Pin_10;
 174              		.loc 1 133 3 view .LVU22
 175              	@ usb_bsp.c:133:   GPIO_InitStructure.GPIO_Pin =  GPIO_Pin_10;
 176              		.loc 1 133 31 is_stmt 0 view .LVU23
 177 0048 4FF48063 		mov	r3, #1024	@ tmp124,
 178              	@ usb_bsp.c:135:   GPIO_InitStructure.GPIO_PuPd = GPIO_PuPd_UP ;  
 134:usb_bsp.c     ****   GPIO_InitStructure.GPIO_OType = GPIO_OType_OD;
 135:usb_bsp.c     ****   GPIO_InitStructure.GPIO_PuPd = GPIO_PuPd_UP ;  
 179              		.loc 1 135 32 view .LVU24
 180 004c 0125     		movs	r5, #1	@ tmp125,
 181              	@ usb_bsp.c:137:   GPIO_Init(GPIOA, &GPIO_InitStructure);  
 136:usb_bsp.c     ****   GPIO_InitStructure.GPIO_Speed = GPIO_Speed_100MHz;
 137:usb_bsp.c     ****   GPIO_Init(GPIOA, &GPIO_InitStructure);  
 182              		.loc 1 137 3 view .LVU25
 183 004e 6946     		mov	r1, sp	@,
 184              	@ usb_bsp.c:133:   GPIO_InitStructure.GPIO_Pin =  GPIO_Pin_10;
 133:usb_bsp.c     ****   GPIO_InitStructure.GPIO_OType = GPIO_OType_OD;
 185              		.loc 1 133 31 view .LVU26
 186 0050 0093     		str	r3, [sp]	@ tmp124, GPIO_InitStructure.GPIO_Pin
 134:usb_bsp.c     ****   GPIO_InitStructure.GPIO_OType = GPIO_OType_OD;
 187              		.loc 1 134 3 is_stmt 1 view .LVU27
 135:usb_bsp.c     ****   GPIO_InitStructure.GPIO_Speed = GPIO_Speed_100MHz;
 188              		.loc 1 135 3 view .LVU28
 189              	@ usb_bsp.c:137:   GPIO_Init(GPIOA, &GPIO_InitStructure);  
 190              		.loc 1 137 3 is_stmt 0 view .LVU29
 191 0052 2046     		mov	r0, r4	@, tmp117
 192              	@ usb_bsp.c:136:   GPIO_InitStructure.GPIO_Speed = GPIO_Speed_100MHz;
 136:usb_bsp.c     ****   GPIO_InitStructure.GPIO_Speed = GPIO_Speed_100MHz;
ARM GAS  C:\Users\admin\AppData\Local\Temp\ccZgUtcy.s 			page 7


 193              		.loc 1 136 33 view .LVU30
 194 0054 40F20313 		movw	r3, #259	@ tmp128,
 195 0058 ADF80530 		strh	r3, [sp, #5]	@ unaligned	@ tmp128, MEM <vector(2) unsigned char> [(<unnamed type> *)&GPIO_Ini
 196              	@ usb_bsp.c:135:   GPIO_InitStructure.GPIO_PuPd = GPIO_PuPd_UP ;  
 135:usb_bsp.c     ****   GPIO_InitStructure.GPIO_Speed = GPIO_Speed_100MHz;
 197              		.loc 1 135 32 view .LVU31
 198 005c 8DF80750 		strb	r5, [sp, #7]	@ tmp125, GPIO_InitStructure.GPIO_PuPd
 136:usb_bsp.c     ****   GPIO_InitStructure.GPIO_Speed = GPIO_Speed_100MHz;
 199              		.loc 1 136 3 is_stmt 1 view .LVU32
 200              		.loc 1 137 3 view .LVU33
 201 0060 FFF7FEFF 		bl	GPIO_Init		@
 202              	.LVL7:
 138:usb_bsp.c     ****   GPIO_PinAFConfig(GPIOA,GPIO_PinSource10,GPIO_AF_OTG1_FS) ;   
 203              		.loc 1 138 3 view .LVU34
 204 0064 0A22     		movs	r2, #10	@,
 205 0066 1146     		mov	r1, r2	@,
 206 0068 2046     		mov	r0, r4	@, tmp117
 207 006a FFF7FEFF 		bl	GPIO_PinAFConfig		@
 208              	.LVL8:
 139:usb_bsp.c     **** 
 140:usb_bsp.c     ****   RCC_APB2PeriphClockCmd(RCC_APB2Periph_SYSCFG, ENABLE);
 209              		.loc 1 140 3 view .LVU35
 210 006e 2946     		mov	r1, r5	@, tmp125
 211 0070 4FF48040 		mov	r0, #16384	@,
 212 0074 FFF7FEFF 		bl	RCC_APB2PeriphClockCmd		@
 213              	.LVL9:
 141:usb_bsp.c     ****   RCC_AHB2PeriphClockCmd(RCC_AHB2Periph_OTG_FS, ENABLE) ; 
 214              		.loc 1 141 3 view .LVU36
 215 0078 2946     		mov	r1, r5	@, tmp125
 216 007a 8020     		movs	r0, #128	@,
 217 007c FFF7FEFF 		bl	RCC_AHB2PeriphClockCmd		@
 218              	.LVL10:
 219              	@ usb_bsp.c:242: }
 142:usb_bsp.c     ****  #else // USE_USB_OTG_HS 
 143:usb_bsp.c     **** 
 144:usb_bsp.c     ****   #ifdef USE_ULPI_PHY // ULPI
 145:usb_bsp.c     ****   RCC_AHB1PeriphClockCmd( RCC_AHB1Periph_GPIOA | RCC_AHB1Periph_GPIOB | 
 146:usb_bsp.c     ****                          RCC_AHB1Periph_GPIOC | RCC_AHB1Periph_GPIOH | 
 147:usb_bsp.c     ****                            RCC_AHB1Periph_GPIOI, ENABLE);    
 148:usb_bsp.c     ****   
 149:usb_bsp.c     ****   
 150:usb_bsp.c     ****   GPIO_PinAFConfig(GPIOA,GPIO_PinSource3, GPIO_AF_OTG2_HS) ; // D0
 151:usb_bsp.c     ****   GPIO_PinAFConfig(GPIOA,GPIO_PinSource5, GPIO_AF_OTG2_HS) ; // CLK
 152:usb_bsp.c     ****   GPIO_PinAFConfig(GPIOB,GPIO_PinSource0, GPIO_AF_OTG2_HS) ; // D1
 153:usb_bsp.c     ****   GPIO_PinAFConfig(GPIOB,GPIO_PinSource1, GPIO_AF_OTG2_HS) ; // D2
 154:usb_bsp.c     ****   GPIO_PinAFConfig(GPIOB,GPIO_PinSource5, GPIO_AF_OTG2_HS) ; // D7
 155:usb_bsp.c     ****   GPIO_PinAFConfig(GPIOB,GPIO_PinSource10,GPIO_AF_OTG2_HS) ; // D3
 156:usb_bsp.c     ****   GPIO_PinAFConfig(GPIOB,GPIO_PinSource11,GPIO_AF_OTG2_HS) ; // D4
 157:usb_bsp.c     ****   GPIO_PinAFConfig(GPIOB,GPIO_PinSource12,GPIO_AF_OTG2_HS) ; // D5
 158:usb_bsp.c     ****   GPIO_PinAFConfig(GPIOB,GPIO_PinSource13,GPIO_AF_OTG2_HS) ; // D6
 159:usb_bsp.c     ****   GPIO_PinAFConfig(GPIOH,GPIO_PinSource4, GPIO_AF_OTG2_HS) ; // NXT
 160:usb_bsp.c     ****   GPIO_PinAFConfig(GPIOI,GPIO_PinSource11,GPIO_AF_OTG2_HS) ; // DIR
 161:usb_bsp.c     ****   GPIO_PinAFConfig(GPIOC,GPIO_PinSource0, GPIO_AF_OTG2_HS) ; // STP
 162:usb_bsp.c     ****   
 163:usb_bsp.c     ****   // CLK
 164:usb_bsp.c     ****   GPIO_InitStructure.GPIO_Pin = GPIO_Pin_5 ; 
 165:usb_bsp.c     ****   GPIO_InitStructure.GPIO_Speed = GPIO_Speed_100MHz;
ARM GAS  C:\Users\admin\AppData\Local\Temp\ccZgUtcy.s 			page 8


 166:usb_bsp.c     ****   GPIO_InitStructure.GPIO_Mode = GPIO_Mode_AF;
 167:usb_bsp.c     ****   GPIO_Init(GPIOA, &GPIO_InitStructure);  
 168:usb_bsp.c     ****   
 169:usb_bsp.c     ****   // D0
 170:usb_bsp.c     ****   GPIO_InitStructure.GPIO_Pin = GPIO_Pin_3  ; 
 171:usb_bsp.c     ****   GPIO_InitStructure.GPIO_Speed = GPIO_Speed_100MHz;
 172:usb_bsp.c     ****   GPIO_InitStructure.GPIO_Mode = GPIO_Mode_AF;
 173:usb_bsp.c     ****   GPIO_InitStructure.GPIO_OType = GPIO_OType_PP;
 174:usb_bsp.c     ****   GPIO_InitStructure.GPIO_PuPd = GPIO_PuPd_NOPULL ;
 175:usb_bsp.c     ****   GPIO_Init(GPIOA, &GPIO_InitStructure);  
 176:usb_bsp.c     ****   
 177:usb_bsp.c     ****   
 178:usb_bsp.c     ****   
 179:usb_bsp.c     ****   // D1 D2 D3 D4 D5 D6 D7
 180:usb_bsp.c     ****   GPIO_InitStructure.GPIO_Pin = GPIO_Pin_0 | GPIO_Pin_1  |
 181:usb_bsp.c     ****     GPIO_Pin_5 | GPIO_Pin_10 | 
 182:usb_bsp.c     ****       GPIO_Pin_11| GPIO_Pin_12 | 
 183:usb_bsp.c     ****         GPIO_Pin_13 ;
 184:usb_bsp.c     ****   
 185:usb_bsp.c     ****   GPIO_InitStructure.GPIO_Speed = GPIO_Speed_100MHz;
 186:usb_bsp.c     ****   GPIO_InitStructure.GPIO_Mode = GPIO_Mode_AF;
 187:usb_bsp.c     ****   GPIO_InitStructure.GPIO_OType = GPIO_OType_PP;
 188:usb_bsp.c     ****   GPIO_InitStructure.GPIO_PuPd = GPIO_PuPd_NOPULL ;
 189:usb_bsp.c     ****   GPIO_Init(GPIOB, &GPIO_InitStructure);  
 190:usb_bsp.c     ****   
 191:usb_bsp.c     ****   
 192:usb_bsp.c     ****   // STP
 193:usb_bsp.c     ****   GPIO_InitStructure.GPIO_Pin = GPIO_Pin_0  ;
 194:usb_bsp.c     ****   GPIO_InitStructure.GPIO_Speed = GPIO_Speed_100MHz;
 195:usb_bsp.c     ****   GPIO_InitStructure.GPIO_Mode = GPIO_Mode_AF;
 196:usb_bsp.c     ****   GPIO_Init(GPIOC, &GPIO_InitStructure);  
 197:usb_bsp.c     ****   
 198:usb_bsp.c     ****   //NXT  
 199:usb_bsp.c     ****   GPIO_InitStructure.GPIO_Pin = GPIO_Pin_4;
 200:usb_bsp.c     ****   GPIO_InitStructure.GPIO_Speed = GPIO_Speed_100MHz;
 201:usb_bsp.c     ****   GPIO_InitStructure.GPIO_Mode = GPIO_Mode_AF;
 202:usb_bsp.c     ****   GPIO_Init(GPIOH, &GPIO_InitStructure);  
 203:usb_bsp.c     ****   
 204:usb_bsp.c     ****   
 205:usb_bsp.c     ****   //DIR
 206:usb_bsp.c     ****   GPIO_InitStructure.GPIO_Pin = GPIO_Pin_11 ; 
 207:usb_bsp.c     ****   GPIO_InitStructure.GPIO_Speed = GPIO_Speed_100MHz;
 208:usb_bsp.c     ****   GPIO_InitStructure.GPIO_Mode = GPIO_Mode_AF;
 209:usb_bsp.c     ****   GPIO_Init(GPIOI, &GPIO_InitStructure);  
 210:usb_bsp.c     ****   
 211:usb_bsp.c     ****   
 212:usb_bsp.c     ****   RCC_AHB1PeriphClockCmd( RCC_AHB1Periph_OTG_HS | 
 213:usb_bsp.c     ****                          RCC_AHB1Periph_OTG_HS_ULPI, ENABLE) ;    
 214:usb_bsp.c     ****    
 215:usb_bsp.c     ****   #else
 216:usb_bsp.c     **** 
 217:usb_bsp.c     ****   RCC_AHB1PeriphClockCmd(RCC_AHB1Periph_GPIOB , ENABLE);
 218:usb_bsp.c     ****   
 219:usb_bsp.c     ****   GPIO_InitStructure.GPIO_Pin = GPIO_Pin_12 | 
 220:usb_bsp.c     ****                                 GPIO_Pin_14 | 
 221:usb_bsp.c     ****                                 GPIO_Pin_15;
 222:usb_bsp.c     ****   
ARM GAS  C:\Users\admin\AppData\Local\Temp\ccZgUtcy.s 			page 9


 223:usb_bsp.c     ****   GPIO_InitStructure.GPIO_Speed = GPIO_Speed_100MHz;
 224:usb_bsp.c     ****   GPIO_InitStructure.GPIO_Mode = GPIO_Mode_AF;
 225:usb_bsp.c     ****   GPIO_Init(GPIOB, &GPIO_InitStructure);  
 226:usb_bsp.c     ****   
 227:usb_bsp.c     ****   GPIO_PinAFConfig(GPIOB,GPIO_PinSource12, GPIO_AF_OTG2_FS) ; 
 228:usb_bsp.c     ****   GPIO_PinAFConfig(GPIOB,GPIO_PinSource14,GPIO_AF_OTG2_FS) ; 
 229:usb_bsp.c     ****   GPIO_PinAFConfig(GPIOB,GPIO_PinSource15,GPIO_AF_OTG2_FS) ;
 230:usb_bsp.c     ****   
 231:usb_bsp.c     ****   GPIO_InitStructure.GPIO_Pin = GPIO_Pin_13;
 232:usb_bsp.c     ****   GPIO_InitStructure.GPIO_Speed = GPIO_Speed_100MHz;
 233:usb_bsp.c     ****   GPIO_InitStructure.GPIO_Mode = GPIO_Mode_IN;
 234:usb_bsp.c     ****   GPIO_Init(GPIOB, &GPIO_InitStructure);  
 235:usb_bsp.c     **** 
 236:usb_bsp.c     ****   
 237:usb_bsp.c     ****   RCC_AHB1PeriphClockCmd( RCC_AHB1Periph_OTG_HS, ENABLE) ;  
 238:usb_bsp.c     **** 
 239:usb_bsp.c     ****   #endif // USE_ULPI_PHY
 240:usb_bsp.c     **** 
 241:usb_bsp.c     ****  #endif //USB_OTG_HS
 242:usb_bsp.c     **** }
 220              		.loc 1 242 1 is_stmt 0 view .LVU37
 221 0080 03B0     		add	sp, sp, #12	@,,
 222              		.cfi_def_cfa_offset 12
 223              		@ sp needed	@
 224 0082 30BD     		pop	{r4, r5, pc}	@
 225              	.L5:
 226              		.align	2
 227              	.L4:
 228 0084 00000240 		.word	1073872896
 229 0088 00030100 		.word	66304
 230              		.cfi_endproc
 231              	.LFE110:
 232              		.size	USB_OTG_BSP_Init, .-USB_OTG_BSP_Init
 233              		.section	.text.USB_OTG_BSP_EnableInterrupt,"ax",%progbits
 234              		.align	1
 235              		.p2align 2,,3
 236              		.global	USB_OTG_BSP_EnableInterrupt
 237              		.syntax unified
 238              		.thumb
 239              		.thumb_func
 240              		.type	USB_OTG_BSP_EnableInterrupt, %function
 241              	USB_OTG_BSP_EnableInterrupt:
 242              	.LVL11:
 243              	.LFB111:
 243:usb_bsp.c     **** /**
 244:usb_bsp.c     **** * @brief  USB_OTG_BSP_EnableInterrupt
 245:usb_bsp.c     **** *         Enabele USB Global interrupt
 246:usb_bsp.c     **** * @param  None
 247:usb_bsp.c     **** * @retval None
 248:usb_bsp.c     **** */
 249:usb_bsp.c     **** void USB_OTG_BSP_EnableInterrupt(USB_OTG_CORE_HANDLE *pdev)
 250:usb_bsp.c     **** {
 244              		.loc 1 250 1 is_stmt 1 view -0
 245              		.cfi_startproc
 246              		@ args = 0, pretend = 0, frame = 8
 247              		@ frame_needed = 0, uses_anonymous_args = 0
 251:usb_bsp.c     ****   NVIC_InitTypeDef NVIC_InitStructure; 
ARM GAS  C:\Users\admin\AppData\Local\Temp\ccZgUtcy.s 			page 10


 248              		.loc 1 251 3 view .LVU39
 252:usb_bsp.c     ****   
 253:usb_bsp.c     ****   NVIC_PriorityGroupConfig(NVIC_PriorityGroup_1);
 249              		.loc 1 253 3 view .LVU40
 250              	@ usb_bsp.c:250: {
 250:usb_bsp.c     ****   NVIC_InitTypeDef NVIC_InitStructure; 
 251              		.loc 1 250 1 is_stmt 0 view .LVU41
 252 0000 00B5     		push	{lr}	@
 253              		.cfi_def_cfa_offset 4
 254              		.cfi_offset 14, -4
 255              	@ usb_bsp.c:253:   NVIC_PriorityGroupConfig(NVIC_PriorityGroup_1);
 256              		.loc 1 253 3 view .LVU42
 257 0002 4FF4C060 		mov	r0, #1536	@,
 258              	.LVL12:
 259              	@ usb_bsp.c:250: {
 250:usb_bsp.c     ****   NVIC_InitTypeDef NVIC_InitStructure; 
 260              		.loc 1 250 1 view .LVU43
 261 0006 83B0     		sub	sp, sp, #12	@,,
 262              		.cfi_def_cfa_offset 16
 263              	@ usb_bsp.c:253:   NVIC_PriorityGroupConfig(NVIC_PriorityGroup_1);
 264              		.loc 1 253 3 view .LVU44
 265 0008 FFF7FEFF 		bl	NVIC_PriorityGroupConfig		@
 266              	.LVL13:
 254:usb_bsp.c     **** #ifdef USE_USB_OTG_HS   
 255:usb_bsp.c     ****   NVIC_InitStructure.NVIC_IRQChannel = OTG_HS_IRQn;
 256:usb_bsp.c     **** #else
 257:usb_bsp.c     ****   NVIC_InitStructure.NVIC_IRQChannel = OTG_FS_IRQn;  
 267              		.loc 1 257 3 is_stmt 1 view .LVU45
 258:usb_bsp.c     **** #endif
 259:usb_bsp.c     ****   NVIC_InitStructure.NVIC_IRQChannelPreemptionPriority = 1;
 268              		.loc 1 259 3 view .LVU46
 260:usb_bsp.c     ****   NVIC_InitStructure.NVIC_IRQChannelSubPriority = 3;
 269              		.loc 1 260 3 view .LVU47
 261:usb_bsp.c     ****   NVIC_InitStructure.NVIC_IRQChannelCmd = ENABLE;
 270              		.loc 1 261 3 view .LVU48
 271              	@ usb_bsp.c:257:   NVIC_InitStructure.NVIC_IRQChannel = OTG_FS_IRQn;  
 257:usb_bsp.c     **** #endif
 272              		.loc 1 257 38 is_stmt 0 view .LVU49
 273 000c 034B     		ldr	r3, .L8	@ tmp114,
 274 000e 0193     		str	r3, [sp, #4]	@ tmp114, MEM <vector(4) unsigned char> [(unsigned char *)&NVIC_InitStructure]
 262:usb_bsp.c     ****   NVIC_Init(&NVIC_InitStructure);  
 275              		.loc 1 262 3 is_stmt 1 view .LVU50
 276 0010 01A8     		add	r0, sp, #4	@,,
 277 0012 FFF7FEFF 		bl	NVIC_Init		@
 278              	.LVL14:
 279              	@ usb_bsp.c:278: }
 263:usb_bsp.c     **** #ifdef USB_OTG_HS_DEDICATED_EP1_ENABLED
 264:usb_bsp.c     ****   NVIC_PriorityGroupConfig(NVIC_PriorityGroup_1);
 265:usb_bsp.c     ****   NVIC_InitStructure.NVIC_IRQChannel = OTG_HS_EP1_OUT_IRQn;
 266:usb_bsp.c     ****   NVIC_InitStructure.NVIC_IRQChannelPreemptionPriority = 1;
 267:usb_bsp.c     ****   NVIC_InitStructure.NVIC_IRQChannelSubPriority = 2;
 268:usb_bsp.c     ****   NVIC_InitStructure.NVIC_IRQChannelCmd = ENABLE;
 269:usb_bsp.c     ****   NVIC_Init(&NVIC_InitStructure);  
 270:usb_bsp.c     ****   
 271:usb_bsp.c     ****   NVIC_PriorityGroupConfig(NVIC_PriorityGroup_1);
 272:usb_bsp.c     ****   NVIC_InitStructure.NVIC_IRQChannel = OTG_HS_EP1_IN_IRQn;
 273:usb_bsp.c     ****   NVIC_InitStructure.NVIC_IRQChannelPreemptionPriority = 1;
ARM GAS  C:\Users\admin\AppData\Local\Temp\ccZgUtcy.s 			page 11


 274:usb_bsp.c     ****   NVIC_InitStructure.NVIC_IRQChannelSubPriority = 1;
 275:usb_bsp.c     ****   NVIC_InitStructure.NVIC_IRQChannelCmd = ENABLE;
 276:usb_bsp.c     ****   NVIC_Init(&NVIC_InitStructure);   
 277:usb_bsp.c     **** #endif
 278:usb_bsp.c     **** }
 280              		.loc 1 278 1 is_stmt 0 view .LVU51
 281 0016 03B0     		add	sp, sp, #12	@,,
 282              		.cfi_def_cfa_offset 4
 283              		@ sp needed	@
 284 0018 5DF804FB 		ldr	pc, [sp], #4	@
 285              	.L9:
 286              		.align	2
 287              	.L8:
 288 001c 43010301 		.word	16974147
 289              		.cfi_endproc
 290              	.LFE111:
 291              		.size	USB_OTG_BSP_EnableInterrupt, .-USB_OTG_BSP_EnableInterrupt
 292              		.section	.text.USB_OTG_BSP_uDelay,"ax",%progbits
 293              		.align	1
 294              		.p2align 2,,3
 295              		.global	USB_OTG_BSP_uDelay
 296              		.syntax unified
 297              		.thumb
 298              		.thumb_func
 299              		.type	USB_OTG_BSP_uDelay, %function
 300              	USB_OTG_BSP_uDelay:
 301              	.LVL15:
 302              	.LFB112:
 279:usb_bsp.c     **** /**
 280:usb_bsp.c     **** * @brief  USB_OTG_BSP_uDelay
 281:usb_bsp.c     **** *         This function provides delay time in micro sec
 282:usb_bsp.c     **** * @param  usec : Value of delay required in micro sec
 283:usb_bsp.c     **** * @retval None
 284:usb_bsp.c     **** */
 285:usb_bsp.c     **** void USB_OTG_BSP_uDelay (const uint32_t usec)
 286:usb_bsp.c     **** {
 303              		.loc 1 286 1 is_stmt 1 view -0
 304              		.cfi_startproc
 305              		@ args = 0, pretend = 0, frame = 0
 306              		@ frame_needed = 0, uses_anonymous_args = 0
 307              		@ link register save eliminated.
 287:usb_bsp.c     ****   uint32_t count = 0;
 308              		.loc 1 287 3 view .LVU53
 288:usb_bsp.c     ****   const uint32_t utime = ((SystemCoreClock/1000000) * usec / 7);
 309              		.loc 1 288 3 view .LVU54
 289:usb_bsp.c     ****   do
 310              		.loc 1 289 3 view .LVU55
 290:usb_bsp.c     ****   {
 291:usb_bsp.c     ****     if ( ++count > utime )
 311              		.loc 1 291 5 view .LVU56
 292:usb_bsp.c     ****     {
 293:usb_bsp.c     ****       return ;
 312              		.loc 1 293 7 view .LVU57
 313              	@ usb_bsp.c:297: }
 294:usb_bsp.c     ****     }
 295:usb_bsp.c     ****   }
 296:usb_bsp.c     ****   while (1);
ARM GAS  C:\Users\admin\AppData\Local\Temp\ccZgUtcy.s 			page 12


 297:usb_bsp.c     **** }
 314              		.loc 1 297 1 is_stmt 0 view .LVU58
 315 0000 7047     		bx	lr	@
 316              		.cfi_endproc
 317              	.LFE112:
 318              		.size	USB_OTG_BSP_uDelay, .-USB_OTG_BSP_uDelay
 319 0002 00BF     		.section	.text.USB_OTG_BSP_mDelay,"ax",%progbits
 320              		.align	1
 321              		.p2align 2,,3
 322              		.global	USB_OTG_BSP_mDelay
 323              		.syntax unified
 324              		.thumb
 325              		.thumb_func
 326              		.type	USB_OTG_BSP_mDelay, %function
 327              	USB_OTG_BSP_mDelay:
 328              	.LFB115:
 329              		.cfi_startproc
 330              		@ args = 0, pretend = 0, frame = 0
 331              		@ frame_needed = 0, uses_anonymous_args = 0
 332              		@ link register save eliminated.
 333 0000 7047     		bx	lr	@
 334              		.cfi_endproc
 335              	.LFE115:
 336              		.size	USB_OTG_BSP_mDelay, .-USB_OTG_BSP_mDelay
 337 0002 00BF     		.text
 338              	.Letext0:
 339              		.file 2 "c:\\program files (x86)\\gnu arm embedded toolchain\\10 2021.10\\arm-none-eabi\\include\\
 340              		.file 3 "c:\\program files (x86)\\gnu arm embedded toolchain\\10 2021.10\\arm-none-eabi\\include\\
 341              		.file 4 "../Libraries/CMSIS/ST/STM32F4xx/Include/stm32f4xx.h"
 342              		.file 5 "../Libraries/STM32_USB_OTG_Driver/inc/usb_regs.h"
 343              		.file 6 "../Libraries/STM32_USB_OTG_Driver/inc/usb_core.h"
 344              		.file 7 "../Libraries/STM32F4xx_StdPeriph_Driver/inc/stm32f4xx_gpio.h"
 345              		.file 8 "../Libraries/STM32F4xx_StdPeriph_Driver/inc/misc.h"
 346              		.file 9 "../Libraries/STM32F4xx_StdPeriph_Driver/inc/stm32f4xx_rcc.h"
 347              		.file 10 "../Libraries/CMSIS/ST/STM32F4xx/Include/system_stm32f4xx.h"