ARM GAS  C:\Users\admin\AppData\Local\Temp\ccO5mwn0.s 			page 1


   1              		.cpu cortex-m4
   2              		.arch armv7e-m
   3              		.fpu fpv4-sp-d16
   4              		.eabi_attribute 27, 1	@ Tag_ABI_HardFP_use
   5              		.eabi_attribute 28, 1	@ Tag_ABI_VFP_args
   6              		.eabi_attribute 23, 1	@ Tag_ABI_FP_number_model
   7              		.eabi_attribute 24, 1	@ Tag_ABI_align8_needed
   8              		.eabi_attribute 25, 1	@ Tag_ABI_align8_preserved
   9              		.eabi_attribute 26, 1	@ Tag_ABI_enum_size
  10              		.eabi_attribute 30, 2	@ Tag_ABI_optimization_goals
  11              		.eabi_attribute 34, 1	@ Tag_CPU_unaligned_access
  12              		.eabi_attribute 18, 4	@ Tag_ABI_PCS_wchar_t
  13              		.file	"usbd_ioreq.c"
  14              	@ GNU C89 (GNU Arm Embedded Toolchain 10.3-2021.10) version 10.3.1 20210824 (release) (arm-none-eab
  15              	@	compiled by GNU C version 7.3-win32 20180312, GMP version 6.1.0, MPFR version 3.1.4, MPC version 
  16              	
  17              	@ GGC heuristics: --param ggc-min-expand=100 --param ggc-min-heapsize=131072
  18              	@ options passed:  -I . -I . -I ../Utilities/STM32F4-Discovery/
  19              	@ -I ../Libraries/STM32_USB_Device_Library/Class/audio/inc/
  20              	@ -I ../Libraries/STM32_USB_Device_Library/Core/inc/
  21              	@ -I ../Libraries/STM32_USB_OTG_Driver/inc/
  22              	@ -I ../Utilities/STM32F4-Discovery/
  23              	@ -I ../Libraries/STM32F4xx_StdPeriph_Driver/inc/
  24              	@ -I ../Utilities/STM32F4-Discovery/
  25              	@ -I ../Libraries/CMSIS/ST/STM32F4xx/Include/
  26              	@ -I ../Libraries/CMSIS/Include/ -imultilib thumb/v7e-m+fp/hard
  27              	@ -iprefix c:\program files (x86)\gnu arm embedded toolchain\10 2021.10\bin\../lib/gcc/arm-none-eab
  28              	@ -isysroot c:\program files (x86)\gnu arm embedded toolchain\10 2021.10\bin\../arm-none-eabi
  29              	@ -MD out/usbd_ioreq.d -MF out/usbd_ioreq.d -MP -MQ out/usbd_ioreq.o
  30              	@ -D__USES_INITFINI__ -D STM32F4XX -D __VFP_FP__ -D USE_USB_OTG_FS
  31              	@ ../Libraries/STM32_USB_Device_Library/Core/src/usbd_ioreq.c
  32              	@ -mcpu=cortex-m4 -mthumb -mfloat-abi=hard -mfpu=fpv4-sp-d16
  33              	@ -mlibarch=armv7e-m+fp -march=armv7e-m+fp -auxbase-strip out/usbd_ioreq.o
  34              	@ -g -ggdb3 -O3 -Wall -Wstrict-prototypes -Wextra -std=gnu90 -ffast-math
  35              	@ -ffunction-sections -fdata-sections -fverbose-asm
  36              	@ options enabled:  -faggressive-loop-optimizations -falign-functions
  37              	@ -falign-jumps -falign-labels -falign-loops -fallocation-dce
  38              	@ -fassociative-math -fauto-inc-dec -fbranch-count-reg -fcaller-saves
  39              	@ -fcombine-stack-adjustments -fcompare-elim -fcprop-registers
  40              	@ -fcrossjumping -fcse-follow-jumps -fcx-limited-range -fdata-sections
  41              	@ -fdefer-pop -fdelete-null-pointer-checks -fdevirtualize
  42              	@ -fdevirtualize-speculatively -fdwarf2-cfi-asm -fearly-inlining
  43              	@ -feliminate-unused-debug-symbols -feliminate-unused-debug-types
  44              	@ -fexpensive-optimizations -ffinite-math-only -fforward-propagate
  45              	@ -ffp-int-builtin-inexact -ffunction-cse -ffunction-sections -fgcse
  46              	@ -fgcse-after-reload -fgcse-lm -fgnu-unique -fguess-branch-probability
  47              	@ -fhoist-adjacent-loads -fident -fif-conversion -fif-conversion2
  48              	@ -findirect-inlining -finline -finline-atomics -finline-functions
  49              	@ -finline-functions-called-once -finline-small-functions -fipa-bit-cp
  50              	@ -fipa-cp -fipa-cp-clone -fipa-icf -fipa-icf-functions -fipa-icf-variables
  51              	@ -fipa-profile -fipa-pure-const -fipa-ra -fipa-reference
  52              	@ -fipa-reference-addressable -fipa-sra -fipa-stack-alignment -fipa-vrp
  53              	@ -fira-hoist-pressure -fira-share-save-slots -fira-share-spill-slots
  54              	@ -fisolate-erroneous-paths-dereference -fivopts -fkeep-static-consts
  55              	@ -fleading-underscore -flifetime-dse -floop-interchange
  56              	@ -floop-unroll-and-jam -flra-remat -fmerge-constants -fmerge-debug-strings
  57              	@ -fmove-loop-invariants -fomit-frame-pointer -foptimize-sibling-calls
ARM GAS  C:\Users\admin\AppData\Local\Temp\ccO5mwn0.s 			page 2


  58              	@ -foptimize-strlen -fpartial-inlining -fpeel-loops -fpeephole -fpeephole2
  59              	@ -fplt -fpredictive-commoning -fprefetch-loop-arrays -freciprocal-math
  60              	@ -freg-struct-return -freorder-blocks -freorder-functions
  61              	@ -frerun-cse-after-loop -fsched-critical-path-heuristic
  62              	@ -fsched-dep-count-heuristic -fsched-group-heuristic -fsched-interblock
  63              	@ -fsched-last-insn-heuristic -fsched-pressure -fsched-rank-heuristic
  64              	@ -fsched-spec -fsched-spec-insn-heuristic -fsched-stalled-insns-dep
  65              	@ -fschedule-insns -fschedule-insns2 -fsection-anchors
  66              	@ -fsemantic-interposition -fshow-column -fshrink-wrap
  67              	@ -fshrink-wrap-separate -fsplit-ivs-in-unroller -fsplit-loops
  68              	@ -fsplit-paths -fsplit-wide-types -fssa-backprop -fssa-phiopt -fstdarg-opt
  69              	@ -fstore-merging -fstrict-aliasing -fstrict-volatile-bitfields
  70              	@ -fsync-libcalls -fthread-jumps -ftoplevel-reorder -ftree-bit-ccp
  71              	@ -ftree-builtin-call-dce -ftree-ccp -ftree-ch -ftree-coalesce-vars
  72              	@ -ftree-copy-prop -ftree-cselim -ftree-dce -ftree-dominator-opts
  73              	@ -ftree-dse -ftree-forwprop -ftree-fre -ftree-loop-distribute-patterns
  74              	@ -ftree-loop-distribution -ftree-loop-if-convert -ftree-loop-im
  75              	@ -ftree-loop-ivcanon -ftree-loop-optimize -ftree-loop-vectorize
  76              	@ -ftree-parallelize-loops= -ftree-partial-pre -ftree-phiprop -ftree-pre
  77              	@ -ftree-pta -ftree-reassoc -ftree-scev-cprop -ftree-sink
  78              	@ -ftree-slp-vectorize -ftree-slsr -ftree-sra -ftree-switch-conversion
  79              	@ -ftree-tail-merge -ftree-ter -ftree-vrp -funit-at-a-time
  80              	@ -funsafe-math-optimizations -funswitch-loops -fvar-tracking
  81              	@ -fvar-tracking-assignments -fverbose-asm -fversion-loops-for-strides
  82              	@ -fzero-initialized-in-bss -masm-syntax-unified -mbe32 -mlittle-endian
  83              	@ -mpic-data-is-text-relative -msched-prolog -mthumb -munaligned-access
  84              	@ -mvectorize-with-neon-quad
  85              	
  86              		.text
  87              	.Ltext0:
  88              		.cfi_sections	.debug_frame
  89              		.section	.text.USBD_CtlSendData,"ax",%progbits
  90              		.align	1
  91              		.p2align 2,,3
  92              		.global	USBD_CtlSendData
  93              		.syntax unified
  94              		.thumb
  95              		.thumb_func
  96              		.type	USBD_CtlSendData, %function
  97              	USBD_CtlSendData:
  98              	.LVL0:
  99              	.LFB110:
 100              		.file 1 "../Libraries/STM32_USB_Device_Library/Core/src/usbd_ioreq.c"
   1:../Libraries/STM32_USB_Device_Library/Core/src/usbd_ioreq.c **** /**
   2:../Libraries/STM32_USB_Device_Library/Core/src/usbd_ioreq.c ****   ******************************************************************************
   3:../Libraries/STM32_USB_Device_Library/Core/src/usbd_ioreq.c ****   * @file    usbd_ioreq.c
   4:../Libraries/STM32_USB_Device_Library/Core/src/usbd_ioreq.c ****   * @author  MCD Application Team
   5:../Libraries/STM32_USB_Device_Library/Core/src/usbd_ioreq.c ****   * @version V1.1.0
   6:../Libraries/STM32_USB_Device_Library/Core/src/usbd_ioreq.c ****   * @date    19-March-2012
   7:../Libraries/STM32_USB_Device_Library/Core/src/usbd_ioreq.c ****   * @brief   This file provides the IO requests APIs for control endpoints.
   8:../Libraries/STM32_USB_Device_Library/Core/src/usbd_ioreq.c ****   ******************************************************************************
   9:../Libraries/STM32_USB_Device_Library/Core/src/usbd_ioreq.c ****   * @attention
  10:../Libraries/STM32_USB_Device_Library/Core/src/usbd_ioreq.c ****   *
  11:../Libraries/STM32_USB_Device_Library/Core/src/usbd_ioreq.c ****   * <h2><center>&copy; COPYRIGHT 2012 STMicroelectronics</center></h2>
  12:../Libraries/STM32_USB_Device_Library/Core/src/usbd_ioreq.c ****   *
  13:../Libraries/STM32_USB_Device_Library/Core/src/usbd_ioreq.c ****   * Licensed under MCD-ST Liberty SW License Agreement V2, (the "License");
  14:../Libraries/STM32_USB_Device_Library/Core/src/usbd_ioreq.c ****   * You may not use this file except in compliance with the License.
ARM GAS  C:\Users\admin\AppData\Local\Temp\ccO5mwn0.s 			page 3


  15:../Libraries/STM32_USB_Device_Library/Core/src/usbd_ioreq.c ****   * You may obtain a copy of the License at:
  16:../Libraries/STM32_USB_Device_Library/Core/src/usbd_ioreq.c ****   *
  17:../Libraries/STM32_USB_Device_Library/Core/src/usbd_ioreq.c ****   *        http://www.st.com/software_license_agreement_liberty_v2
  18:../Libraries/STM32_USB_Device_Library/Core/src/usbd_ioreq.c ****   *
  19:../Libraries/STM32_USB_Device_Library/Core/src/usbd_ioreq.c ****   * Unless required by applicable law or agreed to in writing, software 
  20:../Libraries/STM32_USB_Device_Library/Core/src/usbd_ioreq.c ****   * distributed under the License is distributed on an "AS IS" BASIS, 
  21:../Libraries/STM32_USB_Device_Library/Core/src/usbd_ioreq.c ****   * WITHOUT WARRANTIES OR CONDITIONS OF ANY KIND, either express or implied.
  22:../Libraries/STM32_USB_Device_Library/Core/src/usbd_ioreq.c ****   * See the License for the specific language governing permissions and
  23:../Libraries/STM32_USB_Device_Library/Core/src/usbd_ioreq.c ****   * limitations under the License.
  24:../Libraries/STM32_USB_Device_Library/Core/src/usbd_ioreq.c ****   *
  25:../Libraries/STM32_USB_Device_Library/Core/src/usbd_ioreq.c ****   ******************************************************************************
  26:../Libraries/STM32_USB_Device_Library/Core/src/usbd_ioreq.c ****   */ 
  27:../Libraries/STM32_USB_Device_Library/Core/src/usbd_ioreq.c **** 
  28:../Libraries/STM32_USB_Device_Library/Core/src/usbd_ioreq.c **** /* Includes ------------------------------------------------------------------*/
  29:../Libraries/STM32_USB_Device_Library/Core/src/usbd_ioreq.c **** #include "usbd_ioreq.h"
  30:../Libraries/STM32_USB_Device_Library/Core/src/usbd_ioreq.c **** 
  31:../Libraries/STM32_USB_Device_Library/Core/src/usbd_ioreq.c **** /** @addtogroup STM32_USB_OTG_DEVICE_LIBRARY
  32:../Libraries/STM32_USB_Device_Library/Core/src/usbd_ioreq.c ****   * @{
  33:../Libraries/STM32_USB_Device_Library/Core/src/usbd_ioreq.c ****   */
  34:../Libraries/STM32_USB_Device_Library/Core/src/usbd_ioreq.c **** 
  35:../Libraries/STM32_USB_Device_Library/Core/src/usbd_ioreq.c **** 
  36:../Libraries/STM32_USB_Device_Library/Core/src/usbd_ioreq.c **** /** @defgroup USBD_IOREQ 
  37:../Libraries/STM32_USB_Device_Library/Core/src/usbd_ioreq.c ****   * @brief control I/O requests module
  38:../Libraries/STM32_USB_Device_Library/Core/src/usbd_ioreq.c ****   * @{
  39:../Libraries/STM32_USB_Device_Library/Core/src/usbd_ioreq.c ****   */ 
  40:../Libraries/STM32_USB_Device_Library/Core/src/usbd_ioreq.c **** 
  41:../Libraries/STM32_USB_Device_Library/Core/src/usbd_ioreq.c **** /** @defgroup USBD_IOREQ_Private_TypesDefinitions
  42:../Libraries/STM32_USB_Device_Library/Core/src/usbd_ioreq.c ****   * @{
  43:../Libraries/STM32_USB_Device_Library/Core/src/usbd_ioreq.c ****   */ 
  44:../Libraries/STM32_USB_Device_Library/Core/src/usbd_ioreq.c **** /**
  45:../Libraries/STM32_USB_Device_Library/Core/src/usbd_ioreq.c ****   * @}
  46:../Libraries/STM32_USB_Device_Library/Core/src/usbd_ioreq.c ****   */ 
  47:../Libraries/STM32_USB_Device_Library/Core/src/usbd_ioreq.c **** 
  48:../Libraries/STM32_USB_Device_Library/Core/src/usbd_ioreq.c **** 
  49:../Libraries/STM32_USB_Device_Library/Core/src/usbd_ioreq.c **** /** @defgroup USBD_IOREQ_Private_Defines
  50:../Libraries/STM32_USB_Device_Library/Core/src/usbd_ioreq.c ****   * @{
  51:../Libraries/STM32_USB_Device_Library/Core/src/usbd_ioreq.c ****   */ 
  52:../Libraries/STM32_USB_Device_Library/Core/src/usbd_ioreq.c **** 
  53:../Libraries/STM32_USB_Device_Library/Core/src/usbd_ioreq.c **** /**
  54:../Libraries/STM32_USB_Device_Library/Core/src/usbd_ioreq.c ****   * @}
  55:../Libraries/STM32_USB_Device_Library/Core/src/usbd_ioreq.c ****   */ 
  56:../Libraries/STM32_USB_Device_Library/Core/src/usbd_ioreq.c **** 
  57:../Libraries/STM32_USB_Device_Library/Core/src/usbd_ioreq.c **** 
  58:../Libraries/STM32_USB_Device_Library/Core/src/usbd_ioreq.c **** /** @defgroup USBD_IOREQ_Private_Macros
  59:../Libraries/STM32_USB_Device_Library/Core/src/usbd_ioreq.c ****   * @{
  60:../Libraries/STM32_USB_Device_Library/Core/src/usbd_ioreq.c ****   */ 
  61:../Libraries/STM32_USB_Device_Library/Core/src/usbd_ioreq.c **** /**
  62:../Libraries/STM32_USB_Device_Library/Core/src/usbd_ioreq.c ****   * @}
  63:../Libraries/STM32_USB_Device_Library/Core/src/usbd_ioreq.c ****   */ 
  64:../Libraries/STM32_USB_Device_Library/Core/src/usbd_ioreq.c **** 
  65:../Libraries/STM32_USB_Device_Library/Core/src/usbd_ioreq.c **** 
  66:../Libraries/STM32_USB_Device_Library/Core/src/usbd_ioreq.c **** /** @defgroup USBD_IOREQ_Private_Variables
  67:../Libraries/STM32_USB_Device_Library/Core/src/usbd_ioreq.c ****   * @{
  68:../Libraries/STM32_USB_Device_Library/Core/src/usbd_ioreq.c ****   */ 
  69:../Libraries/STM32_USB_Device_Library/Core/src/usbd_ioreq.c **** 
  70:../Libraries/STM32_USB_Device_Library/Core/src/usbd_ioreq.c **** /**
  71:../Libraries/STM32_USB_Device_Library/Core/src/usbd_ioreq.c ****   * @}
ARM GAS  C:\Users\admin\AppData\Local\Temp\ccO5mwn0.s 			page 4


  72:../Libraries/STM32_USB_Device_Library/Core/src/usbd_ioreq.c ****   */ 
  73:../Libraries/STM32_USB_Device_Library/Core/src/usbd_ioreq.c **** 
  74:../Libraries/STM32_USB_Device_Library/Core/src/usbd_ioreq.c **** 
  75:../Libraries/STM32_USB_Device_Library/Core/src/usbd_ioreq.c **** /** @defgroup USBD_IOREQ_Private_FunctionPrototypes
  76:../Libraries/STM32_USB_Device_Library/Core/src/usbd_ioreq.c ****   * @{
  77:../Libraries/STM32_USB_Device_Library/Core/src/usbd_ioreq.c ****   */ 
  78:../Libraries/STM32_USB_Device_Library/Core/src/usbd_ioreq.c **** /**
  79:../Libraries/STM32_USB_Device_Library/Core/src/usbd_ioreq.c ****   * @}
  80:../Libraries/STM32_USB_Device_Library/Core/src/usbd_ioreq.c ****   */ 
  81:../Libraries/STM32_USB_Device_Library/Core/src/usbd_ioreq.c **** 
  82:../Libraries/STM32_USB_Device_Library/Core/src/usbd_ioreq.c **** 
  83:../Libraries/STM32_USB_Device_Library/Core/src/usbd_ioreq.c **** /** @defgroup USBD_IOREQ_Private_Functions
  84:../Libraries/STM32_USB_Device_Library/Core/src/usbd_ioreq.c ****   * @{
  85:../Libraries/STM32_USB_Device_Library/Core/src/usbd_ioreq.c ****   */ 
  86:../Libraries/STM32_USB_Device_Library/Core/src/usbd_ioreq.c **** 
  87:../Libraries/STM32_USB_Device_Library/Core/src/usbd_ioreq.c **** /**
  88:../Libraries/STM32_USB_Device_Library/Core/src/usbd_ioreq.c **** * @brief  USBD_CtlSendData
  89:../Libraries/STM32_USB_Device_Library/Core/src/usbd_ioreq.c **** *         send data on the ctl pipe
  90:../Libraries/STM32_USB_Device_Library/Core/src/usbd_ioreq.c **** * @param  pdev: device instance
  91:../Libraries/STM32_USB_Device_Library/Core/src/usbd_ioreq.c **** * @param  buff: pointer to data buffer
  92:../Libraries/STM32_USB_Device_Library/Core/src/usbd_ioreq.c **** * @param  len: length of data to be sent
  93:../Libraries/STM32_USB_Device_Library/Core/src/usbd_ioreq.c **** * @retval status
  94:../Libraries/STM32_USB_Device_Library/Core/src/usbd_ioreq.c **** */
  95:../Libraries/STM32_USB_Device_Library/Core/src/usbd_ioreq.c **** USBD_Status  USBD_CtlSendData (USB_OTG_CORE_HANDLE  *pdev, 
  96:../Libraries/STM32_USB_Device_Library/Core/src/usbd_ioreq.c ****                                uint8_t *pbuf,
  97:../Libraries/STM32_USB_Device_Library/Core/src/usbd_ioreq.c ****                                uint16_t len)
  98:../Libraries/STM32_USB_Device_Library/Core/src/usbd_ioreq.c **** {
 101              		.loc 1 98 1 view -0
 102              		.cfi_startproc
 103              		@ args = 0, pretend = 0, frame = 0
 104              		@ frame_needed = 0, uses_anonymous_args = 0
  99:../Libraries/STM32_USB_Device_Library/Core/src/usbd_ioreq.c ****   USBD_Status ret = USBD_OK;
 105              		.loc 1 99 3 view .LVU1
 100:../Libraries/STM32_USB_Device_Library/Core/src/usbd_ioreq.c ****   
 101:../Libraries/STM32_USB_Device_Library/Core/src/usbd_ioreq.c ****   pdev->dev.in_ep[0].total_data_len = len;
 106              		.loc 1 101 3 view .LVU2
 107              	@ ../Libraries/STM32_USB_Device_Library/Core/src/usbd_ioreq.c:98: {
  98:../Libraries/STM32_USB_Device_Library/Core/src/usbd_ioreq.c ****   USBD_Status ret = USBD_OK;
 108              		.loc 1 98 1 is_stmt 0 view .LVU3
 109 0000 08B5     		push	{r3, lr}	@
 110              		.cfi_def_cfa_offset 8
 111              		.cfi_offset 3, -8
 112              		.cfi_offset 14, -4
 113              	@ ../Libraries/STM32_USB_Device_Library/Core/src/usbd_ioreq.c:98: {
  98:../Libraries/STM32_USB_Device_Library/Core/src/usbd_ioreq.c ****   USBD_Status ret = USBD_OK;
 114              		.loc 1 98 1 view .LVU4
 115 0002 1346     		mov	r3, r2	@ len, tmp123
 116 0004 0A46     		mov	r2, r1	@ tmp122, pbuf
 117              	.LVL1:
 118              	@ ../Libraries/STM32_USB_Device_Library/Core/src/usbd_ioreq.c:103:   pdev->dev.device_state = USB_O
 102:../Libraries/STM32_USB_Device_Library/Core/src/usbd_ioreq.c ****   pdev->dev.in_ep[0].rem_data_len   = len;
 103:../Libraries/STM32_USB_Device_Library/Core/src/usbd_ioreq.c ****   pdev->dev.device_state = USB_OTG_EP0_DATA_IN;
 119              		.loc 1 103 26 view .LVU5
 120 0006 0221     		movs	r1, #2	@ tmp118,
 121              	.LVL2:
 122              	@ ../Libraries/STM32_USB_Device_Library/Core/src/usbd_ioreq.c:102:   pdev->dev.in_ep[0].rem_data_le
 102:../Libraries/STM32_USB_Device_Library/Core/src/usbd_ioreq.c ****   pdev->dev.in_ep[0].rem_data_len   = len;
ARM GAS  C:\Users\admin\AppData\Local\Temp\ccO5mwn0.s 			page 5


 123              		.loc 1 102 37 view .LVU6
 124 0008 C0E94E33 		strd	r3, r3, [r0, #312]	@ len, len, pdev,
 125              		.loc 1 103 3 is_stmt 1 view .LVU7
 126              	@ ../Libraries/STM32_USB_Device_Library/Core/src/usbd_ioreq.c:103:   pdev->dev.device_state = USB_O
 127              		.loc 1 103 26 is_stmt 0 view .LVU8
 128 000c 80F81111 		strb	r1, [r0, #273]	@ tmp118, pdev_4(D)->dev.device_state
 104:../Libraries/STM32_USB_Device_Library/Core/src/usbd_ioreq.c **** 
 105:../Libraries/STM32_USB_Device_Library/Core/src/usbd_ioreq.c ****   DCD_EP_Tx (pdev, 0, pbuf, len);
 129              		.loc 1 105 3 is_stmt 1 view .LVU9
 130 0010 0021     		movs	r1, #0	@,
 131 0012 FFF7FEFF 		bl	DCD_EP_Tx		@
 132              	.LVL3:
 106:../Libraries/STM32_USB_Device_Library/Core/src/usbd_ioreq.c ****  
 107:../Libraries/STM32_USB_Device_Library/Core/src/usbd_ioreq.c ****   return ret;
 133              		.loc 1 107 3 view .LVU10
 134              	@ ../Libraries/STM32_USB_Device_Library/Core/src/usbd_ioreq.c:108: }
 108:../Libraries/STM32_USB_Device_Library/Core/src/usbd_ioreq.c **** }
 135              		.loc 1 108 1 is_stmt 0 view .LVU11
 136 0016 0020     		movs	r0, #0	@,
 137 0018 08BD     		pop	{r3, pc}	@
 138              		.cfi_endproc
 139              	.LFE110:
 140              		.size	USBD_CtlSendData, .-USBD_CtlSendData
 141 001a 00BF     		.section	.text.USBD_CtlContinueSendData,"ax",%progbits
 142              		.align	1
 143              		.p2align 2,,3
 144              		.global	USBD_CtlContinueSendData
 145              		.syntax unified
 146              		.thumb
 147              		.thumb_func
 148              		.type	USBD_CtlContinueSendData, %function
 149              	USBD_CtlContinueSendData:
 150              	.LVL4:
 151              	.LFB111:
 109:../Libraries/STM32_USB_Device_Library/Core/src/usbd_ioreq.c **** 
 110:../Libraries/STM32_USB_Device_Library/Core/src/usbd_ioreq.c **** /**
 111:../Libraries/STM32_USB_Device_Library/Core/src/usbd_ioreq.c **** * @brief  USBD_CtlContinueSendData
 112:../Libraries/STM32_USB_Device_Library/Core/src/usbd_ioreq.c **** *         continue sending data on the ctl pipe
 113:../Libraries/STM32_USB_Device_Library/Core/src/usbd_ioreq.c **** * @param  pdev: device instance
 114:../Libraries/STM32_USB_Device_Library/Core/src/usbd_ioreq.c **** * @param  buff: pointer to data buffer
 115:../Libraries/STM32_USB_Device_Library/Core/src/usbd_ioreq.c **** * @param  len: length of data to be sent
 116:../Libraries/STM32_USB_Device_Library/Core/src/usbd_ioreq.c **** * @retval status
 117:../Libraries/STM32_USB_Device_Library/Core/src/usbd_ioreq.c **** */
 118:../Libraries/STM32_USB_Device_Library/Core/src/usbd_ioreq.c **** USBD_Status  USBD_CtlContinueSendData (USB_OTG_CORE_HANDLE  *pdev, 
 119:../Libraries/STM32_USB_Device_Library/Core/src/usbd_ioreq.c ****                                        uint8_t *pbuf,
 120:../Libraries/STM32_USB_Device_Library/Core/src/usbd_ioreq.c ****                                        uint16_t len)
 121:../Libraries/STM32_USB_Device_Library/Core/src/usbd_ioreq.c **** {
 152              		.loc 1 121 1 is_stmt 1 view -0
 153              		.cfi_startproc
 154              		@ args = 0, pretend = 0, frame = 0
 155              		@ frame_needed = 0, uses_anonymous_args = 0
 122:../Libraries/STM32_USB_Device_Library/Core/src/usbd_ioreq.c ****   USBD_Status ret = USBD_OK;
 156              		.loc 1 122 3 view .LVU13
 123:../Libraries/STM32_USB_Device_Library/Core/src/usbd_ioreq.c ****   
 124:../Libraries/STM32_USB_Device_Library/Core/src/usbd_ioreq.c ****   DCD_EP_Tx (pdev, 0, pbuf, len);
 157              		.loc 1 124 3 view .LVU14
 158              	@ ../Libraries/STM32_USB_Device_Library/Core/src/usbd_ioreq.c:121: {
ARM GAS  C:\Users\admin\AppData\Local\Temp\ccO5mwn0.s 			page 6


 121:../Libraries/STM32_USB_Device_Library/Core/src/usbd_ioreq.c ****   USBD_Status ret = USBD_OK;
 159              		.loc 1 121 1 is_stmt 0 view .LVU15
 160 0000 08B5     		push	{r3, lr}	@
 161              		.cfi_def_cfa_offset 8
 162              		.cfi_offset 3, -8
 163              		.cfi_offset 14, -4
 164              	@ ../Libraries/STM32_USB_Device_Library/Core/src/usbd_ioreq.c:121: {
 121:../Libraries/STM32_USB_Device_Library/Core/src/usbd_ioreq.c ****   USBD_Status ret = USBD_OK;
 165              		.loc 1 121 1 view .LVU16
 166 0002 1346     		mov	r3, r2	@ tmp120, len
 167              	@ ../Libraries/STM32_USB_Device_Library/Core/src/usbd_ioreq.c:124:   DCD_EP_Tx (pdev, 0, pbuf, len)
 168              		.loc 1 124 3 view .LVU17
 169 0004 0A46     		mov	r2, r1	@, tmp119
 170              	.LVL5:
 171              		.loc 1 124 3 view .LVU18
 172 0006 0021     		movs	r1, #0	@,
 173              	.LVL6:
 174              		.loc 1 124 3 view .LVU19
 175 0008 FFF7FEFF 		bl	DCD_EP_Tx		@
 176              	.LVL7:
 125:../Libraries/STM32_USB_Device_Library/Core/src/usbd_ioreq.c ****   
 126:../Libraries/STM32_USB_Device_Library/Core/src/usbd_ioreq.c ****   
 127:../Libraries/STM32_USB_Device_Library/Core/src/usbd_ioreq.c ****   return ret;
 177              		.loc 1 127 3 is_stmt 1 view .LVU20
 178              	@ ../Libraries/STM32_USB_Device_Library/Core/src/usbd_ioreq.c:128: }
 128:../Libraries/STM32_USB_Device_Library/Core/src/usbd_ioreq.c **** }
 179              		.loc 1 128 1 is_stmt 0 view .LVU21
 180 000c 0020     		movs	r0, #0	@,
 181 000e 08BD     		pop	{r3, pc}	@
 182              		.cfi_endproc
 183              	.LFE111:
 184              		.size	USBD_CtlContinueSendData, .-USBD_CtlContinueSendData
 185              		.section	.text.USBD_CtlPrepareRx,"ax",%progbits
 186              		.align	1
 187              		.p2align 2,,3
 188              		.global	USBD_CtlPrepareRx
 189              		.syntax unified
 190              		.thumb
 191              		.thumb_func
 192              		.type	USBD_CtlPrepareRx, %function
 193              	USBD_CtlPrepareRx:
 194              	.LVL8:
 195              	.LFB112:
 129:../Libraries/STM32_USB_Device_Library/Core/src/usbd_ioreq.c **** 
 130:../Libraries/STM32_USB_Device_Library/Core/src/usbd_ioreq.c **** /**
 131:../Libraries/STM32_USB_Device_Library/Core/src/usbd_ioreq.c **** * @brief  USBD_CtlPrepareRx
 132:../Libraries/STM32_USB_Device_Library/Core/src/usbd_ioreq.c **** *         receive data on the ctl pipe
 133:../Libraries/STM32_USB_Device_Library/Core/src/usbd_ioreq.c **** * @param  pdev: USB OTG device instance
 134:../Libraries/STM32_USB_Device_Library/Core/src/usbd_ioreq.c **** * @param  buff: pointer to data buffer
 135:../Libraries/STM32_USB_Device_Library/Core/src/usbd_ioreq.c **** * @param  len: length of data to be received
 136:../Libraries/STM32_USB_Device_Library/Core/src/usbd_ioreq.c **** * @retval status
 137:../Libraries/STM32_USB_Device_Library/Core/src/usbd_ioreq.c **** */
 138:../Libraries/STM32_USB_Device_Library/Core/src/usbd_ioreq.c **** USBD_Status  USBD_CtlPrepareRx (USB_OTG_CORE_HANDLE  *pdev,
 139:../Libraries/STM32_USB_Device_Library/Core/src/usbd_ioreq.c ****                                   uint8_t *pbuf,                                  
 140:../Libraries/STM32_USB_Device_Library/Core/src/usbd_ioreq.c ****                                   uint16_t len)
 141:../Libraries/STM32_USB_Device_Library/Core/src/usbd_ioreq.c **** {
 196              		.loc 1 141 1 is_stmt 1 view -0
ARM GAS  C:\Users\admin\AppData\Local\Temp\ccO5mwn0.s 			page 7


 197              		.cfi_startproc
 198              		@ args = 0, pretend = 0, frame = 0
 199              		@ frame_needed = 0, uses_anonymous_args = 0
 142:../Libraries/STM32_USB_Device_Library/Core/src/usbd_ioreq.c ****   USBD_Status ret = USBD_OK;
 200              		.loc 1 142 3 view .LVU23
 143:../Libraries/STM32_USB_Device_Library/Core/src/usbd_ioreq.c ****   
 144:../Libraries/STM32_USB_Device_Library/Core/src/usbd_ioreq.c ****   pdev->dev.out_ep[0].total_data_len = len;
 201              		.loc 1 144 3 view .LVU24
 202              	@ ../Libraries/STM32_USB_Device_Library/Core/src/usbd_ioreq.c:141: {
 141:../Libraries/STM32_USB_Device_Library/Core/src/usbd_ioreq.c ****   USBD_Status ret = USBD_OK;
 203              		.loc 1 141 1 is_stmt 0 view .LVU25
 204 0000 08B5     		push	{r3, lr}	@
 205              		.cfi_def_cfa_offset 8
 206              		.cfi_offset 3, -8
 207              		.cfi_offset 14, -4
 208              	@ ../Libraries/STM32_USB_Device_Library/Core/src/usbd_ioreq.c:141: {
 141:../Libraries/STM32_USB_Device_Library/Core/src/usbd_ioreq.c ****   USBD_Status ret = USBD_OK;
 209              		.loc 1 141 1 view .LVU26
 210 0002 1346     		mov	r3, r2	@ len, tmp123
 211 0004 0A46     		mov	r2, r1	@ tmp122, pbuf
 212              	.LVL9:
 213              	@ ../Libraries/STM32_USB_Device_Library/Core/src/usbd_ioreq.c:146:   pdev->dev.device_state = USB_O
 145:../Libraries/STM32_USB_Device_Library/Core/src/usbd_ioreq.c ****   pdev->dev.out_ep[0].rem_data_len   = len;
 146:../Libraries/STM32_USB_Device_Library/Core/src/usbd_ioreq.c ****   pdev->dev.device_state = USB_OTG_EP0_DATA_OUT;
 214              		.loc 1 146 26 view .LVU27
 215 0006 0321     		movs	r1, #3	@ tmp118,
 216              	.LVL10:
 217              	@ ../Libraries/STM32_USB_Device_Library/Core/src/usbd_ioreq.c:145:   pdev->dev.out_ep[0].rem_data_l
 145:../Libraries/STM32_USB_Device_Library/Core/src/usbd_ioreq.c ****   pdev->dev.out_ep[0].rem_data_len   = len;
 218              		.loc 1 145 38 view .LVU28
 219 0008 C0E9E433 		strd	r3, r3, [r0, #912]	@ len, len, pdev,
 220              		.loc 1 146 3 is_stmt 1 view .LVU29
 221              	@ ../Libraries/STM32_USB_Device_Library/Core/src/usbd_ioreq.c:146:   pdev->dev.device_state = USB_O
 222              		.loc 1 146 26 is_stmt 0 view .LVU30
 223 000c 80F81111 		strb	r1, [r0, #273]	@ tmp118, pdev_4(D)->dev.device_state
 147:../Libraries/STM32_USB_Device_Library/Core/src/usbd_ioreq.c ****   
 148:../Libraries/STM32_USB_Device_Library/Core/src/usbd_ioreq.c ****   DCD_EP_PrepareRx (pdev,
 224              		.loc 1 148 3 is_stmt 1 view .LVU31
 225 0010 0021     		movs	r1, #0	@,
 226 0012 FFF7FEFF 		bl	DCD_EP_PrepareRx		@
 227              	.LVL11:
 149:../Libraries/STM32_USB_Device_Library/Core/src/usbd_ioreq.c ****                     0,
 150:../Libraries/STM32_USB_Device_Library/Core/src/usbd_ioreq.c ****                     pbuf,
 151:../Libraries/STM32_USB_Device_Library/Core/src/usbd_ioreq.c ****                     len);
 152:../Libraries/STM32_USB_Device_Library/Core/src/usbd_ioreq.c ****   
 153:../Libraries/STM32_USB_Device_Library/Core/src/usbd_ioreq.c **** 
 154:../Libraries/STM32_USB_Device_Library/Core/src/usbd_ioreq.c ****   return ret;
 228              		.loc 1 154 3 view .LVU32
 229              	@ ../Libraries/STM32_USB_Device_Library/Core/src/usbd_ioreq.c:155: }
 155:../Libraries/STM32_USB_Device_Library/Core/src/usbd_ioreq.c **** }
 230              		.loc 1 155 1 is_stmt 0 view .LVU33
 231 0016 0020     		movs	r0, #0	@,
 232 0018 08BD     		pop	{r3, pc}	@
 233              		.cfi_endproc
 234              	.LFE112:
 235              		.size	USBD_CtlPrepareRx, .-USBD_CtlPrepareRx
 236 001a 00BF     		.section	.text.USBD_CtlContinueRx,"ax",%progbits
ARM GAS  C:\Users\admin\AppData\Local\Temp\ccO5mwn0.s 			page 8


 237              		.align	1
 238              		.p2align 2,,3
 239              		.global	USBD_CtlContinueRx
 240              		.syntax unified
 241              		.thumb
 242              		.thumb_func
 243              		.type	USBD_CtlContinueRx, %function
 244              	USBD_CtlContinueRx:
 245              	.LVL12:
 246              	.LFB113:
 156:../Libraries/STM32_USB_Device_Library/Core/src/usbd_ioreq.c **** 
 157:../Libraries/STM32_USB_Device_Library/Core/src/usbd_ioreq.c **** /**
 158:../Libraries/STM32_USB_Device_Library/Core/src/usbd_ioreq.c **** * @brief  USBD_CtlContinueRx
 159:../Libraries/STM32_USB_Device_Library/Core/src/usbd_ioreq.c **** *         continue receive data on the ctl pipe
 160:../Libraries/STM32_USB_Device_Library/Core/src/usbd_ioreq.c **** * @param  pdev: USB OTG device instance
 161:../Libraries/STM32_USB_Device_Library/Core/src/usbd_ioreq.c **** * @param  buff: pointer to data buffer
 162:../Libraries/STM32_USB_Device_Library/Core/src/usbd_ioreq.c **** * @param  len: length of data to be received
 163:../Libraries/STM32_USB_Device_Library/Core/src/usbd_ioreq.c **** * @retval status
 164:../Libraries/STM32_USB_Device_Library/Core/src/usbd_ioreq.c **** */
 165:../Libraries/STM32_USB_Device_Library/Core/src/usbd_ioreq.c **** USBD_Status  USBD_CtlContinueRx (USB_OTG_CORE_HANDLE  *pdev, 
 166:../Libraries/STM32_USB_Device_Library/Core/src/usbd_ioreq.c ****                                           uint8_t *pbuf,                                          
 167:../Libraries/STM32_USB_Device_Library/Core/src/usbd_ioreq.c ****                                           uint16_t len)
 168:../Libraries/STM32_USB_Device_Library/Core/src/usbd_ioreq.c **** {
 247              		.loc 1 168 1 is_stmt 1 view -0
 248              		.cfi_startproc
 249              		@ args = 0, pretend = 0, frame = 0
 250              		@ frame_needed = 0, uses_anonymous_args = 0
 169:../Libraries/STM32_USB_Device_Library/Core/src/usbd_ioreq.c ****   USBD_Status ret = USBD_OK;
 251              		.loc 1 169 3 view .LVU35
 170:../Libraries/STM32_USB_Device_Library/Core/src/usbd_ioreq.c ****   
 171:../Libraries/STM32_USB_Device_Library/Core/src/usbd_ioreq.c ****   DCD_EP_PrepareRx (pdev,
 252              		.loc 1 171 3 view .LVU36
 253              	@ ../Libraries/STM32_USB_Device_Library/Core/src/usbd_ioreq.c:168: {
 168:../Libraries/STM32_USB_Device_Library/Core/src/usbd_ioreq.c ****   USBD_Status ret = USBD_OK;
 254              		.loc 1 168 1 is_stmt 0 view .LVU37
 255 0000 08B5     		push	{r3, lr}	@
 256              		.cfi_def_cfa_offset 8
 257              		.cfi_offset 3, -8
 258              		.cfi_offset 14, -4
 259              	@ ../Libraries/STM32_USB_Device_Library/Core/src/usbd_ioreq.c:168: {
 168:../Libraries/STM32_USB_Device_Library/Core/src/usbd_ioreq.c ****   USBD_Status ret = USBD_OK;
 260              		.loc 1 168 1 view .LVU38
 261 0002 1346     		mov	r3, r2	@ tmp119, len
 262              	@ ../Libraries/STM32_USB_Device_Library/Core/src/usbd_ioreq.c:171:   DCD_EP_PrepareRx (pdev,
 263              		.loc 1 171 3 view .LVU39
 264 0004 0A46     		mov	r2, r1	@, tmp118
 265              	.LVL13:
 266              		.loc 1 171 3 view .LVU40
 267 0006 0021     		movs	r1, #0	@,
 268              	.LVL14:
 269              		.loc 1 171 3 view .LVU41
 270 0008 FFF7FEFF 		bl	DCD_EP_PrepareRx		@
 271              	.LVL15:
 172:../Libraries/STM32_USB_Device_Library/Core/src/usbd_ioreq.c ****                     0,                     
 173:../Libraries/STM32_USB_Device_Library/Core/src/usbd_ioreq.c ****                     pbuf,                         
 174:../Libraries/STM32_USB_Device_Library/Core/src/usbd_ioreq.c ****                     len);
 175:../Libraries/STM32_USB_Device_Library/Core/src/usbd_ioreq.c ****   return ret;
ARM GAS  C:\Users\admin\AppData\Local\Temp\ccO5mwn0.s 			page 9


 272              		.loc 1 175 3 is_stmt 1 view .LVU42
 273              	@ ../Libraries/STM32_USB_Device_Library/Core/src/usbd_ioreq.c:176: }
 176:../Libraries/STM32_USB_Device_Library/Core/src/usbd_ioreq.c **** }
 274              		.loc 1 176 1 is_stmt 0 view .LVU43
 275 000c 0020     		movs	r0, #0	@,
 276 000e 08BD     		pop	{r3, pc}	@
 277              		.cfi_endproc
 278              	.LFE113:
 279              		.size	USBD_CtlContinueRx, .-USBD_CtlContinueRx
 280              		.section	.text.USBD_CtlSendStatus,"ax",%progbits
 281              		.align	1
 282              		.p2align 2,,3
 283              		.global	USBD_CtlSendStatus
 284              		.syntax unified
 285              		.thumb
 286              		.thumb_func
 287              		.type	USBD_CtlSendStatus, %function
 288              	USBD_CtlSendStatus:
 289              	.LVL16:
 290              	.LFB114:
 177:../Libraries/STM32_USB_Device_Library/Core/src/usbd_ioreq.c **** /**
 178:../Libraries/STM32_USB_Device_Library/Core/src/usbd_ioreq.c **** * @brief  USBD_CtlSendStatus
 179:../Libraries/STM32_USB_Device_Library/Core/src/usbd_ioreq.c **** *         send zero lzngth packet on the ctl pipe
 180:../Libraries/STM32_USB_Device_Library/Core/src/usbd_ioreq.c **** * @param  pdev: USB OTG device instance
 181:../Libraries/STM32_USB_Device_Library/Core/src/usbd_ioreq.c **** * @retval status
 182:../Libraries/STM32_USB_Device_Library/Core/src/usbd_ioreq.c **** */
 183:../Libraries/STM32_USB_Device_Library/Core/src/usbd_ioreq.c **** USBD_Status  USBD_CtlSendStatus (USB_OTG_CORE_HANDLE  *pdev)
 184:../Libraries/STM32_USB_Device_Library/Core/src/usbd_ioreq.c **** {
 291              		.loc 1 184 1 is_stmt 1 view -0
 292              		.cfi_startproc
 293              		@ args = 0, pretend = 0, frame = 0
 294              		@ frame_needed = 0, uses_anonymous_args = 0
 185:../Libraries/STM32_USB_Device_Library/Core/src/usbd_ioreq.c ****   USBD_Status ret = USBD_OK;
 295              		.loc 1 185 3 view .LVU45
 186:../Libraries/STM32_USB_Device_Library/Core/src/usbd_ioreq.c ****   pdev->dev.device_state = USB_OTG_EP0_STATUS_IN;
 296              		.loc 1 186 3 view .LVU46
 297              	@ ../Libraries/STM32_USB_Device_Library/Core/src/usbd_ioreq.c:184: {
 184:../Libraries/STM32_USB_Device_Library/Core/src/usbd_ioreq.c ****   USBD_Status ret = USBD_OK;
 298              		.loc 1 184 1 is_stmt 0 view .LVU47
 299 0000 10B5     		push	{r4, lr}	@
 300              		.cfi_def_cfa_offset 8
 301              		.cfi_offset 4, -8
 302              		.cfi_offset 14, -4
 303              	@ ../Libraries/STM32_USB_Device_Library/Core/src/usbd_ioreq.c:187:   DCD_EP_Tx (pdev,
 187:../Libraries/STM32_USB_Device_Library/Core/src/usbd_ioreq.c ****   DCD_EP_Tx (pdev,
 304              		.loc 1 187 3 view .LVU48
 305 0002 0023     		movs	r3, #0	@,
 306              	@ ../Libraries/STM32_USB_Device_Library/Core/src/usbd_ioreq.c:186:   pdev->dev.device_state = USB_O
 186:../Libraries/STM32_USB_Device_Library/Core/src/usbd_ioreq.c ****   pdev->dev.device_state = USB_OTG_EP0_STATUS_IN;
 307              		.loc 1 186 26 view .LVU49
 308 0004 0421     		movs	r1, #4	@ tmp115,
 309              	@ ../Libraries/STM32_USB_Device_Library/Core/src/usbd_ioreq.c:184: {
 184:../Libraries/STM32_USB_Device_Library/Core/src/usbd_ioreq.c ****   USBD_Status ret = USBD_OK;
 310              		.loc 1 184 1 view .LVU50
 311 0006 0446     		mov	r4, r0	@ pdev, tmp118
 312              	@ ../Libraries/STM32_USB_Device_Library/Core/src/usbd_ioreq.c:187:   DCD_EP_Tx (pdev,
 313              		.loc 1 187 3 view .LVU51
ARM GAS  C:\Users\admin\AppData\Local\Temp\ccO5mwn0.s 			page 10


 314 0008 1A46     		mov	r2, r3	@,
 315              	@ ../Libraries/STM32_USB_Device_Library/Core/src/usbd_ioreq.c:186:   pdev->dev.device_state = USB_O
 186:../Libraries/STM32_USB_Device_Library/Core/src/usbd_ioreq.c ****   pdev->dev.device_state = USB_OTG_EP0_STATUS_IN;
 316              		.loc 1 186 26 view .LVU52
 317 000a 80F81111 		strb	r1, [r0, #273]	@ tmp115, pdev_2(D)->dev.device_state
 318              		.loc 1 187 3 is_stmt 1 view .LVU53
 319 000e 1946     		mov	r1, r3	@,
 320 0010 FFF7FEFF 		bl	DCD_EP_Tx		@
 321              	.LVL17:
 188:../Libraries/STM32_USB_Device_Library/Core/src/usbd_ioreq.c ****              0,
 189:../Libraries/STM32_USB_Device_Library/Core/src/usbd_ioreq.c ****              NULL, 
 190:../Libraries/STM32_USB_Device_Library/Core/src/usbd_ioreq.c ****              0); 
 191:../Libraries/STM32_USB_Device_Library/Core/src/usbd_ioreq.c ****   
 192:../Libraries/STM32_USB_Device_Library/Core/src/usbd_ioreq.c ****   USB_OTG_EP0_OutStart(pdev);  
 322              		.loc 1 192 3 view .LVU54
 323 0014 2046     		mov	r0, r4	@, pdev
 324 0016 FFF7FEFF 		bl	USB_OTG_EP0_OutStart		@
 325              	.LVL18:
 193:../Libraries/STM32_USB_Device_Library/Core/src/usbd_ioreq.c ****   
 194:../Libraries/STM32_USB_Device_Library/Core/src/usbd_ioreq.c ****   return ret;
 326              		.loc 1 194 3 view .LVU55
 327              	@ ../Libraries/STM32_USB_Device_Library/Core/src/usbd_ioreq.c:195: }
 195:../Libraries/STM32_USB_Device_Library/Core/src/usbd_ioreq.c **** }
 328              		.loc 1 195 1 is_stmt 0 view .LVU56
 329 001a 0020     		movs	r0, #0	@,
 330 001c 10BD     		pop	{r4, pc}	@
 331              		.loc 1 195 1 view .LVU57
 332              		.cfi_endproc
 333              	.LFE114:
 334              		.size	USBD_CtlSendStatus, .-USBD_CtlSendStatus
 335 001e 00BF     		.section	.text.USBD_CtlReceiveStatus,"ax",%progbits
 336              		.align	1
 337              		.p2align 2,,3
 338              		.global	USBD_CtlReceiveStatus
 339              		.syntax unified
 340              		.thumb
 341              		.thumb_func
 342              		.type	USBD_CtlReceiveStatus, %function
 343              	USBD_CtlReceiveStatus:
 344              	.LVL19:
 345              	.LFB115:
 196:../Libraries/STM32_USB_Device_Library/Core/src/usbd_ioreq.c **** 
 197:../Libraries/STM32_USB_Device_Library/Core/src/usbd_ioreq.c **** /**
 198:../Libraries/STM32_USB_Device_Library/Core/src/usbd_ioreq.c **** * @brief  USBD_CtlReceiveStatus
 199:../Libraries/STM32_USB_Device_Library/Core/src/usbd_ioreq.c **** *         receive zero lzngth packet on the ctl pipe
 200:../Libraries/STM32_USB_Device_Library/Core/src/usbd_ioreq.c **** * @param  pdev: USB OTG device instance
 201:../Libraries/STM32_USB_Device_Library/Core/src/usbd_ioreq.c **** * @retval status
 202:../Libraries/STM32_USB_Device_Library/Core/src/usbd_ioreq.c **** */
 203:../Libraries/STM32_USB_Device_Library/Core/src/usbd_ioreq.c **** USBD_Status  USBD_CtlReceiveStatus (USB_OTG_CORE_HANDLE  *pdev)
 204:../Libraries/STM32_USB_Device_Library/Core/src/usbd_ioreq.c **** {
 346              		.loc 1 204 1 is_stmt 1 view -0
 347              		.cfi_startproc
 348              		@ args = 0, pretend = 0, frame = 0
 349              		@ frame_needed = 0, uses_anonymous_args = 0
 205:../Libraries/STM32_USB_Device_Library/Core/src/usbd_ioreq.c ****   USBD_Status ret = USBD_OK;
 350              		.loc 1 205 3 view .LVU59
 206:../Libraries/STM32_USB_Device_Library/Core/src/usbd_ioreq.c ****   pdev->dev.device_state = USB_OTG_EP0_STATUS_OUT;  
ARM GAS  C:\Users\admin\AppData\Local\Temp\ccO5mwn0.s 			page 11


 351              		.loc 1 206 3 view .LVU60
 352              	@ ../Libraries/STM32_USB_Device_Library/Core/src/usbd_ioreq.c:204: {
 204:../Libraries/STM32_USB_Device_Library/Core/src/usbd_ioreq.c ****   USBD_Status ret = USBD_OK;
 353              		.loc 1 204 1 is_stmt 0 view .LVU61
 354 0000 10B5     		push	{r4, lr}	@
 355              		.cfi_def_cfa_offset 8
 356              		.cfi_offset 4, -8
 357              		.cfi_offset 14, -4
 358              	@ ../Libraries/STM32_USB_Device_Library/Core/src/usbd_ioreq.c:207:   DCD_EP_PrepareRx ( pdev,
 207:../Libraries/STM32_USB_Device_Library/Core/src/usbd_ioreq.c ****   DCD_EP_PrepareRx ( pdev,
 359              		.loc 1 207 3 view .LVU62
 360 0002 0023     		movs	r3, #0	@,
 361              	@ ../Libraries/STM32_USB_Device_Library/Core/src/usbd_ioreq.c:206:   pdev->dev.device_state = USB_O
 206:../Libraries/STM32_USB_Device_Library/Core/src/usbd_ioreq.c ****   pdev->dev.device_state = USB_OTG_EP0_STATUS_OUT;  
 362              		.loc 1 206 26 view .LVU63
 363 0004 0521     		movs	r1, #5	@ tmp115,
 364              	@ ../Libraries/STM32_USB_Device_Library/Core/src/usbd_ioreq.c:204: {
 204:../Libraries/STM32_USB_Device_Library/Core/src/usbd_ioreq.c ****   USBD_Status ret = USBD_OK;
 365              		.loc 1 204 1 view .LVU64
 366 0006 0446     		mov	r4, r0	@ pdev, tmp118
 367              	@ ../Libraries/STM32_USB_Device_Library/Core/src/usbd_ioreq.c:207:   DCD_EP_PrepareRx ( pdev,
 368              		.loc 1 207 3 view .LVU65
 369 0008 1A46     		mov	r2, r3	@,
 370              	@ ../Libraries/STM32_USB_Device_Library/Core/src/usbd_ioreq.c:206:   pdev->dev.device_state = USB_O
 206:../Libraries/STM32_USB_Device_Library/Core/src/usbd_ioreq.c ****   pdev->dev.device_state = USB_OTG_EP0_STATUS_OUT;  
 371              		.loc 1 206 26 view .LVU66
 372 000a 80F81111 		strb	r1, [r0, #273]	@ tmp115, pdev_2(D)->dev.device_state
 373              		.loc 1 207 3 is_stmt 1 view .LVU67
 374 000e 1946     		mov	r1, r3	@,
 375 0010 FFF7FEFF 		bl	DCD_EP_PrepareRx		@
 376              	.LVL20:
 208:../Libraries/STM32_USB_Device_Library/Core/src/usbd_ioreq.c ****                     0,
 209:../Libraries/STM32_USB_Device_Library/Core/src/usbd_ioreq.c ****                     NULL,
 210:../Libraries/STM32_USB_Device_Library/Core/src/usbd_ioreq.c ****                     0);  
 211:../Libraries/STM32_USB_Device_Library/Core/src/usbd_ioreq.c **** 
 212:../Libraries/STM32_USB_Device_Library/Core/src/usbd_ioreq.c ****   USB_OTG_EP0_OutStart(pdev);
 377              		.loc 1 212 3 view .LVU68
 378 0014 2046     		mov	r0, r4	@, pdev
 379 0016 FFF7FEFF 		bl	USB_OTG_EP0_OutStart		@
 380              	.LVL21:
 213:../Libraries/STM32_USB_Device_Library/Core/src/usbd_ioreq.c ****   
 214:../Libraries/STM32_USB_Device_Library/Core/src/usbd_ioreq.c ****   return ret;
 381              		.loc 1 214 3 view .LVU69
 382              	@ ../Libraries/STM32_USB_Device_Library/Core/src/usbd_ioreq.c:215: }
 215:../Libraries/STM32_USB_Device_Library/Core/src/usbd_ioreq.c **** }
 383              		.loc 1 215 1 is_stmt 0 view .LVU70
 384 001a 0020     		movs	r0, #0	@,
 385 001c 10BD     		pop	{r4, pc}	@
 386              		.loc 1 215 1 view .LVU71
 387              		.cfi_endproc
 388              	.LFE115:
 389              		.size	USBD_CtlReceiveStatus, .-USBD_CtlReceiveStatus
 390 001e 00BF     		.section	.text.USBD_GetRxCount,"ax",%progbits
 391              		.align	1
 392              		.p2align 2,,3
 393              		.global	USBD_GetRxCount
 394              		.syntax unified
ARM GAS  C:\Users\admin\AppData\Local\Temp\ccO5mwn0.s 			page 12


 395              		.thumb
 396              		.thumb_func
 397              		.type	USBD_GetRxCount, %function
 398              	USBD_GetRxCount:
 399              	.LVL22:
 400              	.LFB116:
 216:../Libraries/STM32_USB_Device_Library/Core/src/usbd_ioreq.c **** 
 217:../Libraries/STM32_USB_Device_Library/Core/src/usbd_ioreq.c **** 
 218:../Libraries/STM32_USB_Device_Library/Core/src/usbd_ioreq.c **** /**
 219:../Libraries/STM32_USB_Device_Library/Core/src/usbd_ioreq.c **** * @brief  USBD_GetRxCount
 220:../Libraries/STM32_USB_Device_Library/Core/src/usbd_ioreq.c **** *         returns the received data length
 221:../Libraries/STM32_USB_Device_Library/Core/src/usbd_ioreq.c **** * @param  pdev: USB OTG device instance
 222:../Libraries/STM32_USB_Device_Library/Core/src/usbd_ioreq.c **** *         epnum: endpoint index
 223:../Libraries/STM32_USB_Device_Library/Core/src/usbd_ioreq.c **** * @retval Rx Data blength
 224:../Libraries/STM32_USB_Device_Library/Core/src/usbd_ioreq.c **** */
 225:../Libraries/STM32_USB_Device_Library/Core/src/usbd_ioreq.c **** uint16_t  USBD_GetRxCount (USB_OTG_CORE_HANDLE  *pdev , uint8_t epnum)
 226:../Libraries/STM32_USB_Device_Library/Core/src/usbd_ioreq.c **** {
 401              		.loc 1 226 1 is_stmt 1 view -0
 402              		.cfi_startproc
 403              		@ args = 0, pretend = 0, frame = 0
 404              		@ frame_needed = 0, uses_anonymous_args = 0
 405              		@ link register save eliminated.
 227:../Libraries/STM32_USB_Device_Library/Core/src/usbd_ioreq.c ****   return pdev->dev.out_ep[epnum].xfer_count;
 406              		.loc 1 227 3 view .LVU73
 407              	@ ../Libraries/STM32_USB_Device_Library/Core/src/usbd_ioreq.c:227:   return pdev->dev.out_ep[epnum]
 408              		.loc 1 227 33 is_stmt 0 view .LVU74
 409 0000 01EB8101 		add	r1, r1, r1, lsl #2	@ tmp121, tmp128, tmp128,
 410              	.LVL23:
 411              		.loc 1 227 33 view .LVU75
 412 0004 00EBC101 		add	r1, r0, r1, lsl #3	@ tmp123, tmp127, tmp121,
 413              	@ ../Libraries/STM32_USB_Device_Library/Core/src/usbd_ioreq.c:228: }
 228:../Libraries/STM32_USB_Device_Library/Core/src/usbd_ioreq.c **** }
 414              		.loc 1 228 1 view .LVU76
 415 0008 B1F88C03 		ldrh	r0, [r1, #908]	@, pdev_5(D)->dev.out_ep[_1].xfer_count
 416              	.LVL24:
 417              		.loc 1 228 1 view .LVU77
 418 000c 7047     		bx	lr	@
 419              		.cfi_endproc
 420              	.LFE116:
 421              		.size	USBD_GetRxCount, .-USBD_GetRxCount
 422 000e 00BF     		.text
 423              	.Letext0:
 424              		.file 2 "c:\\program files (x86)\\gnu arm embedded toolchain\\10 2021.10\\arm-none-eabi\\include\\
 425              		.file 3 "c:\\program files (x86)\\gnu arm embedded toolchain\\10 2021.10\\arm-none-eabi\\include\\
 426              		.file 4 "../Libraries/STM32_USB_OTG_Driver/inc/usb_regs.h"
 427              		.file 5 "../Libraries/STM32_USB_OTG_Driver/inc/usb_core.h"
 428              		.file 6 "../Libraries/STM32_USB_Device_Library/Core/inc/usbd_core.h"
 429              		.file 7 "../Libraries/STM32_USB_OTG_Driver/inc/usb_dcd.h"