ARM GAS  C:\Users\admin\AppData\Local\Temp\cco6AOBb.s 			page 1


   1              		.cpu cortex-m4
   2              		.arch armv7e-m
   3              		.fpu fpv4-sp-d16
   4              		.eabi_attribute 27, 1	@ Tag_ABI_HardFP_use
   5              		.eabi_attribute 28, 1	@ Tag_ABI_VFP_args
   6              		.eabi_attribute 23, 1	@ Tag_ABI_FP_number_model
   7              		.eabi_attribute 24, 1	@ Tag_ABI_align8_needed
   8              		.eabi_attribute 25, 1	@ Tag_ABI_align8_preserved
   9              		.eabi_attribute 26, 1	@ Tag_ABI_enum_size
  10              		.eabi_attribute 30, 2	@ Tag_ABI_optimization_goals
  11              		.eabi_attribute 34, 1	@ Tag_CPU_unaligned_access
  12              		.eabi_attribute 18, 4	@ Tag_ABI_PCS_wchar_t
  13              		.file	"usbd_desc.c"
  14              	@ GNU C89 (GNU Arm Embedded Toolchain 10.3-2021.10) version 10.3.1 20210824 (release) (arm-none-eab
  15              	@	compiled by GNU C version 7.3-win32 20180312, GMP version 6.1.0, MPFR version 3.1.4, MPC version 
  16              	
  17              	@ GGC heuristics: --param ggc-min-expand=100 --param ggc-min-heapsize=131072
  18              	@ options passed:  -I . -I . -I ../Utilities/STM32F4-Discovery/
  19              	@ -I ../Libraries/STM32_USB_Device_Library/Class/audio/inc/
  20              	@ -I ../Libraries/STM32_USB_Device_Library/Core/inc/
  21              	@ -I ../Libraries/STM32_USB_OTG_Driver/inc/
  22              	@ -I ../Utilities/STM32F4-Discovery/
  23              	@ -I ../Libraries/STM32F4xx_StdPeriph_Driver/inc/
  24              	@ -I ../Utilities/STM32F4-Discovery/
  25              	@ -I ../Libraries/CMSIS/ST/STM32F4xx/Include/
  26              	@ -I ../Libraries/CMSIS/Include/ -imultilib thumb/v7e-m+fp/hard
  27              	@ -iprefix c:\program files (x86)\gnu arm embedded toolchain\10 2021.10\bin\../lib/gcc/arm-none-eab
  28              	@ -isysroot c:\program files (x86)\gnu arm embedded toolchain\10 2021.10\bin\../arm-none-eabi
  29              	@ -MD out/usbd_desc.d -MF out/usbd_desc.d -MP -MQ out/usbd_desc.o
  30              	@ -D__USES_INITFINI__ -D STM32F4XX -D __VFP_FP__ -D USE_USB_OTG_FS
  31              	@ usbd_desc.c -mcpu=cortex-m4 -mthumb -mfloat-abi=hard -mfpu=fpv4-sp-d16
  32              	@ -mlibarch=armv7e-m+fp -march=armv7e-m+fp -auxbase-strip out/usbd_desc.o
  33              	@ -g -ggdb3 -O3 -Wall -Wstrict-prototypes -Wextra -std=gnu90 -ffast-math
  34              	@ -ffunction-sections -fdata-sections -fverbose-asm
  35              	@ options enabled:  -faggressive-loop-optimizations -falign-functions
  36              	@ -falign-jumps -falign-labels -falign-loops -fallocation-dce
  37              	@ -fassociative-math -fauto-inc-dec -fbranch-count-reg -fcaller-saves
  38              	@ -fcombine-stack-adjustments -fcompare-elim -fcprop-registers
  39              	@ -fcrossjumping -fcse-follow-jumps -fcx-limited-range -fdata-sections
  40              	@ -fdefer-pop -fdelete-null-pointer-checks -fdevirtualize
  41              	@ -fdevirtualize-speculatively -fdwarf2-cfi-asm -fearly-inlining
  42              	@ -feliminate-unused-debug-symbols -feliminate-unused-debug-types
  43              	@ -fexpensive-optimizations -ffinite-math-only -fforward-propagate
  44              	@ -ffp-int-builtin-inexact -ffunction-cse -ffunction-sections -fgcse
  45              	@ -fgcse-after-reload -fgcse-lm -fgnu-unique -fguess-branch-probability
  46              	@ -fhoist-adjacent-loads -fident -fif-conversion -fif-conversion2
  47              	@ -findirect-inlining -finline -finline-atomics -finline-functions
  48              	@ -finline-functions-called-once -finline-small-functions -fipa-bit-cp
  49              	@ -fipa-cp -fipa-cp-clone -fipa-icf -fipa-icf-functions -fipa-icf-variables
  50              	@ -fipa-profile -fipa-pure-const -fipa-ra -fipa-reference
  51              	@ -fipa-reference-addressable -fipa-sra -fipa-stack-alignment -fipa-vrp
  52              	@ -fira-hoist-pressure -fira-share-save-slots -fira-share-spill-slots
  53              	@ -fisolate-erroneous-paths-dereference -fivopts -fkeep-static-consts
  54              	@ -fleading-underscore -flifetime-dse -floop-interchange
  55              	@ -floop-unroll-and-jam -flra-remat -fmerge-constants -fmerge-debug-strings
  56              	@ -fmove-loop-invariants -fomit-frame-pointer -foptimize-sibling-calls
  57              	@ -foptimize-strlen -fpartial-inlining -fpeel-loops -fpeephole -fpeephole2
ARM GAS  C:\Users\admin\AppData\Local\Temp\cco6AOBb.s 			page 2


  58              	@ -fplt -fpredictive-commoning -fprefetch-loop-arrays -freciprocal-math
  59              	@ -freg-struct-return -freorder-blocks -freorder-functions
  60              	@ -frerun-cse-after-loop -fsched-critical-path-heuristic
  61              	@ -fsched-dep-count-heuristic -fsched-group-heuristic -fsched-interblock
  62              	@ -fsched-last-insn-heuristic -fsched-pressure -fsched-rank-heuristic
  63              	@ -fsched-spec -fsched-spec-insn-heuristic -fsched-stalled-insns-dep
  64              	@ -fschedule-insns -fschedule-insns2 -fsection-anchors
  65              	@ -fsemantic-interposition -fshow-column -fshrink-wrap
  66              	@ -fshrink-wrap-separate -fsplit-ivs-in-unroller -fsplit-loops
  67              	@ -fsplit-paths -fsplit-wide-types -fssa-backprop -fssa-phiopt -fstdarg-opt
  68              	@ -fstore-merging -fstrict-aliasing -fstrict-volatile-bitfields
  69              	@ -fsync-libcalls -fthread-jumps -ftoplevel-reorder -ftree-bit-ccp
  70              	@ -ftree-builtin-call-dce -ftree-ccp -ftree-ch -ftree-coalesce-vars
  71              	@ -ftree-copy-prop -ftree-cselim -ftree-dce -ftree-dominator-opts
  72              	@ -ftree-dse -ftree-forwprop -ftree-fre -ftree-loop-distribute-patterns
  73              	@ -ftree-loop-distribution -ftree-loop-if-convert -ftree-loop-im
  74              	@ -ftree-loop-ivcanon -ftree-loop-optimize -ftree-loop-vectorize
  75              	@ -ftree-parallelize-loops= -ftree-partial-pre -ftree-phiprop -ftree-pre
  76              	@ -ftree-pta -ftree-reassoc -ftree-scev-cprop -ftree-sink
  77              	@ -ftree-slp-vectorize -ftree-slsr -ftree-sra -ftree-switch-conversion
  78              	@ -ftree-tail-merge -ftree-ter -ftree-vrp -funit-at-a-time
  79              	@ -funsafe-math-optimizations -funswitch-loops -fvar-tracking
  80              	@ -fvar-tracking-assignments -fverbose-asm -fversion-loops-for-strides
  81              	@ -fzero-initialized-in-bss -masm-syntax-unified -mbe32 -mlittle-endian
  82              	@ -mpic-data-is-text-relative -msched-prolog -mthumb -munaligned-access
  83              	@ -mvectorize-with-neon-quad
  84              	
  85              		.text
  86              	.Ltext0:
  87              		.cfi_sections	.debug_frame
  88              		.section	.text.USBD_USR_DeviceDescriptor,"ax",%progbits
  89              		.align	1
  90              		.p2align 2,,3
  91              		.global	USBD_USR_DeviceDescriptor
  92              		.syntax unified
  93              		.thumb
  94              		.thumb_func
  95              		.type	USBD_USR_DeviceDescriptor, %function
  96              	USBD_USR_DeviceDescriptor:
  97              	.LVL0:
  98              	.LFB110:
  99              		.file 1 "usbd_desc.c"
   1:usbd_desc.c   **** /**
   2:usbd_desc.c   ****   ******************************************************************************
   3:usbd_desc.c   ****   * @file    usbd_desc.c
   4:usbd_desc.c   ****   * @author  MCD Application Team
   5:usbd_desc.c   ****   * @version V1.1.0
   6:usbd_desc.c   ****   * @date    19-March-2012
   7:usbd_desc.c   ****   * @brief   This file provides the USBD descriptors and string formating method.
   8:usbd_desc.c   ****   ******************************************************************************
   9:usbd_desc.c   ****   * @attention
  10:usbd_desc.c   ****   *
  11:usbd_desc.c   ****   * <h2><center>&copy; COPYRIGHT 2012 STMicroelectronics</center></h2>
  12:usbd_desc.c   ****   *
  13:usbd_desc.c   ****   * Licensed under MCD-ST Liberty SW License Agreement V2, (the "License");
  14:usbd_desc.c   ****   * You may not use this file except in compliance with the License.
  15:usbd_desc.c   ****   * You may obtain a copy of the License at:
ARM GAS  C:\Users\admin\AppData\Local\Temp\cco6AOBb.s 			page 3


  16:usbd_desc.c   ****   *
  17:usbd_desc.c   ****   *        http://www.st.com/software_license_agreement_liberty_v2
  18:usbd_desc.c   ****   *
  19:usbd_desc.c   ****   * Unless required by applicable law or agreed to in writing, software 
  20:usbd_desc.c   ****   * distributed under the License is distributed on an "AS IS" BASIS, 
  21:usbd_desc.c   ****   * WITHOUT WARRANTIES OR CONDITIONS OF ANY KIND, either express or implied.
  22:usbd_desc.c   ****   * See the License for the specific language governing permissions and
  23:usbd_desc.c   ****   * limitations under the License.
  24:usbd_desc.c   ****   *
  25:usbd_desc.c   ****   ******************************************************************************
  26:usbd_desc.c   ****   */ 
  27:usbd_desc.c   **** 
  28:usbd_desc.c   **** /* Includes ------------------------------------------------------------------*/
  29:usbd_desc.c   **** #include "usbd_core.h"
  30:usbd_desc.c   **** #include "usbd_desc.h"
  31:usbd_desc.c   **** #include "usbd_req.h"
  32:usbd_desc.c   **** #include "usbd_conf.h"
  33:usbd_desc.c   **** #include "usb_regs.h"
  34:usbd_desc.c   **** 
  35:usbd_desc.c   **** /** @addtogroup STM32_USB_OTG_DEVICE_LIBRARY
  36:usbd_desc.c   ****   * @{
  37:usbd_desc.c   ****   */
  38:usbd_desc.c   **** 
  39:usbd_desc.c   **** 
  40:usbd_desc.c   **** /** @defgroup USBD_DESC 
  41:usbd_desc.c   ****   * @brief USBD descriptors module
  42:usbd_desc.c   ****   * @{
  43:usbd_desc.c   ****   */ 
  44:usbd_desc.c   **** 
  45:usbd_desc.c   **** /** @defgroup USBD_DESC_Private_TypesDefinitions
  46:usbd_desc.c   ****   * @{
  47:usbd_desc.c   ****   */ 
  48:usbd_desc.c   **** /**
  49:usbd_desc.c   ****   * @}
  50:usbd_desc.c   ****   */ 
  51:usbd_desc.c   **** 
  52:usbd_desc.c   **** 
  53:usbd_desc.c   **** /** @defgroup USBD_DESC_Private_Defines
  54:usbd_desc.c   ****   * @{
  55:usbd_desc.c   ****   */ 
  56:usbd_desc.c   **** 
  57:usbd_desc.c   **** 
  58:usbd_desc.c   **** #define USBD_VID                        0x0483
  59:usbd_desc.c   **** 
  60:usbd_desc.c   **** #ifdef STM32F2XX
  61:usbd_desc.c   ****  #define USBD_PID                       0x5730
  62:usbd_desc.c   **** #else
  63:usbd_desc.c   ****  #define USBD_PID                       0x5730
  64:usbd_desc.c   **** #endif /* STM32F2XX */
  65:usbd_desc.c   **** 
  66:usbd_desc.c   **** /** @defgroup USB_String_Descriptors
  67:usbd_desc.c   ****   * @{
  68:usbd_desc.c   ****   */ 
  69:usbd_desc.c   **** #define USBD_LANGID_STRING              0x409
  70:usbd_desc.c   **** #define USBD_MANUFACTURER_STRING        "TE NPI"
  71:usbd_desc.c   **** 
  72:usbd_desc.c   **** #define USBD_PRODUCT_FS_STRING          "TE NPI"
ARM GAS  C:\Users\admin\AppData\Local\Temp\cco6AOBb.s 			page 4


  73:usbd_desc.c   **** #define USBD_PRODUCT_HS_STRING          "STM32 AUDIO Streaming in HS Mode"
  74:usbd_desc.c   **** #define USBD_SERIALNUMBER_FS_STRING     "00000000034E"
  75:usbd_desc.c   **** #define USBD_SERIALNUMBER_HS_STRING     "00000000034F"
  76:usbd_desc.c   **** 
  77:usbd_desc.c   **** #define USBD_CONFIGURATION_FS_STRING    "AUDIO Config"
  78:usbd_desc.c   **** #define USBD_INTERFACE_FS_STRING        "AUDIO Interface"
  79:usbd_desc.c   **** 
  80:usbd_desc.c   **** #define USBD_CONFIGURATION_HS_STRING    "AUDIO Config"
  81:usbd_desc.c   **** #define USBD_INTERFACE_HS_STRING        "AUDIO Interface"
  82:usbd_desc.c   **** 
  83:usbd_desc.c   **** /**
  84:usbd_desc.c   ****   * @}
  85:usbd_desc.c   ****   */ 
  86:usbd_desc.c   **** 
  87:usbd_desc.c   **** 
  88:usbd_desc.c   **** /** @defgroup USBD_DESC_Private_Macros
  89:usbd_desc.c   ****   * @{
  90:usbd_desc.c   ****   */ 
  91:usbd_desc.c   **** /**
  92:usbd_desc.c   ****   * @}
  93:usbd_desc.c   ****   */ 
  94:usbd_desc.c   **** 
  95:usbd_desc.c   **** 
  96:usbd_desc.c   **** /** @defgroup USBD_DESC_Private_Variables
  97:usbd_desc.c   ****   * @{
  98:usbd_desc.c   ****   */ 
  99:usbd_desc.c   **** 
 100:usbd_desc.c   **** USBD_DEVICE USR_desc =
 101:usbd_desc.c   **** {
 102:usbd_desc.c   ****   USBD_USR_DeviceDescriptor,
 103:usbd_desc.c   ****   USBD_USR_LangIDStrDescriptor, 
 104:usbd_desc.c   ****   USBD_USR_ManufacturerStrDescriptor,
 105:usbd_desc.c   ****   USBD_USR_ProductStrDescriptor,
 106:usbd_desc.c   ****   USBD_USR_SerialStrDescriptor,
 107:usbd_desc.c   ****   USBD_USR_ConfigStrDescriptor,
 108:usbd_desc.c   ****   USBD_USR_InterfaceStrDescriptor,
 109:usbd_desc.c   ****   
 110:usbd_desc.c   **** };
 111:usbd_desc.c   **** 
 112:usbd_desc.c   **** 
 113:usbd_desc.c   **** #ifdef USB_OTG_HS_INTERNAL_DMA_ENABLED
 114:usbd_desc.c   ****  #if defined   (__CC_ARM) /*!< ARM Compiler */
 115:usbd_desc.c   ****   __align(4)
 116:usbd_desc.c   ****  #elif defined ( __ICCARM__ ) /*!< IAR Compiler */
 117:usbd_desc.c   ****   #pragma data_alignment=4
 118:usbd_desc.c   ****  #elif defined (__GNUC__) /*!< GNU Compiler */
 119:usbd_desc.c   ****  #pragma pack(4)
 120:usbd_desc.c   ****  #elif defined  (__TASKING__) /*!< TASKING Compiler */
 121:usbd_desc.c   ****   __align(4)
 122:usbd_desc.c   ****  #endif /* __CC_ARM */
 123:usbd_desc.c   **** #endif
 124:usbd_desc.c   **** 
 125:usbd_desc.c   **** 
 126:usbd_desc.c   **** /* USB Standard Device Descriptor */
 127:usbd_desc.c   **** uint8_t USBD_DeviceDesc[USB_SIZ_DEVICE_DESC] =
 128:usbd_desc.c   ****   {
 129:usbd_desc.c   ****     0x12,                       /*bLength */
ARM GAS  C:\Users\admin\AppData\Local\Temp\cco6AOBb.s 			page 5


 130:usbd_desc.c   ****     USB_DEVICE_DESCRIPTOR_TYPE, /*bDescriptorType*/
 131:usbd_desc.c   ****     0x00,                       /*bcdUSB */
 132:usbd_desc.c   ****     0x02,
 133:usbd_desc.c   ****     0x00,                       /*bDeviceClass*/
 134:usbd_desc.c   ****     0x00,                       /*bDeviceSubClass*/
 135:usbd_desc.c   ****     0x00,                       /*bDeviceProtocol*/
 136:usbd_desc.c   ****     USB_OTG_MAX_EP0_SIZE,      /*bMaxPacketSize*/
 137:usbd_desc.c   ****     LOBYTE(USBD_VID),           /*idVendor*/
 138:usbd_desc.c   ****     HIBYTE(USBD_VID),           /*idVendor*/
 139:usbd_desc.c   ****     LOBYTE(USBD_PID),           /*idVendor*/
 140:usbd_desc.c   ****     HIBYTE(USBD_PID),           /*idVendor*/
 141:usbd_desc.c   ****     0x00,                       /*bcdDevice rel. 2.00*/
 142:usbd_desc.c   ****     0x02,
 143:usbd_desc.c   ****     USBD_IDX_MFC_STR,           /*Index of manufacturer  string*/
 144:usbd_desc.c   ****     USBD_IDX_PRODUCT_STR,       /*Index of product string*/
 145:usbd_desc.c   ****     USBD_IDX_SERIAL_STR,        /*Index of serial number string*/
 146:usbd_desc.c   ****     USBD_CFG_MAX_NUM            /*bNumConfigurations*/
 147:usbd_desc.c   ****   }
 148:usbd_desc.c   ****   ; /* USB_DeviceDescriptor */
 149:usbd_desc.c   **** 
 150:usbd_desc.c   **** 
 151:usbd_desc.c   **** /* USB Standard Device Descriptor */
 152:usbd_desc.c   **** uint8_t USBD_DeviceQualifierDesc[USB_LEN_DEV_QUALIFIER_DESC] =
 153:usbd_desc.c   **** {
 154:usbd_desc.c   ****   USB_LEN_DEV_QUALIFIER_DESC,
 155:usbd_desc.c   ****   USB_DESC_TYPE_DEVICE_QUALIFIER,
 156:usbd_desc.c   ****   0x00,
 157:usbd_desc.c   ****   0x02,
 158:usbd_desc.c   ****   0x00,
 159:usbd_desc.c   ****   0x00,
 160:usbd_desc.c   ****   0x00,
 161:usbd_desc.c   ****   0x40,
 162:usbd_desc.c   ****   0x01,
 163:usbd_desc.c   ****   0x00,
 164:usbd_desc.c   **** };
 165:usbd_desc.c   **** 
 166:usbd_desc.c   **** /* USB Standard Device Descriptor */
 167:usbd_desc.c   **** uint8_t USBD_LangIDDesc[USB_SIZ_STRING_LANGID] =
 168:usbd_desc.c   **** {
 169:usbd_desc.c   ****      USB_SIZ_STRING_LANGID,         
 170:usbd_desc.c   ****      USB_DESC_TYPE_STRING,       
 171:usbd_desc.c   ****      LOBYTE(USBD_LANGID_STRING),
 172:usbd_desc.c   ****      HIBYTE(USBD_LANGID_STRING), 
 173:usbd_desc.c   **** };
 174:usbd_desc.c   **** /**
 175:usbd_desc.c   ****   * @}
 176:usbd_desc.c   ****   */ 
 177:usbd_desc.c   **** 
 178:usbd_desc.c   **** 
 179:usbd_desc.c   **** /** @defgroup USBD_DESC_Private_FunctionPrototypes
 180:usbd_desc.c   ****   * @{
 181:usbd_desc.c   ****   */ 
 182:usbd_desc.c   **** /**
 183:usbd_desc.c   ****   * @}
 184:usbd_desc.c   ****   */ 
 185:usbd_desc.c   **** 
 186:usbd_desc.c   **** 
ARM GAS  C:\Users\admin\AppData\Local\Temp\cco6AOBb.s 			page 6


 187:usbd_desc.c   **** /** @defgroup USBD_DESC_Private_Functions
 188:usbd_desc.c   ****   * @{
 189:usbd_desc.c   ****   */ 
 190:usbd_desc.c   **** 
 191:usbd_desc.c   **** /**
 192:usbd_desc.c   **** * @brief  USBD_USR_DeviceDescriptor 
 193:usbd_desc.c   **** *         return the device descriptor
 194:usbd_desc.c   **** * @param  speed : current device speed
 195:usbd_desc.c   **** * @param  length : pointer to data length variable
 196:usbd_desc.c   **** * @retval pointer to descriptor buffer
 197:usbd_desc.c   **** */
 198:usbd_desc.c   **** uint8_t *  USBD_USR_DeviceDescriptor( uint8_t speed , uint16_t *length)
 199:usbd_desc.c   **** {
 100              		.loc 1 199 1 view -0
 101              		.cfi_startproc
 102              		@ args = 0, pretend = 0, frame = 0
 103              		@ frame_needed = 0, uses_anonymous_args = 0
 104              		@ link register save eliminated.
 200:usbd_desc.c   ****   *length = sizeof(USBD_DeviceDesc);
 105              		.loc 1 200 3 view .LVU1
 106              	@ usbd_desc.c:200:   *length = sizeof(USBD_DeviceDesc);
 107              		.loc 1 200 11 is_stmt 0 view .LVU2
 108 0000 1223     		movs	r3, #18	@ tmp117,
 109              	@ usbd_desc.c:202: }
 201:usbd_desc.c   ****   return USBD_DeviceDesc;
 202:usbd_desc.c   **** }
 110              		.loc 1 202 1 view .LVU3
 111 0002 0148     		ldr	r0, .L3	@,
 112              	.LVL1:
 113              	@ usbd_desc.c:200:   *length = sizeof(USBD_DeviceDesc);
 200:usbd_desc.c   ****   *length = sizeof(USBD_DeviceDesc);
 114              		.loc 1 200 11 view .LVU4
 115 0004 0B80     		strh	r3, [r1]	@ movhi	@ tmp117, *length_2(D)
 201:usbd_desc.c   ****   return USBD_DeviceDesc;
 116              		.loc 1 201 3 is_stmt 1 view .LVU5
 117              	@ usbd_desc.c:202: }
 118              		.loc 1 202 1 is_stmt 0 view .LVU6
 119 0006 7047     		bx	lr	@
 120              	.L4:
 121              		.align	2
 122              	.L3:
 123 0008 00000000 		.word	.LANCHOR0
 124              		.cfi_endproc
 125              	.LFE110:
 126              		.size	USBD_USR_DeviceDescriptor, .-USBD_USR_DeviceDescriptor
 127              		.section	.text.USBD_USR_LangIDStrDescriptor,"ax",%progbits
 128              		.align	1
 129              		.p2align 2,,3
 130              		.global	USBD_USR_LangIDStrDescriptor
 131              		.syntax unified
 132              		.thumb
 133              		.thumb_func
 134              		.type	USBD_USR_LangIDStrDescriptor, %function
 135              	USBD_USR_LangIDStrDescriptor:
 136              	.LVL2:
 137              	.LFB111:
 203:usbd_desc.c   **** 
ARM GAS  C:\Users\admin\AppData\Local\Temp\cco6AOBb.s 			page 7


 204:usbd_desc.c   **** /**
 205:usbd_desc.c   **** * @brief  USBD_USR_LangIDStrDescriptor 
 206:usbd_desc.c   **** *         return the LangID string descriptor
 207:usbd_desc.c   **** * @param  speed : current device speed
 208:usbd_desc.c   **** * @param  length : pointer to data length variable
 209:usbd_desc.c   **** * @retval pointer to descriptor buffer
 210:usbd_desc.c   **** */
 211:usbd_desc.c   **** uint8_t *  USBD_USR_LangIDStrDescriptor( uint8_t speed , uint16_t *length)
 212:usbd_desc.c   **** {
 138              		.loc 1 212 1 is_stmt 1 view -0
 139              		.cfi_startproc
 140              		@ args = 0, pretend = 0, frame = 0
 141              		@ frame_needed = 0, uses_anonymous_args = 0
 142              		@ link register save eliminated.
 213:usbd_desc.c   ****   *length =  sizeof(USBD_LangIDDesc);  
 143              		.loc 1 213 3 view .LVU8
 144              	@ usbd_desc.c:213:   *length =  sizeof(USBD_LangIDDesc);  
 145              		.loc 1 213 11 is_stmt 0 view .LVU9
 146 0000 0423     		movs	r3, #4	@ tmp117,
 147              	@ usbd_desc.c:215: }
 214:usbd_desc.c   ****   return USBD_LangIDDesc;
 215:usbd_desc.c   **** }
 148              		.loc 1 215 1 view .LVU10
 149 0002 0148     		ldr	r0, .L6	@,
 150              	.LVL3:
 151              	@ usbd_desc.c:213:   *length =  sizeof(USBD_LangIDDesc);  
 213:usbd_desc.c   ****   *length =  sizeof(USBD_LangIDDesc);  
 152              		.loc 1 213 11 view .LVU11
 153 0004 0B80     		strh	r3, [r1]	@ movhi	@ tmp117, *length_2(D)
 214:usbd_desc.c   ****   return USBD_LangIDDesc;
 154              		.loc 1 214 3 is_stmt 1 view .LVU12
 155              	@ usbd_desc.c:215: }
 156              		.loc 1 215 1 is_stmt 0 view .LVU13
 157 0006 7047     		bx	lr	@
 158              	.L7:
 159              		.align	2
 160              	.L6:
 161 0008 00000000 		.word	.LANCHOR1
 162              		.cfi_endproc
 163              	.LFE111:
 164              		.size	USBD_USR_LangIDStrDescriptor, .-USBD_USR_LangIDStrDescriptor
 165              		.section	.rodata.USBD_USR_ManufacturerStrDescriptor.str1.4,"aMS",%progbits,1
 166              		.align	2
 167              	.LC0:
 168 0000 5445204E 		.ascii	"TE NPI\000"
 168      504900
 169              		.section	.text.USBD_USR_ManufacturerStrDescriptor,"ax",%progbits
 170              		.align	1
 171              		.p2align 2,,3
 172              		.global	USBD_USR_ManufacturerStrDescriptor
 173              		.syntax unified
 174              		.thumb
 175              		.thumb_func
 176              		.type	USBD_USR_ManufacturerStrDescriptor, %function
 177              	USBD_USR_ManufacturerStrDescriptor:
 178              	.LVL4:
 179              	.LFB113:
ARM GAS  C:\Users\admin\AppData\Local\Temp\cco6AOBb.s 			page 8


 216:usbd_desc.c   **** 
 217:usbd_desc.c   **** 
 218:usbd_desc.c   **** /**
 219:usbd_desc.c   **** * @brief  USBD_USR_ProductStrDescriptor 
 220:usbd_desc.c   **** *         return the product string descriptor
 221:usbd_desc.c   **** * @param  speed : current device speed
 222:usbd_desc.c   **** * @param  length : pointer to data length variable
 223:usbd_desc.c   **** * @retval pointer to descriptor buffer
 224:usbd_desc.c   **** */
 225:usbd_desc.c   **** uint8_t *  USBD_USR_ProductStrDescriptor( uint8_t speed , uint16_t *length)
 226:usbd_desc.c   **** {
 227:usbd_desc.c   ****  
 228:usbd_desc.c   ****   
 229:usbd_desc.c   ****   if(speed == 0)
 230:usbd_desc.c   ****   {   
 231:usbd_desc.c   ****     USBD_GetString (USBD_PRODUCT_HS_STRING, USBD_StrDesc, length);
 232:usbd_desc.c   ****   }
 233:usbd_desc.c   ****   else
 234:usbd_desc.c   ****   {
 235:usbd_desc.c   ****     USBD_GetString (USBD_PRODUCT_FS_STRING, USBD_StrDesc, length);    
 236:usbd_desc.c   ****   }
 237:usbd_desc.c   ****   return USBD_StrDesc;
 238:usbd_desc.c   **** }
 239:usbd_desc.c   **** 
 240:usbd_desc.c   **** /**
 241:usbd_desc.c   **** * @brief  USBD_USR_ManufacturerStrDescriptor 
 242:usbd_desc.c   **** *         return the manufacturer string descriptor
 243:usbd_desc.c   **** * @param  speed : current device speed
 244:usbd_desc.c   **** * @param  length : pointer to data length variable
 245:usbd_desc.c   **** * @retval pointer to descriptor buffer
 246:usbd_desc.c   **** */
 247:usbd_desc.c   **** uint8_t *  USBD_USR_ManufacturerStrDescriptor( uint8_t speed , uint16_t *length)
 248:usbd_desc.c   **** {
 180              		.loc 1 248 1 is_stmt 1 view -0
 181              		.cfi_startproc
 182              		@ args = 0, pretend = 0, frame = 0
 183              		@ frame_needed = 0, uses_anonymous_args = 0
 249:usbd_desc.c   ****   USBD_GetString (USBD_MANUFACTURER_STRING, USBD_StrDesc, length);
 184              		.loc 1 249 3 view .LVU15
 185              	@ usbd_desc.c:248: {
 248:usbd_desc.c   ****   USBD_GetString (USBD_MANUFACTURER_STRING, USBD_StrDesc, length);
 186              		.loc 1 248 1 is_stmt 0 view .LVU16
 187 0000 10B5     		push	{r4, lr}	@
 188              		.cfi_def_cfa_offset 8
 189              		.cfi_offset 4, -8
 190              		.cfi_offset 14, -4
 191              	@ usbd_desc.c:249:   USBD_GetString (USBD_MANUFACTURER_STRING, USBD_StrDesc, length);
 192              		.loc 1 249 3 view .LVU17
 193 0002 044C     		ldr	r4, .L10	@ tmp116,
 194 0004 0448     		ldr	r0, .L10+4	@,
 195              	.LVL5:
 196              	@ usbd_desc.c:248: {
 248:usbd_desc.c   ****   USBD_GetString (USBD_MANUFACTURER_STRING, USBD_StrDesc, length);
 197              		.loc 1 248 1 view .LVU18
 198 0006 0A46     		mov	r2, r1	@ tmp119, length
 199              	@ usbd_desc.c:249:   USBD_GetString (USBD_MANUFACTURER_STRING, USBD_StrDesc, length);
 200              		.loc 1 249 3 view .LVU19
ARM GAS  C:\Users\admin\AppData\Local\Temp\cco6AOBb.s 			page 9


 201 0008 2146     		mov	r1, r4	@, tmp116
 202              	.LVL6:
 203              		.loc 1 249 3 view .LVU20
 204 000a FFF7FEFF 		bl	USBD_GetString		@
 205              	.LVL7:
 250:usbd_desc.c   ****   return USBD_StrDesc;
 206              		.loc 1 250 3 is_stmt 1 view .LVU21
 207              	@ usbd_desc.c:251: }
 251:usbd_desc.c   **** }
 208              		.loc 1 251 1 is_stmt 0 view .LVU22
 209 000e 2046     		mov	r0, r4	@, tmp116
 210 0010 10BD     		pop	{r4, pc}	@
 211              	.L11:
 212 0012 00BF     		.align	2
 213              	.L10:
 214 0014 00000000 		.word	USBD_StrDesc
 215 0018 00000000 		.word	.LC0
 216              		.cfi_endproc
 217              	.LFE113:
 218              		.size	USBD_USR_ManufacturerStrDescriptor, .-USBD_USR_ManufacturerStrDescriptor
 219              		.section	.rodata.USBD_USR_ProductStrDescriptor.str1.4,"aMS",%progbits,1
 220              		.align	2
 221              	.LC1:
 222 0000 53544D33 		.ascii	"STM32 AUDIO Streaming in HS Mode\000"
 222      32204155 
 222      44494F20 
 222      53747265 
 222      616D696E 
 223              		.section	.text.USBD_USR_ProductStrDescriptor,"ax",%progbits
 224              		.align	1
 225              		.p2align 2,,3
 226              		.global	USBD_USR_ProductStrDescriptor
 227              		.syntax unified
 228              		.thumb
 229              		.thumb_func
 230              		.type	USBD_USR_ProductStrDescriptor, %function
 231              	USBD_USR_ProductStrDescriptor:
 232              	.LVL8:
 233              	.LFB112:
 226:usbd_desc.c   ****  
 234              		.loc 1 226 1 is_stmt 1 view -0
 235              		.cfi_startproc
 236              		@ args = 0, pretend = 0, frame = 0
 237              		@ frame_needed = 0, uses_anonymous_args = 0
 229:usbd_desc.c   ****   {   
 238              		.loc 1 229 3 view .LVU24
 239              	@ usbd_desc.c:226: {
 226:usbd_desc.c   ****  
 240              		.loc 1 226 1 is_stmt 0 view .LVU25
 241 0000 0A46     		mov	r2, r1	@ length, tmp122
 242 0002 08B5     		push	{r3, lr}	@
 243              		.cfi_def_cfa_offset 8
 244              		.cfi_offset 3, -8
 245              		.cfi_offset 14, -4
 246              	.LBB4:
 247              	.LBB5:
 248              	@ usbd_desc.c:231:     USBD_GetString (USBD_PRODUCT_HS_STRING, USBD_StrDesc, length);
ARM GAS  C:\Users\admin\AppData\Local\Temp\cco6AOBb.s 			page 10


 231:usbd_desc.c   ****   }
 249              		.loc 1 231 5 view .LVU26
 250 0004 0549     		ldr	r1, .L16	@,
 251              	.LVL9:
 231:usbd_desc.c   ****   }
 252              		.loc 1 231 5 view .LVU27
 253              	.LBE5:
 254              	.LBE4:
 255              	@ usbd_desc.c:229:   if(speed == 0)
 229:usbd_desc.c   ****   {   
 256              		.loc 1 229 5 view .LVU28
 257 0006 20B9     		cbnz	r0, .L13	@ tmp121,
 258              	.LVL10:
 259              	.LBB7:
 260              	.LBI4:
 225:usbd_desc.c   **** {
 261              		.loc 1 225 12 is_stmt 1 view .LVU29
 262              	.LBB6:
 231:usbd_desc.c   ****   }
 263              		.loc 1 231 5 view .LVU30
 264 0008 0548     		ldr	r0, .L16+4	@,
 265              	.LVL11:
 231:usbd_desc.c   ****   }
 266              		.loc 1 231 5 is_stmt 0 view .LVU31
 267 000a FFF7FEFF 		bl	USBD_GetString		@
 268              	.LVL12:
 231:usbd_desc.c   ****   }
 269              		.loc 1 231 5 view .LVU32
 270              	.LBE6:
 271              	.LBE7:
 237:usbd_desc.c   **** }
 272              		.loc 1 237 3 is_stmt 1 view .LVU33
 273              	@ usbd_desc.c:238: }
 238:usbd_desc.c   **** 
 274              		.loc 1 238 1 is_stmt 0 view .LVU34
 275 000e 0348     		ldr	r0, .L16	@,
 276 0010 08BD     		pop	{r3, pc}	@
 277              	.LVL13:
 278              	.L13:
 235:usbd_desc.c   ****   }
 279              		.loc 1 235 5 is_stmt 1 view .LVU35
 280 0012 0448     		ldr	r0, .L16+8	@,
 281              	.LVL14:
 235:usbd_desc.c   ****   }
 282              		.loc 1 235 5 is_stmt 0 view .LVU36
 283 0014 FFF7FEFF 		bl	USBD_GetString		@
 284              	.LVL15:
 237:usbd_desc.c   **** }
 285              		.loc 1 237 3 is_stmt 1 view .LVU37
 286              	@ usbd_desc.c:238: }
 238:usbd_desc.c   **** 
 287              		.loc 1 238 1 is_stmt 0 view .LVU38
 288 0018 0048     		ldr	r0, .L16	@,
 289 001a 08BD     		pop	{r3, pc}	@
 290              	.L17:
 291              		.align	2
 292              	.L16:
ARM GAS  C:\Users\admin\AppData\Local\Temp\cco6AOBb.s 			page 11


 293 001c 00000000 		.word	USBD_StrDesc
 294 0020 00000000 		.word	.LC1
 295 0024 00000000 		.word	.LC0
 296              		.cfi_endproc
 297              	.LFE112:
 298              		.size	USBD_USR_ProductStrDescriptor, .-USBD_USR_ProductStrDescriptor
 299              		.section	.rodata.USBD_USR_SerialStrDescriptor.str1.4,"aMS",%progbits,1
 300              		.align	2
 301              	.LC2:
 302 0000 30303030 		.ascii	"00000000034F\000"
 302      30303030 
 302      30333446 
 302      00
 303 000d 000000   		.align	2
 304              	.LC3:
 305 0010 30303030 		.ascii	"00000000034E\000"
 305      30303030 
 305      30333445 
 305      00
 306              		.section	.text.USBD_USR_SerialStrDescriptor,"ax",%progbits
 307              		.align	1
 308              		.p2align 2,,3
 309              		.global	USBD_USR_SerialStrDescriptor
 310              		.syntax unified
 311              		.thumb
 312              		.thumb_func
 313              		.type	USBD_USR_SerialStrDescriptor, %function
 314              	USBD_USR_SerialStrDescriptor:
 315              	.LVL16:
 316              	.LFB114:
 252:usbd_desc.c   **** 
 253:usbd_desc.c   **** /**
 254:usbd_desc.c   **** * @brief  USBD_USR_SerialStrDescriptor 
 255:usbd_desc.c   **** *         return the serial number string descriptor
 256:usbd_desc.c   **** * @param  speed : current device speed
 257:usbd_desc.c   **** * @param  length : pointer to data length variable
 258:usbd_desc.c   **** * @retval pointer to descriptor buffer
 259:usbd_desc.c   **** */
 260:usbd_desc.c   **** uint8_t *  USBD_USR_SerialStrDescriptor( uint8_t speed , uint16_t *length)
 261:usbd_desc.c   **** {
 317              		.loc 1 261 1 is_stmt 1 view -0
 318              		.cfi_startproc
 319              		@ args = 0, pretend = 0, frame = 0
 320              		@ frame_needed = 0, uses_anonymous_args = 0
 262:usbd_desc.c   ****   if(speed  == USB_OTG_SPEED_HIGH)
 321              		.loc 1 262 3 view .LVU40
 322              	@ usbd_desc.c:261: {
 261:usbd_desc.c   ****   if(speed  == USB_OTG_SPEED_HIGH)
 323              		.loc 1 261 1 is_stmt 0 view .LVU41
 324 0000 0A46     		mov	r2, r1	@ length, tmp122
 325 0002 08B5     		push	{r3, lr}	@
 326              		.cfi_def_cfa_offset 8
 327              		.cfi_offset 3, -8
 328              		.cfi_offset 14, -4
 329              	.LBB10:
 330              	.LBB11:
 331              	@ usbd_desc.c:264:     USBD_GetString (USBD_SERIALNUMBER_HS_STRING, USBD_StrDesc, length);
ARM GAS  C:\Users\admin\AppData\Local\Temp\cco6AOBb.s 			page 12


 263:usbd_desc.c   ****   {    
 264:usbd_desc.c   ****     USBD_GetString (USBD_SERIALNUMBER_HS_STRING, USBD_StrDesc, length);
 332              		.loc 1 264 5 view .LVU42
 333 0004 0549     		ldr	r1, .L22	@,
 334              	.LVL17:
 335              		.loc 1 264 5 view .LVU43
 336              	.LBE11:
 337              	.LBE10:
 338              	@ usbd_desc.c:262:   if(speed  == USB_OTG_SPEED_HIGH)
 262:usbd_desc.c   ****   {    
 339              		.loc 1 262 5 view .LVU44
 340 0006 20B9     		cbnz	r0, .L19	@ tmp121,
 341              	.LVL18:
 342              	.LBB13:
 343              	.LBI10:
 260:usbd_desc.c   **** {
 344              		.loc 1 260 12 is_stmt 1 view .LVU45
 345              	.LBB12:
 346              		.loc 1 264 5 view .LVU46
 347 0008 0548     		ldr	r0, .L22+4	@,
 348              	.LVL19:
 349              		.loc 1 264 5 is_stmt 0 view .LVU47
 350 000a FFF7FEFF 		bl	USBD_GetString		@
 351              	.LVL20:
 352              		.loc 1 264 5 view .LVU48
 353              	.LBE12:
 354              	.LBE13:
 265:usbd_desc.c   ****   }
 266:usbd_desc.c   ****   else
 267:usbd_desc.c   ****   {
 268:usbd_desc.c   ****     USBD_GetString (USBD_SERIALNUMBER_FS_STRING, USBD_StrDesc, length);    
 269:usbd_desc.c   ****   }
 270:usbd_desc.c   ****   return USBD_StrDesc;
 355              		.loc 1 270 3 is_stmt 1 view .LVU49
 356              	@ usbd_desc.c:271: }
 271:usbd_desc.c   **** }
 357              		.loc 1 271 1 is_stmt 0 view .LVU50
 358 000e 0348     		ldr	r0, .L22	@,
 359 0010 08BD     		pop	{r3, pc}	@
 360              	.LVL21:
 361              	.L19:
 268:usbd_desc.c   ****   }
 362              		.loc 1 268 5 is_stmt 1 view .LVU51
 363 0012 0448     		ldr	r0, .L22+8	@,
 364              	.LVL22:
 268:usbd_desc.c   ****   }
 365              		.loc 1 268 5 is_stmt 0 view .LVU52
 366 0014 FFF7FEFF 		bl	USBD_GetString		@
 367              	.LVL23:
 270:usbd_desc.c   **** }
 368              		.loc 1 270 3 is_stmt 1 view .LVU53
 369              	@ usbd_desc.c:271: }
 370              		.loc 1 271 1 is_stmt 0 view .LVU54
 371 0018 0048     		ldr	r0, .L22	@,
 372 001a 08BD     		pop	{r3, pc}	@
 373              	.L23:
 374              		.align	2
ARM GAS  C:\Users\admin\AppData\Local\Temp\cco6AOBb.s 			page 13


 375              	.L22:
 376 001c 00000000 		.word	USBD_StrDesc
 377 0020 00000000 		.word	.LC2
 378 0024 10000000 		.word	.LC3
 379              		.cfi_endproc
 380              	.LFE114:
 381              		.size	USBD_USR_SerialStrDescriptor, .-USBD_USR_SerialStrDescriptor
 382              		.section	.rodata.USBD_USR_ConfigStrDescriptor.str1.4,"aMS",%progbits,1
 383              		.align	2
 384              	.LC4:
 385 0000 41554449 		.ascii	"AUDIO Config\000"
 385      4F20436F 
 385      6E666967 
 385      00
 386              		.section	.text.USBD_USR_ConfigStrDescriptor,"ax",%progbits
 387              		.align	1
 388              		.p2align 2,,3
 389              		.global	USBD_USR_ConfigStrDescriptor
 390              		.syntax unified
 391              		.thumb
 392              		.thumb_func
 393              		.type	USBD_USR_ConfigStrDescriptor, %function
 394              	USBD_USR_ConfigStrDescriptor:
 395              	.LVL24:
 396              	.LFB115:
 272:usbd_desc.c   **** 
 273:usbd_desc.c   **** /**
 274:usbd_desc.c   **** * @brief  USBD_USR_ConfigStrDescriptor 
 275:usbd_desc.c   **** *         return the configuration string descriptor
 276:usbd_desc.c   **** * @param  speed : current device speed
 277:usbd_desc.c   **** * @param  length : pointer to data length variable
 278:usbd_desc.c   **** * @retval pointer to descriptor buffer
 279:usbd_desc.c   **** */
 280:usbd_desc.c   **** uint8_t *  USBD_USR_ConfigStrDescriptor( uint8_t speed , uint16_t *length)
 281:usbd_desc.c   **** {
 397              		.loc 1 281 1 is_stmt 1 view -0
 398              		.cfi_startproc
 399              		@ args = 0, pretend = 0, frame = 0
 400              		@ frame_needed = 0, uses_anonymous_args = 0
 282:usbd_desc.c   ****   if(speed  == USB_OTG_SPEED_HIGH)
 401              		.loc 1 282 3 view .LVU56
 402              	@ usbd_desc.c:281: {
 281:usbd_desc.c   ****   if(speed  == USB_OTG_SPEED_HIGH)
 403              		.loc 1 281 1 is_stmt 0 view .LVU57
 404 0000 10B5     		push	{r4, lr}	@
 405              		.cfi_def_cfa_offset 8
 406              		.cfi_offset 4, -8
 407              		.cfi_offset 14, -4
 408              	.LBB16:
 409              	.LBB17:
 410              	@ usbd_desc.c:284:     USBD_GetString (USBD_CONFIGURATION_HS_STRING, USBD_StrDesc, length);
 283:usbd_desc.c   ****   {  
 284:usbd_desc.c   ****     USBD_GetString (USBD_CONFIGURATION_HS_STRING, USBD_StrDesc, length);
 411              		.loc 1 284 5 view .LVU58
 412 0002 044C     		ldr	r4, .L26	@ tmp116,
 413 0004 0448     		ldr	r0, .L26+4	@,
 414              	.LVL25:
ARM GAS  C:\Users\admin\AppData\Local\Temp\cco6AOBb.s 			page 14


 415              		.loc 1 284 5 view .LVU59
 416              	.LBE17:
 417              	.LBE16:
 418              	@ usbd_desc.c:281: {
 281:usbd_desc.c   ****   if(speed  == USB_OTG_SPEED_HIGH)
 419              		.loc 1 281 1 view .LVU60
 420 0006 0A46     		mov	r2, r1	@ tmp119, length
 421              	.LVL26:
 422              	.LBB19:
 423              	.LBI16:
 280:usbd_desc.c   **** {
 424              		.loc 1 280 12 is_stmt 1 view .LVU61
 425              	.LBB18:
 426              		.loc 1 284 5 view .LVU62
 427 0008 2146     		mov	r1, r4	@, tmp116
 428              	.LVL27:
 429              		.loc 1 284 5 is_stmt 0 view .LVU63
 430 000a FFF7FEFF 		bl	USBD_GetString		@
 431              	.LVL28:
 432              		.loc 1 284 5 view .LVU64
 433              	.LBE18:
 434              	.LBE19:
 285:usbd_desc.c   ****   }
 286:usbd_desc.c   ****   else
 287:usbd_desc.c   ****   {
 288:usbd_desc.c   ****     USBD_GetString (USBD_CONFIGURATION_FS_STRING, USBD_StrDesc, length); 
 289:usbd_desc.c   ****   }
 290:usbd_desc.c   ****   return USBD_StrDesc;  
 435              		.loc 1 290 3 is_stmt 1 view .LVU65
 436              	@ usbd_desc.c:291: }
 291:usbd_desc.c   **** }
 437              		.loc 1 291 1 is_stmt 0 view .LVU66
 438 000e 2046     		mov	r0, r4	@, tmp116
 439 0010 10BD     		pop	{r4, pc}	@
 440              	.L27:
 441 0012 00BF     		.align	2
 442              	.L26:
 443 0014 00000000 		.word	USBD_StrDesc
 444 0018 00000000 		.word	.LC4
 445              		.cfi_endproc
 446              	.LFE115:
 447              		.size	USBD_USR_ConfigStrDescriptor, .-USBD_USR_ConfigStrDescriptor
 448              		.section	.rodata.USBD_USR_InterfaceStrDescriptor.str1.4,"aMS",%progbits,1
 449              		.align	2
 450              	.LC5:
 451 0000 41554449 		.ascii	"AUDIO Interface\000"
 451      4F20496E 
 451      74657266 
 451      61636500 
 452              		.section	.text.USBD_USR_InterfaceStrDescriptor,"ax",%progbits
 453              		.align	1
 454              		.p2align 2,,3
 455              		.global	USBD_USR_InterfaceStrDescriptor
 456              		.syntax unified
 457              		.thumb
 458              		.thumb_func
 459              		.type	USBD_USR_InterfaceStrDescriptor, %function
ARM GAS  C:\Users\admin\AppData\Local\Temp\cco6AOBb.s 			page 15


 460              	USBD_USR_InterfaceStrDescriptor:
 461              	.LVL29:
 462              	.LFB116:
 292:usbd_desc.c   **** 
 293:usbd_desc.c   **** 
 294:usbd_desc.c   **** /**
 295:usbd_desc.c   **** * @brief  USBD_USR_InterfaceStrDescriptor 
 296:usbd_desc.c   **** *         return the interface string descriptor
 297:usbd_desc.c   **** * @param  speed : current device speed
 298:usbd_desc.c   **** * @param  length : pointer to data length variable
 299:usbd_desc.c   **** * @retval pointer to descriptor buffer
 300:usbd_desc.c   **** */
 301:usbd_desc.c   **** uint8_t *  USBD_USR_InterfaceStrDescriptor( uint8_t speed , uint16_t *length)
 302:usbd_desc.c   **** {
 463              		.loc 1 302 1 is_stmt 1 view -0
 464              		.cfi_startproc
 465              		@ args = 0, pretend = 0, frame = 0
 466              		@ frame_needed = 0, uses_anonymous_args = 0
 303:usbd_desc.c   ****   if(speed == 0)
 467              		.loc 1 303 3 view .LVU68
 468              	@ usbd_desc.c:302: {
 302:usbd_desc.c   ****   if(speed == 0)
 469              		.loc 1 302 1 is_stmt 0 view .LVU69
 470 0000 10B5     		push	{r4, lr}	@
 471              		.cfi_def_cfa_offset 8
 472              		.cfi_offset 4, -8
 473              		.cfi_offset 14, -4
 474              	.LBB22:
 475              	.LBB23:
 476              	@ usbd_desc.c:305:     USBD_GetString (USBD_INTERFACE_HS_STRING, USBD_StrDesc, length);
 304:usbd_desc.c   ****   {
 305:usbd_desc.c   ****     USBD_GetString (USBD_INTERFACE_HS_STRING, USBD_StrDesc, length);
 477              		.loc 1 305 5 view .LVU70
 478 0002 044C     		ldr	r4, .L30	@ tmp116,
 479 0004 0448     		ldr	r0, .L30+4	@,
 480              	.LVL30:
 481              		.loc 1 305 5 view .LVU71
 482              	.LBE23:
 483              	.LBE22:
 484              	@ usbd_desc.c:302: {
 302:usbd_desc.c   ****   if(speed == 0)
 485              		.loc 1 302 1 view .LVU72
 486 0006 0A46     		mov	r2, r1	@ tmp119, length
 487              	.LVL31:
 488              	.LBB25:
 489              	.LBI22:
 301:usbd_desc.c   **** {
 490              		.loc 1 301 12 is_stmt 1 view .LVU73
 491              	.LBB24:
 492              		.loc 1 305 5 view .LVU74
 493 0008 2146     		mov	r1, r4	@, tmp116
 494              	.LVL32:
 495              		.loc 1 305 5 is_stmt 0 view .LVU75
 496 000a FFF7FEFF 		bl	USBD_GetString		@
 497              	.LVL33:
 498              		.loc 1 305 5 view .LVU76
 499              	.LBE24:
ARM GAS  C:\Users\admin\AppData\Local\Temp\cco6AOBb.s 			page 16


 500              	.LBE25:
 306:usbd_desc.c   ****   }
 307:usbd_desc.c   ****   else
 308:usbd_desc.c   ****   {
 309:usbd_desc.c   ****     USBD_GetString (USBD_INTERFACE_FS_STRING, USBD_StrDesc, length);
 310:usbd_desc.c   ****   }
 311:usbd_desc.c   ****   return USBD_StrDesc;  
 501              		.loc 1 311 3 is_stmt 1 view .LVU77
 502              	@ usbd_desc.c:312: }
 312:usbd_desc.c   **** }
 503              		.loc 1 312 1 is_stmt 0 view .LVU78
 504 000e 2046     		mov	r0, r4	@, tmp116
 505 0010 10BD     		pop	{r4, pc}	@
 506              	.L31:
 507 0012 00BF     		.align	2
 508              	.L30:
 509 0014 00000000 		.word	USBD_StrDesc
 510 0018 00000000 		.word	.LC5
 511              		.cfi_endproc
 512              	.LFE116:
 513              		.size	USBD_USR_InterfaceStrDescriptor, .-USBD_USR_InterfaceStrDescriptor
 514              		.global	USBD_LangIDDesc
 515              		.global	USBD_DeviceQualifierDesc
 516              		.global	USBD_DeviceDesc
 517              		.global	USR_desc
 518              		.section	.data.USBD_DeviceDesc,"aw"
 519              		.align	2
 520              		.set	.LANCHOR0,. + 0
 521              		.type	USBD_DeviceDesc, %object
 522              		.size	USBD_DeviceDesc, 18
 523              	USBD_DeviceDesc:
 524 0000 12010002 		.ascii	"\022\001\000\002\000\000\000@\203\0040W\000\002\001"
 524      00000040 
 524      83043057 
 524      000201
 525 000f 020301   		.ascii	"\002\003\001"
 526              		.section	.data.USBD_DeviceQualifierDesc,"aw"
 527              		.align	2
 528              		.type	USBD_DeviceQualifierDesc, %object
 529              		.size	USBD_DeviceQualifierDesc, 10
 530              	USBD_DeviceQualifierDesc:
 531 0000 0A060002 		.ascii	"\012\006\000\002\000\000\000@\001\000"
 531      00000040 
 531      0100
 532              		.section	.data.USBD_LangIDDesc,"aw"
 533              		.align	2
 534              		.set	.LANCHOR1,. + 0
 535              		.type	USBD_LangIDDesc, %object
 536              		.size	USBD_LangIDDesc, 4
 537              	USBD_LangIDDesc:
 538 0000 04030904 		.ascii	"\004\003\011\004"
 539              		.section	.data.USR_desc,"aw"
 540              		.align	2
 541              		.type	USR_desc, %object
 542              		.size	USR_desc, 28
 543              	USR_desc:
 544              	@ GetDeviceDescriptor:
ARM GAS  C:\Users\admin\AppData\Local\Temp\cco6AOBb.s 			page 17


 545 0000 00000000 		.word	USBD_USR_DeviceDescriptor
 546              	@ GetLangIDStrDescriptor:
 547 0004 00000000 		.word	USBD_USR_LangIDStrDescriptor
 548              	@ GetManufacturerStrDescriptor:
 549 0008 00000000 		.word	USBD_USR_ManufacturerStrDescriptor
 550              	@ GetProductStrDescriptor:
 551 000c 00000000 		.word	USBD_USR_ProductStrDescriptor
 552              	@ GetSerialStrDescriptor:
 553 0010 00000000 		.word	USBD_USR_SerialStrDescriptor
 554              	@ GetConfigurationStrDescriptor:
 555 0014 00000000 		.word	USBD_USR_ConfigStrDescriptor
 556              	@ GetInterfaceStrDescriptor:
 557 0018 00000000 		.word	USBD_USR_InterfaceStrDescriptor
 558              		.text
 559              	.Letext0:
 560              		.file 2 "c:\\program files (x86)\\gnu arm embedded toolchain\\10 2021.10\\arm-none-eabi\\include\\
 561              		.file 3 "c:\\program files (x86)\\gnu arm embedded toolchain\\10 2021.10\\arm-none-eabi\\include\\
 562              		.file 4 "../Libraries/STM32_USB_OTG_Driver/inc/usb_core.h"
 563              		.file 5 "usbd_desc.h"
 564              		.file 6 "../Libraries/STM32_USB_Device_Library/Core/inc/usbd_req.h"