ARM GAS  C:\Users\admin\AppData\Local\Temp\cchM77g0.s 			page 1


   1              		.cpu cortex-m4
   2              		.arch armv7e-m
   3              		.fpu fpv4-sp-d16
   4              		.eabi_attribute 27, 1	@ Tag_ABI_HardFP_use
   5              		.eabi_attribute 28, 1	@ Tag_ABI_VFP_args
   6              		.eabi_attribute 23, 1	@ Tag_ABI_FP_number_model
   7              		.eabi_attribute 24, 1	@ Tag_ABI_align8_needed
   8              		.eabi_attribute 25, 1	@ Tag_ABI_align8_preserved
   9              		.eabi_attribute 26, 1	@ Tag_ABI_enum_size
  10              		.eabi_attribute 30, 2	@ Tag_ABI_optimization_goals
  11              		.eabi_attribute 34, 1	@ Tag_CPU_unaligned_access
  12              		.eabi_attribute 18, 4	@ Tag_ABI_PCS_wchar_t
  13              		.file	"usbd_audio_core.c"
  14              	@ GNU C89 (GNU Arm Embedded Toolchain 10.3-2021.10) version 10.3.1 20210824 (release) (arm-none-eab
  15              	@	compiled by GNU C version 7.3-win32 20180312, GMP version 6.1.0, MPFR version 3.1.4, MPC version 
  16              	
  17              	@ GGC heuristics: --param ggc-min-expand=100 --param ggc-min-heapsize=131072
  18              	@ options passed:  -I . -I . -I ../Utilities/STM32F4-Discovery/
  19              	@ -I ../Libraries/STM32_USB_Device_Library/Class/audio/inc/
  20              	@ -I ../Libraries/STM32_USB_Device_Library/Core/inc/
  21              	@ -I ../Libraries/STM32_USB_OTG_Driver/inc/
  22              	@ -I ../Utilities/STM32F4-Discovery/
  23              	@ -I ../Libraries/STM32F4xx_StdPeriph_Driver/inc/
  24              	@ -I ../Utilities/STM32F4-Discovery/
  25              	@ -I ../Libraries/CMSIS/ST/STM32F4xx/Include/
  26              	@ -I ../Libraries/CMSIS/Include/ -imultilib thumb/v7e-m+fp/hard
  27              	@ -iprefix c:\program files (x86)\gnu arm embedded toolchain\10 2021.10\bin\../lib/gcc/arm-none-eab
  28              	@ -isysroot c:\program files (x86)\gnu arm embedded toolchain\10 2021.10\bin\../arm-none-eabi
  29              	@ -MD out/usbd_audio_core.d -MF out/usbd_audio_core.d -MP
  30              	@ -MQ out/usbd_audio_core.o -D__USES_INITFINI__ -D STM32F4XX -D __VFP_FP__
  31              	@ -D USE_USB_OTG_FS
  32              	@ ../Libraries/STM32_USB_Device_Library/Class/audio/src/usbd_audio_core.c
  33              	@ -mcpu=cortex-m4 -mthumb -mfloat-abi=hard -mfpu=fpv4-sp-d16
  34              	@ -mlibarch=armv7e-m+fp -march=armv7e-m+fp
  35              	@ -auxbase-strip out/usbd_audio_core.o -g -ggdb3 -O3 -Wall
  36              	@ -Wstrict-prototypes -Wextra -std=gnu90 -ffast-math -ffunction-sections
  37              	@ -fdata-sections -fverbose-asm
  38              	@ options enabled:  -faggressive-loop-optimizations -falign-functions
  39              	@ -falign-jumps -falign-labels -falign-loops -fallocation-dce
  40              	@ -fassociative-math -fauto-inc-dec -fbranch-count-reg -fcaller-saves
  41              	@ -fcombine-stack-adjustments -fcompare-elim -fcprop-registers
  42              	@ -fcrossjumping -fcse-follow-jumps -fcx-limited-range -fdata-sections
  43              	@ -fdefer-pop -fdelete-null-pointer-checks -fdevirtualize
  44              	@ -fdevirtualize-speculatively -fdwarf2-cfi-asm -fearly-inlining
  45              	@ -feliminate-unused-debug-symbols -feliminate-unused-debug-types
  46              	@ -fexpensive-optimizations -ffinite-math-only -fforward-propagate
  47              	@ -ffp-int-builtin-inexact -ffunction-cse -ffunction-sections -fgcse
  48              	@ -fgcse-after-reload -fgcse-lm -fgnu-unique -fguess-branch-probability
  49              	@ -fhoist-adjacent-loads -fident -fif-conversion -fif-conversion2
  50              	@ -findirect-inlining -finline -finline-atomics -finline-functions
  51              	@ -finline-functions-called-once -finline-small-functions -fipa-bit-cp
  52              	@ -fipa-cp -fipa-cp-clone -fipa-icf -fipa-icf-functions -fipa-icf-variables
  53              	@ -fipa-profile -fipa-pure-const -fipa-ra -fipa-reference
  54              	@ -fipa-reference-addressable -fipa-sra -fipa-stack-alignment -fipa-vrp
  55              	@ -fira-hoist-pressure -fira-share-save-slots -fira-share-spill-slots
  56              	@ -fisolate-erroneous-paths-dereference -fivopts -fkeep-static-consts
  57              	@ -fleading-underscore -flifetime-dse -floop-interchange
ARM GAS  C:\Users\admin\AppData\Local\Temp\cchM77g0.s 			page 2


  58              	@ -floop-unroll-and-jam -flra-remat -fmerge-constants -fmerge-debug-strings
  59              	@ -fmove-loop-invariants -fomit-frame-pointer -foptimize-sibling-calls
  60              	@ -foptimize-strlen -fpartial-inlining -fpeel-loops -fpeephole -fpeephole2
  61              	@ -fplt -fpredictive-commoning -fprefetch-loop-arrays -freciprocal-math
  62              	@ -freg-struct-return -freorder-blocks -freorder-functions
  63              	@ -frerun-cse-after-loop -fsched-critical-path-heuristic
  64              	@ -fsched-dep-count-heuristic -fsched-group-heuristic -fsched-interblock
  65              	@ -fsched-last-insn-heuristic -fsched-pressure -fsched-rank-heuristic
  66              	@ -fsched-spec -fsched-spec-insn-heuristic -fsched-stalled-insns-dep
  67              	@ -fschedule-insns -fschedule-insns2 -fsection-anchors
  68              	@ -fsemantic-interposition -fshow-column -fshrink-wrap
  69              	@ -fshrink-wrap-separate -fsplit-ivs-in-unroller -fsplit-loops
  70              	@ -fsplit-paths -fsplit-wide-types -fssa-backprop -fssa-phiopt -fstdarg-opt
  71              	@ -fstore-merging -fstrict-aliasing -fstrict-volatile-bitfields
  72              	@ -fsync-libcalls -fthread-jumps -ftoplevel-reorder -ftree-bit-ccp
  73              	@ -ftree-builtin-call-dce -ftree-ccp -ftree-ch -ftree-coalesce-vars
  74              	@ -ftree-copy-prop -ftree-cselim -ftree-dce -ftree-dominator-opts
  75              	@ -ftree-dse -ftree-forwprop -ftree-fre -ftree-loop-distribute-patterns
  76              	@ -ftree-loop-distribution -ftree-loop-if-convert -ftree-loop-im
  77              	@ -ftree-loop-ivcanon -ftree-loop-optimize -ftree-loop-vectorize
  78              	@ -ftree-parallelize-loops= -ftree-partial-pre -ftree-phiprop -ftree-pre
  79              	@ -ftree-pta -ftree-reassoc -ftree-scev-cprop -ftree-sink
  80              	@ -ftree-slp-vectorize -ftree-slsr -ftree-sra -ftree-switch-conversion
  81              	@ -ftree-tail-merge -ftree-ter -ftree-vrp -funit-at-a-time
  82              	@ -funsafe-math-optimizations -funswitch-loops -fvar-tracking
  83              	@ -fvar-tracking-assignments -fverbose-asm -fversion-loops-for-strides
  84              	@ -fzero-initialized-in-bss -masm-syntax-unified -mbe32 -mlittle-endian
  85              	@ -mpic-data-is-text-relative -msched-prolog -mthumb -munaligned-access
  86              	@ -mvectorize-with-neon-quad
  87              	
  88              		.text
  89              	.Ltext0:
  90              		.cfi_sections	.debug_frame
  91              		.section	.text.usbd_audio_DataOut,"ax",%progbits
  92              		.align	1
  93              		.p2align 2,,3
  94              		.syntax unified
  95              		.thumb
  96              		.thumb_func
  97              		.type	usbd_audio_DataOut, %function
  98              	usbd_audio_DataOut:
  99              	.LVL0:
 100              	.LFB118:
 101              		.file 1 "../Libraries/STM32_USB_Device_Library/Class/audio/src/usbd_audio_core.c"
   1:../Libraries/STM32_USB_Device_Library/Class/audio/src/usbd_audio_core.c **** #include "usbd_audio_core.h"
   2:../Libraries/STM32_USB_Device_Library/Class/audio/src/usbd_audio_core.c **** #include "usbd_audio_out_if.h"
   3:../Libraries/STM32_USB_Device_Library/Class/audio/src/usbd_audio_core.c **** #include "waverecorder.h"
   4:../Libraries/STM32_USB_Device_Library/Class/audio/src/usbd_audio_core.c **** 
   5:../Libraries/STM32_USB_Device_Library/Class/audio/src/usbd_audio_core.c **** 
   6:../Libraries/STM32_USB_Device_Library/Class/audio/src/usbd_audio_core.c **** 
   7:../Libraries/STM32_USB_Device_Library/Class/audio/src/usbd_audio_core.c **** /*********************************************
   8:../Libraries/STM32_USB_Device_Library/Class/audio/src/usbd_audio_core.c ****    AUDIO Device library callbacks
   9:../Libraries/STM32_USB_Device_Library/Class/audio/src/usbd_audio_core.c ****  *********************************************/
  10:../Libraries/STM32_USB_Device_Library/Class/audio/src/usbd_audio_core.c **** static uint8_t  usbd_audio_Init       (void  *pdev, uint8_t cfgidx);
  11:../Libraries/STM32_USB_Device_Library/Class/audio/src/usbd_audio_core.c **** static uint8_t  usbd_audio_DeInit     (void  *pdev, uint8_t cfgidx);
  12:../Libraries/STM32_USB_Device_Library/Class/audio/src/usbd_audio_core.c **** static uint8_t  usbd_audio_Setup      (void  *pdev, USB_SETUP_REQ *req);
  13:../Libraries/STM32_USB_Device_Library/Class/audio/src/usbd_audio_core.c **** static uint8_t  usbd_audio_EP0_RxReady(void *pdev);
ARM GAS  C:\Users\admin\AppData\Local\Temp\cchM77g0.s 			page 3


  14:../Libraries/STM32_USB_Device_Library/Class/audio/src/usbd_audio_core.c **** static uint8_t  usbd_audio_DataIn     (void *pdev, uint8_t epnum);
  15:../Libraries/STM32_USB_Device_Library/Class/audio/src/usbd_audio_core.c **** static uint8_t  usbd_audio_DataOut    (void *pdev, uint8_t epnum);
  16:../Libraries/STM32_USB_Device_Library/Class/audio/src/usbd_audio_core.c **** static uint8_t  usbd_audio_SOF        (void *pdev);
  17:../Libraries/STM32_USB_Device_Library/Class/audio/src/usbd_audio_core.c **** //static uint8_t  usbd_audio_OUT_Incplt (void  *pdev);
  18:../Libraries/STM32_USB_Device_Library/Class/audio/src/usbd_audio_core.c **** //static uint8_t  usbd_audio_IN_Incplt (void  *pdev);
  19:../Libraries/STM32_USB_Device_Library/Class/audio/src/usbd_audio_core.c **** 
  20:../Libraries/STM32_USB_Device_Library/Class/audio/src/usbd_audio_core.c **** /*********************************************
  21:../Libraries/STM32_USB_Device_Library/Class/audio/src/usbd_audio_core.c ****    AUDIO Requests management functions
  22:../Libraries/STM32_USB_Device_Library/Class/audio/src/usbd_audio_core.c ****  *********************************************/
  23:../Libraries/STM32_USB_Device_Library/Class/audio/src/usbd_audio_core.c **** static void AUDIO_Req_GetCurrent(void *pdev, USB_SETUP_REQ *req);
  24:../Libraries/STM32_USB_Device_Library/Class/audio/src/usbd_audio_core.c **** static void AUDIO_Req_SetCurrent(void *pdev, USB_SETUP_REQ *req);
  25:../Libraries/STM32_USB_Device_Library/Class/audio/src/usbd_audio_core.c **** static uint8_t  *USBD_audio_GetCfgDesc (uint8_t speed, uint16_t *length);
  26:../Libraries/STM32_USB_Device_Library/Class/audio/src/usbd_audio_core.c **** /**
  27:../Libraries/STM32_USB_Device_Library/Class/audio/src/usbd_audio_core.c ****   * @}
  28:../Libraries/STM32_USB_Device_Library/Class/audio/src/usbd_audio_core.c ****   */ 
  29:../Libraries/STM32_USB_Device_Library/Class/audio/src/usbd_audio_core.c **** 
  30:../Libraries/STM32_USB_Device_Library/Class/audio/src/usbd_audio_core.c **** /** @defgroup usbd_audio_Private_Variables
  31:../Libraries/STM32_USB_Device_Library/Class/audio/src/usbd_audio_core.c ****   * @{
  32:../Libraries/STM32_USB_Device_Library/Class/audio/src/usbd_audio_core.c ****   */ 
  33:../Libraries/STM32_USB_Device_Library/Class/audio/src/usbd_audio_core.c **** 
  34:../Libraries/STM32_USB_Device_Library/Class/audio/src/usbd_audio_core.c **** 
  35:../Libraries/STM32_USB_Device_Library/Class/audio/src/usbd_audio_core.c **** extern volatile uint16_t Mic_To_USB_Buffer[40];
  36:../Libraries/STM32_USB_Device_Library/Class/audio/src/usbd_audio_core.c **** 
  37:../Libraries/STM32_USB_Device_Library/Class/audio/src/usbd_audio_core.c **** /* Main Buffer for Audio Control Rrequests transfers and its relative variables */
  38:../Libraries/STM32_USB_Device_Library/Class/audio/src/usbd_audio_core.c **** uint8_t  AudioCtl[64];
  39:../Libraries/STM32_USB_Device_Library/Class/audio/src/usbd_audio_core.c **** uint8_t  AudioCtlCmd = 0;
  40:../Libraries/STM32_USB_Device_Library/Class/audio/src/usbd_audio_core.c **** uint32_t AudioCtlLen = 0;
  41:../Libraries/STM32_USB_Device_Library/Class/audio/src/usbd_audio_core.c **** uint8_t  AudioCtlUnit = 0;
  42:../Libraries/STM32_USB_Device_Library/Class/audio/src/usbd_audio_core.c **** 
  43:../Libraries/STM32_USB_Device_Library/Class/audio/src/usbd_audio_core.c **** static uint32_t PlayFlag = 0;
  44:../Libraries/STM32_USB_Device_Library/Class/audio/src/usbd_audio_core.c **** 
  45:../Libraries/STM32_USB_Device_Library/Class/audio/src/usbd_audio_core.c **** static __IO uint32_t  usbd_audio_AltSet = 0;
  46:../Libraries/STM32_USB_Device_Library/Class/audio/src/usbd_audio_core.c **** static uint8_t usbd_audio_CfgDesc[AUDIO_CONFIG_DESC_SIZE];
  47:../Libraries/STM32_USB_Device_Library/Class/audio/src/usbd_audio_core.c **** extern uint8_t buffer_ready;
  48:../Libraries/STM32_USB_Device_Library/Class/audio/src/usbd_audio_core.c **** extern int16_t RecBuf0[MIC_FILTER_RESULT_LENGTH]; //сюда попадают отфильтрованные PCM данные от мик
  49:../Libraries/STM32_USB_Device_Library/Class/audio/src/usbd_audio_core.c **** extern int16_t RecBuf1[MIC_FILTER_RESULT_LENGTH]; //сюда попадают отфильтрованные PCM данные от мик
  50:../Libraries/STM32_USB_Device_Library/Class/audio/src/usbd_audio_core.c **** 
  51:../Libraries/STM32_USB_Device_Library/Class/audio/src/usbd_audio_core.c **** /* AUDIO interface class callbacks structure */
  52:../Libraries/STM32_USB_Device_Library/Class/audio/src/usbd_audio_core.c **** USBD_Class_cb_TypeDef  AUDIO_cb = 
  53:../Libraries/STM32_USB_Device_Library/Class/audio/src/usbd_audio_core.c **** {
  54:../Libraries/STM32_USB_Device_Library/Class/audio/src/usbd_audio_core.c ****   usbd_audio_Init,
  55:../Libraries/STM32_USB_Device_Library/Class/audio/src/usbd_audio_core.c ****   usbd_audio_DeInit,
  56:../Libraries/STM32_USB_Device_Library/Class/audio/src/usbd_audio_core.c ****   usbd_audio_Setup,
  57:../Libraries/STM32_USB_Device_Library/Class/audio/src/usbd_audio_core.c ****   NULL, /* EP0_TxSent */
  58:../Libraries/STM32_USB_Device_Library/Class/audio/src/usbd_audio_core.c ****   usbd_audio_EP0_RxReady,
  59:../Libraries/STM32_USB_Device_Library/Class/audio/src/usbd_audio_core.c ****   usbd_audio_DataIn,
  60:../Libraries/STM32_USB_Device_Library/Class/audio/src/usbd_audio_core.c ****   usbd_audio_DataOut,
  61:../Libraries/STM32_USB_Device_Library/Class/audio/src/usbd_audio_core.c ****   usbd_audio_SOF,
  62:../Libraries/STM32_USB_Device_Library/Class/audio/src/usbd_audio_core.c ****   NULL,
  63:../Libraries/STM32_USB_Device_Library/Class/audio/src/usbd_audio_core.c ****   NULL ,
  64:../Libraries/STM32_USB_Device_Library/Class/audio/src/usbd_audio_core.c ****   USBD_audio_GetCfgDesc,
  65:../Libraries/STM32_USB_Device_Library/Class/audio/src/usbd_audio_core.c **** #ifdef USB_OTG_HS_CORE  
  66:../Libraries/STM32_USB_Device_Library/Class/audio/src/usbd_audio_core.c ****   USBD_audio_GetCfgDesc, /* use same config as per FS */
  67:../Libraries/STM32_USB_Device_Library/Class/audio/src/usbd_audio_core.c **** #endif    
  68:../Libraries/STM32_USB_Device_Library/Class/audio/src/usbd_audio_core.c **** };
  69:../Libraries/STM32_USB_Device_Library/Class/audio/src/usbd_audio_core.c **** 
  70:../Libraries/STM32_USB_Device_Library/Class/audio/src/usbd_audio_core.c **** /* USB AUDIO device Configuration Descriptor */
ARM GAS  C:\Users\admin\AppData\Local\Temp\cchM77g0.s 			page 4


  71:../Libraries/STM32_USB_Device_Library/Class/audio/src/usbd_audio_core.c **** static uint8_t usbd_audio_CfgDesc[AUDIO_CONFIG_DESC_SIZE] =
  72:../Libraries/STM32_USB_Device_Library/Class/audio/src/usbd_audio_core.c **** {
  73:../Libraries/STM32_USB_Device_Library/Class/audio/src/usbd_audio_core.c ****     /* USB Microphone Configuration Descriptor */
  74:../Libraries/STM32_USB_Device_Library/Class/audio/src/usbd_audio_core.c ****     0x09,//sizeof(USB_CFG_DSC),    // Size of this descriptor in bytes
  75:../Libraries/STM32_USB_Device_Library/Class/audio/src/usbd_audio_core.c ****     USB_CONFIGURATION_DESCRIPTOR_TYPE,                // CONFIGURATION descriptor type (0x02)
  76:../Libraries/STM32_USB_Device_Library/Class/audio/src/usbd_audio_core.c ****     LOBYTE(AUDIO_CONFIG_DESC_SIZE),       /* wTotalLength  109 bytes*/
  77:../Libraries/STM32_USB_Device_Library/Class/audio/src/usbd_audio_core.c ****     HIBYTE(AUDIO_CONFIG_DESC_SIZE),
  78:../Libraries/STM32_USB_Device_Library/Class/audio/src/usbd_audio_core.c ****     2,                      // Number of interfaces in this cfg
  79:../Libraries/STM32_USB_Device_Library/Class/audio/src/usbd_audio_core.c ****     1,                      // Index value of this configuration
  80:../Libraries/STM32_USB_Device_Library/Class/audio/src/usbd_audio_core.c ****     0,                      // Configuration string index
  81:../Libraries/STM32_USB_Device_Library/Class/audio/src/usbd_audio_core.c ****     0x80,       // Attributes, see usb_device.h
  82:../Libraries/STM32_USB_Device_Library/Class/audio/src/usbd_audio_core.c ****     50,                     // Max power consumption (2X mA)
  83:../Libraries/STM32_USB_Device_Library/Class/audio/src/usbd_audio_core.c **** 
  84:../Libraries/STM32_USB_Device_Library/Class/audio/src/usbd_audio_core.c ****     /* USB Microphone Standard AC Interface Descriptor  */
  85:../Libraries/STM32_USB_Device_Library/Class/audio/src/usbd_audio_core.c ****     0x09,//sizeof(USB_INTF_DSC),   // Size of this descriptor in bytes
  86:../Libraries/STM32_USB_Device_Library/Class/audio/src/usbd_audio_core.c ****     USB_INTERFACE_DESCRIPTOR_TYPE, // INTERFACE descriptor type
  87:../Libraries/STM32_USB_Device_Library/Class/audio/src/usbd_audio_core.c ****     0x00,    // Interface Number
  88:../Libraries/STM32_USB_Device_Library/Class/audio/src/usbd_audio_core.c ****     0x00,                          // Alternate Setting Number
  89:../Libraries/STM32_USB_Device_Library/Class/audio/src/usbd_audio_core.c ****     0x00,                          // Number of endpoints in this intf
  90:../Libraries/STM32_USB_Device_Library/Class/audio/src/usbd_audio_core.c ****     USB_DEVICE_CLASS_AUDIO,        // Class code
  91:../Libraries/STM32_USB_Device_Library/Class/audio/src/usbd_audio_core.c ****     AUDIO_SUBCLASS_AUDIOCONTROL,   // Subclass code
  92:../Libraries/STM32_USB_Device_Library/Class/audio/src/usbd_audio_core.c ****     0x00,                          // Protocol code
  93:../Libraries/STM32_USB_Device_Library/Class/audio/src/usbd_audio_core.c ****     0x00,                          // Interface string index
  94:../Libraries/STM32_USB_Device_Library/Class/audio/src/usbd_audio_core.c **** 
  95:../Libraries/STM32_USB_Device_Library/Class/audio/src/usbd_audio_core.c **** 
  96:../Libraries/STM32_USB_Device_Library/Class/audio/src/usbd_audio_core.c ****     /* USB Microphone Class-specific AC Interface Descriptor  (CODE == 9)*/
  97:../Libraries/STM32_USB_Device_Library/Class/audio/src/usbd_audio_core.c ****     0x09,                         // Size of this descriptor, in bytes.
  98:../Libraries/STM32_USB_Device_Library/Class/audio/src/usbd_audio_core.c ****     AUDIO_INTERFACE_DESCRIPTOR_TYPE, // CS_INTERFACE Descriptor Type 0x24
  99:../Libraries/STM32_USB_Device_Library/Class/audio/src/usbd_audio_core.c ****     AUDIO_CONTROL_HEADER,         // HEADER descriptor subtype 0x01
 100:../Libraries/STM32_USB_Device_Library/Class/audio/src/usbd_audio_core.c ****     0x00,0x01,                    // Audio Device compliant to the USB Audio specification version 
 101:../Libraries/STM32_USB_Device_Library/Class/audio/src/usbd_audio_core.c ****     0x1E,0x00,                    // Total number of bytes returned for the class-specific AudioCon
 102:../Libraries/STM32_USB_Device_Library/Class/audio/src/usbd_audio_core.c ****                                   // Includes the combined length of this descriptor header and all
 103:../Libraries/STM32_USB_Device_Library/Class/audio/src/usbd_audio_core.c ****     0x01,                         // The number of AudioStreaming interfaces in the Audio Interface
 104:../Libraries/STM32_USB_Device_Library/Class/audio/src/usbd_audio_core.c ****     0x01,                         // AudioStreaming interface 1 belongs to this AudioControl interf
 105:../Libraries/STM32_USB_Device_Library/Class/audio/src/usbd_audio_core.c **** 
 106:../Libraries/STM32_USB_Device_Library/Class/audio/src/usbd_audio_core.c **** 
 107:../Libraries/STM32_USB_Device_Library/Class/audio/src/usbd_audio_core.c ****     /*USB Microphone Input Terminal Descriptor */
 108:../Libraries/STM32_USB_Device_Library/Class/audio/src/usbd_audio_core.c ****     0x0C,                         // Size of the descriptor, in bytes
 109:../Libraries/STM32_USB_Device_Library/Class/audio/src/usbd_audio_core.c ****     AUDIO_INTERFACE_DESCRIPTOR_TYPE, // CS_INTERFACE Descriptor Type
 110:../Libraries/STM32_USB_Device_Library/Class/audio/src/usbd_audio_core.c ****     AUDIO_CONTROL_INPUT_TERMINAL,    // INPUT_TERMINAL descriptor subtype
 111:../Libraries/STM32_USB_Device_Library/Class/audio/src/usbd_audio_core.c ****     0x01,                         // ID of this Terminal.
 112:../Libraries/STM32_USB_Device_Library/Class/audio/src/usbd_audio_core.c ****     0x01,0x02,                    // Terminal is Microphone (0x01,0x02)
 113:../Libraries/STM32_USB_Device_Library/Class/audio/src/usbd_audio_core.c ****     0x00,                         // No association
 114:../Libraries/STM32_USB_Device_Library/Class/audio/src/usbd_audio_core.c ****     0x01,                         // One channel
 115:../Libraries/STM32_USB_Device_Library/Class/audio/src/usbd_audio_core.c ****     0x00,0x00,                    // Mono sets no position bits
 116:../Libraries/STM32_USB_Device_Library/Class/audio/src/usbd_audio_core.c ****     0x00,                         // Unused.
 117:../Libraries/STM32_USB_Device_Library/Class/audio/src/usbd_audio_core.c ****     0x00,                         // Unused.
 118:../Libraries/STM32_USB_Device_Library/Class/audio/src/usbd_audio_core.c **** 
 119:../Libraries/STM32_USB_Device_Library/Class/audio/src/usbd_audio_core.c ****     /* USB Microphone Output Terminal Descriptor */
 120:../Libraries/STM32_USB_Device_Library/Class/audio/src/usbd_audio_core.c ****     0x09,                            // Size of the descriptor, in bytes (bLength)
 121:../Libraries/STM32_USB_Device_Library/Class/audio/src/usbd_audio_core.c ****     AUDIO_INTERFACE_DESCRIPTOR_TYPE, // CS_INTERFACE Descriptor Type (bDescriptorType)
 122:../Libraries/STM32_USB_Device_Library/Class/audio/src/usbd_audio_core.c ****     AUDIO_CONTROL_OUTPUT_TERMINAL,   // OUTPUT_TERMINAL descriptor subtype (bDescriptorSubtype)
 123:../Libraries/STM32_USB_Device_Library/Class/audio/src/usbd_audio_core.c ****     0x02,                            // ID of this Terminal. (bTerminalID)
 124:../Libraries/STM32_USB_Device_Library/Class/audio/src/usbd_audio_core.c ****     0x01, 0x01,                      // USB Streaming. (wTerminalType
 125:../Libraries/STM32_USB_Device_Library/Class/audio/src/usbd_audio_core.c ****     0x00,                            // unused         (bAssocTerminal)
 126:../Libraries/STM32_USB_Device_Library/Class/audio/src/usbd_audio_core.c ****     0x01,                            // From Input Terminal.(bSourceID)
 127:../Libraries/STM32_USB_Device_Library/Class/audio/src/usbd_audio_core.c ****     0x00,                            // unused  (iTerminal)
ARM GAS  C:\Users\admin\AppData\Local\Temp\cchM77g0.s 			page 5


 128:../Libraries/STM32_USB_Device_Library/Class/audio/src/usbd_audio_core.c **** 
 129:../Libraries/STM32_USB_Device_Library/Class/audio/src/usbd_audio_core.c ****     /* USB Microphone Standard AS Interface Descriptor (Alt. Set. 0) (CODE == 3)*/ //zero-bandwidth
 130:../Libraries/STM32_USB_Device_Library/Class/audio/src/usbd_audio_core.c ****     0x09,                         // Size of the descriptor, in bytes (bLength)
 131:../Libraries/STM32_USB_Device_Library/Class/audio/src/usbd_audio_core.c ****     USB_INTERFACE_DESCRIPTOR_TYPE,    // INTERFACE descriptor type (bDescriptorType) 0x04
 132:../Libraries/STM32_USB_Device_Library/Class/audio/src/usbd_audio_core.c ****     0x01, // Index of this interface. (bInterfaceNumber) ?????????? (3<) (1<<) (1<M)
 133:../Libraries/STM32_USB_Device_Library/Class/audio/src/usbd_audio_core.c ****     0x00,                         // Index of this alternate setting. (bAlternateSetting)
 134:../Libraries/STM32_USB_Device_Library/Class/audio/src/usbd_audio_core.c ****     0x00,                         // 0 endpoints.   (bNumEndpoints)
 135:../Libraries/STM32_USB_Device_Library/Class/audio/src/usbd_audio_core.c ****     USB_DEVICE_CLASS_AUDIO,       // AUDIO (bInterfaceClass)
 136:../Libraries/STM32_USB_Device_Library/Class/audio/src/usbd_audio_core.c ****     AUDIO_SUBCLASS_AUDIOSTREAMING, // AUDIO_STREAMING (bInterfaceSubclass)
 137:../Libraries/STM32_USB_Device_Library/Class/audio/src/usbd_audio_core.c ****     0x00,                         // Unused. (bInterfaceProtocol)
 138:../Libraries/STM32_USB_Device_Library/Class/audio/src/usbd_audio_core.c ****     0x00,                         // Unused. (iInterface)
 139:../Libraries/STM32_USB_Device_Library/Class/audio/src/usbd_audio_core.c **** 
 140:../Libraries/STM32_USB_Device_Library/Class/audio/src/usbd_audio_core.c ****     /* USB Microphone Standard AS Interface Descriptor (Alt. Set. 1) (CODE == 4)*/
 141:../Libraries/STM32_USB_Device_Library/Class/audio/src/usbd_audio_core.c ****     0x09,                         // Size of the descriptor, in bytes (bLength)
 142:../Libraries/STM32_USB_Device_Library/Class/audio/src/usbd_audio_core.c ****     USB_INTERFACE_DESCRIPTOR_TYPE,     // INTERFACE descriptor type (bDescriptorType)
 143:../Libraries/STM32_USB_Device_Library/Class/audio/src/usbd_audio_core.c ****     0x01, // Index of this interface. (bInterfaceNumber)
 144:../Libraries/STM32_USB_Device_Library/Class/audio/src/usbd_audio_core.c ****     0x01,                         // Index of this alternate setting. (bAlternateSetting)
 145:../Libraries/STM32_USB_Device_Library/Class/audio/src/usbd_audio_core.c ****     0x01,                         // 1 endpoint (bNumEndpoints)
 146:../Libraries/STM32_USB_Device_Library/Class/audio/src/usbd_audio_core.c ****     USB_DEVICE_CLASS_AUDIO,       // AUDIO (bInterfaceClass)
 147:../Libraries/STM32_USB_Device_Library/Class/audio/src/usbd_audio_core.c ****     AUDIO_SUBCLASS_AUDIOSTREAMING,   // AUDIO_STREAMING (bInterfaceSubclass)
 148:../Libraries/STM32_USB_Device_Library/Class/audio/src/usbd_audio_core.c ****     0x00,                         // Unused. (bInterfaceProtocol)
 149:../Libraries/STM32_USB_Device_Library/Class/audio/src/usbd_audio_core.c ****     0x00,                         // Unused. (iInterface)
 150:../Libraries/STM32_USB_Device_Library/Class/audio/src/usbd_audio_core.c **** 
 151:../Libraries/STM32_USB_Device_Library/Class/audio/src/usbd_audio_core.c ****     /*  USB Microphone Class-specific AS General Interface Descriptor (CODE == 5)*/
 152:../Libraries/STM32_USB_Device_Library/Class/audio/src/usbd_audio_core.c ****     0x07,                         // Size of the descriptor, in bytes (bLength)
 153:../Libraries/STM32_USB_Device_Library/Class/audio/src/usbd_audio_core.c ****     AUDIO_INTERFACE_DESCRIPTOR_TYPE, // CS_INTERFACE Descriptor Type (bDescriptorType) 0x24
 154:../Libraries/STM32_USB_Device_Library/Class/audio/src/usbd_audio_core.c ****     AUDIO_STREAMING_GENERAL,         // GENERAL subtype (bDescriptorSubtype) 0x01
 155:../Libraries/STM32_USB_Device_Library/Class/audio/src/usbd_audio_core.c ****     0x02,             // Unit ID of the Output Terminal.(bTerminalLink)
 156:../Libraries/STM32_USB_Device_Library/Class/audio/src/usbd_audio_core.c ****     0x01,                         // Interface delay. (bDelay)
 157:../Libraries/STM32_USB_Device_Library/Class/audio/src/usbd_audio_core.c ****     0x01,0x00,                    // PCM Format (wFormatTag)
 158:../Libraries/STM32_USB_Device_Library/Class/audio/src/usbd_audio_core.c **** 
 159:../Libraries/STM32_USB_Device_Library/Class/audio/src/usbd_audio_core.c ****     /*  USB Microphone Type I Format Type Descriptor (CODE == 6)*/
 160:../Libraries/STM32_USB_Device_Library/Class/audio/src/usbd_audio_core.c ****     0x0B,                        // Size of the descriptor, in bytes (bLength)
 161:../Libraries/STM32_USB_Device_Library/Class/audio/src/usbd_audio_core.c ****     AUDIO_INTERFACE_DESCRIPTOR_TYPE,// CS_INTERFACE Descriptor Type (bDescriptorType) 0x24
 162:../Libraries/STM32_USB_Device_Library/Class/audio/src/usbd_audio_core.c ****     AUDIO_STREAMING_FORMAT_TYPE,   // FORMAT_TYPE subtype. (bDescriptorSubtype) 0x02
 163:../Libraries/STM32_USB_Device_Library/Class/audio/src/usbd_audio_core.c ****     0x01,                        // FORMAT_TYPE_I. (bFormatType)
 164:../Libraries/STM32_USB_Device_Library/Class/audio/src/usbd_audio_core.c ****     0x01,                        // One channel.(bNrChannels)
 165:../Libraries/STM32_USB_Device_Library/Class/audio/src/usbd_audio_core.c ****     0x02,                        // Two bytes per audio subframe.(bSubFrameSize)
 166:../Libraries/STM32_USB_Device_Library/Class/audio/src/usbd_audio_core.c ****     0x10,                        // 16 bits per sample.(bBitResolution)
 167:../Libraries/STM32_USB_Device_Library/Class/audio/src/usbd_audio_core.c ****     0x01,                        // One frequency supported. (bSamFreqType)
 168:../Libraries/STM32_USB_Device_Library/Class/audio/src/usbd_audio_core.c ****     (USBD_IN_AUDIO_FREQ&0xFF),((USBD_IN_AUDIO_FREQ>>8)&0xFF),0x00,  // 16000Hz. (tSamFreq) (NOT COM
 169:../Libraries/STM32_USB_Device_Library/Class/audio/src/usbd_audio_core.c **** 
 170:../Libraries/STM32_USB_Device_Library/Class/audio/src/usbd_audio_core.c ****     /*  USB Microphone Standard Endpoint Descriptor (CODE == 8)*/ //Standard AS Isochronous Audio D
 171:../Libraries/STM32_USB_Device_Library/Class/audio/src/usbd_audio_core.c ****     0x09,                       // Size of the descriptor, in bytes (bLength)
 172:../Libraries/STM32_USB_Device_Library/Class/audio/src/usbd_audio_core.c ****     0x05,                       // ENDPOINT descriptor (bDescriptorType)
 173:../Libraries/STM32_USB_Device_Library/Class/audio/src/usbd_audio_core.c ****     AUDIO_IN_EP,                    // IN Endpoint 1. (bEndpointAddress)
 174:../Libraries/STM32_USB_Device_Library/Class/audio/src/usbd_audio_core.c ****     USB_ENDPOINT_TYPE_ISOCHRONOUS, // Isochronous, not shared. (bmAttributes)//USB_ENDPOINT_TYPE_as
 175:../Libraries/STM32_USB_Device_Library/Class/audio/src/usbd_audio_core.c ****     (AUDIO_IN_PACKET&0xFF),((AUDIO_IN_PACKET>>8)&0xFF),                  //bytes per packet (wMaxPa
 176:../Libraries/STM32_USB_Device_Library/Class/audio/src/usbd_audio_core.c ****     0x01,                       // One packet per frame.(bInterval)
 177:../Libraries/STM32_USB_Device_Library/Class/audio/src/usbd_audio_core.c ****     0x00,                       // Unused. (bRefresh)
 178:../Libraries/STM32_USB_Device_Library/Class/audio/src/usbd_audio_core.c ****     0x00,                       // Unused. (bSynchAddress)
 179:../Libraries/STM32_USB_Device_Library/Class/audio/src/usbd_audio_core.c **** 
 180:../Libraries/STM32_USB_Device_Library/Class/audio/src/usbd_audio_core.c ****     /* USB Microphone Class-specific Isoc. Audio Data Endpoint Descriptor (CODE == 7) OK - подтверж
 181:../Libraries/STM32_USB_Device_Library/Class/audio/src/usbd_audio_core.c ****     0x07,                       // Size of the descriptor, in bytes (bLength)
 182:../Libraries/STM32_USB_Device_Library/Class/audio/src/usbd_audio_core.c ****     AUDIO_ENDPOINT_DESCRIPTOR_TYPE,    // CS_ENDPOINT Descriptor Type (bDescriptorType) 0x25
 183:../Libraries/STM32_USB_Device_Library/Class/audio/src/usbd_audio_core.c ****     AUDIO_ENDPOINT_GENERAL,            // GENERAL subtype. (bDescriptorSubtype) 0x01
 184:../Libraries/STM32_USB_Device_Library/Class/audio/src/usbd_audio_core.c ****     0x00,                              // No sampling frequency control, no pitch control, no packe
ARM GAS  C:\Users\admin\AppData\Local\Temp\cchM77g0.s 			page 6


 185:../Libraries/STM32_USB_Device_Library/Class/audio/src/usbd_audio_core.c ****     0x00,                              // Unused. (bLockDelayUnits)
 186:../Libraries/STM32_USB_Device_Library/Class/audio/src/usbd_audio_core.c ****     0x00,0x00,                         // Unused. (wLockDelay)
 187:../Libraries/STM32_USB_Device_Library/Class/audio/src/usbd_audio_core.c **** };
 188:../Libraries/STM32_USB_Device_Library/Class/audio/src/usbd_audio_core.c **** 
 189:../Libraries/STM32_USB_Device_Library/Class/audio/src/usbd_audio_core.c **** 
 190:../Libraries/STM32_USB_Device_Library/Class/audio/src/usbd_audio_core.c **** /**
 191:../Libraries/STM32_USB_Device_Library/Class/audio/src/usbd_audio_core.c **** * @brief  usbd_audio_Init
 192:../Libraries/STM32_USB_Device_Library/Class/audio/src/usbd_audio_core.c **** *         Initilaizes the AUDIO interface.
 193:../Libraries/STM32_USB_Device_Library/Class/audio/src/usbd_audio_core.c **** * @param  pdev: device instance
 194:../Libraries/STM32_USB_Device_Library/Class/audio/src/usbd_audio_core.c **** * @param  cfgidx: Configuration index
 195:../Libraries/STM32_USB_Device_Library/Class/audio/src/usbd_audio_core.c **** * @retval status
 196:../Libraries/STM32_USB_Device_Library/Class/audio/src/usbd_audio_core.c **** */
 197:../Libraries/STM32_USB_Device_Library/Class/audio/src/usbd_audio_core.c **** static uint8_t  usbd_audio_Init (void  *pdev, 
 198:../Libraries/STM32_USB_Device_Library/Class/audio/src/usbd_audio_core.c ****                                  uint8_t cfgidx)
 199:../Libraries/STM32_USB_Device_Library/Class/audio/src/usbd_audio_core.c **** {  
 200:../Libraries/STM32_USB_Device_Library/Class/audio/src/usbd_audio_core.c ****     /* Open EP IN */
 201:../Libraries/STM32_USB_Device_Library/Class/audio/src/usbd_audio_core.c ****   DCD_EP_Open(pdev,
 202:../Libraries/STM32_USB_Device_Library/Class/audio/src/usbd_audio_core.c ****               AUDIO_IN_EP,
 203:../Libraries/STM32_USB_Device_Library/Class/audio/src/usbd_audio_core.c ****               (AUDIO_IN_PACKET),
 204:../Libraries/STM32_USB_Device_Library/Class/audio/src/usbd_audio_core.c ****               USB_OTG_EP_ISOC);
 205:../Libraries/STM32_USB_Device_Library/Class/audio/src/usbd_audio_core.c **** 
 206:../Libraries/STM32_USB_Device_Library/Class/audio/src/usbd_audio_core.c ****   /* Initialize the Audio Hardware layer */
 207:../Libraries/STM32_USB_Device_Library/Class/audio/src/usbd_audio_core.c **** 
 208:../Libraries/STM32_USB_Device_Library/Class/audio/src/usbd_audio_core.c ****   return USBD_OK;
 209:../Libraries/STM32_USB_Device_Library/Class/audio/src/usbd_audio_core.c **** }
 210:../Libraries/STM32_USB_Device_Library/Class/audio/src/usbd_audio_core.c **** 
 211:../Libraries/STM32_USB_Device_Library/Class/audio/src/usbd_audio_core.c **** /**
 212:../Libraries/STM32_USB_Device_Library/Class/audio/src/usbd_audio_core.c **** * @brief  usbd_audio_DeInit
 213:../Libraries/STM32_USB_Device_Library/Class/audio/src/usbd_audio_core.c **** *         DeInitializes the AUDIO layer.
 214:../Libraries/STM32_USB_Device_Library/Class/audio/src/usbd_audio_core.c **** * @param  pdev: device instance
 215:../Libraries/STM32_USB_Device_Library/Class/audio/src/usbd_audio_core.c **** * @param  cfgidx: Configuration index
 216:../Libraries/STM32_USB_Device_Library/Class/audio/src/usbd_audio_core.c **** * @retval status
 217:../Libraries/STM32_USB_Device_Library/Class/audio/src/usbd_audio_core.c **** */
 218:../Libraries/STM32_USB_Device_Library/Class/audio/src/usbd_audio_core.c **** static uint8_t  usbd_audio_DeInit (void  *pdev, 
 219:../Libraries/STM32_USB_Device_Library/Class/audio/src/usbd_audio_core.c ****                                    uint8_t cfgidx)
 220:../Libraries/STM32_USB_Device_Library/Class/audio/src/usbd_audio_core.c **** { 
 221:../Libraries/STM32_USB_Device_Library/Class/audio/src/usbd_audio_core.c ****   DCD_EP_Close (pdev , AUDIO_IN_EP);
 222:../Libraries/STM32_USB_Device_Library/Class/audio/src/usbd_audio_core.c ****   
 223:../Libraries/STM32_USB_Device_Library/Class/audio/src/usbd_audio_core.c ****   /* DeInitialize the Audio output Hardware layer */
 224:../Libraries/STM32_USB_Device_Library/Class/audio/src/usbd_audio_core.c **** 
 225:../Libraries/STM32_USB_Device_Library/Class/audio/src/usbd_audio_core.c ****   return USBD_OK;
 226:../Libraries/STM32_USB_Device_Library/Class/audio/src/usbd_audio_core.c **** }
 227:../Libraries/STM32_USB_Device_Library/Class/audio/src/usbd_audio_core.c **** 
 228:../Libraries/STM32_USB_Device_Library/Class/audio/src/usbd_audio_core.c **** /**
 229:../Libraries/STM32_USB_Device_Library/Class/audio/src/usbd_audio_core.c ****   * @brief  usbd_audio_Setup
 230:../Libraries/STM32_USB_Device_Library/Class/audio/src/usbd_audio_core.c ****   *         Handles the Audio control request parsing.
 231:../Libraries/STM32_USB_Device_Library/Class/audio/src/usbd_audio_core.c ****   * @param  pdev: instance
 232:../Libraries/STM32_USB_Device_Library/Class/audio/src/usbd_audio_core.c ****   * @param  req: usb requests
 233:../Libraries/STM32_USB_Device_Library/Class/audio/src/usbd_audio_core.c ****   * @retval status
 234:../Libraries/STM32_USB_Device_Library/Class/audio/src/usbd_audio_core.c ****   */
 235:../Libraries/STM32_USB_Device_Library/Class/audio/src/usbd_audio_core.c **** static uint8_t  usbd_audio_Setup (void  *pdev, 
 236:../Libraries/STM32_USB_Device_Library/Class/audio/src/usbd_audio_core.c ****                                   USB_SETUP_REQ *req)
 237:../Libraries/STM32_USB_Device_Library/Class/audio/src/usbd_audio_core.c **** {
 238:../Libraries/STM32_USB_Device_Library/Class/audio/src/usbd_audio_core.c ****   uint16_t len;
 239:../Libraries/STM32_USB_Device_Library/Class/audio/src/usbd_audio_core.c ****   uint8_t  *pbuf;
 240:../Libraries/STM32_USB_Device_Library/Class/audio/src/usbd_audio_core.c ****   
 241:../Libraries/STM32_USB_Device_Library/Class/audio/src/usbd_audio_core.c ****   switch (req->bmRequest & USB_REQ_TYPE_MASK)
ARM GAS  C:\Users\admin\AppData\Local\Temp\cchM77g0.s 			page 7


 242:../Libraries/STM32_USB_Device_Library/Class/audio/src/usbd_audio_core.c ****   {
 243:../Libraries/STM32_USB_Device_Library/Class/audio/src/usbd_audio_core.c ****     /* AUDIO Class Requests -------------------------------*/
 244:../Libraries/STM32_USB_Device_Library/Class/audio/src/usbd_audio_core.c ****   case USB_REQ_TYPE_CLASS :    
 245:../Libraries/STM32_USB_Device_Library/Class/audio/src/usbd_audio_core.c ****     switch (req->bRequest)
 246:../Libraries/STM32_USB_Device_Library/Class/audio/src/usbd_audio_core.c ****     {
 247:../Libraries/STM32_USB_Device_Library/Class/audio/src/usbd_audio_core.c ****     case AUDIO_REQ_GET_CUR: //запрос состояния mute
 248:../Libraries/STM32_USB_Device_Library/Class/audio/src/usbd_audio_core.c ****       AUDIO_Req_GetCurrent(pdev, req);
 249:../Libraries/STM32_USB_Device_Library/Class/audio/src/usbd_audio_core.c ****       break;
 250:../Libraries/STM32_USB_Device_Library/Class/audio/src/usbd_audio_core.c ****       
 251:../Libraries/STM32_USB_Device_Library/Class/audio/src/usbd_audio_core.c ****     case AUDIO_REQ_SET_CUR:
 252:../Libraries/STM32_USB_Device_Library/Class/audio/src/usbd_audio_core.c ****       AUDIO_Req_SetCurrent(pdev, req);   
 253:../Libraries/STM32_USB_Device_Library/Class/audio/src/usbd_audio_core.c ****       break;
 254:../Libraries/STM32_USB_Device_Library/Class/audio/src/usbd_audio_core.c **** 
 255:../Libraries/STM32_USB_Device_Library/Class/audio/src/usbd_audio_core.c ****     default:
 256:../Libraries/STM32_USB_Device_Library/Class/audio/src/usbd_audio_core.c ****       USBD_CtlError (pdev, req);
 257:../Libraries/STM32_USB_Device_Library/Class/audio/src/usbd_audio_core.c ****       return USBD_FAIL;
 258:../Libraries/STM32_USB_Device_Library/Class/audio/src/usbd_audio_core.c ****     }
 259:../Libraries/STM32_USB_Device_Library/Class/audio/src/usbd_audio_core.c ****     break;
 260:../Libraries/STM32_USB_Device_Library/Class/audio/src/usbd_audio_core.c ****     
 261:../Libraries/STM32_USB_Device_Library/Class/audio/src/usbd_audio_core.c ****     /* Standard Requests -------------------------------*/
 262:../Libraries/STM32_USB_Device_Library/Class/audio/src/usbd_audio_core.c ****   case USB_REQ_TYPE_STANDARD:
 263:../Libraries/STM32_USB_Device_Library/Class/audio/src/usbd_audio_core.c ****     switch (req->bRequest)
 264:../Libraries/STM32_USB_Device_Library/Class/audio/src/usbd_audio_core.c ****     {
 265:../Libraries/STM32_USB_Device_Library/Class/audio/src/usbd_audio_core.c ****     case USB_REQ_GET_DESCRIPTOR: 
 266:../Libraries/STM32_USB_Device_Library/Class/audio/src/usbd_audio_core.c ****       if( (req->wValue >> 8) == AUDIO_DESCRIPTOR_TYPE)
 267:../Libraries/STM32_USB_Device_Library/Class/audio/src/usbd_audio_core.c ****       {
 268:../Libraries/STM32_USB_Device_Library/Class/audio/src/usbd_audio_core.c **** #ifdef USB_OTG_HS_INTERNAL_DMA_ENABLED
 269:../Libraries/STM32_USB_Device_Library/Class/audio/src/usbd_audio_core.c ****         pbuf = usbd_audio_Desc;   
 270:../Libraries/STM32_USB_Device_Library/Class/audio/src/usbd_audio_core.c **** #else
 271:../Libraries/STM32_USB_Device_Library/Class/audio/src/usbd_audio_core.c ****         pbuf = usbd_audio_CfgDesc + 18;
 272:../Libraries/STM32_USB_Device_Library/Class/audio/src/usbd_audio_core.c **** #endif 
 273:../Libraries/STM32_USB_Device_Library/Class/audio/src/usbd_audio_core.c ****         len = MIN(USB_AUDIO_DESC_SIZ , req->wLength);
 274:../Libraries/STM32_USB_Device_Library/Class/audio/src/usbd_audio_core.c ****       }
 275:../Libraries/STM32_USB_Device_Library/Class/audio/src/usbd_audio_core.c ****       
 276:../Libraries/STM32_USB_Device_Library/Class/audio/src/usbd_audio_core.c ****       USBD_CtlSendData (pdev, pbuf, len);
 277:../Libraries/STM32_USB_Device_Library/Class/audio/src/usbd_audio_core.c ****       break;
 278:../Libraries/STM32_USB_Device_Library/Class/audio/src/usbd_audio_core.c ****       
 279:../Libraries/STM32_USB_Device_Library/Class/audio/src/usbd_audio_core.c ****     case USB_REQ_GET_INTERFACE :
 280:../Libraries/STM32_USB_Device_Library/Class/audio/src/usbd_audio_core.c ****       USBD_CtlSendData (pdev, (uint8_t *)&usbd_audio_AltSet, 1);
 281:../Libraries/STM32_USB_Device_Library/Class/audio/src/usbd_audio_core.c ****       break;
 282:../Libraries/STM32_USB_Device_Library/Class/audio/src/usbd_audio_core.c ****       
 283:../Libraries/STM32_USB_Device_Library/Class/audio/src/usbd_audio_core.c ****     case USB_REQ_SET_INTERFACE :
 284:../Libraries/STM32_USB_Device_Library/Class/audio/src/usbd_audio_core.c ****       if ((uint8_t)(req->wValue) < AUDIO_TOTAL_IF_NUM)
 285:../Libraries/STM32_USB_Device_Library/Class/audio/src/usbd_audio_core.c ****       {
 286:../Libraries/STM32_USB_Device_Library/Class/audio/src/usbd_audio_core.c ****         usbd_audio_AltSet = (uint8_t)(req->wValue);
 287:../Libraries/STM32_USB_Device_Library/Class/audio/src/usbd_audio_core.c ****         if (usbd_audio_AltSet == 1) //выбор используемого интерфейса
 288:../Libraries/STM32_USB_Device_Library/Class/audio/src/usbd_audio_core.c **** 		{
 289:../Libraries/STM32_USB_Device_Library/Class/audio/src/usbd_audio_core.c **** 		  PlayFlag = 1;
 290:../Libraries/STM32_USB_Device_Library/Class/audio/src/usbd_audio_core.c **** 		  STM_EVAL_LEDOn(LED5);
 291:../Libraries/STM32_USB_Device_Library/Class/audio/src/usbd_audio_core.c **** 		} 
 292:../Libraries/STM32_USB_Device_Library/Class/audio/src/usbd_audio_core.c **** 		else 
 293:../Libraries/STM32_USB_Device_Library/Class/audio/src/usbd_audio_core.c **** 		{ 
 294:../Libraries/STM32_USB_Device_Library/Class/audio/src/usbd_audio_core.c ****         	PlayFlag = 0;
 295:../Libraries/STM32_USB_Device_Library/Class/audio/src/usbd_audio_core.c **** 			STM_EVAL_LEDOff(LED5);
 296:../Libraries/STM32_USB_Device_Library/Class/audio/src/usbd_audio_core.c ****         	DCD_EP_Flush (pdev,AUDIO_IN_EP);
 297:../Libraries/STM32_USB_Device_Library/Class/audio/src/usbd_audio_core.c ****         }
 298:../Libraries/STM32_USB_Device_Library/Class/audio/src/usbd_audio_core.c ****       }
ARM GAS  C:\Users\admin\AppData\Local\Temp\cchM77g0.s 			page 8


 299:../Libraries/STM32_USB_Device_Library/Class/audio/src/usbd_audio_core.c ****       else
 300:../Libraries/STM32_USB_Device_Library/Class/audio/src/usbd_audio_core.c ****       {
 301:../Libraries/STM32_USB_Device_Library/Class/audio/src/usbd_audio_core.c ****         /* Call the error management function (command will be nacked */
 302:../Libraries/STM32_USB_Device_Library/Class/audio/src/usbd_audio_core.c ****         USBD_CtlError (pdev, req);
 303:../Libraries/STM32_USB_Device_Library/Class/audio/src/usbd_audio_core.c ****       }
 304:../Libraries/STM32_USB_Device_Library/Class/audio/src/usbd_audio_core.c ****       break;
 305:../Libraries/STM32_USB_Device_Library/Class/audio/src/usbd_audio_core.c ****     }
 306:../Libraries/STM32_USB_Device_Library/Class/audio/src/usbd_audio_core.c ****   }
 307:../Libraries/STM32_USB_Device_Library/Class/audio/src/usbd_audio_core.c ****   return USBD_OK;
 308:../Libraries/STM32_USB_Device_Library/Class/audio/src/usbd_audio_core.c **** }
 309:../Libraries/STM32_USB_Device_Library/Class/audio/src/usbd_audio_core.c **** 
 310:../Libraries/STM32_USB_Device_Library/Class/audio/src/usbd_audio_core.c **** /**
 311:../Libraries/STM32_USB_Device_Library/Class/audio/src/usbd_audio_core.c ****   * @brief  usbd_audio_EP0_RxReady
 312:../Libraries/STM32_USB_Device_Library/Class/audio/src/usbd_audio_core.c ****   *         Handles audio control requests data.
 313:../Libraries/STM32_USB_Device_Library/Class/audio/src/usbd_audio_core.c ****   * @param  pdev: device device instance
 314:../Libraries/STM32_USB_Device_Library/Class/audio/src/usbd_audio_core.c ****   * @retval status
 315:../Libraries/STM32_USB_Device_Library/Class/audio/src/usbd_audio_core.c ****   */
 316:../Libraries/STM32_USB_Device_Library/Class/audio/src/usbd_audio_core.c **** static uint8_t  usbd_audio_EP0_RxReady (void  *pdev)
 317:../Libraries/STM32_USB_Device_Library/Class/audio/src/usbd_audio_core.c **** { 
 318:../Libraries/STM32_USB_Device_Library/Class/audio/src/usbd_audio_core.c ****   STM_EVAL_LEDToggle(LED5);
 319:../Libraries/STM32_USB_Device_Library/Class/audio/src/usbd_audio_core.c ****   return USBD_OK;
 320:../Libraries/STM32_USB_Device_Library/Class/audio/src/usbd_audio_core.c **** }
 321:../Libraries/STM32_USB_Device_Library/Class/audio/src/usbd_audio_core.c **** 
 322:../Libraries/STM32_USB_Device_Library/Class/audio/src/usbd_audio_core.c **** /**
 323:../Libraries/STM32_USB_Device_Library/Class/audio/src/usbd_audio_core.c ****   * @brief  usbd_audio_DataIn
 324:../Libraries/STM32_USB_Device_Library/Class/audio/src/usbd_audio_core.c ****   *         Handles the audio IN data stage.
 325:../Libraries/STM32_USB_Device_Library/Class/audio/src/usbd_audio_core.c ****   * @param  pdev: instance
 326:../Libraries/STM32_USB_Device_Library/Class/audio/src/usbd_audio_core.c ****   * @param  epnum: endpoint number
 327:../Libraries/STM32_USB_Device_Library/Class/audio/src/usbd_audio_core.c ****   * @retval status
 328:../Libraries/STM32_USB_Device_Library/Class/audio/src/usbd_audio_core.c ****   */
 329:../Libraries/STM32_USB_Device_Library/Class/audio/src/usbd_audio_core.c **** //handle request from HOST
 330:../Libraries/STM32_USB_Device_Library/Class/audio/src/usbd_audio_core.c **** static uint8_t  usbd_audio_DataIn (void *pdev, uint8_t epnum)
 331:../Libraries/STM32_USB_Device_Library/Class/audio/src/usbd_audio_core.c **** {
 332:../Libraries/STM32_USB_Device_Library/Class/audio/src/usbd_audio_core.c **** 
 333:../Libraries/STM32_USB_Device_Library/Class/audio/src/usbd_audio_core.c ****   DCD_EP_Flush(pdev,AUDIO_IN_EP);//very important!!!
 334:../Libraries/STM32_USB_Device_Library/Class/audio/src/usbd_audio_core.c ****   
 335:../Libraries/STM32_USB_Device_Library/Class/audio/src/usbd_audio_core.c ****   if (buffer_ready == 1) {
 336:../Libraries/STM32_USB_Device_Library/Class/audio/src/usbd_audio_core.c ****     DCD_EP_Tx (pdev,AUDIO_IN_EP, (uint8_t*)(RecBuf1), AUDIO_IN_PACKET);//length in words to bytes
 337:../Libraries/STM32_USB_Device_Library/Class/audio/src/usbd_audio_core.c ****   } 
 338:../Libraries/STM32_USB_Device_Library/Class/audio/src/usbd_audio_core.c ****   else {
 339:../Libraries/STM32_USB_Device_Library/Class/audio/src/usbd_audio_core.c ****     DCD_EP_Tx (pdev,AUDIO_IN_EP, (uint8_t*)(RecBuf0), AUDIO_IN_PACKET);//length in words to bytes
 340:../Libraries/STM32_USB_Device_Library/Class/audio/src/usbd_audio_core.c ****   }
 341:../Libraries/STM32_USB_Device_Library/Class/audio/src/usbd_audio_core.c ****   
 342:../Libraries/STM32_USB_Device_Library/Class/audio/src/usbd_audio_core.c ****   STM_EVAL_LEDToggle(LED6);
 343:../Libraries/STM32_USB_Device_Library/Class/audio/src/usbd_audio_core.c ****   return USBD_OK;
 344:../Libraries/STM32_USB_Device_Library/Class/audio/src/usbd_audio_core.c **** }
 345:../Libraries/STM32_USB_Device_Library/Class/audio/src/usbd_audio_core.c **** 
 346:../Libraries/STM32_USB_Device_Library/Class/audio/src/usbd_audio_core.c **** /**
 347:../Libraries/STM32_USB_Device_Library/Class/audio/src/usbd_audio_core.c ****   * @brief  usbd_audio_DataOut
 348:../Libraries/STM32_USB_Device_Library/Class/audio/src/usbd_audio_core.c ****   *         Handles the Audio Out data stage.
 349:../Libraries/STM32_USB_Device_Library/Class/audio/src/usbd_audio_core.c ****   * @param  pdev: instance
 350:../Libraries/STM32_USB_Device_Library/Class/audio/src/usbd_audio_core.c ****   * @param  epnum: endpoint number
 351:../Libraries/STM32_USB_Device_Library/Class/audio/src/usbd_audio_core.c ****   * @retval status
 352:../Libraries/STM32_USB_Device_Library/Class/audio/src/usbd_audio_core.c ****   */
 353:../Libraries/STM32_USB_Device_Library/Class/audio/src/usbd_audio_core.c **** static uint8_t  usbd_audio_DataOut (void *pdev, uint8_t epnum)
 354:../Libraries/STM32_USB_Device_Library/Class/audio/src/usbd_audio_core.c **** {     
 102              		.loc 1 354 1 view -0
ARM GAS  C:\Users\admin\AppData\Local\Temp\cchM77g0.s 			page 9


 103              		.cfi_startproc
 104              		@ args = 0, pretend = 0, frame = 0
 105              		@ frame_needed = 0, uses_anonymous_args = 0
 106              		@ link register save eliminated.
 355:../Libraries/STM32_USB_Device_Library/Class/audio/src/usbd_audio_core.c ****   //for speaker only
 356:../Libraries/STM32_USB_Device_Library/Class/audio/src/usbd_audio_core.c ****   return USBD_OK;
 107              		.loc 1 356 3 view .LVU1
 108              	@ ../Libraries/STM32_USB_Device_Library/Class/audio/src/usbd_audio_core.c:357: }
 357:../Libraries/STM32_USB_Device_Library/Class/audio/src/usbd_audio_core.c **** }
 109              		.loc 1 357 1 is_stmt 0 view .LVU2
 110 0000 0020     		movs	r0, #0	@,
 111              	.LVL1:
 112              		.loc 1 357 1 view .LVU3
 113 0002 7047     		bx	lr	@
 114              		.cfi_endproc
 115              	.LFE118:
 116              		.size	usbd_audio_DataOut, .-usbd_audio_DataOut
 117              		.section	.text.USBD_audio_GetCfgDesc,"ax",%progbits
 118              		.align	1
 119              		.p2align 2,,3
 120              		.syntax unified
 121              		.thumb
 122              		.thumb_func
 123              		.type	USBD_audio_GetCfgDesc, %function
 124              	USBD_audio_GetCfgDesc:
 125              	.LVL2:
 126              	.LFB122:
 358:../Libraries/STM32_USB_Device_Library/Class/audio/src/usbd_audio_core.c **** 
 359:../Libraries/STM32_USB_Device_Library/Class/audio/src/usbd_audio_core.c **** /**
 360:../Libraries/STM32_USB_Device_Library/Class/audio/src/usbd_audio_core.c ****   * @brief  usbd_audio_SOF
 361:../Libraries/STM32_USB_Device_Library/Class/audio/src/usbd_audio_core.c ****   *         Handles the SOF event (data buffer update and synchronization).//start-of-frame
 362:../Libraries/STM32_USB_Device_Library/Class/audio/src/usbd_audio_core.c ****   * @param  pdev: instance
 363:../Libraries/STM32_USB_Device_Library/Class/audio/src/usbd_audio_core.c ****   * @param  epnum: endpoint number
 364:../Libraries/STM32_USB_Device_Library/Class/audio/src/usbd_audio_core.c ****   * @retval status
 365:../Libraries/STM32_USB_Device_Library/Class/audio/src/usbd_audio_core.c ****   */
 366:../Libraries/STM32_USB_Device_Library/Class/audio/src/usbd_audio_core.c **** static uint8_t  usbd_audio_SOF (void *pdev)
 367:../Libraries/STM32_USB_Device_Library/Class/audio/src/usbd_audio_core.c **** {     
 368:../Libraries/STM32_USB_Device_Library/Class/audio/src/usbd_audio_core.c ****   // Check if there are available data in stream buffer.
 369:../Libraries/STM32_USB_Device_Library/Class/audio/src/usbd_audio_core.c ****   if (PlayFlag == 1) {
 370:../Libraries/STM32_USB_Device_Library/Class/audio/src/usbd_audio_core.c ****     
 371:../Libraries/STM32_USB_Device_Library/Class/audio/src/usbd_audio_core.c ****     DCD_EP_Tx (pdev,AUDIO_IN_EP, NULL, AUDIO_IN_PACKET);
 372:../Libraries/STM32_USB_Device_Library/Class/audio/src/usbd_audio_core.c ****     PlayFlag = 2;
 373:../Libraries/STM32_USB_Device_Library/Class/audio/src/usbd_audio_core.c ****   }
 374:../Libraries/STM32_USB_Device_Library/Class/audio/src/usbd_audio_core.c ****   return USBD_OK;
 375:../Libraries/STM32_USB_Device_Library/Class/audio/src/usbd_audio_core.c **** }
 376:../Libraries/STM32_USB_Device_Library/Class/audio/src/usbd_audio_core.c **** 
 377:../Libraries/STM32_USB_Device_Library/Class/audio/src/usbd_audio_core.c **** 
 378:../Libraries/STM32_USB_Device_Library/Class/audio/src/usbd_audio_core.c **** /******************************************************************************
 379:../Libraries/STM32_USB_Device_Library/Class/audio/src/usbd_audio_core.c ****      AUDIO Class requests management
 380:../Libraries/STM32_USB_Device_Library/Class/audio/src/usbd_audio_core.c **** ******************************************************************************/
 381:../Libraries/STM32_USB_Device_Library/Class/audio/src/usbd_audio_core.c **** /**
 382:../Libraries/STM32_USB_Device_Library/Class/audio/src/usbd_audio_core.c ****   * @brief  AUDIO_Req_GetCurrent
 383:../Libraries/STM32_USB_Device_Library/Class/audio/src/usbd_audio_core.c ****   *         Handles the GET_CUR Audio control request.
 384:../Libraries/STM32_USB_Device_Library/Class/audio/src/usbd_audio_core.c ****   * @param  pdev: instance
 385:../Libraries/STM32_USB_Device_Library/Class/audio/src/usbd_audio_core.c ****   * @param  req: setup class request
 386:../Libraries/STM32_USB_Device_Library/Class/audio/src/usbd_audio_core.c ****   * @retval status
 387:../Libraries/STM32_USB_Device_Library/Class/audio/src/usbd_audio_core.c ****   */
ARM GAS  C:\Users\admin\AppData\Local\Temp\cchM77g0.s 			page 10


 388:../Libraries/STM32_USB_Device_Library/Class/audio/src/usbd_audio_core.c **** static void AUDIO_Req_GetCurrent(void *pdev, USB_SETUP_REQ *req)
 389:../Libraries/STM32_USB_Device_Library/Class/audio/src/usbd_audio_core.c **** {  
 390:../Libraries/STM32_USB_Device_Library/Class/audio/src/usbd_audio_core.c ****   /* Send the current mute state */
 391:../Libraries/STM32_USB_Device_Library/Class/audio/src/usbd_audio_core.c ****   USBD_CtlSendData (pdev, 
 392:../Libraries/STM32_USB_Device_Library/Class/audio/src/usbd_audio_core.c ****                     AudioCtl,
 393:../Libraries/STM32_USB_Device_Library/Class/audio/src/usbd_audio_core.c ****                     req->wLength);
 394:../Libraries/STM32_USB_Device_Library/Class/audio/src/usbd_audio_core.c **** }
 395:../Libraries/STM32_USB_Device_Library/Class/audio/src/usbd_audio_core.c **** 
 396:../Libraries/STM32_USB_Device_Library/Class/audio/src/usbd_audio_core.c **** /**
 397:../Libraries/STM32_USB_Device_Library/Class/audio/src/usbd_audio_core.c ****   * @brief  AUDIO_Req_SetCurrent
 398:../Libraries/STM32_USB_Device_Library/Class/audio/src/usbd_audio_core.c ****   *         Handles the SET_CUR Audio control request.
 399:../Libraries/STM32_USB_Device_Library/Class/audio/src/usbd_audio_core.c ****   * @param  pdev: instance
 400:../Libraries/STM32_USB_Device_Library/Class/audio/src/usbd_audio_core.c ****   * @param  req: setup class request
 401:../Libraries/STM32_USB_Device_Library/Class/audio/src/usbd_audio_core.c ****   * @retval status
 402:../Libraries/STM32_USB_Device_Library/Class/audio/src/usbd_audio_core.c ****   */
 403:../Libraries/STM32_USB_Device_Library/Class/audio/src/usbd_audio_core.c **** static void AUDIO_Req_SetCurrent(void *pdev, USB_SETUP_REQ *req)
 404:../Libraries/STM32_USB_Device_Library/Class/audio/src/usbd_audio_core.c **** { 
 405:../Libraries/STM32_USB_Device_Library/Class/audio/src/usbd_audio_core.c ****   if (req->wLength)
 406:../Libraries/STM32_USB_Device_Library/Class/audio/src/usbd_audio_core.c ****   {
 407:../Libraries/STM32_USB_Device_Library/Class/audio/src/usbd_audio_core.c ****     /* Prepare the reception of the buffer over EP0 */
 408:../Libraries/STM32_USB_Device_Library/Class/audio/src/usbd_audio_core.c ****     USBD_CtlPrepareRx (pdev, 
 409:../Libraries/STM32_USB_Device_Library/Class/audio/src/usbd_audio_core.c ****                        AudioCtl,
 410:../Libraries/STM32_USB_Device_Library/Class/audio/src/usbd_audio_core.c ****                        req->wLength);
 411:../Libraries/STM32_USB_Device_Library/Class/audio/src/usbd_audio_core.c ****     
 412:../Libraries/STM32_USB_Device_Library/Class/audio/src/usbd_audio_core.c ****     /* Set the global variables indicating current request and its length 
 413:../Libraries/STM32_USB_Device_Library/Class/audio/src/usbd_audio_core.c ****     to the function usbd_audio_EP0_RxReady() which will process the request */
 414:../Libraries/STM32_USB_Device_Library/Class/audio/src/usbd_audio_core.c ****     AudioCtlCmd = AUDIO_REQ_SET_CUR;     /* Set the request value */
 415:../Libraries/STM32_USB_Device_Library/Class/audio/src/usbd_audio_core.c ****     AudioCtlLen = req->wLength;          /* Set the request data length */
 416:../Libraries/STM32_USB_Device_Library/Class/audio/src/usbd_audio_core.c ****     AudioCtlUnit = HIBYTE(req->wIndex);  /* Set the request target unit */
 417:../Libraries/STM32_USB_Device_Library/Class/audio/src/usbd_audio_core.c ****   }
 418:../Libraries/STM32_USB_Device_Library/Class/audio/src/usbd_audio_core.c **** }
 419:../Libraries/STM32_USB_Device_Library/Class/audio/src/usbd_audio_core.c **** 
 420:../Libraries/STM32_USB_Device_Library/Class/audio/src/usbd_audio_core.c **** /**
 421:../Libraries/STM32_USB_Device_Library/Class/audio/src/usbd_audio_core.c ****   * @brief  USBD_audio_GetCfgDesc 
 422:../Libraries/STM32_USB_Device_Library/Class/audio/src/usbd_audio_core.c ****   *         Returns configuration descriptor.
 423:../Libraries/STM32_USB_Device_Library/Class/audio/src/usbd_audio_core.c ****   * @param  speed : current device speed
 424:../Libraries/STM32_USB_Device_Library/Class/audio/src/usbd_audio_core.c ****   * @param  length : pointer data length
 425:../Libraries/STM32_USB_Device_Library/Class/audio/src/usbd_audio_core.c ****   * @retval pointer to descriptor buffer
 426:../Libraries/STM32_USB_Device_Library/Class/audio/src/usbd_audio_core.c ****   */
 427:../Libraries/STM32_USB_Device_Library/Class/audio/src/usbd_audio_core.c **** static uint8_t  *USBD_audio_GetCfgDesc (uint8_t speed, uint16_t *length)
 428:../Libraries/STM32_USB_Device_Library/Class/audio/src/usbd_audio_core.c **** {
 127              		.loc 1 428 1 is_stmt 1 view -0
 128              		.cfi_startproc
 129              		@ args = 0, pretend = 0, frame = 0
 130              		@ frame_needed = 0, uses_anonymous_args = 0
 131              		@ link register save eliminated.
 429:../Libraries/STM32_USB_Device_Library/Class/audio/src/usbd_audio_core.c ****   *length = sizeof (usbd_audio_CfgDesc);
 132              		.loc 1 429 3 view .LVU5
 133              	@ ../Libraries/STM32_USB_Device_Library/Class/audio/src/usbd_audio_core.c:429:   *length = sizeof (
 134              		.loc 1 429 11 is_stmt 0 view .LVU6
 135 0000 6D23     		movs	r3, #109	@ tmp117,
 136              	@ ../Libraries/STM32_USB_Device_Library/Class/audio/src/usbd_audio_core.c:431: }
 430:../Libraries/STM32_USB_Device_Library/Class/audio/src/usbd_audio_core.c ****   return usbd_audio_CfgDesc;
 431:../Libraries/STM32_USB_Device_Library/Class/audio/src/usbd_audio_core.c **** }
 137              		.loc 1 431 1 view .LVU7
 138 0002 0148     		ldr	r0, .L4	@,
 139              	.LVL3:
ARM GAS  C:\Users\admin\AppData\Local\Temp\cchM77g0.s 			page 11


 140              	@ ../Libraries/STM32_USB_Device_Library/Class/audio/src/usbd_audio_core.c:429:   *length = sizeof (
 429:../Libraries/STM32_USB_Device_Library/Class/audio/src/usbd_audio_core.c ****   *length = sizeof (usbd_audio_CfgDesc);
 141              		.loc 1 429 11 view .LVU8
 142 0004 0B80     		strh	r3, [r1]	@ movhi	@ tmp117, *length_2(D)
 430:../Libraries/STM32_USB_Device_Library/Class/audio/src/usbd_audio_core.c ****   return usbd_audio_CfgDesc;
 143              		.loc 1 430 3 is_stmt 1 view .LVU9
 144              	@ ../Libraries/STM32_USB_Device_Library/Class/audio/src/usbd_audio_core.c:431: }
 145              		.loc 1 431 1 is_stmt 0 view .LVU10
 146 0006 7047     		bx	lr	@
 147              	.L5:
 148              		.align	2
 149              	.L4:
 150 0008 00000000 		.word	.LANCHOR0
 151              		.cfi_endproc
 152              	.LFE122:
 153              		.size	USBD_audio_GetCfgDesc, .-USBD_audio_GetCfgDesc
 154              		.section	.text.usbd_audio_DataIn,"ax",%progbits
 155              		.align	1
 156              		.p2align 2,,3
 157              		.syntax unified
 158              		.thumb
 159              		.thumb_func
 160              		.type	usbd_audio_DataIn, %function
 161              	usbd_audio_DataIn:
 162              	.LVL4:
 163              	.LFB117:
 331:../Libraries/STM32_USB_Device_Library/Class/audio/src/usbd_audio_core.c **** 
 164              		.loc 1 331 1 is_stmt 1 view -0
 165              		.cfi_startproc
 166              		@ args = 0, pretend = 0, frame = 0
 167              		@ frame_needed = 0, uses_anonymous_args = 0
 333:../Libraries/STM32_USB_Device_Library/Class/audio/src/usbd_audio_core.c ****   
 168              		.loc 1 333 3 view .LVU12
 169              	@ ../Libraries/STM32_USB_Device_Library/Class/audio/src/usbd_audio_core.c:331: {
 331:../Libraries/STM32_USB_Device_Library/Class/audio/src/usbd_audio_core.c **** 
 170              		.loc 1 331 1 is_stmt 0 view .LVU13
 171 0000 10B5     		push	{r4, lr}	@
 172              		.cfi_def_cfa_offset 8
 173              		.cfi_offset 4, -8
 174              		.cfi_offset 14, -4
 175              	@ ../Libraries/STM32_USB_Device_Library/Class/audio/src/usbd_audio_core.c:333:   DCD_EP_Flush(pdev,
 333:../Libraries/STM32_USB_Device_Library/Class/audio/src/usbd_audio_core.c ****   
 176              		.loc 1 333 3 view .LVU14
 177 0002 8121     		movs	r1, #129	@,
 178              	.LVL5:
 179              	@ ../Libraries/STM32_USB_Device_Library/Class/audio/src/usbd_audio_core.c:331: {
 331:../Libraries/STM32_USB_Device_Library/Class/audio/src/usbd_audio_core.c **** 
 180              		.loc 1 331 1 view .LVU15
 181 0004 0446     		mov	r4, r0	@ pdev, tmp122
 182              	@ ../Libraries/STM32_USB_Device_Library/Class/audio/src/usbd_audio_core.c:333:   DCD_EP_Flush(pdev,
 333:../Libraries/STM32_USB_Device_Library/Class/audio/src/usbd_audio_core.c ****   
 183              		.loc 1 333 3 view .LVU16
 184 0006 FFF7FEFF 		bl	DCD_EP_Flush		@
 185              	.LVL6:
 335:../Libraries/STM32_USB_Device_Library/Class/audio/src/usbd_audio_core.c ****     DCD_EP_Tx (pdev,AUDIO_IN_EP, (uint8_t*)(RecBuf1), AUDIO_IN_PACKET);//length in words to bytes
 186              		.loc 1 335 3 is_stmt 1 view .LVU17
 187              	@ ../Libraries/STM32_USB_Device_Library/Class/audio/src/usbd_audio_core.c:335:   if (buffer_ready =
ARM GAS  C:\Users\admin\AppData\Local\Temp\cchM77g0.s 			page 12


 335:../Libraries/STM32_USB_Device_Library/Class/audio/src/usbd_audio_core.c ****     DCD_EP_Tx (pdev,AUDIO_IN_EP, (uint8_t*)(RecBuf1), AUDIO_IN_PACKET);//length in words to bytes
 188              		.loc 1 335 20 is_stmt 0 view .LVU18
 189 000a 084B     		ldr	r3, .L10	@ tmp117,
 190              	@ ../Libraries/STM32_USB_Device_Library/Class/audio/src/usbd_audio_core.c:335:   if (buffer_ready =
 335:../Libraries/STM32_USB_Device_Library/Class/audio/src/usbd_audio_core.c ****     DCD_EP_Tx (pdev,AUDIO_IN_EP, (uint8_t*)(RecBuf1), AUDIO_IN_PACKET);//length in words to bytes
 191              		.loc 1 335 6 view .LVU19
 192 000c 1B78     		ldrb	r3, [r3]	@ zero_extendqisi2	@ buffer_ready, buffer_ready
 193 000e 012B     		cmp	r3, #1	@ buffer_ready,
 336:../Libraries/STM32_USB_Device_Library/Class/audio/src/usbd_audio_core.c ****   } 
 194              		.loc 1 336 5 is_stmt 1 view .LVU20
 195 0010 0CBF     		ite	eq
 196 0012 074A     		ldreq	r2, .L10+4	@,
 339:../Libraries/STM32_USB_Device_Library/Class/audio/src/usbd_audio_core.c ****   }
 197              		.loc 1 339 5 view .LVU21
 198 0014 074A     		ldrne	r2, .L10+8	@,
 199 0016 2023     		movs	r3, #32	@,
 200 0018 8121     		movs	r1, #129	@,
 201 001a 2046     		mov	r0, r4	@, pdev
 202 001c FFF7FEFF 		bl	DCD_EP_Tx		@
 203              	.LVL7:
 342:../Libraries/STM32_USB_Device_Library/Class/audio/src/usbd_audio_core.c ****   return USBD_OK;
 204              		.loc 1 342 3 view .LVU22
 205 0020 0320     		movs	r0, #3	@,
 206 0022 FFF7FEFF 		bl	STM_EVAL_LEDToggle		@
 207              	.LVL8:
 343:../Libraries/STM32_USB_Device_Library/Class/audio/src/usbd_audio_core.c **** }
 208              		.loc 1 343 3 view .LVU23
 209              	@ ../Libraries/STM32_USB_Device_Library/Class/audio/src/usbd_audio_core.c:344: }
 344:../Libraries/STM32_USB_Device_Library/Class/audio/src/usbd_audio_core.c **** 
 210              		.loc 1 344 1 is_stmt 0 view .LVU24
 211 0026 0020     		movs	r0, #0	@,
 212 0028 10BD     		pop	{r4, pc}	@
 213              	.LVL9:
 214              	.L11:
 344:../Libraries/STM32_USB_Device_Library/Class/audio/src/usbd_audio_core.c **** 
 215              		.loc 1 344 1 view .LVU25
 216 002a 00BF     		.align	2
 217              	.L10:
 218 002c 00000000 		.word	buffer_ready
 219 0030 00000000 		.word	RecBuf1
 220 0034 00000000 		.word	RecBuf0
 221              		.cfi_endproc
 222              	.LFE117:
 223              		.size	usbd_audio_DataIn, .-usbd_audio_DataIn
 224              		.section	.text.usbd_audio_EP0_RxReady,"ax",%progbits
 225              		.align	1
 226              		.p2align 2,,3
 227              		.syntax unified
 228              		.thumb
 229              		.thumb_func
 230              		.type	usbd_audio_EP0_RxReady, %function
 231              	usbd_audio_EP0_RxReady:
 232              	.LVL10:
 233              	.LFB116:
 317:../Libraries/STM32_USB_Device_Library/Class/audio/src/usbd_audio_core.c ****   STM_EVAL_LEDToggle(LED5);
 234              		.loc 1 317 1 is_stmt 1 view -0
 235              		.cfi_startproc
ARM GAS  C:\Users\admin\AppData\Local\Temp\cchM77g0.s 			page 13


 236              		@ args = 0, pretend = 0, frame = 0
 237              		@ frame_needed = 0, uses_anonymous_args = 0
 318:../Libraries/STM32_USB_Device_Library/Class/audio/src/usbd_audio_core.c ****   return USBD_OK;
 238              		.loc 1 318 3 view .LVU27
 239              	@ ../Libraries/STM32_USB_Device_Library/Class/audio/src/usbd_audio_core.c:317: { 
 317:../Libraries/STM32_USB_Device_Library/Class/audio/src/usbd_audio_core.c ****   STM_EVAL_LEDToggle(LED5);
 240              		.loc 1 317 1 is_stmt 0 view .LVU28
 241 0000 08B5     		push	{r3, lr}	@
 242              		.cfi_def_cfa_offset 8
 243              		.cfi_offset 3, -8
 244              		.cfi_offset 14, -4
 245              	@ ../Libraries/STM32_USB_Device_Library/Class/audio/src/usbd_audio_core.c:318:   STM_EVAL_LEDToggle
 318:../Libraries/STM32_USB_Device_Library/Class/audio/src/usbd_audio_core.c ****   return USBD_OK;
 246              		.loc 1 318 3 view .LVU29
 247 0002 0220     		movs	r0, #2	@,
 248              	.LVL11:
 318:../Libraries/STM32_USB_Device_Library/Class/audio/src/usbd_audio_core.c ****   return USBD_OK;
 249              		.loc 1 318 3 view .LVU30
 250 0004 FFF7FEFF 		bl	STM_EVAL_LEDToggle		@
 251              	.LVL12:
 319:../Libraries/STM32_USB_Device_Library/Class/audio/src/usbd_audio_core.c **** }
 252              		.loc 1 319 3 is_stmt 1 view .LVU31
 253              	@ ../Libraries/STM32_USB_Device_Library/Class/audio/src/usbd_audio_core.c:320: }
 320:../Libraries/STM32_USB_Device_Library/Class/audio/src/usbd_audio_core.c **** 
 254              		.loc 1 320 1 is_stmt 0 view .LVU32
 255 0008 0020     		movs	r0, #0	@,
 256 000a 08BD     		pop	{r3, pc}	@
 257              		.cfi_endproc
 258              	.LFE116:
 259              		.size	usbd_audio_EP0_RxReady, .-usbd_audio_EP0_RxReady
 260              		.section	.text.usbd_audio_Setup,"ax",%progbits
 261              		.align	1
 262              		.p2align 2,,3
 263              		.syntax unified
 264              		.thumb
 265              		.thumb_func
 266              		.type	usbd_audio_Setup, %function
 267              	usbd_audio_Setup:
 268              	.LVL13:
 269              	.LFB115:
 237:../Libraries/STM32_USB_Device_Library/Class/audio/src/usbd_audio_core.c ****   uint16_t len;
 270              		.loc 1 237 1 is_stmt 1 view -0
 271              		.cfi_startproc
 272              		@ args = 0, pretend = 0, frame = 0
 273              		@ frame_needed = 0, uses_anonymous_args = 0
 238:../Libraries/STM32_USB_Device_Library/Class/audio/src/usbd_audio_core.c ****   uint8_t  *pbuf;
 274              		.loc 1 238 3 view .LVU34
 239:../Libraries/STM32_USB_Device_Library/Class/audio/src/usbd_audio_core.c ****   
 275              		.loc 1 239 3 view .LVU35
 241:../Libraries/STM32_USB_Device_Library/Class/audio/src/usbd_audio_core.c ****   {
 276              		.loc 1 241 3 view .LVU36
 277              	@ ../Libraries/STM32_USB_Device_Library/Class/audio/src/usbd_audio_core.c:237: {
 237:../Libraries/STM32_USB_Device_Library/Class/audio/src/usbd_audio_core.c ****   uint16_t len;
 278              		.loc 1 237 1 is_stmt 0 view .LVU37
 279 0000 F8B5     		push	{r3, r4, r5, r6, r7, lr}	@
 280              		.cfi_def_cfa_offset 24
 281              		.cfi_offset 3, -24
ARM GAS  C:\Users\admin\AppData\Local\Temp\cchM77g0.s 			page 14


 282              		.cfi_offset 4, -20
 283              		.cfi_offset 5, -16
 284              		.cfi_offset 6, -12
 285              		.cfi_offset 7, -8
 286              		.cfi_offset 14, -4
 287 0002 0C78     		ldrb	r4, [r1]	@ zero_extendqisi2	@ req_15(D)->bmRequest, req_15(D)->bmRequest
 288              	@ ../Libraries/STM32_USB_Device_Library/Class/audio/src/usbd_audio_core.c:241:   switch (req->bmReq
 241:../Libraries/STM32_USB_Device_Library/Class/audio/src/usbd_audio_core.c ****   {
 289              		.loc 1 241 3 view .LVU38
 290 0004 14F06004 		ands	r4, r4, #96	@ <retval>, req_15(D)->bmRequest,
 291              	@ ../Libraries/STM32_USB_Device_Library/Class/audio/src/usbd_audio_core.c:237: {
 237:../Libraries/STM32_USB_Device_Library/Class/audio/src/usbd_audio_core.c ****   uint16_t len;
 292              		.loc 1 237 1 view .LVU39
 293 0008 0E46     		mov	r6, r1	@ req, tmp169
 294 000a 4FF00007 		mov	r7, #0	@ len,
 295              	@ ../Libraries/STM32_USB_Device_Library/Class/audio/src/usbd_audio_core.c:241:   switch (req->bmReq
 241:../Libraries/STM32_USB_Device_Library/Class/audio/src/usbd_audio_core.c ****   {
 296              		.loc 1 241 3 view .LVU40
 297 000e 0ED0     		beq	.L15		@,
 298 0010 202C     		cmp	r4, #32	@ <retval>,
 299 0012 09D1     		bne	.L24		@,
 245:../Libraries/STM32_USB_Device_Library/Class/audio/src/usbd_audio_core.c ****     {
 300              		.loc 1 245 5 is_stmt 1 view .LVU41
 301              	@ ../Libraries/STM32_USB_Device_Library/Class/audio/src/usbd_audio_core.c:245:     switch (req->bRe
 245:../Libraries/STM32_USB_Device_Library/Class/audio/src/usbd_audio_core.c ****     {
 302              		.loc 1 245 16 is_stmt 0 view .LVU42
 303 0014 4D78     		ldrb	r5, [r1, #1]	@ zero_extendqisi2	@ _2, req_15(D)->bRequest
 304 0016 012D     		cmp	r5, #1	@ _2,
 305 0018 26D0     		beq	.L17		@,
 306 001a 812D     		cmp	r5, #129	@ _2,
 307 001c 1DD0     		beq	.L27		@,
 256:../Libraries/STM32_USB_Device_Library/Class/audio/src/usbd_audio_core.c ****       return USBD_FAIL;
 308              		.loc 1 256 7 is_stmt 1 view .LVU43
 309              	@ ../Libraries/STM32_USB_Device_Library/Class/audio/src/usbd_audio_core.c:257:       return USBD_FA
 257:../Libraries/STM32_USB_Device_Library/Class/audio/src/usbd_audio_core.c ****     }
 310              		.loc 1 257 14 is_stmt 0 view .LVU44
 311 001e 0224     		movs	r4, #2	@ <retval>,
 312              	@ ../Libraries/STM32_USB_Device_Library/Class/audio/src/usbd_audio_core.c:256:       USBD_CtlError 
 256:../Libraries/STM32_USB_Device_Library/Class/audio/src/usbd_audio_core.c ****       return USBD_FAIL;
 313              		.loc 1 256 7 view .LVU45
 314 0020 FFF7FEFF 		bl	USBD_CtlError		@
 315              	.LVL14:
 257:../Libraries/STM32_USB_Device_Library/Class/audio/src/usbd_audio_core.c ****     }
 316              		.loc 1 257 7 is_stmt 1 view .LVU46
 317              	@ ../Libraries/STM32_USB_Device_Library/Class/audio/src/usbd_audio_core.c:308: }
 308:../Libraries/STM32_USB_Device_Library/Class/audio/src/usbd_audio_core.c **** 
 318              		.loc 1 308 1 is_stmt 0 view .LVU47
 319 0024 2046     		mov	r0, r4	@, <retval>
 320 0026 F8BD     		pop	{r3, r4, r5, r6, r7, pc}	@
 321              	.LVL15:
 322              	.L24:
 323              	@ ../Libraries/STM32_USB_Device_Library/Class/audio/src/usbd_audio_core.c:241:   switch (req->bmReq
 241:../Libraries/STM32_USB_Device_Library/Class/audio/src/usbd_audio_core.c ****   {
 324              		.loc 1 241 3 view .LVU48
 325 0028 3C46     		mov	r4, r7	@ <retval>, len
 326              	.LVL16:
 327              	.L16:
ARM GAS  C:\Users\admin\AppData\Local\Temp\cchM77g0.s 			page 15


 328              	@ ../Libraries/STM32_USB_Device_Library/Class/audio/src/usbd_audio_core.c:308: }
 308:../Libraries/STM32_USB_Device_Library/Class/audio/src/usbd_audio_core.c **** 
 329              		.loc 1 308 1 view .LVU49
 330 002a 2046     		mov	r0, r4	@, <retval>
 331 002c F8BD     		pop	{r3, r4, r5, r6, r7, pc}	@
 332              	.LVL17:
 333              	.L15:
 263:../Libraries/STM32_USB_Device_Library/Class/audio/src/usbd_audio_core.c ****     {
 334              		.loc 1 263 5 is_stmt 1 view .LVU50
 335              	@ ../Libraries/STM32_USB_Device_Library/Class/audio/src/usbd_audio_core.c:263:     switch (req->bRe
 263:../Libraries/STM32_USB_Device_Library/Class/audio/src/usbd_audio_core.c ****     {
 336              		.loc 1 263 16 is_stmt 0 view .LVU51
 337 002e 4B78     		ldrb	r3, [r1, #1]	@ zero_extendqisi2	@ _3, req_15(D)->bRequest
 338 0030 0A2B     		cmp	r3, #10	@ _3,
 339 0032 2BD0     		beq	.L19		@,
 340 0034 0B2B     		cmp	r3, #11	@ _3,
 341 0036 0546     		mov	r5, r0	@ pdev, tmp168
 342 0038 2DD0     		beq	.L20		@,
 263:../Libraries/STM32_USB_Device_Library/Class/audio/src/usbd_audio_core.c ****     {
 343              		.loc 1 263 16 view .LVU52
 344 003a 062B     		cmp	r3, #6	@ _3,
 345 003c F5D1     		bne	.L16		@,
 266:../Libraries/STM32_USB_Device_Library/Class/audio/src/usbd_audio_core.c ****       {
 346              		.loc 1 266 7 is_stmt 1 view .LVU53
 347              	@ ../Libraries/STM32_USB_Device_Library/Class/audio/src/usbd_audio_core.c:266:       if( (req->wVal
 266:../Libraries/STM32_USB_Device_Library/Class/audio/src/usbd_audio_core.c ****       {
 348              		.loc 1 266 30 is_stmt 0 view .LVU54
 349 003e 4B88     		ldrh	r3, [r1, #2]	@ req_15(D)->wValue, req_15(D)->wValue
 350              	@ ../Libraries/STM32_USB_Device_Library/Class/audio/src/usbd_audio_core.c:266:       if( (req->wVal
 266:../Libraries/STM32_USB_Device_Library/Class/audio/src/usbd_audio_core.c ****       {
 351              		.loc 1 266 9 view .LVU55
 352 0040 1B0A     		lsrs	r3, r3, #8	@ tmp151, req_15(D)->wValue,
 353 0042 212B     		cmp	r3, #33	@ tmp151,
 354 0044 03D1     		bne	.L21		@,
 271:../Libraries/STM32_USB_Device_Library/Class/audio/src/usbd_audio_core.c **** #endif 
 355              		.loc 1 271 9 is_stmt 1 view .LVU56
 356              	.LVL18:
 273:../Libraries/STM32_USB_Device_Library/Class/audio/src/usbd_audio_core.c ****       }
 357              		.loc 1 273 9 view .LVU57
 358              	@ ../Libraries/STM32_USB_Device_Library/Class/audio/src/usbd_audio_core.c:273:         len = MIN(US
 273:../Libraries/STM32_USB_Device_Library/Class/audio/src/usbd_audio_core.c ****       }
 359              		.loc 1 273 13 is_stmt 0 view .LVU58
 360 0046 CF88     		ldrh	r7, [r1, #6]	@ req_15(D)->wLength, req_15(D)->wLength
 361 0048 092F     		cmp	r7, #9	@ req_15(D)->wLength,
 362 004a 28BF     		it	cs
 363 004c 0927     		movcs	r7, #9	@ len,
 364              	.LVL19:
 365              	.L21:
 276:../Libraries/STM32_USB_Device_Library/Class/audio/src/usbd_audio_core.c ****       break;
 366              		.loc 1 276 7 is_stmt 1 view .LVU59
 367 004e 1F49     		ldr	r1, .L29	@,
 368              	.LVL20:
 276:../Libraries/STM32_USB_Device_Library/Class/audio/src/usbd_audio_core.c ****       break;
 369              		.loc 1 276 7 is_stmt 0 view .LVU60
 370 0050 3A46     		mov	r2, r7	@, len
 371 0052 2846     		mov	r0, r5	@, pdev
 372              	.LVL21:
ARM GAS  C:\Users\admin\AppData\Local\Temp\cchM77g0.s 			page 16


 276:../Libraries/STM32_USB_Device_Library/Class/audio/src/usbd_audio_core.c ****       break;
 373              		.loc 1 276 7 view .LVU61
 374 0054 FFF7FEFF 		bl	USBD_CtlSendData		@
 375              	.LVL22:
 277:../Libraries/STM32_USB_Device_Library/Class/audio/src/usbd_audio_core.c ****       
 376              		.loc 1 277 7 is_stmt 1 view .LVU62
 377 0058 E7E7     		b	.L16		@
 378              	.LVL23:
 379              	.L27:
 248:../Libraries/STM32_USB_Device_Library/Class/audio/src/usbd_audio_core.c ****       break;
 380              		.loc 1 248 7 view .LVU63
 381              	.LBB8:
 382              	.LBI8:
 388:../Libraries/STM32_USB_Device_Library/Class/audio/src/usbd_audio_core.c **** {  
 383              		.loc 1 388 13 view .LVU64
 384              	.LBB9:
 391:../Libraries/STM32_USB_Device_Library/Class/audio/src/usbd_audio_core.c ****                     AudioCtl,
 385              		.loc 1 391 3 view .LVU65
 386 005a CA88     		ldrh	r2, [r1, #6]	@, req_15(D)->wLength
 387 005c 1C49     		ldr	r1, .L29+4	@,
 388              	.LVL24:
 391:../Libraries/STM32_USB_Device_Library/Class/audio/src/usbd_audio_core.c ****                     AudioCtl,
 389              		.loc 1 391 3 is_stmt 0 view .LVU66
 390              	.LBE9:
 391              	.LBE8:
 392              	@ ../Libraries/STM32_USB_Device_Library/Class/audio/src/usbd_audio_core.c:307:   return USBD_OK;
 307:../Libraries/STM32_USB_Device_Library/Class/audio/src/usbd_audio_core.c **** }
 393              		.loc 1 307 10 view .LVU67
 394 005e 3C46     		mov	r4, r7	@ <retval>, len
 395              	.LBB11:
 396              	.LBB10:
 397              	@ ../Libraries/STM32_USB_Device_Library/Class/audio/src/usbd_audio_core.c:391:   USBD_CtlSendData (
 391:../Libraries/STM32_USB_Device_Library/Class/audio/src/usbd_audio_core.c ****                     AudioCtl,
 398              		.loc 1 391 3 view .LVU68
 399 0060 FFF7FEFF 		bl	USBD_CtlSendData		@
 400              	.LVL25:
 391:../Libraries/STM32_USB_Device_Library/Class/audio/src/usbd_audio_core.c ****                     AudioCtl,
 401              		.loc 1 391 3 view .LVU69
 402              	.LBE10:
 403              	.LBE11:
 404              	@ ../Libraries/STM32_USB_Device_Library/Class/audio/src/usbd_audio_core.c:308: }
 308:../Libraries/STM32_USB_Device_Library/Class/audio/src/usbd_audio_core.c **** 
 405              		.loc 1 308 1 view .LVU70
 406 0064 2046     		mov	r0, r4	@, <retval>
 407 0066 F8BD     		pop	{r3, r4, r5, r6, r7, pc}	@
 408              	.LVL26:
 409              	.L17:
 252:../Libraries/STM32_USB_Device_Library/Class/audio/src/usbd_audio_core.c ****       break;
 410              		.loc 1 252 7 is_stmt 1 view .LVU71
 411              	.LBB12:
 412              	.LBI12:
 403:../Libraries/STM32_USB_Device_Library/Class/audio/src/usbd_audio_core.c **** { 
 413              		.loc 1 403 13 view .LVU72
 414              	.LBB13:
 405:../Libraries/STM32_USB_Device_Library/Class/audio/src/usbd_audio_core.c ****   {
 415              		.loc 1 405 3 view .LVU73
 416              	@ ../Libraries/STM32_USB_Device_Library/Class/audio/src/usbd_audio_core.c:405:   if (req->wLength)
ARM GAS  C:\Users\admin\AppData\Local\Temp\cchM77g0.s 			page 17


 405:../Libraries/STM32_USB_Device_Library/Class/audio/src/usbd_audio_core.c ****   {
 417              		.loc 1 405 10 is_stmt 0 view .LVU74
 418 0068 CC88     		ldrh	r4, [r1, #6]	@ _33, req_15(D)->wLength
 419              	@ ../Libraries/STM32_USB_Device_Library/Class/audio/src/usbd_audio_core.c:405:   if (req->wLength)
 405:../Libraries/STM32_USB_Device_Library/Class/audio/src/usbd_audio_core.c ****   {
 420              		.loc 1 405 6 view .LVU75
 421 006a 002C     		cmp	r4, #0	@ _33
 422 006c DDD0     		beq	.L16	@
 408:../Libraries/STM32_USB_Device_Library/Class/audio/src/usbd_audio_core.c ****                        AudioCtl,
 423              		.loc 1 408 5 is_stmt 1 view .LVU76
 424 006e 2246     		mov	r2, r4	@, _33
 425 0070 1749     		ldr	r1, .L29+4	@,
 426              	.LVL27:
 408:../Libraries/STM32_USB_Device_Library/Class/audio/src/usbd_audio_core.c ****                        AudioCtl,
 427              		.loc 1 408 5 is_stmt 0 view .LVU77
 428 0072 FFF7FEFF 		bl	USBD_CtlPrepareRx		@
 429              	.LVL28:
 414:../Libraries/STM32_USB_Device_Library/Class/audio/src/usbd_audio_core.c ****     AudioCtlLen = req->wLength;          /* Set the request data length */
 430              		.loc 1 414 5 is_stmt 1 view .LVU78
 431              	@ ../Libraries/STM32_USB_Device_Library/Class/audio/src/usbd_audio_core.c:414:     AudioCtlCmd = AU
 414:../Libraries/STM32_USB_Device_Library/Class/audio/src/usbd_audio_core.c ****     AudioCtlLen = req->wLength;          /* Set the request data length */
 432              		.loc 1 414 17 is_stmt 0 view .LVU79
 433 0076 174A     		ldr	r2, .L29+8	@ tmp140,
 434              	@ ../Libraries/STM32_USB_Device_Library/Class/audio/src/usbd_audio_core.c:416:     AudioCtlUnit = H
 416:../Libraries/STM32_USB_Device_Library/Class/audio/src/usbd_audio_core.c ****   }
 435              		.loc 1 416 20 view .LVU80
 436 0078 B388     		ldrh	r3, [r6, #4]	@ req_15(D)->wIndex, req_15(D)->wIndex
 437              	@ ../Libraries/STM32_USB_Device_Library/Class/audio/src/usbd_audio_core.c:414:     AudioCtlCmd = AU
 414:../Libraries/STM32_USB_Device_Library/Class/audio/src/usbd_audio_core.c ****     AudioCtlLen = req->wLength;          /* Set the request data length */
 438              		.loc 1 414 17 view .LVU81
 439 007a 1570     		strb	r5, [r2]	@ _2, AudioCtlCmd
 415:../Libraries/STM32_USB_Device_Library/Class/audio/src/usbd_audio_core.c ****     AudioCtlUnit = HIBYTE(req->wIndex);  /* Set the request target unit */
 440              		.loc 1 415 5 is_stmt 1 view .LVU82
 441              	@ ../Libraries/STM32_USB_Device_Library/Class/audio/src/usbd_audio_core.c:416:     AudioCtlUnit = H
 416:../Libraries/STM32_USB_Device_Library/Class/audio/src/usbd_audio_core.c ****   }
 442              		.loc 1 416 18 is_stmt 0 view .LVU83
 443 007c 1648     		ldr	r0, .L29+12	@ tmp145,
 444              	@ ../Libraries/STM32_USB_Device_Library/Class/audio/src/usbd_audio_core.c:415:     AudioCtlLen = re
 415:../Libraries/STM32_USB_Device_Library/Class/audio/src/usbd_audio_core.c ****     AudioCtlUnit = HIBYTE(req->wIndex);  /* Set the request target unit */
 445              		.loc 1 415 17 view .LVU84
 446 007e 174A     		ldr	r2, .L29+16	@ tmp143,
 447              	@ ../Libraries/STM32_USB_Device_Library/Class/audio/src/usbd_audio_core.c:415:     AudioCtlLen = re
 415:../Libraries/STM32_USB_Device_Library/Class/audio/src/usbd_audio_core.c ****     AudioCtlUnit = HIBYTE(req->wIndex);  /* Set the request target unit */
 448              		.loc 1 415 22 view .LVU85
 449 0080 F188     		ldrh	r1, [r6, #6]	@ req_15(D)->wLength, req_15(D)->wLength
 450 0082 1160     		str	r1, [r2]	@ req_15(D)->wLength, AudioCtlLen
 416:../Libraries/STM32_USB_Device_Library/Class/audio/src/usbd_audio_core.c ****   }
 451              		.loc 1 416 5 is_stmt 1 view .LVU86
 452              	@ ../Libraries/STM32_USB_Device_Library/Class/audio/src/usbd_audio_core.c:416:     AudioCtlUnit = H
 416:../Libraries/STM32_USB_Device_Library/Class/audio/src/usbd_audio_core.c ****   }
 453              		.loc 1 416 20 is_stmt 0 view .LVU87
 454 0084 1B0A     		lsrs	r3, r3, #8	@ tmp147, req_15(D)->wIndex,
 455              	.LBE13:
 456              	.LBE12:
 457              	@ ../Libraries/STM32_USB_Device_Library/Class/audio/src/usbd_audio_core.c:307:   return USBD_OK;
 307:../Libraries/STM32_USB_Device_Library/Class/audio/src/usbd_audio_core.c **** }
 458              		.loc 1 307 10 view .LVU88
ARM GAS  C:\Users\admin\AppData\Local\Temp\cchM77g0.s 			page 18


 459 0086 3C46     		mov	r4, r7	@ <retval>, len
 460              	.LBB15:
 461              	.LBB14:
 462              	@ ../Libraries/STM32_USB_Device_Library/Class/audio/src/usbd_audio_core.c:416:     AudioCtlUnit = H
 416:../Libraries/STM32_USB_Device_Library/Class/audio/src/usbd_audio_core.c ****   }
 463              		.loc 1 416 20 view .LVU89
 464 0088 0370     		strb	r3, [r0]	@ tmp147, AudioCtlUnit
 465 008a CEE7     		b	.L16		@
 466              	.LVL29:
 467              	.L19:
 416:../Libraries/STM32_USB_Device_Library/Class/audio/src/usbd_audio_core.c ****   }
 468              		.loc 1 416 20 view .LVU90
 469              	.LBE14:
 470              	.LBE15:
 280:../Libraries/STM32_USB_Device_Library/Class/audio/src/usbd_audio_core.c ****       break;
 471              		.loc 1 280 7 is_stmt 1 view .LVU91
 472 008c 1449     		ldr	r1, .L29+20	@,
 473              	.LVL30:
 280:../Libraries/STM32_USB_Device_Library/Class/audio/src/usbd_audio_core.c ****       break;
 474              		.loc 1 280 7 is_stmt 0 view .LVU92
 475 008e 0122     		movs	r2, #1	@,
 476 0090 FFF7FEFF 		bl	USBD_CtlSendData		@
 477              	.LVL31:
 281:../Libraries/STM32_USB_Device_Library/Class/audio/src/usbd_audio_core.c ****       
 478              		.loc 1 281 7 is_stmt 1 view .LVU93
 479 0094 C9E7     		b	.L16		@
 480              	.LVL32:
 481              	.L20:
 284:../Libraries/STM32_USB_Device_Library/Class/audio/src/usbd_audio_core.c ****       {
 482              		.loc 1 284 7 view .LVU94
 483              	@ ../Libraries/STM32_USB_Device_Library/Class/audio/src/usbd_audio_core.c:284:       if ((uint8_t)(
 284:../Libraries/STM32_USB_Device_Library/Class/audio/src/usbd_audio_core.c ****       {
 484              		.loc 1 284 11 is_stmt 0 view .LVU95
 485 0096 8B78     		ldrb	r3, [r1, #2]	@ zero_extendqisi2	@ _8, req_15(D)->wValue
 486              	@ ../Libraries/STM32_USB_Device_Library/Class/audio/src/usbd_audio_core.c:284:       if ((uint8_t)(
 284:../Libraries/STM32_USB_Device_Library/Class/audio/src/usbd_audio_core.c ****       {
 487              		.loc 1 284 10 view .LVU96
 488 0098 012B     		cmp	r3, #1	@ _8,
 489 009a 0ED8     		bhi	.L22		@,
 286:../Libraries/STM32_USB_Device_Library/Class/audio/src/usbd_audio_core.c ****         if (usbd_audio_AltSet == 1) //выбор используемого интерфейса
 490              		.loc 1 286 9 is_stmt 1 view .LVU97
 491              	@ ../Libraries/STM32_USB_Device_Library/Class/audio/src/usbd_audio_core.c:286:         usbd_audio_A
 286:../Libraries/STM32_USB_Device_Library/Class/audio/src/usbd_audio_core.c ****         if (usbd_audio_AltSet == 1) //выбор используемого интерфейса
 492              		.loc 1 286 27 is_stmt 0 view .LVU98
 493 009c 104A     		ldr	r2, .L29+20	@ tmp161,
 494 009e 1360     		str	r3, [r2]	@ _8, usbd_audio_AltSet
 287:../Libraries/STM32_USB_Device_Library/Class/audio/src/usbd_audio_core.c **** 		{
 495              		.loc 1 287 9 is_stmt 1 view .LVU99
 496              	@ ../Libraries/STM32_USB_Device_Library/Class/audio/src/usbd_audio_core.c:287:         if (usbd_aud
 287:../Libraries/STM32_USB_Device_Library/Class/audio/src/usbd_audio_core.c **** 		{
 497              		.loc 1 287 31 is_stmt 0 view .LVU100
 498 00a0 1368     		ldr	r3, [r2]	@ usbd_audio_AltSet.2_10, usbd_audio_AltSet
 499              	@ ../Libraries/STM32_USB_Device_Library/Class/audio/src/usbd_audio_core.c:287:         if (usbd_aud
 287:../Libraries/STM32_USB_Device_Library/Class/audio/src/usbd_audio_core.c **** 		{
 500              		.loc 1 287 12 view .LVU101
 501 00a2 012B     		cmp	r3, #1	@ usbd_audio_AltSet.2_10,
 502 00a4 0CD0     		beq	.L28		@,
ARM GAS  C:\Users\admin\AppData\Local\Temp\cchM77g0.s 			page 19


 294:../Libraries/STM32_USB_Device_Library/Class/audio/src/usbd_audio_core.c **** 			STM_EVAL_LEDOff(LED5);
 503              		.loc 1 294 10 is_stmt 1 view .LVU102
 504              	@ ../Libraries/STM32_USB_Device_Library/Class/audio/src/usbd_audio_core.c:294:         	PlayFlag = 
 294:../Libraries/STM32_USB_Device_Library/Class/audio/src/usbd_audio_core.c **** 			STM_EVAL_LEDOff(LED5);
 505              		.loc 1 294 19 is_stmt 0 view .LVU103
 506 00a6 0F4B     		ldr	r3, .L29+24	@ tmp165,
 507              	@ ../Libraries/STM32_USB_Device_Library/Class/audio/src/usbd_audio_core.c:295: 			STM_EVAL_LEDOff(L
 295:../Libraries/STM32_USB_Device_Library/Class/audio/src/usbd_audio_core.c ****         	DCD_EP_Flush (pdev,AUDIO_IN_EP);
 508              		.loc 1 295 4 view .LVU104
 509 00a8 0220     		movs	r0, #2	@,
 510              	.LVL33:
 511              	@ ../Libraries/STM32_USB_Device_Library/Class/audio/src/usbd_audio_core.c:294:         	PlayFlag = 
 294:../Libraries/STM32_USB_Device_Library/Class/audio/src/usbd_audio_core.c **** 			STM_EVAL_LEDOff(LED5);
 512              		.loc 1 294 19 view .LVU105
 513 00aa 1C60     		str	r4, [r3]	@ <retval>, PlayFlag
 295:../Libraries/STM32_USB_Device_Library/Class/audio/src/usbd_audio_core.c ****         	DCD_EP_Flush (pdev,AUDIO_IN_EP);
 514              		.loc 1 295 4 is_stmt 1 view .LVU106
 515 00ac FFF7FEFF 		bl	STM_EVAL_LEDOff		@
 516              	.LVL34:
 296:../Libraries/STM32_USB_Device_Library/Class/audio/src/usbd_audio_core.c ****         }
 517              		.loc 1 296 10 view .LVU107
 518 00b0 8121     		movs	r1, #129	@,
 519 00b2 2846     		mov	r0, r5	@, pdev
 520 00b4 FFF7FEFF 		bl	DCD_EP_Flush		@
 521              	.LVL35:
 522 00b8 B7E7     		b	.L16		@
 523              	.LVL36:
 524              	.L22:
 302:../Libraries/STM32_USB_Device_Library/Class/audio/src/usbd_audio_core.c ****       }
 525              		.loc 1 302 9 view .LVU108
 526 00ba FFF7FEFF 		bl	USBD_CtlError		@
 527              	.LVL37:
 302:../Libraries/STM32_USB_Device_Library/Class/audio/src/usbd_audio_core.c ****       }
 528              		.loc 1 302 9 is_stmt 0 view .LVU109
 529 00be B4E7     		b	.L16		@
 530              	.LVL38:
 531              	.L28:
 289:../Libraries/STM32_USB_Device_Library/Class/audio/src/usbd_audio_core.c **** 		  STM_EVAL_LEDOn(LED5);
 532              		.loc 1 289 5 is_stmt 1 view .LVU110
 533              	@ ../Libraries/STM32_USB_Device_Library/Class/audio/src/usbd_audio_core.c:289: 		  PlayFlag = 1;
 289:../Libraries/STM32_USB_Device_Library/Class/audio/src/usbd_audio_core.c **** 		  STM_EVAL_LEDOn(LED5);
 534              		.loc 1 289 14 is_stmt 0 view .LVU111
 535 00c0 084A     		ldr	r2, .L29+24	@ tmp163,
 536              	@ ../Libraries/STM32_USB_Device_Library/Class/audio/src/usbd_audio_core.c:290: 		  STM_EVAL_LEDOn(L
 290:../Libraries/STM32_USB_Device_Library/Class/audio/src/usbd_audio_core.c **** 		} 
 537              		.loc 1 290 5 view .LVU112
 538 00c2 0220     		movs	r0, #2	@,
 539              	.LVL39:
 540              	@ ../Libraries/STM32_USB_Device_Library/Class/audio/src/usbd_audio_core.c:289: 		  PlayFlag = 1;
 289:../Libraries/STM32_USB_Device_Library/Class/audio/src/usbd_audio_core.c **** 		  STM_EVAL_LEDOn(LED5);
 541              		.loc 1 289 14 view .LVU113
 542 00c4 1360     		str	r3, [r2]	@ usbd_audio_AltSet.2_10, PlayFlag
 290:../Libraries/STM32_USB_Device_Library/Class/audio/src/usbd_audio_core.c **** 		} 
 543              		.loc 1 290 5 is_stmt 1 view .LVU114
 544 00c6 FFF7FEFF 		bl	STM_EVAL_LEDOn		@
 545              	.LVL40:
 290:../Libraries/STM32_USB_Device_Library/Class/audio/src/usbd_audio_core.c **** 		} 
ARM GAS  C:\Users\admin\AppData\Local\Temp\cchM77g0.s 			page 20


 546              		.loc 1 290 5 is_stmt 0 view .LVU115
 547 00ca AEE7     		b	.L16		@
 548              	.L30:
 549              		.align	2
 550              	.L29:
 551 00cc 12000000 		.word	.LANCHOR0+18
 552 00d0 00000000 		.word	.LANCHOR1
 553 00d4 00000000 		.word	.LANCHOR2
 554 00d8 00000000 		.word	.LANCHOR4
 555 00dc 00000000 		.word	.LANCHOR3
 556 00e0 00000000 		.word	.LANCHOR5
 557 00e4 00000000 		.word	.LANCHOR6
 558              		.cfi_endproc
 559              	.LFE115:
 560              		.size	usbd_audio_Setup, .-usbd_audio_Setup
 561              		.section	.text.usbd_audio_DeInit,"ax",%progbits
 562              		.align	1
 563              		.p2align 2,,3
 564              		.syntax unified
 565              		.thumb
 566              		.thumb_func
 567              		.type	usbd_audio_DeInit, %function
 568              	usbd_audio_DeInit:
 569              	.LVL41:
 570              	.LFB114:
 220:../Libraries/STM32_USB_Device_Library/Class/audio/src/usbd_audio_core.c ****   DCD_EP_Close (pdev , AUDIO_IN_EP);
 571              		.loc 1 220 1 is_stmt 1 view -0
 572              		.cfi_startproc
 573              		@ args = 0, pretend = 0, frame = 0
 574              		@ frame_needed = 0, uses_anonymous_args = 0
 221:../Libraries/STM32_USB_Device_Library/Class/audio/src/usbd_audio_core.c ****   
 575              		.loc 1 221 3 view .LVU117
 576              	@ ../Libraries/STM32_USB_Device_Library/Class/audio/src/usbd_audio_core.c:220: { 
 220:../Libraries/STM32_USB_Device_Library/Class/audio/src/usbd_audio_core.c ****   DCD_EP_Close (pdev , AUDIO_IN_EP);
 577              		.loc 1 220 1 is_stmt 0 view .LVU118
 578 0000 08B5     		push	{r3, lr}	@
 579              		.cfi_def_cfa_offset 8
 580              		.cfi_offset 3, -8
 581              		.cfi_offset 14, -4
 582              	@ ../Libraries/STM32_USB_Device_Library/Class/audio/src/usbd_audio_core.c:221:   DCD_EP_Close (pdev
 221:../Libraries/STM32_USB_Device_Library/Class/audio/src/usbd_audio_core.c ****   
 583              		.loc 1 221 3 view .LVU119
 584 0002 8121     		movs	r1, #129	@,
 585              	.LVL42:
 221:../Libraries/STM32_USB_Device_Library/Class/audio/src/usbd_audio_core.c ****   
 586              		.loc 1 221 3 view .LVU120
 587 0004 FFF7FEFF 		bl	DCD_EP_Close		@
 588              	.LVL43:
 225:../Libraries/STM32_USB_Device_Library/Class/audio/src/usbd_audio_core.c **** }
 589              		.loc 1 225 3 is_stmt 1 view .LVU121
 590              	@ ../Libraries/STM32_USB_Device_Library/Class/audio/src/usbd_audio_core.c:226: }
 226:../Libraries/STM32_USB_Device_Library/Class/audio/src/usbd_audio_core.c **** 
 591              		.loc 1 226 1 is_stmt 0 view .LVU122
 592 0008 0020     		movs	r0, #0	@,
 593 000a 08BD     		pop	{r3, pc}	@
 594              		.cfi_endproc
 595              	.LFE114:
ARM GAS  C:\Users\admin\AppData\Local\Temp\cchM77g0.s 			page 21


 596              		.size	usbd_audio_DeInit, .-usbd_audio_DeInit
 597              		.section	.text.usbd_audio_Init,"ax",%progbits
 598              		.align	1
 599              		.p2align 2,,3
 600              		.syntax unified
 601              		.thumb
 602              		.thumb_func
 603              		.type	usbd_audio_Init, %function
 604              	usbd_audio_Init:
 605              	.LVL44:
 606              	.LFB113:
 199:../Libraries/STM32_USB_Device_Library/Class/audio/src/usbd_audio_core.c ****     /* Open EP IN */
 607              		.loc 1 199 1 is_stmt 1 view -0
 608              		.cfi_startproc
 609              		@ args = 0, pretend = 0, frame = 0
 610              		@ frame_needed = 0, uses_anonymous_args = 0
 201:../Libraries/STM32_USB_Device_Library/Class/audio/src/usbd_audio_core.c ****               AUDIO_IN_EP,
 611              		.loc 1 201 3 view .LVU124
 612              	@ ../Libraries/STM32_USB_Device_Library/Class/audio/src/usbd_audio_core.c:199: {  
 199:../Libraries/STM32_USB_Device_Library/Class/audio/src/usbd_audio_core.c ****     /* Open EP IN */
 613              		.loc 1 199 1 is_stmt 0 view .LVU125
 614 0000 08B5     		push	{r3, lr}	@
 615              		.cfi_def_cfa_offset 8
 616              		.cfi_offset 3, -8
 617              		.cfi_offset 14, -4
 618              	@ ../Libraries/STM32_USB_Device_Library/Class/audio/src/usbd_audio_core.c:201:   DCD_EP_Open(pdev,
 201:../Libraries/STM32_USB_Device_Library/Class/audio/src/usbd_audio_core.c ****               AUDIO_IN_EP,
 619              		.loc 1 201 3 view .LVU126
 620 0002 2022     		movs	r2, #32	@,
 621 0004 0123     		movs	r3, #1	@,
 622 0006 8121     		movs	r1, #129	@,
 623              	.LVL45:
 201:../Libraries/STM32_USB_Device_Library/Class/audio/src/usbd_audio_core.c ****               AUDIO_IN_EP,
 624              		.loc 1 201 3 view .LVU127
 625 0008 FFF7FEFF 		bl	DCD_EP_Open		@
 626              	.LVL46:
 208:../Libraries/STM32_USB_Device_Library/Class/audio/src/usbd_audio_core.c **** }
 627              		.loc 1 208 3 is_stmt 1 view .LVU128
 628              	@ ../Libraries/STM32_USB_Device_Library/Class/audio/src/usbd_audio_core.c:209: }
 209:../Libraries/STM32_USB_Device_Library/Class/audio/src/usbd_audio_core.c **** 
 629              		.loc 1 209 1 is_stmt 0 view .LVU129
 630 000c 0020     		movs	r0, #0	@,
 631 000e 08BD     		pop	{r3, pc}	@
 632              		.cfi_endproc
 633              	.LFE113:
 634              		.size	usbd_audio_Init, .-usbd_audio_Init
 635              		.section	.text.usbd_audio_SOF,"ax",%progbits
 636              		.align	1
 637              		.p2align 2,,3
 638              		.syntax unified
 639              		.thumb
 640              		.thumb_func
 641              		.type	usbd_audio_SOF, %function
 642              	usbd_audio_SOF:
 643              	.LVL47:
 644              	.LFB119:
 367:../Libraries/STM32_USB_Device_Library/Class/audio/src/usbd_audio_core.c ****   // Check if there are available data in stream buffer.
ARM GAS  C:\Users\admin\AppData\Local\Temp\cchM77g0.s 			page 22


 645              		.loc 1 367 1 is_stmt 1 view -0
 646              		.cfi_startproc
 647              		@ args = 0, pretend = 0, frame = 0
 648              		@ frame_needed = 0, uses_anonymous_args = 0
 369:../Libraries/STM32_USB_Device_Library/Class/audio/src/usbd_audio_core.c ****     
 649              		.loc 1 369 3 view .LVU131
 650              	@ ../Libraries/STM32_USB_Device_Library/Class/audio/src/usbd_audio_core.c:367: {     
 367:../Libraries/STM32_USB_Device_Library/Class/audio/src/usbd_audio_core.c ****   // Check if there are available data in stream buffer.
 651              		.loc 1 367 1 is_stmt 0 view .LVU132
 652 0000 10B5     		push	{r4, lr}	@
 653              		.cfi_def_cfa_offset 8
 654              		.cfi_offset 4, -8
 655              		.cfi_offset 14, -4
 656              	@ ../Libraries/STM32_USB_Device_Library/Class/audio/src/usbd_audio_core.c:369:   if (PlayFlag == 1)
 369:../Libraries/STM32_USB_Device_Library/Class/audio/src/usbd_audio_core.c ****     
 657              		.loc 1 369 16 view .LVU133
 658 0002 074C     		ldr	r4, .L39	@ tmp116,
 659              	@ ../Libraries/STM32_USB_Device_Library/Class/audio/src/usbd_audio_core.c:369:   if (PlayFlag == 1)
 369:../Libraries/STM32_USB_Device_Library/Class/audio/src/usbd_audio_core.c ****     
 660              		.loc 1 369 6 view .LVU134
 661 0004 2368     		ldr	r3, [r4]	@ PlayFlag, PlayFlag
 662 0006 012B     		cmp	r3, #1	@ PlayFlag,
 663 0008 01D0     		beq	.L38		@,
 374:../Libraries/STM32_USB_Device_Library/Class/audio/src/usbd_audio_core.c **** }
 664              		.loc 1 374 3 is_stmt 1 view .LVU135
 665              	@ ../Libraries/STM32_USB_Device_Library/Class/audio/src/usbd_audio_core.c:375: }
 375:../Libraries/STM32_USB_Device_Library/Class/audio/src/usbd_audio_core.c **** 
 666              		.loc 1 375 1 is_stmt 0 view .LVU136
 667 000a 0020     		movs	r0, #0	@,
 668              	.LVL48:
 375:../Libraries/STM32_USB_Device_Library/Class/audio/src/usbd_audio_core.c **** 
 669              		.loc 1 375 1 view .LVU137
 670 000c 10BD     		pop	{r4, pc}	@
 671              	.LVL49:
 672              	.L38:
 673              	.LBB18:
 674              	.LBI18:
 366:../Libraries/STM32_USB_Device_Library/Class/audio/src/usbd_audio_core.c **** {     
 675              		.loc 1 366 17 is_stmt 1 view .LVU138
 676              	.LBB19:
 371:../Libraries/STM32_USB_Device_Library/Class/audio/src/usbd_audio_core.c ****     PlayFlag = 2;
 677              		.loc 1 371 5 view .LVU139
 678 000e 2023     		movs	r3, #32	@,
 679 0010 0022     		movs	r2, #0	@,
 680 0012 8121     		movs	r1, #129	@,
 681 0014 FFF7FEFF 		bl	DCD_EP_Tx		@
 682              	.LVL50:
 372:../Libraries/STM32_USB_Device_Library/Class/audio/src/usbd_audio_core.c ****   }
 683              		.loc 1 372 5 view .LVU140
 684              	@ ../Libraries/STM32_USB_Device_Library/Class/audio/src/usbd_audio_core.c:372:     PlayFlag = 2;
 372:../Libraries/STM32_USB_Device_Library/Class/audio/src/usbd_audio_core.c ****   }
 685              		.loc 1 372 14 is_stmt 0 view .LVU141
 686 0018 0223     		movs	r3, #2	@ tmp119,
 687 001a 2360     		str	r3, [r4]	@ tmp119, PlayFlag
 688              	.LBE19:
 689              	.LBE18:
 374:../Libraries/STM32_USB_Device_Library/Class/audio/src/usbd_audio_core.c **** }
ARM GAS  C:\Users\admin\AppData\Local\Temp\cchM77g0.s 			page 23


 690              		.loc 1 374 3 is_stmt 1 view .LVU142
 691              	@ ../Libraries/STM32_USB_Device_Library/Class/audio/src/usbd_audio_core.c:375: }
 375:../Libraries/STM32_USB_Device_Library/Class/audio/src/usbd_audio_core.c **** 
 692              		.loc 1 375 1 is_stmt 0 view .LVU143
 693 001c 0020     		movs	r0, #0	@,
 694 001e 10BD     		pop	{r4, pc}	@
 695              	.L40:
 696              		.align	2
 697              	.L39:
 698 0020 00000000 		.word	.LANCHOR6
 699              		.cfi_endproc
 700              	.LFE119:
 701              		.size	usbd_audio_SOF, .-usbd_audio_SOF
 702              		.global	AUDIO_cb
 703              		.global	AudioCtlUnit
 704              		.global	AudioCtlLen
 705              		.global	AudioCtlCmd
 706              		.global	AudioCtl
 707              		.section	.bss.AudioCtl,"aw",%nobits
 708              		.align	2
 709              		.set	.LANCHOR1,. + 0
 710              		.type	AudioCtl, %object
 711              		.size	AudioCtl, 64
 712              	AudioCtl:
 713 0000 00000000 		.space	64
 713      00000000 
 713      00000000 
 713      00000000 
 713      00000000 
 714              		.section	.bss.AudioCtlCmd,"aw",%nobits
 715              		.set	.LANCHOR2,. + 0
 716              		.type	AudioCtlCmd, %object
 717              		.size	AudioCtlCmd, 1
 718              	AudioCtlCmd:
 719 0000 00       		.space	1
 720              		.section	.bss.AudioCtlLen,"aw",%nobits
 721              		.align	2
 722              		.set	.LANCHOR3,. + 0
 723              		.type	AudioCtlLen, %object
 724              		.size	AudioCtlLen, 4
 725              	AudioCtlLen:
 726 0000 00000000 		.space	4
 727              		.section	.bss.AudioCtlUnit,"aw",%nobits
 728              		.set	.LANCHOR4,. + 0
 729              		.type	AudioCtlUnit, %object
 730              		.size	AudioCtlUnit, 1
 731              	AudioCtlUnit:
 732 0000 00       		.space	1
 733              		.section	.bss.PlayFlag,"aw",%nobits
 734              		.align	2
 735              		.set	.LANCHOR6,. + 0
 736              		.type	PlayFlag, %object
 737              		.size	PlayFlag, 4
 738              	PlayFlag:
 739 0000 00000000 		.space	4
 740              		.section	.bss.usbd_audio_AltSet,"aw",%nobits
 741              		.align	2
ARM GAS  C:\Users\admin\AppData\Local\Temp\cchM77g0.s 			page 24


 742              		.set	.LANCHOR5,. + 0
 743              		.type	usbd_audio_AltSet, %object
 744              		.size	usbd_audio_AltSet, 4
 745              	usbd_audio_AltSet:
 746 0000 00000000 		.space	4
 747              		.section	.data.AUDIO_cb,"aw"
 748              		.align	2
 749              		.type	AUDIO_cb, %object
 750              		.size	AUDIO_cb, 44
 751              	AUDIO_cb:
 752              	@ Init:
 753 0000 00000000 		.word	usbd_audio_Init
 754              	@ DeInit:
 755 0004 00000000 		.word	usbd_audio_DeInit
 756              	@ Setup:
 757 0008 00000000 		.word	usbd_audio_Setup
 758              	@ EP0_TxSent:
 759 000c 00000000 		.word	0
 760              	@ EP0_RxReady:
 761 0010 00000000 		.word	usbd_audio_EP0_RxReady
 762              	@ DataIn:
 763 0014 00000000 		.word	usbd_audio_DataIn
 764              	@ DataOut:
 765 0018 00000000 		.word	usbd_audio_DataOut
 766              	@ SOF:
 767 001c 00000000 		.word	usbd_audio_SOF
 768              	@ IsoINIncomplete:
 769 0020 00000000 		.word	0
 770              	@ IsoOUTIncomplete:
 771 0024 00000000 		.word	0
 772              	@ GetConfigDescriptor:
 773 0028 00000000 		.word	USBD_audio_GetCfgDesc
 774              		.section	.data.usbd_audio_CfgDesc,"aw"
 775              		.align	2
 776              		.set	.LANCHOR0,. + 0
 777              		.type	usbd_audio_CfgDesc, %object
 778              		.size	usbd_audio_CfgDesc, 109
 779              	usbd_audio_CfgDesc:
 780 0000 09026D00 		.ascii	"\011\002m\000\002\001\000\2002\011\004\000\000\000\001"
 780      02010080 
 780      32090400 
 780      000001
 781 000f 01000009 		.ascii	"\001\000\000\011$\001\000\001\036\000\001\001\014$\002"
 781      24010001 
 781      1E000101 
 781      0C2402
 782 001e 01010200 		.ascii	"\001\001\002\000\001\000\000\000\000\011$\003\002\001"
 782      01000000 
 782      00092403 
 782      0201
 783 002c 01000100 		.ascii	"\001\000\001\000\011\004\001\000\000\001\002\000\000"
 783      09040100 
 783      00010200 
 783      00
 784 0039 09040101 		.ascii	"\011\004\001\001\001\001\002\000\000\007$\001\002\001"
 784      01010200 
 784      00072401 
ARM GAS  C:\Users\admin\AppData\Local\Temp\cchM77g0.s 			page 25


 784      0201
 785 0047 01000B24 		.ascii	"\001\000\013$\002\001\001\002\020\001\200>\000\011\005"
 785      02010102 
 785      1001803E 
 785      000905
 786 0056 81012000 		.ascii	"\201\001 \000\001\000\000\007%\001\000\000\000\000\000"
 786      01000007 
 786      25010000 
 786      000000
 787 0065 00000000 		.space	8
 787      00000000 
 788              		.text
 789              	.Letext0:
 790              		.file 2 "c:\\program files (x86)\\gnu arm embedded toolchain\\10 2021.10\\arm-none-eabi\\include\\
 791              		.file 3 "c:\\program files (x86)\\gnu arm embedded toolchain\\10 2021.10\\arm-none-eabi\\include\\
 792              		.file 4 "../Libraries/STM32_USB_OTG_Driver/inc/usb_core.h"
 793              		.file 5 "../Utilities/STM32F4-Discovery/stm32f4_discovery.h"
 794              		.file 6 "../Libraries/STM32_USB_Device_Library/Core/inc/usbd_core.h"
 795              		.file 7 "../Libraries/STM32_USB_Device_Library/Class/audio/inc/usbd_audio_core.h"
 796              		.file 8 "../Libraries/STM32_USB_OTG_Driver/inc/usb_dcd.h"
 797              		.file 9 "../Libraries/STM32_USB_Device_Library/Core/inc/usbd_ioreq.h"
 798              		.file 10 "../Libraries/STM32_USB_Device_Library/Core/inc/usbd_req.h"