ARM GAS  C:\Users\admin\AppData\Local\Temp\ccCOwQsQ.s 			page 1


   1              		.cpu cortex-m4
   2              		.arch armv7e-m
   3              		.fpu fpv4-sp-d16
   4              		.eabi_attribute 27, 1	@ Tag_ABI_HardFP_use
   5              		.eabi_attribute 28, 1	@ Tag_ABI_VFP_args
   6              		.eabi_attribute 23, 1	@ Tag_ABI_FP_number_model
   7              		.eabi_attribute 24, 1	@ Tag_ABI_align8_needed
   8              		.eabi_attribute 25, 1	@ Tag_ABI_align8_preserved
   9              		.eabi_attribute 26, 1	@ Tag_ABI_enum_size
  10              		.eabi_attribute 30, 2	@ Tag_ABI_optimization_goals
  11              		.eabi_attribute 34, 1	@ Tag_CPU_unaligned_access
  12              		.eabi_attribute 18, 4	@ Tag_ABI_PCS_wchar_t
  13              		.file	"usbd_audio_out_if.c"
  14              	@ GNU C89 (GNU Arm Embedded Toolchain 10.3-2021.10) version 10.3.1 20210824 (release) (arm-none-eab
  15              	@	compiled by GNU C version 7.3-win32 20180312, GMP version 6.1.0, MPFR version 3.1.4, MPC version 
  16              	
  17              	@ GGC heuristics: --param ggc-min-expand=100 --param ggc-min-heapsize=131072
  18              	@ options passed:  -I . -I . -I ../Utilities/STM32F4-Discovery/
  19              	@ -I ../Libraries/STM32_USB_Device_Library/Class/audio/inc/
  20              	@ -I ../Libraries/STM32_USB_Device_Library/Core/inc/
  21              	@ -I ../Libraries/STM32_USB_OTG_Driver/inc/
  22              	@ -I ../Utilities/STM32F4-Discovery/
  23              	@ -I ../Libraries/STM32F4xx_StdPeriph_Driver/inc/
  24              	@ -I ../Utilities/STM32F4-Discovery/
  25              	@ -I ../Libraries/CMSIS/ST/STM32F4xx/Include/
  26              	@ -I ../Libraries/CMSIS/Include/ -imultilib thumb/v7e-m+fp/hard
  27              	@ -iprefix c:\program files (x86)\gnu arm embedded toolchain\10 2021.10\bin\../lib/gcc/arm-none-eab
  28              	@ -isysroot c:\program files (x86)\gnu arm embedded toolchain\10 2021.10\bin\../arm-none-eabi
  29              	@ -MD out/usbd_audio_out_if.d -MF out/usbd_audio_out_if.d -MP
  30              	@ -MQ out/usbd_audio_out_if.o -D__USES_INITFINI__ -D STM32F4XX
  31              	@ -D __VFP_FP__ -D USE_USB_OTG_FS
  32              	@ ../Libraries/STM32_USB_Device_Library/Class/audio/src/usbd_audio_out_if.c
  33              	@ -mcpu=cortex-m4 -mthumb -mfloat-abi=hard -mfpu=fpv4-sp-d16
  34              	@ -mlibarch=armv7e-m+fp -march=armv7e-m+fp
  35              	@ -auxbase-strip out/usbd_audio_out_if.o -g -ggdb3 -O3 -Wall
  36              	@ -Wstrict-prototypes -Wextra -std=gnu90 -ffast-math -ffunction-sections
  37              	@ -fdata-sections -fverbose-asm
  38              	@ options enabled:  -faggressive-loop-optimizations -falign-functions
  39              	@ -falign-jumps -falign-labels -falign-loops -fallocation-dce
  40              	@ -fassociative-math -fauto-inc-dec -fbranch-count-reg -fcaller-saves
  41              	@ -fcombine-stack-adjustments -fcompare-elim -fcprop-registers
  42              	@ -fcrossjumping -fcse-follow-jumps -fcx-limited-range -fdata-sections
  43              	@ -fdefer-pop -fdelete-null-pointer-checks -fdevirtualize
  44              	@ -fdevirtualize-speculatively -fdwarf2-cfi-asm -fearly-inlining
  45              	@ -feliminate-unused-debug-symbols -feliminate-unused-debug-types
  46              	@ -fexpensive-optimizations -ffinite-math-only -fforward-propagate
  47              	@ -ffp-int-builtin-inexact -ffunction-cse -ffunction-sections -fgcse
  48              	@ -fgcse-after-reload -fgcse-lm -fgnu-unique -fguess-branch-probability
  49              	@ -fhoist-adjacent-loads -fident -fif-conversion -fif-conversion2
  50              	@ -findirect-inlining -finline -finline-atomics -finline-functions
  51              	@ -finline-functions-called-once -finline-small-functions -fipa-bit-cp
  52              	@ -fipa-cp -fipa-cp-clone -fipa-icf -fipa-icf-functions -fipa-icf-variables
  53              	@ -fipa-profile -fipa-pure-const -fipa-ra -fipa-reference
  54              	@ -fipa-reference-addressable -fipa-sra -fipa-stack-alignment -fipa-vrp
  55              	@ -fira-hoist-pressure -fira-share-save-slots -fira-share-spill-slots
  56              	@ -fisolate-erroneous-paths-dereference -fivopts -fkeep-static-consts
  57              	@ -fleading-underscore -flifetime-dse -floop-interchange
ARM GAS  C:\Users\admin\AppData\Local\Temp\ccCOwQsQ.s 			page 2


  58              	@ -floop-unroll-and-jam -flra-remat -fmerge-constants -fmerge-debug-strings
  59              	@ -fmove-loop-invariants -fomit-frame-pointer -foptimize-sibling-calls
  60              	@ -foptimize-strlen -fpartial-inlining -fpeel-loops -fpeephole -fpeephole2
  61              	@ -fplt -fpredictive-commoning -fprefetch-loop-arrays -freciprocal-math
  62              	@ -freg-struct-return -freorder-blocks -freorder-functions
  63              	@ -frerun-cse-after-loop -fsched-critical-path-heuristic
  64              	@ -fsched-dep-count-heuristic -fsched-group-heuristic -fsched-interblock
  65              	@ -fsched-last-insn-heuristic -fsched-pressure -fsched-rank-heuristic
  66              	@ -fsched-spec -fsched-spec-insn-heuristic -fsched-stalled-insns-dep
  67              	@ -fschedule-insns -fschedule-insns2 -fsection-anchors
  68              	@ -fsemantic-interposition -fshow-column -fshrink-wrap
  69              	@ -fshrink-wrap-separate -fsplit-ivs-in-unroller -fsplit-loops
  70              	@ -fsplit-paths -fsplit-wide-types -fssa-backprop -fssa-phiopt -fstdarg-opt
  71              	@ -fstore-merging -fstrict-aliasing -fstrict-volatile-bitfields
  72              	@ -fsync-libcalls -fthread-jumps -ftoplevel-reorder -ftree-bit-ccp
  73              	@ -ftree-builtin-call-dce -ftree-ccp -ftree-ch -ftree-coalesce-vars
  74              	@ -ftree-copy-prop -ftree-cselim -ftree-dce -ftree-dominator-opts
  75              	@ -ftree-dse -ftree-forwprop -ftree-fre -ftree-loop-distribute-patterns
  76              	@ -ftree-loop-distribution -ftree-loop-if-convert -ftree-loop-im
  77              	@ -ftree-loop-ivcanon -ftree-loop-optimize -ftree-loop-vectorize
  78              	@ -ftree-parallelize-loops= -ftree-partial-pre -ftree-phiprop -ftree-pre
  79              	@ -ftree-pta -ftree-reassoc -ftree-scev-cprop -ftree-sink
  80              	@ -ftree-slp-vectorize -ftree-slsr -ftree-sra -ftree-switch-conversion
  81              	@ -ftree-tail-merge -ftree-ter -ftree-vrp -funit-at-a-time
  82              	@ -funsafe-math-optimizations -funswitch-loops -fvar-tracking
  83              	@ -fvar-tracking-assignments -fverbose-asm -fversion-loops-for-strides
  84              	@ -fzero-initialized-in-bss -masm-syntax-unified -mbe32 -mlittle-endian
  85              	@ -mpic-data-is-text-relative -msched-prolog -mthumb -munaligned-access
  86              	@ -mvectorize-with-neon-quad
  87              	
  88              		.text
  89              	.Ltext0:
  90              		.cfi_sections	.debug_frame
  91              		.section	.text.DeInit,"ax",%progbits
  92              		.align	1
  93              		.p2align 2,,3
  94              		.syntax unified
  95              		.thumb
  96              		.thumb_func
  97              		.type	DeInit, %function
  98              	DeInit:
  99              	.LVL0:
 100              	.LFB111:
 101              		.file 1 "../Libraries/STM32_USB_Device_Library/Class/audio/src/usbd_audio_out_if.c"
   1:../Libraries/STM32_USB_Device_Library/Class/audio/src/usbd_audio_out_if.c **** /**
   2:../Libraries/STM32_USB_Device_Library/Class/audio/src/usbd_audio_out_if.c ****   ******************************************************************************
   3:../Libraries/STM32_USB_Device_Library/Class/audio/src/usbd_audio_out_if.c ****   * @file    usbd_audio_out_if.c
   4:../Libraries/STM32_USB_Device_Library/Class/audio/src/usbd_audio_out_if.c ****   * @author  MCD Application Team
   5:../Libraries/STM32_USB_Device_Library/Class/audio/src/usbd_audio_out_if.c ****   * @version V1.0.0
   6:../Libraries/STM32_USB_Device_Library/Class/audio/src/usbd_audio_out_if.c ****   * @date    22-July-2011
   7:../Libraries/STM32_USB_Device_Library/Class/audio/src/usbd_audio_out_if.c ****   * @brief   This file provides the Audio Out (palyback) interface API.
   8:../Libraries/STM32_USB_Device_Library/Class/audio/src/usbd_audio_out_if.c ****   ******************************************************************************
   9:../Libraries/STM32_USB_Device_Library/Class/audio/src/usbd_audio_out_if.c ****   * @attention
  10:../Libraries/STM32_USB_Device_Library/Class/audio/src/usbd_audio_out_if.c ****   *
  11:../Libraries/STM32_USB_Device_Library/Class/audio/src/usbd_audio_out_if.c ****   * THE PRESENT FIRMWARE WHICH IS FOR GUIDANCE ONLY AIMS AT PROVIDING CUSTOMERS
  12:../Libraries/STM32_USB_Device_Library/Class/audio/src/usbd_audio_out_if.c ****   * WITH CODING INFORMATION REGARDING THEIR PRODUCTS IN ORDER FOR THEM TO SAVE
  13:../Libraries/STM32_USB_Device_Library/Class/audio/src/usbd_audio_out_if.c ****   * TIME. AS A RESULT, STMICROELECTRONICS SHALL NOT BE HELD LIABLE FOR ANY
ARM GAS  C:\Users\admin\AppData\Local\Temp\ccCOwQsQ.s 			page 3


  14:../Libraries/STM32_USB_Device_Library/Class/audio/src/usbd_audio_out_if.c ****   * DIRECT, INDIRECT OR CONSEQUENTIAL DAMAGES WITH RESPECT TO ANY CLAIMS ARISING
  15:../Libraries/STM32_USB_Device_Library/Class/audio/src/usbd_audio_out_if.c ****   * FROM THE CONTENT OF SUCH FIRMWARE AND/OR THE USE MADE BY CUSTOMERS OF THE
  16:../Libraries/STM32_USB_Device_Library/Class/audio/src/usbd_audio_out_if.c ****   * CODING INFORMATION CONTAINED HEREIN IN CONNECTION WITH THEIR PRODUCTS.
  17:../Libraries/STM32_USB_Device_Library/Class/audio/src/usbd_audio_out_if.c ****   *
  18:../Libraries/STM32_USB_Device_Library/Class/audio/src/usbd_audio_out_if.c ****   * <h2><center>&copy; COPYRIGHT 2011 STMicroelectronics</center></h2>
  19:../Libraries/STM32_USB_Device_Library/Class/audio/src/usbd_audio_out_if.c ****   ******************************************************************************
  20:../Libraries/STM32_USB_Device_Library/Class/audio/src/usbd_audio_out_if.c ****   */ 
  21:../Libraries/STM32_USB_Device_Library/Class/audio/src/usbd_audio_out_if.c **** 
  22:../Libraries/STM32_USB_Device_Library/Class/audio/src/usbd_audio_out_if.c **** /* Includes ------------------------------------------------------------------*/
  23:../Libraries/STM32_USB_Device_Library/Class/audio/src/usbd_audio_out_if.c **** #include "usbd_audio_core.h"
  24:../Libraries/STM32_USB_Device_Library/Class/audio/src/usbd_audio_out_if.c **** #include "usbd_audio_out_if.h"
  25:../Libraries/STM32_USB_Device_Library/Class/audio/src/usbd_audio_out_if.c **** #include <stm32f4_discovery_audio_codec.h>
  26:../Libraries/STM32_USB_Device_Library/Class/audio/src/usbd_audio_out_if.c **** 
  27:../Libraries/STM32_USB_Device_Library/Class/audio/src/usbd_audio_out_if.c **** 
  28:../Libraries/STM32_USB_Device_Library/Class/audio/src/usbd_audio_out_if.c **** 
  29:../Libraries/STM32_USB_Device_Library/Class/audio/src/usbd_audio_out_if.c **** /** @addtogroup STM32_USB_OTG_DEVICE_LIBRARY
  30:../Libraries/STM32_USB_Device_Library/Class/audio/src/usbd_audio_out_if.c ****   * @{
  31:../Libraries/STM32_USB_Device_Library/Class/audio/src/usbd_audio_out_if.c ****   */
  32:../Libraries/STM32_USB_Device_Library/Class/audio/src/usbd_audio_out_if.c **** 
  33:../Libraries/STM32_USB_Device_Library/Class/audio/src/usbd_audio_out_if.c **** 
  34:../Libraries/STM32_USB_Device_Library/Class/audio/src/usbd_audio_out_if.c **** /** @defgroup usbd_audio_out_if 
  35:../Libraries/STM32_USB_Device_Library/Class/audio/src/usbd_audio_out_if.c ****   * @brief usbd out interface module
  36:../Libraries/STM32_USB_Device_Library/Class/audio/src/usbd_audio_out_if.c ****   * @{
  37:../Libraries/STM32_USB_Device_Library/Class/audio/src/usbd_audio_out_if.c ****   */ 
  38:../Libraries/STM32_USB_Device_Library/Class/audio/src/usbd_audio_out_if.c **** 
  39:../Libraries/STM32_USB_Device_Library/Class/audio/src/usbd_audio_out_if.c **** /** @defgroup usbd_audio_out_if_Private_TypesDefinitions
  40:../Libraries/STM32_USB_Device_Library/Class/audio/src/usbd_audio_out_if.c ****   * @{
  41:../Libraries/STM32_USB_Device_Library/Class/audio/src/usbd_audio_out_if.c ****   */ 
  42:../Libraries/STM32_USB_Device_Library/Class/audio/src/usbd_audio_out_if.c **** /**
  43:../Libraries/STM32_USB_Device_Library/Class/audio/src/usbd_audio_out_if.c ****   * @}
  44:../Libraries/STM32_USB_Device_Library/Class/audio/src/usbd_audio_out_if.c ****   */ 
  45:../Libraries/STM32_USB_Device_Library/Class/audio/src/usbd_audio_out_if.c **** 
  46:../Libraries/STM32_USB_Device_Library/Class/audio/src/usbd_audio_out_if.c **** 
  47:../Libraries/STM32_USB_Device_Library/Class/audio/src/usbd_audio_out_if.c **** /** @defgroup usbd_audio_out_if_Private_Defines
  48:../Libraries/STM32_USB_Device_Library/Class/audio/src/usbd_audio_out_if.c ****   * @{
  49:../Libraries/STM32_USB_Device_Library/Class/audio/src/usbd_audio_out_if.c ****   */ 
  50:../Libraries/STM32_USB_Device_Library/Class/audio/src/usbd_audio_out_if.c **** /**
  51:../Libraries/STM32_USB_Device_Library/Class/audio/src/usbd_audio_out_if.c ****   * @}
  52:../Libraries/STM32_USB_Device_Library/Class/audio/src/usbd_audio_out_if.c ****   */ 
  53:../Libraries/STM32_USB_Device_Library/Class/audio/src/usbd_audio_out_if.c **** 
  54:../Libraries/STM32_USB_Device_Library/Class/audio/src/usbd_audio_out_if.c **** 
  55:../Libraries/STM32_USB_Device_Library/Class/audio/src/usbd_audio_out_if.c **** /** @defgroup usbd_audio_out_if_Private_Macros
  56:../Libraries/STM32_USB_Device_Library/Class/audio/src/usbd_audio_out_if.c ****   * @{
  57:../Libraries/STM32_USB_Device_Library/Class/audio/src/usbd_audio_out_if.c ****   */ 
  58:../Libraries/STM32_USB_Device_Library/Class/audio/src/usbd_audio_out_if.c **** /**
  59:../Libraries/STM32_USB_Device_Library/Class/audio/src/usbd_audio_out_if.c ****   * @}
  60:../Libraries/STM32_USB_Device_Library/Class/audio/src/usbd_audio_out_if.c ****   */ 
  61:../Libraries/STM32_USB_Device_Library/Class/audio/src/usbd_audio_out_if.c **** 
  62:../Libraries/STM32_USB_Device_Library/Class/audio/src/usbd_audio_out_if.c **** 
  63:../Libraries/STM32_USB_Device_Library/Class/audio/src/usbd_audio_out_if.c **** /** @defgroup usbd_audio_out_if_Private_FunctionPrototypes
  64:../Libraries/STM32_USB_Device_Library/Class/audio/src/usbd_audio_out_if.c ****   * @{
  65:../Libraries/STM32_USB_Device_Library/Class/audio/src/usbd_audio_out_if.c ****   */
  66:../Libraries/STM32_USB_Device_Library/Class/audio/src/usbd_audio_out_if.c **** static uint8_t  Init         (uint32_t  AudioFreq, uint32_t Volume, uint32_t options);
  67:../Libraries/STM32_USB_Device_Library/Class/audio/src/usbd_audio_out_if.c **** static uint8_t  DeInit       (uint32_t options);
  68:../Libraries/STM32_USB_Device_Library/Class/audio/src/usbd_audio_out_if.c **** static uint8_t  AudioCmd     (uint8_t* pbuf, uint32_t size, uint8_t cmd);
  69:../Libraries/STM32_USB_Device_Library/Class/audio/src/usbd_audio_out_if.c **** static uint8_t  VolumeCtl    (uint8_t vol);
  70:../Libraries/STM32_USB_Device_Library/Class/audio/src/usbd_audio_out_if.c **** static uint8_t  MuteCtl      (uint8_t cmd);
ARM GAS  C:\Users\admin\AppData\Local\Temp\ccCOwQsQ.s 			page 4


  71:../Libraries/STM32_USB_Device_Library/Class/audio/src/usbd_audio_out_if.c **** static uint8_t  PeriodicTC   (uint8_t cmd);
  72:../Libraries/STM32_USB_Device_Library/Class/audio/src/usbd_audio_out_if.c **** static uint8_t  GetState     (void);
  73:../Libraries/STM32_USB_Device_Library/Class/audio/src/usbd_audio_out_if.c **** 
  74:../Libraries/STM32_USB_Device_Library/Class/audio/src/usbd_audio_out_if.c **** /**
  75:../Libraries/STM32_USB_Device_Library/Class/audio/src/usbd_audio_out_if.c ****   * @}
  76:../Libraries/STM32_USB_Device_Library/Class/audio/src/usbd_audio_out_if.c ****   */ 
  77:../Libraries/STM32_USB_Device_Library/Class/audio/src/usbd_audio_out_if.c **** 
  78:../Libraries/STM32_USB_Device_Library/Class/audio/src/usbd_audio_out_if.c **** /** @defgroup usbd_audio_out_if_Private_Variables
  79:../Libraries/STM32_USB_Device_Library/Class/audio/src/usbd_audio_out_if.c ****   * @{
  80:../Libraries/STM32_USB_Device_Library/Class/audio/src/usbd_audio_out_if.c ****   */ 
  81:../Libraries/STM32_USB_Device_Library/Class/audio/src/usbd_audio_out_if.c **** AUDIO_FOPS_TypeDef  AUDIO_OUT_fops = 
  82:../Libraries/STM32_USB_Device_Library/Class/audio/src/usbd_audio_out_if.c **** {
  83:../Libraries/STM32_USB_Device_Library/Class/audio/src/usbd_audio_out_if.c ****   Init,
  84:../Libraries/STM32_USB_Device_Library/Class/audio/src/usbd_audio_out_if.c ****   DeInit,
  85:../Libraries/STM32_USB_Device_Library/Class/audio/src/usbd_audio_out_if.c ****   AudioCmd,
  86:../Libraries/STM32_USB_Device_Library/Class/audio/src/usbd_audio_out_if.c ****   VolumeCtl,
  87:../Libraries/STM32_USB_Device_Library/Class/audio/src/usbd_audio_out_if.c ****   MuteCtl,
  88:../Libraries/STM32_USB_Device_Library/Class/audio/src/usbd_audio_out_if.c ****   PeriodicTC,
  89:../Libraries/STM32_USB_Device_Library/Class/audio/src/usbd_audio_out_if.c ****   GetState
  90:../Libraries/STM32_USB_Device_Library/Class/audio/src/usbd_audio_out_if.c **** };
  91:../Libraries/STM32_USB_Device_Library/Class/audio/src/usbd_audio_out_if.c **** 
  92:../Libraries/STM32_USB_Device_Library/Class/audio/src/usbd_audio_out_if.c **** static uint8_t AudioState = AUDIO_STATE_INACTIVE;
  93:../Libraries/STM32_USB_Device_Library/Class/audio/src/usbd_audio_out_if.c **** 
  94:../Libraries/STM32_USB_Device_Library/Class/audio/src/usbd_audio_out_if.c **** /**
  95:../Libraries/STM32_USB_Device_Library/Class/audio/src/usbd_audio_out_if.c ****   * @}
  96:../Libraries/STM32_USB_Device_Library/Class/audio/src/usbd_audio_out_if.c ****   */ 
  97:../Libraries/STM32_USB_Device_Library/Class/audio/src/usbd_audio_out_if.c **** 
  98:../Libraries/STM32_USB_Device_Library/Class/audio/src/usbd_audio_out_if.c **** /** @defgroup usbd_audio_out_if_Private_Functions
  99:../Libraries/STM32_USB_Device_Library/Class/audio/src/usbd_audio_out_if.c ****   * @{
 100:../Libraries/STM32_USB_Device_Library/Class/audio/src/usbd_audio_out_if.c ****   */ 
 101:../Libraries/STM32_USB_Device_Library/Class/audio/src/usbd_audio_out_if.c **** 
 102:../Libraries/STM32_USB_Device_Library/Class/audio/src/usbd_audio_out_if.c **** /**
 103:../Libraries/STM32_USB_Device_Library/Class/audio/src/usbd_audio_out_if.c ****   * @brief  Init
 104:../Libraries/STM32_USB_Device_Library/Class/audio/src/usbd_audio_out_if.c ****   *         Initialize and configures all required resources for audio play function.
 105:../Libraries/STM32_USB_Device_Library/Class/audio/src/usbd_audio_out_if.c ****   * @param  AudioFreq: Statrtup audio frequency. 
 106:../Libraries/STM32_USB_Device_Library/Class/audio/src/usbd_audio_out_if.c ****   * @param  Volume: Startup volume to be set.
 107:../Libraries/STM32_USB_Device_Library/Class/audio/src/usbd_audio_out_if.c ****   * @param  options: specific options passed to low layer function.
 108:../Libraries/STM32_USB_Device_Library/Class/audio/src/usbd_audio_out_if.c ****   * @retval AUDIO_OK if all operations succeed, AUDIO_FAIL else.
 109:../Libraries/STM32_USB_Device_Library/Class/audio/src/usbd_audio_out_if.c ****   */
 110:../Libraries/STM32_USB_Device_Library/Class/audio/src/usbd_audio_out_if.c **** static uint8_t  Init         (uint32_t AudioFreq, 
 111:../Libraries/STM32_USB_Device_Library/Class/audio/src/usbd_audio_out_if.c ****                               uint32_t Volume, 
 112:../Libraries/STM32_USB_Device_Library/Class/audio/src/usbd_audio_out_if.c ****                               uint32_t options)
 113:../Libraries/STM32_USB_Device_Library/Class/audio/src/usbd_audio_out_if.c **** {
 114:../Libraries/STM32_USB_Device_Library/Class/audio/src/usbd_audio_out_if.c ****   static uint32_t Initialized = 0;
 115:../Libraries/STM32_USB_Device_Library/Class/audio/src/usbd_audio_out_if.c ****   
 116:../Libraries/STM32_USB_Device_Library/Class/audio/src/usbd_audio_out_if.c ****   /* Check if the low layer has already been initialized */
 117:../Libraries/STM32_USB_Device_Library/Class/audio/src/usbd_audio_out_if.c ****   if (Initialized == 0)
 118:../Libraries/STM32_USB_Device_Library/Class/audio/src/usbd_audio_out_if.c ****   {
 119:../Libraries/STM32_USB_Device_Library/Class/audio/src/usbd_audio_out_if.c ****     /* Call low layer function */
 120:../Libraries/STM32_USB_Device_Library/Class/audio/src/usbd_audio_out_if.c ****     if (EVAL_AUDIO_Init(OUTPUT_DEVICE_AUTO, Volume, AudioFreq) != 0)
 121:../Libraries/STM32_USB_Device_Library/Class/audio/src/usbd_audio_out_if.c ****     {
 122:../Libraries/STM32_USB_Device_Library/Class/audio/src/usbd_audio_out_if.c ****       AudioState = AUDIO_STATE_ERROR;
 123:../Libraries/STM32_USB_Device_Library/Class/audio/src/usbd_audio_out_if.c ****       return AUDIO_FAIL;
 124:../Libraries/STM32_USB_Device_Library/Class/audio/src/usbd_audio_out_if.c ****     }
 125:../Libraries/STM32_USB_Device_Library/Class/audio/src/usbd_audio_out_if.c ****     
 126:../Libraries/STM32_USB_Device_Library/Class/audio/src/usbd_audio_out_if.c ****     /* Set the Initialization flag to prevent reinitializing the interface again */
 127:../Libraries/STM32_USB_Device_Library/Class/audio/src/usbd_audio_out_if.c ****     Initialized = 1;
ARM GAS  C:\Users\admin\AppData\Local\Temp\ccCOwQsQ.s 			page 5


 128:../Libraries/STM32_USB_Device_Library/Class/audio/src/usbd_audio_out_if.c ****   }
 129:../Libraries/STM32_USB_Device_Library/Class/audio/src/usbd_audio_out_if.c ****   
 130:../Libraries/STM32_USB_Device_Library/Class/audio/src/usbd_audio_out_if.c ****   /* Update the Audio state machine */
 131:../Libraries/STM32_USB_Device_Library/Class/audio/src/usbd_audio_out_if.c ****   AudioState = AUDIO_STATE_ACTIVE;
 132:../Libraries/STM32_USB_Device_Library/Class/audio/src/usbd_audio_out_if.c ****     
 133:../Libraries/STM32_USB_Device_Library/Class/audio/src/usbd_audio_out_if.c ****   return AUDIO_OK;
 134:../Libraries/STM32_USB_Device_Library/Class/audio/src/usbd_audio_out_if.c **** }
 135:../Libraries/STM32_USB_Device_Library/Class/audio/src/usbd_audio_out_if.c **** 
 136:../Libraries/STM32_USB_Device_Library/Class/audio/src/usbd_audio_out_if.c **** /**
 137:../Libraries/STM32_USB_Device_Library/Class/audio/src/usbd_audio_out_if.c ****   * @brief  DeInit
 138:../Libraries/STM32_USB_Device_Library/Class/audio/src/usbd_audio_out_if.c ****   *         Free all resources used by low layer and stops audio-play function.
 139:../Libraries/STM32_USB_Device_Library/Class/audio/src/usbd_audio_out_if.c ****   * @param  options: options passed to low layer function.
 140:../Libraries/STM32_USB_Device_Library/Class/audio/src/usbd_audio_out_if.c ****   * @retval AUDIO_OK if all operations succeed, AUDIO_FAIL else.
 141:../Libraries/STM32_USB_Device_Library/Class/audio/src/usbd_audio_out_if.c ****   */
 142:../Libraries/STM32_USB_Device_Library/Class/audio/src/usbd_audio_out_if.c **** static uint8_t  DeInit       (uint32_t options)
 143:../Libraries/STM32_USB_Device_Library/Class/audio/src/usbd_audio_out_if.c **** {
 102              		.loc 1 143 1 view -0
 103              		.cfi_startproc
 104              		@ args = 0, pretend = 0, frame = 0
 105              		@ frame_needed = 0, uses_anonymous_args = 0
 106              		@ link register save eliminated.
 144:../Libraries/STM32_USB_Device_Library/Class/audio/src/usbd_audio_out_if.c ****   /* Update the Audio state machine */
 145:../Libraries/STM32_USB_Device_Library/Class/audio/src/usbd_audio_out_if.c ****   AudioState = AUDIO_STATE_INACTIVE;
 107              		.loc 1 145 3 view .LVU1
 108              	@ ../Libraries/STM32_USB_Device_Library/Class/audio/src/usbd_audio_out_if.c:145:   AudioState = AUD
 109              		.loc 1 145 14 is_stmt 0 view .LVU2
 110 0000 014B     		ldr	r3, .L3	@ tmp115,
 111 0002 0020     		movs	r0, #0	@ tmp116,
 112              	.LVL1:
 113              		.loc 1 145 14 view .LVU3
 114 0004 1870     		strb	r0, [r3]	@ tmp116, AudioState
 146:../Libraries/STM32_USB_Device_Library/Class/audio/src/usbd_audio_out_if.c ****   
 147:../Libraries/STM32_USB_Device_Library/Class/audio/src/usbd_audio_out_if.c ****   return AUDIO_OK;
 115              		.loc 1 147 3 is_stmt 1 view .LVU4
 116              	@ ../Libraries/STM32_USB_Device_Library/Class/audio/src/usbd_audio_out_if.c:148: }
 148:../Libraries/STM32_USB_Device_Library/Class/audio/src/usbd_audio_out_if.c **** }
 117              		.loc 1 148 1 is_stmt 0 view .LVU5
 118 0006 7047     		bx	lr	@
 119              	.L4:
 120              		.align	2
 121              	.L3:
 122 0008 00000000 		.word	.LANCHOR0
 123              		.cfi_endproc
 124              	.LFE111:
 125              		.size	DeInit, .-DeInit
 126              		.section	.text.PeriodicTC,"ax",%progbits
 127              		.align	1
 128              		.p2align 2,,3
 129              		.syntax unified
 130              		.thumb
 131              		.thumb_func
 132              		.type	PeriodicTC, %function
 133              	PeriodicTC:
 134              	.LVL2:
 135              	.LFB115:
 149:../Libraries/STM32_USB_Device_Library/Class/audio/src/usbd_audio_out_if.c **** 
 150:../Libraries/STM32_USB_Device_Library/Class/audio/src/usbd_audio_out_if.c **** /**
ARM GAS  C:\Users\admin\AppData\Local\Temp\ccCOwQsQ.s 			page 6


 151:../Libraries/STM32_USB_Device_Library/Class/audio/src/usbd_audio_out_if.c ****   * @brief  AudioCmd 
 152:../Libraries/STM32_USB_Device_Library/Class/audio/src/usbd_audio_out_if.c ****   *         Play, Stop, Pause or Resume current file.
 153:../Libraries/STM32_USB_Device_Library/Class/audio/src/usbd_audio_out_if.c ****   * @param  pbuf: address from which file shoud be played.
 154:../Libraries/STM32_USB_Device_Library/Class/audio/src/usbd_audio_out_if.c ****   * @param  size: size of the current buffer/file.
 155:../Libraries/STM32_USB_Device_Library/Class/audio/src/usbd_audio_out_if.c ****   * @param  cmd: command to be executed, can be AUDIO_CMD_PLAY , AUDIO_CMD_PAUSE, 
 156:../Libraries/STM32_USB_Device_Library/Class/audio/src/usbd_audio_out_if.c ****   *              AUDIO_CMD_RESUME or AUDIO_CMD_STOP.
 157:../Libraries/STM32_USB_Device_Library/Class/audio/src/usbd_audio_out_if.c ****   * @retval AUDIO_OK if all operations succeed, AUDIO_FAIL else.
 158:../Libraries/STM32_USB_Device_Library/Class/audio/src/usbd_audio_out_if.c ****   */
 159:../Libraries/STM32_USB_Device_Library/Class/audio/src/usbd_audio_out_if.c **** static uint8_t  AudioCmd(uint8_t* pbuf, 
 160:../Libraries/STM32_USB_Device_Library/Class/audio/src/usbd_audio_out_if.c ****                          uint32_t size,
 161:../Libraries/STM32_USB_Device_Library/Class/audio/src/usbd_audio_out_if.c ****                          uint8_t cmd)
 162:../Libraries/STM32_USB_Device_Library/Class/audio/src/usbd_audio_out_if.c **** {
 163:../Libraries/STM32_USB_Device_Library/Class/audio/src/usbd_audio_out_if.c ****   /* Check the current state */
 164:../Libraries/STM32_USB_Device_Library/Class/audio/src/usbd_audio_out_if.c ****   if ((AudioState == AUDIO_STATE_INACTIVE) || (AudioState == AUDIO_STATE_ERROR))
 165:../Libraries/STM32_USB_Device_Library/Class/audio/src/usbd_audio_out_if.c ****   {
 166:../Libraries/STM32_USB_Device_Library/Class/audio/src/usbd_audio_out_if.c ****     AudioState = AUDIO_STATE_ERROR;
 167:../Libraries/STM32_USB_Device_Library/Class/audio/src/usbd_audio_out_if.c ****     return AUDIO_FAIL;
 168:../Libraries/STM32_USB_Device_Library/Class/audio/src/usbd_audio_out_if.c ****   }
 169:../Libraries/STM32_USB_Device_Library/Class/audio/src/usbd_audio_out_if.c ****   
 170:../Libraries/STM32_USB_Device_Library/Class/audio/src/usbd_audio_out_if.c ****   switch (cmd)
 171:../Libraries/STM32_USB_Device_Library/Class/audio/src/usbd_audio_out_if.c ****   {
 172:../Libraries/STM32_USB_Device_Library/Class/audio/src/usbd_audio_out_if.c ****     /* Process the PLAY command ----------------------------*/
 173:../Libraries/STM32_USB_Device_Library/Class/audio/src/usbd_audio_out_if.c ****   case AUDIO_CMD_PLAY:
 174:../Libraries/STM32_USB_Device_Library/Class/audio/src/usbd_audio_out_if.c ****     /* If current state is Active or Stopped */
 175:../Libraries/STM32_USB_Device_Library/Class/audio/src/usbd_audio_out_if.c ****     if ((AudioState == AUDIO_STATE_ACTIVE) || \
 176:../Libraries/STM32_USB_Device_Library/Class/audio/src/usbd_audio_out_if.c ****        (AudioState == AUDIO_STATE_STOPPED) || \
 177:../Libraries/STM32_USB_Device_Library/Class/audio/src/usbd_audio_out_if.c ****        (AudioState == AUDIO_STATE_PLAYING))
 178:../Libraries/STM32_USB_Device_Library/Class/audio/src/usbd_audio_out_if.c ****     {
 179:../Libraries/STM32_USB_Device_Library/Class/audio/src/usbd_audio_out_if.c ****       Audio_MAL_Play((uint32_t)pbuf, (size/2));
 180:../Libraries/STM32_USB_Device_Library/Class/audio/src/usbd_audio_out_if.c ****       AudioState = AUDIO_STATE_PLAYING;
 181:../Libraries/STM32_USB_Device_Library/Class/audio/src/usbd_audio_out_if.c ****       return AUDIO_OK;
 182:../Libraries/STM32_USB_Device_Library/Class/audio/src/usbd_audio_out_if.c ****     }
 183:../Libraries/STM32_USB_Device_Library/Class/audio/src/usbd_audio_out_if.c ****     /* If current state is Paused */
 184:../Libraries/STM32_USB_Device_Library/Class/audio/src/usbd_audio_out_if.c ****     else if (AudioState == AUDIO_STATE_PAUSED)
 185:../Libraries/STM32_USB_Device_Library/Class/audio/src/usbd_audio_out_if.c ****     {
 186:../Libraries/STM32_USB_Device_Library/Class/audio/src/usbd_audio_out_if.c ****       if (EVAL_AUDIO_PauseResume(AUDIO_RESUME /*, (uint32_t)pbuf, (size/2)*/) != 0)
 187:../Libraries/STM32_USB_Device_Library/Class/audio/src/usbd_audio_out_if.c ****       {
 188:../Libraries/STM32_USB_Device_Library/Class/audio/src/usbd_audio_out_if.c ****         AudioState = AUDIO_STATE_ERROR;
 189:../Libraries/STM32_USB_Device_Library/Class/audio/src/usbd_audio_out_if.c ****         return AUDIO_FAIL;
 190:../Libraries/STM32_USB_Device_Library/Class/audio/src/usbd_audio_out_if.c ****       }
 191:../Libraries/STM32_USB_Device_Library/Class/audio/src/usbd_audio_out_if.c ****       else
 192:../Libraries/STM32_USB_Device_Library/Class/audio/src/usbd_audio_out_if.c ****       {
 193:../Libraries/STM32_USB_Device_Library/Class/audio/src/usbd_audio_out_if.c ****         AudioState = AUDIO_STATE_PLAYING;
 194:../Libraries/STM32_USB_Device_Library/Class/audio/src/usbd_audio_out_if.c ****         return AUDIO_OK;
 195:../Libraries/STM32_USB_Device_Library/Class/audio/src/usbd_audio_out_if.c ****       } 
 196:../Libraries/STM32_USB_Device_Library/Class/audio/src/usbd_audio_out_if.c ****     } 
 197:../Libraries/STM32_USB_Device_Library/Class/audio/src/usbd_audio_out_if.c ****     else /* Not allowed command */
 198:../Libraries/STM32_USB_Device_Library/Class/audio/src/usbd_audio_out_if.c ****     {
 199:../Libraries/STM32_USB_Device_Library/Class/audio/src/usbd_audio_out_if.c ****       return AUDIO_FAIL;
 200:../Libraries/STM32_USB_Device_Library/Class/audio/src/usbd_audio_out_if.c ****     }
 201:../Libraries/STM32_USB_Device_Library/Class/audio/src/usbd_audio_out_if.c ****     
 202:../Libraries/STM32_USB_Device_Library/Class/audio/src/usbd_audio_out_if.c ****     /* Process the STOP command ----------------------------*/
 203:../Libraries/STM32_USB_Device_Library/Class/audio/src/usbd_audio_out_if.c ****   case AUDIO_CMD_STOP:
 204:../Libraries/STM32_USB_Device_Library/Class/audio/src/usbd_audio_out_if.c ****     if (AudioState != AUDIO_STATE_PLAYING)
 205:../Libraries/STM32_USB_Device_Library/Class/audio/src/usbd_audio_out_if.c ****     {
 206:../Libraries/STM32_USB_Device_Library/Class/audio/src/usbd_audio_out_if.c ****       /* Unsupported command */
 207:../Libraries/STM32_USB_Device_Library/Class/audio/src/usbd_audio_out_if.c ****       return AUDIO_FAIL;
ARM GAS  C:\Users\admin\AppData\Local\Temp\ccCOwQsQ.s 			page 7


 208:../Libraries/STM32_USB_Device_Library/Class/audio/src/usbd_audio_out_if.c ****     }
 209:../Libraries/STM32_USB_Device_Library/Class/audio/src/usbd_audio_out_if.c ****     else if (EVAL_AUDIO_Stop(CODEC_PDWN_SW) != 0)
 210:../Libraries/STM32_USB_Device_Library/Class/audio/src/usbd_audio_out_if.c ****     {
 211:../Libraries/STM32_USB_Device_Library/Class/audio/src/usbd_audio_out_if.c ****       AudioState = AUDIO_STATE_ERROR;
 212:../Libraries/STM32_USB_Device_Library/Class/audio/src/usbd_audio_out_if.c ****       return AUDIO_FAIL;
 213:../Libraries/STM32_USB_Device_Library/Class/audio/src/usbd_audio_out_if.c ****     }
 214:../Libraries/STM32_USB_Device_Library/Class/audio/src/usbd_audio_out_if.c ****     else
 215:../Libraries/STM32_USB_Device_Library/Class/audio/src/usbd_audio_out_if.c ****     {
 216:../Libraries/STM32_USB_Device_Library/Class/audio/src/usbd_audio_out_if.c ****       AudioState = AUDIO_STATE_STOPPED;
 217:../Libraries/STM32_USB_Device_Library/Class/audio/src/usbd_audio_out_if.c ****       return AUDIO_OK;
 218:../Libraries/STM32_USB_Device_Library/Class/audio/src/usbd_audio_out_if.c ****     }
 219:../Libraries/STM32_USB_Device_Library/Class/audio/src/usbd_audio_out_if.c ****   
 220:../Libraries/STM32_USB_Device_Library/Class/audio/src/usbd_audio_out_if.c ****     /* Process the PAUSE command ---------------------------*/
 221:../Libraries/STM32_USB_Device_Library/Class/audio/src/usbd_audio_out_if.c ****   case AUDIO_CMD_PAUSE:
 222:../Libraries/STM32_USB_Device_Library/Class/audio/src/usbd_audio_out_if.c ****     if (AudioState != AUDIO_STATE_PLAYING)
 223:../Libraries/STM32_USB_Device_Library/Class/audio/src/usbd_audio_out_if.c ****     {
 224:../Libraries/STM32_USB_Device_Library/Class/audio/src/usbd_audio_out_if.c ****       /* Unsupported command */
 225:../Libraries/STM32_USB_Device_Library/Class/audio/src/usbd_audio_out_if.c ****       return AUDIO_FAIL;
 226:../Libraries/STM32_USB_Device_Library/Class/audio/src/usbd_audio_out_if.c ****     }
 227:../Libraries/STM32_USB_Device_Library/Class/audio/src/usbd_audio_out_if.c ****     else if (EVAL_AUDIO_PauseResume(AUDIO_PAUSE /*, (uint32_t)pbuf, (size/2)*/) != 0)
 228:../Libraries/STM32_USB_Device_Library/Class/audio/src/usbd_audio_out_if.c ****     {
 229:../Libraries/STM32_USB_Device_Library/Class/audio/src/usbd_audio_out_if.c ****       AudioState = AUDIO_STATE_ERROR;
 230:../Libraries/STM32_USB_Device_Library/Class/audio/src/usbd_audio_out_if.c ****       return AUDIO_FAIL;
 231:../Libraries/STM32_USB_Device_Library/Class/audio/src/usbd_audio_out_if.c ****     }
 232:../Libraries/STM32_USB_Device_Library/Class/audio/src/usbd_audio_out_if.c ****     else
 233:../Libraries/STM32_USB_Device_Library/Class/audio/src/usbd_audio_out_if.c ****     {
 234:../Libraries/STM32_USB_Device_Library/Class/audio/src/usbd_audio_out_if.c ****       AudioState = AUDIO_STATE_PAUSED;
 235:../Libraries/STM32_USB_Device_Library/Class/audio/src/usbd_audio_out_if.c ****       return AUDIO_OK;
 236:../Libraries/STM32_USB_Device_Library/Class/audio/src/usbd_audio_out_if.c ****     } 
 237:../Libraries/STM32_USB_Device_Library/Class/audio/src/usbd_audio_out_if.c ****     
 238:../Libraries/STM32_USB_Device_Library/Class/audio/src/usbd_audio_out_if.c ****     /* Unsupported command ---------------------------------*/
 239:../Libraries/STM32_USB_Device_Library/Class/audio/src/usbd_audio_out_if.c ****   default:
 240:../Libraries/STM32_USB_Device_Library/Class/audio/src/usbd_audio_out_if.c ****     return AUDIO_FAIL;
 241:../Libraries/STM32_USB_Device_Library/Class/audio/src/usbd_audio_out_if.c ****   }  
 242:../Libraries/STM32_USB_Device_Library/Class/audio/src/usbd_audio_out_if.c **** }
 243:../Libraries/STM32_USB_Device_Library/Class/audio/src/usbd_audio_out_if.c **** 
 244:../Libraries/STM32_USB_Device_Library/Class/audio/src/usbd_audio_out_if.c **** /**
 245:../Libraries/STM32_USB_Device_Library/Class/audio/src/usbd_audio_out_if.c ****   * @brief  VolumeCtl
 246:../Libraries/STM32_USB_Device_Library/Class/audio/src/usbd_audio_out_if.c ****   *         Set the volume level in %
 247:../Libraries/STM32_USB_Device_Library/Class/audio/src/usbd_audio_out_if.c ****   * @param  vol: volume level to be set in % (from 0% to 100%)
 248:../Libraries/STM32_USB_Device_Library/Class/audio/src/usbd_audio_out_if.c ****   * @retval AUDIO_OK if all operations succeed, AUDIO_FAIL else.
 249:../Libraries/STM32_USB_Device_Library/Class/audio/src/usbd_audio_out_if.c ****   */
 250:../Libraries/STM32_USB_Device_Library/Class/audio/src/usbd_audio_out_if.c **** static uint8_t  VolumeCtl    (uint8_t vol)
 251:../Libraries/STM32_USB_Device_Library/Class/audio/src/usbd_audio_out_if.c **** {
 252:../Libraries/STM32_USB_Device_Library/Class/audio/src/usbd_audio_out_if.c ****   /* Call low layer volume setting function */  
 253:../Libraries/STM32_USB_Device_Library/Class/audio/src/usbd_audio_out_if.c ****   if (EVAL_AUDIO_VolumeCtl(vol) != 0)
 254:../Libraries/STM32_USB_Device_Library/Class/audio/src/usbd_audio_out_if.c ****   {
 255:../Libraries/STM32_USB_Device_Library/Class/audio/src/usbd_audio_out_if.c ****     AudioState = AUDIO_STATE_ERROR;
 256:../Libraries/STM32_USB_Device_Library/Class/audio/src/usbd_audio_out_if.c ****     return AUDIO_FAIL;
 257:../Libraries/STM32_USB_Device_Library/Class/audio/src/usbd_audio_out_if.c ****   }
 258:../Libraries/STM32_USB_Device_Library/Class/audio/src/usbd_audio_out_if.c ****   
 259:../Libraries/STM32_USB_Device_Library/Class/audio/src/usbd_audio_out_if.c ****   return AUDIO_OK;
 260:../Libraries/STM32_USB_Device_Library/Class/audio/src/usbd_audio_out_if.c **** }
 261:../Libraries/STM32_USB_Device_Library/Class/audio/src/usbd_audio_out_if.c **** 
 262:../Libraries/STM32_USB_Device_Library/Class/audio/src/usbd_audio_out_if.c **** /**
 263:../Libraries/STM32_USB_Device_Library/Class/audio/src/usbd_audio_out_if.c ****   * @brief  MuteCtl
 264:../Libraries/STM32_USB_Device_Library/Class/audio/src/usbd_audio_out_if.c ****   *         Mute or Unmute the audio current output
ARM GAS  C:\Users\admin\AppData\Local\Temp\ccCOwQsQ.s 			page 8


 265:../Libraries/STM32_USB_Device_Library/Class/audio/src/usbd_audio_out_if.c ****   * @param  cmd: can be 0 to unmute, or 1 to mute.
 266:../Libraries/STM32_USB_Device_Library/Class/audio/src/usbd_audio_out_if.c ****   * @retval AUDIO_OK if all operations succeed, AUDIO_FAIL else.
 267:../Libraries/STM32_USB_Device_Library/Class/audio/src/usbd_audio_out_if.c ****   */
 268:../Libraries/STM32_USB_Device_Library/Class/audio/src/usbd_audio_out_if.c **** static uint8_t  MuteCtl      (uint8_t cmd)
 269:../Libraries/STM32_USB_Device_Library/Class/audio/src/usbd_audio_out_if.c **** {
 270:../Libraries/STM32_USB_Device_Library/Class/audio/src/usbd_audio_out_if.c ****   /* Call low layer mute setting function */  
 271:../Libraries/STM32_USB_Device_Library/Class/audio/src/usbd_audio_out_if.c ****   if (EVAL_AUDIO_Mute(cmd) != 0)
 272:../Libraries/STM32_USB_Device_Library/Class/audio/src/usbd_audio_out_if.c ****   {
 273:../Libraries/STM32_USB_Device_Library/Class/audio/src/usbd_audio_out_if.c ****     AudioState = AUDIO_STATE_ERROR;
 274:../Libraries/STM32_USB_Device_Library/Class/audio/src/usbd_audio_out_if.c ****     return AUDIO_FAIL;
 275:../Libraries/STM32_USB_Device_Library/Class/audio/src/usbd_audio_out_if.c ****   }
 276:../Libraries/STM32_USB_Device_Library/Class/audio/src/usbd_audio_out_if.c ****   
 277:../Libraries/STM32_USB_Device_Library/Class/audio/src/usbd_audio_out_if.c ****   return AUDIO_OK;
 278:../Libraries/STM32_USB_Device_Library/Class/audio/src/usbd_audio_out_if.c **** }
 279:../Libraries/STM32_USB_Device_Library/Class/audio/src/usbd_audio_out_if.c **** 
 280:../Libraries/STM32_USB_Device_Library/Class/audio/src/usbd_audio_out_if.c **** /**
 281:../Libraries/STM32_USB_Device_Library/Class/audio/src/usbd_audio_out_if.c ****   * @brief  
 282:../Libraries/STM32_USB_Device_Library/Class/audio/src/usbd_audio_out_if.c ****   *         
 283:../Libraries/STM32_USB_Device_Library/Class/audio/src/usbd_audio_out_if.c ****   * @param  
 284:../Libraries/STM32_USB_Device_Library/Class/audio/src/usbd_audio_out_if.c ****   * @param  
 285:../Libraries/STM32_USB_Device_Library/Class/audio/src/usbd_audio_out_if.c ****   * @retval AUDIO_OK if all operations succeed, AUDIO_FAIL else.
 286:../Libraries/STM32_USB_Device_Library/Class/audio/src/usbd_audio_out_if.c ****   */
 287:../Libraries/STM32_USB_Device_Library/Class/audio/src/usbd_audio_out_if.c **** static uint8_t  PeriodicTC   (uint8_t cmd)
 288:../Libraries/STM32_USB_Device_Library/Class/audio/src/usbd_audio_out_if.c **** {
 136              		.loc 1 288 1 is_stmt 1 view -0
 137              		.cfi_startproc
 138              		@ args = 0, pretend = 0, frame = 0
 139              		@ frame_needed = 0, uses_anonymous_args = 0
 140              		@ link register save eliminated.
 289:../Libraries/STM32_USB_Device_Library/Class/audio/src/usbd_audio_out_if.c **** 
 290:../Libraries/STM32_USB_Device_Library/Class/audio/src/usbd_audio_out_if.c ****   
 291:../Libraries/STM32_USB_Device_Library/Class/audio/src/usbd_audio_out_if.c ****   return AUDIO_OK;
 141              		.loc 1 291 3 view .LVU7
 142              	@ ../Libraries/STM32_USB_Device_Library/Class/audio/src/usbd_audio_out_if.c:292: }
 292:../Libraries/STM32_USB_Device_Library/Class/audio/src/usbd_audio_out_if.c **** }
 143              		.loc 1 292 1 is_stmt 0 view .LVU8
 144 0000 0020     		movs	r0, #0	@,
 145              	.LVL3:
 146              		.loc 1 292 1 view .LVU9
 147 0002 7047     		bx	lr	@
 148              		.cfi_endproc
 149              	.LFE115:
 150              		.size	PeriodicTC, .-PeriodicTC
 151              		.section	.text.GetState,"ax",%progbits
 152              		.align	1
 153              		.p2align 2,,3
 154              		.syntax unified
 155              		.thumb
 156              		.thumb_func
 157              		.type	GetState, %function
 158              	GetState:
 159              	.LFB116:
 293:../Libraries/STM32_USB_Device_Library/Class/audio/src/usbd_audio_out_if.c **** 
 294:../Libraries/STM32_USB_Device_Library/Class/audio/src/usbd_audio_out_if.c **** 
 295:../Libraries/STM32_USB_Device_Library/Class/audio/src/usbd_audio_out_if.c **** /**
 296:../Libraries/STM32_USB_Device_Library/Class/audio/src/usbd_audio_out_if.c ****   * @brief  GetState
 297:../Libraries/STM32_USB_Device_Library/Class/audio/src/usbd_audio_out_if.c ****   *         Return the current state of the audio machine
ARM GAS  C:\Users\admin\AppData\Local\Temp\ccCOwQsQ.s 			page 9


 298:../Libraries/STM32_USB_Device_Library/Class/audio/src/usbd_audio_out_if.c ****   * @param  None
 299:../Libraries/STM32_USB_Device_Library/Class/audio/src/usbd_audio_out_if.c ****   * @retval Current State.
 300:../Libraries/STM32_USB_Device_Library/Class/audio/src/usbd_audio_out_if.c ****   */
 301:../Libraries/STM32_USB_Device_Library/Class/audio/src/usbd_audio_out_if.c **** static uint8_t  GetState   (void)
 302:../Libraries/STM32_USB_Device_Library/Class/audio/src/usbd_audio_out_if.c **** {
 160              		.loc 1 302 1 is_stmt 1 view -0
 161              		.cfi_startproc
 162              		@ args = 0, pretend = 0, frame = 0
 163              		@ frame_needed = 0, uses_anonymous_args = 0
 164              		@ link register save eliminated.
 303:../Libraries/STM32_USB_Device_Library/Class/audio/src/usbd_audio_out_if.c ****   return AudioState;
 165              		.loc 1 303 3 view .LVU11
 166              	@ ../Libraries/STM32_USB_Device_Library/Class/audio/src/usbd_audio_out_if.c:303:   return AudioStat
 167              		.loc 1 303 10 is_stmt 0 view .LVU12
 168 0000 014B     		ldr	r3, .L7	@ tmp115,
 169              	@ ../Libraries/STM32_USB_Device_Library/Class/audio/src/usbd_audio_out_if.c:304: }
 304:../Libraries/STM32_USB_Device_Library/Class/audio/src/usbd_audio_out_if.c **** }
 170              		.loc 1 304 1 view .LVU13
 171 0002 1878     		ldrb	r0, [r3]	@ zero_extendqisi2	@, AudioState
 172 0004 7047     		bx	lr	@
 173              	.L8:
 174 0006 00BF     		.align	2
 175              	.L7:
 176 0008 00000000 		.word	.LANCHOR0
 177              		.cfi_endproc
 178              	.LFE116:
 179              		.size	GetState, .-GetState
 180              		.section	.text.MuteCtl,"ax",%progbits
 181              		.align	1
 182              		.p2align 2,,3
 183              		.syntax unified
 184              		.thumb
 185              		.thumb_func
 186              		.type	MuteCtl, %function
 187              	MuteCtl:
 188              	.LVL4:
 189              	.LFB114:
 269:../Libraries/STM32_USB_Device_Library/Class/audio/src/usbd_audio_out_if.c ****   /* Call low layer mute setting function */  
 190              		.loc 1 269 1 is_stmt 1 view -0
 191              		.cfi_startproc
 192              		@ args = 0, pretend = 0, frame = 0
 193              		@ frame_needed = 0, uses_anonymous_args = 0
 271:../Libraries/STM32_USB_Device_Library/Class/audio/src/usbd_audio_out_if.c ****   {
 194              		.loc 1 271 3 view .LVU15
 195              	@ ../Libraries/STM32_USB_Device_Library/Class/audio/src/usbd_audio_out_if.c:269: {
 269:../Libraries/STM32_USB_Device_Library/Class/audio/src/usbd_audio_out_if.c ****   /* Call low layer mute setting function */  
 196              		.loc 1 269 1 is_stmt 0 view .LVU16
 197 0000 08B5     		push	{r3, lr}	@
 198              		.cfi_def_cfa_offset 8
 199              		.cfi_offset 3, -8
 200              		.cfi_offset 14, -4
 201              	@ ../Libraries/STM32_USB_Device_Library/Class/audio/src/usbd_audio_out_if.c:271:   if (EVAL_AUDIO_M
 271:../Libraries/STM32_USB_Device_Library/Class/audio/src/usbd_audio_out_if.c ****   {
 202              		.loc 1 271 7 view .LVU17
 203 0002 FFF7FEFF 		bl	EVAL_AUDIO_Mute		@
 204              	.LVL5:
 205              	@ ../Libraries/STM32_USB_Device_Library/Class/audio/src/usbd_audio_out_if.c:271:   if (EVAL_AUDIO_M
ARM GAS  C:\Users\admin\AppData\Local\Temp\ccCOwQsQ.s 			page 10


 271:../Libraries/STM32_USB_Device_Library/Class/audio/src/usbd_audio_out_if.c ****   {
 206              		.loc 1 271 6 view .LVU18
 207 0006 00B9     		cbnz	r0, .L13	@ _2,
 208              	@ ../Libraries/STM32_USB_Device_Library/Class/audio/src/usbd_audio_out_if.c:278: }
 278:../Libraries/STM32_USB_Device_Library/Class/audio/src/usbd_audio_out_if.c **** 
 209              		.loc 1 278 1 view .LVU19
 210 0008 08BD     		pop	{r3, pc}	@
 211              	.L13:
 273:../Libraries/STM32_USB_Device_Library/Class/audio/src/usbd_audio_out_if.c ****     return AUDIO_FAIL;
 212              		.loc 1 273 5 is_stmt 1 view .LVU20
 213              	@ ../Libraries/STM32_USB_Device_Library/Class/audio/src/usbd_audio_out_if.c:273:     AudioState = A
 273:../Libraries/STM32_USB_Device_Library/Class/audio/src/usbd_audio_out_if.c ****     return AUDIO_FAIL;
 214              		.loc 1 273 16 is_stmt 0 view .LVU21
 215 000a 024B     		ldr	r3, .L14	@ tmp117,
 216 000c 0522     		movs	r2, #5	@ tmp118,
 217 000e 1A70     		strb	r2, [r3]	@ tmp118, AudioState
 274:../Libraries/STM32_USB_Device_Library/Class/audio/src/usbd_audio_out_if.c ****   }
 218              		.loc 1 274 5 is_stmt 1 view .LVU22
 219              	@ ../Libraries/STM32_USB_Device_Library/Class/audio/src/usbd_audio_out_if.c:274:     return AUDIO_F
 274:../Libraries/STM32_USB_Device_Library/Class/audio/src/usbd_audio_out_if.c ****   }
 220              		.loc 1 274 12 is_stmt 0 view .LVU23
 221 0010 FF20     		movs	r0, #255	@ <retval>,
 222              	@ ../Libraries/STM32_USB_Device_Library/Class/audio/src/usbd_audio_out_if.c:278: }
 278:../Libraries/STM32_USB_Device_Library/Class/audio/src/usbd_audio_out_if.c **** 
 223              		.loc 1 278 1 view .LVU24
 224 0012 08BD     		pop	{r3, pc}	@
 225              	.L15:
 226              		.align	2
 227              	.L14:
 228 0014 00000000 		.word	.LANCHOR0
 229              		.cfi_endproc
 230              	.LFE114:
 231              		.size	MuteCtl, .-MuteCtl
 232              		.section	.text.VolumeCtl,"ax",%progbits
 233              		.align	1
 234              		.p2align 2,,3
 235              		.syntax unified
 236              		.thumb
 237              		.thumb_func
 238              		.type	VolumeCtl, %function
 239              	VolumeCtl:
 240              	.LVL6:
 241              	.LFB113:
 251:../Libraries/STM32_USB_Device_Library/Class/audio/src/usbd_audio_out_if.c ****   /* Call low layer volume setting function */  
 242              		.loc 1 251 1 is_stmt 1 view -0
 243              		.cfi_startproc
 244              		@ args = 0, pretend = 0, frame = 0
 245              		@ frame_needed = 0, uses_anonymous_args = 0
 253:../Libraries/STM32_USB_Device_Library/Class/audio/src/usbd_audio_out_if.c ****   {
 246              		.loc 1 253 3 view .LVU26
 247              	@ ../Libraries/STM32_USB_Device_Library/Class/audio/src/usbd_audio_out_if.c:251: {
 251:../Libraries/STM32_USB_Device_Library/Class/audio/src/usbd_audio_out_if.c ****   /* Call low layer volume setting function */  
 248              		.loc 1 251 1 is_stmt 0 view .LVU27
 249 0000 08B5     		push	{r3, lr}	@
 250              		.cfi_def_cfa_offset 8
 251              		.cfi_offset 3, -8
 252              		.cfi_offset 14, -4
ARM GAS  C:\Users\admin\AppData\Local\Temp\ccCOwQsQ.s 			page 11


 253              	@ ../Libraries/STM32_USB_Device_Library/Class/audio/src/usbd_audio_out_if.c:253:   if (EVAL_AUDIO_V
 253:../Libraries/STM32_USB_Device_Library/Class/audio/src/usbd_audio_out_if.c ****   {
 254              		.loc 1 253 7 view .LVU28
 255 0002 FFF7FEFF 		bl	EVAL_AUDIO_VolumeCtl		@
 256              	.LVL7:
 257              	@ ../Libraries/STM32_USB_Device_Library/Class/audio/src/usbd_audio_out_if.c:253:   if (EVAL_AUDIO_V
 253:../Libraries/STM32_USB_Device_Library/Class/audio/src/usbd_audio_out_if.c ****   {
 258              		.loc 1 253 6 view .LVU29
 259 0006 00B9     		cbnz	r0, .L20	@ _1,
 260              	@ ../Libraries/STM32_USB_Device_Library/Class/audio/src/usbd_audio_out_if.c:260: }
 260:../Libraries/STM32_USB_Device_Library/Class/audio/src/usbd_audio_out_if.c **** 
 261              		.loc 1 260 1 view .LVU30
 262 0008 08BD     		pop	{r3, pc}	@
 263              	.L20:
 255:../Libraries/STM32_USB_Device_Library/Class/audio/src/usbd_audio_out_if.c ****     return AUDIO_FAIL;
 264              		.loc 1 255 5 is_stmt 1 view .LVU31
 265              	@ ../Libraries/STM32_USB_Device_Library/Class/audio/src/usbd_audio_out_if.c:255:     AudioState = A
 255:../Libraries/STM32_USB_Device_Library/Class/audio/src/usbd_audio_out_if.c ****     return AUDIO_FAIL;
 266              		.loc 1 255 16 is_stmt 0 view .LVU32
 267 000a 024B     		ldr	r3, .L21	@ tmp116,
 268 000c 0522     		movs	r2, #5	@ tmp117,
 269 000e 1A70     		strb	r2, [r3]	@ tmp117, AudioState
 256:../Libraries/STM32_USB_Device_Library/Class/audio/src/usbd_audio_out_if.c ****   }
 270              		.loc 1 256 5 is_stmt 1 view .LVU33
 271              	@ ../Libraries/STM32_USB_Device_Library/Class/audio/src/usbd_audio_out_if.c:256:     return AUDIO_F
 256:../Libraries/STM32_USB_Device_Library/Class/audio/src/usbd_audio_out_if.c ****   }
 272              		.loc 1 256 12 is_stmt 0 view .LVU34
 273 0010 FF20     		movs	r0, #255	@ <retval>,
 274              	@ ../Libraries/STM32_USB_Device_Library/Class/audio/src/usbd_audio_out_if.c:260: }
 260:../Libraries/STM32_USB_Device_Library/Class/audio/src/usbd_audio_out_if.c **** 
 275              		.loc 1 260 1 view .LVU35
 276 0012 08BD     		pop	{r3, pc}	@
 277              	.L22:
 278              		.align	2
 279              	.L21:
 280 0014 00000000 		.word	.LANCHOR0
 281              		.cfi_endproc
 282              	.LFE113:
 283              		.size	VolumeCtl, .-VolumeCtl
 284              		.section	.text.AudioCmd,"ax",%progbits
 285              		.align	1
 286              		.p2align 2,,3
 287              		.syntax unified
 288              		.thumb
 289              		.thumb_func
 290              		.type	AudioCmd, %function
 291              	AudioCmd:
 292              	.LVL8:
 293              	.LFB112:
 162:../Libraries/STM32_USB_Device_Library/Class/audio/src/usbd_audio_out_if.c ****   /* Check the current state */
 294              		.loc 1 162 1 is_stmt 1 view -0
 295              		.cfi_startproc
 296              		@ args = 0, pretend = 0, frame = 0
 297              		@ frame_needed = 0, uses_anonymous_args = 0
 164:../Libraries/STM32_USB_Device_Library/Class/audio/src/usbd_audio_out_if.c ****   {
 298              		.loc 1 164 3 view .LVU37
 299              	@ ../Libraries/STM32_USB_Device_Library/Class/audio/src/usbd_audio_out_if.c:162: {
ARM GAS  C:\Users\admin\AppData\Local\Temp\ccCOwQsQ.s 			page 12


 162:../Libraries/STM32_USB_Device_Library/Class/audio/src/usbd_audio_out_if.c ****   /* Check the current state */
 300              		.loc 1 162 1 is_stmt 0 view .LVU38
 301 0000 10B5     		push	{r4, lr}	@
 302              		.cfi_def_cfa_offset 8
 303              		.cfi_offset 4, -8
 304              		.cfi_offset 14, -4
 305              	@ ../Libraries/STM32_USB_Device_Library/Class/audio/src/usbd_audio_out_if.c:164:   if ((AudioState 
 164:../Libraries/STM32_USB_Device_Library/Class/audio/src/usbd_audio_out_if.c ****   {
 306              		.loc 1 164 19 view .LVU39
 307 0002 1E4C     		ldr	r4, .L40	@ tmp146,
 308 0004 2378     		ldrb	r3, [r4]	@ zero_extendqisi2	@ AudioState.0_1, AudioState
 309              	@ ../Libraries/STM32_USB_Device_Library/Class/audio/src/usbd_audio_out_if.c:164:   if ((AudioState 
 164:../Libraries/STM32_USB_Device_Library/Class/audio/src/usbd_audio_out_if.c ****   {
 310              		.loc 1 164 6 view .LVU40
 311 0006 4BB1     		cbz	r3, .L24	@ AudioState.0_1,
 312              	@ ../Libraries/STM32_USB_Device_Library/Class/audio/src/usbd_audio_out_if.c:164:   if ((AudioState 
 164:../Libraries/STM32_USB_Device_Library/Class/audio/src/usbd_audio_out_if.c ****   {
 313              		.loc 1 164 44 discriminator 1 view .LVU41
 314 0008 052B     		cmp	r3, #5	@ AudioState.0_1,
 315 000a 07D0     		beq	.L24		@,
 170:../Libraries/STM32_USB_Device_Library/Class/audio/src/usbd_audio_out_if.c ****   {
 316              		.loc 1 170 3 is_stmt 1 view .LVU42
 317 000c 022A     		cmp	r2, #2	@ cmd,
 318 000e 24D0     		beq	.L27		@,
 319 0010 032A     		cmp	r2, #3	@ cmd,
 320 0012 18D0     		beq	.L28		@,
 321 0014 012A     		cmp	r2, #1	@ cmd,
 322 0016 05D0     		beq	.L39		@,
 323              	.L34:
 324              	@ ../Libraries/STM32_USB_Device_Library/Class/audio/src/usbd_audio_out_if.c:199:       return AUDIO
 199:../Libraries/STM32_USB_Device_Library/Class/audio/src/usbd_audio_out_if.c ****     }
 325              		.loc 1 199 14 is_stmt 0 view .LVU43
 326 0018 FF20     		movs	r0, #255	@ <retval>,
 327              	.LVL9:
 328              	@ ../Libraries/STM32_USB_Device_Library/Class/audio/src/usbd_audio_out_if.c:242: }
 242:../Libraries/STM32_USB_Device_Library/Class/audio/src/usbd_audio_out_if.c **** 
 329              		.loc 1 242 1 view .LVU44
 330 001a 10BD     		pop	{r4, pc}	@
 331              	.LVL10:
 332              	.L24:
 166:../Libraries/STM32_USB_Device_Library/Class/audio/src/usbd_audio_out_if.c ****     return AUDIO_FAIL;
 333              		.loc 1 166 5 is_stmt 1 view .LVU45
 334              	@ ../Libraries/STM32_USB_Device_Library/Class/audio/src/usbd_audio_out_if.c:166:     AudioState = A
 166:../Libraries/STM32_USB_Device_Library/Class/audio/src/usbd_audio_out_if.c ****     return AUDIO_FAIL;
 335              		.loc 1 166 16 is_stmt 0 view .LVU46
 336 001c 0523     		movs	r3, #5	@ tmp126,
 337 001e 2370     		strb	r3, [r4]	@ tmp126, AudioState
 167:../Libraries/STM32_USB_Device_Library/Class/audio/src/usbd_audio_out_if.c ****   }
 338              		.loc 1 167 5 is_stmt 1 view .LVU47
 339              	@ ../Libraries/STM32_USB_Device_Library/Class/audio/src/usbd_audio_out_if.c:167:     return AUDIO_F
 167:../Libraries/STM32_USB_Device_Library/Class/audio/src/usbd_audio_out_if.c ****   }
 340              		.loc 1 167 12 is_stmt 0 view .LVU48
 341 0020 FF20     		movs	r0, #255	@ <retval>,
 342              	@ ../Libraries/STM32_USB_Device_Library/Class/audio/src/usbd_audio_out_if.c:242: }
 242:../Libraries/STM32_USB_Device_Library/Class/audio/src/usbd_audio_out_if.c **** 
 343              		.loc 1 242 1 view .LVU49
 344 0022 10BD     		pop	{r4, pc}	@
ARM GAS  C:\Users\admin\AppData\Local\Temp\ccCOwQsQ.s 			page 13


 345              	.LVL11:
 346              	.L39:
 175:../Libraries/STM32_USB_Device_Library/Class/audio/src/usbd_audio_out_if.c ****        (AudioState == AUDIO_STATE_STOPPED) || \
 347              		.loc 1 175 5 is_stmt 1 view .LVU50
 348              	@ ../Libraries/STM32_USB_Device_Library/Class/audio/src/usbd_audio_out_if.c:175:     if ((AudioStat
 175:../Libraries/STM32_USB_Device_Library/Class/audio/src/usbd_audio_out_if.c ****        (AudioState == AUDIO_STATE_STOPPED) || \
 349              		.loc 1 175 8 is_stmt 0 view .LVU51
 350 0024 03F1FF3C 		add	ip, r3, #-1	@ tmp131, AudioState.0_1,
 351 0028 BCF1010F 		cmp	ip, #1	@ tmp131,
 352 002c 1FD9     		bls	.L29		@,
 353              	@ ../Libraries/STM32_USB_Device_Library/Class/audio/src/usbd_audio_out_if.c:175:     if ((AudioStat
 175:../Libraries/STM32_USB_Device_Library/Class/audio/src/usbd_audio_out_if.c ****        (AudioState == AUDIO_STATE_STOPPED) || \
 354              		.loc 1 175 44 discriminator 1 view .LVU52
 355 002e 042B     		cmp	r3, #4	@ AudioState.0_1,
 356 0030 1DD0     		beq	.L29		@,
 184:../Libraries/STM32_USB_Device_Library/Class/audio/src/usbd_audio_out_if.c ****     {
 357              		.loc 1 184 10 is_stmt 1 view .LVU53
 358              	@ ../Libraries/STM32_USB_Device_Library/Class/audio/src/usbd_audio_out_if.c:184:     else if (Audio
 184:../Libraries/STM32_USB_Device_Library/Class/audio/src/usbd_audio_out_if.c ****     {
 359              		.loc 1 184 13 is_stmt 0 view .LVU54
 360 0032 032B     		cmp	r3, #3	@ AudioState.0_1,
 361 0034 F0D1     		bne	.L34		@,
 186:../Libraries/STM32_USB_Device_Library/Class/audio/src/usbd_audio_out_if.c ****       {
 362              		.loc 1 186 7 is_stmt 1 view .LVU55
 363              	@ ../Libraries/STM32_USB_Device_Library/Class/audio/src/usbd_audio_out_if.c:186:       if (EVAL_AUD
 186:../Libraries/STM32_USB_Device_Library/Class/audio/src/usbd_audio_out_if.c ****       {
 364              		.loc 1 186 11 is_stmt 0 view .LVU56
 365 0036 1046     		mov	r0, r2	@, cmd
 366              	.LVL12:
 186:../Libraries/STM32_USB_Device_Library/Class/audio/src/usbd_audio_out_if.c ****       {
 367              		.loc 1 186 11 view .LVU57
 368 0038 FFF7FEFF 		bl	EVAL_AUDIO_PauseResume		@
 369              	.LVL13:
 370              	@ ../Libraries/STM32_USB_Device_Library/Class/audio/src/usbd_audio_out_if.c:186:       if (EVAL_AUD
 186:../Libraries/STM32_USB_Device_Library/Class/audio/src/usbd_audio_out_if.c ****       {
 371              		.loc 1 186 10 view .LVU58
 372 003c 0028     		cmp	r0, #0	@ _4
 373 003e EDD1     		bne	.L24	@
 193:../Libraries/STM32_USB_Device_Library/Class/audio/src/usbd_audio_out_if.c ****         return AUDIO_OK;
 374              		.loc 1 193 9 is_stmt 1 view .LVU59
 375              	@ ../Libraries/STM32_USB_Device_Library/Class/audio/src/usbd_audio_out_if.c:193:         AudioState
 193:../Libraries/STM32_USB_Device_Library/Class/audio/src/usbd_audio_out_if.c ****         return AUDIO_OK;
 376              		.loc 1 193 20 is_stmt 0 view .LVU60
 377 0040 0223     		movs	r3, #2	@ tmp137,
 378 0042 2370     		strb	r3, [r4]	@ tmp137, AudioState
 194:../Libraries/STM32_USB_Device_Library/Class/audio/src/usbd_audio_out_if.c ****       } 
 379              		.loc 1 194 9 is_stmt 1 view .LVU61
 380              	@ ../Libraries/STM32_USB_Device_Library/Class/audio/src/usbd_audio_out_if.c:242: }
 242:../Libraries/STM32_USB_Device_Library/Class/audio/src/usbd_audio_out_if.c **** 
 381              		.loc 1 242 1 is_stmt 0 view .LVU62
 382 0044 10BD     		pop	{r4, pc}	@
 383              	.LVL14:
 384              	.L28:
 204:../Libraries/STM32_USB_Device_Library/Class/audio/src/usbd_audio_out_if.c ****     {
 385              		.loc 1 204 5 is_stmt 1 view .LVU63
 386              	@ ../Libraries/STM32_USB_Device_Library/Class/audio/src/usbd_audio_out_if.c:204:     if (AudioState
 204:../Libraries/STM32_USB_Device_Library/Class/audio/src/usbd_audio_out_if.c ****     {
ARM GAS  C:\Users\admin\AppData\Local\Temp\ccCOwQsQ.s 			page 14


 387              		.loc 1 204 8 is_stmt 0 view .LVU64
 388 0046 022B     		cmp	r3, #2	@ AudioState.0_1,
 389 0048 E6D1     		bne	.L34		@,
 209:../Libraries/STM32_USB_Device_Library/Class/audio/src/usbd_audio_out_if.c ****     {
 390              		.loc 1 209 10 is_stmt 1 view .LVU65
 391              	@ ../Libraries/STM32_USB_Device_Library/Class/audio/src/usbd_audio_out_if.c:209:     else if (EVAL_
 209:../Libraries/STM32_USB_Device_Library/Class/audio/src/usbd_audio_out_if.c ****     {
 392              		.loc 1 209 14 is_stmt 0 view .LVU66
 393 004a 1846     		mov	r0, r3	@, AudioState.0_1
 394              	.LVL15:
 209:../Libraries/STM32_USB_Device_Library/Class/audio/src/usbd_audio_out_if.c ****     {
 395              		.loc 1 209 14 view .LVU67
 396 004c FFF7FEFF 		bl	EVAL_AUDIO_Stop		@
 397              	.LVL16:
 398              	@ ../Libraries/STM32_USB_Device_Library/Class/audio/src/usbd_audio_out_if.c:209:     else if (EVAL_
 209:../Libraries/STM32_USB_Device_Library/Class/audio/src/usbd_audio_out_if.c ****     {
 399              		.loc 1 209 13 view .LVU68
 400 0050 0028     		cmp	r0, #0	@ _5
 401 0052 E3D1     		bne	.L24	@
 216:../Libraries/STM32_USB_Device_Library/Class/audio/src/usbd_audio_out_if.c ****       return AUDIO_OK;
 402              		.loc 1 216 7 is_stmt 1 view .LVU69
 403              	@ ../Libraries/STM32_USB_Device_Library/Class/audio/src/usbd_audio_out_if.c:216:       AudioState =
 216:../Libraries/STM32_USB_Device_Library/Class/audio/src/usbd_audio_out_if.c ****       return AUDIO_OK;
 404              		.loc 1 216 18 is_stmt 0 view .LVU70
 405 0054 0423     		movs	r3, #4	@ tmp140,
 406 0056 2370     		strb	r3, [r4]	@ tmp140, AudioState
 217:../Libraries/STM32_USB_Device_Library/Class/audio/src/usbd_audio_out_if.c ****     }
 407              		.loc 1 217 7 is_stmt 1 view .LVU71
 408              	@ ../Libraries/STM32_USB_Device_Library/Class/audio/src/usbd_audio_out_if.c:242: }
 242:../Libraries/STM32_USB_Device_Library/Class/audio/src/usbd_audio_out_if.c **** 
 409              		.loc 1 242 1 is_stmt 0 view .LVU72
 410 0058 10BD     		pop	{r4, pc}	@
 411              	.LVL17:
 412              	.L27:
 222:../Libraries/STM32_USB_Device_Library/Class/audio/src/usbd_audio_out_if.c ****     {
 413              		.loc 1 222 5 is_stmt 1 view .LVU73
 414              	@ ../Libraries/STM32_USB_Device_Library/Class/audio/src/usbd_audio_out_if.c:222:     if (AudioState
 222:../Libraries/STM32_USB_Device_Library/Class/audio/src/usbd_audio_out_if.c ****     {
 415              		.loc 1 222 8 is_stmt 0 view .LVU74
 416 005a 022B     		cmp	r3, #2	@ AudioState.0_1,
 417 005c DCD1     		bne	.L34		@,
 227:../Libraries/STM32_USB_Device_Library/Class/audio/src/usbd_audio_out_if.c ****     {
 418              		.loc 1 227 10 is_stmt 1 view .LVU75
 419              	@ ../Libraries/STM32_USB_Device_Library/Class/audio/src/usbd_audio_out_if.c:227:     else if (EVAL_
 227:../Libraries/STM32_USB_Device_Library/Class/audio/src/usbd_audio_out_if.c ****     {
 420              		.loc 1 227 14 is_stmt 0 view .LVU76
 421 005e 0020     		movs	r0, #0	@,
 422              	.LVL18:
 227:../Libraries/STM32_USB_Device_Library/Class/audio/src/usbd_audio_out_if.c ****     {
 423              		.loc 1 227 14 view .LVU77
 424 0060 FFF7FEFF 		bl	EVAL_AUDIO_PauseResume		@
 425              	.LVL19:
 426              	@ ../Libraries/STM32_USB_Device_Library/Class/audio/src/usbd_audio_out_if.c:227:     else if (EVAL_
 227:../Libraries/STM32_USB_Device_Library/Class/audio/src/usbd_audio_out_if.c ****     {
 427              		.loc 1 227 13 view .LVU78
 428 0064 0028     		cmp	r0, #0	@ _6
 429 0066 D9D1     		bne	.L24	@
ARM GAS  C:\Users\admin\AppData\Local\Temp\ccCOwQsQ.s 			page 15


 234:../Libraries/STM32_USB_Device_Library/Class/audio/src/usbd_audio_out_if.c ****       return AUDIO_OK;
 430              		.loc 1 234 7 is_stmt 1 view .LVU79
 431              	@ ../Libraries/STM32_USB_Device_Library/Class/audio/src/usbd_audio_out_if.c:234:       AudioState =
 234:../Libraries/STM32_USB_Device_Library/Class/audio/src/usbd_audio_out_if.c ****       return AUDIO_OK;
 432              		.loc 1 234 18 is_stmt 0 view .LVU80
 433 0068 0323     		movs	r3, #3	@ tmp143,
 434 006a 2370     		strb	r3, [r4]	@ tmp143, AudioState
 235:../Libraries/STM32_USB_Device_Library/Class/audio/src/usbd_audio_out_if.c ****     } 
 435              		.loc 1 235 7 is_stmt 1 view .LVU81
 436              	@ ../Libraries/STM32_USB_Device_Library/Class/audio/src/usbd_audio_out_if.c:242: }
 242:../Libraries/STM32_USB_Device_Library/Class/audio/src/usbd_audio_out_if.c **** 
 437              		.loc 1 242 1 is_stmt 0 view .LVU82
 438 006c 10BD     		pop	{r4, pc}	@
 439              	.LVL20:
 440              	.L29:
 179:../Libraries/STM32_USB_Device_Library/Class/audio/src/usbd_audio_out_if.c ****       AudioState = AUDIO_STATE_PLAYING;
 441              		.loc 1 179 7 is_stmt 1 view .LVU83
 442 006e 4908     		lsrs	r1, r1, #1	@, size,
 443              	.LVL21:
 179:../Libraries/STM32_USB_Device_Library/Class/audio/src/usbd_audio_out_if.c ****       AudioState = AUDIO_STATE_PLAYING;
 444              		.loc 1 179 7 is_stmt 0 view .LVU84
 445 0070 FFF7FEFF 		bl	Audio_MAL_Play		@
 446              	.LVL22:
 180:../Libraries/STM32_USB_Device_Library/Class/audio/src/usbd_audio_out_if.c ****       return AUDIO_OK;
 447              		.loc 1 180 7 is_stmt 1 view .LVU85
 448              	@ ../Libraries/STM32_USB_Device_Library/Class/audio/src/usbd_audio_out_if.c:180:       AudioState =
 180:../Libraries/STM32_USB_Device_Library/Class/audio/src/usbd_audio_out_if.c ****       return AUDIO_OK;
 449              		.loc 1 180 18 is_stmt 0 view .LVU86
 450 0074 0223     		movs	r3, #2	@ tmp134,
 451 0076 2370     		strb	r3, [r4]	@ tmp134, AudioState
 181:../Libraries/STM32_USB_Device_Library/Class/audio/src/usbd_audio_out_if.c ****     }
 452              		.loc 1 181 7 is_stmt 1 view .LVU87
 453              	@ ../Libraries/STM32_USB_Device_Library/Class/audio/src/usbd_audio_out_if.c:181:       return AUDIO
 181:../Libraries/STM32_USB_Device_Library/Class/audio/src/usbd_audio_out_if.c ****     }
 454              		.loc 1 181 14 is_stmt 0 view .LVU88
 455 0078 0020     		movs	r0, #0	@ <retval>,
 456              	@ ../Libraries/STM32_USB_Device_Library/Class/audio/src/usbd_audio_out_if.c:242: }
 242:../Libraries/STM32_USB_Device_Library/Class/audio/src/usbd_audio_out_if.c **** 
 457              		.loc 1 242 1 view .LVU89
 458 007a 10BD     		pop	{r4, pc}	@
 459              	.L41:
 460              		.align	2
 461              	.L40:
 462 007c 00000000 		.word	.LANCHOR0
 463              		.cfi_endproc
 464              	.LFE112:
 465              		.size	AudioCmd, .-AudioCmd
 466              		.section	.text.Init,"ax",%progbits
 467              		.align	1
 468              		.p2align 2,,3
 469              		.syntax unified
 470              		.thumb
 471              		.thumb_func
 472              		.type	Init, %function
 473              	Init:
 474              	.LVL23:
 475              	.LFB110:
ARM GAS  C:\Users\admin\AppData\Local\Temp\ccCOwQsQ.s 			page 16


 113:../Libraries/STM32_USB_Device_Library/Class/audio/src/usbd_audio_out_if.c ****   static uint32_t Initialized = 0;
 476              		.loc 1 113 1 is_stmt 1 view -0
 477              		.cfi_startproc
 478              		@ args = 0, pretend = 0, frame = 0
 479              		@ frame_needed = 0, uses_anonymous_args = 0
 114:../Libraries/STM32_USB_Device_Library/Class/audio/src/usbd_audio_out_if.c ****   
 480              		.loc 1 114 3 view .LVU91
 117:../Libraries/STM32_USB_Device_Library/Class/audio/src/usbd_audio_out_if.c ****   {
 481              		.loc 1 117 3 view .LVU92
 482              	@ ../Libraries/STM32_USB_Device_Library/Class/audio/src/usbd_audio_out_if.c:113: {
 113:../Libraries/STM32_USB_Device_Library/Class/audio/src/usbd_audio_out_if.c ****   static uint32_t Initialized = 0;
 483              		.loc 1 113 1 is_stmt 0 view .LVU93
 484 0000 10B5     		push	{r4, lr}	@
 485              		.cfi_def_cfa_offset 8
 486              		.cfi_offset 4, -8
 487              		.cfi_offset 14, -4
 488              	@ ../Libraries/STM32_USB_Device_Library/Class/audio/src/usbd_audio_out_if.c:117:   if (Initialized 
 117:../Libraries/STM32_USB_Device_Library/Class/audio/src/usbd_audio_out_if.c ****   {
 489              		.loc 1 117 19 view .LVU94
 490 0002 0B4C     		ldr	r4, .L49	@ tmp120,
 491              	@ ../Libraries/STM32_USB_Device_Library/Class/audio/src/usbd_audio_out_if.c:117:   if (Initialized 
 117:../Libraries/STM32_USB_Device_Library/Class/audio/src/usbd_audio_out_if.c ****   {
 492              		.loc 1 117 6 view .LVU95
 493 0004 2368     		ldr	r3, [r4]	@ Initialized, Initialized
 494 0006 23B1     		cbz	r3, .L47	@ Initialized,
 495              	.LVL24:
 496              	.L43:
 131:../Libraries/STM32_USB_Device_Library/Class/audio/src/usbd_audio_out_if.c ****     
 497              		.loc 1 131 3 is_stmt 1 view .LVU96
 498              	@ ../Libraries/STM32_USB_Device_Library/Class/audio/src/usbd_audio_out_if.c:131:   AudioState = AUD
 131:../Libraries/STM32_USB_Device_Library/Class/audio/src/usbd_audio_out_if.c ****     
 499              		.loc 1 131 14 is_stmt 0 view .LVU97
 500 0008 0A4B     		ldr	r3, .L49+4	@ tmp128,
 501 000a 0122     		movs	r2, #1	@ tmp129,
 502 000c 1A70     		strb	r2, [r3]	@ tmp129, AudioState
 133:../Libraries/STM32_USB_Device_Library/Class/audio/src/usbd_audio_out_if.c **** }
 503              		.loc 1 133 3 is_stmt 1 view .LVU98
 504              	@ ../Libraries/STM32_USB_Device_Library/Class/audio/src/usbd_audio_out_if.c:133:   return AUDIO_OK;
 133:../Libraries/STM32_USB_Device_Library/Class/audio/src/usbd_audio_out_if.c **** }
 505              		.loc 1 133 10 is_stmt 0 view .LVU99
 506 000e 0020     		movs	r0, #0	@ <retval>,
 507              	@ ../Libraries/STM32_USB_Device_Library/Class/audio/src/usbd_audio_out_if.c:134: }
 134:../Libraries/STM32_USB_Device_Library/Class/audio/src/usbd_audio_out_if.c **** 
 508              		.loc 1 134 1 view .LVU100
 509 0010 10BD     		pop	{r4, pc}	@
 510              	.LVL25:
 511              	.L47:
 120:../Libraries/STM32_USB_Device_Library/Class/audio/src/usbd_audio_out_if.c ****     {
 512              		.loc 1 120 5 is_stmt 1 view .LVU101
 513              	@ ../Libraries/STM32_USB_Device_Library/Class/audio/src/usbd_audio_out_if.c:120:     if (EVAL_AUDIO
 120:../Libraries/STM32_USB_Device_Library/Class/audio/src/usbd_audio_out_if.c ****     {
 514              		.loc 1 120 9 is_stmt 0 view .LVU102
 515 0012 0246     		mov	r2, r0	@, AudioFreq
 516              	.LVL26:
 120:../Libraries/STM32_USB_Device_Library/Class/audio/src/usbd_audio_out_if.c ****     {
 517              		.loc 1 120 9 view .LVU103
 518 0014 C9B2     		uxtb	r1, r1	@, Volume
ARM GAS  C:\Users\admin\AppData\Local\Temp\ccCOwQsQ.s 			page 17


 519              	.LVL27:
 120:../Libraries/STM32_USB_Device_Library/Class/audio/src/usbd_audio_out_if.c ****     {
 520              		.loc 1 120 9 view .LVU104
 521 0016 0420     		movs	r0, #4	@,
 522              	.LVL28:
 120:../Libraries/STM32_USB_Device_Library/Class/audio/src/usbd_audio_out_if.c ****     {
 523              		.loc 1 120 9 view .LVU105
 524 0018 FFF7FEFF 		bl	EVAL_AUDIO_Init		@
 525              	.LVL29:
 526              	@ ../Libraries/STM32_USB_Device_Library/Class/audio/src/usbd_audio_out_if.c:120:     if (EVAL_AUDIO
 120:../Libraries/STM32_USB_Device_Library/Class/audio/src/usbd_audio_out_if.c ****     {
 527              		.loc 1 120 8 view .LVU106
 528 001c 10B9     		cbnz	r0, .L48	@ tmp134,
 127:../Libraries/STM32_USB_Device_Library/Class/audio/src/usbd_audio_out_if.c ****   }
 529              		.loc 1 127 5 is_stmt 1 view .LVU107
 530              	@ ../Libraries/STM32_USB_Device_Library/Class/audio/src/usbd_audio_out_if.c:127:     Initialized = 
 127:../Libraries/STM32_USB_Device_Library/Class/audio/src/usbd_audio_out_if.c ****   }
 531              		.loc 1 127 17 is_stmt 0 view .LVU108
 532 001e 0123     		movs	r3, #1	@ tmp127,
 533 0020 2360     		str	r3, [r4]	@ tmp127, Initialized
 534 0022 F1E7     		b	.L43		@
 535              	.L48:
 122:../Libraries/STM32_USB_Device_Library/Class/audio/src/usbd_audio_out_if.c ****       return AUDIO_FAIL;
 536              		.loc 1 122 7 is_stmt 1 view .LVU109
 537              	@ ../Libraries/STM32_USB_Device_Library/Class/audio/src/usbd_audio_out_if.c:122:       AudioState =
 122:../Libraries/STM32_USB_Device_Library/Class/audio/src/usbd_audio_out_if.c ****       return AUDIO_FAIL;
 538              		.loc 1 122 18 is_stmt 0 view .LVU110
 539 0024 034B     		ldr	r3, .L49+4	@ tmp123,
 540 0026 0522     		movs	r2, #5	@ tmp124,
 541 0028 1A70     		strb	r2, [r3]	@ tmp124, AudioState
 123:../Libraries/STM32_USB_Device_Library/Class/audio/src/usbd_audio_out_if.c ****     }
 542              		.loc 1 123 7 is_stmt 1 view .LVU111
 543              	@ ../Libraries/STM32_USB_Device_Library/Class/audio/src/usbd_audio_out_if.c:123:       return AUDIO
 123:../Libraries/STM32_USB_Device_Library/Class/audio/src/usbd_audio_out_if.c ****     }
 544              		.loc 1 123 14 is_stmt 0 view .LVU112
 545 002a FF20     		movs	r0, #255	@ <retval>,
 546              	@ ../Libraries/STM32_USB_Device_Library/Class/audio/src/usbd_audio_out_if.c:134: }
 134:../Libraries/STM32_USB_Device_Library/Class/audio/src/usbd_audio_out_if.c **** 
 547              		.loc 1 134 1 view .LVU113
 548 002c 10BD     		pop	{r4, pc}	@
 549              	.L50:
 550 002e 00BF     		.align	2
 551              	.L49:
 552 0030 00000000 		.word	.LANCHOR1
 553 0034 00000000 		.word	.LANCHOR0
 554              		.cfi_endproc
 555              	.LFE110:
 556              		.size	Init, .-Init
 557              		.global	AUDIO_OUT_fops
 558              		.section	.bss.AudioState,"aw",%nobits
 559              		.set	.LANCHOR0,. + 0
 560              		.type	AudioState, %object
 561              		.size	AudioState, 1
 562              	AudioState:
 563 0000 00       		.space	1
 564              		.section	.bss.Initialized.0,"aw",%nobits
 565              		.align	2
ARM GAS  C:\Users\admin\AppData\Local\Temp\ccCOwQsQ.s 			page 18


 566              		.set	.LANCHOR1,. + 0
 567              		.type	Initialized.0, %object
 568              		.size	Initialized.0, 4
 569              	Initialized.0:
 570 0000 00000000 		.space	4
 571              		.section	.data.AUDIO_OUT_fops,"aw"
 572              		.align	2
 573              		.type	AUDIO_OUT_fops, %object
 574              		.size	AUDIO_OUT_fops, 28
 575              	AUDIO_OUT_fops:
 576              	@ Init:
 577 0000 00000000 		.word	Init
 578              	@ DeInit:
 579 0004 00000000 		.word	DeInit
 580              	@ AudioCmd:
 581 0008 00000000 		.word	AudioCmd
 582              	@ VolumeCtl:
 583 000c 00000000 		.word	VolumeCtl
 584              	@ MuteCtl:
 585 0010 00000000 		.word	MuteCtl
 586              	@ PeriodicTC:
 587 0014 00000000 		.word	PeriodicTC
 588              	@ GetState:
 589 0018 00000000 		.word	GetState
 590              		.text
 591              	.Letext0:
 592              		.file 2 "c:\\program files (x86)\\gnu arm embedded toolchain\\10 2021.10\\arm-none-eabi\\include\\
 593              		.file 3 "c:\\program files (x86)\\gnu arm embedded toolchain\\10 2021.10\\arm-none-eabi\\include\\
 594              		.file 4 "../Libraries/STM32_USB_Device_Library/Class/audio/inc/usbd_audio_core.h"
 595              		.file 5 "../Utilities/STM32F4-Discovery/stm32f4_discovery_audio_codec.h"
 596              		.file 6 "../Libraries/STM32_USB_Device_Library/Class/audio/inc/usbd_audio_out_if.h"