ARM GAS  C:\Users\admin\AppData\Local\Temp\ccw36LAs.s 			page 1


   1              		.cpu cortex-m4
   2              		.arch armv7e-m
   3              		.fpu fpv4-sp-d16
   4              		.eabi_attribute 27, 1	@ Tag_ABI_HardFP_use
   5              		.eabi_attribute 28, 1	@ Tag_ABI_VFP_args
   6              		.eabi_attribute 23, 1	@ Tag_ABI_FP_number_model
   7              		.eabi_attribute 24, 1	@ Tag_ABI_align8_needed
   8              		.eabi_attribute 25, 1	@ Tag_ABI_align8_preserved
   9              		.eabi_attribute 26, 1	@ Tag_ABI_enum_size
  10              		.eabi_attribute 30, 2	@ Tag_ABI_optimization_goals
  11              		.eabi_attribute 34, 1	@ Tag_CPU_unaligned_access
  12              		.eabi_attribute 18, 4	@ Tag_ABI_PCS_wchar_t
  13              		.file	"usbd_usr.c"
  14              	@ GNU C89 (GNU Arm Embedded Toolchain 10.3-2021.10) version 10.3.1 20210824 (release) (arm-none-eab
  15              	@	compiled by GNU C version 7.3-win32 20180312, GMP version 6.1.0, MPFR version 3.1.4, MPC version 
  16              	
  17              	@ GGC heuristics: --param ggc-min-expand=100 --param ggc-min-heapsize=131072
  18              	@ options passed:  -I . -I . -I ../Utilities/STM32F4-Discovery/
  19              	@ -I ../Libraries/STM32_USB_Device_Library/Class/audio/inc/
  20              	@ -I ../Libraries/STM32_USB_Device_Library/Core/inc/
  21              	@ -I ../Libraries/STM32_USB_OTG_Driver/inc/
  22              	@ -I ../Utilities/STM32F4-Discovery/
  23              	@ -I ../Libraries/STM32F4xx_StdPeriph_Driver/inc/
  24              	@ -I ../Utilities/STM32F4-Discovery/
  25              	@ -I ../Libraries/CMSIS/ST/STM32F4xx/Include/
  26              	@ -I ../Libraries/CMSIS/Include/ -imultilib thumb/v7e-m+fp/hard
  27              	@ -iprefix c:\program files (x86)\gnu arm embedded toolchain\10 2021.10\bin\../lib/gcc/arm-none-eab
  28              	@ -isysroot c:\program files (x86)\gnu arm embedded toolchain\10 2021.10\bin\../arm-none-eabi
  29              	@ -MD out/usbd_usr.d -MF out/usbd_usr.d -MP -MQ out/usbd_usr.o
  30              	@ -D__USES_INITFINI__ -D STM32F4XX -D __VFP_FP__ -D USE_USB_OTG_FS
  31              	@ usbd_usr.c -mcpu=cortex-m4 -mthumb -mfloat-abi=hard -mfpu=fpv4-sp-d16
  32              	@ -mlibarch=armv7e-m+fp -march=armv7e-m+fp -auxbase-strip out/usbd_usr.o -g
  33              	@ -ggdb3 -O3 -Wall -Wstrict-prototypes -Wextra -std=gnu90 -ffast-math
  34              	@ -ffunction-sections -fdata-sections -fverbose-asm
  35              	@ options enabled:  -faggressive-loop-optimizations -falign-functions
  36              	@ -falign-jumps -falign-labels -falign-loops -fallocation-dce
  37              	@ -fassociative-math -fauto-inc-dec -fbranch-count-reg -fcaller-saves
  38              	@ -fcombine-stack-adjustments -fcompare-elim -fcprop-registers
  39              	@ -fcrossjumping -fcse-follow-jumps -fcx-limited-range -fdata-sections
  40              	@ -fdefer-pop -fdelete-null-pointer-checks -fdevirtualize
  41              	@ -fdevirtualize-speculatively -fdwarf2-cfi-asm -fearly-inlining
  42              	@ -feliminate-unused-debug-symbols -feliminate-unused-debug-types
  43              	@ -fexpensive-optimizations -ffinite-math-only -fforward-propagate
  44              	@ -ffp-int-builtin-inexact -ffunction-cse -ffunction-sections -fgcse
  45              	@ -fgcse-after-reload -fgcse-lm -fgnu-unique -fguess-branch-probability
  46              	@ -fhoist-adjacent-loads -fident -fif-conversion -fif-conversion2
  47              	@ -findirect-inlining -finline -finline-atomics -finline-functions
  48              	@ -finline-functions-called-once -finline-small-functions -fipa-bit-cp
  49              	@ -fipa-cp -fipa-cp-clone -fipa-icf -fipa-icf-functions -fipa-icf-variables
  50              	@ -fipa-profile -fipa-pure-const -fipa-ra -fipa-reference
  51              	@ -fipa-reference-addressable -fipa-sra -fipa-stack-alignment -fipa-vrp
  52              	@ -fira-hoist-pressure -fira-share-save-slots -fira-share-spill-slots
  53              	@ -fisolate-erroneous-paths-dereference -fivopts -fkeep-static-consts
  54              	@ -fleading-underscore -flifetime-dse -floop-interchange
  55              	@ -floop-unroll-and-jam -flra-remat -fmerge-constants -fmerge-debug-strings
  56              	@ -fmove-loop-invariants -fomit-frame-pointer -foptimize-sibling-calls
  57              	@ -foptimize-strlen -fpartial-inlining -fpeel-loops -fpeephole -fpeephole2
ARM GAS  C:\Users\admin\AppData\Local\Temp\ccw36LAs.s 			page 2


  58              	@ -fplt -fpredictive-commoning -fprefetch-loop-arrays -freciprocal-math
  59              	@ -freg-struct-return -freorder-blocks -freorder-functions
  60              	@ -frerun-cse-after-loop -fsched-critical-path-heuristic
  61              	@ -fsched-dep-count-heuristic -fsched-group-heuristic -fsched-interblock
  62              	@ -fsched-last-insn-heuristic -fsched-pressure -fsched-rank-heuristic
  63              	@ -fsched-spec -fsched-spec-insn-heuristic -fsched-stalled-insns-dep
  64              	@ -fschedule-insns -fschedule-insns2 -fsection-anchors
  65              	@ -fsemantic-interposition -fshow-column -fshrink-wrap
  66              	@ -fshrink-wrap-separate -fsplit-ivs-in-unroller -fsplit-loops
  67              	@ -fsplit-paths -fsplit-wide-types -fssa-backprop -fssa-phiopt -fstdarg-opt
  68              	@ -fstore-merging -fstrict-aliasing -fstrict-volatile-bitfields
  69              	@ -fsync-libcalls -fthread-jumps -ftoplevel-reorder -ftree-bit-ccp
  70              	@ -ftree-builtin-call-dce -ftree-ccp -ftree-ch -ftree-coalesce-vars
  71              	@ -ftree-copy-prop -ftree-cselim -ftree-dce -ftree-dominator-opts
  72              	@ -ftree-dse -ftree-forwprop -ftree-fre -ftree-loop-distribute-patterns
  73              	@ -ftree-loop-distribution -ftree-loop-if-convert -ftree-loop-im
  74              	@ -ftree-loop-ivcanon -ftree-loop-optimize -ftree-loop-vectorize
  75              	@ -ftree-parallelize-loops= -ftree-partial-pre -ftree-phiprop -ftree-pre
  76              	@ -ftree-pta -ftree-reassoc -ftree-scev-cprop -ftree-sink
  77              	@ -ftree-slp-vectorize -ftree-slsr -ftree-sra -ftree-switch-conversion
  78              	@ -ftree-tail-merge -ftree-ter -ftree-vrp -funit-at-a-time
  79              	@ -funsafe-math-optimizations -funswitch-loops -fvar-tracking
  80              	@ -fvar-tracking-assignments -fverbose-asm -fversion-loops-for-strides
  81              	@ -fzero-initialized-in-bss -masm-syntax-unified -mbe32 -mlittle-endian
  82              	@ -mpic-data-is-text-relative -msched-prolog -mthumb -munaligned-access
  83              	@ -mvectorize-with-neon-quad
  84              	
  85              		.text
  86              	.Ltext0:
  87              		.cfi_sections	.debug_frame
  88              		.section	.text.USBD_USR_Init,"ax",%progbits
  89              		.align	1
  90              		.p2align 2,,3
  91              		.global	USBD_USR_Init
  92              		.syntax unified
  93              		.thumb
  94              		.thumb_func
  95              		.type	USBD_USR_Init, %function
  96              	USBD_USR_Init:
  97              	.LFB110:
  98              		.file 1 "usbd_usr.c"
   1:usbd_usr.c    **** /**
   2:usbd_usr.c    ****   ******************************************************************************
   3:usbd_usr.c    ****   * @file    usbd_usr.c
   4:usbd_usr.c    ****   * @author  MCD Application Team
   5:usbd_usr.c    ****   * @version V1.1.0
   6:usbd_usr.c    ****   * @date    19-March-2012
   7:usbd_usr.c    ****   * @brief   This file includes the user application layer
   8:usbd_usr.c    ****   ******************************************************************************
   9:usbd_usr.c    ****   * @attention
  10:usbd_usr.c    ****   *
  11:usbd_usr.c    ****   * <h2><center>&copy; COPYRIGHT 2012 STMicroelectronics</center></h2>
  12:usbd_usr.c    ****   *
  13:usbd_usr.c    ****   * Licensed under MCD-ST Liberty SW License Agreement V2, (the "License");
  14:usbd_usr.c    ****   * You may not use this file except in compliance with the License.
  15:usbd_usr.c    ****   * You may obtain a copy of the License at:
  16:usbd_usr.c    ****   *
ARM GAS  C:\Users\admin\AppData\Local\Temp\ccw36LAs.s 			page 3


  17:usbd_usr.c    ****   *        http://www.st.com/software_license_agreement_liberty_v2
  18:usbd_usr.c    ****   *
  19:usbd_usr.c    ****   * Unless required by applicable law or agreed to in writing, software 
  20:usbd_usr.c    ****   * distributed under the License is distributed on an "AS IS" BASIS, 
  21:usbd_usr.c    ****   * WITHOUT WARRANTIES OR CONDITIONS OF ANY KIND, either express or implied.
  22:usbd_usr.c    ****   * See the License for the specific language governing permissions and
  23:usbd_usr.c    ****   * limitations under the License.
  24:usbd_usr.c    ****   *
  25:usbd_usr.c    ****   ******************************************************************************
  26:usbd_usr.c    ****   */ 
  27:usbd_usr.c    **** 
  28:usbd_usr.c    **** /* Includes ------------------------------------------------------------------*/
  29:usbd_usr.c    **** #include "usbd_usr.h"
  30:usbd_usr.c    **** #include "usbd_ioreq.h"
  31:usbd_usr.c    **** 
  32:usbd_usr.c    **** /** @addtogroup STM32_USB_OTG_DEVICE_LIBRARY
  33:usbd_usr.c    **** * @{
  34:usbd_usr.c    **** */
  35:usbd_usr.c    **** 
  36:usbd_usr.c    **** /** @defgroup USBD_USR 
  37:usbd_usr.c    **** * @brief    This file includes the user application layer
  38:usbd_usr.c    **** * @{
  39:usbd_usr.c    **** */ 
  40:usbd_usr.c    **** 
  41:usbd_usr.c    **** /** @defgroup USBD_USR_Private_TypesDefinitions
  42:usbd_usr.c    **** * @{
  43:usbd_usr.c    **** */ 
  44:usbd_usr.c    **** /**
  45:usbd_usr.c    **** * @}
  46:usbd_usr.c    **** */ 
  47:usbd_usr.c    **** 
  48:usbd_usr.c    **** 
  49:usbd_usr.c    **** /** @defgroup USBD_USR_Private_Defines
  50:usbd_usr.c    **** * @{
  51:usbd_usr.c    **** */ 
  52:usbd_usr.c    **** /**
  53:usbd_usr.c    **** * @}
  54:usbd_usr.c    **** */ 
  55:usbd_usr.c    **** 
  56:usbd_usr.c    **** 
  57:usbd_usr.c    **** /** @defgroup USBD_USR_Private_Macros
  58:usbd_usr.c    **** * @{
  59:usbd_usr.c    **** */ 
  60:usbd_usr.c    **** /**
  61:usbd_usr.c    **** * @}
  62:usbd_usr.c    **** */ 
  63:usbd_usr.c    **** 
  64:usbd_usr.c    **** 
  65:usbd_usr.c    **** /** @defgroup USBD_USR_Private_Variables
  66:usbd_usr.c    **** * @{
  67:usbd_usr.c    **** */ 
  68:usbd_usr.c    **** 
  69:usbd_usr.c    **** USBD_Usr_cb_TypeDef USR_cb =
  70:usbd_usr.c    **** {
  71:usbd_usr.c    ****   USBD_USR_Init,
  72:usbd_usr.c    ****   USBD_USR_DeviceReset,
  73:usbd_usr.c    ****   USBD_USR_DeviceConfigured,
ARM GAS  C:\Users\admin\AppData\Local\Temp\ccw36LAs.s 			page 4


  74:usbd_usr.c    ****   USBD_USR_DeviceSuspended,
  75:usbd_usr.c    ****   USBD_USR_DeviceResumed,
  76:usbd_usr.c    ****   
  77:usbd_usr.c    ****   
  78:usbd_usr.c    ****   USBD_USR_DeviceConnected,
  79:usbd_usr.c    ****   USBD_USR_DeviceDisconnected,    
  80:usbd_usr.c    **** };
  81:usbd_usr.c    **** 
  82:usbd_usr.c    **** /**
  83:usbd_usr.c    **** * @}
  84:usbd_usr.c    **** */
  85:usbd_usr.c    **** 
  86:usbd_usr.c    **** /** @defgroup USBD_USR_Private_Constants
  87:usbd_usr.c    **** * @{
  88:usbd_usr.c    **** */ 
  89:usbd_usr.c    **** 
  90:usbd_usr.c    **** /**
  91:usbd_usr.c    **** * @}
  92:usbd_usr.c    **** */
  93:usbd_usr.c    **** 
  94:usbd_usr.c    **** 
  95:usbd_usr.c    **** 
  96:usbd_usr.c    **** /** @defgroup USBD_USR_Private_FunctionPrototypes
  97:usbd_usr.c    **** * @{
  98:usbd_usr.c    **** */ 
  99:usbd_usr.c    **** /**
 100:usbd_usr.c    **** * @}
 101:usbd_usr.c    **** */ 
 102:usbd_usr.c    **** 
 103:usbd_usr.c    **** 
 104:usbd_usr.c    **** /** @defgroup USBD_USR_Private_Functions
 105:usbd_usr.c    **** * @{
 106:usbd_usr.c    **** */ 
 107:usbd_usr.c    **** 
 108:usbd_usr.c    **** /**
 109:usbd_usr.c    **** * @brief  USBD_USR_Init 
 110:usbd_usr.c    **** *         Displays the message on LCD for host lib initialization
 111:usbd_usr.c    **** * @param  None
 112:usbd_usr.c    **** * @retval None
 113:usbd_usr.c    **** */
 114:usbd_usr.c    **** void USBD_USR_Init(void)
 115:usbd_usr.c    **** {  
  99              		.loc 1 115 1 view -0
 100              		.cfi_startproc
 101              		@ args = 0, pretend = 0, frame = 0
 102              		@ frame_needed = 0, uses_anonymous_args = 0
 103              		@ link register save eliminated.
 116:usbd_usr.c    ****   
 117:usbd_usr.c    **** }
 104              		.loc 1 117 1 view .LVU1
 105 0000 7047     		bx	lr	@
 106              		.cfi_endproc
 107              	.LFE110:
 108              		.size	USBD_USR_Init, .-USBD_USR_Init
 109 0002 00BF     		.section	.text.USBD_USR_DeviceReset,"ax",%progbits
 110              		.align	1
 111              		.p2align 2,,3
ARM GAS  C:\Users\admin\AppData\Local\Temp\ccw36LAs.s 			page 5


 112              		.global	USBD_USR_DeviceReset
 113              		.syntax unified
 114              		.thumb
 115              		.thumb_func
 116              		.type	USBD_USR_DeviceReset, %function
 117              	USBD_USR_DeviceReset:
 118              	.LVL0:
 119              	.LFB111:
 118:usbd_usr.c    **** 
 119:usbd_usr.c    **** /**
 120:usbd_usr.c    **** * @brief  USBD_USR_DeviceReset 
 121:usbd_usr.c    **** *         Displays the message on LCD on device Reset Event
 122:usbd_usr.c    **** * @param  speed : device speed
 123:usbd_usr.c    **** * @retval None
 124:usbd_usr.c    **** */
 125:usbd_usr.c    **** void USBD_USR_DeviceReset(uint8_t speed )
 126:usbd_usr.c    **** {
 120              		.loc 1 126 1 view -0
 121              		.cfi_startproc
 122              		@ args = 0, pretend = 0, frame = 0
 123              		@ frame_needed = 0, uses_anonymous_args = 0
 124              		@ link register save eliminated.
 127:usbd_usr.c    **** 
 128:usbd_usr.c    **** }
 125              		.loc 1 128 1 view .LVU3
 126 0000 7047     		bx	lr	@
 127              		.cfi_endproc
 128              	.LFE111:
 129              		.size	USBD_USR_DeviceReset, .-USBD_USR_DeviceReset
 130 0002 00BF     		.section	.text.USBD_USR_DeviceDisconnected,"ax",%progbits
 131              		.align	1
 132              		.p2align 2,,3
 133              		.global	USBD_USR_DeviceDisconnected
 134              		.syntax unified
 135              		.thumb
 136              		.thumb_func
 137              		.type	USBD_USR_DeviceDisconnected, %function
 138              	USBD_USR_DeviceDisconnected:
 139              	.LFB126:
 140              		.cfi_startproc
 141              		@ args = 0, pretend = 0, frame = 0
 142              		@ frame_needed = 0, uses_anonymous_args = 0
 143              		@ link register save eliminated.
 144 0000 7047     		bx	lr	@
 145              		.cfi_endproc
 146              	.LFE126:
 147              		.size	USBD_USR_DeviceDisconnected, .-USBD_USR_DeviceDisconnected
 148 0002 00BF     		.section	.text.USBD_USR_DeviceConfigured,"ax",%progbits
 149              		.align	1
 150              		.p2align 2,,3
 151              		.global	USBD_USR_DeviceConfigured
 152              		.syntax unified
 153              		.thumb
 154              		.thumb_func
 155              		.type	USBD_USR_DeviceConfigured, %function
 156              	USBD_USR_DeviceConfigured:
 157              	.LFB118:
ARM GAS  C:\Users\admin\AppData\Local\Temp\ccw36LAs.s 			page 6


 158              		.cfi_startproc
 159              		@ args = 0, pretend = 0, frame = 0
 160              		@ frame_needed = 0, uses_anonymous_args = 0
 161              		@ link register save eliminated.
 162 0000 7047     		bx	lr	@
 163              		.cfi_endproc
 164              	.LFE118:
 165              		.size	USBD_USR_DeviceConfigured, .-USBD_USR_DeviceConfigured
 166 0002 00BF     		.section	.text.USBD_USR_DeviceSuspended,"ax",%progbits
 167              		.align	1
 168              		.p2align 2,,3
 169              		.global	USBD_USR_DeviceSuspended
 170              		.syntax unified
 171              		.thumb
 172              		.thumb_func
 173              		.type	USBD_USR_DeviceSuspended, %function
 174              	USBD_USR_DeviceSuspended:
 175              	.LFB120:
 176              		.cfi_startproc
 177              		@ args = 0, pretend = 0, frame = 0
 178              		@ frame_needed = 0, uses_anonymous_args = 0
 179              		@ link register save eliminated.
 180 0000 7047     		bx	lr	@
 181              		.cfi_endproc
 182              	.LFE120:
 183              		.size	USBD_USR_DeviceSuspended, .-USBD_USR_DeviceSuspended
 184 0002 00BF     		.section	.text.USBD_USR_DeviceResumed,"ax",%progbits
 185              		.align	1
 186              		.p2align 2,,3
 187              		.global	USBD_USR_DeviceResumed
 188              		.syntax unified
 189              		.thumb
 190              		.thumb_func
 191              		.type	USBD_USR_DeviceResumed, %function
 192              	USBD_USR_DeviceResumed:
 193              	.LFB122:
 194              		.cfi_startproc
 195              		@ args = 0, pretend = 0, frame = 0
 196              		@ frame_needed = 0, uses_anonymous_args = 0
 197              		@ link register save eliminated.
 198 0000 7047     		bx	lr	@
 199              		.cfi_endproc
 200              	.LFE122:
 201              		.size	USBD_USR_DeviceResumed, .-USBD_USR_DeviceResumed
 202 0002 00BF     		.section	.text.USBD_USR_DeviceConnected,"ax",%progbits
 203              		.align	1
 204              		.p2align 2,,3
 205              		.global	USBD_USR_DeviceConnected
 206              		.syntax unified
 207              		.thumb
 208              		.thumb_func
 209              		.type	USBD_USR_DeviceConnected, %function
 210              	USBD_USR_DeviceConnected:
 211              	.LFB124:
 212              		.cfi_startproc
 213              		@ args = 0, pretend = 0, frame = 0
 214              		@ frame_needed = 0, uses_anonymous_args = 0
ARM GAS  C:\Users\admin\AppData\Local\Temp\ccw36LAs.s 			page 7


 215              		@ link register save eliminated.
 216 0000 7047     		bx	lr	@
 217              		.cfi_endproc
 218              	.LFE124:
 219              		.size	USBD_USR_DeviceConnected, .-USBD_USR_DeviceConnected
 220              		.global	USR_cb
 221 0002 00BF     		.section	.data.USR_cb,"aw"
 222              		.align	2
 223              		.type	USR_cb, %object
 224              		.size	USR_cb, 28
 225              	USR_cb:
 226              	@ Init:
 227 0000 00000000 		.word	USBD_USR_Init
 228              	@ DeviceReset:
 229 0004 00000000 		.word	USBD_USR_DeviceReset
 230              	@ DeviceConfigured:
 231 0008 00000000 		.word	USBD_USR_DeviceConfigured
 232              	@ DeviceSuspended:
 233 000c 00000000 		.word	USBD_USR_DeviceSuspended
 234              	@ DeviceResumed:
 235 0010 00000000 		.word	USBD_USR_DeviceResumed
 236              	@ DeviceConnected:
 237 0014 00000000 		.word	USBD_USR_DeviceConnected
 238              	@ DeviceDisconnected:
 239 0018 00000000 		.word	USBD_USR_DeviceDisconnected
 240              		.text
 241              	.Letext0:
 242              		.file 2 "c:\\program files (x86)\\gnu arm embedded toolchain\\10 2021.10\\arm-none-eabi\\include\\
 243              		.file 3 "c:\\program files (x86)\\gnu arm embedded toolchain\\10 2021.10\\arm-none-eabi\\include\\
 244              		.file 4 "../Libraries/STM32_USB_OTG_Driver/inc/usb_core.h"
 245              		.file 5 "../Libraries/STM32_USB_Device_Library/Core/inc/usbd_usr.h"