ARM GAS  C:\Users\admin\AppData\Local\Temp\cclOLSai.s 			page 1


   1              		.cpu cortex-m4
   2              		.arch armv7e-m
   3              		.fpu fpv4-sp-d16
   4              		.eabi_attribute 27, 1	@ Tag_ABI_HardFP_use
   5              		.eabi_attribute 28, 1	@ Tag_ABI_VFP_args
   6              		.eabi_attribute 23, 1	@ Tag_ABI_FP_number_model
   7              		.eabi_attribute 24, 1	@ Tag_ABI_align8_needed
   8              		.eabi_attribute 25, 1	@ Tag_ABI_align8_preserved
   9              		.eabi_attribute 26, 1	@ Tag_ABI_enum_size
  10              		.eabi_attribute 30, 2	@ Tag_ABI_optimization_goals
  11              		.eabi_attribute 34, 1	@ Tag_CPU_unaligned_access
  12              		.eabi_attribute 18, 4	@ Tag_ABI_PCS_wchar_t
  13              		.file	"usbd_req.c"
  14              	@ GNU C89 (GNU Arm Embedded Toolchain 10.3-2021.10) version 10.3.1 20210824 (release) (arm-none-eab
  15              	@	compiled by GNU C version 7.3-win32 20180312, GMP version 6.1.0, MPFR version 3.1.4, MPC version 
  16              	
  17              	@ GGC heuristics: --param ggc-min-expand=100 --param ggc-min-heapsize=131072
  18              	@ options passed:  -I . -I . -I ../Utilities/STM32F4-Discovery/
  19              	@ -I ../Libraries/STM32_USB_Device_Library/Class/audio/inc/
  20              	@ -I ../Libraries/STM32_USB_Device_Library/Core/inc/
  21              	@ -I ../Libraries/STM32_USB_OTG_Driver/inc/
  22              	@ -I ../Utilities/STM32F4-Discovery/
  23              	@ -I ../Libraries/STM32F4xx_StdPeriph_Driver/inc/
  24              	@ -I ../Utilities/STM32F4-Discovery/
  25              	@ -I ../Libraries/CMSIS/ST/STM32F4xx/Include/
  26              	@ -I ../Libraries/CMSIS/Include/ -imultilib thumb/v7e-m+fp/hard
  27              	@ -iprefix c:\program files (x86)\gnu arm embedded toolchain\10 2021.10\bin\../lib/gcc/arm-none-eab
  28              	@ -isysroot c:\program files (x86)\gnu arm embedded toolchain\10 2021.10\bin\../arm-none-eabi
  29              	@ -MD out/usbd_req.d -MF out/usbd_req.d -MP -MQ out/usbd_req.o
  30              	@ -D__USES_INITFINI__ -D STM32F4XX -D __VFP_FP__ -D USE_USB_OTG_FS
  31              	@ ../Libraries/STM32_USB_Device_Library/Core/src/usbd_req.c -mcpu=cortex-m4
  32              	@ -mthumb -mfloat-abi=hard -mfpu=fpv4-sp-d16 -mlibarch=armv7e-m+fp
  33              	@ -march=armv7e-m+fp -auxbase-strip out/usbd_req.o -g -ggdb3 -O3 -Wall
  34              	@ -Wstrict-prototypes -Wextra -std=gnu90 -ffast-math -ffunction-sections
  35              	@ -fdata-sections -fverbose-asm
  36              	@ options enabled:  -faggressive-loop-optimizations -falign-functions
  37              	@ -falign-jumps -falign-labels -falign-loops -fallocation-dce
  38              	@ -fassociative-math -fauto-inc-dec -fbranch-count-reg -fcaller-saves
  39              	@ -fcombine-stack-adjustments -fcompare-elim -fcprop-registers
  40              	@ -fcrossjumping -fcse-follow-jumps -fcx-limited-range -fdata-sections
  41              	@ -fdefer-pop -fdelete-null-pointer-checks -fdevirtualize
  42              	@ -fdevirtualize-speculatively -fdwarf2-cfi-asm -fearly-inlining
  43              	@ -feliminate-unused-debug-symbols -feliminate-unused-debug-types
  44              	@ -fexpensive-optimizations -ffinite-math-only -fforward-propagate
  45              	@ -ffp-int-builtin-inexact -ffunction-cse -ffunction-sections -fgcse
  46              	@ -fgcse-after-reload -fgcse-lm -fgnu-unique -fguess-branch-probability
  47              	@ -fhoist-adjacent-loads -fident -fif-conversion -fif-conversion2
  48              	@ -findirect-inlining -finline -finline-atomics -finline-functions
  49              	@ -finline-functions-called-once -finline-small-functions -fipa-bit-cp
  50              	@ -fipa-cp -fipa-cp-clone -fipa-icf -fipa-icf-functions -fipa-icf-variables
  51              	@ -fipa-profile -fipa-pure-const -fipa-ra -fipa-reference
  52              	@ -fipa-reference-addressable -fipa-sra -fipa-stack-alignment -fipa-vrp
  53              	@ -fira-hoist-pressure -fira-share-save-slots -fira-share-spill-slots
  54              	@ -fisolate-erroneous-paths-dereference -fivopts -fkeep-static-consts
  55              	@ -fleading-underscore -flifetime-dse -floop-interchange
  56              	@ -floop-unroll-and-jam -flra-remat -fmerge-constants -fmerge-debug-strings
  57              	@ -fmove-loop-invariants -fomit-frame-pointer -foptimize-sibling-calls
ARM GAS  C:\Users\admin\AppData\Local\Temp\cclOLSai.s 			page 2


  58              	@ -foptimize-strlen -fpartial-inlining -fpeel-loops -fpeephole -fpeephole2
  59              	@ -fplt -fpredictive-commoning -fprefetch-loop-arrays -freciprocal-math
  60              	@ -freg-struct-return -freorder-blocks -freorder-functions
  61              	@ -frerun-cse-after-loop -fsched-critical-path-heuristic
  62              	@ -fsched-dep-count-heuristic -fsched-group-heuristic -fsched-interblock
  63              	@ -fsched-last-insn-heuristic -fsched-pressure -fsched-rank-heuristic
  64              	@ -fsched-spec -fsched-spec-insn-heuristic -fsched-stalled-insns-dep
  65              	@ -fschedule-insns -fschedule-insns2 -fsection-anchors
  66              	@ -fsemantic-interposition -fshow-column -fshrink-wrap
  67              	@ -fshrink-wrap-separate -fsplit-ivs-in-unroller -fsplit-loops
  68              	@ -fsplit-paths -fsplit-wide-types -fssa-backprop -fssa-phiopt -fstdarg-opt
  69              	@ -fstore-merging -fstrict-aliasing -fstrict-volatile-bitfields
  70              	@ -fsync-libcalls -fthread-jumps -ftoplevel-reorder -ftree-bit-ccp
  71              	@ -ftree-builtin-call-dce -ftree-ccp -ftree-ch -ftree-coalesce-vars
  72              	@ -ftree-copy-prop -ftree-cselim -ftree-dce -ftree-dominator-opts
  73              	@ -ftree-dse -ftree-forwprop -ftree-fre -ftree-loop-distribute-patterns
  74              	@ -ftree-loop-distribution -ftree-loop-if-convert -ftree-loop-im
  75              	@ -ftree-loop-ivcanon -ftree-loop-optimize -ftree-loop-vectorize
  76              	@ -ftree-parallelize-loops= -ftree-partial-pre -ftree-phiprop -ftree-pre
  77              	@ -ftree-pta -ftree-reassoc -ftree-scev-cprop -ftree-sink
  78              	@ -ftree-slp-vectorize -ftree-slsr -ftree-sra -ftree-switch-conversion
  79              	@ -ftree-tail-merge -ftree-ter -ftree-vrp -funit-at-a-time
  80              	@ -funsafe-math-optimizations -funswitch-loops -fvar-tracking
  81              	@ -fvar-tracking-assignments -fverbose-asm -fversion-loops-for-strides
  82              	@ -fzero-initialized-in-bss -masm-syntax-unified -mbe32 -mlittle-endian
  83              	@ -mpic-data-is-text-relative -msched-prolog -mthumb -munaligned-access
  84              	@ -mvectorize-with-neon-quad
  85              	
  86              		.text
  87              	.Ltext0:
  88              		.cfi_sections	.debug_frame
  89              		.section	.text.USBD_StdDevReq,"ax",%progbits
  90              		.align	1
  91              		.p2align 2,,3
  92              		.global	USBD_StdDevReq
  93              		.syntax unified
  94              		.thumb
  95              		.thumb_func
  96              		.type	USBD_StdDevReq, %function
  97              	USBD_StdDevReq:
  98              	.LVL0:
  99              	.LFB110:
 100              		.file 1 "../Libraries/STM32_USB_Device_Library/Core/src/usbd_req.c"
   1:../Libraries/STM32_USB_Device_Library/Core/src/usbd_req.c **** /**
   2:../Libraries/STM32_USB_Device_Library/Core/src/usbd_req.c ****   ******************************************************************************
   3:../Libraries/STM32_USB_Device_Library/Core/src/usbd_req.c ****   * @file    usbd_req.c
   4:../Libraries/STM32_USB_Device_Library/Core/src/usbd_req.c ****   * @author  MCD Application Team
   5:../Libraries/STM32_USB_Device_Library/Core/src/usbd_req.c ****   * @version V1.1.0
   6:../Libraries/STM32_USB_Device_Library/Core/src/usbd_req.c ****   * @date    19-March-2012 
   7:../Libraries/STM32_USB_Device_Library/Core/src/usbd_req.c ****   * @brief   This file provides the standard USB requests following chapter 9.
   8:../Libraries/STM32_USB_Device_Library/Core/src/usbd_req.c ****   ******************************************************************************
   9:../Libraries/STM32_USB_Device_Library/Core/src/usbd_req.c ****   * @attention
  10:../Libraries/STM32_USB_Device_Library/Core/src/usbd_req.c ****   *
  11:../Libraries/STM32_USB_Device_Library/Core/src/usbd_req.c ****   * <h2><center>&copy; COPYRIGHT 2012 STMicroelectronics</center></h2>
  12:../Libraries/STM32_USB_Device_Library/Core/src/usbd_req.c ****   *
  13:../Libraries/STM32_USB_Device_Library/Core/src/usbd_req.c ****   * Licensed under MCD-ST Liberty SW License Agreement V2, (the "License");
  14:../Libraries/STM32_USB_Device_Library/Core/src/usbd_req.c ****   * You may not use this file except in compliance with the License.
ARM GAS  C:\Users\admin\AppData\Local\Temp\cclOLSai.s 			page 3


  15:../Libraries/STM32_USB_Device_Library/Core/src/usbd_req.c ****   * You may obtain a copy of the License at:
  16:../Libraries/STM32_USB_Device_Library/Core/src/usbd_req.c ****   *
  17:../Libraries/STM32_USB_Device_Library/Core/src/usbd_req.c ****   *        http://www.st.com/software_license_agreement_liberty_v2
  18:../Libraries/STM32_USB_Device_Library/Core/src/usbd_req.c ****   *
  19:../Libraries/STM32_USB_Device_Library/Core/src/usbd_req.c ****   * Unless required by applicable law or agreed to in writing, software 
  20:../Libraries/STM32_USB_Device_Library/Core/src/usbd_req.c ****   * distributed under the License is distributed on an "AS IS" BASIS, 
  21:../Libraries/STM32_USB_Device_Library/Core/src/usbd_req.c ****   * WITHOUT WARRANTIES OR CONDITIONS OF ANY KIND, either express or implied.
  22:../Libraries/STM32_USB_Device_Library/Core/src/usbd_req.c ****   * See the License for the specific language governing permissions and
  23:../Libraries/STM32_USB_Device_Library/Core/src/usbd_req.c ****   * limitations under the License.
  24:../Libraries/STM32_USB_Device_Library/Core/src/usbd_req.c ****   *
  25:../Libraries/STM32_USB_Device_Library/Core/src/usbd_req.c ****   ******************************************************************************
  26:../Libraries/STM32_USB_Device_Library/Core/src/usbd_req.c ****   */ 
  27:../Libraries/STM32_USB_Device_Library/Core/src/usbd_req.c **** 
  28:../Libraries/STM32_USB_Device_Library/Core/src/usbd_req.c **** /* Includes ------------------------------------------------------------------*/
  29:../Libraries/STM32_USB_Device_Library/Core/src/usbd_req.c **** #include "usbd_req.h"
  30:../Libraries/STM32_USB_Device_Library/Core/src/usbd_req.c **** #include "usbd_ioreq.h"
  31:../Libraries/STM32_USB_Device_Library/Core/src/usbd_req.c **** #include "usbd_desc.h"
  32:../Libraries/STM32_USB_Device_Library/Core/src/usbd_req.c **** 
  33:../Libraries/STM32_USB_Device_Library/Core/src/usbd_req.c **** 
  34:../Libraries/STM32_USB_Device_Library/Core/src/usbd_req.c **** /** @addtogroup STM32_USB_OTG_DEVICE_LIBRARY
  35:../Libraries/STM32_USB_Device_Library/Core/src/usbd_req.c ****   * @{
  36:../Libraries/STM32_USB_Device_Library/Core/src/usbd_req.c ****   */
  37:../Libraries/STM32_USB_Device_Library/Core/src/usbd_req.c **** 
  38:../Libraries/STM32_USB_Device_Library/Core/src/usbd_req.c **** 
  39:../Libraries/STM32_USB_Device_Library/Core/src/usbd_req.c **** /** @defgroup USBD_REQ 
  40:../Libraries/STM32_USB_Device_Library/Core/src/usbd_req.c ****   * @brief USB standard requests module
  41:../Libraries/STM32_USB_Device_Library/Core/src/usbd_req.c ****   * @{
  42:../Libraries/STM32_USB_Device_Library/Core/src/usbd_req.c ****   */ 
  43:../Libraries/STM32_USB_Device_Library/Core/src/usbd_req.c **** 
  44:../Libraries/STM32_USB_Device_Library/Core/src/usbd_req.c **** /** @defgroup USBD_REQ_Private_TypesDefinitions
  45:../Libraries/STM32_USB_Device_Library/Core/src/usbd_req.c ****   * @{
  46:../Libraries/STM32_USB_Device_Library/Core/src/usbd_req.c ****   */ 
  47:../Libraries/STM32_USB_Device_Library/Core/src/usbd_req.c **** /**
  48:../Libraries/STM32_USB_Device_Library/Core/src/usbd_req.c ****   * @}
  49:../Libraries/STM32_USB_Device_Library/Core/src/usbd_req.c ****   */ 
  50:../Libraries/STM32_USB_Device_Library/Core/src/usbd_req.c **** 
  51:../Libraries/STM32_USB_Device_Library/Core/src/usbd_req.c **** 
  52:../Libraries/STM32_USB_Device_Library/Core/src/usbd_req.c **** /** @defgroup USBD_REQ_Private_Defines
  53:../Libraries/STM32_USB_Device_Library/Core/src/usbd_req.c ****   * @{
  54:../Libraries/STM32_USB_Device_Library/Core/src/usbd_req.c ****   */ 
  55:../Libraries/STM32_USB_Device_Library/Core/src/usbd_req.c **** 
  56:../Libraries/STM32_USB_Device_Library/Core/src/usbd_req.c **** /**
  57:../Libraries/STM32_USB_Device_Library/Core/src/usbd_req.c ****   * @}
  58:../Libraries/STM32_USB_Device_Library/Core/src/usbd_req.c ****   */ 
  59:../Libraries/STM32_USB_Device_Library/Core/src/usbd_req.c **** 
  60:../Libraries/STM32_USB_Device_Library/Core/src/usbd_req.c **** 
  61:../Libraries/STM32_USB_Device_Library/Core/src/usbd_req.c **** /** @defgroup USBD_REQ_Private_Macros
  62:../Libraries/STM32_USB_Device_Library/Core/src/usbd_req.c ****   * @{
  63:../Libraries/STM32_USB_Device_Library/Core/src/usbd_req.c ****   */ 
  64:../Libraries/STM32_USB_Device_Library/Core/src/usbd_req.c **** /**
  65:../Libraries/STM32_USB_Device_Library/Core/src/usbd_req.c ****   * @}
  66:../Libraries/STM32_USB_Device_Library/Core/src/usbd_req.c ****   */ 
  67:../Libraries/STM32_USB_Device_Library/Core/src/usbd_req.c **** 
  68:../Libraries/STM32_USB_Device_Library/Core/src/usbd_req.c **** 
  69:../Libraries/STM32_USB_Device_Library/Core/src/usbd_req.c **** /** @defgroup USBD_REQ_Private_Variables
  70:../Libraries/STM32_USB_Device_Library/Core/src/usbd_req.c ****   * @{
  71:../Libraries/STM32_USB_Device_Library/Core/src/usbd_req.c ****   */ 
ARM GAS  C:\Users\admin\AppData\Local\Temp\cclOLSai.s 			page 4


  72:../Libraries/STM32_USB_Device_Library/Core/src/usbd_req.c **** extern __IO USB_OTG_DCTL_TypeDef SET_TEST_MODE;
  73:../Libraries/STM32_USB_Device_Library/Core/src/usbd_req.c **** 
  74:../Libraries/STM32_USB_Device_Library/Core/src/usbd_req.c **** #ifdef USB_OTG_HS_INTERNAL_DMA_ENABLED
  75:../Libraries/STM32_USB_Device_Library/Core/src/usbd_req.c ****   #if defined ( __ICCARM__ ) /*!< IAR Compiler */
  76:../Libraries/STM32_USB_Device_Library/Core/src/usbd_req.c ****     #pragma data_alignment=4   
  77:../Libraries/STM32_USB_Device_Library/Core/src/usbd_req.c ****   #endif
  78:../Libraries/STM32_USB_Device_Library/Core/src/usbd_req.c **** #endif /* USB_OTG_HS_INTERNAL_DMA_ENABLED */  
  79:../Libraries/STM32_USB_Device_Library/Core/src/usbd_req.c **** __ALIGN_BEGIN uint32_t USBD_ep_status __ALIGN_END  = 0; 
  80:../Libraries/STM32_USB_Device_Library/Core/src/usbd_req.c **** 
  81:../Libraries/STM32_USB_Device_Library/Core/src/usbd_req.c **** #ifdef USB_OTG_HS_INTERNAL_DMA_ENABLED
  82:../Libraries/STM32_USB_Device_Library/Core/src/usbd_req.c ****   #if defined ( __ICCARM__ ) /*!< IAR Compiler */
  83:../Libraries/STM32_USB_Device_Library/Core/src/usbd_req.c ****     #pragma data_alignment=4   
  84:../Libraries/STM32_USB_Device_Library/Core/src/usbd_req.c ****   #endif
  85:../Libraries/STM32_USB_Device_Library/Core/src/usbd_req.c **** #endif /* USB_OTG_HS_INTERNAL_DMA_ENABLED */
  86:../Libraries/STM32_USB_Device_Library/Core/src/usbd_req.c **** __ALIGN_BEGIN uint32_t  USBD_default_cfg __ALIGN_END  = 0;
  87:../Libraries/STM32_USB_Device_Library/Core/src/usbd_req.c **** 
  88:../Libraries/STM32_USB_Device_Library/Core/src/usbd_req.c **** #ifdef USB_OTG_HS_INTERNAL_DMA_ENABLED
  89:../Libraries/STM32_USB_Device_Library/Core/src/usbd_req.c ****   #if defined ( __ICCARM__ ) /*!< IAR Compiler */
  90:../Libraries/STM32_USB_Device_Library/Core/src/usbd_req.c ****     #pragma data_alignment=4   
  91:../Libraries/STM32_USB_Device_Library/Core/src/usbd_req.c ****   #endif
  92:../Libraries/STM32_USB_Device_Library/Core/src/usbd_req.c **** #endif /* USB_OTG_HS_INTERNAL_DMA_ENABLED */
  93:../Libraries/STM32_USB_Device_Library/Core/src/usbd_req.c **** __ALIGN_BEGIN uint32_t  USBD_cfg_status __ALIGN_END  = 0;  
  94:../Libraries/STM32_USB_Device_Library/Core/src/usbd_req.c **** 
  95:../Libraries/STM32_USB_Device_Library/Core/src/usbd_req.c **** #ifdef USB_OTG_HS_INTERNAL_DMA_ENABLED
  96:../Libraries/STM32_USB_Device_Library/Core/src/usbd_req.c ****   #if defined ( __ICCARM__ ) /*!< IAR Compiler */
  97:../Libraries/STM32_USB_Device_Library/Core/src/usbd_req.c ****     #pragma data_alignment=4   
  98:../Libraries/STM32_USB_Device_Library/Core/src/usbd_req.c ****   #endif
  99:../Libraries/STM32_USB_Device_Library/Core/src/usbd_req.c **** #endif /* USB_OTG_HS_INTERNAL_DMA_ENABLED */
 100:../Libraries/STM32_USB_Device_Library/Core/src/usbd_req.c **** __ALIGN_BEGIN uint8_t USBD_StrDesc[USB_MAX_STR_DESC_SIZ] __ALIGN_END ;
 101:../Libraries/STM32_USB_Device_Library/Core/src/usbd_req.c **** /**
 102:../Libraries/STM32_USB_Device_Library/Core/src/usbd_req.c ****   * @}
 103:../Libraries/STM32_USB_Device_Library/Core/src/usbd_req.c ****   */ 
 104:../Libraries/STM32_USB_Device_Library/Core/src/usbd_req.c **** 
 105:../Libraries/STM32_USB_Device_Library/Core/src/usbd_req.c **** 
 106:../Libraries/STM32_USB_Device_Library/Core/src/usbd_req.c **** /** @defgroup USBD_REQ_Private_FunctionPrototypes
 107:../Libraries/STM32_USB_Device_Library/Core/src/usbd_req.c ****   * @{
 108:../Libraries/STM32_USB_Device_Library/Core/src/usbd_req.c ****   */ 
 109:../Libraries/STM32_USB_Device_Library/Core/src/usbd_req.c **** static void USBD_GetDescriptor(USB_OTG_CORE_HANDLE  *pdev, 
 110:../Libraries/STM32_USB_Device_Library/Core/src/usbd_req.c ****                                USB_SETUP_REQ *req);
 111:../Libraries/STM32_USB_Device_Library/Core/src/usbd_req.c **** 
 112:../Libraries/STM32_USB_Device_Library/Core/src/usbd_req.c **** static void USBD_SetAddress(USB_OTG_CORE_HANDLE  *pdev, 
 113:../Libraries/STM32_USB_Device_Library/Core/src/usbd_req.c ****                             USB_SETUP_REQ *req);
 114:../Libraries/STM32_USB_Device_Library/Core/src/usbd_req.c **** 
 115:../Libraries/STM32_USB_Device_Library/Core/src/usbd_req.c **** static void USBD_SetConfig(USB_OTG_CORE_HANDLE  *pdev, 
 116:../Libraries/STM32_USB_Device_Library/Core/src/usbd_req.c ****                            USB_SETUP_REQ *req);
 117:../Libraries/STM32_USB_Device_Library/Core/src/usbd_req.c **** 
 118:../Libraries/STM32_USB_Device_Library/Core/src/usbd_req.c **** static void USBD_GetConfig(USB_OTG_CORE_HANDLE  *pdev, 
 119:../Libraries/STM32_USB_Device_Library/Core/src/usbd_req.c ****                            USB_SETUP_REQ *req);
 120:../Libraries/STM32_USB_Device_Library/Core/src/usbd_req.c **** 
 121:../Libraries/STM32_USB_Device_Library/Core/src/usbd_req.c **** static void USBD_GetStatus(USB_OTG_CORE_HANDLE  *pdev, 
 122:../Libraries/STM32_USB_Device_Library/Core/src/usbd_req.c ****                            USB_SETUP_REQ *req);
 123:../Libraries/STM32_USB_Device_Library/Core/src/usbd_req.c **** 
 124:../Libraries/STM32_USB_Device_Library/Core/src/usbd_req.c **** static void USBD_SetFeature(USB_OTG_CORE_HANDLE  *pdev, 
 125:../Libraries/STM32_USB_Device_Library/Core/src/usbd_req.c ****                             USB_SETUP_REQ *req);
 126:../Libraries/STM32_USB_Device_Library/Core/src/usbd_req.c **** 
 127:../Libraries/STM32_USB_Device_Library/Core/src/usbd_req.c **** static void USBD_ClrFeature(USB_OTG_CORE_HANDLE  *pdev, 
 128:../Libraries/STM32_USB_Device_Library/Core/src/usbd_req.c ****                             USB_SETUP_REQ *req);
ARM GAS  C:\Users\admin\AppData\Local\Temp\cclOLSai.s 			page 5


 129:../Libraries/STM32_USB_Device_Library/Core/src/usbd_req.c **** 
 130:../Libraries/STM32_USB_Device_Library/Core/src/usbd_req.c **** static uint8_t USBD_GetLen(uint8_t *buf);
 131:../Libraries/STM32_USB_Device_Library/Core/src/usbd_req.c **** /**
 132:../Libraries/STM32_USB_Device_Library/Core/src/usbd_req.c ****   * @}
 133:../Libraries/STM32_USB_Device_Library/Core/src/usbd_req.c ****   */ 
 134:../Libraries/STM32_USB_Device_Library/Core/src/usbd_req.c **** 
 135:../Libraries/STM32_USB_Device_Library/Core/src/usbd_req.c **** 
 136:../Libraries/STM32_USB_Device_Library/Core/src/usbd_req.c **** /** @defgroup USBD_REQ_Private_Functions
 137:../Libraries/STM32_USB_Device_Library/Core/src/usbd_req.c ****   * @{
 138:../Libraries/STM32_USB_Device_Library/Core/src/usbd_req.c ****   */ 
 139:../Libraries/STM32_USB_Device_Library/Core/src/usbd_req.c **** 
 140:../Libraries/STM32_USB_Device_Library/Core/src/usbd_req.c **** 
 141:../Libraries/STM32_USB_Device_Library/Core/src/usbd_req.c **** /**
 142:../Libraries/STM32_USB_Device_Library/Core/src/usbd_req.c **** * @brief  USBD_StdDevReq
 143:../Libraries/STM32_USB_Device_Library/Core/src/usbd_req.c **** *         Handle standard usb device requests
 144:../Libraries/STM32_USB_Device_Library/Core/src/usbd_req.c **** * @param  pdev: device instance
 145:../Libraries/STM32_USB_Device_Library/Core/src/usbd_req.c **** * @param  req: usb request
 146:../Libraries/STM32_USB_Device_Library/Core/src/usbd_req.c **** * @retval status
 147:../Libraries/STM32_USB_Device_Library/Core/src/usbd_req.c **** */
 148:../Libraries/STM32_USB_Device_Library/Core/src/usbd_req.c **** USBD_Status  USBD_StdDevReq (USB_OTG_CORE_HANDLE  *pdev, USB_SETUP_REQ  *req)
 149:../Libraries/STM32_USB_Device_Library/Core/src/usbd_req.c **** {
 101              		.loc 1 149 1 view -0
 102              		.cfi_startproc
 103              		@ args = 0, pretend = 0, frame = 8
 104              		@ frame_needed = 0, uses_anonymous_args = 0
 105              		.loc 1 149 1 is_stmt 0 view .LVU1
 106 0000 70B5     		push	{r4, r5, r6, lr}	@
 107              		.cfi_def_cfa_offset 16
 108              		.cfi_offset 4, -16
 109              		.cfi_offset 5, -12
 110              		.cfi_offset 6, -8
 111              		.cfi_offset 14, -4
 112              	@ ../Libraries/STM32_USB_Device_Library/Core/src/usbd_req.c:152:   switch (req->bRequest) 
 150:../Libraries/STM32_USB_Device_Library/Core/src/usbd_req.c ****   USBD_Status ret = USBD_OK;  
 151:../Libraries/STM32_USB_Device_Library/Core/src/usbd_req.c ****   
 152:../Libraries/STM32_USB_Device_Library/Core/src/usbd_req.c ****   switch (req->bRequest) 
 113              		.loc 1 152 3 view .LVU2
 114 0002 4B78     		ldrb	r3, [r1, #1]	@ zero_extendqisi2	@ req_4(D)->bRequest, req_4(D)->bRequest
 115              	@ ../Libraries/STM32_USB_Device_Library/Core/src/usbd_req.c:149: {
 149:../Libraries/STM32_USB_Device_Library/Core/src/usbd_req.c ****   USBD_Status ret = USBD_OK;  
 116              		.loc 1 149 1 view .LVU3
 117 0004 82B0     		sub	sp, sp, #8	@,,
 118              		.cfi_def_cfa_offset 24
 119              	@ ../Libraries/STM32_USB_Device_Library/Core/src/usbd_req.c:149: {
 149:../Libraries/STM32_USB_Device_Library/Core/src/usbd_req.c ****   USBD_Status ret = USBD_OK;  
 120              		.loc 1 149 1 view .LVU4
 121 0006 0D46     		mov	r5, r1	@ req, tmp289
 122 0008 0446     		mov	r4, r0	@ pdev, tmp288
 150:../Libraries/STM32_USB_Device_Library/Core/src/usbd_req.c ****   USBD_Status ret = USBD_OK;  
 123              		.loc 1 150 3 is_stmt 1 view .LVU5
 124              	.LVL1:
 125              		.loc 1 152 3 view .LVU6
 126 000a 092B     		cmp	r3, #9	@ req_4(D)->bRequest,
 127 000c 11D8     		bhi	.L2		@
 128 000e DFE803F0 		tbb	[pc, r3]	@ req_4(D)->bRequest
 129              	.L4:
 130 0012 3D       		.byte	(.L10-.L4)/2
ARM GAS  C:\Users\admin\AppData\Local\Temp\cclOLSai.s 			page 6


 131 0013 50       		.byte	(.L9-.L4)/2
 132 0014 10       		.byte	(.L2-.L4)/2
 133 0015 65       		.byte	(.L8-.L4)/2
 134 0016 10       		.byte	(.L2-.L4)/2
 135 0017 7A       		.byte	(.L7-.L4)/2
 136 0018 05       		.byte	(.L6-.L4)/2
 137 0019 10       		.byte	(.L2-.L4)/2
 138 001a 96       		.byte	(.L5-.L4)/2
 139 001b 1E       		.byte	(.L3-.L4)/2
 140              		.p2align 1
 141              	.L6:
 153:../Libraries/STM32_USB_Device_Library/Core/src/usbd_req.c ****   {
 154:../Libraries/STM32_USB_Device_Library/Core/src/usbd_req.c ****   case USB_REQ_GET_DESCRIPTOR: 
 155:../Libraries/STM32_USB_Device_Library/Core/src/usbd_req.c ****     
 156:../Libraries/STM32_USB_Device_Library/Core/src/usbd_req.c ****     USBD_GetDescriptor (pdev, req) ;
 142              		.loc 1 156 5 view .LVU7
 143              	.LVL2:
 144              	.LBB36:
 145              	.LBI36:
 157:../Libraries/STM32_USB_Device_Library/Core/src/usbd_req.c ****     break;
 158:../Libraries/STM32_USB_Device_Library/Core/src/usbd_req.c ****     
 159:../Libraries/STM32_USB_Device_Library/Core/src/usbd_req.c ****   case USB_REQ_SET_ADDRESS:                      
 160:../Libraries/STM32_USB_Device_Library/Core/src/usbd_req.c ****     USBD_SetAddress(pdev, req);
 161:../Libraries/STM32_USB_Device_Library/Core/src/usbd_req.c ****     break;
 162:../Libraries/STM32_USB_Device_Library/Core/src/usbd_req.c ****     
 163:../Libraries/STM32_USB_Device_Library/Core/src/usbd_req.c ****   case USB_REQ_SET_CONFIGURATION:                    
 164:../Libraries/STM32_USB_Device_Library/Core/src/usbd_req.c ****     USBD_SetConfig (pdev , req);
 165:../Libraries/STM32_USB_Device_Library/Core/src/usbd_req.c ****     break;
 166:../Libraries/STM32_USB_Device_Library/Core/src/usbd_req.c ****     
 167:../Libraries/STM32_USB_Device_Library/Core/src/usbd_req.c ****   case USB_REQ_GET_CONFIGURATION:                 
 168:../Libraries/STM32_USB_Device_Library/Core/src/usbd_req.c ****     USBD_GetConfig (pdev , req);
 169:../Libraries/STM32_USB_Device_Library/Core/src/usbd_req.c ****     break;
 170:../Libraries/STM32_USB_Device_Library/Core/src/usbd_req.c ****     
 171:../Libraries/STM32_USB_Device_Library/Core/src/usbd_req.c ****   case USB_REQ_GET_STATUS:                                  
 172:../Libraries/STM32_USB_Device_Library/Core/src/usbd_req.c ****     USBD_GetStatus (pdev , req);
 173:../Libraries/STM32_USB_Device_Library/Core/src/usbd_req.c ****     break;
 174:../Libraries/STM32_USB_Device_Library/Core/src/usbd_req.c ****     
 175:../Libraries/STM32_USB_Device_Library/Core/src/usbd_req.c ****     
 176:../Libraries/STM32_USB_Device_Library/Core/src/usbd_req.c ****   case USB_REQ_SET_FEATURE:   
 177:../Libraries/STM32_USB_Device_Library/Core/src/usbd_req.c ****     USBD_SetFeature (pdev , req);    
 178:../Libraries/STM32_USB_Device_Library/Core/src/usbd_req.c ****     break;
 179:../Libraries/STM32_USB_Device_Library/Core/src/usbd_req.c ****     
 180:../Libraries/STM32_USB_Device_Library/Core/src/usbd_req.c ****   case USB_REQ_CLEAR_FEATURE:                                   
 181:../Libraries/STM32_USB_Device_Library/Core/src/usbd_req.c ****     USBD_ClrFeature (pdev , req);
 182:../Libraries/STM32_USB_Device_Library/Core/src/usbd_req.c ****     break;
 183:../Libraries/STM32_USB_Device_Library/Core/src/usbd_req.c ****     
 184:../Libraries/STM32_USB_Device_Library/Core/src/usbd_req.c ****   default:  
 185:../Libraries/STM32_USB_Device_Library/Core/src/usbd_req.c ****     USBD_CtlError(pdev , req);
 186:../Libraries/STM32_USB_Device_Library/Core/src/usbd_req.c ****     break;
 187:../Libraries/STM32_USB_Device_Library/Core/src/usbd_req.c ****   }
 188:../Libraries/STM32_USB_Device_Library/Core/src/usbd_req.c ****   
 189:../Libraries/STM32_USB_Device_Library/Core/src/usbd_req.c ****   return ret;
 190:../Libraries/STM32_USB_Device_Library/Core/src/usbd_req.c **** }
 191:../Libraries/STM32_USB_Device_Library/Core/src/usbd_req.c **** 
 192:../Libraries/STM32_USB_Device_Library/Core/src/usbd_req.c **** /**
 193:../Libraries/STM32_USB_Device_Library/Core/src/usbd_req.c **** * @brief  USBD_StdItfReq
 194:../Libraries/STM32_USB_Device_Library/Core/src/usbd_req.c **** *         Handle standard usb interface requests
ARM GAS  C:\Users\admin\AppData\Local\Temp\cclOLSai.s 			page 7


 195:../Libraries/STM32_USB_Device_Library/Core/src/usbd_req.c **** * @param  pdev: USB OTG device instance
 196:../Libraries/STM32_USB_Device_Library/Core/src/usbd_req.c **** * @param  req: usb request
 197:../Libraries/STM32_USB_Device_Library/Core/src/usbd_req.c **** * @retval status
 198:../Libraries/STM32_USB_Device_Library/Core/src/usbd_req.c **** */
 199:../Libraries/STM32_USB_Device_Library/Core/src/usbd_req.c **** USBD_Status  USBD_StdItfReq (USB_OTG_CORE_HANDLE  *pdev, USB_SETUP_REQ  *req)
 200:../Libraries/STM32_USB_Device_Library/Core/src/usbd_req.c **** {
 201:../Libraries/STM32_USB_Device_Library/Core/src/usbd_req.c ****   USBD_Status ret = USBD_OK; 
 202:../Libraries/STM32_USB_Device_Library/Core/src/usbd_req.c ****   
 203:../Libraries/STM32_USB_Device_Library/Core/src/usbd_req.c ****   switch (pdev->dev.device_status) 
 204:../Libraries/STM32_USB_Device_Library/Core/src/usbd_req.c ****   {
 205:../Libraries/STM32_USB_Device_Library/Core/src/usbd_req.c ****   case USB_OTG_CONFIGURED:
 206:../Libraries/STM32_USB_Device_Library/Core/src/usbd_req.c ****     
 207:../Libraries/STM32_USB_Device_Library/Core/src/usbd_req.c ****     if (LOBYTE(req->wIndex) <= USBD_ITF_MAX_NUM) 
 208:../Libraries/STM32_USB_Device_Library/Core/src/usbd_req.c ****     {
 209:../Libraries/STM32_USB_Device_Library/Core/src/usbd_req.c ****       pdev->dev.class_cb->Setup (pdev, req); 
 210:../Libraries/STM32_USB_Device_Library/Core/src/usbd_req.c ****       
 211:../Libraries/STM32_USB_Device_Library/Core/src/usbd_req.c ****       if((req->wLength == 0)&& (ret == USBD_OK))
 212:../Libraries/STM32_USB_Device_Library/Core/src/usbd_req.c ****       {
 213:../Libraries/STM32_USB_Device_Library/Core/src/usbd_req.c ****          USBD_CtlSendStatus(pdev);
 214:../Libraries/STM32_USB_Device_Library/Core/src/usbd_req.c ****       }
 215:../Libraries/STM32_USB_Device_Library/Core/src/usbd_req.c ****     } 
 216:../Libraries/STM32_USB_Device_Library/Core/src/usbd_req.c ****     else 
 217:../Libraries/STM32_USB_Device_Library/Core/src/usbd_req.c ****     {                                               
 218:../Libraries/STM32_USB_Device_Library/Core/src/usbd_req.c ****        USBD_CtlError(pdev , req);
 219:../Libraries/STM32_USB_Device_Library/Core/src/usbd_req.c ****     }
 220:../Libraries/STM32_USB_Device_Library/Core/src/usbd_req.c ****     break;
 221:../Libraries/STM32_USB_Device_Library/Core/src/usbd_req.c ****     
 222:../Libraries/STM32_USB_Device_Library/Core/src/usbd_req.c ****   default:
 223:../Libraries/STM32_USB_Device_Library/Core/src/usbd_req.c ****      USBD_CtlError(pdev , req);
 224:../Libraries/STM32_USB_Device_Library/Core/src/usbd_req.c ****     break;
 225:../Libraries/STM32_USB_Device_Library/Core/src/usbd_req.c ****   }
 226:../Libraries/STM32_USB_Device_Library/Core/src/usbd_req.c ****   return ret;
 227:../Libraries/STM32_USB_Device_Library/Core/src/usbd_req.c **** }
 228:../Libraries/STM32_USB_Device_Library/Core/src/usbd_req.c **** 
 229:../Libraries/STM32_USB_Device_Library/Core/src/usbd_req.c **** /**
 230:../Libraries/STM32_USB_Device_Library/Core/src/usbd_req.c **** * @brief  USBD_StdEPReq
 231:../Libraries/STM32_USB_Device_Library/Core/src/usbd_req.c **** *         Handle standard usb endpoint requests
 232:../Libraries/STM32_USB_Device_Library/Core/src/usbd_req.c **** * @param  pdev: USB OTG device instance
 233:../Libraries/STM32_USB_Device_Library/Core/src/usbd_req.c **** * @param  req: usb request
 234:../Libraries/STM32_USB_Device_Library/Core/src/usbd_req.c **** * @retval status
 235:../Libraries/STM32_USB_Device_Library/Core/src/usbd_req.c **** */
 236:../Libraries/STM32_USB_Device_Library/Core/src/usbd_req.c **** USBD_Status  USBD_StdEPReq (USB_OTG_CORE_HANDLE  *pdev, USB_SETUP_REQ  *req)
 237:../Libraries/STM32_USB_Device_Library/Core/src/usbd_req.c **** {
 238:../Libraries/STM32_USB_Device_Library/Core/src/usbd_req.c ****   
 239:../Libraries/STM32_USB_Device_Library/Core/src/usbd_req.c ****   uint8_t   ep_addr;
 240:../Libraries/STM32_USB_Device_Library/Core/src/usbd_req.c ****   USBD_Status ret = USBD_OK; 
 241:../Libraries/STM32_USB_Device_Library/Core/src/usbd_req.c ****   
 242:../Libraries/STM32_USB_Device_Library/Core/src/usbd_req.c ****   ep_addr  = LOBYTE(req->wIndex);   
 243:../Libraries/STM32_USB_Device_Library/Core/src/usbd_req.c ****   
 244:../Libraries/STM32_USB_Device_Library/Core/src/usbd_req.c ****   switch (req->bRequest) 
 245:../Libraries/STM32_USB_Device_Library/Core/src/usbd_req.c ****   {
 246:../Libraries/STM32_USB_Device_Library/Core/src/usbd_req.c ****     
 247:../Libraries/STM32_USB_Device_Library/Core/src/usbd_req.c ****   case USB_REQ_SET_FEATURE :
 248:../Libraries/STM32_USB_Device_Library/Core/src/usbd_req.c ****     
 249:../Libraries/STM32_USB_Device_Library/Core/src/usbd_req.c ****     switch (pdev->dev.device_status) 
 250:../Libraries/STM32_USB_Device_Library/Core/src/usbd_req.c ****     {
 251:../Libraries/STM32_USB_Device_Library/Core/src/usbd_req.c ****     case USB_OTG_ADDRESSED:          
ARM GAS  C:\Users\admin\AppData\Local\Temp\cclOLSai.s 			page 8


 252:../Libraries/STM32_USB_Device_Library/Core/src/usbd_req.c ****       if ((ep_addr != 0x00) && (ep_addr != 0x80)) 
 253:../Libraries/STM32_USB_Device_Library/Core/src/usbd_req.c ****       {
 254:../Libraries/STM32_USB_Device_Library/Core/src/usbd_req.c ****         DCD_EP_Stall(pdev , ep_addr);
 255:../Libraries/STM32_USB_Device_Library/Core/src/usbd_req.c ****       }
 256:../Libraries/STM32_USB_Device_Library/Core/src/usbd_req.c ****       break;	
 257:../Libraries/STM32_USB_Device_Library/Core/src/usbd_req.c ****       
 258:../Libraries/STM32_USB_Device_Library/Core/src/usbd_req.c ****     case USB_OTG_CONFIGURED:   
 259:../Libraries/STM32_USB_Device_Library/Core/src/usbd_req.c ****       if (req->wValue == USB_FEATURE_EP_HALT)
 260:../Libraries/STM32_USB_Device_Library/Core/src/usbd_req.c ****       {
 261:../Libraries/STM32_USB_Device_Library/Core/src/usbd_req.c ****         if ((ep_addr != 0x00) && (ep_addr != 0x80)) 
 262:../Libraries/STM32_USB_Device_Library/Core/src/usbd_req.c ****         { 
 263:../Libraries/STM32_USB_Device_Library/Core/src/usbd_req.c ****           DCD_EP_Stall(pdev , ep_addr);
 264:../Libraries/STM32_USB_Device_Library/Core/src/usbd_req.c ****           
 265:../Libraries/STM32_USB_Device_Library/Core/src/usbd_req.c ****         }
 266:../Libraries/STM32_USB_Device_Library/Core/src/usbd_req.c ****       }
 267:../Libraries/STM32_USB_Device_Library/Core/src/usbd_req.c ****       pdev->dev.class_cb->Setup (pdev, req);   
 268:../Libraries/STM32_USB_Device_Library/Core/src/usbd_req.c ****       USBD_CtlSendStatus(pdev);
 269:../Libraries/STM32_USB_Device_Library/Core/src/usbd_req.c ****       
 270:../Libraries/STM32_USB_Device_Library/Core/src/usbd_req.c ****       break;
 271:../Libraries/STM32_USB_Device_Library/Core/src/usbd_req.c ****       
 272:../Libraries/STM32_USB_Device_Library/Core/src/usbd_req.c ****     default:                         
 273:../Libraries/STM32_USB_Device_Library/Core/src/usbd_req.c ****       USBD_CtlError(pdev , req);
 274:../Libraries/STM32_USB_Device_Library/Core/src/usbd_req.c ****       break;    
 275:../Libraries/STM32_USB_Device_Library/Core/src/usbd_req.c ****     }
 276:../Libraries/STM32_USB_Device_Library/Core/src/usbd_req.c ****     break;
 277:../Libraries/STM32_USB_Device_Library/Core/src/usbd_req.c ****     
 278:../Libraries/STM32_USB_Device_Library/Core/src/usbd_req.c ****   case USB_REQ_CLEAR_FEATURE :
 279:../Libraries/STM32_USB_Device_Library/Core/src/usbd_req.c ****     
 280:../Libraries/STM32_USB_Device_Library/Core/src/usbd_req.c ****     switch (pdev->dev.device_status) 
 281:../Libraries/STM32_USB_Device_Library/Core/src/usbd_req.c ****     {
 282:../Libraries/STM32_USB_Device_Library/Core/src/usbd_req.c ****     case USB_OTG_ADDRESSED:          
 283:../Libraries/STM32_USB_Device_Library/Core/src/usbd_req.c ****       if ((ep_addr != 0x00) && (ep_addr != 0x80)) 
 284:../Libraries/STM32_USB_Device_Library/Core/src/usbd_req.c ****       {
 285:../Libraries/STM32_USB_Device_Library/Core/src/usbd_req.c ****         DCD_EP_Stall(pdev , ep_addr);
 286:../Libraries/STM32_USB_Device_Library/Core/src/usbd_req.c ****       }
 287:../Libraries/STM32_USB_Device_Library/Core/src/usbd_req.c ****       break;	
 288:../Libraries/STM32_USB_Device_Library/Core/src/usbd_req.c ****       
 289:../Libraries/STM32_USB_Device_Library/Core/src/usbd_req.c ****     case USB_OTG_CONFIGURED:   
 290:../Libraries/STM32_USB_Device_Library/Core/src/usbd_req.c ****       if (req->wValue == USB_FEATURE_EP_HALT)
 291:../Libraries/STM32_USB_Device_Library/Core/src/usbd_req.c ****       {
 292:../Libraries/STM32_USB_Device_Library/Core/src/usbd_req.c ****         if ((ep_addr != 0x00) && (ep_addr != 0x80)) 
 293:../Libraries/STM32_USB_Device_Library/Core/src/usbd_req.c ****         {        
 294:../Libraries/STM32_USB_Device_Library/Core/src/usbd_req.c ****           DCD_EP_ClrStall(pdev , ep_addr);
 295:../Libraries/STM32_USB_Device_Library/Core/src/usbd_req.c ****           pdev->dev.class_cb->Setup (pdev, req);
 296:../Libraries/STM32_USB_Device_Library/Core/src/usbd_req.c ****         }
 297:../Libraries/STM32_USB_Device_Library/Core/src/usbd_req.c ****         USBD_CtlSendStatus(pdev);
 298:../Libraries/STM32_USB_Device_Library/Core/src/usbd_req.c ****       }
 299:../Libraries/STM32_USB_Device_Library/Core/src/usbd_req.c ****       break;
 300:../Libraries/STM32_USB_Device_Library/Core/src/usbd_req.c ****       
 301:../Libraries/STM32_USB_Device_Library/Core/src/usbd_req.c ****     default:                         
 302:../Libraries/STM32_USB_Device_Library/Core/src/usbd_req.c ****        USBD_CtlError(pdev , req);
 303:../Libraries/STM32_USB_Device_Library/Core/src/usbd_req.c ****       break;    
 304:../Libraries/STM32_USB_Device_Library/Core/src/usbd_req.c ****     }
 305:../Libraries/STM32_USB_Device_Library/Core/src/usbd_req.c ****     break;
 306:../Libraries/STM32_USB_Device_Library/Core/src/usbd_req.c ****     
 307:../Libraries/STM32_USB_Device_Library/Core/src/usbd_req.c ****   case USB_REQ_GET_STATUS:                  
 308:../Libraries/STM32_USB_Device_Library/Core/src/usbd_req.c ****     switch (pdev->dev.device_status) 
ARM GAS  C:\Users\admin\AppData\Local\Temp\cclOLSai.s 			page 9


 309:../Libraries/STM32_USB_Device_Library/Core/src/usbd_req.c ****     {
 310:../Libraries/STM32_USB_Device_Library/Core/src/usbd_req.c ****     case USB_OTG_ADDRESSED:          
 311:../Libraries/STM32_USB_Device_Library/Core/src/usbd_req.c ****       if ((ep_addr != 0x00) && (ep_addr != 0x80)) 
 312:../Libraries/STM32_USB_Device_Library/Core/src/usbd_req.c ****       {
 313:../Libraries/STM32_USB_Device_Library/Core/src/usbd_req.c ****         DCD_EP_Stall(pdev , ep_addr);
 314:../Libraries/STM32_USB_Device_Library/Core/src/usbd_req.c ****       }
 315:../Libraries/STM32_USB_Device_Library/Core/src/usbd_req.c ****       break;	
 316:../Libraries/STM32_USB_Device_Library/Core/src/usbd_req.c ****       
 317:../Libraries/STM32_USB_Device_Library/Core/src/usbd_req.c ****     case USB_OTG_CONFIGURED:         
 318:../Libraries/STM32_USB_Device_Library/Core/src/usbd_req.c ****       
 319:../Libraries/STM32_USB_Device_Library/Core/src/usbd_req.c ****       
 320:../Libraries/STM32_USB_Device_Library/Core/src/usbd_req.c ****       if ((ep_addr & 0x80)== 0x80)
 321:../Libraries/STM32_USB_Device_Library/Core/src/usbd_req.c ****       {
 322:../Libraries/STM32_USB_Device_Library/Core/src/usbd_req.c ****         if(pdev->dev.in_ep[ep_addr & 0x7F].is_stall)
 323:../Libraries/STM32_USB_Device_Library/Core/src/usbd_req.c ****         {
 324:../Libraries/STM32_USB_Device_Library/Core/src/usbd_req.c ****           USBD_ep_status = 0x0001;     
 325:../Libraries/STM32_USB_Device_Library/Core/src/usbd_req.c ****         }
 326:../Libraries/STM32_USB_Device_Library/Core/src/usbd_req.c ****         else
 327:../Libraries/STM32_USB_Device_Library/Core/src/usbd_req.c ****         {
 328:../Libraries/STM32_USB_Device_Library/Core/src/usbd_req.c ****           USBD_ep_status = 0x0000;  
 329:../Libraries/STM32_USB_Device_Library/Core/src/usbd_req.c ****         }
 330:../Libraries/STM32_USB_Device_Library/Core/src/usbd_req.c ****       }
 331:../Libraries/STM32_USB_Device_Library/Core/src/usbd_req.c ****       else if ((ep_addr & 0x80)== 0x00)
 332:../Libraries/STM32_USB_Device_Library/Core/src/usbd_req.c ****       {
 333:../Libraries/STM32_USB_Device_Library/Core/src/usbd_req.c ****         if(pdev->dev.out_ep[ep_addr].is_stall)
 334:../Libraries/STM32_USB_Device_Library/Core/src/usbd_req.c ****         {
 335:../Libraries/STM32_USB_Device_Library/Core/src/usbd_req.c ****           USBD_ep_status = 0x0001;     
 336:../Libraries/STM32_USB_Device_Library/Core/src/usbd_req.c ****         }
 337:../Libraries/STM32_USB_Device_Library/Core/src/usbd_req.c ****         
 338:../Libraries/STM32_USB_Device_Library/Core/src/usbd_req.c ****         else 
 339:../Libraries/STM32_USB_Device_Library/Core/src/usbd_req.c ****         {
 340:../Libraries/STM32_USB_Device_Library/Core/src/usbd_req.c ****           USBD_ep_status = 0x0000;     
 341:../Libraries/STM32_USB_Device_Library/Core/src/usbd_req.c ****         }      
 342:../Libraries/STM32_USB_Device_Library/Core/src/usbd_req.c ****       }
 343:../Libraries/STM32_USB_Device_Library/Core/src/usbd_req.c ****       USBD_CtlSendData (pdev,
 344:../Libraries/STM32_USB_Device_Library/Core/src/usbd_req.c ****                         (uint8_t *)&USBD_ep_status,
 345:../Libraries/STM32_USB_Device_Library/Core/src/usbd_req.c ****                         2);
 346:../Libraries/STM32_USB_Device_Library/Core/src/usbd_req.c ****       break;
 347:../Libraries/STM32_USB_Device_Library/Core/src/usbd_req.c ****       
 348:../Libraries/STM32_USB_Device_Library/Core/src/usbd_req.c ****     default:                         
 349:../Libraries/STM32_USB_Device_Library/Core/src/usbd_req.c ****        USBD_CtlError(pdev , req);
 350:../Libraries/STM32_USB_Device_Library/Core/src/usbd_req.c ****       break;
 351:../Libraries/STM32_USB_Device_Library/Core/src/usbd_req.c ****     }
 352:../Libraries/STM32_USB_Device_Library/Core/src/usbd_req.c ****     break;
 353:../Libraries/STM32_USB_Device_Library/Core/src/usbd_req.c ****     
 354:../Libraries/STM32_USB_Device_Library/Core/src/usbd_req.c ****   default:
 355:../Libraries/STM32_USB_Device_Library/Core/src/usbd_req.c ****     break;
 356:../Libraries/STM32_USB_Device_Library/Core/src/usbd_req.c ****   }
 357:../Libraries/STM32_USB_Device_Library/Core/src/usbd_req.c ****   return ret;
 358:../Libraries/STM32_USB_Device_Library/Core/src/usbd_req.c **** }
 359:../Libraries/STM32_USB_Device_Library/Core/src/usbd_req.c **** /**
 360:../Libraries/STM32_USB_Device_Library/Core/src/usbd_req.c **** * @brief  USBD_GetDescriptor
 361:../Libraries/STM32_USB_Device_Library/Core/src/usbd_req.c **** *         Handle Get Descriptor requests
 362:../Libraries/STM32_USB_Device_Library/Core/src/usbd_req.c **** * @param  pdev: device instance
 363:../Libraries/STM32_USB_Device_Library/Core/src/usbd_req.c **** * @param  req: usb request
 364:../Libraries/STM32_USB_Device_Library/Core/src/usbd_req.c **** * @retval status
 365:../Libraries/STM32_USB_Device_Library/Core/src/usbd_req.c **** */
ARM GAS  C:\Users\admin\AppData\Local\Temp\cclOLSai.s 			page 10


 366:../Libraries/STM32_USB_Device_Library/Core/src/usbd_req.c **** static void USBD_GetDescriptor(USB_OTG_CORE_HANDLE  *pdev, 
 146              		.loc 1 366 13 view .LVU8
 147              	.LBB37:
 367:../Libraries/STM32_USB_Device_Library/Core/src/usbd_req.c ****                                USB_SETUP_REQ *req)
 368:../Libraries/STM32_USB_Device_Library/Core/src/usbd_req.c **** {
 369:../Libraries/STM32_USB_Device_Library/Core/src/usbd_req.c ****   uint16_t len;
 148              		.loc 1 369 3 view .LVU9
 370:../Libraries/STM32_USB_Device_Library/Core/src/usbd_req.c ****   uint8_t *pbuf;
 149              		.loc 1 370 3 view .LVU10
 371:../Libraries/STM32_USB_Device_Library/Core/src/usbd_req.c ****   
 372:../Libraries/STM32_USB_Device_Library/Core/src/usbd_req.c ****     
 373:../Libraries/STM32_USB_Device_Library/Core/src/usbd_req.c ****   switch (req->wValue >> 8)
 150              		.loc 1 373 3 view .LVU11
 151              	@ ../Libraries/STM32_USB_Device_Library/Core/src/usbd_req.c:373:   switch (req->wValue >> 8)
 152              		.loc 1 373 14 is_stmt 0 view .LVU12
 153 001c 4B88     		ldrh	r3, [r1, #2]	@ _16, req_4(D)->wValue
 154              	@ ../Libraries/STM32_USB_Device_Library/Core/src/usbd_req.c:373:   switch (req->wValue >> 8)
 155              		.loc 1 373 23 view .LVU13
 156 001e 1E0A     		lsrs	r6, r3, #8	@ _17, _16,
 157              	@ ../Libraries/STM32_USB_Device_Library/Core/src/usbd_req.c:373:   switch (req->wValue >> 8)
 158              		.loc 1 373 3 view .LVU14
 159 0020 022E     		cmp	r6, #2	@ _17,
 160 0022 00F02C81 		beq	.L11		@,
 161 0026 032E     		cmp	r6, #3	@ _17,
 162 0028 00F0F080 		beq	.L12		@,
 163 002c 012E     		cmp	r6, #1	@ _17,
 164 002e 00F09680 		beq	.L65		@,
 165              	.LVL3:
 166              	.L2:
 167              		.loc 1 373 3 view .LVU15
 168              	.LBE37:
 169              	.LBE36:
 170              	.LBB41:
 171              	.LBB42:
 374:../Libraries/STM32_USB_Device_Library/Core/src/usbd_req.c ****   {
 375:../Libraries/STM32_USB_Device_Library/Core/src/usbd_req.c ****   case USB_DESC_TYPE_DEVICE:
 376:../Libraries/STM32_USB_Device_Library/Core/src/usbd_req.c ****     pbuf = pdev->dev.usr_device->GetDeviceDescriptor(pdev->cfg.speed, &len);
 377:../Libraries/STM32_USB_Device_Library/Core/src/usbd_req.c ****     if ((req->wLength == 64) ||( pdev->dev.device_status == USB_OTG_DEFAULT))  
 378:../Libraries/STM32_USB_Device_Library/Core/src/usbd_req.c ****     {                  
 379:../Libraries/STM32_USB_Device_Library/Core/src/usbd_req.c ****       len = 8;
 380:../Libraries/STM32_USB_Device_Library/Core/src/usbd_req.c ****     }
 381:../Libraries/STM32_USB_Device_Library/Core/src/usbd_req.c ****     break;
 382:../Libraries/STM32_USB_Device_Library/Core/src/usbd_req.c ****     
 383:../Libraries/STM32_USB_Device_Library/Core/src/usbd_req.c ****   case USB_DESC_TYPE_CONFIGURATION:
 384:../Libraries/STM32_USB_Device_Library/Core/src/usbd_req.c ****       pbuf   = (uint8_t *)pdev->dev.class_cb->GetConfigDescriptor(pdev->cfg.speed, &len);
 385:../Libraries/STM32_USB_Device_Library/Core/src/usbd_req.c **** #ifdef USB_OTG_HS_CORE
 386:../Libraries/STM32_USB_Device_Library/Core/src/usbd_req.c ****     if((pdev->cfg.speed == USB_OTG_SPEED_FULL )&&
 387:../Libraries/STM32_USB_Device_Library/Core/src/usbd_req.c ****        (pdev->cfg.phy_itface  == USB_OTG_ULPI_PHY))
 388:../Libraries/STM32_USB_Device_Library/Core/src/usbd_req.c ****     {
 389:../Libraries/STM32_USB_Device_Library/Core/src/usbd_req.c ****       pbuf   = (uint8_t *)pdev->dev.class_cb->GetOtherConfigDescriptor(pdev->cfg.speed, &len);
 390:../Libraries/STM32_USB_Device_Library/Core/src/usbd_req.c ****     }
 391:../Libraries/STM32_USB_Device_Library/Core/src/usbd_req.c **** #endif  
 392:../Libraries/STM32_USB_Device_Library/Core/src/usbd_req.c ****     pbuf[1] = USB_DESC_TYPE_CONFIGURATION;
 393:../Libraries/STM32_USB_Device_Library/Core/src/usbd_req.c ****     pdev->dev.pConfig_descriptor = pbuf;    
 394:../Libraries/STM32_USB_Device_Library/Core/src/usbd_req.c ****     break;
 395:../Libraries/STM32_USB_Device_Library/Core/src/usbd_req.c ****     
 396:../Libraries/STM32_USB_Device_Library/Core/src/usbd_req.c ****   case USB_DESC_TYPE_STRING:
ARM GAS  C:\Users\admin\AppData\Local\Temp\cclOLSai.s 			page 11


 397:../Libraries/STM32_USB_Device_Library/Core/src/usbd_req.c ****     switch ((uint8_t)(req->wValue))
 398:../Libraries/STM32_USB_Device_Library/Core/src/usbd_req.c ****     {
 399:../Libraries/STM32_USB_Device_Library/Core/src/usbd_req.c ****     case USBD_IDX_LANGID_STR:
 400:../Libraries/STM32_USB_Device_Library/Core/src/usbd_req.c ****      pbuf = pdev->dev.usr_device->GetLangIDStrDescriptor(pdev->cfg.speed, &len);        
 401:../Libraries/STM32_USB_Device_Library/Core/src/usbd_req.c ****       break;
 402:../Libraries/STM32_USB_Device_Library/Core/src/usbd_req.c ****       
 403:../Libraries/STM32_USB_Device_Library/Core/src/usbd_req.c ****     case USBD_IDX_MFC_STR:
 404:../Libraries/STM32_USB_Device_Library/Core/src/usbd_req.c ****       pbuf = pdev->dev.usr_device->GetManufacturerStrDescriptor(pdev->cfg.speed, &len);
 405:../Libraries/STM32_USB_Device_Library/Core/src/usbd_req.c ****       break;
 406:../Libraries/STM32_USB_Device_Library/Core/src/usbd_req.c ****       
 407:../Libraries/STM32_USB_Device_Library/Core/src/usbd_req.c ****     case USBD_IDX_PRODUCT_STR:
 408:../Libraries/STM32_USB_Device_Library/Core/src/usbd_req.c ****       pbuf = pdev->dev.usr_device->GetProductStrDescriptor(pdev->cfg.speed, &len);
 409:../Libraries/STM32_USB_Device_Library/Core/src/usbd_req.c ****       break;
 410:../Libraries/STM32_USB_Device_Library/Core/src/usbd_req.c ****       
 411:../Libraries/STM32_USB_Device_Library/Core/src/usbd_req.c ****     case USBD_IDX_SERIAL_STR:
 412:../Libraries/STM32_USB_Device_Library/Core/src/usbd_req.c ****       pbuf = pdev->dev.usr_device->GetSerialStrDescriptor(pdev->cfg.speed, &len);
 413:../Libraries/STM32_USB_Device_Library/Core/src/usbd_req.c ****       break;
 414:../Libraries/STM32_USB_Device_Library/Core/src/usbd_req.c ****       
 415:../Libraries/STM32_USB_Device_Library/Core/src/usbd_req.c ****     case USBD_IDX_CONFIG_STR:
 416:../Libraries/STM32_USB_Device_Library/Core/src/usbd_req.c ****       pbuf = pdev->dev.usr_device->GetConfigurationStrDescriptor(pdev->cfg.speed, &len);
 417:../Libraries/STM32_USB_Device_Library/Core/src/usbd_req.c ****       break;
 418:../Libraries/STM32_USB_Device_Library/Core/src/usbd_req.c ****       
 419:../Libraries/STM32_USB_Device_Library/Core/src/usbd_req.c ****     case USBD_IDX_INTERFACE_STR:
 420:../Libraries/STM32_USB_Device_Library/Core/src/usbd_req.c ****       pbuf = pdev->dev.usr_device->GetInterfaceStrDescriptor(pdev->cfg.speed, &len);
 421:../Libraries/STM32_USB_Device_Library/Core/src/usbd_req.c ****       break;
 422:../Libraries/STM32_USB_Device_Library/Core/src/usbd_req.c ****       
 423:../Libraries/STM32_USB_Device_Library/Core/src/usbd_req.c ****     default:
 424:../Libraries/STM32_USB_Device_Library/Core/src/usbd_req.c **** #ifdef USB_SUPPORT_USER_STRING_DESC
 425:../Libraries/STM32_USB_Device_Library/Core/src/usbd_req.c ****       pbuf = pdev->dev.class_cb->GetUsrStrDescriptor(pdev->cfg.speed, (req->wValue) , &len);
 426:../Libraries/STM32_USB_Device_Library/Core/src/usbd_req.c ****       break;
 427:../Libraries/STM32_USB_Device_Library/Core/src/usbd_req.c **** #else      
 428:../Libraries/STM32_USB_Device_Library/Core/src/usbd_req.c ****        USBD_CtlError(pdev , req);
 429:../Libraries/STM32_USB_Device_Library/Core/src/usbd_req.c ****       return;
 430:../Libraries/STM32_USB_Device_Library/Core/src/usbd_req.c **** #endif /* USBD_CtlError(pdev , req); */      
 431:../Libraries/STM32_USB_Device_Library/Core/src/usbd_req.c ****     }
 432:../Libraries/STM32_USB_Device_Library/Core/src/usbd_req.c ****     break;
 433:../Libraries/STM32_USB_Device_Library/Core/src/usbd_req.c ****   case USB_DESC_TYPE_DEVICE_QUALIFIER:                   
 434:../Libraries/STM32_USB_Device_Library/Core/src/usbd_req.c **** #ifdef USB_OTG_HS_CORE
 435:../Libraries/STM32_USB_Device_Library/Core/src/usbd_req.c ****     if(pdev->cfg.speed == USB_OTG_SPEED_HIGH  )   
 436:../Libraries/STM32_USB_Device_Library/Core/src/usbd_req.c ****     {
 437:../Libraries/STM32_USB_Device_Library/Core/src/usbd_req.c ****       
 438:../Libraries/STM32_USB_Device_Library/Core/src/usbd_req.c ****       pbuf   = (uint8_t *)pdev->dev.class_cb->GetConfigDescriptor(pdev->cfg.speed, &len);
 439:../Libraries/STM32_USB_Device_Library/Core/src/usbd_req.c ****             
 440:../Libraries/STM32_USB_Device_Library/Core/src/usbd_req.c ****       USBD_DeviceQualifierDesc[4]= pbuf[14];
 441:../Libraries/STM32_USB_Device_Library/Core/src/usbd_req.c ****       USBD_DeviceQualifierDesc[5]= pbuf[15];
 442:../Libraries/STM32_USB_Device_Library/Core/src/usbd_req.c ****       USBD_DeviceQualifierDesc[6]= pbuf[16];
 443:../Libraries/STM32_USB_Device_Library/Core/src/usbd_req.c ****       
 444:../Libraries/STM32_USB_Device_Library/Core/src/usbd_req.c ****       pbuf = USBD_DeviceQualifierDesc;
 445:../Libraries/STM32_USB_Device_Library/Core/src/usbd_req.c ****       len  = USB_LEN_DEV_QUALIFIER_DESC;
 446:../Libraries/STM32_USB_Device_Library/Core/src/usbd_req.c ****       break;
 447:../Libraries/STM32_USB_Device_Library/Core/src/usbd_req.c ****     }
 448:../Libraries/STM32_USB_Device_Library/Core/src/usbd_req.c ****     else
 449:../Libraries/STM32_USB_Device_Library/Core/src/usbd_req.c ****     {
 450:../Libraries/STM32_USB_Device_Library/Core/src/usbd_req.c ****       USBD_CtlError(pdev , req);
 451:../Libraries/STM32_USB_Device_Library/Core/src/usbd_req.c ****       return;
 452:../Libraries/STM32_USB_Device_Library/Core/src/usbd_req.c ****     }
 453:../Libraries/STM32_USB_Device_Library/Core/src/usbd_req.c **** #else
ARM GAS  C:\Users\admin\AppData\Local\Temp\cclOLSai.s 			page 12


 454:../Libraries/STM32_USB_Device_Library/Core/src/usbd_req.c ****       USBD_CtlError(pdev , req);
 455:../Libraries/STM32_USB_Device_Library/Core/src/usbd_req.c ****       return;
 456:../Libraries/STM32_USB_Device_Library/Core/src/usbd_req.c **** #endif    
 457:../Libraries/STM32_USB_Device_Library/Core/src/usbd_req.c **** 
 458:../Libraries/STM32_USB_Device_Library/Core/src/usbd_req.c ****   case USB_DESC_TYPE_OTHER_SPEED_CONFIGURATION:
 459:../Libraries/STM32_USB_Device_Library/Core/src/usbd_req.c **** #ifdef USB_OTG_HS_CORE   
 460:../Libraries/STM32_USB_Device_Library/Core/src/usbd_req.c **** 
 461:../Libraries/STM32_USB_Device_Library/Core/src/usbd_req.c ****     if(pdev->cfg.speed == USB_OTG_SPEED_HIGH  )   
 462:../Libraries/STM32_USB_Device_Library/Core/src/usbd_req.c ****     {
 463:../Libraries/STM32_USB_Device_Library/Core/src/usbd_req.c ****       pbuf   = (uint8_t *)pdev->dev.class_cb->GetOtherConfigDescriptor(pdev->cfg.speed, &len);
 464:../Libraries/STM32_USB_Device_Library/Core/src/usbd_req.c ****       pbuf[1] = USB_DESC_TYPE_OTHER_SPEED_CONFIGURATION;
 465:../Libraries/STM32_USB_Device_Library/Core/src/usbd_req.c ****       break; 
 466:../Libraries/STM32_USB_Device_Library/Core/src/usbd_req.c ****     }
 467:../Libraries/STM32_USB_Device_Library/Core/src/usbd_req.c ****     else
 468:../Libraries/STM32_USB_Device_Library/Core/src/usbd_req.c ****     {
 469:../Libraries/STM32_USB_Device_Library/Core/src/usbd_req.c ****       USBD_CtlError(pdev , req);
 470:../Libraries/STM32_USB_Device_Library/Core/src/usbd_req.c ****       return;
 471:../Libraries/STM32_USB_Device_Library/Core/src/usbd_req.c ****     }
 472:../Libraries/STM32_USB_Device_Library/Core/src/usbd_req.c **** #else
 473:../Libraries/STM32_USB_Device_Library/Core/src/usbd_req.c ****       USBD_CtlError(pdev , req);
 474:../Libraries/STM32_USB_Device_Library/Core/src/usbd_req.c ****       return;
 475:../Libraries/STM32_USB_Device_Library/Core/src/usbd_req.c **** #endif     
 476:../Libraries/STM32_USB_Device_Library/Core/src/usbd_req.c **** 
 477:../Libraries/STM32_USB_Device_Library/Core/src/usbd_req.c ****     
 478:../Libraries/STM32_USB_Device_Library/Core/src/usbd_req.c ****   default: 
 479:../Libraries/STM32_USB_Device_Library/Core/src/usbd_req.c ****      USBD_CtlError(pdev , req);
 480:../Libraries/STM32_USB_Device_Library/Core/src/usbd_req.c ****     return;
 481:../Libraries/STM32_USB_Device_Library/Core/src/usbd_req.c ****   }
 482:../Libraries/STM32_USB_Device_Library/Core/src/usbd_req.c ****   
 483:../Libraries/STM32_USB_Device_Library/Core/src/usbd_req.c ****   if((len != 0)&& (req->wLength != 0))
 484:../Libraries/STM32_USB_Device_Library/Core/src/usbd_req.c ****   {
 485:../Libraries/STM32_USB_Device_Library/Core/src/usbd_req.c ****     
 486:../Libraries/STM32_USB_Device_Library/Core/src/usbd_req.c ****     len = MIN(len , req->wLength);
 487:../Libraries/STM32_USB_Device_Library/Core/src/usbd_req.c ****     
 488:../Libraries/STM32_USB_Device_Library/Core/src/usbd_req.c ****     USBD_CtlSendData (pdev, 
 489:../Libraries/STM32_USB_Device_Library/Core/src/usbd_req.c ****                       pbuf,
 490:../Libraries/STM32_USB_Device_Library/Core/src/usbd_req.c ****                       len);
 491:../Libraries/STM32_USB_Device_Library/Core/src/usbd_req.c ****   }
 492:../Libraries/STM32_USB_Device_Library/Core/src/usbd_req.c ****   
 493:../Libraries/STM32_USB_Device_Library/Core/src/usbd_req.c **** }
 494:../Libraries/STM32_USB_Device_Library/Core/src/usbd_req.c **** 
 495:../Libraries/STM32_USB_Device_Library/Core/src/usbd_req.c **** /**
 496:../Libraries/STM32_USB_Device_Library/Core/src/usbd_req.c **** * @brief  USBD_SetAddress
 497:../Libraries/STM32_USB_Device_Library/Core/src/usbd_req.c **** *         Set device address
 498:../Libraries/STM32_USB_Device_Library/Core/src/usbd_req.c **** * @param  pdev: device instance
 499:../Libraries/STM32_USB_Device_Library/Core/src/usbd_req.c **** * @param  req: usb request
 500:../Libraries/STM32_USB_Device_Library/Core/src/usbd_req.c **** * @retval status
 501:../Libraries/STM32_USB_Device_Library/Core/src/usbd_req.c **** */
 502:../Libraries/STM32_USB_Device_Library/Core/src/usbd_req.c **** static void USBD_SetAddress(USB_OTG_CORE_HANDLE  *pdev, 
 503:../Libraries/STM32_USB_Device_Library/Core/src/usbd_req.c ****                             USB_SETUP_REQ *req)
 504:../Libraries/STM32_USB_Device_Library/Core/src/usbd_req.c **** {
 505:../Libraries/STM32_USB_Device_Library/Core/src/usbd_req.c ****   uint8_t  dev_addr; 
 506:../Libraries/STM32_USB_Device_Library/Core/src/usbd_req.c ****   
 507:../Libraries/STM32_USB_Device_Library/Core/src/usbd_req.c ****   if ((req->wIndex == 0) && (req->wLength == 0)) 
 508:../Libraries/STM32_USB_Device_Library/Core/src/usbd_req.c ****   {
 509:../Libraries/STM32_USB_Device_Library/Core/src/usbd_req.c ****     dev_addr = (uint8_t)(req->wValue) & 0x7F;     
 510:../Libraries/STM32_USB_Device_Library/Core/src/usbd_req.c ****     
ARM GAS  C:\Users\admin\AppData\Local\Temp\cclOLSai.s 			page 13


 511:../Libraries/STM32_USB_Device_Library/Core/src/usbd_req.c ****     if (pdev->dev.device_status == USB_OTG_CONFIGURED) 
 512:../Libraries/STM32_USB_Device_Library/Core/src/usbd_req.c ****     {
 513:../Libraries/STM32_USB_Device_Library/Core/src/usbd_req.c ****       USBD_CtlError(pdev , req);
 514:../Libraries/STM32_USB_Device_Library/Core/src/usbd_req.c ****     } 
 515:../Libraries/STM32_USB_Device_Library/Core/src/usbd_req.c ****     else 
 516:../Libraries/STM32_USB_Device_Library/Core/src/usbd_req.c ****     {
 517:../Libraries/STM32_USB_Device_Library/Core/src/usbd_req.c ****       pdev->dev.device_address = dev_addr;
 518:../Libraries/STM32_USB_Device_Library/Core/src/usbd_req.c ****       DCD_EP_SetAddress(pdev, dev_addr);               
 519:../Libraries/STM32_USB_Device_Library/Core/src/usbd_req.c ****       USBD_CtlSendStatus(pdev);                         
 520:../Libraries/STM32_USB_Device_Library/Core/src/usbd_req.c ****       
 521:../Libraries/STM32_USB_Device_Library/Core/src/usbd_req.c ****       if (dev_addr != 0) 
 522:../Libraries/STM32_USB_Device_Library/Core/src/usbd_req.c ****       {
 523:../Libraries/STM32_USB_Device_Library/Core/src/usbd_req.c ****         pdev->dev.device_status  = USB_OTG_ADDRESSED;
 524:../Libraries/STM32_USB_Device_Library/Core/src/usbd_req.c ****       } 
 525:../Libraries/STM32_USB_Device_Library/Core/src/usbd_req.c ****       else 
 526:../Libraries/STM32_USB_Device_Library/Core/src/usbd_req.c ****       {
 527:../Libraries/STM32_USB_Device_Library/Core/src/usbd_req.c ****         pdev->dev.device_status  = USB_OTG_DEFAULT; 
 528:../Libraries/STM32_USB_Device_Library/Core/src/usbd_req.c ****       }
 529:../Libraries/STM32_USB_Device_Library/Core/src/usbd_req.c ****     }
 530:../Libraries/STM32_USB_Device_Library/Core/src/usbd_req.c ****   } 
 531:../Libraries/STM32_USB_Device_Library/Core/src/usbd_req.c ****   else 
 532:../Libraries/STM32_USB_Device_Library/Core/src/usbd_req.c ****   {
 533:../Libraries/STM32_USB_Device_Library/Core/src/usbd_req.c ****      USBD_CtlError(pdev , req);                        
 534:../Libraries/STM32_USB_Device_Library/Core/src/usbd_req.c ****   } 
 535:../Libraries/STM32_USB_Device_Library/Core/src/usbd_req.c **** }
 536:../Libraries/STM32_USB_Device_Library/Core/src/usbd_req.c **** 
 537:../Libraries/STM32_USB_Device_Library/Core/src/usbd_req.c **** /**
 538:../Libraries/STM32_USB_Device_Library/Core/src/usbd_req.c **** * @brief  USBD_SetConfig
 539:../Libraries/STM32_USB_Device_Library/Core/src/usbd_req.c **** *         Handle Set device configuration request
 540:../Libraries/STM32_USB_Device_Library/Core/src/usbd_req.c **** * @param  pdev: device instance
 541:../Libraries/STM32_USB_Device_Library/Core/src/usbd_req.c **** * @param  req: usb request
 542:../Libraries/STM32_USB_Device_Library/Core/src/usbd_req.c **** * @retval status
 543:../Libraries/STM32_USB_Device_Library/Core/src/usbd_req.c **** */
 544:../Libraries/STM32_USB_Device_Library/Core/src/usbd_req.c **** static void USBD_SetConfig(USB_OTG_CORE_HANDLE  *pdev, 
 545:../Libraries/STM32_USB_Device_Library/Core/src/usbd_req.c ****                            USB_SETUP_REQ *req)
 546:../Libraries/STM32_USB_Device_Library/Core/src/usbd_req.c **** {
 547:../Libraries/STM32_USB_Device_Library/Core/src/usbd_req.c ****   
 548:../Libraries/STM32_USB_Device_Library/Core/src/usbd_req.c ****   static uint8_t  cfgidx;
 549:../Libraries/STM32_USB_Device_Library/Core/src/usbd_req.c ****   
 550:../Libraries/STM32_USB_Device_Library/Core/src/usbd_req.c ****   cfgidx = (uint8_t)(req->wValue);                 
 551:../Libraries/STM32_USB_Device_Library/Core/src/usbd_req.c ****   
 552:../Libraries/STM32_USB_Device_Library/Core/src/usbd_req.c ****   if (cfgidx > USBD_CFG_MAX_NUM ) 
 553:../Libraries/STM32_USB_Device_Library/Core/src/usbd_req.c ****   {            
 554:../Libraries/STM32_USB_Device_Library/Core/src/usbd_req.c ****      USBD_CtlError(pdev , req);                              
 555:../Libraries/STM32_USB_Device_Library/Core/src/usbd_req.c ****   } 
 556:../Libraries/STM32_USB_Device_Library/Core/src/usbd_req.c ****   else 
 557:../Libraries/STM32_USB_Device_Library/Core/src/usbd_req.c ****   {
 558:../Libraries/STM32_USB_Device_Library/Core/src/usbd_req.c ****     switch (pdev->dev.device_status) 
 559:../Libraries/STM32_USB_Device_Library/Core/src/usbd_req.c ****     {
 560:../Libraries/STM32_USB_Device_Library/Core/src/usbd_req.c ****     case USB_OTG_ADDRESSED:
 561:../Libraries/STM32_USB_Device_Library/Core/src/usbd_req.c ****       if (cfgidx) 
 562:../Libraries/STM32_USB_Device_Library/Core/src/usbd_req.c ****       {                                			   							   							   				
 563:../Libraries/STM32_USB_Device_Library/Core/src/usbd_req.c ****         pdev->dev.device_config = cfgidx;
 564:../Libraries/STM32_USB_Device_Library/Core/src/usbd_req.c ****         pdev->dev.device_status = USB_OTG_CONFIGURED;
 565:../Libraries/STM32_USB_Device_Library/Core/src/usbd_req.c ****         USBD_SetCfg(pdev , cfgidx);
 566:../Libraries/STM32_USB_Device_Library/Core/src/usbd_req.c ****         USBD_CtlSendStatus(pdev);
 567:../Libraries/STM32_USB_Device_Library/Core/src/usbd_req.c ****       }
ARM GAS  C:\Users\admin\AppData\Local\Temp\cclOLSai.s 			page 14


 568:../Libraries/STM32_USB_Device_Library/Core/src/usbd_req.c ****       else 
 569:../Libraries/STM32_USB_Device_Library/Core/src/usbd_req.c ****       {
 570:../Libraries/STM32_USB_Device_Library/Core/src/usbd_req.c ****          USBD_CtlSendStatus(pdev);
 571:../Libraries/STM32_USB_Device_Library/Core/src/usbd_req.c ****       }
 572:../Libraries/STM32_USB_Device_Library/Core/src/usbd_req.c ****       break;
 573:../Libraries/STM32_USB_Device_Library/Core/src/usbd_req.c ****       
 574:../Libraries/STM32_USB_Device_Library/Core/src/usbd_req.c ****     case USB_OTG_CONFIGURED:
 575:../Libraries/STM32_USB_Device_Library/Core/src/usbd_req.c ****       if (cfgidx == 0) 
 576:../Libraries/STM32_USB_Device_Library/Core/src/usbd_req.c ****       {                           
 577:../Libraries/STM32_USB_Device_Library/Core/src/usbd_req.c ****         pdev->dev.device_status = USB_OTG_ADDRESSED;
 578:../Libraries/STM32_USB_Device_Library/Core/src/usbd_req.c ****         pdev->dev.device_config = cfgidx;          
 579:../Libraries/STM32_USB_Device_Library/Core/src/usbd_req.c ****         USBD_ClrCfg(pdev , cfgidx);
 580:../Libraries/STM32_USB_Device_Library/Core/src/usbd_req.c ****         USBD_CtlSendStatus(pdev);
 581:../Libraries/STM32_USB_Device_Library/Core/src/usbd_req.c ****         
 582:../Libraries/STM32_USB_Device_Library/Core/src/usbd_req.c ****       } 
 583:../Libraries/STM32_USB_Device_Library/Core/src/usbd_req.c ****       else  if (cfgidx != pdev->dev.device_config) 
 584:../Libraries/STM32_USB_Device_Library/Core/src/usbd_req.c ****       {
 585:../Libraries/STM32_USB_Device_Library/Core/src/usbd_req.c ****         /* Clear old configuration */
 586:../Libraries/STM32_USB_Device_Library/Core/src/usbd_req.c ****         USBD_ClrCfg(pdev , pdev->dev.device_config);
 587:../Libraries/STM32_USB_Device_Library/Core/src/usbd_req.c ****         
 588:../Libraries/STM32_USB_Device_Library/Core/src/usbd_req.c ****         /* set new configuration */
 589:../Libraries/STM32_USB_Device_Library/Core/src/usbd_req.c ****         pdev->dev.device_config = cfgidx;
 590:../Libraries/STM32_USB_Device_Library/Core/src/usbd_req.c ****         USBD_SetCfg(pdev , cfgidx);
 591:../Libraries/STM32_USB_Device_Library/Core/src/usbd_req.c ****         USBD_CtlSendStatus(pdev);
 592:../Libraries/STM32_USB_Device_Library/Core/src/usbd_req.c ****       }
 593:../Libraries/STM32_USB_Device_Library/Core/src/usbd_req.c ****       else
 594:../Libraries/STM32_USB_Device_Library/Core/src/usbd_req.c ****       {
 595:../Libraries/STM32_USB_Device_Library/Core/src/usbd_req.c ****         USBD_CtlSendStatus(pdev);
 596:../Libraries/STM32_USB_Device_Library/Core/src/usbd_req.c ****       }
 597:../Libraries/STM32_USB_Device_Library/Core/src/usbd_req.c ****       break;
 598:../Libraries/STM32_USB_Device_Library/Core/src/usbd_req.c ****       
 599:../Libraries/STM32_USB_Device_Library/Core/src/usbd_req.c ****     default:					
 600:../Libraries/STM32_USB_Device_Library/Core/src/usbd_req.c ****        USBD_CtlError(pdev , req);                     
 172              		.loc 1 600 8 is_stmt 1 view .LVU16
 173              		.loc 1 600 8 is_stmt 0 view .LVU17
 174              	.LBE42:
 175              	.LBE41:
 601:../Libraries/STM32_USB_Device_Library/Core/src/usbd_req.c ****       break;
 602:../Libraries/STM32_USB_Device_Library/Core/src/usbd_req.c ****     }
 603:../Libraries/STM32_USB_Device_Library/Core/src/usbd_req.c ****   }
 604:../Libraries/STM32_USB_Device_Library/Core/src/usbd_req.c **** }
 605:../Libraries/STM32_USB_Device_Library/Core/src/usbd_req.c **** 
 606:../Libraries/STM32_USB_Device_Library/Core/src/usbd_req.c **** /**
 607:../Libraries/STM32_USB_Device_Library/Core/src/usbd_req.c **** * @brief  USBD_GetConfig
 608:../Libraries/STM32_USB_Device_Library/Core/src/usbd_req.c **** *         Handle Get device configuration request
 609:../Libraries/STM32_USB_Device_Library/Core/src/usbd_req.c **** * @param  pdev: device instance
 610:../Libraries/STM32_USB_Device_Library/Core/src/usbd_req.c **** * @param  req: usb request
 611:../Libraries/STM32_USB_Device_Library/Core/src/usbd_req.c **** * @retval status
 612:../Libraries/STM32_USB_Device_Library/Core/src/usbd_req.c **** */
 613:../Libraries/STM32_USB_Device_Library/Core/src/usbd_req.c **** static void USBD_GetConfig(USB_OTG_CORE_HANDLE  *pdev, 
 614:../Libraries/STM32_USB_Device_Library/Core/src/usbd_req.c ****                            USB_SETUP_REQ *req)
 615:../Libraries/STM32_USB_Device_Library/Core/src/usbd_req.c **** {
 616:../Libraries/STM32_USB_Device_Library/Core/src/usbd_req.c ****  
 617:../Libraries/STM32_USB_Device_Library/Core/src/usbd_req.c ****   if (req->wLength != 1) 
 618:../Libraries/STM32_USB_Device_Library/Core/src/usbd_req.c ****   {                   
 619:../Libraries/STM32_USB_Device_Library/Core/src/usbd_req.c ****      USBD_CtlError(pdev , req);
 620:../Libraries/STM32_USB_Device_Library/Core/src/usbd_req.c ****   }
ARM GAS  C:\Users\admin\AppData\Local\Temp\cclOLSai.s 			page 15


 621:../Libraries/STM32_USB_Device_Library/Core/src/usbd_req.c ****   else 
 622:../Libraries/STM32_USB_Device_Library/Core/src/usbd_req.c ****   {
 623:../Libraries/STM32_USB_Device_Library/Core/src/usbd_req.c ****     switch (pdev->dev.device_status )  
 624:../Libraries/STM32_USB_Device_Library/Core/src/usbd_req.c ****     {
 625:../Libraries/STM32_USB_Device_Library/Core/src/usbd_req.c ****     case USB_OTG_ADDRESSED:                     
 626:../Libraries/STM32_USB_Device_Library/Core/src/usbd_req.c ****       
 627:../Libraries/STM32_USB_Device_Library/Core/src/usbd_req.c ****       USBD_CtlSendData (pdev, 
 628:../Libraries/STM32_USB_Device_Library/Core/src/usbd_req.c ****                         (uint8_t *)&USBD_default_cfg,
 629:../Libraries/STM32_USB_Device_Library/Core/src/usbd_req.c ****                         1);
 630:../Libraries/STM32_USB_Device_Library/Core/src/usbd_req.c ****       break;
 631:../Libraries/STM32_USB_Device_Library/Core/src/usbd_req.c ****       
 632:../Libraries/STM32_USB_Device_Library/Core/src/usbd_req.c ****     case USB_OTG_CONFIGURED:                   
 633:../Libraries/STM32_USB_Device_Library/Core/src/usbd_req.c ****       
 634:../Libraries/STM32_USB_Device_Library/Core/src/usbd_req.c ****       USBD_CtlSendData (pdev, 
 635:../Libraries/STM32_USB_Device_Library/Core/src/usbd_req.c ****                         &pdev->dev.device_config,
 636:../Libraries/STM32_USB_Device_Library/Core/src/usbd_req.c ****                         1);
 637:../Libraries/STM32_USB_Device_Library/Core/src/usbd_req.c ****       break;
 638:../Libraries/STM32_USB_Device_Library/Core/src/usbd_req.c ****       
 639:../Libraries/STM32_USB_Device_Library/Core/src/usbd_req.c ****     default:
 640:../Libraries/STM32_USB_Device_Library/Core/src/usbd_req.c ****        USBD_CtlError(pdev , req);
 641:../Libraries/STM32_USB_Device_Library/Core/src/usbd_req.c ****       break;
 642:../Libraries/STM32_USB_Device_Library/Core/src/usbd_req.c ****     }
 643:../Libraries/STM32_USB_Device_Library/Core/src/usbd_req.c ****   }
 644:../Libraries/STM32_USB_Device_Library/Core/src/usbd_req.c **** }
 645:../Libraries/STM32_USB_Device_Library/Core/src/usbd_req.c **** 
 646:../Libraries/STM32_USB_Device_Library/Core/src/usbd_req.c **** /**
 647:../Libraries/STM32_USB_Device_Library/Core/src/usbd_req.c **** * @brief  USBD_GetStatus
 648:../Libraries/STM32_USB_Device_Library/Core/src/usbd_req.c **** *         Handle Get Status request
 649:../Libraries/STM32_USB_Device_Library/Core/src/usbd_req.c **** * @param  pdev: device instance
 650:../Libraries/STM32_USB_Device_Library/Core/src/usbd_req.c **** * @param  req: usb request
 651:../Libraries/STM32_USB_Device_Library/Core/src/usbd_req.c **** * @retval status
 652:../Libraries/STM32_USB_Device_Library/Core/src/usbd_req.c **** */
 653:../Libraries/STM32_USB_Device_Library/Core/src/usbd_req.c **** static void USBD_GetStatus(USB_OTG_CORE_HANDLE  *pdev, 
 654:../Libraries/STM32_USB_Device_Library/Core/src/usbd_req.c ****                            USB_SETUP_REQ *req)
 655:../Libraries/STM32_USB_Device_Library/Core/src/usbd_req.c **** {
 656:../Libraries/STM32_USB_Device_Library/Core/src/usbd_req.c ****   
 657:../Libraries/STM32_USB_Device_Library/Core/src/usbd_req.c ****     
 658:../Libraries/STM32_USB_Device_Library/Core/src/usbd_req.c ****   switch (pdev->dev.device_status) 
 659:../Libraries/STM32_USB_Device_Library/Core/src/usbd_req.c ****   {
 660:../Libraries/STM32_USB_Device_Library/Core/src/usbd_req.c ****   case USB_OTG_ADDRESSED:
 661:../Libraries/STM32_USB_Device_Library/Core/src/usbd_req.c ****   case USB_OTG_CONFIGURED:
 662:../Libraries/STM32_USB_Device_Library/Core/src/usbd_req.c ****     
 663:../Libraries/STM32_USB_Device_Library/Core/src/usbd_req.c **** #ifdef USBD_SELF_POWERED
 664:../Libraries/STM32_USB_Device_Library/Core/src/usbd_req.c ****     USBD_cfg_status = USB_CONFIG_SELF_POWERED;                                    
 665:../Libraries/STM32_USB_Device_Library/Core/src/usbd_req.c **** #else
 666:../Libraries/STM32_USB_Device_Library/Core/src/usbd_req.c ****     USBD_cfg_status = 0x00;                                    
 667:../Libraries/STM32_USB_Device_Library/Core/src/usbd_req.c **** #endif
 668:../Libraries/STM32_USB_Device_Library/Core/src/usbd_req.c ****                       
 669:../Libraries/STM32_USB_Device_Library/Core/src/usbd_req.c ****     if (pdev->dev.DevRemoteWakeup) 
 670:../Libraries/STM32_USB_Device_Library/Core/src/usbd_req.c ****     {
 671:../Libraries/STM32_USB_Device_Library/Core/src/usbd_req.c ****       USBD_cfg_status |= USB_CONFIG_REMOTE_WAKEUP;                                
 672:../Libraries/STM32_USB_Device_Library/Core/src/usbd_req.c ****     }
 673:../Libraries/STM32_USB_Device_Library/Core/src/usbd_req.c ****     
 674:../Libraries/STM32_USB_Device_Library/Core/src/usbd_req.c ****     USBD_CtlSendData (pdev, 
 675:../Libraries/STM32_USB_Device_Library/Core/src/usbd_req.c ****                       (uint8_t *)&USBD_cfg_status,
 676:../Libraries/STM32_USB_Device_Library/Core/src/usbd_req.c ****                       2);
 677:../Libraries/STM32_USB_Device_Library/Core/src/usbd_req.c ****     break;
ARM GAS  C:\Users\admin\AppData\Local\Temp\cclOLSai.s 			page 16


 678:../Libraries/STM32_USB_Device_Library/Core/src/usbd_req.c ****     
 679:../Libraries/STM32_USB_Device_Library/Core/src/usbd_req.c ****   default :
 680:../Libraries/STM32_USB_Device_Library/Core/src/usbd_req.c ****     USBD_CtlError(pdev , req);                        
 681:../Libraries/STM32_USB_Device_Library/Core/src/usbd_req.c ****     break;
 682:../Libraries/STM32_USB_Device_Library/Core/src/usbd_req.c ****   }
 683:../Libraries/STM32_USB_Device_Library/Core/src/usbd_req.c **** }
 684:../Libraries/STM32_USB_Device_Library/Core/src/usbd_req.c **** 
 685:../Libraries/STM32_USB_Device_Library/Core/src/usbd_req.c **** 
 686:../Libraries/STM32_USB_Device_Library/Core/src/usbd_req.c **** /**
 687:../Libraries/STM32_USB_Device_Library/Core/src/usbd_req.c **** * @brief  USBD_SetFeature
 688:../Libraries/STM32_USB_Device_Library/Core/src/usbd_req.c **** *         Handle Set device feature request
 689:../Libraries/STM32_USB_Device_Library/Core/src/usbd_req.c **** * @param  pdev: device instance
 690:../Libraries/STM32_USB_Device_Library/Core/src/usbd_req.c **** * @param  req: usb request
 691:../Libraries/STM32_USB_Device_Library/Core/src/usbd_req.c **** * @retval status
 692:../Libraries/STM32_USB_Device_Library/Core/src/usbd_req.c **** */
 693:../Libraries/STM32_USB_Device_Library/Core/src/usbd_req.c **** static void USBD_SetFeature(USB_OTG_CORE_HANDLE  *pdev, 
 694:../Libraries/STM32_USB_Device_Library/Core/src/usbd_req.c ****                             USB_SETUP_REQ *req)
 695:../Libraries/STM32_USB_Device_Library/Core/src/usbd_req.c **** {
 696:../Libraries/STM32_USB_Device_Library/Core/src/usbd_req.c **** 
 697:../Libraries/STM32_USB_Device_Library/Core/src/usbd_req.c ****   USB_OTG_DCTL_TypeDef     dctl;
 698:../Libraries/STM32_USB_Device_Library/Core/src/usbd_req.c ****   uint8_t test_mode = 0;
 699:../Libraries/STM32_USB_Device_Library/Core/src/usbd_req.c ****  
 700:../Libraries/STM32_USB_Device_Library/Core/src/usbd_req.c ****   if (req->wValue == USB_FEATURE_REMOTE_WAKEUP)
 701:../Libraries/STM32_USB_Device_Library/Core/src/usbd_req.c ****   {
 702:../Libraries/STM32_USB_Device_Library/Core/src/usbd_req.c ****     pdev->dev.DevRemoteWakeup = 1;  
 703:../Libraries/STM32_USB_Device_Library/Core/src/usbd_req.c ****     pdev->dev.class_cb->Setup (pdev, req);   
 704:../Libraries/STM32_USB_Device_Library/Core/src/usbd_req.c ****     USBD_CtlSendStatus(pdev);
 705:../Libraries/STM32_USB_Device_Library/Core/src/usbd_req.c ****   }
 706:../Libraries/STM32_USB_Device_Library/Core/src/usbd_req.c **** 
 707:../Libraries/STM32_USB_Device_Library/Core/src/usbd_req.c ****   else if ((req->wValue == USB_FEATURE_TEST_MODE) && 
 708:../Libraries/STM32_USB_Device_Library/Core/src/usbd_req.c ****            ((req->wIndex & 0xFF) == 0))
 709:../Libraries/STM32_USB_Device_Library/Core/src/usbd_req.c ****   {
 710:../Libraries/STM32_USB_Device_Library/Core/src/usbd_req.c ****     dctl.d32 = USB_OTG_READ_REG32(&pdev->regs.DREGS->DCTL);
 711:../Libraries/STM32_USB_Device_Library/Core/src/usbd_req.c ****     
 712:../Libraries/STM32_USB_Device_Library/Core/src/usbd_req.c ****     test_mode = req->wIndex >> 8;
 713:../Libraries/STM32_USB_Device_Library/Core/src/usbd_req.c ****     switch (test_mode) 
 714:../Libraries/STM32_USB_Device_Library/Core/src/usbd_req.c ****     {
 715:../Libraries/STM32_USB_Device_Library/Core/src/usbd_req.c ****     case 1: // TEST_J
 716:../Libraries/STM32_USB_Device_Library/Core/src/usbd_req.c ****       dctl.b.tstctl = 1;
 717:../Libraries/STM32_USB_Device_Library/Core/src/usbd_req.c ****       break;
 718:../Libraries/STM32_USB_Device_Library/Core/src/usbd_req.c ****       
 719:../Libraries/STM32_USB_Device_Library/Core/src/usbd_req.c ****     case 2: // TEST_K	
 720:../Libraries/STM32_USB_Device_Library/Core/src/usbd_req.c ****       dctl.b.tstctl = 2;
 721:../Libraries/STM32_USB_Device_Library/Core/src/usbd_req.c ****       break;
 722:../Libraries/STM32_USB_Device_Library/Core/src/usbd_req.c ****       
 723:../Libraries/STM32_USB_Device_Library/Core/src/usbd_req.c ****     case 3: // TEST_SE0_NAK
 724:../Libraries/STM32_USB_Device_Library/Core/src/usbd_req.c ****       dctl.b.tstctl = 3;
 725:../Libraries/STM32_USB_Device_Library/Core/src/usbd_req.c ****       break;
 726:../Libraries/STM32_USB_Device_Library/Core/src/usbd_req.c ****       
 727:../Libraries/STM32_USB_Device_Library/Core/src/usbd_req.c ****     case 4: // TEST_PACKET
 728:../Libraries/STM32_USB_Device_Library/Core/src/usbd_req.c ****       dctl.b.tstctl = 4;
 729:../Libraries/STM32_USB_Device_Library/Core/src/usbd_req.c ****       break;
 730:../Libraries/STM32_USB_Device_Library/Core/src/usbd_req.c ****       
 731:../Libraries/STM32_USB_Device_Library/Core/src/usbd_req.c ****     case 5: // TEST_FORCE_ENABLE
 732:../Libraries/STM32_USB_Device_Library/Core/src/usbd_req.c ****       dctl.b.tstctl = 5;
 733:../Libraries/STM32_USB_Device_Library/Core/src/usbd_req.c ****       break;
 734:../Libraries/STM32_USB_Device_Library/Core/src/usbd_req.c ****     }
ARM GAS  C:\Users\admin\AppData\Local\Temp\cclOLSai.s 			page 17


 735:../Libraries/STM32_USB_Device_Library/Core/src/usbd_req.c ****     SET_TEST_MODE = dctl;
 736:../Libraries/STM32_USB_Device_Library/Core/src/usbd_req.c ****     pdev->dev.test_mode = 1;
 737:../Libraries/STM32_USB_Device_Library/Core/src/usbd_req.c ****     USBD_CtlSendStatus(pdev);
 738:../Libraries/STM32_USB_Device_Library/Core/src/usbd_req.c ****   }
 739:../Libraries/STM32_USB_Device_Library/Core/src/usbd_req.c **** 
 740:../Libraries/STM32_USB_Device_Library/Core/src/usbd_req.c **** }
 741:../Libraries/STM32_USB_Device_Library/Core/src/usbd_req.c **** 
 742:../Libraries/STM32_USB_Device_Library/Core/src/usbd_req.c **** 
 743:../Libraries/STM32_USB_Device_Library/Core/src/usbd_req.c **** /**
 744:../Libraries/STM32_USB_Device_Library/Core/src/usbd_req.c **** * @brief  USBD_ClrFeature
 745:../Libraries/STM32_USB_Device_Library/Core/src/usbd_req.c **** *         Handle clear device feature request
 746:../Libraries/STM32_USB_Device_Library/Core/src/usbd_req.c **** * @param  pdev: device instance
 747:../Libraries/STM32_USB_Device_Library/Core/src/usbd_req.c **** * @param  req: usb request
 748:../Libraries/STM32_USB_Device_Library/Core/src/usbd_req.c **** * @retval status
 749:../Libraries/STM32_USB_Device_Library/Core/src/usbd_req.c **** */
 750:../Libraries/STM32_USB_Device_Library/Core/src/usbd_req.c **** static void USBD_ClrFeature(USB_OTG_CORE_HANDLE  *pdev, 
 751:../Libraries/STM32_USB_Device_Library/Core/src/usbd_req.c ****                             USB_SETUP_REQ *req)
 752:../Libraries/STM32_USB_Device_Library/Core/src/usbd_req.c **** {
 753:../Libraries/STM32_USB_Device_Library/Core/src/usbd_req.c ****   switch (pdev->dev.device_status)
 754:../Libraries/STM32_USB_Device_Library/Core/src/usbd_req.c ****   {
 755:../Libraries/STM32_USB_Device_Library/Core/src/usbd_req.c ****   case USB_OTG_ADDRESSED:
 756:../Libraries/STM32_USB_Device_Library/Core/src/usbd_req.c ****   case USB_OTG_CONFIGURED:
 757:../Libraries/STM32_USB_Device_Library/Core/src/usbd_req.c ****     if (req->wValue == USB_FEATURE_REMOTE_WAKEUP) 
 758:../Libraries/STM32_USB_Device_Library/Core/src/usbd_req.c ****     {
 759:../Libraries/STM32_USB_Device_Library/Core/src/usbd_req.c ****       pdev->dev.DevRemoteWakeup = 0; 
 760:../Libraries/STM32_USB_Device_Library/Core/src/usbd_req.c ****       pdev->dev.class_cb->Setup (pdev, req);   
 761:../Libraries/STM32_USB_Device_Library/Core/src/usbd_req.c ****       USBD_CtlSendStatus(pdev);
 762:../Libraries/STM32_USB_Device_Library/Core/src/usbd_req.c ****     }
 763:../Libraries/STM32_USB_Device_Library/Core/src/usbd_req.c ****     break;
 764:../Libraries/STM32_USB_Device_Library/Core/src/usbd_req.c ****     
 765:../Libraries/STM32_USB_Device_Library/Core/src/usbd_req.c ****   default :
 766:../Libraries/STM32_USB_Device_Library/Core/src/usbd_req.c ****      USBD_CtlError(pdev , req);
 767:../Libraries/STM32_USB_Device_Library/Core/src/usbd_req.c ****     break;
 768:../Libraries/STM32_USB_Device_Library/Core/src/usbd_req.c ****   }
 769:../Libraries/STM32_USB_Device_Library/Core/src/usbd_req.c **** }
 770:../Libraries/STM32_USB_Device_Library/Core/src/usbd_req.c **** 
 771:../Libraries/STM32_USB_Device_Library/Core/src/usbd_req.c **** /**
 772:../Libraries/STM32_USB_Device_Library/Core/src/usbd_req.c **** * @brief  USBD_ParseSetupRequest 
 773:../Libraries/STM32_USB_Device_Library/Core/src/usbd_req.c **** *         Copy buffer into setup structure
 774:../Libraries/STM32_USB_Device_Library/Core/src/usbd_req.c **** * @param  pdev: device instance
 775:../Libraries/STM32_USB_Device_Library/Core/src/usbd_req.c **** * @param  req: usb request
 776:../Libraries/STM32_USB_Device_Library/Core/src/usbd_req.c **** * @retval None
 777:../Libraries/STM32_USB_Device_Library/Core/src/usbd_req.c **** */
 778:../Libraries/STM32_USB_Device_Library/Core/src/usbd_req.c **** 
 779:../Libraries/STM32_USB_Device_Library/Core/src/usbd_req.c **** void USBD_ParseSetupRequest( USB_OTG_CORE_HANDLE  *pdev,
 780:../Libraries/STM32_USB_Device_Library/Core/src/usbd_req.c ****                             USB_SETUP_REQ *req)
 781:../Libraries/STM32_USB_Device_Library/Core/src/usbd_req.c **** {
 782:../Libraries/STM32_USB_Device_Library/Core/src/usbd_req.c ****   req->bmRequest     = *(uint8_t *)  (pdev->dev.setup_packet);
 783:../Libraries/STM32_USB_Device_Library/Core/src/usbd_req.c ****   req->bRequest      = *(uint8_t *)  (pdev->dev.setup_packet +  1);
 784:../Libraries/STM32_USB_Device_Library/Core/src/usbd_req.c ****   req->wValue        = SWAPBYTE      (pdev->dev.setup_packet +  2);
 785:../Libraries/STM32_USB_Device_Library/Core/src/usbd_req.c ****   req->wIndex        = SWAPBYTE      (pdev->dev.setup_packet +  4);
 786:../Libraries/STM32_USB_Device_Library/Core/src/usbd_req.c ****   req->wLength       = SWAPBYTE      (pdev->dev.setup_packet +  6);
 787:../Libraries/STM32_USB_Device_Library/Core/src/usbd_req.c ****   
 788:../Libraries/STM32_USB_Device_Library/Core/src/usbd_req.c ****   pdev->dev.in_ep[0].ctl_data_len = req->wLength  ;
 789:../Libraries/STM32_USB_Device_Library/Core/src/usbd_req.c ****   pdev->dev.device_state = USB_OTG_EP0_SETUP;
 790:../Libraries/STM32_USB_Device_Library/Core/src/usbd_req.c **** }
 791:../Libraries/STM32_USB_Device_Library/Core/src/usbd_req.c **** 
ARM GAS  C:\Users\admin\AppData\Local\Temp\cclOLSai.s 			page 18


 792:../Libraries/STM32_USB_Device_Library/Core/src/usbd_req.c **** /**
 793:../Libraries/STM32_USB_Device_Library/Core/src/usbd_req.c **** * @brief  USBD_CtlError 
 794:../Libraries/STM32_USB_Device_Library/Core/src/usbd_req.c **** *         Handle USB low level Error
 795:../Libraries/STM32_USB_Device_Library/Core/src/usbd_req.c **** * @param  pdev: device instance
 796:../Libraries/STM32_USB_Device_Library/Core/src/usbd_req.c **** * @param  req: usb request
 797:../Libraries/STM32_USB_Device_Library/Core/src/usbd_req.c **** * @retval None
 798:../Libraries/STM32_USB_Device_Library/Core/src/usbd_req.c **** */
 799:../Libraries/STM32_USB_Device_Library/Core/src/usbd_req.c **** 
 800:../Libraries/STM32_USB_Device_Library/Core/src/usbd_req.c **** void USBD_CtlError( USB_OTG_CORE_HANDLE  *pdev,
 801:../Libraries/STM32_USB_Device_Library/Core/src/usbd_req.c ****                             USB_SETUP_REQ *req)
 802:../Libraries/STM32_USB_Device_Library/Core/src/usbd_req.c **** {
 803:../Libraries/STM32_USB_Device_Library/Core/src/usbd_req.c ****   
 804:../Libraries/STM32_USB_Device_Library/Core/src/usbd_req.c ****   DCD_EP_Stall(pdev , 0x80);
 176              		.loc 1 804 3 is_stmt 1 view .LVU18
 177 0032 8021     		movs	r1, #128	@,
 178 0034 2046     		mov	r0, r4	@, pdev
 179              	.LVL4:
 180              		.loc 1 804 3 is_stmt 0 view .LVU19
 181 0036 FFF7FEFF 		bl	DCD_EP_Stall		@
 182              	.LVL5:
 805:../Libraries/STM32_USB_Device_Library/Core/src/usbd_req.c ****   DCD_EP_Stall(pdev , 0);
 183              		.loc 1 805 3 is_stmt 1 view .LVU20
 184 003a 0021     		movs	r1, #0	@,
 185 003c 2046     		mov	r0, r4	@, pdev
 186 003e FFF7FEFF 		bl	DCD_EP_Stall		@
 187              	.LVL6:
 806:../Libraries/STM32_USB_Device_Library/Core/src/usbd_req.c ****   USB_OTG_EP0_OutStart(pdev);  
 188              		.loc 1 806 3 view .LVU21
 189 0042 2046     		mov	r0, r4	@, pdev
 190 0044 FFF7FEFF 		bl	USB_OTG_EP0_OutStart		@
 191              	.LVL7:
 192              	.L26:
 189:../Libraries/STM32_USB_Device_Library/Core/src/usbd_req.c **** }
 193              		.loc 1 189 3 view .LVU22
 194              	@ ../Libraries/STM32_USB_Device_Library/Core/src/usbd_req.c:190: }
 190:../Libraries/STM32_USB_Device_Library/Core/src/usbd_req.c **** 
 195              		.loc 1 190 1 is_stmt 0 view .LVU23
 196 0048 0020     		movs	r0, #0	@,
 197 004a 02B0     		add	sp, sp, #8	@,,
 198              		.cfi_remember_state
 199              		.cfi_def_cfa_offset 16
 200              		@ sp needed	@
 201 004c 70BD     		pop	{r4, r5, r6, pc}	@
 202              	.LVL8:
 203              	.L3:
 204              		.cfi_restore_state
 164:../Libraries/STM32_USB_Device_Library/Core/src/usbd_req.c ****     break;
 205              		.loc 1 164 5 is_stmt 1 view .LVU24
 206              	.LBB46:
 207              	.LBI41:
 544:../Libraries/STM32_USB_Device_Library/Core/src/usbd_req.c ****                            USB_SETUP_REQ *req)
 208              		.loc 1 544 13 view .LVU25
 209              	.LBB43:
 548:../Libraries/STM32_USB_Device_Library/Core/src/usbd_req.c ****   
 210              		.loc 1 548 3 view .LVU26
 550:../Libraries/STM32_USB_Device_Library/Core/src/usbd_req.c ****   
 211              		.loc 1 550 3 view .LVU27
ARM GAS  C:\Users\admin\AppData\Local\Temp\cclOLSai.s 			page 19


 212              	@ ../Libraries/STM32_USB_Device_Library/Core/src/usbd_req.c:550:   cfgidx = (uint8_t)(req->wValue);
 550:../Libraries/STM32_USB_Device_Library/Core/src/usbd_req.c ****   
 213              		.loc 1 550 12 is_stmt 0 view .LVU28
 214 004e 8978     		ldrb	r1, [r1, #2]	@ zero_extendqisi2	@ _64, MEM[(short unsigned int *)req_4(D) + 2B]
 215              	.LVL9:
 216              	@ ../Libraries/STM32_USB_Device_Library/Core/src/usbd_req.c:550:   cfgidx = (uint8_t)(req->wValue);
 550:../Libraries/STM32_USB_Device_Library/Core/src/usbd_req.c ****   
 217              		.loc 1 550 10 view .LVU29
 218 0050 9A4D     		ldr	r5, .L69	@ tmp236,
 219              	.LVL10:
 220              	@ ../Libraries/STM32_USB_Device_Library/Core/src/usbd_req.c:552:   if (cfgidx > USBD_CFG_MAX_NUM ) 
 552:../Libraries/STM32_USB_Device_Library/Core/src/usbd_req.c ****   {            
 221              		.loc 1 552 6 view .LVU30
 222 0052 0129     		cmp	r1, #1	@ _64,
 223              	@ ../Libraries/STM32_USB_Device_Library/Core/src/usbd_req.c:550:   cfgidx = (uint8_t)(req->wValue);
 550:../Libraries/STM32_USB_Device_Library/Core/src/usbd_req.c ****   
 224              		.loc 1 550 10 view .LVU31
 225 0054 2970     		strb	r1, [r5]	@ _64, cfgidx
 552:../Libraries/STM32_USB_Device_Library/Core/src/usbd_req.c ****   {            
 226              		.loc 1 552 3 is_stmt 1 view .LVU32
 227              	@ ../Libraries/STM32_USB_Device_Library/Core/src/usbd_req.c:552:   if (cfgidx > USBD_CFG_MAX_NUM ) 
 552:../Libraries/STM32_USB_Device_Library/Core/src/usbd_req.c ****   {            
 228              		.loc 1 552 6 is_stmt 0 view .LVU33
 229 0056 ECD8     		bhi	.L2		@,
 558:../Libraries/STM32_USB_Device_Library/Core/src/usbd_req.c ****     {
 230              		.loc 1 558 5 is_stmt 1 view .LVU34
 231              	@ ../Libraries/STM32_USB_Device_Library/Core/src/usbd_req.c:558:     switch (pdev->dev.device_statu
 558:../Libraries/STM32_USB_Device_Library/Core/src/usbd_req.c ****     {
 232              		.loc 1 558 22 is_stmt 0 view .LVU35
 233 0058 90F81231 		ldrb	r3, [r0, #274]	@ zero_extendqisi2	@ _66, pdev_5(D)->dev.device_status
 234              	@ ../Libraries/STM32_USB_Device_Library/Core/src/usbd_req.c:558:     switch (pdev->dev.device_statu
 558:../Libraries/STM32_USB_Device_Library/Core/src/usbd_req.c ****     {
 235              		.loc 1 558 5 view .LVU36
 236 005c 022B     		cmp	r3, #2	@ _66,
 237 005e 00F0A180 		beq	.L30		@,
 238 0062 032B     		cmp	r3, #3	@ _66,
 239 0064 E5D1     		bne	.L2		@,
 575:../Libraries/STM32_USB_Device_Library/Core/src/usbd_req.c ****       {                           
 240              		.loc 1 575 7 is_stmt 1 view .LVU37
 241              	@ ../Libraries/STM32_USB_Device_Library/Core/src/usbd_req.c:575:       if (cfgidx == 0) 
 575:../Libraries/STM32_USB_Device_Library/Core/src/usbd_req.c ****       {                           
 242              		.loc 1 575 10 is_stmt 0 view .LVU38
 243 0066 0029     		cmp	r1, #0	@ _64
 244 0068 00F01881 		beq	.L66	@
 583:../Libraries/STM32_USB_Device_Library/Core/src/usbd_req.c ****       {
 245              		.loc 1 583 13 is_stmt 1 view .LVU39
 246              	@ ../Libraries/STM32_USB_Device_Library/Core/src/usbd_req.c:583:       else  if (cfgidx != pdev->de
 583:../Libraries/STM32_USB_Device_Library/Core/src/usbd_req.c ****       {
 247              		.loc 1 583 36 is_stmt 0 view .LVU40
 248 006c 90F81011 		ldrb	r1, [r0, #272]	@ zero_extendqisi2	@ _67, pdev_5(D)->dev.device_config
 249              	@ ../Libraries/STM32_USB_Device_Library/Core/src/usbd_req.c:583:       else  if (cfgidx != pdev->de
 583:../Libraries/STM32_USB_Device_Library/Core/src/usbd_req.c ****       {
 250              		.loc 1 583 16 view .LVU41
 251 0070 0129     		cmp	r1, #1	@ _67,
 252 0072 2FD0     		beq	.L63		@,
 586:../Libraries/STM32_USB_Device_Library/Core/src/usbd_req.c ****         
 253              		.loc 1 586 9 is_stmt 1 view .LVU42
ARM GAS  C:\Users\admin\AppData\Local\Temp\cclOLSai.s 			page 20


 254 0074 FFF7FEFF 		bl	USBD_ClrCfg		@
 255              	.LVL11:
 589:../Libraries/STM32_USB_Device_Library/Core/src/usbd_req.c ****         USBD_SetCfg(pdev , cfgidx);
 256              		.loc 1 589 9 view .LVU43
 257              	@ ../Libraries/STM32_USB_Device_Library/Core/src/usbd_req.c:589:         pdev->dev.device_config = 
 589:../Libraries/STM32_USB_Device_Library/Core/src/usbd_req.c ****         USBD_SetCfg(pdev , cfgidx);
 258              		.loc 1 589 33 is_stmt 0 view .LVU44
 259 0078 2978     		ldrb	r1, [r5]	@ zero_extendqisi2	@ cfgidx.11_68, cfgidx
 260 007a 84F81011 		strb	r1, [r4, #272]	@ cfgidx.11_68, pdev_5(D)->dev.device_config
 590:../Libraries/STM32_USB_Device_Library/Core/src/usbd_req.c ****         USBD_CtlSendStatus(pdev);
 261              		.loc 1 590 9 is_stmt 1 view .LVU45
 262 007e 2046     		mov	r0, r4	@, pdev
 263 0080 FFF7FEFF 		bl	USBD_SetCfg		@
 264              	.LVL12:
 591:../Libraries/STM32_USB_Device_Library/Core/src/usbd_req.c ****       }
 265              		.loc 1 591 9 view .LVU46
 266 0084 2046     		mov	r0, r4	@, pdev
 267 0086 FFF7FEFF 		bl	USBD_CtlSendStatus		@
 268              	.LVL13:
 269 008a DDE7     		b	.L26		@
 270              	.LVL14:
 271              	.L10:
 591:../Libraries/STM32_USB_Device_Library/Core/src/usbd_req.c ****       }
 272              		.loc 1 591 9 is_stmt 0 view .LVU47
 273              	.LBE43:
 274              	.LBE46:
 172:../Libraries/STM32_USB_Device_Library/Core/src/usbd_req.c ****     break;
 275              		.loc 1 172 5 is_stmt 1 view .LVU48
 276              	.LBB47:
 277              	.LBI47:
 653:../Libraries/STM32_USB_Device_Library/Core/src/usbd_req.c ****                            USB_SETUP_REQ *req)
 278              		.loc 1 653 13 view .LVU49
 279              	.LBB48:
 658:../Libraries/STM32_USB_Device_Library/Core/src/usbd_req.c ****   {
 280              		.loc 1 658 3 view .LVU50
 281 008c 90F81231 		ldrb	r3, [r0, #274]	@ zero_extendqisi2	@ pdev_5(D)->dev.device_status, pdev_5(D)->dev.device_statu
 282 0090 023B     		subs	r3, r3, #2	@ tmp254, pdev_5(D)->dev.device_status,
 283 0092 012B     		cmp	r3, #1	@ tmp254,
 284 0094 CDD8     		bhi	.L2		@,
 666:../Libraries/STM32_USB_Device_Library/Core/src/usbd_req.c **** #endif
 285              		.loc 1 666 5 view .LVU51
 286              	@ ../Libraries/STM32_USB_Device_Library/Core/src/usbd_req.c:666:     USBD_cfg_status = 0x00;       
 666:../Libraries/STM32_USB_Device_Library/Core/src/usbd_req.c **** #endif
 287              		.loc 1 666 21 is_stmt 0 view .LVU52
 288 0096 8A4B     		ldr	r3, .L69+4	@ tmp255,
 289              	@ ../Libraries/STM32_USB_Device_Library/Core/src/usbd_req.c:669:     if (pdev->dev.DevRemoteWakeup)
 669:../Libraries/STM32_USB_Device_Library/Core/src/usbd_req.c ****     {
 290              		.loc 1 669 8 view .LVU53
 291 0098 D0F81821 		ldr	r2, [r0, #280]	@ pdev_5(D)->dev.DevRemoteWakeup, pdev_5(D)->dev.DevRemoteWakeup
 292              	@ ../Libraries/STM32_USB_Device_Library/Core/src/usbd_req.c:666:     USBD_cfg_status = 0x00;       
 666:../Libraries/STM32_USB_Device_Library/Core/src/usbd_req.c **** #endif
 293              		.loc 1 666 21 view .LVU54
 294 009c 0021     		movs	r1, #0	@ tmp256,
 295              	.LVL15:
 666:../Libraries/STM32_USB_Device_Library/Core/src/usbd_req.c **** #endif
 296              		.loc 1 666 21 view .LVU55
 297 009e 1960     		str	r1, [r3]	@ tmp256, USBD_cfg_status
ARM GAS  C:\Users\admin\AppData\Local\Temp\cclOLSai.s 			page 21


 669:../Libraries/STM32_USB_Device_Library/Core/src/usbd_req.c ****     {
 298              		.loc 1 669 5 is_stmt 1 view .LVU56
 299              	@ ../Libraries/STM32_USB_Device_Library/Core/src/usbd_req.c:669:     if (pdev->dev.DevRemoteWakeup)
 669:../Libraries/STM32_USB_Device_Library/Core/src/usbd_req.c ****     {
 300              		.loc 1 669 8 is_stmt 0 view .LVU57
 301 00a0 0AB1     		cbz	r2, .L36	@ pdev_5(D)->dev.DevRemoteWakeup,
 671:../Libraries/STM32_USB_Device_Library/Core/src/usbd_req.c ****     }
 302              		.loc 1 671 7 is_stmt 1 view .LVU58
 303              	@ ../Libraries/STM32_USB_Device_Library/Core/src/usbd_req.c:671:       USBD_cfg_status |= USB_CONFI
 671:../Libraries/STM32_USB_Device_Library/Core/src/usbd_req.c ****     }
 304              		.loc 1 671 23 is_stmt 0 view .LVU59
 305 00a2 0222     		movs	r2, #2	@ tmp259,
 306 00a4 1A60     		str	r2, [r3]	@ tmp259, USBD_cfg_status
 307              	.L36:
 674:../Libraries/STM32_USB_Device_Library/Core/src/usbd_req.c ****                       (uint8_t *)&USBD_cfg_status,
 308              		.loc 1 674 5 is_stmt 1 view .LVU60
 309 00a6 8649     		ldr	r1, .L69+4	@,
 310 00a8 0222     		movs	r2, #2	@,
 311 00aa 2046     		mov	r0, r4	@, pdev
 312              	.LVL16:
 674:../Libraries/STM32_USB_Device_Library/Core/src/usbd_req.c ****                       (uint8_t *)&USBD_cfg_status,
 313              		.loc 1 674 5 is_stmt 0 view .LVU61
 314 00ac FFF7FEFF 		bl	USBD_CtlSendData		@
 315              	.LVL17:
 677:../Libraries/STM32_USB_Device_Library/Core/src/usbd_req.c ****     
 316              		.loc 1 677 5 is_stmt 1 view .LVU62
 317 00b0 CAE7     		b	.L26		@
 318              	.LVL18:
 319              	.L9:
 677:../Libraries/STM32_USB_Device_Library/Core/src/usbd_req.c ****     
 320              		.loc 1 677 5 is_stmt 0 view .LVU63
 321              	.LBE48:
 322              	.LBE47:
 181:../Libraries/STM32_USB_Device_Library/Core/src/usbd_req.c ****     break;
 323              		.loc 1 181 5 is_stmt 1 view .LVU64
 324              	.LBB49:
 325              	.LBI49:
 750:../Libraries/STM32_USB_Device_Library/Core/src/usbd_req.c ****                             USB_SETUP_REQ *req)
 326              		.loc 1 750 13 view .LVU65
 327              	.LBB50:
 753:../Libraries/STM32_USB_Device_Library/Core/src/usbd_req.c ****   {
 328              		.loc 1 753 3 view .LVU66
 329 00b2 90F81231 		ldrb	r3, [r0, #274]	@ zero_extendqisi2	@ pdev_5(D)->dev.device_status, pdev_5(D)->dev.device_statu
 330 00b6 023B     		subs	r3, r3, #2	@ tmp280, pdev_5(D)->dev.device_status,
 331 00b8 012B     		cmp	r3, #1	@ tmp280,
 332 00ba BAD8     		bhi	.L2		@,
 757:../Libraries/STM32_USB_Device_Library/Core/src/usbd_req.c ****     {
 333              		.loc 1 757 5 view .LVU67
 334              	@ ../Libraries/STM32_USB_Device_Library/Core/src/usbd_req.c:757:     if (req->wValue == USB_FEATURE
 757:../Libraries/STM32_USB_Device_Library/Core/src/usbd_req.c ****     {
 335              		.loc 1 757 8 is_stmt 0 view .LVU68
 336 00bc 4B88     		ldrh	r3, [r1, #2]	@ req_4(D)->wValue, req_4(D)->wValue
 337 00be 012B     		cmp	r3, #1	@ req_4(D)->wValue,
 338 00c0 C2D1     		bne	.L26		@,
 759:../Libraries/STM32_USB_Device_Library/Core/src/usbd_req.c ****       pdev->dev.class_cb->Setup (pdev, req);   
 339              		.loc 1 759 7 is_stmt 1 view .LVU69
 340              	@ ../Libraries/STM32_USB_Device_Library/Core/src/usbd_req.c:760:       pdev->dev.class_cb->Setup (p
ARM GAS  C:\Users\admin\AppData\Local\Temp\cclOLSai.s 			page 22


 760:../Libraries/STM32_USB_Device_Library/Core/src/usbd_req.c ****       USBD_CtlSendStatus(pdev);
 341              		.loc 1 760 25 is_stmt 0 view .LVU70
 342 00c2 D0F8E435 		ldr	r3, [r0, #1508]	@ pdev_5(D)->dev.class_cb, pdev_5(D)->dev.class_cb
 343              	@ ../Libraries/STM32_USB_Device_Library/Core/src/usbd_req.c:759:       pdev->dev.DevRemoteWakeup = 
 759:../Libraries/STM32_USB_Device_Library/Core/src/usbd_req.c ****       pdev->dev.class_cb->Setup (pdev, req);   
 344              		.loc 1 759 33 view .LVU71
 345 00c6 0022     		movs	r2, #0	@ tmp282,
 346              	@ ../Libraries/STM32_USB_Device_Library/Core/src/usbd_req.c:760:       pdev->dev.class_cb->Setup (p
 760:../Libraries/STM32_USB_Device_Library/Core/src/usbd_req.c ****       USBD_CtlSendStatus(pdev);
 347              		.loc 1 760 7 view .LVU72
 348 00c8 9B68     		ldr	r3, [r3, #8]	@ _91->Setup, _91->Setup
 349              	@ ../Libraries/STM32_USB_Device_Library/Core/src/usbd_req.c:759:       pdev->dev.DevRemoteWakeup = 
 759:../Libraries/STM32_USB_Device_Library/Core/src/usbd_req.c ****       pdev->dev.class_cb->Setup (pdev, req);   
 350              		.loc 1 759 33 view .LVU73
 351 00ca C0F81821 		str	r2, [r0, #280]	@ tmp282, pdev_5(D)->dev.DevRemoteWakeup
 352              	.LVL19:
 353              	.L62:
 760:../Libraries/STM32_USB_Device_Library/Core/src/usbd_req.c ****       USBD_CtlSendStatus(pdev);
 354              		.loc 1 760 7 is_stmt 1 view .LVU74
 355 00ce 2946     		mov	r1, r5	@, req
 356              	.LVL20:
 760:../Libraries/STM32_USB_Device_Library/Core/src/usbd_req.c ****       USBD_CtlSendStatus(pdev);
 357              		.loc 1 760 7 is_stmt 0 view .LVU75
 358 00d0 2046     		mov	r0, r4	@, pdev
 359              	.LVL21:
 760:../Libraries/STM32_USB_Device_Library/Core/src/usbd_req.c ****       USBD_CtlSendStatus(pdev);
 360              		.loc 1 760 7 view .LVU76
 361 00d2 9847     		blx	r3		@ _91->Setup
 362              	.LVL22:
 363              	.L63:
 761:../Libraries/STM32_USB_Device_Library/Core/src/usbd_req.c ****     }
 364              		.loc 1 761 7 is_stmt 1 view .LVU77
 365 00d4 2046     		mov	r0, r4	@, pdev
 366 00d6 FFF7FEFF 		bl	USBD_CtlSendStatus		@
 367              	.LVL23:
 368 00da B5E7     		b	.L26		@
 369              	.LVL24:
 370              	.L8:
 761:../Libraries/STM32_USB_Device_Library/Core/src/usbd_req.c ****     }
 371              		.loc 1 761 7 is_stmt 0 view .LVU78
 372              	.LBE50:
 373              	.LBE49:
 177:../Libraries/STM32_USB_Device_Library/Core/src/usbd_req.c ****     break;
 374              		.loc 1 177 5 is_stmt 1 view .LVU79
 375              	.LBB51:
 376              	.LBI51:
 693:../Libraries/STM32_USB_Device_Library/Core/src/usbd_req.c ****                             USB_SETUP_REQ *req)
 377              		.loc 1 693 13 view .LVU80
 378              	.LBB52:
 697:../Libraries/STM32_USB_Device_Library/Core/src/usbd_req.c ****   uint8_t test_mode = 0;
 379              		.loc 1 697 3 view .LVU81
 698:../Libraries/STM32_USB_Device_Library/Core/src/usbd_req.c ****  
 380              		.loc 1 698 3 view .LVU82
 700:../Libraries/STM32_USB_Device_Library/Core/src/usbd_req.c ****   {
 381              		.loc 1 700 3 view .LVU83
 382              	@ ../Libraries/STM32_USB_Device_Library/Core/src/usbd_req.c:700:   if (req->wValue == USB_FEATURE_R
 700:../Libraries/STM32_USB_Device_Library/Core/src/usbd_req.c ****   {
ARM GAS  C:\Users\admin\AppData\Local\Temp\cclOLSai.s 			page 23


 383              		.loc 1 700 10 is_stmt 0 view .LVU84
 384 00dc 4B88     		ldrh	r3, [r1, #2]	@ _78, req_4(D)->wValue
 385              	@ ../Libraries/STM32_USB_Device_Library/Core/src/usbd_req.c:700:   if (req->wValue == USB_FEATURE_R
 700:../Libraries/STM32_USB_Device_Library/Core/src/usbd_req.c ****   {
 386              		.loc 1 700 6 view .LVU85
 387 00de 012B     		cmp	r3, #1	@ _78,
 388 00e0 00F08E80 		beq	.L67		@,
 707:../Libraries/STM32_USB_Device_Library/Core/src/usbd_req.c ****            ((req->wIndex & 0xFF) == 0))
 389              		.loc 1 707 8 is_stmt 1 view .LVU86
 390              	@ ../Libraries/STM32_USB_Device_Library/Core/src/usbd_req.c:707:   else if ((req->wValue == USB_FEA
 707:../Libraries/STM32_USB_Device_Library/Core/src/usbd_req.c ****            ((req->wIndex & 0xFF) == 0))
 391              		.loc 1 707 11 is_stmt 0 view .LVU87
 392 00e4 022B     		cmp	r3, #2	@ _78,
 393 00e6 AFD1     		bne	.L26		@,
 394              	@ ../Libraries/STM32_USB_Device_Library/Core/src/usbd_req.c:708:            ((req->wIndex & 0xFF) =
 708:../Libraries/STM32_USB_Device_Library/Core/src/usbd_req.c ****   {
 395              		.loc 1 708 17 view .LVU88
 396 00e8 8B88     		ldrh	r3, [r1, #4]	@ _81, req_4(D)->wIndex
 397              	@ ../Libraries/STM32_USB_Device_Library/Core/src/usbd_req.c:707:   else if ((req->wValue == USB_FEA
 707:../Libraries/STM32_USB_Device_Library/Core/src/usbd_req.c ****            ((req->wIndex & 0xFF) == 0))
 398              		.loc 1 707 51 view .LVU89
 399 00ea DAB2     		uxtb	r2, r3	@ _81, _81
 400 00ec 002A     		cmp	r2, #0	@ _81
 401 00ee ABD1     		bne	.L26	@
 710:../Libraries/STM32_USB_Device_Library/Core/src/usbd_req.c ****     
 402              		.loc 1 710 5 is_stmt 1 view .LVU90
 403              	@ ../Libraries/STM32_USB_Device_Library/Core/src/usbd_req.c:710:     dctl.d32 = USB_OTG_READ_REG32(
 710:../Libraries/STM32_USB_Device_Library/Core/src/usbd_req.c ****     
 404              		.loc 1 710 16 is_stmt 0 view .LVU91
 405 00f0 0269     		ldr	r2, [r0, #16]	@ _83, pdev_5(D)->regs.DREGS
 406              	@ ../Libraries/STM32_USB_Device_Library/Core/src/usbd_req.c:713:     switch (test_mode) 
 713:../Libraries/STM32_USB_Device_Library/Core/src/usbd_req.c ****     {
 407              		.loc 1 713 5 view .LVU92
 408 00f2 1B0A     		lsrs	r3, r3, #8	@ test_mode, _81,
 409 00f4 013B     		subs	r3, r3, #1	@ tmp270, test_mode,
 410              	@ ../Libraries/STM32_USB_Device_Library/Core/src/usbd_req.c:710:     dctl.d32 = USB_OTG_READ_REG32(
 710:../Libraries/STM32_USB_Device_Library/Core/src/usbd_req.c ****     
 411              		.loc 1 710 16 view .LVU93
 412 00f6 5268     		ldr	r2, [r2, #4]	@ dctl, _83->DCTL
 413              	.LVL25:
 712:../Libraries/STM32_USB_Device_Library/Core/src/usbd_req.c ****     switch (test_mode) 
 414              		.loc 1 712 5 is_stmt 1 view .LVU94
 713:../Libraries/STM32_USB_Device_Library/Core/src/usbd_req.c ****     {
 415              		.loc 1 713 5 view .LVU95
 416 00f8 042B     		cmp	r3, #4	@ tmp270,
 417 00fa 68D8     		bhi	.L39		@
 418 00fc DFE803F0 		tbb	[pc, r3]	@ tmp270
 419              	.LVL26:
 420              	.L41:
 421 0100 78       		.byte	(.L45-.L41)/2
 422 0101 7C       		.byte	(.L44-.L41)/2
 423 0102 74       		.byte	(.L43-.L41)/2
 424 0103 70       		.byte	(.L42-.L41)/2
 425 0104 64       		.byte	(.L40-.L41)/2
 426 0105 00       		.p2align 1
 427              	.L7:
 713:../Libraries/STM32_USB_Device_Library/Core/src/usbd_req.c ****     {
ARM GAS  C:\Users\admin\AppData\Local\Temp\cclOLSai.s 			page 24


 428              		.loc 1 713 5 is_stmt 0 view .LVU96
 429              	.LBE52:
 430              	.LBE51:
 160:../Libraries/STM32_USB_Device_Library/Core/src/usbd_req.c ****     break;
 431              		.loc 1 160 5 is_stmt 1 view .LVU97
 432              	.LBB54:
 433              	.LBI54:
 502:../Libraries/STM32_USB_Device_Library/Core/src/usbd_req.c ****                             USB_SETUP_REQ *req)
 434              		.loc 1 502 13 view .LVU98
 435              	.LBB55:
 505:../Libraries/STM32_USB_Device_Library/Core/src/usbd_req.c ****   
 436              		.loc 1 505 3 view .LVU99
 507:../Libraries/STM32_USB_Device_Library/Core/src/usbd_req.c ****   {
 437              		.loc 1 507 3 view .LVU100
 438              	@ ../Libraries/STM32_USB_Device_Library/Core/src/usbd_req.c:507:   if ((req->wIndex == 0) && (req->
 507:../Libraries/STM32_USB_Device_Library/Core/src/usbd_req.c ****   {
 439              		.loc 1 507 6 is_stmt 0 view .LVU101
 440 0106 8B88     		ldrh	r3, [r1, #4]	@ req_4(D)->wIndex, req_4(D)->wIndex
 441 0108 002B     		cmp	r3, #0	@ req_4(D)->wIndex
 442 010a 92D1     		bne	.L2	@
 443              	@ ../Libraries/STM32_USB_Device_Library/Core/src/usbd_req.c:507:   if ((req->wIndex == 0) && (req->
 507:../Libraries/STM32_USB_Device_Library/Core/src/usbd_req.c ****   {
 444              		.loc 1 507 26 view .LVU102
 445 010c CB88     		ldrh	r3, [r1, #6]	@ req_4(D)->wLength, req_4(D)->wLength
 446 010e 002B     		cmp	r3, #0	@ req_4(D)->wLength
 447 0110 8FD1     		bne	.L2	@
 509:../Libraries/STM32_USB_Device_Library/Core/src/usbd_req.c ****     
 448              		.loc 1 509 5 is_stmt 1 view .LVU103
 449              	.LVL27:
 511:../Libraries/STM32_USB_Device_Library/Core/src/usbd_req.c ****     {
 450              		.loc 1 511 5 view .LVU104
 451              	@ ../Libraries/STM32_USB_Device_Library/Core/src/usbd_req.c:511:     if (pdev->dev.device_status ==
 511:../Libraries/STM32_USB_Device_Library/Core/src/usbd_req.c ****     {
 452              		.loc 1 511 8 is_stmt 0 view .LVU105
 453 0112 90F81231 		ldrb	r3, [r0, #274]	@ zero_extendqisi2	@ pdev_5(D)->dev.device_status, pdev_5(D)->dev.device_statu
 454 0116 032B     		cmp	r3, #3	@ pdev_5(D)->dev.device_status,
 455 0118 8BD0     		beq	.L2		@,
 456              	@ ../Libraries/STM32_USB_Device_Library/Core/src/usbd_req.c:509:     dev_addr = (uint8_t)(req->wVal
 509:../Libraries/STM32_USB_Device_Library/Core/src/usbd_req.c ****     
 457              		.loc 1 509 39 view .LVU106
 458 011a 4D88     		ldrh	r5, [r1, #2]	@, req_4(D)->wValue
 459              	@ ../Libraries/STM32_USB_Device_Library/Core/src/usbd_req.c:509:     dev_addr = (uint8_t)(req->wVal
 509:../Libraries/STM32_USB_Device_Library/Core/src/usbd_req.c ****     
 460              		.loc 1 509 14 view .LVU107
 461 011c 05F07F05 		and	r5, r5, #127	@ dev_addr, req_4(D)->wValue,
 517:../Libraries/STM32_USB_Device_Library/Core/src/usbd_req.c ****       DCD_EP_SetAddress(pdev, dev_addr);               
 462              		.loc 1 517 7 is_stmt 1 view .LVU108
 463              	@ ../Libraries/STM32_USB_Device_Library/Core/src/usbd_req.c:517:       pdev->dev.device_address = d
 517:../Libraries/STM32_USB_Device_Library/Core/src/usbd_req.c ****       DCD_EP_SetAddress(pdev, dev_addr);               
 464              		.loc 1 517 32 is_stmt 0 view .LVU109
 465 0120 80F81451 		strb	r5, [r0, #276]	@ dev_addr, pdev_5(D)->dev.device_address
 466              	.LVL28:
 518:../Libraries/STM32_USB_Device_Library/Core/src/usbd_req.c ****       USBD_CtlSendStatus(pdev);                         
 467              		.loc 1 518 7 is_stmt 1 view .LVU110
 468 0124 2946     		mov	r1, r5	@, dev_addr
 469              	.LVL29:
 518:../Libraries/STM32_USB_Device_Library/Core/src/usbd_req.c ****       USBD_CtlSendStatus(pdev);                         
ARM GAS  C:\Users\admin\AppData\Local\Temp\cclOLSai.s 			page 25


 470              		.loc 1 518 7 is_stmt 0 view .LVU111
 471 0126 FFF7FEFF 		bl	DCD_EP_SetAddress		@
 472              	.LVL30:
 519:../Libraries/STM32_USB_Device_Library/Core/src/usbd_req.c ****       
 473              		.loc 1 519 7 is_stmt 1 view .LVU112
 474 012a 2046     		mov	r0, r4	@, pdev
 475 012c FFF7FEFF 		bl	USBD_CtlSendStatus		@
 476              	.LVL31:
 521:../Libraries/STM32_USB_Device_Library/Core/src/usbd_req.c ****       {
 477              		.loc 1 521 7 view .LVU113
 478              	@ ../Libraries/STM32_USB_Device_Library/Core/src/usbd_req.c:521:       if (dev_addr != 0) 
 521:../Libraries/STM32_USB_Device_Library/Core/src/usbd_req.c ****       {
 479              		.loc 1 521 10 is_stmt 0 view .LVU114
 480 0130 002D     		cmp	r5, #0	@ dev_addr
 481 0132 00F0AF80 		beq	.L29	@
 523:../Libraries/STM32_USB_Device_Library/Core/src/usbd_req.c ****       } 
 482              		.loc 1 523 9 is_stmt 1 view .LVU115
 483              	@ ../Libraries/STM32_USB_Device_Library/Core/src/usbd_req.c:523:         pdev->dev.device_status  =
 523:../Libraries/STM32_USB_Device_Library/Core/src/usbd_req.c ****       } 
 484              		.loc 1 523 34 is_stmt 0 view .LVU116
 485 0136 0223     		movs	r3, #2	@ tmp231,
 486 0138 84F81231 		strb	r3, [r4, #274]	@ tmp231, pdev_5(D)->dev.device_status
 487 013c 84E7     		b	.L26		@
 488              	.LVL32:
 489              	.L5:
 523:../Libraries/STM32_USB_Device_Library/Core/src/usbd_req.c ****       } 
 490              		.loc 1 523 34 view .LVU117
 491              	.LBE55:
 492              	.LBE54:
 168:../Libraries/STM32_USB_Device_Library/Core/src/usbd_req.c ****     break;
 493              		.loc 1 168 5 is_stmt 1 view .LVU118
 494              	.LBB57:
 495              	.LBI57:
 613:../Libraries/STM32_USB_Device_Library/Core/src/usbd_req.c ****                            USB_SETUP_REQ *req)
 496              		.loc 1 613 13 view .LVU119
 497              	.LBB58:
 617:../Libraries/STM32_USB_Device_Library/Core/src/usbd_req.c ****   {                   
 498              		.loc 1 617 3 view .LVU120
 499              	@ ../Libraries/STM32_USB_Device_Library/Core/src/usbd_req.c:617:   if (req->wLength != 1) 
 617:../Libraries/STM32_USB_Device_Library/Core/src/usbd_req.c ****   {                   
 500              		.loc 1 617 6 is_stmt 0 view .LVU121
 501 013e CA88     		ldrh	r2, [r1, #6]	@ MEM[(short unsigned int *)req_4(D) + 6B], MEM[(short unsigned int *)req_4(D) +
 502 0140 012A     		cmp	r2, #1	@ MEM[(short unsigned int *)req_4(D) + 6B],
 503 0142 7FF476AF 		bne	.L2		@,
 623:../Libraries/STM32_USB_Device_Library/Core/src/usbd_req.c ****     {
 504              		.loc 1 623 5 is_stmt 1 view .LVU122
 505              	@ ../Libraries/STM32_USB_Device_Library/Core/src/usbd_req.c:623:     switch (pdev->dev.device_statu
 623:../Libraries/STM32_USB_Device_Library/Core/src/usbd_req.c ****     {
 506              		.loc 1 623 22 is_stmt 0 view .LVU123
 507 0146 90F81231 		ldrb	r3, [r0, #274]	@ zero_extendqisi2	@ _71, pdev_5(D)->dev.device_status
 508              	@ ../Libraries/STM32_USB_Device_Library/Core/src/usbd_req.c:623:     switch (pdev->dev.device_statu
 623:../Libraries/STM32_USB_Device_Library/Core/src/usbd_req.c ****     {
 509              		.loc 1 623 5 view .LVU124
 510 014a 022B     		cmp	r3, #2	@ _71,
 511 014c 38D0     		beq	.L34		@,
 512 014e 032B     		cmp	r3, #3	@ _71,
 513 0150 7FF46FAF 		bne	.L2		@,
ARM GAS  C:\Users\admin\AppData\Local\Temp\cclOLSai.s 			page 26


 634:../Libraries/STM32_USB_Device_Library/Core/src/usbd_req.c ****                         &pdev->dev.device_config,
 514              		.loc 1 634 7 is_stmt 1 view .LVU125
 515 0154 00F58871 		add	r1, r0, #272	@, pdev,
 516              	.LVL33:
 634:../Libraries/STM32_USB_Device_Library/Core/src/usbd_req.c ****                         &pdev->dev.device_config,
 517              		.loc 1 634 7 is_stmt 0 view .LVU126
 518 0158 FFF7FEFF 		bl	USBD_CtlSendData		@
 519              	.LVL34:
 637:../Libraries/STM32_USB_Device_Library/Core/src/usbd_req.c ****       
 520              		.loc 1 637 7 is_stmt 1 view .LVU127
 521 015c 74E7     		b	.L26		@
 522              	.LVL35:
 523              	.L65:
 637:../Libraries/STM32_USB_Device_Library/Core/src/usbd_req.c ****       
 524              		.loc 1 637 7 is_stmt 0 view .LVU128
 525              	.LBE58:
 526              	.LBE57:
 527              	.LBB60:
 528              	.LBB38:
 376:../Libraries/STM32_USB_Device_Library/Core/src/usbd_req.c ****     if ((req->wLength == 64) ||( pdev->dev.device_status == USB_OTG_DEFAULT))  
 529              		.loc 1 376 5 is_stmt 1 view .LVU129
 530              	@ ../Libraries/STM32_USB_Device_Library/Core/src/usbd_req.c:376:     pbuf = pdev->dev.usr_device->G
 376:../Libraries/STM32_USB_Device_Library/Core/src/usbd_req.c ****     if ((req->wLength == 64) ||( pdev->dev.device_status == USB_OTG_DEFAULT))  
 531              		.loc 1 376 32 is_stmt 0 view .LVU130
 532 015e D0F8EC35 		ldr	r3, [r0, #1516]	@ pdev_5(D)->dev.usr_device, pdev_5(D)->dev.usr_device
 533              	@ ../Libraries/STM32_USB_Device_Library/Core/src/usbd_req.c:376:     pbuf = pdev->dev.usr_device->G
 376:../Libraries/STM32_USB_Device_Library/Core/src/usbd_req.c ****     if ((req->wLength == 64) ||( pdev->dev.device_status == USB_OTG_DEFAULT))  
 534              		.loc 1 376 12 view .LVU131
 535 0162 8078     		ldrb	r0, [r0, #2]	@ zero_extendqisi2	@, pdev_5(D)->cfg.speed
 536              	.LVL36:
 376:../Libraries/STM32_USB_Device_Library/Core/src/usbd_req.c ****     if ((req->wLength == 64) ||( pdev->dev.device_status == USB_OTG_DEFAULT))  
 537              		.loc 1 376 12 view .LVU132
 538 0164 1B68     		ldr	r3, [r3]	@ _18->GetDeviceDescriptor, _18->GetDeviceDescriptor
 539 0166 0DF10601 		add	r1, sp, #6	@,,
 540              	.LVL37:
 376:../Libraries/STM32_USB_Device_Library/Core/src/usbd_req.c ****     if ((req->wLength == 64) ||( pdev->dev.device_status == USB_OTG_DEFAULT))  
 541              		.loc 1 376 12 view .LVU133
 542 016a 9847     		blx	r3		@ _18->GetDeviceDescriptor
 543              	.LVL38:
 544              	@ ../Libraries/STM32_USB_Device_Library/Core/src/usbd_req.c:377:     if ((req->wLength == 64) ||( p
 377:../Libraries/STM32_USB_Device_Library/Core/src/usbd_req.c ****     {                  
 545              		.loc 1 377 13 view .LVU134
 546 016c EA88     		ldrh	r2, [r5, #6]	@ _22, req_4(D)->wLength
 547              	.LVL39:
 377:../Libraries/STM32_USB_Device_Library/Core/src/usbd_req.c ****     {                  
 548              		.loc 1 377 5 is_stmt 1 view .LVU135
 549              	@ ../Libraries/STM32_USB_Device_Library/Core/src/usbd_req.c:377:     if ((req->wLength == 64) ||( p
 377:../Libraries/STM32_USB_Device_Library/Core/src/usbd_req.c ****     {                  
 550              		.loc 1 377 8 is_stmt 0 view .LVU136
 551 016e 402A     		cmp	r2, #64	@ _22,
 552 0170 00F09F80 		beq	.L46		@,
 553              	@ ../Libraries/STM32_USB_Device_Library/Core/src/usbd_req.c:377:     if ((req->wLength == 64) ||( p
 377:../Libraries/STM32_USB_Device_Library/Core/src/usbd_req.c ****     {                  
 554              		.loc 1 377 30 view .LVU137
 555 0174 94F81231 		ldrb	r3, [r4, #274]	@ zero_extendqisi2	@ pdev_5(D)->dev.device_status, pdev_5(D)->dev.device_statu
 556 0178 012B     		cmp	r3, #1	@ pdev_5(D)->dev.device_status,
 557 017a 00F09C80 		beq	.L68		@,
ARM GAS  C:\Users\admin\AppData\Local\Temp\cclOLSai.s 			page 27


 558              	.L15:
 483:../Libraries/STM32_USB_Device_Library/Core/src/usbd_req.c ****   {
 559              		.loc 1 483 3 is_stmt 1 view .LVU138
 560              	@ ../Libraries/STM32_USB_Device_Library/Core/src/usbd_req.c:483:   if((len != 0)&& (req->wLength !=
 483:../Libraries/STM32_USB_Device_Library/Core/src/usbd_req.c ****   {
 561              		.loc 1 483 11 is_stmt 0 view .LVU139
 562 017e BDF80630 		ldrh	r3, [sp, #6]	@ len.0_53, len
 563              	@ ../Libraries/STM32_USB_Device_Library/Core/src/usbd_req.c:483:   if((len != 0)&& (req->wLength !=
 483:../Libraries/STM32_USB_Device_Library/Core/src/usbd_req.c ****   {
 564              		.loc 1 483 5 view .LVU140
 565 0182 002B     		cmp	r3, #0	@ len.0_53
 566 0184 3FF460AF 		beq	.L26	@
 567              	@ ../Libraries/STM32_USB_Device_Library/Core/src/usbd_req.c:483:   if((len != 0)&& (req->wLength !=
 483:../Libraries/STM32_USB_Device_Library/Core/src/usbd_req.c ****   {
 568              		.loc 1 483 23 view .LVU141
 569 0188 EA88     		ldrh	r2, [r5, #6]	@ _22, req_4(D)->wLength
 570              	.L14:
 571              	@ ../Libraries/STM32_USB_Device_Library/Core/src/usbd_req.c:483:   if((len != 0)&& (req->wLength !=
 483:../Libraries/STM32_USB_Device_Library/Core/src/usbd_req.c ****   {
 572              		.loc 1 483 16 view .LVU142
 573 018a 002A     		cmp	r2, #0	@ _22
 574 018c 3FF45CAF 		beq	.L26	@
 575              	.L60:
 486:../Libraries/STM32_USB_Device_Library/Core/src/usbd_req.c ****     
 576              		.loc 1 486 5 is_stmt 1 view .LVU143
 577              	@ ../Libraries/STM32_USB_Device_Library/Core/src/usbd_req.c:486:     len = MIN(len , req->wLength);
 486:../Libraries/STM32_USB_Device_Library/Core/src/usbd_req.c ****     
 578              		.loc 1 486 11 is_stmt 0 view .LVU144
 579 0190 9A42     		cmp	r2, r3	@ _22, len.0_53
 580 0192 28BF     		it	cs
 581 0194 1A46     		movcs	r2, r3	@ _55, len.0_53
 582              	@ ../Libraries/STM32_USB_Device_Library/Core/src/usbd_req.c:488:     USBD_CtlSendData (pdev, 
 488:../Libraries/STM32_USB_Device_Library/Core/src/usbd_req.c ****                       pbuf,
 583              		.loc 1 488 5 view .LVU145
 584 0196 0146     		mov	r1, r0	@, pbuf
 585 0198 2046     		mov	r0, r4	@, pdev
 586              	.LVL40:
 587              	@ ../Libraries/STM32_USB_Device_Library/Core/src/usbd_req.c:486:     len = MIN(len , req->wLength);
 486:../Libraries/STM32_USB_Device_Library/Core/src/usbd_req.c ****     
 588              		.loc 1 486 9 view .LVU146
 589 019a ADF80620 		strh	r2, [sp, #6]	@ movhi	@ _55, len
 488:../Libraries/STM32_USB_Device_Library/Core/src/usbd_req.c ****                       pbuf,
 590              		.loc 1 488 5 is_stmt 1 view .LVU147
 591 019e FFF7FEFF 		bl	USBD_CtlSendData		@
 592              	.LVL41:
 488:../Libraries/STM32_USB_Device_Library/Core/src/usbd_req.c ****                       pbuf,
 593              		.loc 1 488 5 is_stmt 0 view .LVU148
 594 01a2 51E7     		b	.L26		@
 595              	.LVL42:
 596              	.L30:
 488:../Libraries/STM32_USB_Device_Library/Core/src/usbd_req.c ****                       pbuf,
 597              		.loc 1 488 5 view .LVU149
 598              	.LBE38:
 599              	.LBE60:
 600              	.LBB61:
 601              	.LBB44:
 561:../Libraries/STM32_USB_Device_Library/Core/src/usbd_req.c ****       {                                			   							   							   				
ARM GAS  C:\Users\admin\AppData\Local\Temp\cclOLSai.s 			page 28


 602              		.loc 1 561 7 is_stmt 1 view .LVU150
 603              	@ ../Libraries/STM32_USB_Device_Library/Core/src/usbd_req.c:561:       if (cfgidx) 
 561:../Libraries/STM32_USB_Device_Library/Core/src/usbd_req.c ****       {                                			   							   							   				
 604              		.loc 1 561 10 is_stmt 0 view .LVU151
 605 01a4 0029     		cmp	r1, #0	@ _64
 606 01a6 95D0     		beq	.L63	@
 563:../Libraries/STM32_USB_Device_Library/Core/src/usbd_req.c ****         pdev->dev.device_status = USB_OTG_CONFIGURED;
 607              		.loc 1 563 9 is_stmt 1 view .LVU152
 608              	@ ../Libraries/STM32_USB_Device_Library/Core/src/usbd_req.c:563:         pdev->dev.device_config = 
 563:../Libraries/STM32_USB_Device_Library/Core/src/usbd_req.c ****         pdev->dev.device_status = USB_OTG_CONFIGURED;
 609              		.loc 1 563 33 is_stmt 0 view .LVU153
 610 01a8 0121     		movs	r1, #1	@ tmp240,
 611              	@ ../Libraries/STM32_USB_Device_Library/Core/src/usbd_req.c:564:         pdev->dev.device_status = 
 564:../Libraries/STM32_USB_Device_Library/Core/src/usbd_req.c ****         USBD_SetCfg(pdev , cfgidx);
 612              		.loc 1 564 33 view .LVU154
 613 01aa 0323     		movs	r3, #3	@ tmp242,
 614              	@ ../Libraries/STM32_USB_Device_Library/Core/src/usbd_req.c:563:         pdev->dev.device_config = 
 563:../Libraries/STM32_USB_Device_Library/Core/src/usbd_req.c ****         pdev->dev.device_status = USB_OTG_CONFIGURED;
 615              		.loc 1 563 33 view .LVU155
 616 01ac 80F81011 		strb	r1, [r0, #272]	@ tmp240, pdev_5(D)->dev.device_config
 564:../Libraries/STM32_USB_Device_Library/Core/src/usbd_req.c ****         USBD_SetCfg(pdev , cfgidx);
 617              		.loc 1 564 9 is_stmt 1 view .LVU156
 618              	@ ../Libraries/STM32_USB_Device_Library/Core/src/usbd_req.c:564:         pdev->dev.device_status = 
 564:../Libraries/STM32_USB_Device_Library/Core/src/usbd_req.c ****         USBD_SetCfg(pdev , cfgidx);
 619              		.loc 1 564 33 is_stmt 0 view .LVU157
 620 01b0 80F81231 		strb	r3, [r0, #274]	@ tmp242, pdev_5(D)->dev.device_status
 565:../Libraries/STM32_USB_Device_Library/Core/src/usbd_req.c ****         USBD_CtlSendStatus(pdev);
 621              		.loc 1 565 9 is_stmt 1 view .LVU158
 622 01b4 FFF7FEFF 		bl	USBD_SetCfg		@
 623              	.LVL43:
 566:../Libraries/STM32_USB_Device_Library/Core/src/usbd_req.c ****       }
 624              		.loc 1 566 9 view .LVU159
 625 01b8 2046     		mov	r0, r4	@, pdev
 626 01ba FFF7FEFF 		bl	USBD_CtlSendStatus		@
 627              	.LVL44:
 628 01be 43E7     		b	.L26		@
 629              	.LVL45:
 630              	.L34:
 566:../Libraries/STM32_USB_Device_Library/Core/src/usbd_req.c ****       }
 631              		.loc 1 566 9 is_stmt 0 view .LVU160
 632              	.LBE44:
 633              	.LBE61:
 634              	.LBB62:
 635              	.LBB59:
 627:../Libraries/STM32_USB_Device_Library/Core/src/usbd_req.c ****                         (uint8_t *)&USBD_default_cfg,
 636              		.loc 1 627 7 is_stmt 1 view .LVU161
 637 01c0 4049     		ldr	r1, .L69+8	@,
 638              	.LVL46:
 627:../Libraries/STM32_USB_Device_Library/Core/src/usbd_req.c ****                         (uint8_t *)&USBD_default_cfg,
 639              		.loc 1 627 7 is_stmt 0 view .LVU162
 640 01c2 FFF7FEFF 		bl	USBD_CtlSendData		@
 641              	.LVL47:
 630:../Libraries/STM32_USB_Device_Library/Core/src/usbd_req.c ****       
 642              		.loc 1 630 7 is_stmt 1 view .LVU163
 643 01c6 3FE7     		b	.L26		@
 644              	.LVL48:
 645              	.L40:
ARM GAS  C:\Users\admin\AppData\Local\Temp\cclOLSai.s 			page 29


 630:../Libraries/STM32_USB_Device_Library/Core/src/usbd_req.c ****       
 646              		.loc 1 630 7 is_stmt 0 view .LVU164
 647              	.LBE59:
 648              	.LBE62:
 649              	.LBB63:
 650              	.LBB53:
 732:../Libraries/STM32_USB_Device_Library/Core/src/usbd_req.c ****       break;
 651              		.loc 1 732 7 is_stmt 1 view .LVU165
 652              	@ ../Libraries/STM32_USB_Device_Library/Core/src/usbd_req.c:732:       dctl.b.tstctl = 5;
 732:../Libraries/STM32_USB_Device_Library/Core/src/usbd_req.c ****       break;
 653              		.loc 1 732 21 is_stmt 0 view .LVU166
 654 01c8 0523     		movs	r3, #5	@ tmp275,
 655 01ca 63F30612 		bfi	r2, r3, #4, #3	@ dctl, tmp275,,
 733:../Libraries/STM32_USB_Device_Library/Core/src/usbd_req.c ****     }
 656              		.loc 1 733 7 is_stmt 1 view .LVU167
 657              	.L39:
 735:../Libraries/STM32_USB_Device_Library/Core/src/usbd_req.c ****     pdev->dev.test_mode = 1;
 658              		.loc 1 735 5 view .LVU168
 659              	@ ../Libraries/STM32_USB_Device_Library/Core/src/usbd_req.c:735:     SET_TEST_MODE = dctl;
 735:../Libraries/STM32_USB_Device_Library/Core/src/usbd_req.c ****     pdev->dev.test_mode = 1;
 660              		.loc 1 735 19 is_stmt 0 view .LVU169
 661 01ce 3E4B     		ldr	r3, .L69+12	@ tmp276,
 662              	@ ../Libraries/STM32_USB_Device_Library/Core/src/usbd_req.c:736:     pdev->dev.test_mode = 1;
 736:../Libraries/STM32_USB_Device_Library/Core/src/usbd_req.c ****     USBD_CtlSendStatus(pdev);
 663              		.loc 1 736 25 view .LVU170
 664 01d0 0121     		movs	r1, #1	@ tmp277,
 665 01d2 84F81611 		strb	r1, [r4, #278]	@ tmp277, pdev_5(D)->dev.test_mode
 666              	.LVL49:
 667              	@ ../Libraries/STM32_USB_Device_Library/Core/src/usbd_req.c:737:     USBD_CtlSendStatus(pdev);
 737:../Libraries/STM32_USB_Device_Library/Core/src/usbd_req.c ****   }
 668              		.loc 1 737 5 view .LVU171
 669 01d6 2046     		mov	r0, r4	@, pdev
 670              	.LVL50:
 671              	@ ../Libraries/STM32_USB_Device_Library/Core/src/usbd_req.c:735:     SET_TEST_MODE = dctl;
 735:../Libraries/STM32_USB_Device_Library/Core/src/usbd_req.c ****     pdev->dev.test_mode = 1;
 672              		.loc 1 735 19 view .LVU172
 673 01d8 1A60     		str	r2, [r3]	@ dctl, SET_TEST_MODE
 736:../Libraries/STM32_USB_Device_Library/Core/src/usbd_req.c ****     USBD_CtlSendStatus(pdev);
 674              		.loc 1 736 5 is_stmt 1 view .LVU173
 737:../Libraries/STM32_USB_Device_Library/Core/src/usbd_req.c ****   }
 675              		.loc 1 737 5 view .LVU174
 676 01da FFF7FEFF 		bl	USBD_CtlSendStatus		@
 677              	.LVL51:
 678              	@ ../Libraries/STM32_USB_Device_Library/Core/src/usbd_req.c:740: }
 740:../Libraries/STM32_USB_Device_Library/Core/src/usbd_req.c **** 
 679              		.loc 1 740 1 is_stmt 0 view .LVU175
 680 01de 33E7     		b	.L26		@
 681              	.LVL52:
 682              	.L42:
 728:../Libraries/STM32_USB_Device_Library/Core/src/usbd_req.c ****       break;
 683              		.loc 1 728 7 is_stmt 1 view .LVU176
 684              	@ ../Libraries/STM32_USB_Device_Library/Core/src/usbd_req.c:728:       dctl.b.tstctl = 4;
 728:../Libraries/STM32_USB_Device_Library/Core/src/usbd_req.c ****       break;
 685              		.loc 1 728 21 is_stmt 0 view .LVU177
 686 01e0 0423     		movs	r3, #4	@ tmp274,
 687 01e2 63F30612 		bfi	r2, r3, #4, #3	@ dctl, tmp274,,
 729:../Libraries/STM32_USB_Device_Library/Core/src/usbd_req.c ****       
ARM GAS  C:\Users\admin\AppData\Local\Temp\cclOLSai.s 			page 30


 688              		.loc 1 729 7 is_stmt 1 view .LVU178
 689 01e6 F2E7     		b	.L39		@
 690              	.L43:
 724:../Libraries/STM32_USB_Device_Library/Core/src/usbd_req.c ****       break;
 691              		.loc 1 724 7 view .LVU179
 692              	@ ../Libraries/STM32_USB_Device_Library/Core/src/usbd_req.c:724:       dctl.b.tstctl = 3;
 724:../Libraries/STM32_USB_Device_Library/Core/src/usbd_req.c ****       break;
 693              		.loc 1 724 21 is_stmt 0 view .LVU180
 694 01e8 0323     		movs	r3, #3	@ tmp273,
 695 01ea 63F30612 		bfi	r2, r3, #4, #3	@ dctl, tmp273,,
 725:../Libraries/STM32_USB_Device_Library/Core/src/usbd_req.c ****       
 696              		.loc 1 725 7 is_stmt 1 view .LVU181
 697 01ee EEE7     		b	.L39		@
 698              	.L45:
 716:../Libraries/STM32_USB_Device_Library/Core/src/usbd_req.c ****       break;
 699              		.loc 1 716 7 view .LVU182
 700              	@ ../Libraries/STM32_USB_Device_Library/Core/src/usbd_req.c:716:       dctl.b.tstctl = 1;
 716:../Libraries/STM32_USB_Device_Library/Core/src/usbd_req.c ****       break;
 701              		.loc 1 716 21 is_stmt 0 view .LVU183
 702 01f0 0123     		movs	r3, #1	@ tmp271,
 703 01f2 63F30612 		bfi	r2, r3, #4, #3	@ dctl, tmp271,,
 717:../Libraries/STM32_USB_Device_Library/Core/src/usbd_req.c ****       
 704              		.loc 1 717 7 is_stmt 1 view .LVU184
 705 01f6 EAE7     		b	.L39		@
 706              	.L44:
 720:../Libraries/STM32_USB_Device_Library/Core/src/usbd_req.c ****       break;
 707              		.loc 1 720 7 view .LVU185
 708              	@ ../Libraries/STM32_USB_Device_Library/Core/src/usbd_req.c:720:       dctl.b.tstctl = 2;
 720:../Libraries/STM32_USB_Device_Library/Core/src/usbd_req.c ****       break;
 709              		.loc 1 720 21 is_stmt 0 view .LVU186
 710 01f8 0223     		movs	r3, #2	@ tmp272,
 711 01fa 63F30612 		bfi	r2, r3, #4, #3	@ dctl, tmp272,,
 721:../Libraries/STM32_USB_Device_Library/Core/src/usbd_req.c ****       
 712              		.loc 1 721 7 is_stmt 1 view .LVU187
 713 01fe E6E7     		b	.L39		@
 714              	.LVL53:
 715              	.L67:
 702:../Libraries/STM32_USB_Device_Library/Core/src/usbd_req.c ****     pdev->dev.class_cb->Setup (pdev, req);   
 716              		.loc 1 702 5 view .LVU188
 717              	@ ../Libraries/STM32_USB_Device_Library/Core/src/usbd_req.c:703:     pdev->dev.class_cb->Setup (pde
 703:../Libraries/STM32_USB_Device_Library/Core/src/usbd_req.c ****     USBD_CtlSendStatus(pdev);
 718              		.loc 1 703 23 is_stmt 0 view .LVU189
 719 0200 D0F8E425 		ldr	r2, [r0, #1508]	@ pdev_5(D)->dev.class_cb, pdev_5(D)->dev.class_cb
 720              	@ ../Libraries/STM32_USB_Device_Library/Core/src/usbd_req.c:702:     pdev->dev.DevRemoteWakeup = 1;
 702:../Libraries/STM32_USB_Device_Library/Core/src/usbd_req.c ****     pdev->dev.class_cb->Setup (pdev, req);   
 721              		.loc 1 702 31 view .LVU190
 722 0204 C0F81831 		str	r3, [r0, #280]	@ _78, pdev_5(D)->dev.DevRemoteWakeup
 703:../Libraries/STM32_USB_Device_Library/Core/src/usbd_req.c ****     USBD_CtlSendStatus(pdev);
 723              		.loc 1 703 5 is_stmt 1 view .LVU191
 724 0208 9368     		ldr	r3, [r2, #8]	@ _79->Setup, _79->Setup
 725 020a 60E7     		b	.L62		@
 726              	.LVL54:
 727              	.L12:
 703:../Libraries/STM32_USB_Device_Library/Core/src/usbd_req.c ****     USBD_CtlSendStatus(pdev);
 728              		.loc 1 703 5 is_stmt 0 view .LVU192
 729              	.LBE53:
 730              	.LBE63:
ARM GAS  C:\Users\admin\AppData\Local\Temp\cclOLSai.s 			page 31


 731              	.LBB64:
 732              	.LBB39:
 397:../Libraries/STM32_USB_Device_Library/Core/src/usbd_req.c ****     {
 733              		.loc 1 397 5 is_stmt 1 view .LVU193
 734 020c DBB2     		uxtb	r3, r3	@ _16, _16
 735 020e 052B     		cmp	r3, #5	@ _16,
 736 0210 3FF60FAF 		bhi	.L2		@
 737 0214 DFE803F0 		tbb	[pc, r3]	@ _16
 738              	.L17:
 739 0218 2B       		.byte	(.L22-.L17)/2
 740 0219 23       		.byte	(.L21-.L17)/2
 741 021a 1B       		.byte	(.L20-.L17)/2
 742 021b 13       		.byte	(.L19-.L17)/2
 743 021c 0B       		.byte	(.L18-.L17)/2
 744 021d 03       		.byte	(.L16-.L17)/2
 745              		.p2align 1
 746              	.L16:
 420:../Libraries/STM32_USB_Device_Library/Core/src/usbd_req.c ****       break;
 747              		.loc 1 420 7 view .LVU194
 748              	@ ../Libraries/STM32_USB_Device_Library/Core/src/usbd_req.c:420:       pbuf = pdev->dev.usr_device-
 420:../Libraries/STM32_USB_Device_Library/Core/src/usbd_req.c ****       break;
 749              		.loc 1 420 34 is_stmt 0 view .LVU195
 750 021e D0F8EC35 		ldr	r3, [r0, #1516]	@ pdev_5(D)->dev.usr_device, pdev_5(D)->dev.usr_device
 751              	@ ../Libraries/STM32_USB_Device_Library/Core/src/usbd_req.c:420:       pbuf = pdev->dev.usr_device-
 420:../Libraries/STM32_USB_Device_Library/Core/src/usbd_req.c ****       break;
 752              		.loc 1 420 14 view .LVU196
 753 0222 8078     		ldrb	r0, [r0, #2]	@ zero_extendqisi2	@, pdev_5(D)->cfg.speed
 754              	.LVL55:
 420:../Libraries/STM32_USB_Device_Library/Core/src/usbd_req.c ****       break;
 755              		.loc 1 420 14 view .LVU197
 756 0224 9B69     		ldr	r3, [r3, #24]	@ _49->GetInterfaceStrDescriptor, _49->GetInterfaceStrDescriptor
 757 0226 0DF10601 		add	r1, sp, #6	@,,
 758              	.LVL56:
 420:../Libraries/STM32_USB_Device_Library/Core/src/usbd_req.c ****       break;
 759              		.loc 1 420 14 view .LVU198
 760 022a 9847     		blx	r3		@ _49->GetInterfaceStrDescriptor
 761              	.LVL57:
 421:../Libraries/STM32_USB_Device_Library/Core/src/usbd_req.c ****       
 762              		.loc 1 421 7 is_stmt 1 view .LVU199
 763 022c A7E7     		b	.L15		@
 764              	.LVL58:
 765              	.L18:
 416:../Libraries/STM32_USB_Device_Library/Core/src/usbd_req.c ****       break;
 766              		.loc 1 416 7 view .LVU200
 767              	@ ../Libraries/STM32_USB_Device_Library/Core/src/usbd_req.c:416:       pbuf = pdev->dev.usr_device-
 416:../Libraries/STM32_USB_Device_Library/Core/src/usbd_req.c ****       break;
 768              		.loc 1 416 34 is_stmt 0 view .LVU201
 769 022e D0F8EC35 		ldr	r3, [r0, #1516]	@ pdev_5(D)->dev.usr_device, pdev_5(D)->dev.usr_device
 770              	@ ../Libraries/STM32_USB_Device_Library/Core/src/usbd_req.c:416:       pbuf = pdev->dev.usr_device-
 416:../Libraries/STM32_USB_Device_Library/Core/src/usbd_req.c ****       break;
 771              		.loc 1 416 14 view .LVU202
 772 0232 8078     		ldrb	r0, [r0, #2]	@ zero_extendqisi2	@, pdev_5(D)->cfg.speed
 773              	.LVL59:
 416:../Libraries/STM32_USB_Device_Library/Core/src/usbd_req.c ****       break;
 774              		.loc 1 416 14 view .LVU203
 775 0234 5B69     		ldr	r3, [r3, #20]	@ _45->GetConfigurationStrDescriptor, _45->GetConfigurationStrDescriptor
 776 0236 0DF10601 		add	r1, sp, #6	@,,
ARM GAS  C:\Users\admin\AppData\Local\Temp\cclOLSai.s 			page 32


 777              	.LVL60:
 416:../Libraries/STM32_USB_Device_Library/Core/src/usbd_req.c ****       break;
 778              		.loc 1 416 14 view .LVU204
 779 023a 9847     		blx	r3		@ _45->GetConfigurationStrDescriptor
 780              	.LVL61:
 417:../Libraries/STM32_USB_Device_Library/Core/src/usbd_req.c ****       
 781              		.loc 1 417 7 is_stmt 1 view .LVU205
 782 023c 9FE7     		b	.L15		@
 783              	.LVL62:
 784              	.L19:
 412:../Libraries/STM32_USB_Device_Library/Core/src/usbd_req.c ****       break;
 785              		.loc 1 412 7 view .LVU206
 786              	@ ../Libraries/STM32_USB_Device_Library/Core/src/usbd_req.c:412:       pbuf = pdev->dev.usr_device-
 412:../Libraries/STM32_USB_Device_Library/Core/src/usbd_req.c ****       break;
 787              		.loc 1 412 34 is_stmt 0 view .LVU207
 788 023e D0F8EC35 		ldr	r3, [r0, #1516]	@ pdev_5(D)->dev.usr_device, pdev_5(D)->dev.usr_device
 789              	@ ../Libraries/STM32_USB_Device_Library/Core/src/usbd_req.c:412:       pbuf = pdev->dev.usr_device-
 412:../Libraries/STM32_USB_Device_Library/Core/src/usbd_req.c ****       break;
 790              		.loc 1 412 14 view .LVU208
 791 0242 8078     		ldrb	r0, [r0, #2]	@ zero_extendqisi2	@, pdev_5(D)->cfg.speed
 792              	.LVL63:
 412:../Libraries/STM32_USB_Device_Library/Core/src/usbd_req.c ****       break;
 793              		.loc 1 412 14 view .LVU209
 794 0244 1B69     		ldr	r3, [r3, #16]	@ _41->GetSerialStrDescriptor, _41->GetSerialStrDescriptor
 795 0246 0DF10601 		add	r1, sp, #6	@,,
 796              	.LVL64:
 412:../Libraries/STM32_USB_Device_Library/Core/src/usbd_req.c ****       break;
 797              		.loc 1 412 14 view .LVU210
 798 024a 9847     		blx	r3		@ _41->GetSerialStrDescriptor
 799              	.LVL65:
 413:../Libraries/STM32_USB_Device_Library/Core/src/usbd_req.c ****       
 800              		.loc 1 413 7 is_stmt 1 view .LVU211
 801 024c 97E7     		b	.L15		@
 802              	.LVL66:
 803              	.L20:
 408:../Libraries/STM32_USB_Device_Library/Core/src/usbd_req.c ****       break;
 804              		.loc 1 408 7 view .LVU212
 805              	@ ../Libraries/STM32_USB_Device_Library/Core/src/usbd_req.c:408:       pbuf = pdev->dev.usr_device-
 408:../Libraries/STM32_USB_Device_Library/Core/src/usbd_req.c ****       break;
 806              		.loc 1 408 34 is_stmt 0 view .LVU213
 807 024e D0F8EC35 		ldr	r3, [r0, #1516]	@ pdev_5(D)->dev.usr_device, pdev_5(D)->dev.usr_device
 808              	@ ../Libraries/STM32_USB_Device_Library/Core/src/usbd_req.c:408:       pbuf = pdev->dev.usr_device-
 408:../Libraries/STM32_USB_Device_Library/Core/src/usbd_req.c ****       break;
 809              		.loc 1 408 14 view .LVU214
 810 0252 8078     		ldrb	r0, [r0, #2]	@ zero_extendqisi2	@, pdev_5(D)->cfg.speed
 811              	.LVL67:
 408:../Libraries/STM32_USB_Device_Library/Core/src/usbd_req.c ****       break;
 812              		.loc 1 408 14 view .LVU215
 813 0254 DB68     		ldr	r3, [r3, #12]	@ _37->GetProductStrDescriptor, _37->GetProductStrDescriptor
 814 0256 0DF10601 		add	r1, sp, #6	@,,
 815              	.LVL68:
 408:../Libraries/STM32_USB_Device_Library/Core/src/usbd_req.c ****       break;
 816              		.loc 1 408 14 view .LVU216
 817 025a 9847     		blx	r3		@ _37->GetProductStrDescriptor
 818              	.LVL69:
 409:../Libraries/STM32_USB_Device_Library/Core/src/usbd_req.c ****       
 819              		.loc 1 409 7 is_stmt 1 view .LVU217
ARM GAS  C:\Users\admin\AppData\Local\Temp\cclOLSai.s 			page 33


 820 025c 8FE7     		b	.L15		@
 821              	.LVL70:
 822              	.L21:
 404:../Libraries/STM32_USB_Device_Library/Core/src/usbd_req.c ****       break;
 823              		.loc 1 404 7 view .LVU218
 824              	@ ../Libraries/STM32_USB_Device_Library/Core/src/usbd_req.c:404:       pbuf = pdev->dev.usr_device-
 404:../Libraries/STM32_USB_Device_Library/Core/src/usbd_req.c ****       break;
 825              		.loc 1 404 34 is_stmt 0 view .LVU219
 826 025e D0F8EC35 		ldr	r3, [r0, #1516]	@ pdev_5(D)->dev.usr_device, pdev_5(D)->dev.usr_device
 827              	@ ../Libraries/STM32_USB_Device_Library/Core/src/usbd_req.c:404:       pbuf = pdev->dev.usr_device-
 404:../Libraries/STM32_USB_Device_Library/Core/src/usbd_req.c ****       break;
 828              		.loc 1 404 14 view .LVU220
 829 0262 8078     		ldrb	r0, [r0, #2]	@ zero_extendqisi2	@, pdev_5(D)->cfg.speed
 830              	.LVL71:
 404:../Libraries/STM32_USB_Device_Library/Core/src/usbd_req.c ****       break;
 831              		.loc 1 404 14 view .LVU221
 832 0264 9B68     		ldr	r3, [r3, #8]	@ _33->GetManufacturerStrDescriptor, _33->GetManufacturerStrDescriptor
 833 0266 0DF10601 		add	r1, sp, #6	@,,
 834              	.LVL72:
 404:../Libraries/STM32_USB_Device_Library/Core/src/usbd_req.c ****       break;
 835              		.loc 1 404 14 view .LVU222
 836 026a 9847     		blx	r3		@ _33->GetManufacturerStrDescriptor
 837              	.LVL73:
 405:../Libraries/STM32_USB_Device_Library/Core/src/usbd_req.c ****       
 838              		.loc 1 405 7 is_stmt 1 view .LVU223
 839 026c 87E7     		b	.L15		@
 840              	.LVL74:
 841              	.L22:
 400:../Libraries/STM32_USB_Device_Library/Core/src/usbd_req.c ****       break;
 842              		.loc 1 400 6 view .LVU224
 843              	@ ../Libraries/STM32_USB_Device_Library/Core/src/usbd_req.c:400:      pbuf = pdev->dev.usr_device->
 400:../Libraries/STM32_USB_Device_Library/Core/src/usbd_req.c ****       break;
 844              		.loc 1 400 33 is_stmt 0 view .LVU225
 845 026e D0F8EC35 		ldr	r3, [r0, #1516]	@ pdev_5(D)->dev.usr_device, pdev_5(D)->dev.usr_device
 846              	@ ../Libraries/STM32_USB_Device_Library/Core/src/usbd_req.c:400:      pbuf = pdev->dev.usr_device->
 400:../Libraries/STM32_USB_Device_Library/Core/src/usbd_req.c ****       break;
 847              		.loc 1 400 13 view .LVU226
 848 0272 8078     		ldrb	r0, [r0, #2]	@ zero_extendqisi2	@, pdev_5(D)->cfg.speed
 849              	.LVL75:
 400:../Libraries/STM32_USB_Device_Library/Core/src/usbd_req.c ****       break;
 850              		.loc 1 400 13 view .LVU227
 851 0274 5B68     		ldr	r3, [r3, #4]	@ _29->GetLangIDStrDescriptor, _29->GetLangIDStrDescriptor
 852 0276 0DF10601 		add	r1, sp, #6	@,,
 853              	.LVL76:
 400:../Libraries/STM32_USB_Device_Library/Core/src/usbd_req.c ****       break;
 854              		.loc 1 400 13 view .LVU228
 855 027a 9847     		blx	r3		@ _29->GetLangIDStrDescriptor
 856              	.LVL77:
 401:../Libraries/STM32_USB_Device_Library/Core/src/usbd_req.c ****       
 857              		.loc 1 401 7 is_stmt 1 view .LVU229
 858 027c 7FE7     		b	.L15		@
 859              	.LVL78:
 860              	.L11:
 384:../Libraries/STM32_USB_Device_Library/Core/src/usbd_req.c **** #ifdef USB_OTG_HS_CORE
 861              		.loc 1 384 7 view .LVU230
 862              	@ ../Libraries/STM32_USB_Device_Library/Core/src/usbd_req.c:384:       pbuf   = (uint8_t *)pdev->de
 384:../Libraries/STM32_USB_Device_Library/Core/src/usbd_req.c **** #ifdef USB_OTG_HS_CORE
ARM GAS  C:\Users\admin\AppData\Local\Temp\cclOLSai.s 			page 34


 863              		.loc 1 384 45 is_stmt 0 view .LVU231
 864 027e D0F8E435 		ldr	r3, [r0, #1508]	@ pdev_5(D)->dev.class_cb, pdev_5(D)->dev.class_cb
 865              	@ ../Libraries/STM32_USB_Device_Library/Core/src/usbd_req.c:384:       pbuf   = (uint8_t *)pdev->de
 384:../Libraries/STM32_USB_Device_Library/Core/src/usbd_req.c **** #ifdef USB_OTG_HS_CORE
 866              		.loc 1 384 16 view .LVU232
 867 0282 8078     		ldrb	r0, [r0, #2]	@ zero_extendqisi2	@, pdev_5(D)->cfg.speed
 868              	.LVL79:
 384:../Libraries/STM32_USB_Device_Library/Core/src/usbd_req.c **** #ifdef USB_OTG_HS_CORE
 869              		.loc 1 384 16 view .LVU233
 870 0284 9B6A     		ldr	r3, [r3, #40]	@ _24->GetConfigDescriptor, _24->GetConfigDescriptor
 871 0286 0DF10601 		add	r1, sp, #6	@,,
 872              	.LVL80:
 384:../Libraries/STM32_USB_Device_Library/Core/src/usbd_req.c **** #ifdef USB_OTG_HS_CORE
 873              		.loc 1 384 16 view .LVU234
 874 028a 9847     		blx	r3		@ _24->GetConfigDescriptor
 875              	.LVL81:
 392:../Libraries/STM32_USB_Device_Library/Core/src/usbd_req.c ****     pdev->dev.pConfig_descriptor = pbuf;    
 876              		.loc 1 392 5 is_stmt 1 view .LVU235
 877              	@ ../Libraries/STM32_USB_Device_Library/Core/src/usbd_req.c:392:     pbuf[1] = USB_DESC_TYPE_CONFIG
 392:../Libraries/STM32_USB_Device_Library/Core/src/usbd_req.c ****     pdev->dev.pConfig_descriptor = pbuf;    
 878              		.loc 1 392 13 is_stmt 0 view .LVU236
 879 028c 4670     		strb	r6, [r0, #1]	@ _17, MEM[(uint8_t *)pbuf_27 + 1B]
 393:../Libraries/STM32_USB_Device_Library/Core/src/usbd_req.c ****     break;
 880              		.loc 1 393 5 is_stmt 1 view .LVU237
 881              	@ ../Libraries/STM32_USB_Device_Library/Core/src/usbd_req.c:393:     pdev->dev.pConfig_descriptor =
 393:../Libraries/STM32_USB_Device_Library/Core/src/usbd_req.c ****     break;
 882              		.loc 1 393 34 is_stmt 0 view .LVU238
 883 028e C4F8F005 		str	r0, [r4, #1520]	@ pbuf, pdev_5(D)->dev.pConfig_descriptor
 394:../Libraries/STM32_USB_Device_Library/Core/src/usbd_req.c ****     
 884              		.loc 1 394 5 is_stmt 1 view .LVU239
 885 0292 74E7     		b	.L15		@
 886              	.LVL82:
 887              	.L29:
 394:../Libraries/STM32_USB_Device_Library/Core/src/usbd_req.c ****     
 888              		.loc 1 394 5 is_stmt 0 view .LVU240
 889              	.LBE39:
 890              	.LBE64:
 891              	.LBB65:
 892              	.LBB56:
 527:../Libraries/STM32_USB_Device_Library/Core/src/usbd_req.c ****       }
 893              		.loc 1 527 9 is_stmt 1 view .LVU241
 894              	@ ../Libraries/STM32_USB_Device_Library/Core/src/usbd_req.c:527:         pdev->dev.device_status  =
 527:../Libraries/STM32_USB_Device_Library/Core/src/usbd_req.c ****       }
 895              		.loc 1 527 34 is_stmt 0 view .LVU242
 896 0294 0123     		movs	r3, #1	@ tmp233,
 897 0296 84F81231 		strb	r3, [r4, #274]	@ tmp233, pdev_5(D)->dev.device_status
 898 029a D5E6     		b	.L26		@
 899              	.LVL83:
 900              	.L66:
 527:../Libraries/STM32_USB_Device_Library/Core/src/usbd_req.c ****       }
 901              		.loc 1 527 34 view .LVU243
 902              	.LBE56:
 903              	.LBE65:
 904              	.LBB66:
 905              	.LBB45:
 577:../Libraries/STM32_USB_Device_Library/Core/src/usbd_req.c ****         pdev->dev.device_config = cfgidx;          
 906              		.loc 1 577 9 is_stmt 1 view .LVU244
ARM GAS  C:\Users\admin\AppData\Local\Temp\cclOLSai.s 			page 35


 907              	@ ../Libraries/STM32_USB_Device_Library/Core/src/usbd_req.c:577:         pdev->dev.device_status = 
 577:../Libraries/STM32_USB_Device_Library/Core/src/usbd_req.c ****         pdev->dev.device_config = cfgidx;          
 908              		.loc 1 577 33 is_stmt 0 view .LVU245
 909 029c 0223     		movs	r3, #2	@ tmp244,
 910 029e 80F81231 		strb	r3, [r0, #274]	@ tmp244, pdev_5(D)->dev.device_status
 578:../Libraries/STM32_USB_Device_Library/Core/src/usbd_req.c ****         USBD_ClrCfg(pdev , cfgidx);
 911              		.loc 1 578 9 is_stmt 1 view .LVU246
 912              	@ ../Libraries/STM32_USB_Device_Library/Core/src/usbd_req.c:578:         pdev->dev.device_config = 
 578:../Libraries/STM32_USB_Device_Library/Core/src/usbd_req.c ****         USBD_ClrCfg(pdev , cfgidx);
 913              		.loc 1 578 33 is_stmt 0 view .LVU247
 914 02a2 80F81011 		strb	r1, [r0, #272]	@ _64, pdev_5(D)->dev.device_config
 579:../Libraries/STM32_USB_Device_Library/Core/src/usbd_req.c ****         USBD_CtlSendStatus(pdev);
 915              		.loc 1 579 9 is_stmt 1 view .LVU248
 916 02a6 FFF7FEFF 		bl	USBD_ClrCfg		@
 917              	.LVL84:
 580:../Libraries/STM32_USB_Device_Library/Core/src/usbd_req.c ****         
 918              		.loc 1 580 9 view .LVU249
 919 02aa 2046     		mov	r0, r4	@, pdev
 920 02ac FFF7FEFF 		bl	USBD_CtlSendStatus		@
 921              	.LVL85:
 922 02b0 CAE6     		b	.L26		@
 923              	.LVL86:
 924              	.L46:
 580:../Libraries/STM32_USB_Device_Library/Core/src/usbd_req.c ****         
 925              		.loc 1 580 9 is_stmt 0 view .LVU250
 926              	.LBE45:
 927              	.LBE66:
 928              	.LBB67:
 929              	.LBB40:
 930              	@ ../Libraries/STM32_USB_Device_Library/Core/src/usbd_req.c:483:   if((len != 0)&& (req->wLength !=
 483:../Libraries/STM32_USB_Device_Library/Core/src/usbd_req.c ****   {
 931              		.loc 1 483 11 view .LVU251
 932 02b2 0823     		movs	r3, #8	@ len.0_53,
 933 02b4 6CE7     		b	.L60		@
 934              	.L68:
 483:../Libraries/STM32_USB_Device_Library/Core/src/usbd_req.c ****   {
 935              		.loc 1 483 11 view .LVU252
 936 02b6 0823     		movs	r3, #8	@ len.0_53,
 937 02b8 67E7     		b	.L14		@
 938              	.L70:
 939 02ba 00BF     		.align	2
 940              	.L69:
 941 02bc 00000000 		.word	.LANCHOR0
 942 02c0 00000000 		.word	.LANCHOR2
 943 02c4 00000000 		.word	.LANCHOR1
 944 02c8 00000000 		.word	SET_TEST_MODE
 945              	.LBE40:
 946              	.LBE67:
 947              		.cfi_endproc
 948              	.LFE110:
 949              		.size	USBD_StdDevReq, .-USBD_StdDevReq
 950              		.section	.text.USBD_StdItfReq,"ax",%progbits
 951              		.align	1
 952              		.p2align 2,,3
 953              		.global	USBD_StdItfReq
 954              		.syntax unified
 955              		.thumb
ARM GAS  C:\Users\admin\AppData\Local\Temp\cclOLSai.s 			page 36


 956              		.thumb_func
 957              		.type	USBD_StdItfReq, %function
 958              	USBD_StdItfReq:
 959              	.LVL87:
 960              	.LFB111:
 200:../Libraries/STM32_USB_Device_Library/Core/src/usbd_req.c ****   USBD_Status ret = USBD_OK; 
 961              		.loc 1 200 1 is_stmt 1 view -0
 962              		.cfi_startproc
 963              		@ args = 0, pretend = 0, frame = 0
 964              		@ frame_needed = 0, uses_anonymous_args = 0
 200:../Libraries/STM32_USB_Device_Library/Core/src/usbd_req.c ****   USBD_Status ret = USBD_OK; 
 965              		.loc 1 200 1 is_stmt 0 view .LVU254
 966 0000 38B5     		push	{r3, r4, r5, lr}	@
 967              		.cfi_def_cfa_offset 16
 968              		.cfi_offset 3, -16
 969              		.cfi_offset 4, -12
 970              		.cfi_offset 5, -8
 971              		.cfi_offset 14, -4
 972              	@ ../Libraries/STM32_USB_Device_Library/Core/src/usbd_req.c:203:   switch (pdev->dev.device_status)
 203:../Libraries/STM32_USB_Device_Library/Core/src/usbd_req.c ****   {
 973              		.loc 1 203 3 view .LVU255
 974 0002 90F81231 		ldrb	r3, [r0, #274]	@ zero_extendqisi2	@ pdev_9(D)->dev.device_status, pdev_9(D)->dev.device_statu
 975 0006 032B     		cmp	r3, #3	@ pdev_9(D)->dev.device_status,
 976              	@ ../Libraries/STM32_USB_Device_Library/Core/src/usbd_req.c:200: {
 200:../Libraries/STM32_USB_Device_Library/Core/src/usbd_req.c ****   USBD_Status ret = USBD_OK; 
 977              		.loc 1 200 1 view .LVU256
 978 0008 0446     		mov	r4, r0	@ pdev, tmp131
 201:../Libraries/STM32_USB_Device_Library/Core/src/usbd_req.c ****   
 979              		.loc 1 201 3 is_stmt 1 view .LVU257
 980              	.LVL88:
 203:../Libraries/STM32_USB_Device_Library/Core/src/usbd_req.c ****   {
 981              		.loc 1 203 3 view .LVU258
 982 000a 0DD1     		bne	.L72		@,
 207:../Libraries/STM32_USB_Device_Library/Core/src/usbd_req.c ****     {
 983              		.loc 1 207 5 view .LVU259
 984              	@ ../Libraries/STM32_USB_Device_Library/Core/src/usbd_req.c:207:     if (LOBYTE(req->wIndex) <= USB
 207:../Libraries/STM32_USB_Device_Library/Core/src/usbd_req.c ****     {
 985              		.loc 1 207 8 is_stmt 0 view .LVU260
 986 000c 0B79     		ldrb	r3, [r1, #4]	@ zero_extendqisi2	@ req_10(D)->wIndex, req_10(D)->wIndex
 987 000e 012B     		cmp	r3, #1	@ req_10(D)->wIndex,
 988 0010 0D46     		mov	r5, r1	@ req, tmp132
 989 0012 09D8     		bhi	.L72		@,
 209:../Libraries/STM32_USB_Device_Library/Core/src/usbd_req.c ****       
 990              		.loc 1 209 7 is_stmt 1 view .LVU261
 991              	@ ../Libraries/STM32_USB_Device_Library/Core/src/usbd_req.c:209:       pdev->dev.class_cb->Setup (p
 209:../Libraries/STM32_USB_Device_Library/Core/src/usbd_req.c ****       
 992              		.loc 1 209 25 is_stmt 0 view .LVU262
 993 0014 D0F8E435 		ldr	r3, [r0, #1508]	@ pdev_9(D)->dev.class_cb, pdev_9(D)->dev.class_cb
 994              	@ ../Libraries/STM32_USB_Device_Library/Core/src/usbd_req.c:209:       pdev->dev.class_cb->Setup (p
 209:../Libraries/STM32_USB_Device_Library/Core/src/usbd_req.c ****       
 995              		.loc 1 209 7 view .LVU263
 996 0018 9B68     		ldr	r3, [r3, #8]	@ _4->Setup, _4->Setup
 997 001a 9847     		blx	r3		@ _4->Setup
 998              	.LVL89:
 211:../Libraries/STM32_USB_Device_Library/Core/src/usbd_req.c ****       {
 999              		.loc 1 211 7 is_stmt 1 view .LVU264
 1000              	@ ../Libraries/STM32_USB_Device_Library/Core/src/usbd_req.c:211:       if((req->wLength == 0)&& (re
ARM GAS  C:\Users\admin\AppData\Local\Temp\cclOLSai.s 			page 37


 211:../Libraries/STM32_USB_Device_Library/Core/src/usbd_req.c ****       {
 1001              		.loc 1 211 9 is_stmt 0 view .LVU265
 1002 001c EB88     		ldrh	r3, [r5, #6]	@ req_10(D)->wLength, req_10(D)->wLength
 1003 001e 73B9     		cbnz	r3, .L73	@ req_10(D)->wLength,
 213:../Libraries/STM32_USB_Device_Library/Core/src/usbd_req.c ****       }
 1004              		.loc 1 213 10 is_stmt 1 view .LVU266
 1005 0020 2046     		mov	r0, r4	@, pdev
 1006 0022 FFF7FEFF 		bl	USBD_CtlSendStatus		@
 1007              	.LVL90:
 1008 0026 0AE0     		b	.L73		@
 1009              	.LVL91:
 1010              	.L72:
 218:../Libraries/STM32_USB_Device_Library/Core/src/usbd_req.c ****     }
 1011              		.loc 1 218 8 view .LVU267
 1012              	.LBB72:
 1013              	.LBI72:
 800:../Libraries/STM32_USB_Device_Library/Core/src/usbd_req.c ****                             USB_SETUP_REQ *req)
 1014              		.loc 1 800 6 view .LVU268
 1015              	.LBB73:
 804:../Libraries/STM32_USB_Device_Library/Core/src/usbd_req.c ****   DCD_EP_Stall(pdev , 0);
 1016              		.loc 1 804 3 view .LVU269
 1017 0028 8021     		movs	r1, #128	@,
 1018              	.LVL92:
 804:../Libraries/STM32_USB_Device_Library/Core/src/usbd_req.c ****   DCD_EP_Stall(pdev , 0);
 1019              		.loc 1 804 3 is_stmt 0 view .LVU270
 1020 002a 2046     		mov	r0, r4	@, pdev
 1021              	.LVL93:
 804:../Libraries/STM32_USB_Device_Library/Core/src/usbd_req.c ****   DCD_EP_Stall(pdev , 0);
 1022              		.loc 1 804 3 view .LVU271
 1023 002c FFF7FEFF 		bl	DCD_EP_Stall		@
 1024              	.LVL94:
 805:../Libraries/STM32_USB_Device_Library/Core/src/usbd_req.c ****   USB_OTG_EP0_OutStart(pdev);  
 1025              		.loc 1 805 3 is_stmt 1 view .LVU272
 1026 0030 0021     		movs	r1, #0	@,
 1027 0032 2046     		mov	r0, r4	@, pdev
 1028 0034 FFF7FEFF 		bl	DCD_EP_Stall		@
 1029              	.LVL95:
 1030              		.loc 1 806 3 view .LVU273
 1031 0038 2046     		mov	r0, r4	@, pdev
 1032 003a FFF7FEFF 		bl	USB_OTG_EP0_OutStart		@
 1033              	.LVL96:
 1034              	.L73:
 1035              		.loc 1 806 3 is_stmt 0 view .LVU274
 1036              	.LBE73:
 1037              	.LBE72:
 226:../Libraries/STM32_USB_Device_Library/Core/src/usbd_req.c **** }
 1038              		.loc 1 226 3 is_stmt 1 view .LVU275
 1039              	@ ../Libraries/STM32_USB_Device_Library/Core/src/usbd_req.c:227: }
 227:../Libraries/STM32_USB_Device_Library/Core/src/usbd_req.c **** 
 1040              		.loc 1 227 1 is_stmt 0 view .LVU276
 1041 003e 0020     		movs	r0, #0	@,
 1042 0040 38BD     		pop	{r3, r4, r5, pc}	@
 227:../Libraries/STM32_USB_Device_Library/Core/src/usbd_req.c **** 
 1043              		.loc 1 227 1 view .LVU277
 1044              		.cfi_endproc
 1045              	.LFE111:
 1046              		.size	USBD_StdItfReq, .-USBD_StdItfReq
ARM GAS  C:\Users\admin\AppData\Local\Temp\cclOLSai.s 			page 38


 1047 0042 00BF     		.section	.text.USBD_StdEPReq,"ax",%progbits
 1048              		.align	1
 1049              		.p2align 2,,3
 1050              		.global	USBD_StdEPReq
 1051              		.syntax unified
 1052              		.thumb
 1053              		.thumb_func
 1054              		.type	USBD_StdEPReq, %function
 1055              	USBD_StdEPReq:
 1056              	.LVL97:
 1057              	.LFB112:
 237:../Libraries/STM32_USB_Device_Library/Core/src/usbd_req.c ****   
 1058              		.loc 1 237 1 is_stmt 1 view -0
 1059              		.cfi_startproc
 1060              		@ args = 0, pretend = 0, frame = 0
 1061              		@ frame_needed = 0, uses_anonymous_args = 0
 237:../Libraries/STM32_USB_Device_Library/Core/src/usbd_req.c ****   
 1062              		.loc 1 237 1 is_stmt 0 view .LVU279
 1063 0000 38B5     		push	{r3, r4, r5, lr}	@
 1064              		.cfi_def_cfa_offset 16
 1065              		.cfi_offset 3, -16
 1066              		.cfi_offset 4, -12
 1067              		.cfi_offset 5, -8
 1068              		.cfi_offset 14, -4
 1069              	@ ../Libraries/STM32_USB_Device_Library/Core/src/usbd_req.c:237: {
 237:../Libraries/STM32_USB_Device_Library/Core/src/usbd_req.c ****   
 1070              		.loc 1 237 1 view .LVU280
 1071 0002 0C46     		mov	r4, r1	@ req, tmp186
 1072              	@ ../Libraries/STM32_USB_Device_Library/Core/src/usbd_req.c:242:   ep_addr  = LOBYTE(req->wIndex); 
 242:../Libraries/STM32_USB_Device_Library/Core/src/usbd_req.c ****   
 1073              		.loc 1 242 14 view .LVU281
 1074 0004 8A88     		ldrh	r2, [r1, #4]	@ _1, req_23(D)->wIndex
 1075              	@ ../Libraries/STM32_USB_Device_Library/Core/src/usbd_req.c:244:   switch (req->bRequest) 
 244:../Libraries/STM32_USB_Device_Library/Core/src/usbd_req.c ****   {
 1076              		.loc 1 244 14 view .LVU282
 1077 0006 6378     		ldrb	r3, [r4, #1]	@ zero_extendqisi2	@ _2, req_23(D)->bRequest
 1078              	@ ../Libraries/STM32_USB_Device_Library/Core/src/usbd_req.c:244:   switch (req->bRequest) 
 244:../Libraries/STM32_USB_Device_Library/Core/src/usbd_req.c ****   {
 1079              		.loc 1 244 3 view .LVU283
 1080 0008 012B     		cmp	r3, #1	@ _2,
 1081              	@ ../Libraries/STM32_USB_Device_Library/Core/src/usbd_req.c:237: {
 237:../Libraries/STM32_USB_Device_Library/Core/src/usbd_req.c ****   
 1082              		.loc 1 237 1 view .LVU284
 1083 000a 0546     		mov	r5, r0	@ pdev, tmp185
 239:../Libraries/STM32_USB_Device_Library/Core/src/usbd_req.c ****   USBD_Status ret = USBD_OK; 
 1084              		.loc 1 239 3 is_stmt 1 view .LVU285
 240:../Libraries/STM32_USB_Device_Library/Core/src/usbd_req.c ****   
 1085              		.loc 1 240 3 view .LVU286
 1086              	.LVL98:
 242:../Libraries/STM32_USB_Device_Library/Core/src/usbd_req.c ****   
 1087              		.loc 1 242 3 view .LVU287
 1088              	@ ../Libraries/STM32_USB_Device_Library/Core/src/usbd_req.c:242:   ep_addr  = LOBYTE(req->wIndex); 
 242:../Libraries/STM32_USB_Device_Library/Core/src/usbd_req.c ****   
 1089              		.loc 1 242 12 is_stmt 0 view .LVU288
 1090 000c D1B2     		uxtb	r1, r2	@ ep_addr, _1
 1091              	.LVL99:
 244:../Libraries/STM32_USB_Device_Library/Core/src/usbd_req.c ****   {
ARM GAS  C:\Users\admin\AppData\Local\Temp\cclOLSai.s 			page 39


 1092              		.loc 1 244 3 is_stmt 1 view .LVU289
 1093 000e 04D0     		beq	.L76		@,
 1094 0010 032B     		cmp	r3, #3	@ _2,
 1095 0012 32D0     		beq	.L77		@,
 1096 0014 A3B1     		cbz	r3, .L117	@ _2,
 1097              	.LVL100:
 1098              	.L79:
 357:../Libraries/STM32_USB_Device_Library/Core/src/usbd_req.c **** }
 1099              		.loc 1 357 3 view .LVU290
 1100              	@ ../Libraries/STM32_USB_Device_Library/Core/src/usbd_req.c:358: }
 358:../Libraries/STM32_USB_Device_Library/Core/src/usbd_req.c **** /**
 1101              		.loc 1 358 1 is_stmt 0 view .LVU291
 1102 0016 0020     		movs	r0, #0	@,
 1103 0018 38BD     		pop	{r3, r4, r5, pc}	@
 1104              	.LVL101:
 1105              	.L76:
 280:../Libraries/STM32_USB_Device_Library/Core/src/usbd_req.c ****     {
 1106              		.loc 1 280 5 is_stmt 1 view .LVU292
 1107              	@ ../Libraries/STM32_USB_Device_Library/Core/src/usbd_req.c:280:     switch (pdev->dev.device_statu
 280:../Libraries/STM32_USB_Device_Library/Core/src/usbd_req.c ****     {
 1108              		.loc 1 280 22 is_stmt 0 view .LVU293
 1109 001a 90F81231 		ldrb	r3, [r0, #274]	@ zero_extendqisi2	@ _7, pdev_25(D)->dev.device_status
 1110 001e 022B     		cmp	r3, #2	@ _7,
 1111 0020 12D0     		beq	.L87		@,
 1112 0022 032B     		cmp	r3, #3	@ _7,
 1113 0024 40D0     		beq	.L85		@,
 1114              	.L82:
 273:../Libraries/STM32_USB_Device_Library/Core/src/usbd_req.c ****       break;    
 1115              		.loc 1 273 7 is_stmt 1 view .LVU294
 1116              	.LVL102:
 1117              	.LBB80:
 1118              	.LBI80:
 800:../Libraries/STM32_USB_Device_Library/Core/src/usbd_req.c ****                             USB_SETUP_REQ *req)
 1119              		.loc 1 800 6 view .LVU295
 1120              	.LBB81:
 804:../Libraries/STM32_USB_Device_Library/Core/src/usbd_req.c ****   DCD_EP_Stall(pdev , 0);
 1121              		.loc 1 804 3 view .LVU296
 1122 0026 8021     		movs	r1, #128	@,
 1123              	.LVL103:
 804:../Libraries/STM32_USB_Device_Library/Core/src/usbd_req.c ****   DCD_EP_Stall(pdev , 0);
 1124              		.loc 1 804 3 is_stmt 0 view .LVU297
 1125 0028 2846     		mov	r0, r5	@, pdev
 1126              	.LVL104:
 804:../Libraries/STM32_USB_Device_Library/Core/src/usbd_req.c ****   DCD_EP_Stall(pdev , 0);
 1127              		.loc 1 804 3 view .LVU298
 1128 002a FFF7FEFF 		bl	DCD_EP_Stall		@
 1129              	.LVL105:
 805:../Libraries/STM32_USB_Device_Library/Core/src/usbd_req.c ****   USB_OTG_EP0_OutStart(pdev);  
 1130              		.loc 1 805 3 is_stmt 1 view .LVU299
 1131 002e 0021     		movs	r1, #0	@,
 1132 0030 2846     		mov	r0, r5	@, pdev
 1133 0032 FFF7FEFF 		bl	DCD_EP_Stall		@
 1134              	.LVL106:
 1135              		.loc 1 806 3 view .LVU300
 1136 0036 2846     		mov	r0, r5	@, pdev
 1137 0038 FFF7FEFF 		bl	USB_OTG_EP0_OutStart		@
 1138              	.LVL107:
ARM GAS  C:\Users\admin\AppData\Local\Temp\cclOLSai.s 			page 40


 1139              		.loc 1 806 3 is_stmt 0 view .LVU301
 1140              	.LBE81:
 1141              	.LBE80:
 357:../Libraries/STM32_USB_Device_Library/Core/src/usbd_req.c **** }
 1142              		.loc 1 357 3 is_stmt 1 view .LVU302
 1143              	@ ../Libraries/STM32_USB_Device_Library/Core/src/usbd_req.c:358: }
 358:../Libraries/STM32_USB_Device_Library/Core/src/usbd_req.c **** /**
 1144              		.loc 1 358 1 is_stmt 0 view .LVU303
 1145 003c 0020     		movs	r0, #0	@,
 1146 003e 38BD     		pop	{r3, r4, r5, pc}	@
 1147              	.LVL108:
 1148              	.L117:
 308:../Libraries/STM32_USB_Device_Library/Core/src/usbd_req.c ****     {
 1149              		.loc 1 308 5 is_stmt 1 view .LVU304
 1150              	@ ../Libraries/STM32_USB_Device_Library/Core/src/usbd_req.c:308:     switch (pdev->dev.device_statu
 308:../Libraries/STM32_USB_Device_Library/Core/src/usbd_req.c ****     {
 1151              		.loc 1 308 22 is_stmt 0 view .LVU305
 1152 0040 90F81231 		ldrb	r3, [r0, #274]	@ zero_extendqisi2	@ _11, pdev_25(D)->dev.device_status
 1153 0044 022B     		cmp	r3, #2	@ _11,
 1154 0046 04D1     		bne	.L118		@,
 1155              	.L87:
 311:../Libraries/STM32_USB_Device_Library/Core/src/usbd_req.c ****       {
 1156              		.loc 1 311 7 is_stmt 1 view .LVU306
 1157              	@ ../Libraries/STM32_USB_Device_Library/Core/src/usbd_req.c:311:       if ((ep_addr != 0x00) && (ep
 311:../Libraries/STM32_USB_Device_Library/Core/src/usbd_req.c ****       {
 1158              		.loc 1 311 10 is_stmt 0 view .LVU307
 1159 0048 4A06     		lsls	r2, r1, #25	@, ep_addr,
 1160 004a E4D0     		beq	.L79		@,
 313:../Libraries/STM32_USB_Device_Library/Core/src/usbd_req.c ****       }
 1161              		.loc 1 313 9 is_stmt 1 view .LVU308
 1162 004c FFF7FEFF 		bl	DCD_EP_Stall		@
 1163              	.LVL109:
 313:../Libraries/STM32_USB_Device_Library/Core/src/usbd_req.c ****       }
 1164              		.loc 1 313 9 is_stmt 0 view .LVU309
 1165 0050 E1E7     		b	.L79		@
 1166              	.LVL110:
 1167              	.L118:
 313:../Libraries/STM32_USB_Device_Library/Core/src/usbd_req.c ****       }
 1168              		.loc 1 313 9 view .LVU310
 1169 0052 032B     		cmp	r3, #3	@ _11,
 1170 0054 E7D1     		bne	.L82		@,
 320:../Libraries/STM32_USB_Device_Library/Core/src/usbd_req.c ****       {
 1171              		.loc 1 320 7 is_stmt 1 view .LVU311
 1172              	@ ../Libraries/STM32_USB_Device_Library/Core/src/usbd_req.c:320:       if ((ep_addr & 0x80)== 0x80)
 320:../Libraries/STM32_USB_Device_Library/Core/src/usbd_req.c ****       {
 1173              		.loc 1 320 10 is_stmt 0 view .LVU312
 1174 0056 1306     		lsls	r3, r2, #24	@, _1,
 1175 0058 2ED4     		bmi	.L119		@,
 331:../Libraries/STM32_USB_Device_Library/Core/src/usbd_req.c ****       {
 1176              		.loc 1 331 12 is_stmt 1 view .LVU313
 333:../Libraries/STM32_USB_Device_Library/Core/src/usbd_req.c ****         {
 1177              		.loc 1 333 9 view .LVU314
 1178              	@ ../Libraries/STM32_USB_Device_Library/Core/src/usbd_req.c:333:         if(pdev->dev.out_ep[ep_add
 333:../Libraries/STM32_USB_Device_Library/Core/src/usbd_req.c ****         {
 1179              		.loc 1 333 37 is_stmt 0 view .LVU315
 1180 005a 01EB8101 		add	r1, r1, r1, lsl #2	@ tmp178, ep_addr, ep_addr,
 1181              	.LVL111:
ARM GAS  C:\Users\admin\AppData\Local\Temp\cclOLSai.s 			page 41


 333:../Libraries/STM32_USB_Device_Library/Core/src/usbd_req.c ****         {
 1182              		.loc 1 333 37 view .LVU316
 1183 005e 00EBC101 		add	r1, r0, r1, lsl #3	@ tmp180, pdev, tmp178,
 1184              	@ ../Libraries/STM32_USB_Device_Library/Core/src/usbd_req.c:333:         if(pdev->dev.out_ep[ep_add
 333:../Libraries/STM32_USB_Device_Library/Core/src/usbd_req.c ****         {
 1185              		.loc 1 333 11 view .LVU317
 1186 0062 91F87633 		ldrb	r3, [r1, #886]	@ zero_extendqisi2	@ pdev_25(D)->dev.out_ep[_15].is_stall, pdev_25(D)->dev.out
 1187 0066 8BB3     		cbz	r3, .L90	@ pdev_25(D)->dev.out_ep[_15].is_stall,
 1188              	.L92:
 324:../Libraries/STM32_USB_Device_Library/Core/src/usbd_req.c ****         }
 1189              		.loc 1 324 11 is_stmt 1 view .LVU318
 1190              	@ ../Libraries/STM32_USB_Device_Library/Core/src/usbd_req.c:324:           USBD_ep_status = 0x0001;
 324:../Libraries/STM32_USB_Device_Library/Core/src/usbd_req.c ****         }
 1191              		.loc 1 324 26 is_stmt 0 view .LVU319
 1192 0068 1A4B     		ldr	r3, .L120	@ tmp172,
 1193 006a 0122     		movs	r2, #1	@ tmp173,
 1194              	.LVL112:
 324:../Libraries/STM32_USB_Device_Library/Core/src/usbd_req.c ****         }
 1195              		.loc 1 324 26 view .LVU320
 1196 006c 1A60     		str	r2, [r3]	@ tmp173, USBD_ep_status
 1197              	.L91:
 343:../Libraries/STM32_USB_Device_Library/Core/src/usbd_req.c ****                         (uint8_t *)&USBD_ep_status,
 1198              		.loc 1 343 7 is_stmt 1 view .LVU321
 1199 006e 1949     		ldr	r1, .L120	@,
 1200 0070 0222     		movs	r2, #2	@,
 1201 0072 2846     		mov	r0, r5	@, pdev
 1202              	.LVL113:
 343:../Libraries/STM32_USB_Device_Library/Core/src/usbd_req.c ****                         (uint8_t *)&USBD_ep_status,
 1203              		.loc 1 343 7 is_stmt 0 view .LVU322
 1204 0074 FFF7FEFF 		bl	USBD_CtlSendData		@
 1205              	.LVL114:
 346:../Libraries/STM32_USB_Device_Library/Core/src/usbd_req.c ****       
 1206              		.loc 1 346 7 is_stmt 1 view .LVU323
 1207 0078 CDE7     		b	.L79		@
 1208              	.LVL115:
 1209              	.L77:
 249:../Libraries/STM32_USB_Device_Library/Core/src/usbd_req.c ****     {
 1210              		.loc 1 249 5 view .LVU324
 1211              	@ ../Libraries/STM32_USB_Device_Library/Core/src/usbd_req.c:249:     switch (pdev->dev.device_statu
 249:../Libraries/STM32_USB_Device_Library/Core/src/usbd_req.c ****     {
 1212              		.loc 1 249 22 is_stmt 0 view .LVU325
 1213 007a 90F81231 		ldrb	r3, [r0, #274]	@ zero_extendqisi2	@ _3, pdev_25(D)->dev.device_status
 1214 007e 022B     		cmp	r3, #2	@ _3,
 1215 0080 E2D0     		beq	.L87		@,
 1216 0082 032B     		cmp	r3, #3	@ _3,
 1217 0084 CFD1     		bne	.L82		@,
 259:../Libraries/STM32_USB_Device_Library/Core/src/usbd_req.c ****       {
 1218              		.loc 1 259 7 is_stmt 1 view .LVU326
 1219              	@ ../Libraries/STM32_USB_Device_Library/Core/src/usbd_req.c:259:       if (req->wValue == USB_FEATU
 259:../Libraries/STM32_USB_Device_Library/Core/src/usbd_req.c ****       {
 1220              		.loc 1 259 10 is_stmt 0 view .LVU327
 1221 0086 6388     		ldrh	r3, [r4, #2]	@ req_23(D)->wValue, req_23(D)->wValue
 1222 0088 1BB9     		cbnz	r3, .L114	@ req_23(D)->wValue,
 261:../Libraries/STM32_USB_Device_Library/Core/src/usbd_req.c ****         { 
 1223              		.loc 1 261 9 is_stmt 1 view .LVU328
 1224              	@ ../Libraries/STM32_USB_Device_Library/Core/src/usbd_req.c:261:         if ((ep_addr != 0x00) && (
 261:../Libraries/STM32_USB_Device_Library/Core/src/usbd_req.c ****         { 
ARM GAS  C:\Users\admin\AppData\Local\Temp\cclOLSai.s 			page 42


 1225              		.loc 1 261 12 is_stmt 0 view .LVU329
 1226 008a 4A06     		lsls	r2, r1, #25	@, ep_addr,
 1227 008c 01D0     		beq	.L114		@,
 263:../Libraries/STM32_USB_Device_Library/Core/src/usbd_req.c ****           
 1228              		.loc 1 263 11 is_stmt 1 view .LVU330
 1229 008e FFF7FEFF 		bl	DCD_EP_Stall		@
 1230              	.LVL116:
 267:../Libraries/STM32_USB_Device_Library/Core/src/usbd_req.c ****       USBD_CtlSendStatus(pdev);
 1231              		.loc 1 267 7 view .LVU331
 1232              	.L114:
 295:../Libraries/STM32_USB_Device_Library/Core/src/usbd_req.c ****         }
 1233              		.loc 1 295 11 view .LVU332
 1234              	@ ../Libraries/STM32_USB_Device_Library/Core/src/usbd_req.c:295:           pdev->dev.class_cb->Setu
 295:../Libraries/STM32_USB_Device_Library/Core/src/usbd_req.c ****         }
 1235              		.loc 1 295 29 is_stmt 0 view .LVU333
 1236 0092 D5F8E435 		ldr	r3, [r5, #1508]	@ pdev_25(D)->dev.class_cb, pdev_25(D)->dev.class_cb
 1237              	@ ../Libraries/STM32_USB_Device_Library/Core/src/usbd_req.c:295:           pdev->dev.class_cb->Setu
 295:../Libraries/STM32_USB_Device_Library/Core/src/usbd_req.c ****         }
 1238              		.loc 1 295 11 view .LVU334
 1239 0096 2146     		mov	r1, r4	@, req
 1240 0098 9B68     		ldr	r3, [r3, #8]	@ _9->Setup,
 1241 009a 2846     		mov	r0, r5	@, pdev
 1242 009c 9847     		blx	r3		@ _9->Setup
 1243              	.LVL117:
 1244              	.L86:
 297:../Libraries/STM32_USB_Device_Library/Core/src/usbd_req.c ****       }
 1245              		.loc 1 297 9 is_stmt 1 view .LVU335
 1246 009e 2846     		mov	r0, r5	@, pdev
 1247 00a0 FFF7FEFF 		bl	USBD_CtlSendStatus		@
 1248              	.LVL118:
 357:../Libraries/STM32_USB_Device_Library/Core/src/usbd_req.c **** }
 1249              		.loc 1 357 3 view .LVU336
 1250              	@ ../Libraries/STM32_USB_Device_Library/Core/src/usbd_req.c:358: }
 358:../Libraries/STM32_USB_Device_Library/Core/src/usbd_req.c **** /**
 1251              		.loc 1 358 1 is_stmt 0 view .LVU337
 1252 00a4 0020     		movs	r0, #0	@,
 1253 00a6 38BD     		pop	{r3, r4, r5, pc}	@
 1254              	.LVL119:
 1255              	.L85:
 290:../Libraries/STM32_USB_Device_Library/Core/src/usbd_req.c ****       {
 1256              		.loc 1 290 7 is_stmt 1 view .LVU338
 1257              	@ ../Libraries/STM32_USB_Device_Library/Core/src/usbd_req.c:290:       if (req->wValue == USB_FEATU
 290:../Libraries/STM32_USB_Device_Library/Core/src/usbd_req.c ****       {
 1258              		.loc 1 290 10 is_stmt 0 view .LVU339
 1259 00a8 6388     		ldrh	r3, [r4, #2]	@ req_23(D)->wValue, req_23(D)->wValue
 1260 00aa 002B     		cmp	r3, #0	@ req_23(D)->wValue
 1261 00ac B3D1     		bne	.L79	@
 292:../Libraries/STM32_USB_Device_Library/Core/src/usbd_req.c ****         {        
 1262              		.loc 1 292 9 is_stmt 1 view .LVU340
 1263              	@ ../Libraries/STM32_USB_Device_Library/Core/src/usbd_req.c:292:         if ((ep_addr != 0x00) && (
 292:../Libraries/STM32_USB_Device_Library/Core/src/usbd_req.c ****         {        
 1264              		.loc 1 292 12 is_stmt 0 view .LVU341
 1265 00ae 4B06     		lsls	r3, r1, #25	@, ep_addr,
 1266 00b0 F5D0     		beq	.L86		@,
 294:../Libraries/STM32_USB_Device_Library/Core/src/usbd_req.c ****           pdev->dev.class_cb->Setup (pdev, req);
 1267              		.loc 1 294 11 is_stmt 1 view .LVU342
 1268 00b2 FFF7FEFF 		bl	DCD_EP_ClrStall		@
ARM GAS  C:\Users\admin\AppData\Local\Temp\cclOLSai.s 			page 43


 1269              	.LVL120:
 294:../Libraries/STM32_USB_Device_Library/Core/src/usbd_req.c ****           pdev->dev.class_cb->Setup (pdev, req);
 1270              		.loc 1 294 11 is_stmt 0 view .LVU343
 1271 00b6 ECE7     		b	.L114		@
 1272              	.LVL121:
 1273              	.L119:
 322:../Libraries/STM32_USB_Device_Library/Core/src/usbd_req.c ****         {
 1274              		.loc 1 322 9 is_stmt 1 view .LVU344
 1275              	@ ../Libraries/STM32_USB_Device_Library/Core/src/usbd_req.c:322:         if(pdev->dev.in_ep[ep_addr
 322:../Libraries/STM32_USB_Device_Library/Core/src/usbd_req.c ****         {
 1276              		.loc 1 322 36 is_stmt 0 view .LVU345
 1277 00b8 01F07F01 		and	r1, r1, #127	@ tmp164, ep_addr,
 1278              	.LVL122:
 1279              	@ ../Libraries/STM32_USB_Device_Library/Core/src/usbd_req.c:322:         if(pdev->dev.in_ep[ep_addr
 322:../Libraries/STM32_USB_Device_Library/Core/src/usbd_req.c ****         {
 1280              		.loc 1 322 43 view .LVU346
 1281 00bc 01EB8101 		add	r1, r1, r1, lsl #2	@ tmp167, tmp164, tmp164,
 1282 00c0 00EBC101 		add	r1, r0, r1, lsl #3	@ tmp169, pdev, tmp167,
 1283              	@ ../Libraries/STM32_USB_Device_Library/Core/src/usbd_req.c:322:         if(pdev->dev.in_ep[ep_addr
 322:../Libraries/STM32_USB_Device_Library/Core/src/usbd_req.c ****         {
 1284              		.loc 1 322 11 view .LVU347
 1285 00c4 91F81E31 		ldrb	r3, [r1, #286]	@ zero_extendqisi2	@ pdev_25(D)->dev.in_ep[_13].is_stall, pdev_25(D)->dev.in_e
 1286 00c8 002B     		cmp	r3, #0	@ pdev_25(D)->dev.in_ep[_13].is_stall
 1287 00ca CDD1     		bne	.L92	@
 1288              	.L90:
 328:../Libraries/STM32_USB_Device_Library/Core/src/usbd_req.c ****         }
 1289              		.loc 1 328 11 is_stmt 1 view .LVU348
 1290              	@ ../Libraries/STM32_USB_Device_Library/Core/src/usbd_req.c:328:           USBD_ep_status = 0x0000;
 328:../Libraries/STM32_USB_Device_Library/Core/src/usbd_req.c ****         }
 1291              		.loc 1 328 26 is_stmt 0 view .LVU349
 1292 00cc 014B     		ldr	r3, .L120	@ tmp174,
 1293 00ce 0022     		movs	r2, #0	@ tmp175,
 1294              	.LVL123:
 328:../Libraries/STM32_USB_Device_Library/Core/src/usbd_req.c ****         }
 1295              		.loc 1 328 26 view .LVU350
 1296 00d0 1A60     		str	r2, [r3]	@ tmp175, USBD_ep_status
 1297 00d2 CCE7     		b	.L91		@
 1298              	.L121:
 1299              		.align	2
 1300              	.L120:
 1301 00d4 00000000 		.word	.LANCHOR3
 1302              		.cfi_endproc
 1303              	.LFE112:
 1304              		.size	USBD_StdEPReq, .-USBD_StdEPReq
 1305              		.section	.text.USBD_ParseSetupRequest,"ax",%progbits
 1306              		.align	1
 1307              		.p2align 2,,3
 1308              		.global	USBD_ParseSetupRequest
 1309              		.syntax unified
 1310              		.thumb
 1311              		.thumb_func
 1312              		.type	USBD_ParseSetupRequest, %function
 1313              	USBD_ParseSetupRequest:
 1314              	.LVL124:
 1315              	.LFB120:
 781:../Libraries/STM32_USB_Device_Library/Core/src/usbd_req.c ****   req->bmRequest     = *(uint8_t *)  (pdev->dev.setup_packet);
 1316              		.loc 1 781 1 is_stmt 1 view -0
ARM GAS  C:\Users\admin\AppData\Local\Temp\cclOLSai.s 			page 44


 1317              		.cfi_startproc
 1318              		@ args = 0, pretend = 0, frame = 0
 1319              		@ frame_needed = 0, uses_anonymous_args = 0
 1320              		@ link register save eliminated.
 782:../Libraries/STM32_USB_Device_Library/Core/src/usbd_req.c ****   req->bRequest      = *(uint8_t *)  (pdev->dev.setup_packet +  1);
 1321              		.loc 1 782 3 view .LVU352
 783:../Libraries/STM32_USB_Device_Library/Core/src/usbd_req.c ****   req->wValue        = SWAPBYTE      (pdev->dev.setup_packet +  2);
 1322              		.loc 1 783 3 view .LVU353
 1323              	@ ../Libraries/STM32_USB_Device_Library/Core/src/usbd_req.c:782:   req->bmRequest     = *(uint8_t *
 782:../Libraries/STM32_USB_Device_Library/Core/src/usbd_req.c ****   req->bRequest      = *(uint8_t *)  (pdev->dev.setup_packet +  1);
 1324              		.loc 1 782 22 is_stmt 0 view .LVU354
 1325 0000 B0F8CC35 		ldrh	r3, [r0, #1484]	@, MEM <vector(2) unsigned char> [(unsigned char *)pdev_23(D) + 1484B]
 1326 0004 0B80     		strh	r3, [r1]	@ movhi	@ vect__1.51, MEM <vector(2) unsigned char> [(unsigned char *)req_24(D)]
 784:../Libraries/STM32_USB_Device_Library/Core/src/usbd_req.c ****   req->wIndex        = SWAPBYTE      (pdev->dev.setup_packet +  4);
 1327              		.loc 1 784 3 is_stmt 1 view .LVU355
 1328              	@ ../Libraries/STM32_USB_Device_Library/Core/src/usbd_req.c:784:   req->wValue        = SWAPBYTE   
 784:../Libraries/STM32_USB_Device_Library/Core/src/usbd_req.c ****   req->wIndex        = SWAPBYTE      (pdev->dev.setup_packet +  4);
 1329              		.loc 1 784 24 is_stmt 0 view .LVU356
 1330 0006 90F8CFC5 		ldrb	ip, [r0, #1487]	@ zero_extendqisi2	@ pdev_23(D)->dev.setup_packet[3], pdev_23(D)->dev.setup_p
 1331 000a 90F8CE35 		ldrb	r3, [r0, #1486]	@ zero_extendqisi2	@ pdev_23(D)->dev.setup_packet[2], pdev_23(D)->dev.setup_p
 1332 000e 03EB0C23 		add	r3, r3, ip, lsl #8	@ tmp141, pdev_23(D)->dev.setup_packet[2], pdev_23(D)->dev.setup_packet[3],
 1333              	@ ../Libraries/STM32_USB_Device_Library/Core/src/usbd_req.c:784:   req->wValue        = SWAPBYTE   
 784:../Libraries/STM32_USB_Device_Library/Core/src/usbd_req.c ****   req->wIndex        = SWAPBYTE      (pdev->dev.setup_packet +  4);
 1334              		.loc 1 784 22 view .LVU357
 1335 0012 4B80     		strh	r3, [r1, #2]	@ movhi	@ tmp141, req_24(D)->wValue
 785:../Libraries/STM32_USB_Device_Library/Core/src/usbd_req.c ****   req->wLength       = SWAPBYTE      (pdev->dev.setup_packet +  6);
 1336              		.loc 1 785 3 is_stmt 1 view .LVU358
 1337              	@ ../Libraries/STM32_USB_Device_Library/Core/src/usbd_req.c:785:   req->wIndex        = SWAPBYTE   
 785:../Libraries/STM32_USB_Device_Library/Core/src/usbd_req.c ****   req->wLength       = SWAPBYTE      (pdev->dev.setup_packet +  6);
 1338              		.loc 1 785 24 is_stmt 0 view .LVU359
 1339 0014 90F8D1C5 		ldrb	ip, [r0, #1489]	@ zero_extendqisi2	@ pdev_23(D)->dev.setup_packet[5], pdev_23(D)->dev.setup_p
 1340 0018 90F8D035 		ldrb	r3, [r0, #1488]	@ zero_extendqisi2	@ pdev_23(D)->dev.setup_packet[4], pdev_23(D)->dev.setup_p
 1341 001c 03EB0C23 		add	r3, r3, ip, lsl #8	@ tmp149, pdev_23(D)->dev.setup_packet[4], pdev_23(D)->dev.setup_packet[5],
 1342              	@ ../Libraries/STM32_USB_Device_Library/Core/src/usbd_req.c:785:   req->wIndex        = SWAPBYTE   
 785:../Libraries/STM32_USB_Device_Library/Core/src/usbd_req.c ****   req->wLength       = SWAPBYTE      (pdev->dev.setup_packet +  6);
 1343              		.loc 1 785 22 view .LVU360
 1344 0020 8B80     		strh	r3, [r1, #4]	@ movhi	@ tmp149, req_24(D)->wIndex
 786:../Libraries/STM32_USB_Device_Library/Core/src/usbd_req.c ****   
 1345              		.loc 1 786 3 is_stmt 1 view .LVU361
 1346              	@ ../Libraries/STM32_USB_Device_Library/Core/src/usbd_req.c:786:   req->wLength       = SWAPBYTE   
 786:../Libraries/STM32_USB_Device_Library/Core/src/usbd_req.c ****   
 1347              		.loc 1 786 24 is_stmt 0 view .LVU362
 1348 0022 90F8D3C5 		ldrb	ip, [r0, #1491]	@ zero_extendqisi2	@ pdev_23(D)->dev.setup_packet[7], pdev_23(D)->dev.setup_p
 1349 0026 90F8D235 		ldrb	r3, [r0, #1490]	@ zero_extendqisi2	@ pdev_23(D)->dev.setup_packet[6], pdev_23(D)->dev.setup_p
 1350 002a 03EB0C23 		add	r3, r3, ip, lsl #8	@ tmp157, pdev_23(D)->dev.setup_packet[6], pdev_23(D)->dev.setup_packet[7],
 1351 002e 9BB2     		uxth	r3, r3	@ _20, tmp157
 1352              	@ ../Libraries/STM32_USB_Device_Library/Core/src/usbd_req.c:789:   pdev->dev.device_state = USB_OTG
 789:../Libraries/STM32_USB_Device_Library/Core/src/usbd_req.c **** }
 1353              		.loc 1 789 26 view .LVU363
 1354 0030 0122     		movs	r2, #1	@ tmp159,
 1355              	@ ../Libraries/STM32_USB_Device_Library/Core/src/usbd_req.c:786:   req->wLength       = SWAPBYTE   
 786:../Libraries/STM32_USB_Device_Library/Core/src/usbd_req.c ****   
 1356              		.loc 1 786 22 view .LVU364
 1357 0032 CB80     		strh	r3, [r1, #6]	@ movhi	@ _20, req_24(D)->wLength
 788:../Libraries/STM32_USB_Device_Library/Core/src/usbd_req.c ****   pdev->dev.device_state = USB_OTG_EP0_SETUP;
 1358              		.loc 1 788 3 is_stmt 1 view .LVU365
 1359              	@ ../Libraries/STM32_USB_Device_Library/Core/src/usbd_req.c:788:   pdev->dev.in_ep[0].ctl_data_len 
ARM GAS  C:\Users\admin\AppData\Local\Temp\cclOLSai.s 			page 45


 788:../Libraries/STM32_USB_Device_Library/Core/src/usbd_req.c ****   pdev->dev.device_state = USB_OTG_EP0_SETUP;
 1360              		.loc 1 788 40 is_stmt 0 view .LVU366
 1361 0034 C0F84031 		str	r3, [r0, #320]	@ _20, pdev_23(D)->dev.in_ep[0].ctl_data_len
 789:../Libraries/STM32_USB_Device_Library/Core/src/usbd_req.c **** }
 1362              		.loc 1 789 3 is_stmt 1 view .LVU367
 1363              	@ ../Libraries/STM32_USB_Device_Library/Core/src/usbd_req.c:789:   pdev->dev.device_state = USB_OTG
 789:../Libraries/STM32_USB_Device_Library/Core/src/usbd_req.c **** }
 1364              		.loc 1 789 26 is_stmt 0 view .LVU368
 1365 0038 80F81121 		strb	r2, [r0, #273]	@ tmp159, pdev_23(D)->dev.device_state
 1366              	@ ../Libraries/STM32_USB_Device_Library/Core/src/usbd_req.c:790: }
 790:../Libraries/STM32_USB_Device_Library/Core/src/usbd_req.c **** 
 1367              		.loc 1 790 1 view .LVU369
 1368 003c 7047     		bx	lr	@
 1369              		.cfi_endproc
 1370              	.LFE120:
 1371              		.size	USBD_ParseSetupRequest, .-USBD_ParseSetupRequest
 1372 003e 00BF     		.section	.text.USBD_CtlError,"ax",%progbits
 1373              		.align	1
 1374              		.p2align 2,,3
 1375              		.global	USBD_CtlError
 1376              		.syntax unified
 1377              		.thumb
 1378              		.thumb_func
 1379              		.type	USBD_CtlError, %function
 1380              	USBD_CtlError:
 1381              	.LVL125:
 1382              	.LFB121:
 802:../Libraries/STM32_USB_Device_Library/Core/src/usbd_req.c ****   
 1383              		.loc 1 802 1 is_stmt 1 view -0
 1384              		.cfi_startproc
 1385              		@ args = 0, pretend = 0, frame = 0
 1386              		@ frame_needed = 0, uses_anonymous_args = 0
 804:../Libraries/STM32_USB_Device_Library/Core/src/usbd_req.c ****   DCD_EP_Stall(pdev , 0);
 1387              		.loc 1 804 3 view .LVU371
 1388              	@ ../Libraries/STM32_USB_Device_Library/Core/src/usbd_req.c:802: {
 802:../Libraries/STM32_USB_Device_Library/Core/src/usbd_req.c ****   
 1389              		.loc 1 802 1 is_stmt 0 view .LVU372
 1390 0000 10B5     		push	{r4, lr}	@
 1391              		.cfi_def_cfa_offset 8
 1392              		.cfi_offset 4, -8
 1393              		.cfi_offset 14, -4
 1394              	@ ../Libraries/STM32_USB_Device_Library/Core/src/usbd_req.c:804:   DCD_EP_Stall(pdev , 0x80);
 804:../Libraries/STM32_USB_Device_Library/Core/src/usbd_req.c ****   DCD_EP_Stall(pdev , 0);
 1395              		.loc 1 804 3 view .LVU373
 1396 0002 8021     		movs	r1, #128	@,
 1397              	.LVL126:
 1398              	@ ../Libraries/STM32_USB_Device_Library/Core/src/usbd_req.c:802: {
 802:../Libraries/STM32_USB_Device_Library/Core/src/usbd_req.c ****   
 1399              		.loc 1 802 1 view .LVU374
 1400 0004 0446     		mov	r4, r0	@ pdev, tmp115
 1401              	@ ../Libraries/STM32_USB_Device_Library/Core/src/usbd_req.c:804:   DCD_EP_Stall(pdev , 0x80);
 804:../Libraries/STM32_USB_Device_Library/Core/src/usbd_req.c ****   DCD_EP_Stall(pdev , 0);
 1402              		.loc 1 804 3 view .LVU375
 1403 0006 FFF7FEFF 		bl	DCD_EP_Stall		@
 1404              	.LVL127:
 805:../Libraries/STM32_USB_Device_Library/Core/src/usbd_req.c ****   USB_OTG_EP0_OutStart(pdev);  
 1405              		.loc 1 805 3 is_stmt 1 view .LVU376
ARM GAS  C:\Users\admin\AppData\Local\Temp\cclOLSai.s 			page 46


 1406 000a 2046     		mov	r0, r4	@, pdev
 1407 000c 0021     		movs	r1, #0	@,
 1408 000e FFF7FEFF 		bl	DCD_EP_Stall		@
 1409              	.LVL128:
 1410              		.loc 1 806 3 view .LVU377
 1411 0012 2046     		mov	r0, r4	@, pdev
 1412              	@ ../Libraries/STM32_USB_Device_Library/Core/src/usbd_req.c:807: }
 807:../Libraries/STM32_USB_Device_Library/Core/src/usbd_req.c **** }
 1413              		.loc 1 807 1 is_stmt 0 view .LVU378
 1414 0014 BDE81040 		pop	{r4, lr}	@
 1415              		.cfi_restore 14
 1416              		.cfi_restore 4
 1417              		.cfi_def_cfa_offset 0
 1418              	.LVL129:
 1419              	@ ../Libraries/STM32_USB_Device_Library/Core/src/usbd_req.c:806:   USB_OTG_EP0_OutStart(pdev);  
 806:../Libraries/STM32_USB_Device_Library/Core/src/usbd_req.c **** }
 1420              		.loc 1 806 3 view .LVU379
 1421 0018 FFF7FEBF 		b	USB_OTG_EP0_OutStart		@
 1422              	.LVL130:
 806:../Libraries/STM32_USB_Device_Library/Core/src/usbd_req.c **** }
 1423              		.loc 1 806 3 view .LVU380
 1424              		.cfi_endproc
 1425              	.LFE121:
 1426              		.size	USBD_CtlError, .-USBD_CtlError
 1427              		.section	.text.USBD_GetString,"ax",%progbits
 1428              		.align	1
 1429              		.p2align 2,,3
 1430              		.global	USBD_GetString
 1431              		.syntax unified
 1432              		.thumb
 1433              		.thumb_func
 1434              		.type	USBD_GetString, %function
 1435              	USBD_GetString:
 1436              	.LVL131:
 1437              	.LFB122:
 808:../Libraries/STM32_USB_Device_Library/Core/src/usbd_req.c **** 
 809:../Libraries/STM32_USB_Device_Library/Core/src/usbd_req.c **** 
 810:../Libraries/STM32_USB_Device_Library/Core/src/usbd_req.c **** /**
 811:../Libraries/STM32_USB_Device_Library/Core/src/usbd_req.c ****   * @brief  USBD_GetString
 812:../Libraries/STM32_USB_Device_Library/Core/src/usbd_req.c ****   *         Convert Ascii string into unicode one
 813:../Libraries/STM32_USB_Device_Library/Core/src/usbd_req.c ****   * @param  desc : descriptor buffer
 814:../Libraries/STM32_USB_Device_Library/Core/src/usbd_req.c ****   * @param  unicode : Formatted string buffer (unicode)
 815:../Libraries/STM32_USB_Device_Library/Core/src/usbd_req.c ****   * @param  len : descriptor length
 816:../Libraries/STM32_USB_Device_Library/Core/src/usbd_req.c ****   * @retval None
 817:../Libraries/STM32_USB_Device_Library/Core/src/usbd_req.c ****   */
 818:../Libraries/STM32_USB_Device_Library/Core/src/usbd_req.c **** void USBD_GetString(uint8_t *desc, uint8_t *unicode, uint16_t *len)
 819:../Libraries/STM32_USB_Device_Library/Core/src/usbd_req.c **** {
 1438              		.loc 1 819 1 is_stmt 1 view -0
 1439              		.cfi_startproc
 1440              		@ args = 0, pretend = 0, frame = 0
 1441              		@ frame_needed = 0, uses_anonymous_args = 0
 1442              		@ link register save eliminated.
 820:../Libraries/STM32_USB_Device_Library/Core/src/usbd_req.c ****   uint8_t idx = 0;
 1443              		.loc 1 820 3 view .LVU382
 821:../Libraries/STM32_USB_Device_Library/Core/src/usbd_req.c ****   
 822:../Libraries/STM32_USB_Device_Library/Core/src/usbd_req.c ****   if (desc != NULL) 
 1444              		.loc 1 822 3 view .LVU383
ARM GAS  C:\Users\admin\AppData\Local\Temp\cclOLSai.s 			page 47


 1445              	@ ../Libraries/STM32_USB_Device_Library/Core/src/usbd_req.c:822:   if (desc != NULL) 
 1446              		.loc 1 822 6 is_stmt 0 view .LVU384
 1447 0000 18B3     		cbz	r0, .L138	@ desc,
 1448              	.LVL132:
 1449              	.LBB82:
 1450              	.LBB83:
 823:../Libraries/STM32_USB_Device_Library/Core/src/usbd_req.c ****   {
 824:../Libraries/STM32_USB_Device_Library/Core/src/usbd_req.c ****     *len =  USBD_GetLen(desc) * 2 + 2;    
 825:../Libraries/STM32_USB_Device_Library/Core/src/usbd_req.c ****     unicode[idx++] = *len;
 826:../Libraries/STM32_USB_Device_Library/Core/src/usbd_req.c ****     unicode[idx++] =  USB_DESC_TYPE_STRING;
 827:../Libraries/STM32_USB_Device_Library/Core/src/usbd_req.c ****     
 828:../Libraries/STM32_USB_Device_Library/Core/src/usbd_req.c ****     while (*desc != NULL) 
 829:../Libraries/STM32_USB_Device_Library/Core/src/usbd_req.c ****     {
 830:../Libraries/STM32_USB_Device_Library/Core/src/usbd_req.c ****       unicode[idx++] = *desc++;
 831:../Libraries/STM32_USB_Device_Library/Core/src/usbd_req.c ****       unicode[idx++] =  0x00;
 832:../Libraries/STM32_USB_Device_Library/Core/src/usbd_req.c ****     }
 833:../Libraries/STM32_USB_Device_Library/Core/src/usbd_req.c ****   } 
 834:../Libraries/STM32_USB_Device_Library/Core/src/usbd_req.c **** }
 835:../Libraries/STM32_USB_Device_Library/Core/src/usbd_req.c **** 
 836:../Libraries/STM32_USB_Device_Library/Core/src/usbd_req.c **** /**
 837:../Libraries/STM32_USB_Device_Library/Core/src/usbd_req.c ****   * @brief  USBD_GetLen
 838:../Libraries/STM32_USB_Device_Library/Core/src/usbd_req.c ****   *         return the string length
 839:../Libraries/STM32_USB_Device_Library/Core/src/usbd_req.c ****    * @param  buf : pointer to the ascii string buffer
 840:../Libraries/STM32_USB_Device_Library/Core/src/usbd_req.c ****   * @retval string length
 841:../Libraries/STM32_USB_Device_Library/Core/src/usbd_req.c ****   */
 842:../Libraries/STM32_USB_Device_Library/Core/src/usbd_req.c **** static uint8_t USBD_GetLen(uint8_t *buf)
 843:../Libraries/STM32_USB_Device_Library/Core/src/usbd_req.c **** {
 844:../Libraries/STM32_USB_Device_Library/Core/src/usbd_req.c ****     uint8_t  len = 0;
 845:../Libraries/STM32_USB_Device_Library/Core/src/usbd_req.c **** 
 846:../Libraries/STM32_USB_Device_Library/Core/src/usbd_req.c ****     while (*buf != NULL) 
 1451              		.loc 1 846 11 is_stmt 1 view .LVU385
 1452 0002 0378     		ldrb	r3, [r0]	@ zero_extendqisi2	@ *desc_16(D), *desc_16(D)
 1453              	.LBE83:
 1454              	.LBE82:
 1455              	@ ../Libraries/STM32_USB_Device_Library/Core/src/usbd_req.c:819: {
 819:../Libraries/STM32_USB_Device_Library/Core/src/usbd_req.c ****   uint8_t idx = 0;
 1456              		.loc 1 819 1 is_stmt 0 view .LVU386
 1457 0004 30B4     		push	{r4, r5}	@
 1458              		.cfi_def_cfa_offset 8
 1459              		.cfi_offset 4, -8
 1460              		.cfi_offset 5, -4
 1461              	.LBB87:
 1462              	.LBB84:
 1463              	@ ../Libraries/STM32_USB_Device_Library/Core/src/usbd_req.c:846:     while (*buf != NULL) 
 1464              		.loc 1 846 11 view .LVU387
 1465 0006 0BB3     		cbz	r3, .L131	@ *desc_16(D),
 1466 0008 0446     		mov	r4, r0	@ buf, desc
 1467 000a C0F1010C 		rsb	ip, r0, #1	@ tmp156, desc,
 1468              	.LVL133:
 1469              	.L128:
 847:../Libraries/STM32_USB_Device_Library/Core/src/usbd_req.c ****     {
 848:../Libraries/STM32_USB_Device_Library/Core/src/usbd_req.c ****         len++;
 1470              		.loc 1 848 9 is_stmt 1 view .LVU388
 1471 000e 04EB0C03 		add	r3, r4, ip	@ tmp142, buf, tmp156
 1472              	@ ../Libraries/STM32_USB_Device_Library/Core/src/usbd_req.c:846:     while (*buf != NULL) 
 846:../Libraries/STM32_USB_Device_Library/Core/src/usbd_req.c ****     {
 1473              		.loc 1 846 11 is_stmt 0 view .LVU389
ARM GAS  C:\Users\admin\AppData\Local\Temp\cclOLSai.s 			page 48


 1474 0012 14F8015F 		ldrb	r5, [r4, #1]!	@ zero_extendqisi2	@ MEM[base: buf_31, offset: 0B], MEM[base: buf_31, offset: 0
 1475              	.LVL134:
 846:../Libraries/STM32_USB_Device_Library/Core/src/usbd_req.c ****     {
 1476              		.loc 1 846 11 view .LVU390
 1477 0016 DBB2     		uxtb	r3, r3	@ _33, tmp142
 1478              	.LVL135:
 849:../Libraries/STM32_USB_Device_Library/Core/src/usbd_req.c ****         buf++;
 1479              		.loc 1 849 9 is_stmt 1 view .LVU391
 846:../Libraries/STM32_USB_Device_Library/Core/src/usbd_req.c ****     {
 1480              		.loc 1 846 11 view .LVU392
 1481 0018 002D     		cmp	r5, #0	@ MEM[base: buf_31, offset: 0B]
 1482 001a F8D1     		bne	.L128	@
 1483              	.LBE84:
 1484              	.LBE87:
 1485              	@ ../Libraries/STM32_USB_Device_Library/Core/src/usbd_req.c:824:     *len =  USBD_GetLen(desc) * 2 
 824:../Libraries/STM32_USB_Device_Library/Core/src/usbd_req.c ****     unicode[idx++] = *len;
 1486              		.loc 1 824 35 is_stmt 0 view .LVU393
 1487 001c 0133     		adds	r3, r3, #1	@ tmp144, _33,
 1488              	.LVL136:
 1489              	@ ../Libraries/STM32_USB_Device_Library/Core/src/usbd_req.c:824:     *len =  USBD_GetLen(desc) * 2 
 824:../Libraries/STM32_USB_Device_Library/Core/src/usbd_req.c ****     unicode[idx++] = *len;
 1490              		.loc 1 824 10 view .LVU394
 1491 001e 5B00     		lsls	r3, r3, #1	@ _56, tmp144,
 1492              	.LVL137:
 1493              	@ ../Libraries/STM32_USB_Device_Library/Core/src/usbd_req.c:825:     unicode[idx++] = *len;
 825:../Libraries/STM32_USB_Device_Library/Core/src/usbd_req.c ****     unicode[idx++] =  USB_DESC_TYPE_STRING;
 1494              		.loc 1 825 20 view .LVU395
 1495 0020 DCB2     		uxtb	r4, r3	@ _58, _56
 1496              	.LVL138:
 1497              	.L127:
 1498              	.LBB88:
 1499              	.LBB85:
 850:../Libraries/STM32_USB_Device_Library/Core/src/usbd_req.c ****     }
 851:../Libraries/STM32_USB_Device_Library/Core/src/usbd_req.c **** 
 852:../Libraries/STM32_USB_Device_Library/Core/src/usbd_req.c ****     return len;
 1500              		.loc 1 852 5 is_stmt 1 view .LVU396
 1501              	.LBE85:
 1502              	.LBE88:
 1503              	@ ../Libraries/STM32_USB_Device_Library/Core/src/usbd_req.c:824:     *len =  USBD_GetLen(desc) * 2 
 824:../Libraries/STM32_USB_Device_Library/Core/src/usbd_req.c ****     unicode[idx++] = *len;
 1504              		.loc 1 824 10 is_stmt 0 view .LVU397
 1505 0022 1380     		strh	r3, [r2]	@ movhi	@ _56, *len_19(D)
 825:../Libraries/STM32_USB_Device_Library/Core/src/usbd_req.c ****     unicode[idx++] =  USB_DESC_TYPE_STRING;
 1506              		.loc 1 825 5 is_stmt 1 view .LVU398
 1507              	.LVL139:
 1508              	@ ../Libraries/STM32_USB_Device_Library/Core/src/usbd_req.c:826:     unicode[idx++] =  USB_DESC_TYP
 826:../Libraries/STM32_USB_Device_Library/Core/src/usbd_req.c ****     
 1509              		.loc 1 826 20 is_stmt 0 view .LVU399
 1510 0024 0323     		movs	r3, #3	@ tmp149,
 1511              	@ ../Libraries/STM32_USB_Device_Library/Core/src/usbd_req.c:825:     unicode[idx++] = *len;
 825:../Libraries/STM32_USB_Device_Library/Core/src/usbd_req.c ****     unicode[idx++] =  USB_DESC_TYPE_STRING;
 1512              		.loc 1 825 20 view .LVU400
 1513 0026 0C70     		strb	r4, [r1]	@ _58, *unicode_21(D)
 826:../Libraries/STM32_USB_Device_Library/Core/src/usbd_req.c ****     
 1514              		.loc 1 826 5 is_stmt 1 view .LVU401
 1515              	.LVL140:
 1516              	@ ../Libraries/STM32_USB_Device_Library/Core/src/usbd_req.c:826:     unicode[idx++] =  USB_DESC_TYP
ARM GAS  C:\Users\admin\AppData\Local\Temp\cclOLSai.s 			page 49


 826:../Libraries/STM32_USB_Device_Library/Core/src/usbd_req.c ****     
 1517              		.loc 1 826 20 is_stmt 0 view .LVU402
 1518 0028 4B70     		strb	r3, [r1, #1]	@ tmp149, MEM[(uint8_t *)unicode_21(D) + 1B]
 828:../Libraries/STM32_USB_Device_Library/Core/src/usbd_req.c ****     {
 1519              		.loc 1 828 5 is_stmt 1 view .LVU403
 828:../Libraries/STM32_USB_Device_Library/Core/src/usbd_req.c ****     {
 1520              		.loc 1 828 11 view .LVU404
 1521              	@ ../Libraries/STM32_USB_Device_Library/Core/src/usbd_req.c:828:     while (*desc != NULL) 
 828:../Libraries/STM32_USB_Device_Library/Core/src/usbd_req.c ****     {
 1522              		.loc 1 828 12 is_stmt 0 view .LVU405
 1523 002a 0478     		ldrb	r4, [r0]	@ zero_extendqisi2	@ _11, *desc_16(D)
 1524              	@ ../Libraries/STM32_USB_Device_Library/Core/src/usbd_req.c:828:     while (*desc != NULL) 
 828:../Libraries/STM32_USB_Device_Library/Core/src/usbd_req.c ****     {
 1525              		.loc 1 828 11 view .LVU406
 1526 002c 5CB1     		cbz	r4, .L125	@ _11,
 1527              	@ ../Libraries/STM32_USB_Device_Library/Core/src/usbd_req.c:826:     unicode[idx++] =  USB_DESC_TYP
 826:../Libraries/STM32_USB_Device_Library/Core/src/usbd_req.c ****     
 1528              		.loc 1 826 16 view .LVU407
 1529 002e 0223     		movs	r3, #2	@ idx,
 1530              	@ ../Libraries/STM32_USB_Device_Library/Core/src/usbd_req.c:831:       unicode[idx++] =  0x00;
 831:../Libraries/STM32_USB_Device_Library/Core/src/usbd_req.c ****     }
 1531              		.loc 1 831 22 view .LVU408
 1532 0030 0025     		movs	r5, #0	@ tmp154,
 1533              	.LVL141:
 1534              	.L130:
 830:../Libraries/STM32_USB_Device_Library/Core/src/usbd_req.c ****       unicode[idx++] =  0x00;
 1535              		.loc 1 830 7 is_stmt 1 view .LVU409
 1536              	@ ../Libraries/STM32_USB_Device_Library/Core/src/usbd_req.c:830:       unicode[idx++] = *desc++;
 830:../Libraries/STM32_USB_Device_Library/Core/src/usbd_req.c ****       unicode[idx++] =  0x00;
 1537              		.loc 1 830 18 is_stmt 0 view .LVU410
 1538 0032 5A1C     		adds	r2, r3, #1	@ tmp151, idx,
 1539 0034 D2B2     		uxtb	r2, r2	@ idx, tmp151
 1540              	.LVL142:
 1541              	@ ../Libraries/STM32_USB_Device_Library/Core/src/usbd_req.c:830:       unicode[idx++] = *desc++;
 830:../Libraries/STM32_USB_Device_Library/Core/src/usbd_req.c ****       unicode[idx++] =  0x00;
 1542              		.loc 1 830 22 view .LVU411
 1543 0036 CC54     		strb	r4, [r1, r3]	@ _11, *_8
 831:../Libraries/STM32_USB_Device_Library/Core/src/usbd_req.c ****     }
 1544              		.loc 1 831 7 is_stmt 1 view .LVU412
 1545              	@ ../Libraries/STM32_USB_Device_Library/Core/src/usbd_req.c:831:       unicode[idx++] =  0x00;
 831:../Libraries/STM32_USB_Device_Library/Core/src/usbd_req.c ****     }
 1546              		.loc 1 831 22 is_stmt 0 view .LVU413
 1547 0038 8D54     		strb	r5, [r1, r2]	@ tmp154, *_10
 1548              	@ ../Libraries/STM32_USB_Device_Library/Core/src/usbd_req.c:828:     while (*desc != NULL) 
 828:../Libraries/STM32_USB_Device_Library/Core/src/usbd_req.c ****     {
 1549              		.loc 1 828 12 view .LVU414
 1550 003a 10F8014F 		ldrb	r4, [r0, #1]!	@ zero_extendqisi2	@ _11, MEM[base: _47, offset: 0B]
 1551              	.LVL143:
 1552              	@ ../Libraries/STM32_USB_Device_Library/Core/src/usbd_req.c:831:       unicode[idx++] =  0x00;
 831:../Libraries/STM32_USB_Device_Library/Core/src/usbd_req.c ****     }
 1553              		.loc 1 831 18 view .LVU415
 1554 003e 0233     		adds	r3, r3, #2	@ tmp153, idx,
 1555 0040 DBB2     		uxtb	r3, r3	@ idx, tmp153
 1556              	.LVL144:
 828:../Libraries/STM32_USB_Device_Library/Core/src/usbd_req.c ****     {
 1557              		.loc 1 828 11 is_stmt 1 view .LVU416
 1558 0042 002C     		cmp	r4, #0	@ _11
ARM GAS  C:\Users\admin\AppData\Local\Temp\cclOLSai.s 			page 50


 1559 0044 F5D1     		bne	.L130	@
 1560              	.LVL145:
 1561              	.L125:
 1562              	@ ../Libraries/STM32_USB_Device_Library/Core/src/usbd_req.c:834: }
 834:../Libraries/STM32_USB_Device_Library/Core/src/usbd_req.c **** 
 1563              		.loc 1 834 1 is_stmt 0 view .LVU417
 1564 0046 30BC     		pop	{r4, r5}	@
 1565              		.cfi_restore 5
 1566              		.cfi_restore 4
 1567              		.cfi_def_cfa_offset 0
 1568 0048 7047     		bx	lr	@
 1569              	.LVL146:
 1570              	.L138:
 834:../Libraries/STM32_USB_Device_Library/Core/src/usbd_req.c **** 
 1571              		.loc 1 834 1 view .LVU418
 1572 004a 7047     		bx	lr	@
 1573              	.LVL147:
 1574              	.L131:
 1575              		.cfi_def_cfa_offset 8
 1576              		.cfi_offset 4, -8
 1577              		.cfi_offset 5, -4
 1578              	.LBB89:
 1579              	.LBB86:
 1580              	@ ../Libraries/STM32_USB_Device_Library/Core/src/usbd_req.c:846:     while (*buf != NULL) 
 846:../Libraries/STM32_USB_Device_Library/Core/src/usbd_req.c ****     {
 1581              		.loc 1 846 11 view .LVU419
 1582 004c 0224     		movs	r4, #2	@ _58,
 1583 004e 2346     		mov	r3, r4	@ _56, _58
 1584 0050 E7E7     		b	.L127		@
 1585              	.LBE86:
 1586              	.LBE89:
 1587              		.cfi_endproc
 1588              	.LFE122:
 1589              		.size	USBD_GetString, .-USBD_GetString
 1590              		.global	USBD_StrDesc
 1591              		.global	USBD_cfg_status
 1592              		.global	USBD_default_cfg
 1593              		.global	USBD_ep_status
 1594 0052 00BF     		.section	.bss.USBD_StrDesc,"aw",%nobits
 1595              		.align	2
 1596              		.type	USBD_StrDesc, %object
 1597              		.size	USBD_StrDesc, 200
 1598              	USBD_StrDesc:
 1599 0000 00000000 		.space	200
 1599      00000000 
 1599      00000000 
 1599      00000000 
 1599      00000000 
 1600              		.section	.bss.USBD_cfg_status,"aw",%nobits
 1601              		.align	2
 1602              		.set	.LANCHOR2,. + 0
 1603              		.type	USBD_cfg_status, %object
 1604              		.size	USBD_cfg_status, 4
 1605              	USBD_cfg_status:
 1606 0000 00000000 		.space	4
 1607              		.section	.bss.USBD_default_cfg,"aw",%nobits
 1608              		.align	2
ARM GAS  C:\Users\admin\AppData\Local\Temp\cclOLSai.s 			page 51


 1609              		.set	.LANCHOR1,. + 0
 1610              		.type	USBD_default_cfg, %object
 1611              		.size	USBD_default_cfg, 4
 1612              	USBD_default_cfg:
 1613 0000 00000000 		.space	4
 1614              		.section	.bss.USBD_ep_status,"aw",%nobits
 1615              		.align	2
 1616              		.set	.LANCHOR3,. + 0
 1617              		.type	USBD_ep_status, %object
 1618              		.size	USBD_ep_status, 4
 1619              	USBD_ep_status:
 1620 0000 00000000 		.space	4
 1621              		.section	.bss.cfgidx.0,"aw",%nobits
 1622              		.set	.LANCHOR0,. + 0
 1623              		.type	cfgidx.0, %object
 1624              		.size	cfgidx.0, 1
 1625              	cfgidx.0:
 1626 0000 00       		.space	1
 1627              		.text
 1628              	.Letext0:
 1629              		.file 2 "c:\\program files (x86)\\gnu arm embedded toolchain\\10 2021.10\\arm-none-eabi\\include\\
 1630              		.file 3 "c:\\program files (x86)\\gnu arm embedded toolchain\\10 2021.10\\arm-none-eabi\\include\\
 1631              		.file 4 "../Libraries/STM32_USB_OTG_Driver/inc/usb_regs.h"
 1632              		.file 5 "../Libraries/STM32_USB_OTG_Driver/inc/usb_core.h"
 1633              		.file 6 "../Libraries/STM32_USB_Device_Library/Core/inc/usbd_core.h"
 1634              		.file 7 "./usbd_desc.h"
 1635              		.file 8 "../Libraries/STM32_USB_OTG_Driver/inc/usb_dcd.h"
 1636              		.file 9 "../Libraries/STM32_USB_Device_Library/Core/inc/usbd_ioreq.h"