ARM GAS  C:\Users\admin\AppData\Local\Temp\cccr0VhR.s 			page 1


   1              		.cpu cortex-m4
   2              		.arch armv7e-m
   3              		.fpu fpv4-sp-d16
   4              		.eabi_attribute 27, 1	@ Tag_ABI_HardFP_use
   5              		.eabi_attribute 28, 1	@ Tag_ABI_VFP_args
   6              		.eabi_attribute 23, 1	@ Tag_ABI_FP_number_model
   7              		.eabi_attribute 24, 1	@ Tag_ABI_align8_needed
   8              		.eabi_attribute 25, 1	@ Tag_ABI_align8_preserved
   9              		.eabi_attribute 26, 1	@ Tag_ABI_enum_size
  10              		.eabi_attribute 30, 2	@ Tag_ABI_optimization_goals
  11              		.eabi_attribute 34, 1	@ Tag_CPU_unaligned_access
  12              		.eabi_attribute 18, 4	@ Tag_ABI_PCS_wchar_t
  13              		.file	"waverecorder.c"
  14              	@ GNU C89 (GNU Arm Embedded Toolchain 10.3-2021.10) version 10.3.1 20210824 (release) (arm-none-eab
  15              	@	compiled by GNU C version 7.3-win32 20180312, GMP version 6.1.0, MPFR version 3.1.4, MPC version 
  16              	
  17              	@ GGC heuristics: --param ggc-min-expand=100 --param ggc-min-heapsize=131072
  18              	@ options passed:  -I . -I . -I ../Utilities/STM32F4-Discovery/
  19              	@ -I ../Libraries/STM32_USB_Device_Library/Class/audio/inc/
  20              	@ -I ../Libraries/STM32_USB_Device_Library/Core/inc/
  21              	@ -I ../Libraries/STM32_USB_OTG_Driver/inc/
  22              	@ -I ../Utilities/STM32F4-Discovery/
  23              	@ -I ../Libraries/STM32F4xx_StdPeriph_Driver/inc/
  24              	@ -I ../Utilities/STM32F4-Discovery/
  25              	@ -I ../Libraries/CMSIS/ST/STM32F4xx/Include/
  26              	@ -I ../Libraries/CMSIS/Include/ -imultilib thumb/v7e-m+fp/hard
  27              	@ -iprefix c:\program files (x86)\gnu arm embedded toolchain\10 2021.10\bin\../lib/gcc/arm-none-eab
  28              	@ -isysroot c:\program files (x86)\gnu arm embedded toolchain\10 2021.10\bin\../arm-none-eabi
  29              	@ -MD out/waverecorder.d -MF out/waverecorder.d -MP -MQ out/waverecorder.o
  30              	@ -D__USES_INITFINI__ -D STM32F4XX -D __VFP_FP__ -D USE_USB_OTG_FS
  31              	@ waverecorder.c -mcpu=cortex-m4 -mthumb -mfloat-abi=hard -mfpu=fpv4-sp-d16
  32              	@ -mlibarch=armv7e-m+fp -march=armv7e-m+fp
  33              	@ -auxbase-strip out/waverecorder.o -g -ggdb3 -O3 -Wall -Wstrict-prototypes
  34              	@ -Wextra -std=gnu90 -ffast-math -ffunction-sections -fdata-sections
  35              	@ -fverbose-asm
  36              	@ options enabled:  -faggressive-loop-optimizations -falign-functions
  37              	@ -falign-jumps -falign-labels -falign-loops -fallocation-dce
  38              	@ -fassociative-math -fauto-inc-dec -fbranch-count-reg -fcaller-saves
  39              	@ -fcombine-stack-adjustments -fcompare-elim -fcprop-registers
  40              	@ -fcrossjumping -fcse-follow-jumps -fcx-limited-range -fdata-sections
  41              	@ -fdefer-pop -fdelete-null-pointer-checks -fdevirtualize
  42              	@ -fdevirtualize-speculatively -fdwarf2-cfi-asm -fearly-inlining
  43              	@ -feliminate-unused-debug-symbols -feliminate-unused-debug-types
  44              	@ -fexpensive-optimizations -ffinite-math-only -fforward-propagate
  45              	@ -ffp-int-builtin-inexact -ffunction-cse -ffunction-sections -fgcse
  46              	@ -fgcse-after-reload -fgcse-lm -fgnu-unique -fguess-branch-probability
  47              	@ -fhoist-adjacent-loads -fident -fif-conversion -fif-conversion2
  48              	@ -findirect-inlining -finline -finline-atomics -finline-functions
  49              	@ -finline-functions-called-once -finline-small-functions -fipa-bit-cp
  50              	@ -fipa-cp -fipa-cp-clone -fipa-icf -fipa-icf-functions -fipa-icf-variables
  51              	@ -fipa-profile -fipa-pure-const -fipa-ra -fipa-reference
  52              	@ -fipa-reference-addressable -fipa-sra -fipa-stack-alignment -fipa-vrp
  53              	@ -fira-hoist-pressure -fira-share-save-slots -fira-share-spill-slots
  54              	@ -fisolate-erroneous-paths-dereference -fivopts -fkeep-static-consts
  55              	@ -fleading-underscore -flifetime-dse -floop-interchange
  56              	@ -floop-unroll-and-jam -flra-remat -fmerge-constants -fmerge-debug-strings
  57              	@ -fmove-loop-invariants -fomit-frame-pointer -foptimize-sibling-calls
ARM GAS  C:\Users\admin\AppData\Local\Temp\cccr0VhR.s 			page 2


  58              	@ -foptimize-strlen -fpartial-inlining -fpeel-loops -fpeephole -fpeephole2
  59              	@ -fplt -fpredictive-commoning -fprefetch-loop-arrays -freciprocal-math
  60              	@ -freg-struct-return -freorder-blocks -freorder-functions
  61              	@ -frerun-cse-after-loop -fsched-critical-path-heuristic
  62              	@ -fsched-dep-count-heuristic -fsched-group-heuristic -fsched-interblock
  63              	@ -fsched-last-insn-heuristic -fsched-pressure -fsched-rank-heuristic
  64              	@ -fsched-spec -fsched-spec-insn-heuristic -fsched-stalled-insns-dep
  65              	@ -fschedule-insns -fschedule-insns2 -fsection-anchors
  66              	@ -fsemantic-interposition -fshow-column -fshrink-wrap
  67              	@ -fshrink-wrap-separate -fsplit-ivs-in-unroller -fsplit-loops
  68              	@ -fsplit-paths -fsplit-wide-types -fssa-backprop -fssa-phiopt -fstdarg-opt
  69              	@ -fstore-merging -fstrict-aliasing -fstrict-volatile-bitfields
  70              	@ -fsync-libcalls -fthread-jumps -ftoplevel-reorder -ftree-bit-ccp
  71              	@ -ftree-builtin-call-dce -ftree-ccp -ftree-ch -ftree-coalesce-vars
  72              	@ -ftree-copy-prop -ftree-cselim -ftree-dce -ftree-dominator-opts
  73              	@ -ftree-dse -ftree-forwprop -ftree-fre -ftree-loop-distribute-patterns
  74              	@ -ftree-loop-distribution -ftree-loop-if-convert -ftree-loop-im
  75              	@ -ftree-loop-ivcanon -ftree-loop-optimize -ftree-loop-vectorize
  76              	@ -ftree-parallelize-loops= -ftree-partial-pre -ftree-phiprop -ftree-pre
  77              	@ -ftree-pta -ftree-reassoc -ftree-scev-cprop -ftree-sink
  78              	@ -ftree-slp-vectorize -ftree-slsr -ftree-sra -ftree-switch-conversion
  79              	@ -ftree-tail-merge -ftree-ter -ftree-vrp -funit-at-a-time
  80              	@ -funsafe-math-optimizations -funswitch-loops -fvar-tracking
  81              	@ -fvar-tracking-assignments -fverbose-asm -fversion-loops-for-strides
  82              	@ -fzero-initialized-in-bss -masm-syntax-unified -mbe32 -mlittle-endian
  83              	@ -mpic-data-is-text-relative -msched-prolog -mthumb -munaligned-access
  84              	@ -mvectorize-with-neon-quad
  85              	
  86              		.text
  87              	.Ltext0:
  88              		.cfi_sections	.debug_frame
  89              		.section	.text.WaveRecorderInit.part.0,"ax",%progbits
  90              		.align	1
  91              		.p2align 2,,3
  92              		.syntax unified
  93              		.thumb
  94              		.thumb_func
  95              		.type	WaveRecorderInit.part.0, %function
  96              	WaveRecorderInit.part.0:
  97              	.LVL0:
  98              	.LFB121:
  99              		.file 1 "waverecorder.c"
   1:waverecorder.c **** /* Includes ------------------------------------------------------------------*/
   2:waverecorder.c **** #include "main.h"
   3:waverecorder.c **** #include "pdm_filter.h"
   4:waverecorder.c **** #include "waverecorder.h" 
   5:waverecorder.c **** #include "stm32f4xx_dma.h"
   6:waverecorder.c **** #include "stm32f4xx_spi.h"
   7:waverecorder.c **** 
   8:waverecorder.c **** /* Private typedef -----------------------------------------------------------*/
   9:waverecorder.c **** /* Private define ------------------------------------------------------------*/
  10:waverecorder.c **** #define SPI2_DR_ADRESS 0x4000380C
  11:waverecorder.c **** 
  12:waverecorder.c **** /* Private macro -------------------------------------------------------------*/
  13:waverecorder.c **** /* Private variables ---------------------------------------------------------*/
  14:waverecorder.c **** 
  15:waverecorder.c **** 
ARM GAS  C:\Users\admin\AppData\Local\Temp\cccr0VhR.s 			page 3


  16:waverecorder.c **** /* Current state of the audio recorder interface intialization */
  17:waverecorder.c **** static uint32_t AudioRecInited = 0;
  18:waverecorder.c **** PDMFilter_InitStruct Filter;
  19:waverecorder.c **** 
  20:waverecorder.c **** int16_t RecBuf0[MIC_FILTER_RESULT_LENGTH]; //buffer for filtered PCM data from MIC
  21:waverecorder.c **** int16_t RecBuf1[MIC_FILTER_RESULT_LENGTH]; //buffer for filtered PCM data from MIC
  22:waverecorder.c **** uint8_t buffer_ready = 1;//number of buffer with fitered PCM data
  23:waverecorder.c **** 
  24:waverecorder.c **** volatile uint16_t Mic_DMA_PDM_Buffer0[INTERNAL_BUFF_SIZE];//buffer for RAW MIC data (filled by DMA)
  25:waverecorder.c **** volatile uint16_t Mic_DMA_PDM_Buffer1[INTERNAL_BUFF_SIZE];//buffer for RAW MIC data (filled by DMA)
  26:waverecorder.c **** 
  27:waverecorder.c **** 
  28:waverecorder.c **** /* Private function prototypes -----------------------------------------------*/
  29:waverecorder.c **** /* Private functions ---------------------------------------------------------*/
  30:waverecorder.c **** 
  31:waverecorder.c **** 
  32:waverecorder.c **** void DMA1_Stream3_IRQHandler(void)
  33:waverecorder.c **** {
  34:waverecorder.c ****   static uint16_t Mic_PDM_Buffer[INTERNAL_BUFF_SIZE];//tmp buffer for HTONS
  35:waverecorder.c ****   uint8_t i;
  36:waverecorder.c ****   uint16_t* write_buf;//pointer for RAW data which must be filtered
  37:waverecorder.c ****   uint16_t* decode_buf;//pointer for filtered PCM data
  38:waverecorder.c ****   u16 MicGain = 30;//<<<<<<<<<<<<<<<<<<<<<<<<<<<<<<<<<<<<<<<<<<<<<<<<<<<<<<<<<<< GAIN
  39:waverecorder.c ****   uint8_t tmp_buf_number;
  40:waverecorder.c ****   
  41:waverecorder.c ****   STM_EVAL_LEDOn(LED3);
  42:waverecorder.c ****   if (DMA_GetFlagStatus(DMA1_Stream3, DMA_FLAG_TCIF3) != RESET)
  43:waverecorder.c ****   {
  44:waverecorder.c ****     DMA_ClearFlag(DMA1_Stream3, DMA_FLAG_TCIF3);
  45:waverecorder.c ****     
  46:waverecorder.c ****     if ((DMA1_Stream3->CR & DMA_SxCR_CT) == 0)//get number of current buffer
  47:waverecorder.c ****     {
  48:waverecorder.c ****       write_buf = (uint16_t*)Mic_DMA_PDM_Buffer1;
  49:waverecorder.c ****       decode_buf = (uint16_t*)RecBuf1;
  50:waverecorder.c ****       tmp_buf_number = 1;
  51:waverecorder.c ****     }
  52:waverecorder.c ****     else
  53:waverecorder.c ****     {
  54:waverecorder.c ****       write_buf = (uint16_t*)Mic_DMA_PDM_Buffer0;
  55:waverecorder.c ****       decode_buf = (uint16_t*)RecBuf0;
  56:waverecorder.c ****       tmp_buf_number = 0;
  57:waverecorder.c ****     }
  58:waverecorder.c ****     for (i=0;i<INTERNAL_BUFF_SIZE;i++){Mic_PDM_Buffer[i] = HTONS(write_buf[i]);}//swap bytes for fi
  59:waverecorder.c ****     
  60:waverecorder.c ****     PDM_Filter_64_LSB((uint8_t *)Mic_PDM_Buffer, decode_buf, MicGain , (PDMFilter_InitStruct *)&Fil
  61:waverecorder.c **** 
  62:waverecorder.c ****     //for(i=0;i<MIC_FILTER_RESULT_LENGTH;i++)decode_buf[i]=255;
  63:waverecorder.c ****     
  64:waverecorder.c ****     buffer_ready = tmp_buf_number;
  65:waverecorder.c ****   }
  66:waverecorder.c ****   STM_EVAL_LEDOff(LED3);
  67:waverecorder.c **** }
  68:waverecorder.c **** 
  69:waverecorder.c **** 
  70:waverecorder.c **** 
  71:waverecorder.c **** 
  72:waverecorder.c **** 
ARM GAS  C:\Users\admin\AppData\Local\Temp\cccr0VhR.s 			page 4


  73:waverecorder.c **** void simple_rec_start(void)
  74:waverecorder.c **** {
  75:waverecorder.c ****   WaveRecorderInit(64000, 16, 1);//64k = 16k*4 //4 = 64word / 16word
  76:waverecorder.c ****   WaveRecorderStart(NULL, MIC_FILTER_RESULT_LENGTH);
  77:waverecorder.c **** }
  78:waverecorder.c **** 
  79:waverecorder.c **** /**
  80:waverecorder.c ****   * @brief  Initialize wave recording
  81:waverecorder.c ****   * @param  AudioFreq: Sampling frequency
  82:waverecorder.c ****   *         BitRes: Audio recording Samples format (from 8 to 16 bits)
  83:waverecorder.c ****   *         ChnlNbr: Number of input microphone channel
  84:waverecorder.c ****   * @retval None
  85:waverecorder.c ****   */
  86:waverecorder.c **** uint32_t WaveRecorderInit(uint32_t AudioFreq, uint32_t BitRes, uint32_t ChnlNbr)
 100              		.loc 1 86 10 view -0
 101              		.cfi_startproc
 102              		@ args = 0, pretend = 0, frame = 72
 103              		@ frame_needed = 0, uses_anonymous_args = 0
  87:waverecorder.c **** { 
  88:waverecorder.c ****   /* Check if the interface is already initialized */
  89:waverecorder.c ****   if (AudioRecInited)
  90:waverecorder.c ****   {
  91:waverecorder.c ****     /* No need for initialization */
  92:waverecorder.c ****     return 0;
  93:waverecorder.c ****   }
  94:waverecorder.c ****   else
  95:waverecorder.c ****   {
  96:waverecorder.c ****     /* Enable CRC module */
  97:waverecorder.c ****     RCC->AHB1ENR |= RCC_AHB1ENR_CRCEN;
 104              		.loc 1 97 5 view .LVU1
 105              	@ waverecorder.c:97:     RCC->AHB1ENR |= RCC_AHB1ENR_CRCEN;
 106              		.loc 1 97 18 is_stmt 0 view .LVU2
 107 0000 5549     		ldr	r1, .L4+8	@ tmp119,
 108              	@ waverecorder.c:100:     Filter.LP_HZ = 8000.0;
  98:waverecorder.c ****     
  99:waverecorder.c ****     /* Filter LP & HP Init */
 100:waverecorder.c ****     Filter.LP_HZ = 8000.0;
 109              		.loc 1 100 18 view .LVU3
 110 0002 564B     		ldr	r3, .L4+12	@ tmp121,
 111              	@ waverecorder.c:97:     RCC->AHB1ENR |= RCC_AHB1ENR_CRCEN;
  97:waverecorder.c ****     
 112              		.loc 1 97 18 view .LVU4
 113 0004 0A6B     		ldr	r2, [r1, #48]	@ _1, MEM[(struct RCC_TypeDef *)1073887232B].AHB1ENR
 114              	@ waverecorder.c:86: uint32_t WaveRecorderInit(uint32_t AudioFreq, uint32_t BitRes, uint32_t ChnlNb
  86:waverecorder.c **** { 
 115              		.loc 1 86 10 view .LVU5
 116 0006 F0B5     		push	{r4, r5, r6, r7, lr}	@
 117              		.cfi_def_cfa_offset 20
 118              		.cfi_offset 4, -20
 119              		.cfi_offset 5, -16
 120              		.cfi_offset 6, -12
 121              		.cfi_offset 7, -8
 122              		.cfi_offset 14, -4
 123              	@ waverecorder.c:97:     RCC->AHB1ENR |= RCC_AHB1ENR_CRCEN;
  97:waverecorder.c ****     
 124              		.loc 1 97 18 view .LVU6
 125 0008 42F48052 		orr	r2, r2, #4096	@ _2, _1,
ARM GAS  C:\Users\admin\AppData\Local\Temp\cccr0VhR.s 			page 5


 126 000c 0A63     		str	r2, [r1, #48]	@ _2, MEM[(struct RCC_TypeDef *)1073887232B].AHB1ENR
 127              		.loc 1 100 5 is_stmt 1 view .LVU7
 128              	@ waverecorder.c:101:     Filter.HP_HZ = 200.0;
 101:waverecorder.c ****     Filter.HP_HZ = 200.0;
 129              		.loc 1 101 18 is_stmt 0 view .LVU8
 130 000e 544A     		ldr	r2, .L4+16	@ tmp124,
 131 0010 9A60     		str	r2, [r3, #8]	@ float	@ tmp124, Filter.HP_HZ
 132              	@ waverecorder.c:105:     Filter.In_MicChannels = 1;
 102:waverecorder.c **** 
 103:waverecorder.c ****     Filter.Fs = 16000;
 104:waverecorder.c ****     Filter.Out_MicChannels = 1;
 105:waverecorder.c ****     Filter.In_MicChannels = 1;
 133              		.loc 1 105 27 view .LVU9
 134 0012 4FF00112 		mov	r2, #65537	@ tmp129,
 135              	@ waverecorder.c:86: uint32_t WaveRecorderInit(uint32_t AudioFreq, uint32_t BitRes, uint32_t ChnlNb
  86:waverecorder.c **** { 
 136              		.loc 1 86 10 view .LVU10
 137 0016 93B0     		sub	sp, sp, #76	@,,
 138              		.cfi_def_cfa_offset 96
 139              	@ waverecorder.c:105:     Filter.In_MicChannels = 1;
 140              		.loc 1 105 27 view .LVU11
 141 0018 DA60     		str	r2, [r3, #12]	@ tmp129, MEM <vector(2) short unsigned int> [(short unsigned int *)&Filter + 12
 142              	@ waverecorder.c:103:     Filter.Fs = 16000;
 103:waverecorder.c ****     Filter.Out_MicChannels = 1;
 143              		.loc 1 103 15 view .LVU12
 144 001a 4FF47A51 		mov	r1, #16000	@ tmp127,
 145              	@ waverecorder.c:100:     Filter.LP_HZ = 8000.0;
 100:waverecorder.c ****     Filter.HP_HZ = 200.0;
 146              		.loc 1 100 18 view .LVU13
 147 001e 514D     		ldr	r5, .L4+20	@ tmp122,
 148              	@ waverecorder.c:103:     Filter.Fs = 16000;
 103:waverecorder.c ****     Filter.Out_MicChannels = 1;
 149              		.loc 1 103 15 view .LVU14
 150 0020 1980     		strh	r1, [r3]	@ movhi	@ tmp127, Filter.Fs
 151              	@ waverecorder.c:86: uint32_t WaveRecorderInit(uint32_t AudioFreq, uint32_t BitRes, uint32_t ChnlNb
  86:waverecorder.c **** { 
 152              		.loc 1 86 10 view .LVU15
 153 0022 0446     		mov	r4, r0	@ tmp176, AudioFreq
 154              	@ waverecorder.c:107:     PDM_Filter_Init((PDMFilter_InitStruct *)&Filter);
 106:waverecorder.c ****     
 107:waverecorder.c ****     PDM_Filter_Init((PDMFilter_InitStruct *)&Filter);
 155              		.loc 1 107 5 view .LVU16
 156 0024 1846     		mov	r0, r3	@, tmp121
 157              	.LVL1:
 158              	@ waverecorder.c:100:     Filter.LP_HZ = 8000.0;
 100:waverecorder.c ****     Filter.HP_HZ = 200.0;
 159              		.loc 1 100 18 view .LVU17
 160 0026 5D60     		str	r5, [r3, #4]	@ float	@ tmp122, Filter.LP_HZ
 101:waverecorder.c **** 
 161              		.loc 1 101 5 is_stmt 1 view .LVU18
 103:waverecorder.c ****     Filter.Out_MicChannels = 1;
 162              		.loc 1 103 5 view .LVU19
 104:waverecorder.c ****     Filter.In_MicChannels = 1;
 163              		.loc 1 104 5 view .LVU20
 105:waverecorder.c ****     
 164              		.loc 1 105 5 view .LVU21
 165              		.loc 1 107 5 view .LVU22
ARM GAS  C:\Users\admin\AppData\Local\Temp\cccr0VhR.s 			page 6


 166 0028 FFF7FEFF 		bl	PDM_Filter_Init		@
 167              	.LVL2:
 108:waverecorder.c ****     
 109:waverecorder.c ****     NVIC_PriorityGroupConfig(NVIC_PriorityGroup_4);
 168              		.loc 1 109 5 view .LVU23
 169 002c 4FF44070 		mov	r0, #768	@,
 170 0030 FFF7FEFF 		bl	NVIC_PriorityGroupConfig		@
 171              	.LVL3:
 110:waverecorder.c **** 
 111:waverecorder.c ****     WaveRecorder_GPIO_Init();
 172              		.loc 1 111 5 view .LVU24
 173              	.LBB12:
 174              	.LBI12:
 112:waverecorder.c ****     WaveRecorder_SPI_Init(AudioFreq);
 113:waverecorder.c ****     WaveRecorder_DMA_Init();
 114:waverecorder.c ****     
 115:waverecorder.c ****     /* Set state of the audio recorder to initialized */
 116:waverecorder.c ****     AudioRecInited = 1;
 117:waverecorder.c ****     
 118:waverecorder.c ****     return 0;
 119:waverecorder.c ****   }  
 120:waverecorder.c **** }
 121:waverecorder.c **** 
 122:waverecorder.c **** /**
 123:waverecorder.c ****   * @brief  Start audio recording
 124:waverecorder.c ****   * @param  pbuf: pointer to a buffer
 125:waverecorder.c ****   *         size: Buffer size
 126:waverecorder.c ****   * @retval None
 127:waverecorder.c ****   */
 128:waverecorder.c **** uint8_t WaveRecorderStart(uint16_t* pbuf, uint32_t size)
 129:waverecorder.c **** {
 130:waverecorder.c **** /* Check if the interface has already been initialized */
 131:waverecorder.c ****   if (AudioRecInited)
 132:waverecorder.c ****   {
 133:waverecorder.c ****     /* The Data transfer is performed in the SPI interrupt routine */
 134:waverecorder.c ****     /* Enable the SPI peripheral */
 135:waverecorder.c ****     I2S_Cmd(SPI2, ENABLE); 
 136:waverecorder.c ****    
 137:waverecorder.c ****     return 0;
 138:waverecorder.c ****   }
 139:waverecorder.c ****   else
 140:waverecorder.c ****   {
 141:waverecorder.c ****     return 1; /* Cannot perform operation */
 142:waverecorder.c ****   }
 143:waverecorder.c **** }
 144:waverecorder.c **** 
 145:waverecorder.c **** 
 146:waverecorder.c **** 
 147:waverecorder.c **** static void WaveRecorder_DMA_Init(void)
 148:waverecorder.c **** {
 149:waverecorder.c ****   DMA_InitTypeDef DMA_InitStructure;
 150:waverecorder.c ****   NVIC_InitTypeDef NVIC_InitStructure;
 151:waverecorder.c ****   
 152:waverecorder.c ****   RCC_AHB1PeriphClockCmd(RCC_AHB1Periph_DMA1, ENABLE);
 153:waverecorder.c ****   DMA_Cmd(DMA1_Stream3, DISABLE);//stream3 - spi2_rx
 154:waverecorder.c ****   DMA_DeInit(DMA1_Stream3);
 155:waverecorder.c ****   
ARM GAS  C:\Users\admin\AppData\Local\Temp\cccr0VhR.s 			page 7


 156:waverecorder.c ****   DMA_InitStructure.DMA_Channel = DMA_Channel_0; //spi2_rx
 157:waverecorder.c ****   DMA_InitStructure.DMA_PeripheralBaseAddr = SPI2_DR_ADRESS;
 158:waverecorder.c ****   DMA_InitStructure.DMA_Memory0BaseAddr = (uint32_t)Mic_DMA_PDM_Buffer0;
 159:waverecorder.c ****   DMA_InitStructure.DMA_DIR = DMA_DIR_PeripheralToMemory;
 160:waverecorder.c ****   DMA_InitStructure.DMA_BufferSize = (uint32_t)INTERNAL_BUFF_SIZE;
 161:waverecorder.c ****   DMA_InitStructure.DMA_PeripheralInc = DMA_PeripheralInc_Disable;
 162:waverecorder.c ****   DMA_InitStructure.DMA_MemoryInc = DMA_MemoryInc_Enable;
 163:waverecorder.c ****   DMA_InitStructure.DMA_PeripheralDataSize = DMA_PeripheralDataSize_HalfWord;//16bit
 164:waverecorder.c ****   DMA_InitStructure.DMA_MemoryDataSize = DMA_MemoryDataSize_HalfWord;
 165:waverecorder.c ****   DMA_InitStructure.DMA_Mode = DMA_Mode_Circular;//<<<<<<<<<<<<
 166:waverecorder.c ****   DMA_InitStructure.DMA_Priority = DMA_Priority_High;
 167:waverecorder.c ****   DMA_InitStructure.DMA_FIFOMode = DMA_FIFOMode_Disable;
 168:waverecorder.c ****   DMA_InitStructure.DMA_FIFOThreshold = DMA_FIFOThreshold_1QuarterFull;
 169:waverecorder.c ****   DMA_InitStructure.DMA_MemoryBurst = DMA_MemoryBurst_Single;
 170:waverecorder.c ****   DMA_InitStructure.DMA_PeripheralBurst = DMA_PeripheralBurst_Single;
 171:waverecorder.c ****   DMA_Init(DMA1_Stream3, &DMA_InitStructure);
 172:waverecorder.c ****   
 173:waverecorder.c ****   DMA_DoubleBufferModeConfig(DMA1_Stream3, (uint32_t)&Mic_DMA_PDM_Buffer1, DMA_Memory_0);//0 buffer
 174:waverecorder.c ****   
 175:waverecorder.c ****   DMA_ITConfig(DMA1_Stream3, DMA_IT_TC, ENABLE);
 176:waverecorder.c ****   DMA_DoubleBufferModeCmd(DMA1_Stream3, ENABLE);
 177:waverecorder.c ****   
 178:waverecorder.c ****   NVIC_InitStructure.NVIC_IRQChannel = DMA1_Stream3_IRQn;
 179:waverecorder.c ****   NVIC_InitStructure.NVIC_IRQChannelPreemptionPriority = 10;
 180:waverecorder.c ****   NVIC_InitStructure.NVIC_IRQChannelSubPriority = 10;
 181:waverecorder.c ****   NVIC_InitStructure.NVIC_IRQChannelCmd = ENABLE;
 182:waverecorder.c ****   NVIC_Init(&NVIC_InitStructure);
 183:waverecorder.c ****   
 184:waverecorder.c ****   DMA_Cmd(DMA1_Stream3, ENABLE);
 185:waverecorder.c **** }
 186:waverecorder.c **** 
 187:waverecorder.c **** 
 188:waverecorder.c **** /**
 189:waverecorder.c ****   * @brief  Initialize GPIO for wave recorder.
 190:waverecorder.c ****   * @param  None
 191:waverecorder.c ****   * @retval None
 192:waverecorder.c ****   */
 193:waverecorder.c **** static void WaveRecorder_GPIO_Init(void)
 175              		.loc 1 193 13 view .LVU25
 176              	.LBB13:
 194:waverecorder.c **** {  
 195:waverecorder.c ****   GPIO_InitTypeDef GPIO_InitStructure;
 177              		.loc 1 195 3 view .LVU26
 196:waverecorder.c **** 
 197:waverecorder.c ****   /* Enable GPIO clocks */
 198:waverecorder.c ****   RCC_AHB1PeriphClockCmd(SPI_SCK_GPIO_CLK | SPI_MOSI_GPIO_CLK, ENABLE);
 178              		.loc 1 198 3 view .LVU27
 179              	@ waverecorder.c:210:   GPIO_Init(SPI_SCK_GPIO_PORT, &GPIO_InitStructure);
 199:waverecorder.c **** 
 200:waverecorder.c ****   /* Enable GPIO clocks */
 201:waverecorder.c ****   RCC_AHB1PeriphClockCmd(SPI_SCK_GPIO_CLK | SPI_MOSI_GPIO_CLK, ENABLE);
 202:waverecorder.c **** 
 203:waverecorder.c ****   GPIO_InitStructure.GPIO_Mode = GPIO_Mode_AF;
 204:waverecorder.c ****   GPIO_InitStructure.GPIO_OType = GPIO_OType_PP;
 205:waverecorder.c ****   GPIO_InitStructure.GPIO_PuPd  = GPIO_PuPd_NOPULL;
 206:waverecorder.c ****   GPIO_InitStructure.GPIO_Speed = GPIO_Speed_50MHz;
 207:waverecorder.c **** 
ARM GAS  C:\Users\admin\AppData\Local\Temp\cccr0VhR.s 			page 8


 208:waverecorder.c ****   /* SPI SCK pin configuration */
 209:waverecorder.c ****   GPIO_InitStructure.GPIO_Pin = SPI_SCK_PIN;
 210:waverecorder.c ****   GPIO_Init(SPI_SCK_GPIO_PORT, &GPIO_InitStructure);
 180              		.loc 1 210 3 is_stmt 0 view .LVU28
 181 0034 4C4F     		ldr	r7, .L4+24	@ tmp134,
 182              	@ waverecorder.c:217:   GPIO_Init(SPI_MOSI_GPIO_PORT, &GPIO_InitStructure);
 211:waverecorder.c ****   
 212:waverecorder.c ****   /* Connect SPI pins to AF5 */  
 213:waverecorder.c ****   GPIO_PinAFConfig(SPI_SCK_GPIO_PORT, SPI_SCK_SOURCE, SPI_SCK_AF);
 214:waverecorder.c ****   
 215:waverecorder.c ****   /* SPI MOSI pin configuration */
 216:waverecorder.c ****   GPIO_InitStructure.GPIO_Pin =  SPI_MOSI_PIN;
 217:waverecorder.c ****   GPIO_Init(SPI_MOSI_GPIO_PORT, &GPIO_InitStructure);
 183              		.loc 1 217 3 view .LVU29
 184 0036 4D4D     		ldr	r5, .L4+28	@ tmp138,
 185              	@ waverecorder.c:198:   RCC_AHB1PeriphClockCmd(SPI_SCK_GPIO_CLK | SPI_MOSI_GPIO_CLK, ENABLE);
 198:waverecorder.c **** 
 186              		.loc 1 198 3 view .LVU30
 187 0038 0121     		movs	r1, #1	@,
 188 003a 0620     		movs	r0, #6	@,
 189 003c FFF7FEFF 		bl	RCC_AHB1PeriphClockCmd		@
 190              	.LVL4:
 201:waverecorder.c **** 
 191              		.loc 1 201 3 is_stmt 1 view .LVU31
 192 0040 0121     		movs	r1, #1	@,
 193 0042 0620     		movs	r0, #6	@,
 194 0044 FFF7FEFF 		bl	RCC_AHB1PeriphClockCmd		@
 195              	.LVL5:
 203:waverecorder.c ****   GPIO_InitStructure.GPIO_OType = GPIO_OType_PP;
 196              		.loc 1 203 3 view .LVU32
 204:waverecorder.c ****   GPIO_InitStructure.GPIO_PuPd  = GPIO_PuPd_NOPULL;
 197              		.loc 1 204 3 view .LVU33
 205:waverecorder.c ****   GPIO_InitStructure.GPIO_Speed = GPIO_Speed_50MHz;
 198              		.loc 1 205 3 view .LVU34
 206:waverecorder.c **** 
 199              		.loc 1 206 3 view .LVU35
 200              	@ waverecorder.c:209:   GPIO_InitStructure.GPIO_Pin = SPI_SCK_PIN;
 209:waverecorder.c ****   GPIO_Init(SPI_SCK_GPIO_PORT, &GPIO_InitStructure);
 201              		.loc 1 209 31 is_stmt 0 view .LVU36
 202 0048 4FF48066 		mov	r6, #1024	@ tmp132,
 203              	@ waverecorder.c:203:   GPIO_InitStructure.GPIO_Mode = GPIO_Mode_AF;
 203:waverecorder.c ****   GPIO_InitStructure.GPIO_OType = GPIO_OType_PP;
 204              		.loc 1 203 32 view .LVU37
 205 004c 40F20223 		movw	r3, #514	@ tmp131,
 206              	@ waverecorder.c:210:   GPIO_Init(SPI_SCK_GPIO_PORT, &GPIO_InitStructure);
 210:waverecorder.c ****   
 207              		.loc 1 210 3 view .LVU38
 208 0050 02A9     		add	r1, sp, #8	@ tmp178,,
 209 0052 3846     		mov	r0, r7	@, tmp134
 210              	@ waverecorder.c:209:   GPIO_InitStructure.GPIO_Pin = SPI_SCK_PIN;
 209:waverecorder.c ****   GPIO_Init(SPI_SCK_GPIO_PORT, &GPIO_InitStructure);
 211              		.loc 1 209 31 view .LVU39
 212 0054 CDE90263 		strd	r6, r3, [sp, #8]	@ tmp132, tmp131,,
 210:waverecorder.c ****   
 213              		.loc 1 210 3 is_stmt 1 view .LVU40
 214 0058 FFF7FEFF 		bl	GPIO_Init		@
 215              	.LVL6:
ARM GAS  C:\Users\admin\AppData\Local\Temp\cccr0VhR.s 			page 9


 213:waverecorder.c ****   
 216              		.loc 1 213 3 view .LVU41
 217 005c 3846     		mov	r0, r7	@, tmp134
 218 005e 0522     		movs	r2, #5	@,
 219              	@ waverecorder.c:216:   GPIO_InitStructure.GPIO_Pin =  SPI_MOSI_PIN;
 216:waverecorder.c ****   GPIO_Init(SPI_MOSI_GPIO_PORT, &GPIO_InitStructure);
 220              		.loc 1 216 31 is_stmt 0 view .LVU42
 221 0060 0827     		movs	r7, #8	@ tmp136,
 222              	@ waverecorder.c:213:   GPIO_PinAFConfig(SPI_SCK_GPIO_PORT, SPI_SCK_SOURCE, SPI_SCK_AF);
 213:waverecorder.c ****   
 223              		.loc 1 213 3 view .LVU43
 224 0062 0A21     		movs	r1, #10	@,
 225 0064 FFF7FEFF 		bl	GPIO_PinAFConfig		@
 226              	.LVL7:
 216:waverecorder.c ****   GPIO_Init(SPI_MOSI_GPIO_PORT, &GPIO_InitStructure);
 227              		.loc 1 216 3 is_stmt 1 view .LVU44
 228              	@ waverecorder.c:217:   GPIO_Init(SPI_MOSI_GPIO_PORT, &GPIO_InitStructure);
 229              		.loc 1 217 3 is_stmt 0 view .LVU45
 230 0068 0DEB0701 		add	r1, sp, r7	@ tmp179,,
 231 006c 2846     		mov	r0, r5	@, tmp138
 232              	@ waverecorder.c:216:   GPIO_InitStructure.GPIO_Pin =  SPI_MOSI_PIN;
 216:waverecorder.c ****   GPIO_Init(SPI_MOSI_GPIO_PORT, &GPIO_InitStructure);
 233              		.loc 1 216 31 view .LVU46
 234 006e 0297     		str	r7, [sp, #8]	@ tmp136, MEM[(struct  *)_82].GPIO_Pin
 235              		.loc 1 217 3 is_stmt 1 view .LVU47
 236 0070 FFF7FEFF 		bl	GPIO_Init		@
 237              	.LVL8:
 218:waverecorder.c ****   GPIO_PinAFConfig(SPI_MOSI_GPIO_PORT, SPI_MOSI_SOURCE, SPI_MOSI_AF);
 238              		.loc 1 218 3 view .LVU48
 239 0074 0522     		movs	r2, #5	@,
 240 0076 2846     		mov	r0, r5	@, tmp138
 241 0078 0321     		movs	r1, #3	@,
 242 007a FFF7FEFF 		bl	GPIO_PinAFConfig		@
 243              	.LVL9:
 244              	.LBE13:
 245              	.LBE12:
 112:waverecorder.c ****     WaveRecorder_DMA_Init();
 246              		.loc 1 112 5 view .LVU49
 247              	.LBB14:
 248              	.LBI14:
 219:waverecorder.c **** }
 220:waverecorder.c **** 
 221:waverecorder.c **** /**
 222:waverecorder.c ****   * @brief  Initialize SPI peripheral.
 223:waverecorder.c ****   * @param  Freq :Audio frequency
 224:waverecorder.c ****   * @retval None
 225:waverecorder.c ****   */
 226:waverecorder.c **** static void WaveRecorder_SPI_Init(uint32_t Freq)
 249              		.loc 1 226 13 view .LVU50
 250              	.LBB15:
 227:waverecorder.c **** {
 228:waverecorder.c ****   I2S_InitTypeDef I2S_InitStructure;
 251              		.loc 1 228 3 view .LVU51
 229:waverecorder.c **** 
 230:waverecorder.c ****   /* Enable the SPI clock */
 231:waverecorder.c ****   RCC_APB1PeriphClockCmd(RCC_APB1Periph_SPI2,ENABLE);
 252              		.loc 1 231 3 view .LVU52
ARM GAS  C:\Users\admin\AppData\Local\Temp\cccr0VhR.s 			page 10


 253              	@ waverecorder.c:234:   SPI_I2S_DeInit(SPI2);
 232:waverecorder.c ****   
 233:waverecorder.c ****   /* SPI configuration */
 234:waverecorder.c ****   SPI_I2S_DeInit(SPI2);
 254              		.loc 1 234 3 is_stmt 0 view .LVU53
 255 007e A5F5E835 		sub	r5, r5, #118784	@ tmp140, tmp140,
 256              	@ waverecorder.c:231:   RCC_APB1PeriphClockCmd(RCC_APB1Periph_SPI2,ENABLE);
 231:waverecorder.c ****   
 257              		.loc 1 231 3 view .LVU54
 258 0082 0121     		movs	r1, #1	@,
 259 0084 4FF48040 		mov	r0, #16384	@,
 260 0088 FFF7FEFF 		bl	RCC_APB1PeriphClockCmd		@
 261              	.LVL10:
 262              		.loc 1 234 3 is_stmt 1 view .LVU55
 263              	@ waverecorder.c:235:   I2S_InitStructure.I2S_AudioFreq = Freq/2;//i2s two channel mode
 235:waverecorder.c ****   I2S_InitStructure.I2S_AudioFreq = Freq/2;//i2s two channel mode
 264              		.loc 1 235 41 is_stmt 0 view .LVU56
 265 008c 6408     		lsrs	r4, r4, #1	@ tmp141, AudioFreq,
 266              	.LVL11:
 267              	@ waverecorder.c:234:   SPI_I2S_DeInit(SPI2);
 234:waverecorder.c ****   I2S_InitStructure.I2S_AudioFreq = Freq/2;//i2s two channel mode
 268              		.loc 1 234 3 view .LVU57
 269 008e 2846     		mov	r0, r5	@, tmp140
 270 0090 FFF7FEFF 		bl	SPI_I2S_DeInit		@
 271              	.LVL12:
 272              		.loc 1 235 3 is_stmt 1 view .LVU58
 273              	@ waverecorder.c:239:   I2S_InitStructure.I2S_Mode = I2S_Mode_MasterRx;
 236:waverecorder.c ****   I2S_InitStructure.I2S_Standard = I2S_Standard_LSB;
 237:waverecorder.c ****   I2S_InitStructure.I2S_DataFormat = I2S_DataFormat_16b;
 238:waverecorder.c ****   I2S_InitStructure.I2S_CPOL = I2S_CPOL_High;
 239:waverecorder.c ****   I2S_InitStructure.I2S_Mode = I2S_Mode_MasterRx;
 274              		.loc 1 239 30 is_stmt 0 view .LVU59
 275 0094 364B     		ldr	r3, .L4+32	@ tmp144,
 276              	@ waverecorder.c:235:   I2S_InitStructure.I2S_AudioFreq = Freq/2;//i2s two channel mode
 235:waverecorder.c ****   I2S_InitStructure.I2S_Standard = I2S_Standard_LSB;
 277              		.loc 1 235 35 view .LVU60
 278 0096 0494     		str	r4, [sp, #16]	@ tmp141, MEM[(struct  *)_82].I2S_AudioFreq
 236:waverecorder.c ****   I2S_InitStructure.I2S_Standard = I2S_Standard_LSB;
 279              		.loc 1 236 3 is_stmt 1 view .LVU61
 237:waverecorder.c ****   I2S_InitStructure.I2S_CPOL = I2S_CPOL_High;
 280              		.loc 1 237 3 view .LVU62
 238:waverecorder.c ****   I2S_InitStructure.I2S_Mode = I2S_Mode_MasterRx;
 281              		.loc 1 238 3 view .LVU63
 282              	@ waverecorder.c:242:   I2S_Init(SPI2, &I2S_InitStructure);
 240:waverecorder.c ****   I2S_InitStructure.I2S_MCLKOutput = I2S_MCLKOutput_Disable;
 241:waverecorder.c ****   /* Initialize the I2S peripheral with the structure above */
 242:waverecorder.c ****   I2S_Init(SPI2, &I2S_InitStructure);
 283              		.loc 1 242 3 is_stmt 0 view .LVU64
 284 0098 0DEB0701 		add	r1, sp, r7	@ tmp180,,
 285              	@ waverecorder.c:239:   I2S_InitStructure.I2S_Mode = I2S_Mode_MasterRx;
 239:waverecorder.c ****   I2S_InitStructure.I2S_MCLKOutput = I2S_MCLKOutput_Disable;
 286              		.loc 1 239 30 view .LVU65
 287 009c 0024     		movs	r4, #0	@ tmp145,
 288              	@ waverecorder.c:242:   I2S_Init(SPI2, &I2S_InitStructure);
 289              		.loc 1 242 3 view .LVU66
 290 009e 2846     		mov	r0, r5	@, tmp140
 291              	@ waverecorder.c:239:   I2S_InitStructure.I2S_Mode = I2S_Mode_MasterRx;
ARM GAS  C:\Users\admin\AppData\Local\Temp\cccr0VhR.s 			page 11


 239:waverecorder.c ****   I2S_InitStructure.I2S_MCLKOutput = I2S_MCLKOutput_Disable;
 292              		.loc 1 239 30 view .LVU67
 293 00a0 0293     		str	r3, [sp, #8]	@ tmp144, MEM <vector(2) short unsigned int> [(short unsigned int *)_82]
 294              	@ waverecorder.c:238:   I2S_InitStructure.I2S_CPOL = I2S_CPOL_High;
 238:waverecorder.c ****   I2S_InitStructure.I2S_Mode = I2S_Mode_MasterRx;
 295              		.loc 1 238 30 view .LVU68
 296 00a2 ADF81470 		strh	r7, [sp, #20]	@ movhi	@ tmp136, MEM[(struct  *)_82].I2S_CPOL
 239:waverecorder.c ****   I2S_InitStructure.I2S_MCLKOutput = I2S_MCLKOutput_Disable;
 297              		.loc 1 239 3 is_stmt 1 view .LVU69
 240:waverecorder.c ****   I2S_InitStructure.I2S_MCLKOutput = I2S_MCLKOutput_Disable;
 298              		.loc 1 240 3 view .LVU70
 299              	@ waverecorder.c:239:   I2S_InitStructure.I2S_Mode = I2S_Mode_MasterRx;
 239:waverecorder.c ****   I2S_InitStructure.I2S_MCLKOutput = I2S_MCLKOutput_Disable;
 300              		.loc 1 239 30 is_stmt 0 view .LVU71
 301 00a6 0394     		str	r4, [sp, #12]	@ tmp145, MEM <vector(2) short unsigned int> [(short unsigned int *)_82]
 302              		.loc 1 242 3 is_stmt 1 view .LVU72
 303 00a8 FFF7FEFF 		bl	I2S_Init		@
 304              	.LVL13:
 243:waverecorder.c **** 
 244:waverecorder.c ****   SPI_I2S_DMACmd(SPI2, SPI_I2S_DMAReq_Rx, ENABLE);//enable DMA
 305              		.loc 1 244 3 view .LVU73
 306 00ac 0122     		movs	r2, #1	@,
 307 00ae 1146     		mov	r1, r2	@,
 308 00b0 2846     		mov	r0, r5	@, tmp140
 309              	.LBE15:
 310              	.LBE14:
 311              	.LBB17:
 312              	.LBB18:
 313              	@ waverecorder.c:153:   DMA_Cmd(DMA1_Stream3, DISABLE);//stream3 - spi2_rx
 153:waverecorder.c ****   DMA_DeInit(DMA1_Stream3);
 314              		.loc 1 153 3 is_stmt 0 view .LVU74
 315 00b2 05F50A35 		add	r5, r5, #141312	@ tmp149, tmp149,
 316              	.LBE18:
 317              	.LBE17:
 318              	.LBB20:
 319              	.LBB16:
 320              	@ waverecorder.c:244:   SPI_I2S_DMACmd(SPI2, SPI_I2S_DMAReq_Rx, ENABLE);//enable DMA
 321              		.loc 1 244 3 view .LVU75
 322 00b6 FFF7FEFF 		bl	SPI_I2S_DMACmd		@
 323              	.LVL14:
 324              		.loc 1 244 3 view .LVU76
 325              	.LBE16:
 326              	.LBE20:
 113:waverecorder.c ****     
 327              		.loc 1 113 5 is_stmt 1 view .LVU77
 328              	.LBB21:
 329              	.LBI17:
 147:waverecorder.c **** {
 330              		.loc 1 147 13 view .LVU78
 331              	.LBB19:
 149:waverecorder.c ****   NVIC_InitTypeDef NVIC_InitStructure;
 332              		.loc 1 149 3 view .LVU79
 150:waverecorder.c ****   
 333              		.loc 1 150 3 view .LVU80
 152:waverecorder.c ****   DMA_Cmd(DMA1_Stream3, DISABLE);//stream3 - spi2_rx
 334              		.loc 1 152 3 view .LVU81
 335              	@ waverecorder.c:153:   DMA_Cmd(DMA1_Stream3, DISABLE);//stream3 - spi2_rx
ARM GAS  C:\Users\admin\AppData\Local\Temp\cccr0VhR.s 			page 12


 153:waverecorder.c ****   DMA_DeInit(DMA1_Stream3);
 336              		.loc 1 153 3 is_stmt 0 view .LVU82
 337 00ba 5835     		adds	r5, r5, #88	@ tmp149, tmp149,
 338              	@ waverecorder.c:152:   RCC_AHB1PeriphClockCmd(RCC_AHB1Periph_DMA1, ENABLE);
 152:waverecorder.c ****   DMA_Cmd(DMA1_Stream3, DISABLE);//stream3 - spi2_rx
 339              		.loc 1 152 3 view .LVU83
 340 00bc 0121     		movs	r1, #1	@,
 341 00be 4FF40010 		mov	r0, #2097152	@,
 342 00c2 FFF7FEFF 		bl	RCC_AHB1PeriphClockCmd		@
 343              	.LVL15:
 153:waverecorder.c ****   DMA_DeInit(DMA1_Stream3);
 344              		.loc 1 153 3 is_stmt 1 view .LVU84
 345 00c6 2146     		mov	r1, r4	@, tmp145
 346 00c8 2846     		mov	r0, r5	@, tmp149
 347 00ca FFF7FEFF 		bl	DMA_Cmd		@
 348              	.LVL16:
 154:waverecorder.c ****   
 349              		.loc 1 154 3 view .LVU85
 350 00ce 2846     		mov	r0, r5	@, tmp149
 351 00d0 FFF7FEFF 		bl	DMA_DeInit		@
 352              	.LVL17:
 156:waverecorder.c ****   DMA_InitStructure.DMA_PeripheralBaseAddr = SPI2_DR_ADRESS;
 353              		.loc 1 156 3 view .LVU86
 157:waverecorder.c ****   DMA_InitStructure.DMA_Memory0BaseAddr = (uint32_t)Mic_DMA_PDM_Buffer0;
 354              		.loc 1 157 3 view .LVU87
 355              	@ waverecorder.c:163:   DMA_InitStructure.DMA_PeripheralDataSize = DMA_PeripheralDataSize_HalfWord;
 163:waverecorder.c ****   DMA_InitStructure.DMA_MemoryDataSize = DMA_MemoryDataSize_HalfWord;
 356              		.loc 1 163 44 is_stmt 0 view .LVU88
 357 00d4 4FF40063 		mov	r3, #2048	@ tmp157,
 358 00d8 0993     		str	r3, [sp, #36]	@ tmp157, MEM[(struct  *)_82].DMA_PeripheralDataSize
 359              	@ waverecorder.c:165:   DMA_InitStructure.DMA_Mode = DMA_Mode_Circular;//<<<<<<<<<<<<
 165:waverecorder.c ****   DMA_InitStructure.DMA_Priority = DMA_Priority_High;
 360              		.loc 1 165 30 view .LVU89
 361 00da 4FF40052 		mov	r2, #8192	@,
 362 00de 4FF48073 		mov	r3, #256	@ tmp159,
 363 00e2 CDE90A23 		strd	r2, r3, [sp, #40]	@, tmp159,,
 364              	@ waverecorder.c:166:   DMA_InitStructure.DMA_Priority = DMA_Priority_High;
 166:waverecorder.c ****   DMA_InitStructure.DMA_FIFOMode = DMA_FIFOMode_Disable;
 365              		.loc 1 166 34 view .LVU90
 366 00e6 4FF40033 		mov	r3, #131072	@ tmp160,
 367              	@ waverecorder.c:167:   DMA_InitStructure.DMA_FIFOMode = DMA_FIFOMode_Disable;
 167:waverecorder.c ****   DMA_InitStructure.DMA_FIFOThreshold = DMA_FIFOThreshold_1QuarterFull;
 368              		.loc 1 167 34 view .LVU91
 369 00ea CDE90C34 		strd	r3, r4, [sp, #48]	@ tmp160, tmp145,,
 370              	@ waverecorder.c:156:   DMA_InitStructure.DMA_Channel = DMA_Channel_0; //spi2_rx
 156:waverecorder.c ****   DMA_InitStructure.DMA_PeripheralBaseAddr = SPI2_DR_ADRESS;
 371              		.loc 1 156 33 view .LVU92
 372 00ee 18A3     		adr	r3, .L4	@,
 373 00f0 D3E90023 		ldrd	r2, [r3]	@ tmp151,
 374 00f4 CDE90223 		strd	r2, [sp, #8]	@ tmp151,,
 158:waverecorder.c ****   DMA_InitStructure.DMA_DIR = DMA_DIR_PeripheralToMemory;
 375              		.loc 1 158 3 is_stmt 1 view .LVU93
 376              	@ waverecorder.c:158:   DMA_InitStructure.DMA_Memory0BaseAddr = (uint32_t)Mic_DMA_PDM_Buffer0;
 158:waverecorder.c ****   DMA_InitStructure.DMA_DIR = DMA_DIR_PeripheralToMemory;
 377              		.loc 1 158 43 is_stmt 0 view .LVU94
 378 00f8 1E4B     		ldr	r3, .L4+36	@ tmp152,
 379              	@ waverecorder.c:158:   DMA_InitStructure.DMA_Memory0BaseAddr = (uint32_t)Mic_DMA_PDM_Buffer0;
ARM GAS  C:\Users\admin\AppData\Local\Temp\cccr0VhR.s 			page 13


 158:waverecorder.c ****   DMA_InitStructure.DMA_DIR = DMA_DIR_PeripheralToMemory;
 380              		.loc 1 158 41 view .LVU95
 381 00fa 0493     		str	r3, [sp, #16]	@ tmp152, MEM[(struct  *)_82].DMA_Memory0BaseAddr
 159:waverecorder.c ****   DMA_InitStructure.DMA_BufferSize = (uint32_t)INTERNAL_BUFF_SIZE;
 382              		.loc 1 159 3 is_stmt 1 view .LVU96
 160:waverecorder.c ****   DMA_InitStructure.DMA_PeripheralInc = DMA_PeripheralInc_Disable;
 383              		.loc 1 160 3 view .LVU97
 384              	@ waverecorder.c:171:   DMA_Init(DMA1_Stream3, &DMA_InitStructure);
 171:waverecorder.c ****   
 385              		.loc 1 171 3 is_stmt 0 view .LVU98
 386 00fc 0DEB0701 		add	r1, sp, r7	@ tmp181,,
 387              	@ waverecorder.c:160:   DMA_InitStructure.DMA_BufferSize = (uint32_t)INTERNAL_BUFF_SIZE;
 160:waverecorder.c ****   DMA_InitStructure.DMA_PeripheralInc = DMA_PeripheralInc_Disable;
 388              		.loc 1 160 36 view .LVU99
 389 0100 4023     		movs	r3, #64	@ tmp154,
 390              	@ waverecorder.c:171:   DMA_Init(DMA1_Stream3, &DMA_InitStructure);
 171:waverecorder.c ****   
 391              		.loc 1 171 3 view .LVU100
 392 0102 2846     		mov	r0, r5	@, tmp149
 393              	@ waverecorder.c:160:   DMA_InitStructure.DMA_BufferSize = (uint32_t)INTERNAL_BUFF_SIZE;
 160:waverecorder.c ****   DMA_InitStructure.DMA_PeripheralInc = DMA_PeripheralInc_Disable;
 394              		.loc 1 160 36 view .LVU101
 395 0104 0693     		str	r3, [sp, #24]	@ tmp154, MEM[(struct  *)_82].DMA_BufferSize
 161:waverecorder.c ****   DMA_InitStructure.DMA_MemoryInc = DMA_MemoryInc_Enable;
 396              		.loc 1 161 3 is_stmt 1 view .LVU102
 162:waverecorder.c ****   DMA_InitStructure.DMA_PeripheralDataSize = DMA_PeripheralDataSize_HalfWord;//16bit
 397              		.loc 1 162 3 view .LVU103
 163:waverecorder.c ****   DMA_InitStructure.DMA_MemoryDataSize = DMA_MemoryDataSize_HalfWord;
 398              		.loc 1 163 3 view .LVU104
 164:waverecorder.c ****   DMA_InitStructure.DMA_Mode = DMA_Mode_Circular;//<<<<<<<<<<<<
 399              		.loc 1 164 3 view .LVU105
 165:waverecorder.c ****   DMA_InitStructure.DMA_Priority = DMA_Priority_High;
 400              		.loc 1 165 3 view .LVU106
 166:waverecorder.c ****   DMA_InitStructure.DMA_FIFOMode = DMA_FIFOMode_Disable;
 401              		.loc 1 166 3 view .LVU107
 167:waverecorder.c ****   DMA_InitStructure.DMA_FIFOThreshold = DMA_FIFOThreshold_1QuarterFull;
 402              		.loc 1 167 3 view .LVU108
 168:waverecorder.c ****   DMA_InitStructure.DMA_MemoryBurst = DMA_MemoryBurst_Single;
 403              		.loc 1 168 3 view .LVU109
 169:waverecorder.c ****   DMA_InitStructure.DMA_PeripheralBurst = DMA_PeripheralBurst_Single;
 404              		.loc 1 169 3 view .LVU110
 170:waverecorder.c ****   DMA_Init(DMA1_Stream3, &DMA_InitStructure);
 405              		.loc 1 170 3 view .LVU111
 171:waverecorder.c ****   
 406              		.loc 1 171 3 view .LVU112
 407              	@ waverecorder.c:169:   DMA_InitStructure.DMA_MemoryBurst = DMA_MemoryBurst_Single;
 169:waverecorder.c ****   DMA_InitStructure.DMA_PeripheralBurst = DMA_PeripheralBurst_Single;
 408              		.loc 1 169 37 is_stmt 0 view .LVU113
 409 0106 CDE90E44 		strd	r4, r4, [sp, #56]	@ tmp145, tmp145,,
 410              	@ waverecorder.c:162:   DMA_InitStructure.DMA_MemoryInc = DMA_MemoryInc_Enable;
 162:waverecorder.c ****   DMA_InitStructure.DMA_PeripheralDataSize = DMA_PeripheralDataSize_HalfWord;//16bit
 411              		.loc 1 162 35 view .LVU114
 412 010a 0896     		str	r6, [sp, #32]	@ tmp132, MEM[(struct  *)_82].DMA_MemoryInc
 413              	@ waverecorder.c:159:   DMA_InitStructure.DMA_DIR = DMA_DIR_PeripheralToMemory;
 159:waverecorder.c ****   DMA_InitStructure.DMA_BufferSize = (uint32_t)INTERNAL_BUFF_SIZE;
 414              		.loc 1 159 29 view .LVU115
 415 010c 0594     		str	r4, [sp, #20]	@ tmp145, MEM[(struct  *)_82].DMA_DIR
ARM GAS  C:\Users\admin\AppData\Local\Temp\cccr0VhR.s 			page 14


 416              	@ waverecorder.c:161:   DMA_InitStructure.DMA_PeripheralInc = DMA_PeripheralInc_Disable;
 161:waverecorder.c ****   DMA_InitStructure.DMA_MemoryInc = DMA_MemoryInc_Enable;
 417              		.loc 1 161 39 view .LVU116
 418 010e 0794     		str	r4, [sp, #28]	@ tmp145, MEM[(struct  *)_82].DMA_PeripheralInc
 419              	@ waverecorder.c:170:   DMA_InitStructure.DMA_PeripheralBurst = DMA_PeripheralBurst_Single;
 170:waverecorder.c ****   DMA_Init(DMA1_Stream3, &DMA_InitStructure);
 420              		.loc 1 170 41 view .LVU117
 421 0110 1094     		str	r4, [sp, #64]	@ tmp145, MEM[(struct  *)_82].DMA_PeripheralBurst
 422              	@ waverecorder.c:171:   DMA_Init(DMA1_Stream3, &DMA_InitStructure);
 171:waverecorder.c ****   
 423              		.loc 1 171 3 view .LVU118
 424 0112 FFF7FEFF 		bl	DMA_Init		@
 425              	.LVL18:
 173:waverecorder.c ****   
 426              		.loc 1 173 3 is_stmt 1 view .LVU119
 427 0116 2246     		mov	r2, r4	@, tmp145
 428 0118 2846     		mov	r0, r5	@, tmp149
 429 011a 1749     		ldr	r1, .L4+40	@,
 430 011c FFF7FEFF 		bl	DMA_DoubleBufferModeConfig		@
 431              	.LVL19:
 175:waverecorder.c ****   DMA_DoubleBufferModeCmd(DMA1_Stream3, ENABLE);
 432              		.loc 1 175 3 view .LVU120
 433 0120 0122     		movs	r2, #1	@,
 434 0122 2846     		mov	r0, r5	@, tmp149
 435 0124 1021     		movs	r1, #16	@,
 436 0126 FFF7FEFF 		bl	DMA_ITConfig		@
 437              	.LVL20:
 176:waverecorder.c ****   
 438              		.loc 1 176 3 view .LVU121
 439 012a 0121     		movs	r1, #1	@,
 440 012c 2846     		mov	r0, r5	@, tmp149
 441 012e FFF7FEFF 		bl	DMA_DoubleBufferModeCmd		@
 442              	.LVL21:
 178:waverecorder.c ****   NVIC_InitStructure.NVIC_IRQChannelPreemptionPriority = 10;
 443              		.loc 1 178 3 view .LVU122
 179:waverecorder.c ****   NVIC_InitStructure.NVIC_IRQChannelSubPriority = 10;
 444              		.loc 1 179 3 view .LVU123
 180:waverecorder.c ****   NVIC_InitStructure.NVIC_IRQChannelCmd = ENABLE;
 445              		.loc 1 180 3 view .LVU124
 181:waverecorder.c ****   NVIC_Init(&NVIC_InitStructure);
 446              		.loc 1 181 3 view .LVU125
 447              	@ waverecorder.c:178:   NVIC_InitStructure.NVIC_IRQChannel = DMA1_Stream3_IRQn;
 178:waverecorder.c ****   NVIC_InitStructure.NVIC_IRQChannelPreemptionPriority = 10;
 448              		.loc 1 178 38 is_stmt 0 view .LVU126
 449 0132 124B     		ldr	r3, .L4+44	@ tmp171,
 450 0134 0193     		str	r3, [sp, #4]	@ tmp171, MEM <vector(4) unsigned char> [(unsigned char *)&NVIC_InitStructure]
 182:waverecorder.c ****   
 451              		.loc 1 182 3 is_stmt 1 view .LVU127
 452 0136 01A8     		add	r0, sp, #4	@,,
 453 0138 FFF7FEFF 		bl	NVIC_Init		@
 454              	.LVL22:
 184:waverecorder.c **** }
 455              		.loc 1 184 3 view .LVU128
 456 013c 0121     		movs	r1, #1	@,
 457 013e 2846     		mov	r0, r5	@, tmp149
 458 0140 FFF7FEFF 		bl	DMA_Cmd		@
 459              	.LVL23:
ARM GAS  C:\Users\admin\AppData\Local\Temp\cccr0VhR.s 			page 15


 460              	.LBE19:
 461              	.LBE21:
 116:waverecorder.c ****     
 462              		.loc 1 116 5 view .LVU129
 463              	@ waverecorder.c:116:     AudioRecInited = 1;
 116:waverecorder.c ****     
 464              		.loc 1 116 20 is_stmt 0 view .LVU130
 465 0144 0E4B     		ldr	r3, .L4+48	@ tmp174,
 466 0146 0122     		movs	r2, #1	@ tmp175,
 467 0148 1A60     		str	r2, [r3]	@ tmp175, AudioRecInited
 118:waverecorder.c ****   }  
 468              		.loc 1 118 5 is_stmt 1 view .LVU131
 469              	@ waverecorder.c:120: }
 120:waverecorder.c **** 
 470              		.loc 1 120 1 is_stmt 0 view .LVU132
 471 014a 13B0     		add	sp, sp, #76	@,,
 472              		.cfi_def_cfa_offset 20
 473              		@ sp needed	@
 474 014c F0BD     		pop	{r4, r5, r6, r7, pc}	@
 475              	.L5:
 476 014e 00BF     		.align	3
 477              	.L4:
 478 0150 00000000 		.word	0
 479 0154 0C380040 		.word	1073756172
 480 0158 00380240 		.word	1073887232
 481 015c 00000000 		.word	.LANCHOR0
 482 0160 00004843 		.word	1128792064
 483 0164 0000FA45 		.word	1174011904
 484 0168 00040240 		.word	1073873920
 485 016c 00080240 		.word	1073874944
 486 0170 00032000 		.word	2097920
 487 0174 00000000 		.word	.LANCHOR1
 488 0178 00000000 		.word	.LANCHOR2
 489 017c 0E0A0A01 		.word	17435150
 490 0180 00000000 		.word	.LANCHOR3
 491              		.cfi_endproc
 492              	.LFE121:
 493              		.size	WaveRecorderInit.part.0, .-WaveRecorderInit.part.0
 494              		.section	.text.DMA1_Stream3_IRQHandler,"ax",%progbits
 495              		.align	1
 496              		.p2align 2,,3
 497              		.global	DMA1_Stream3_IRQHandler
 498              		.syntax unified
 499              		.thumb
 500              		.thumb_func
 501              		.type	DMA1_Stream3_IRQHandler, %function
 502              	DMA1_Stream3_IRQHandler:
 503              	.LFB113:
  33:waverecorder.c ****   static uint16_t Mic_PDM_Buffer[INTERNAL_BUFF_SIZE];//tmp buffer for HTONS
 504              		.loc 1 33 1 is_stmt 1 view -0
 505              		.cfi_startproc
 506              		@ args = 0, pretend = 0, frame = 0
 507              		@ frame_needed = 0, uses_anonymous_args = 0
  34:waverecorder.c ****   uint8_t i;
 508              		.loc 1 34 3 view .LVU134
  35:waverecorder.c ****   uint16_t* write_buf;//pointer for RAW data which must be filtered
 509              		.loc 1 35 3 view .LVU135
ARM GAS  C:\Users\admin\AppData\Local\Temp\cccr0VhR.s 			page 16


  36:waverecorder.c ****   uint16_t* decode_buf;//pointer for filtered PCM data
 510              		.loc 1 36 3 view .LVU136
  37:waverecorder.c ****   u16 MicGain = 30;//<<<<<<<<<<<<<<<<<<<<<<<<<<<<<<<<<<<<<<<<<<<<<<<<<<<<<<<<<<< GAIN
 511              		.loc 1 37 3 view .LVU137
  38:waverecorder.c ****   uint8_t tmp_buf_number;
 512              		.loc 1 38 3 view .LVU138
 513              	.LVL24:
  39:waverecorder.c ****   
 514              		.loc 1 39 3 view .LVU139
  41:waverecorder.c ****   if (DMA_GetFlagStatus(DMA1_Stream3, DMA_FLAG_TCIF3) != RESET)
 515              		.loc 1 41 3 view .LVU140
 516              	@ waverecorder.c:33: {
  33:waverecorder.c ****   static uint16_t Mic_PDM_Buffer[INTERNAL_BUFF_SIZE];//tmp buffer for HTONS
 517              		.loc 1 33 1 is_stmt 0 view .LVU141
 518 0000 10B5     		push	{r4, lr}	@
 519              		.cfi_def_cfa_offset 8
 520              		.cfi_offset 4, -8
 521              		.cfi_offset 14, -4
 522              	@ waverecorder.c:41:   STM_EVAL_LEDOn(LED3);
  41:waverecorder.c ****   if (DMA_GetFlagStatus(DMA1_Stream3, DMA_FLAG_TCIF3) != RESET)
 523              		.loc 1 41 3 view .LVU142
 524 0002 0120     		movs	r0, #1	@,
 525 0004 FFF7FEFF 		bl	STM_EVAL_LEDOn		@
 526              	.LVL25:
  42:waverecorder.c ****   {
 527              		.loc 1 42 3 is_stmt 1 view .LVU143
 528              	@ waverecorder.c:42:   if (DMA_GetFlagStatus(DMA1_Stream3, DMA_FLAG_TCIF3) != RESET)
  42:waverecorder.c ****   {
 529              		.loc 1 42 7 is_stmt 0 view .LVU144
 530 0008 1A48     		ldr	r0, .L17	@,
 531 000a 4FF0C051 		mov	r1, #402653184	@,
 532 000e FFF7FEFF 		bl	DMA_GetFlagStatus		@
 533              	.LVL26:
 534              	@ waverecorder.c:42:   if (DMA_GetFlagStatus(DMA1_Stream3, DMA_FLAG_TCIF3) != RESET)
  42:waverecorder.c ****   {
 535              		.loc 1 42 6 view .LVU145
 536 0012 20B9     		cbnz	r0, .L16	@ tmp148,
  66:waverecorder.c **** }
 537              		.loc 1 66 3 is_stmt 1 view .LVU146
 538              	@ waverecorder.c:67: }
  67:waverecorder.c **** 
 539              		.loc 1 67 1 is_stmt 0 view .LVU147
 540 0014 BDE81040 		pop	{r4, lr}	@
 541              		.cfi_remember_state
 542              		.cfi_restore 14
 543              		.cfi_restore 4
 544              		.cfi_def_cfa_offset 0
 545              	@ waverecorder.c:66:   STM_EVAL_LEDOff(LED3);
  66:waverecorder.c **** }
 546              		.loc 1 66 3 view .LVU148
 547 0018 0120     		movs	r0, #1	@,
 548 001a FFF7FEBF 		b	STM_EVAL_LEDOff		@
 549              	.LVL27:
 550              	.L16:
 551              		.cfi_restore_state
  44:waverecorder.c ****     
 552              		.loc 1 44 5 is_stmt 1 view .LVU149
ARM GAS  C:\Users\admin\AppData\Local\Temp\cccr0VhR.s 			page 17


 553 001e 1548     		ldr	r0, .L17	@,
 554              	@ waverecorder.c:56:       tmp_buf_number = 0;
  56:waverecorder.c ****     }
 555              		.loc 1 56 22 is_stmt 0 view .LVU150
 556 0020 154C     		ldr	r4, .L17+4	@ tmp146,
 557              	@ waverecorder.c:44:     DMA_ClearFlag(DMA1_Stream3, DMA_FLAG_TCIF3);
  44:waverecorder.c ****     
 558              		.loc 1 44 5 view .LVU151
 559 0022 4FF0C051 		mov	r1, #402653184	@,
 560 0026 FFF7FEFF 		bl	DMA_ClearFlag		@
 561              	.LVL28:
  46:waverecorder.c ****     {
 562              		.loc 1 46 5 is_stmt 1 view .LVU152
 563              	@ waverecorder.c:46:     if ((DMA1_Stream3->CR & DMA_SxCR_CT) == 0)//get number of current buffer
  46:waverecorder.c ****     {
 564              		.loc 1 46 22 is_stmt 0 view .LVU153
 565 002a 144B     		ldr	r3, .L17+8	@ tmp134,
 566              	@ waverecorder.c:56:       tmp_buf_number = 0;
  56:waverecorder.c ****     }
 567              		.loc 1 56 22 view .LVU154
 568 002c 1448     		ldr	r0, .L17+12	@ tmp145,
 569              	@ waverecorder.c:46:     if ((DMA1_Stream3->CR & DMA_SxCR_CT) == 0)//get number of current buffer
  46:waverecorder.c ****     {
 570              		.loc 1 46 22 view .LVU155
 571 002e 9B6D     		ldr	r3, [r3, #88]	@ _2, MEM[(struct DMA_Stream_TypeDef *)1073897560B].CR
 572 0030 144A     		ldr	r2, .L17+16	@ ivtmp.40,
 573              	@ waverecorder.c:56:       tmp_buf_number = 0;
  56:waverecorder.c ****     }
 574              		.loc 1 56 22 view .LVU156
 575 0032 1549     		ldr	r1, .L17+20	@ tmp143,
 576              	@ waverecorder.c:46:     if ((DMA1_Stream3->CR & DMA_SxCR_CT) == 0)//get number of current buffer
  46:waverecorder.c ****     {
 577              		.loc 1 46 27 view .LVU157
 578 0034 03F40023 		and	r3, r3, #524288	@ tmp135, _2,
 579              	@ waverecorder.c:56:       tmp_buf_number = 0;
  56:waverecorder.c ****     }
 580              		.loc 1 56 22 view .LVU158
 581 0038 002B     		cmp	r3, #0	@ tmp135,
 582 003a 144B     		ldr	r3, .L17+24	@ tmp144,
 583 003c 17BF     		itett	ne
 584 003e 2046     		movne	r0, r4	@ write_buf, tmp146
 585 0040 0124     		moveq	r4, #1	@ tmp_buf_number,
 586 0042 0024     		movne	r4, #0	@ tmp_buf_number,
 587              	.LVL29:
  56:waverecorder.c ****     }
 588              		.loc 1 56 22 view .LVU159
 589 0044 1946     		movne	r1, r3	@ decode_buf, tmp144
 590              	.LVL30:
  58:waverecorder.c ****     
 591              		.loc 1 58 5 is_stmt 1 view .LVU160
  58:waverecorder.c ****     
 592              		.loc 1 58 14 view .LVU161
 593 0046 0238     		subs	r0, r0, #2	@ ivtmp.36, write_buf,
 594 0048 02F1800C 		add	ip, r2, #128	@ _61, ivtmp.40,
 595              	.LVL31:
 596              	.L9:
  58:waverecorder.c ****     
ARM GAS  C:\Users\admin\AppData\Local\Temp\cccr0VhR.s 			page 18


 597              		.loc 1 58 40 discriminator 3 view .LVU162
 598              	@ waverecorder.c:58:     for (i=0;i<INTERNAL_BUFF_SIZE;i++){Mic_PDM_Buffer[i] = HTONS(write_buf[i])
  58:waverecorder.c ****     
 599              		.loc 1 58 58 is_stmt 0 discriminator 3 view .LVU163
 600 004c 30F8023F 		ldrh	r3, [r0, #2]!	@, MEM[base: _64, offset: 0B]
  58:waverecorder.c ****     
 601              		.loc 1 58 58 discriminator 3 view .LVU164
 602 0050 5BBA     		rev16	r3, r3	@ tmp137, MEM[base: _64, offset: 0B]
 603 0052 22F8023B 		strh	r3, [r2], #2	@ movhi	@ tmp137, MEM[base: _63, offset: 0B]
  58:waverecorder.c ****     
 604              		.loc 1 58 35 is_stmt 1 discriminator 3 view .LVU165
  58:waverecorder.c ****     
 605              		.loc 1 58 14 discriminator 3 view .LVU166
 606              	@ waverecorder.c:58:     for (i=0;i<INTERNAL_BUFF_SIZE;i++){Mic_PDM_Buffer[i] = HTONS(write_buf[i])
  58:waverecorder.c ****     
 607              		.loc 1 58 5 is_stmt 0 discriminator 3 view .LVU167
 608 0056 9445     		cmp	ip, r2	@ _61, ivtmp.40
 609 0058 F8D1     		bne	.L9		@,
  60:waverecorder.c **** 
 610              		.loc 1 60 5 is_stmt 1 view .LVU168
 611 005a 0D4B     		ldr	r3, .L17+28	@,
 612 005c 0948     		ldr	r0, .L17+16	@,
  60:waverecorder.c **** 
 613              		.loc 1 60 5 is_stmt 0 view .LVU169
 614 005e 1E22     		movs	r2, #30	@,
 615 0060 FFF7FEFF 		bl	PDM_Filter_64_LSB		@
 616              	.LVL32:
  64:waverecorder.c ****   }
 617              		.loc 1 64 5 is_stmt 1 view .LVU170
 618              	@ waverecorder.c:64:     buffer_ready = tmp_buf_number;
  64:waverecorder.c ****   }
 619              		.loc 1 64 18 is_stmt 0 view .LVU171
 620 0064 0B4B     		ldr	r3, .L17+32	@ tmp141,
 621 0066 1C70     		strb	r4, [r3]	@ tmp_buf_number, buffer_ready
  66:waverecorder.c **** }
 622              		.loc 1 66 3 is_stmt 1 view .LVU172
 623              	@ waverecorder.c:67: }
  67:waverecorder.c **** 
 624              		.loc 1 67 1 is_stmt 0 view .LVU173
 625 0068 BDE81040 		pop	{r4, lr}	@
 626              		.cfi_restore 14
 627              		.cfi_restore 4
 628              		.cfi_def_cfa_offset 0
 629              	.LVL33:
 630              	@ waverecorder.c:66:   STM_EVAL_LEDOff(LED3);
  66:waverecorder.c **** }
 631              		.loc 1 66 3 view .LVU174
 632 006c 0120     		movs	r0, #1	@,
 633 006e FFF7FEBF 		b	STM_EVAL_LEDOff		@
 634              	.LVL34:
 635              	.L18:
  66:waverecorder.c **** }
 636              		.loc 1 66 3 view .LVU175
 637 0072 00BF     		.align	2
 638              	.L17:
 639 0074 58600240 		.word	1073897560
 640 0078 00000000 		.word	.LANCHOR1
ARM GAS  C:\Users\admin\AppData\Local\Temp\cccr0VhR.s 			page 19


 641 007c 00600240 		.word	1073897472
 642 0080 00000000 		.word	.LANCHOR2
 643 0084 00000000 		.word	.LANCHOR6
 644 0088 00000000 		.word	.LANCHOR4
 645 008c 00000000 		.word	.LANCHOR5
 646 0090 00000000 		.word	.LANCHOR0
 647 0094 00000000 		.word	.LANCHOR7
 648              		.cfi_endproc
 649              	.LFE113:
 650              		.size	DMA1_Stream3_IRQHandler, .-DMA1_Stream3_IRQHandler
 651              		.section	.text.simple_rec_start,"ax",%progbits
 652              		.align	1
 653              		.p2align 2,,3
 654              		.global	simple_rec_start
 655              		.syntax unified
 656              		.thumb
 657              		.thumb_func
 658              		.type	simple_rec_start, %function
 659              	simple_rec_start:
 660              	.LFB114:
  74:waverecorder.c ****   WaveRecorderInit(64000, 16, 1);//64k = 16k*4 //4 = 64word / 16word
 661              		.loc 1 74 1 is_stmt 1 view -0
 662              		.cfi_startproc
 663              		@ args = 0, pretend = 0, frame = 0
 664              		@ frame_needed = 0, uses_anonymous_args = 0
  75:waverecorder.c ****   WaveRecorderStart(NULL, MIC_FILTER_RESULT_LENGTH);
 665              		.loc 1 75 3 view .LVU177
 666              	.LVL35:
 667              	.LBB28:
 668              	.LBI28:
  86:waverecorder.c **** { 
 669              		.loc 1 86 10 view .LVU178
 670              	.LBB29:
  89:waverecorder.c ****   {
 671              		.loc 1 89 3 view .LVU179
 672              	.LBE29:
 673              	.LBE28:
 674              	@ waverecorder.c:74: {
  74:waverecorder.c ****   WaveRecorderInit(64000, 16, 1);//64k = 16k*4 //4 = 64word / 16word
 675              		.loc 1 74 1 is_stmt 0 view .LVU180
 676 0000 10B5     		push	{r4, lr}	@
 677              		.cfi_def_cfa_offset 8
 678              		.cfi_offset 4, -8
 679              		.cfi_offset 14, -4
 680              	.LBB32:
 681              	.LBB30:
 682              	@ waverecorder.c:89:   if (AudioRecInited)
  89:waverecorder.c ****   {
 683              		.loc 1 89 7 view .LVU181
 684 0002 084C     		ldr	r4, .L23	@ tmp115,
 685              	@ waverecorder.c:89:   if (AudioRecInited)
  89:waverecorder.c ****   {
 686              		.loc 1 89 6 view .LVU182
 687 0004 2368     		ldr	r3, [r4]	@ AudioRecInited, AudioRecInited
 688 0006 2BB1     		cbz	r3, .L20	@ AudioRecInited,
 689              	.LVL36:
 690              	.L21:
ARM GAS  C:\Users\admin\AppData\Local\Temp\cccr0VhR.s 			page 20


  89:waverecorder.c ****   {
 691              		.loc 1 89 6 view .LVU183
 692              	.LBE30:
 693              	.LBE32:
 694              	.LBB33:
 695              	.LBB34:
 696              	.LBB35:
 697              	.LBI35:
 128:waverecorder.c **** {
 698              		.loc 1 128 9 is_stmt 1 view .LVU184
 699              	.LBB36:
 135:waverecorder.c ****    
 700              		.loc 1 135 5 view .LVU185
 701              	.LBE36:
 702              	.LBE35:
 703              	.LBE34:
 704              	.LBE33:
 705              	@ waverecorder.c:77: }
  77:waverecorder.c **** 
 706              		.loc 1 77 1 is_stmt 0 view .LVU186
 707 0008 BDE81040 		pop	{r4, lr}	@
 708              		.cfi_remember_state
 709              		.cfi_restore 14
 710              		.cfi_restore 4
 711              		.cfi_def_cfa_offset 0
 712              	.LBB41:
 713              	.LBB39:
 714              	.LBB38:
 715              	.LBB37:
 716              	@ waverecorder.c:135:     I2S_Cmd(SPI2, ENABLE); 
 135:waverecorder.c ****    
 717              		.loc 1 135 5 view .LVU187
 718 000c 0648     		ldr	r0, .L23+4	@,
 719 000e 0121     		movs	r1, #1	@,
 720 0010 FFF7FEBF 		b	I2S_Cmd		@
 721              	.LVL37:
 722              	.L20:
 723              		.cfi_restore_state
 135:waverecorder.c ****    
 724              		.loc 1 135 5 view .LVU188
 725              	.LBE37:
 726              	.LBE38:
 727              	.LBE39:
 728              	.LBE41:
 729              	.LBB42:
 730              	.LBB31:
 731 0014 4FF47A40 		mov	r0, #64000	@,
 732 0018 FFF7FEFF 		bl	WaveRecorderInit.part.0		@
 733              	.LVL38:
 135:waverecorder.c ****    
 734              		.loc 1 135 5 view .LVU189
 735              	.LBE31:
 736              	.LBE42:
  76:waverecorder.c **** }
 737              		.loc 1 76 3 is_stmt 1 view .LVU190
 738              	.LBB43:
 739              	.LBI33:
ARM GAS  C:\Users\admin\AppData\Local\Temp\cccr0VhR.s 			page 21


 128:waverecorder.c **** {
 740              		.loc 1 128 9 view .LVU191
 741              	.LBB40:
 131:waverecorder.c ****   {
 742              		.loc 1 131 3 view .LVU192
 743              	@ waverecorder.c:131:   if (AudioRecInited)
 131:waverecorder.c ****   {
 744              		.loc 1 131 6 is_stmt 0 view .LVU193
 745 001c 2368     		ldr	r3, [r4]	@ AudioRecInited, AudioRecInited
 746 001e 002B     		cmp	r3, #0	@ AudioRecInited
 747 0020 F2D1     		bne	.L21	@
 748              	.LBE40:
 749              	.LBE43:
 750              	@ waverecorder.c:77: }
  77:waverecorder.c **** 
 751              		.loc 1 77 1 view .LVU194
 752 0022 10BD     		pop	{r4, pc}	@
 753              	.L24:
 754              		.align	2
 755              	.L23:
 756 0024 00000000 		.word	.LANCHOR3
 757 0028 00380040 		.word	1073756160
 758              		.cfi_endproc
 759              	.LFE114:
 760              		.size	simple_rec_start, .-simple_rec_start
 761              		.section	.text.WaveRecorderInit,"ax",%progbits
 762              		.align	1
 763              		.p2align 2,,3
 764              		.global	WaveRecorderInit
 765              		.syntax unified
 766              		.thumb
 767              		.thumb_func
 768              		.type	WaveRecorderInit, %function
 769              	WaveRecorderInit:
 770              	.LVL39:
 771              	.LFB115:
  87:waverecorder.c ****   /* Check if the interface is already initialized */
 772              		.loc 1 87 1 is_stmt 1 view -0
 773              		.cfi_startproc
 774              		@ args = 0, pretend = 0, frame = 0
 775              		@ frame_needed = 0, uses_anonymous_args = 0
  89:waverecorder.c ****   {
 776              		.loc 1 89 3 view .LVU196
 777              	@ waverecorder.c:87: { 
  87:waverecorder.c ****   /* Check if the interface is already initialized */
 778              		.loc 1 87 1 is_stmt 0 view .LVU197
 779 0000 08B5     		push	{r3, lr}	@
 780              		.cfi_def_cfa_offset 8
 781              		.cfi_offset 3, -8
 782              		.cfi_offset 14, -4
 783              	@ waverecorder.c:89:   if (AudioRecInited)
  89:waverecorder.c ****   {
 784              		.loc 1 89 7 view .LVU198
 785 0002 044B     		ldr	r3, .L29	@ tmp118,
 786              	@ waverecorder.c:89:   if (AudioRecInited)
  89:waverecorder.c ****   {
 787              		.loc 1 89 6 view .LVU199
ARM GAS  C:\Users\admin\AppData\Local\Temp\cccr0VhR.s 			page 22


 788 0004 1B68     		ldr	r3, [r3]	@ AudioRecInited, AudioRecInited
 789 0006 0BB1     		cbz	r3, .L28	@ AudioRecInited,
 790              	@ waverecorder.c:120: }
 120:waverecorder.c **** 
 791              		.loc 1 120 1 view .LVU200
 792 0008 0020     		movs	r0, #0	@,
 793              	.LVL40:
 120:waverecorder.c **** 
 794              		.loc 1 120 1 view .LVU201
 795 000a 08BD     		pop	{r3, pc}	@
 796              	.LVL41:
 797              	.L28:
 120:waverecorder.c **** 
 798              		.loc 1 120 1 view .LVU202
 799 000c FFF7FEFF 		bl	WaveRecorderInit.part.0		@
 800              	.LVL42:
 120:waverecorder.c **** 
 801              		.loc 1 120 1 view .LVU203
 802 0010 0020     		movs	r0, #0	@,
 803 0012 08BD     		pop	{r3, pc}	@
 804              	.L30:
 805              		.align	2
 806              	.L29:
 807 0014 00000000 		.word	.LANCHOR3
 808              		.cfi_endproc
 809              	.LFE115:
 810              		.size	WaveRecorderInit, .-WaveRecorderInit
 811              		.section	.text.WaveRecorderStart,"ax",%progbits
 812              		.align	1
 813              		.p2align 2,,3
 814              		.global	WaveRecorderStart
 815              		.syntax unified
 816              		.thumb
 817              		.thumb_func
 818              		.type	WaveRecorderStart, %function
 819              	WaveRecorderStart:
 820              	.LVL43:
 821              	.LFB116:
 129:waverecorder.c **** /* Check if the interface has already been initialized */
 822              		.loc 1 129 1 is_stmt 1 view -0
 823              		.cfi_startproc
 824              		@ args = 0, pretend = 0, frame = 0
 825              		@ frame_needed = 0, uses_anonymous_args = 0
 131:waverecorder.c ****   {
 826              		.loc 1 131 3 view .LVU205
 827              	@ waverecorder.c:129: {
 129:waverecorder.c **** /* Check if the interface has already been initialized */
 828              		.loc 1 129 1 is_stmt 0 view .LVU206
 829 0000 08B5     		push	{r3, lr}	@
 830              		.cfi_def_cfa_offset 8
 831              		.cfi_offset 3, -8
 832              		.cfi_offset 14, -4
 833              	@ waverecorder.c:131:   if (AudioRecInited)
 131:waverecorder.c ****   {
 834              		.loc 1 131 7 view .LVU207
 835 0002 054B     		ldr	r3, .L36	@ tmp117,
 836              	@ waverecorder.c:131:   if (AudioRecInited)
ARM GAS  C:\Users\admin\AppData\Local\Temp\cccr0VhR.s 			page 23


 131:waverecorder.c ****   {
 837              		.loc 1 131 6 view .LVU208
 838 0004 1B68     		ldr	r3, [r3]	@ AudioRecInited, AudioRecInited
 839 0006 0BB9     		cbnz	r3, .L35	@ AudioRecInited,
 840              	@ waverecorder.c:141:     return 1; /* Cannot perform operation */
 141:waverecorder.c ****   }
 841              		.loc 1 141 12 view .LVU209
 842 0008 0120     		movs	r0, #1	@ <retval>,
 843              	.LVL44:
 844              	@ waverecorder.c:143: }
 143:waverecorder.c **** 
 845              		.loc 1 143 1 view .LVU210
 846 000a 08BD     		pop	{r3, pc}	@
 847              	.LVL45:
 848              	.L35:
 849              	.LBB46:
 850              	.LBI46:
 128:waverecorder.c **** {
 851              		.loc 1 128 9 is_stmt 1 view .LVU211
 852              	.LBB47:
 135:waverecorder.c ****    
 853              		.loc 1 135 5 view .LVU212
 854 000c 0348     		ldr	r0, .L36+4	@,
 855              	.LVL46:
 135:waverecorder.c ****    
 856              		.loc 1 135 5 is_stmt 0 view .LVU213
 857 000e 0121     		movs	r1, #1	@,
 858              	.LVL47:
 135:waverecorder.c ****    
 859              		.loc 1 135 5 view .LVU214
 860 0010 FFF7FEFF 		bl	I2S_Cmd		@
 861              	.LVL48:
 137:waverecorder.c ****   }
 862              		.loc 1 137 5 is_stmt 1 view .LVU215
 863              	@ waverecorder.c:135:     I2S_Cmd(SPI2, ENABLE); 
 135:waverecorder.c ****    
 864              		.loc 1 135 5 is_stmt 0 view .LVU216
 865 0014 0020     		movs	r0, #0	@ <retval>,
 866              	.LBE47:
 867              	.LBE46:
 868              	@ waverecorder.c:143: }
 143:waverecorder.c **** 
 869              		.loc 1 143 1 view .LVU217
 870 0016 08BD     		pop	{r3, pc}	@
 871              	.L37:
 872              		.align	2
 873              	.L36:
 874 0018 00000000 		.word	.LANCHOR3
 875 001c 00380040 		.word	1073756160
 876              		.cfi_endproc
 877              	.LFE116:
 878              		.size	WaveRecorderStart, .-WaveRecorderStart
 879              		.section	.text.WaveRecorderStop,"ax",%progbits
 880              		.align	1
 881              		.p2align 2,,3
 882              		.global	WaveRecorderStop
 883              		.syntax unified
ARM GAS  C:\Users\admin\AppData\Local\Temp\cccr0VhR.s 			page 24


 884              		.thumb
 885              		.thumb_func
 886              		.type	WaveRecorderStop, %function
 887              	WaveRecorderStop:
 888              	.LFB120:
 245:waverecorder.c **** }
 246:waverecorder.c **** 
 247:waverecorder.c **** 
 248:waverecorder.c **** 
 249:waverecorder.c **** 
 250:waverecorder.c **** #ifdef  USE_FULL_ASSERT
 251:waverecorder.c **** 
 252:waverecorder.c **** /**
 253:waverecorder.c **** * @brief  Reports the name of the source file and the source line number
 254:waverecorder.c **** *   where the assert_param error has occurred.
 255:waverecorder.c **** * @param  file: pointer to the source file name
 256:waverecorder.c **** * @param  line: assert_param error line source number
 257:waverecorder.c **** * @retval None
 258:waverecorder.c **** */
 259:waverecorder.c **** void assert_failed(uint8_t* file, uint32_t line)
 260:waverecorder.c **** { 
 261:waverecorder.c ****   /* User can add his own implementation to report the file name and line number,
 262:waverecorder.c ****   ex: printf("Wrong parameters value: file %s on line %d\r\n", file, line) */
 263:waverecorder.c ****   
 264:waverecorder.c ****   /* Infinite loop */
 265:waverecorder.c ****   while (1)
 266:waverecorder.c ****   {
 267:waverecorder.c ****   }
 268:waverecorder.c **** }
 269:waverecorder.c **** #endif
 270:waverecorder.c **** 
 271:waverecorder.c **** 
 272:waverecorder.c **** /**
 273:waverecorder.c ****   * @brief  Stop audio recording
 274:waverecorder.c ****   * @param  None
 275:waverecorder.c ****   * @retval None
 276:waverecorder.c ****   */
 277:waverecorder.c **** uint32_t WaveRecorderStop(void)
 278:waverecorder.c **** {
 889              		.loc 1 278 1 is_stmt 1 view -0
 890              		.cfi_startproc
 891              		@ args = 0, pretend = 0, frame = 0
 892              		@ frame_needed = 0, uses_anonymous_args = 0
 279:waverecorder.c ****   /* Check if the interface has already been initialized */
 280:waverecorder.c ****   if (AudioRecInited)
 893              		.loc 1 280 3 view .LVU219
 894              	@ waverecorder.c:278: {
 278:waverecorder.c ****   /* Check if the interface has already been initialized */
 895              		.loc 1 278 1 is_stmt 0 view .LVU220
 896 0000 08B5     		push	{r3, lr}	@
 897              		.cfi_def_cfa_offset 8
 898              		.cfi_offset 3, -8
 899              		.cfi_offset 14, -4
 900              	@ waverecorder.c:280:   if (AudioRecInited)
 901              		.loc 1 280 7 view .LVU221
 902 0002 074B     		ldr	r3, .L43	@ tmp115,
 903              	@ waverecorder.c:280:   if (AudioRecInited)
ARM GAS  C:\Users\admin\AppData\Local\Temp\cccr0VhR.s 			page 25


 904              		.loc 1 280 6 view .LVU222
 905 0004 1B68     		ldr	r3, [r3]	@ AudioRecInited, AudioRecInited
 906 0006 0BB9     		cbnz	r3, .L42	@ AudioRecInited,
 907              	@ waverecorder.c:288:     return 1;
 281:waverecorder.c ****   {
 282:waverecorder.c ****     I2S_Cmd(SPI2, DISABLE); 
 283:waverecorder.c ****     TIM_Cmd(TIM6, DISABLE);
 284:waverecorder.c ****     return 0;
 285:waverecorder.c ****   }
 286:waverecorder.c ****   else
 287:waverecorder.c ****   {
 288:waverecorder.c ****     return 1;
 908              		.loc 1 288 12 view .LVU223
 909 0008 0120     		movs	r0, #1	@ <retval>,
 910              	@ waverecorder.c:290: }
 289:waverecorder.c ****   }
 290:waverecorder.c **** }
 911              		.loc 1 290 1 view .LVU224
 912 000a 08BD     		pop	{r3, pc}	@
 913              	.L42:
 914              	.LBB48:
 282:waverecorder.c ****     TIM_Cmd(TIM6, DISABLE);
 915              		.loc 1 282 5 is_stmt 1 view .LVU225
 916 000c 0548     		ldr	r0, .L43+4	@,
 917 000e 0021     		movs	r1, #0	@,
 918 0010 FFF7FEFF 		bl	I2S_Cmd		@
 919              	.LVL49:
 283:waverecorder.c ****     return 0;
 920              		.loc 1 283 5 view .LVU226
 921 0014 0021     		movs	r1, #0	@,
 922 0016 0448     		ldr	r0, .L43+8	@,
 923 0018 FFF7FEFF 		bl	TIM_Cmd		@
 924              	.LVL50:
 284:waverecorder.c ****   }
 925              		.loc 1 284 5 view .LVU227
 926              	@ waverecorder.c:284:     return 0;
 284:waverecorder.c ****   }
 927              		.loc 1 284 12 is_stmt 0 view .LVU228
 928 001c 0020     		movs	r0, #0	@ <retval>,
 929              	.LBE48:
 930              	@ waverecorder.c:290: }
 931              		.loc 1 290 1 view .LVU229
 932 001e 08BD     		pop	{r3, pc}	@
 933              	.L44:
 934              		.align	2
 935              	.L43:
 936 0020 00000000 		.word	.LANCHOR3
 937 0024 00380040 		.word	1073756160
 938 0028 00100040 		.word	1073745920
 939              		.cfi_endproc
 940              	.LFE120:
 941              		.size	WaveRecorderStop, .-WaveRecorderStop
 942              		.global	Mic_DMA_PDM_Buffer1
 943              		.global	Mic_DMA_PDM_Buffer0
 944              		.global	buffer_ready
 945              		.global	RecBuf1
 946              		.global	RecBuf0
ARM GAS  C:\Users\admin\AppData\Local\Temp\cccr0VhR.s 			page 26


 947              		.global	Filter
 948              		.section	.bss.AudioRecInited,"aw",%nobits
 949              		.align	2
 950              		.set	.LANCHOR3,. + 0
 951              		.type	AudioRecInited, %object
 952              		.size	AudioRecInited, 4
 953              	AudioRecInited:
 954 0000 00000000 		.space	4
 955              		.section	.bss.Filter,"aw",%nobits
 956              		.align	2
 957              		.set	.LANCHOR0,. + 0
 958              		.type	Filter, %object
 959              		.size	Filter, 52
 960              	Filter:
 961 0000 00000000 		.space	52
 961      00000000 
 961      00000000 
 961      00000000 
 961      00000000 
 962              		.section	.bss.Mic_DMA_PDM_Buffer0,"aw",%nobits
 963              		.align	2
 964              		.set	.LANCHOR1,. + 0
 965              		.type	Mic_DMA_PDM_Buffer0, %object
 966              		.size	Mic_DMA_PDM_Buffer0, 128
 967              	Mic_DMA_PDM_Buffer0:
 968 0000 00000000 		.space	128
 968      00000000 
 968      00000000 
 968      00000000 
 968      00000000 
 969              		.section	.bss.Mic_DMA_PDM_Buffer1,"aw",%nobits
 970              		.align	2
 971              		.set	.LANCHOR2,. + 0
 972              		.type	Mic_DMA_PDM_Buffer1, %object
 973              		.size	Mic_DMA_PDM_Buffer1, 128
 974              	Mic_DMA_PDM_Buffer1:
 975 0000 00000000 		.space	128
 975      00000000 
 975      00000000 
 975      00000000 
 975      00000000 
 976              		.section	.bss.Mic_PDM_Buffer.0,"aw",%nobits
 977              		.align	2
 978              		.set	.LANCHOR6,. + 0
 979              		.type	Mic_PDM_Buffer.0, %object
 980              		.size	Mic_PDM_Buffer.0, 128
 981              	Mic_PDM_Buffer.0:
 982 0000 00000000 		.space	128
 982      00000000 
 982      00000000 
 982      00000000 
 982      00000000 
 983              		.section	.bss.RecBuf0,"aw",%nobits
 984              		.align	2
 985              		.set	.LANCHOR5,. + 0
 986              		.type	RecBuf0, %object
 987              		.size	RecBuf0, 32
ARM GAS  C:\Users\admin\AppData\Local\Temp\cccr0VhR.s 			page 27


 988              	RecBuf0:
 989 0000 00000000 		.space	32
 989      00000000 
 989      00000000 
 989      00000000 
 989      00000000 
 990              		.section	.bss.RecBuf1,"aw",%nobits
 991              		.align	2
 992              		.set	.LANCHOR4,. + 0
 993              		.type	RecBuf1, %object
 994              		.size	RecBuf1, 32
 995              	RecBuf1:
 996 0000 00000000 		.space	32
 996      00000000 
 996      00000000 
 996      00000000 
 996      00000000 
 997              		.section	.data.buffer_ready,"aw"
 998              		.set	.LANCHOR7,. + 0
 999              		.type	buffer_ready, %object
 1000              		.size	buffer_ready, 1
 1001              	buffer_ready:
 1002 0000 01       		.byte	1
 1003              		.text
 1004              	.Letext0:
 1005              		.file 2 "c:\\program files (x86)\\gnu arm embedded toolchain\\10 2021.10\\arm-none-eabi\\include\\
 1006              		.file 3 "c:\\program files (x86)\\gnu arm embedded toolchain\\10 2021.10\\arm-none-eabi\\include\\
 1007              		.file 4 "../Libraries/CMSIS/ST/STM32F4xx/Include/stm32f4xx.h"
 1008              		.file 5 "../Libraries/STM32F4xx_StdPeriph_Driver/inc/stm32f4xx_gpio.h"
 1009              		.file 6 "../Libraries/STM32F4xx_StdPeriph_Driver/inc/misc.h"
 1010              		.file 7 "../Utilities/STM32F4-Discovery/stm32f4_discovery.h"
 1011              		.file 8 "../Utilities/STM32F4-Discovery/pdm_filter.h"
 1012              		.file 9 "../Libraries/STM32F4xx_StdPeriph_Driver/inc/stm32f4xx_dma.h"
 1013              		.file 10 "../Libraries/STM32F4xx_StdPeriph_Driver/inc/stm32f4xx_spi.h"
 1014              		.file 11 "../Libraries/STM32F4xx_StdPeriph_Driver/inc/stm32f4xx_rcc.h"